---
triple:          'x86_64-apple-darwin'
binary-path:     '/opt/UnitySrc/personal/ocs-test/llama_dart/src/native/llama_cpp/build-macos/framework/llama.framework/Versions/A/llama'
relocations:
  - { offset: 0x25BBC, size: 0x8, addend: 0x0, symName: __ZNSt3__127__tree_balance_after_insertB8ne200100IPNS_16__tree_node_baseIPvEEEEvT_S5_, symObjAddr: 0x3580, symBinAddr: 0x4070, symSize: 0x180 }
  - { offset: 0x26EB7, size: 0x8, addend: 0x0, symName: __ZNSt3__120__throw_length_errorB8ne200100EPKc, symObjAddr: 0x3710, symBinAddr: 0x4200, symSize: 0x50 }
  - { offset: 0x274BE, size: 0x8, addend: 0x0, symName: __ZNSt3__120__throw_out_of_rangeB8ne200100EPKc, symObjAddr: 0x4890, symBinAddr: 0x5380, symSize: 0x50 }
  - { offset: 0x28EE1, size: 0x8, addend: 0x0, symName: __ZSt28__throw_bad_array_new_lengthB8ne200100v, symObjAddr: 0x3540, symBinAddr: 0x4030, symSize: 0x40 }
  - { offset: 0x303C3, size: 0x8, addend: 0x0, symName: __ZNK18llama_adapter_cvec10tensor_forEi, symObjAddr: 0x0, symBinAddr: 0xAF0, symSize: 0x30 }
  - { offset: 0x3042B, size: 0x8, addend: 0x0, symName: __ZNK18llama_adapter_cvec8apply_toEP12ggml_contextP11ggml_tensori, symObjAddr: 0x30, symBinAddr: 0xB20, symSize: 0x50 }
  - { offset: 0x30AF2, size: 0x8, addend: 0x0, symName: __ZN18llama_adapter_cvec4initERK11llama_model, symObjAddr: 0x80, symBinAddr: 0xB70, symSize: 0x7E0 }
  - { offset: 0x339C9, size: 0x8, addend: 0x0, symName: __ZNSt3__16__treeINS_12__value_typeIP24ggml_backend_buffer_typeP12ggml_contextEENS_19__map_value_compareIS3_S6_NS_4lessIS3_EELb1EEENS_9allocatorIS6_EEE7destroyEPNS_11__tree_nodeIS6_PvEE, symObjAddr: 0x5DF0, symBinAddr: 0x68E0, symSize: 0x40 }
  - { offset: 0x33AE0, size: 0x8, addend: 0x0, symName: __ZNSt3__16vectorINS_10unique_ptrI19ggml_backend_buffer27ggml_backend_buffer_deleterEENS_9allocatorIS4_EEE20__throw_length_errorB8ne200100Ev, symObjAddr: 0x55E0, symBinAddr: 0x60D0, symSize: 0x10 }
  - { offset: 0x33AF8, size: 0x8, addend: 0x0, symName: __ZNSt3__16vectorIhNS_9allocatorIhEEE20__throw_length_errorB8ne200100Ev, symObjAddr: 0x55F0, symBinAddr: 0x60E0, symSize: 0x10 }
  - { offset: 0x33B03, size: 0x8, addend: 0x0, symName: __ZNSt3__16vectorIP11ggml_tensorNS_9allocatorIS2_EEE20__throw_length_errorB8ne200100Ev, symObjAddr: 0x5E30, symBinAddr: 0x6920, symSize: 0x10 }
  - { offset: 0x33B1B, size: 0x8, addend: 0x0, symName: __ZNSt3__112__hash_tableINS_17__hash_value_typeINS_12basic_stringIcNS_11char_traitsIcEENS_9allocatorIcEEEE25llama_adapter_lora_weightEENS_22__unordered_map_hasherIS7_S9_NS_4hashIS7_EENS_8equal_toIS7_EELb1EEENS_21__unordered_map_equalIS7_S9_SE_SC_Lb1EEENS5_IS9_EEE4findIS7_EENS_15__hash_iteratorIPNS_11__hash_nodeIS9_PvEEEERKT_, symObjAddr: 0x5E40, symBinAddr: 0x6930, symSize: 0x290 }
  - { offset: 0x33B26, size: 0x8, addend: 0x0, symName: __ZNSt3__16vectorINS_10unique_ptrI12ggml_context20ggml_context_deleterEENS_9allocatorIS4_EEE20__throw_length_errorB8ne200100Ev, symObjAddr: 0x3700, symBinAddr: 0x41F0, symSize: 0x10 }
  - { offset: 0x33B3E, size: 0x8, addend: 0x0, symName: __ZNSt3__120__throw_length_errorB8ne200100EPKc, symObjAddr: 0x3710, symBinAddr: 0x4200, symSize: 0x50 }
  - { offset: 0x33B85, size: 0x8, addend: 0x0, symName: __ZN18llama_adapter_cvec5applyERK11llama_modelPKfmiii, symObjAddr: 0x860, symBinAddr: 0x1350, symSize: 0x130 }
  - { offset: 0x3402D, size: 0x8, addend: 0x0, symName: __ZN18llama_adapter_lora10get_weightEP11ggml_tensor, symObjAddr: 0x990, symBinAddr: 0x1480, symSize: 0xF0 }
  - { offset: 0x345FD, size: 0x8, addend: 0x0, symName: __ZNSt3__112__hash_tableINS_17__hash_value_typeINS_12basic_stringIcNS_11char_traitsIcEENS_9allocatorIcEEEE25llama_adapter_lora_weightEENS_22__unordered_map_hasherIS7_S9_NS_4hashIS7_EENS_8equal_toIS7_EELb1EEENS_21__unordered_map_equalIS7_S9_SE_SC_Lb1EEENS5_IS9_EEE4findIS7_EENS_15__hash_iteratorIPNS_11__hash_nodeIS9_PvEEEERKT_, symObjAddr: 0x5E40, symBinAddr: 0x6930, symSize: 0x290 }
  - { offset: 0x348FB, size: 0x8, addend: 0x0, symName: __ZNSt3__112basic_stringIcNS_11char_traitsIcEENS_9allocatorIcEEE20__throw_length_errorB8ne200100Ev, symObjAddr: 0x4910, symBinAddr: 0x5400, symSize: 0x10 }
  - { offset: 0x34913, size: 0x8, addend: 0x0, symName: __ZNSt3__112basic_stringIcNS_11char_traitsIcEENS_9allocatorIcEEE25__init_copy_ctor_externalEPKcm, symObjAddr: 0x4920, symBinAddr: 0x5410, symSize: 0x80 }
  - { offset: 0x3491E, size: 0x8, addend: 0x0, symName: __ZNSt3__112basic_stringIcNS_11char_traitsIcEENS_9allocatorIcEEEC1B8ne200100ILi0EEEPKc, symObjAddr: 0xA80, symBinAddr: 0x1570, symSize: 0x90 }
  - { offset: 0x34DCA, size: 0x8, addend: 0x0, symName: _llama_adapter_lora_init, symObjAddr: 0xB10, symBinAddr: 0x1600, symSize: 0x100 }
  - { offset: 0x35074, size: 0x8, addend: 0x0, symName: __ZL28llama_adapter_lora_init_implR11llama_modelPKcR18llama_adapter_lora, symObjAddr: 0xC10, symBinAddr: 0x1700, symSize: 0x2600 }
  - { offset: 0x3D5BE, size: 0x8, addend: 0x0, symName: __ZN18llama_adapter_loraD2Ev, symObjAddr: 0x5C60, symBinAddr: 0x6750, symSize: 0x190 }
  - { offset: 0x3F608, size: 0x8, addend: 0x0, symName: __ZNSt3__112__hash_tableINS_17__hash_value_typeINS_12basic_stringIcNS_11char_traitsIcEENS_9allocatorIcEEEES7_EENS_22__unordered_map_hasherIS7_S8_NS_4hashIS7_EENS_8equal_toIS7_EELb1EEENS_21__unordered_map_equalIS7_S8_SD_SB_Lb1EEENS5_IS8_EEE21__emplace_unique_implIJRPKcRKS7_EEENS_4pairINS_15__hash_iteratorIPNS_11__hash_nodeIS8_PvEEEEbEEDpOT_, symObjAddr: 0x39B0, symBinAddr: 0x44A0, symSize: 0x110 }
  - { offset: 0x3FDF7, size: 0x8, addend: 0x0, symName: __ZNSt3__112basic_stringIcNS_11char_traitsIcEENS_9allocatorIcEEE25__init_copy_ctor_externalEPKcm, symObjAddr: 0x4920, symBinAddr: 0x5410, symSize: 0x80 }
  - { offset: 0x400C4, size: 0x8, addend: 0x0, symName: __ZNSt3__16vectorIiNS_9allocatorIiEEE8__appendEm, symObjAddr: 0x49A0, symBinAddr: 0x5490, symSize: 0x150 }
  - { offset: 0x40546, size: 0x8, addend: 0x0, symName: __ZNSt3__16__treeINS_12__value_typeINS_12basic_stringIcNS_11char_traitsIcEENS_9allocatorIcEEEE25llama_adapter_lora_weightEENS_19__map_value_compareIS7_S9_NS_4lessIS7_EELb1EEENS5_IS9_EEE4findIS7_EENS_15__tree_iteratorIS9_PNS_11__tree_nodeIS9_PvEElEERKT_, symObjAddr: 0x4B00, symBinAddr: 0x55F0, symSize: 0x110 }
  - { offset: 0x408AA, size: 0x8, addend: 0x0, symName: __ZNSt3__16__treeINS_12__value_typeINS_12basic_stringIcNS_11char_traitsIcEENS_9allocatorIcEEEE25llama_adapter_lora_weightEENS_19__map_value_compareIS7_S9_NS_4lessIS7_EELb1EEENS5_IS9_EEE25__emplace_unique_key_argsIS7_JRKNS_21piecewise_construct_tENS_5tupleIJRKS7_EEENSK_IJEEEEEENS_4pairINS_15__tree_iteratorIS9_PNS_11__tree_nodeIS9_PvEElEEbEERKT_DpOT0_, symObjAddr: 0x4C10, symBinAddr: 0x5700, symSize: 0x1C0 }
  - { offset: 0x410A0, size: 0x8, addend: 0x0, symName: __ZNSt3__112__hash_tableINS_17__hash_value_typeINS_12basic_stringIcNS_11char_traitsIcEENS_9allocatorIcEEEE25llama_adapter_lora_weightEENS_22__unordered_map_hasherIS7_S9_NS_4hashIS7_EENS_8equal_toIS7_EELb1EEENS_21__unordered_map_equalIS7_S9_SE_SC_Lb1EEENS5_IS9_EEE25__emplace_unique_key_argsIS7_JRKNS_21piecewise_construct_tENS_5tupleIJRKS7_EEENSO_IJEEEEEENS_4pairINS_15__hash_iteratorIPNS_11__hash_nodeIS9_PvEEEEbEERKT_DpOT0_, symObjAddr: 0x4E30, symBinAddr: 0x5920, symSize: 0x5B0 }
  - { offset: 0x41C17, size: 0x8, addend: 0x0, symName: '__ZZL28llama_adapter_lora_init_implR11llama_modelPKcR18llama_adapter_loraENK3$_4clEP11ggml_tensorS7_', symObjAddr: 0x37F0, symBinAddr: 0x42E0, symSize: 0x190 }
  - { offset: 0x42216, size: 0x8, addend: 0x0, symName: __ZNSt3__112__hash_tableIP18llama_adapter_loraNS_4hashIS2_EENS_8equal_toIS2_EENS_9allocatorIS2_EEE25__emplace_unique_key_argsIS2_JS2_EEENS_4pairINS_15__hash_iteratorIPNS_11__hash_nodeIS2_PvEEEEbEERKT_DpOT0_, symObjAddr: 0x5600, symBinAddr: 0x60F0, symSize: 0x460 }
  - { offset: 0x4299D, size: 0x8, addend: 0x0, symName: __ZNSt3__16__treeINS_12__value_typeINS_12basic_stringIcNS_11char_traitsIcEENS_9allocatorIcEEEE25llama_adapter_lora_weightEENS_19__map_value_compareIS7_S9_NS_4lessIS7_EELb1EEENS5_IS9_EEE7destroyEPNS_11__tree_nodeIS9_PvEE, symObjAddr: 0x5C10, symBinAddr: 0x6700, symSize: 0x50 }
  - { offset: 0x42C4D, size: 0x8, addend: 0x0, symName: __ZNSt3__112basic_stringIcNS_11char_traitsIcEENS_9allocatorIcEEE20__throw_out_of_rangeB8ne200100Ev, symObjAddr: 0x4880, symBinAddr: 0x5370, symSize: 0x10 }
  - { offset: 0x42C65, size: 0x8, addend: 0x0, symName: __ZNSt3__120__throw_out_of_rangeB8ne200100EPKc, symObjAddr: 0x4890, symBinAddr: 0x5380, symSize: 0x50 }
  - { offset: 0x42C70, size: 0x8, addend: 0x0, symName: __ZNSt3__16vectorIP24ggml_backend_buffer_typeNS_9allocatorIS2_EEE20__throw_length_errorB8ne200100Ev, symObjAddr: 0x4E20, symBinAddr: 0x5910, symSize: 0x10 }
  - { offset: 0x42C88, size: 0x8, addend: 0x0, symName: __ZNSt3__112__hash_tableINS_17__hash_value_typeINS_12basic_stringIcNS_11char_traitsIcEENS_9allocatorIcEEEE25llama_adapter_lora_weightEENS_22__unordered_map_hasherIS7_S9_NS_4hashIS7_EENS_8equal_toIS7_EELb1EEENS_21__unordered_map_equalIS7_S9_SE_SC_Lb1EEENS5_IS9_EEE25__emplace_unique_key_argsIS7_JRKNS_21piecewise_construct_tENS_5tupleIJRKS7_EEENSO_IJEEEEEENS_4pairINS_15__hash_iteratorIPNS_11__hash_nodeIS9_PvEEEEbEERKT_DpOT0_, symObjAddr: 0x4E30, symBinAddr: 0x5920, symSize: 0x5B0 }
  - { offset: 0x42C93, size: 0x8, addend: 0x0, symName: __ZNSt3__110unique_ptrI12gguf_context20gguf_context_deleterED1B8ne200100Ev, symObjAddr: 0x3980, symBinAddr: 0x4470, symSize: 0x30 }
  - { offset: 0x42D20, size: 0x8, addend: 0x0, symName: __ZNSt3__110unique_ptrI19ggml_backend_buffer27ggml_backend_buffer_deleterED1B8ne200100Ev, symObjAddr: 0x37C0, symBinAddr: 0x42B0, symSize: 0x30 }
  - { offset: 0x42DAD, size: 0x8, addend: 0x0, symName: __ZNSt3__110unique_ptrI12ggml_context20ggml_context_deleterED1B8ne200100Ev, symObjAddr: 0x3790, symBinAddr: 0x4280, symSize: 0x30 }
  - { offset: 0x42E6E, size: 0x8, addend: 0x0, symName: _llama_adapter_meta_val_str, symObjAddr: 0x3220, symBinAddr: 0x3D10, symSize: 0x130 }
  - { offset: 0x434E5, size: 0x8, addend: 0x0, symName: __ZNKSt3__112__hash_tableINS_17__hash_value_typeINS_12basic_stringIcNS_11char_traitsIcEENS_9allocatorIcEEEES7_EENS_22__unordered_map_hasherIS7_S8_NS_4hashIS7_EENS_8equal_toIS7_EELb1EEENS_21__unordered_map_equalIS7_S8_SD_SB_Lb1EEENS5_IS8_EEE4findIS7_EENS_21__hash_const_iteratorIPNS_11__hash_nodeIS8_PvEEEERKT_, symObjAddr: 0x60D0, symBinAddr: 0x6BC0, symSize: 0x289 }
  - { offset: 0x43833, size: 0x8, addend: 0x0, symName: _llama_adapter_meta_count, symObjAddr: 0x3350, symBinAddr: 0x3E40, symSize: 0x10 }
  - { offset: 0x43904, size: 0x8, addend: 0x0, symName: _llama_adapter_meta_key_by_index, symObjAddr: 0x3360, symBinAddr: 0x3E50, symSize: 0xB0 }
  - { offset: 0x43AB7, size: 0x8, addend: 0x0, symName: _llama_adapter_meta_val_str_by_index, symObjAddr: 0x3410, symBinAddr: 0x3F00, symSize: 0xB0 }
  - { offset: 0x43C6A, size: 0x8, addend: 0x0, symName: _llama_adapter_lora_free, symObjAddr: 0x34C0, symBinAddr: 0x3FB0, symSize: 0x10 }
  - { offset: 0x43C8D, size: 0x8, addend: 0x0, symName: _llama_adapter_get_alora_n_invocation_tokens, symObjAddr: 0x34D0, symBinAddr: 0x3FC0, symSize: 0x30 }
  - { offset: 0x43CEE, size: 0x8, addend: 0x0, symName: _llama_adapter_get_alora_invocation_tokens, symObjAddr: 0x3500, symBinAddr: 0x3FF0, symSize: 0x40 }
  - { offset: 0x43D8D, size: 0x8, addend: 0x0, symName: __ZNSt12length_errorC1B8ne200100EPKc, symObjAddr: 0x3760, symBinAddr: 0x4250, symSize: 0x30 }
  - { offset: 0x442C5, size: 0x8, addend: 0x0, symName: __ZNSt3__16vectorIhNS_9allocatorIhEEE20__throw_length_errorB8ne200100Ev, symObjAddr: 0x55F0, symBinAddr: 0x60E0, symSize: 0x10 }
  - { offset: 0x442DD, size: 0x8, addend: 0x0, symName: __ZNSt3__112__hash_tableIP18llama_adapter_loraNS_4hashIS2_EENS_8equal_toIS2_EENS_9allocatorIS2_EEE25__emplace_unique_key_argsIS2_JS2_EEENS_4pairINS_15__hash_iteratorIPNS_11__hash_nodeIS2_PvEEEEbEERKT_DpOT0_, symObjAddr: 0x5600, symBinAddr: 0x60F0, symSize: 0x460 }
  - { offset: 0x44785, size: 0x8, addend: 0x0, symName: __ZNSt3__14pairIKNS_12basic_stringIcNS_11char_traitsIcEENS_9allocatorIcEEEES6_EC2B8ne200100IRPKcRS7_Li0EEEOT_OT0_, symObjAddr: 0x3CA0, symBinAddr: 0x4790, symSize: 0x100 }
  - { offset: 0x44C01, size: 0x8, addend: 0x0, symName: __ZNKSt3__121__murmur2_or_cityhashImLm64EEclB8ne200100EPKvm, symObjAddr: 0x3DA0, symBinAddr: 0x4890, symSize: 0x4B0 }
  - { offset: 0x456F0, size: 0x8, addend: 0x0, symName: __ZNSt3__112__hash_tableINS_17__hash_value_typeINS_12basic_stringIcNS_11char_traitsIcEENS_9allocatorIcEEEES7_EENS_22__unordered_map_hasherIS7_S8_NS_4hashIS7_EENS_8equal_toIS7_EELb1EEENS_21__unordered_map_equalIS7_S8_SD_SB_Lb1EEENS5_IS8_EEE20__node_insert_uniqueEPNS_11__hash_nodeIS8_PvEE, symObjAddr: 0x3AC0, symBinAddr: 0x45B0, symSize: 0x190 }
  - { offset: 0x45926, size: 0x8, addend: 0x0, symName: __ZNSt3__110unique_ptrINS_11__hash_nodeINS_17__hash_value_typeINS_12basic_stringIcNS_11char_traitsIcEENS_9allocatorIcEEEES8_EEPvEENS_22__hash_node_destructorINS6_ISB_EEEEED1B8ne200100Ev, symObjAddr: 0x3C50, symBinAddr: 0x4740, symSize: 0x50 }
  - { offset: 0x45DA3, size: 0x8, addend: 0x0, symName: __ZNSt3__112__hash_tableINS_17__hash_value_typeINS_12basic_stringIcNS_11char_traitsIcEENS_9allocatorIcEEEES7_EENS_22__unordered_map_hasherIS7_S8_NS_4hashIS7_EENS_8equal_toIS7_EELb1EEENS_21__unordered_map_equalIS7_S8_SD_SB_Lb1EEENS5_IS8_EEE28__node_insert_unique_prepareB8ne200100EmRS8_, symObjAddr: 0x4250, symBinAddr: 0x4D40, symSize: 0x480 }
  - { offset: 0x46451, size: 0x8, addend: 0x0, symName: __ZNSt3__112__hash_tableINS_17__hash_value_typeINS_12basic_stringIcNS_11char_traitsIcEENS_9allocatorIcEEEES7_EENS_22__unordered_map_hasherIS7_S8_NS_4hashIS7_EENS_8equal_toIS7_EELb1EEENS_21__unordered_map_equalIS7_S8_SD_SB_Lb1EEENS5_IS8_EEE11__do_rehashILb1EEEvm, symObjAddr: 0x46D0, symBinAddr: 0x51C0, symSize: 0x1B0 }
  - { offset: 0x4691D, size: 0x8, addend: 0x0, symName: __ZNSt12out_of_rangeC1B8ne200100EPKc, symObjAddr: 0x48E0, symBinAddr: 0x53D0, symSize: 0x30 }
  - { offset: 0x46CBA, size: 0x8, addend: 0x0, symName: __ZNSt3__16vectorIiNS_9allocatorIiEEE20__throw_length_errorB8ne200100Ev, symObjAddr: 0x4AF0, symBinAddr: 0x55E0, symSize: 0x10 }
  - { offset: 0x46CD2, size: 0x8, addend: 0x0, symName: __ZNSt3__16__treeINS_12__value_typeINS_12basic_stringIcNS_11char_traitsIcEENS_9allocatorIcEEEE25llama_adapter_lora_weightEENS_19__map_value_compareIS7_S9_NS_4lessIS7_EELb1EEENS5_IS9_EEE4findIS7_EENS_15__tree_iteratorIS9_PNS_11__tree_nodeIS9_PvEElEERKT_, symObjAddr: 0x4B00, symBinAddr: 0x55F0, symSize: 0x110 }
  - { offset: 0x47287, size: 0x8, addend: 0x0, symName: __ZNSt3__110unique_ptrINS_11__tree_nodeINS_12__value_typeINS_12basic_stringIcNS_11char_traitsIcEENS_9allocatorIcEEEE25llama_adapter_lora_weightEEPvEENS_22__tree_node_destructorINS6_ISC_EEEEED1B8ne200100Ev, symObjAddr: 0x4DD0, symBinAddr: 0x58C0, symSize: 0x50 }
  - { offset: 0x47AAB, size: 0x8, addend: 0x0, symName: __ZNSt3__112__hash_tableINS_17__hash_value_typeINS_12basic_stringIcNS_11char_traitsIcEENS_9allocatorIcEEEE25llama_adapter_lora_weightEENS_22__unordered_map_hasherIS7_S9_NS_4hashIS7_EENS_8equal_toIS7_EELb1EEENS_21__unordered_map_equalIS7_S9_SE_SC_Lb1EEENS5_IS9_EEE11__do_rehashILb1EEEvm, symObjAddr: 0x5430, symBinAddr: 0x5F20, symSize: 0x1B0 }
  - { offset: 0x47E67, size: 0x8, addend: 0x0, symName: __ZNSt3__110unique_ptrINS_11__hash_nodeINS_17__hash_value_typeINS_12basic_stringIcNS_11char_traitsIcEENS_9allocatorIcEEEE25llama_adapter_lora_weightEEPvEENS_22__hash_node_destructorINS6_ISC_EEEEED1B8ne200100Ev, symObjAddr: 0x53E0, symBinAddr: 0x5ED0, symSize: 0x50 }
  - { offset: 0x4879C, size: 0x8, addend: 0x0, symName: __ZNSt3__112__hash_tableIP18llama_adapter_loraNS_4hashIS2_EENS_8equal_toIS2_EENS_9allocatorIS2_EEE11__do_rehashILb1EEEvm, symObjAddr: 0x5A60, symBinAddr: 0x6550, symSize: 0x1B0 }
  - { offset: 0x4B5B2, size: 0x8, addend: 0x0, symName: __ZL14LLM_ARCH_NAMES, symObjAddr: 0x73168, symBinAddr: 0x3A6010, symSize: 0x0 }
  - { offset: 0x5AE37, size: 0x8, addend: 0x0, symName: __ZL12LLM_KV_NAMES, symObjAddr: 0x73180, symBinAddr: 0x3A6028, symSize: 0x0 }
  - { offset: 0x5B25D, size: 0x8, addend: 0x0, symName: __ZL16LLM_TENSOR_NAMES, symObjAddr: 0x73198, symBinAddr: 0x3A6040, symSize: 0x0 }
  - { offset: 0x5BB28, size: 0x8, addend: 0x0, symName: __ZL16LLM_TENSOR_INFOS, symObjAddr: 0x731B0, symBinAddr: 0x3A6058, symSize: 0x0 }
  - { offset: 0x5C2C1, size: 0x8, addend: 0x0, symName: __ZNSt3__13mapI8llm_archPKcNS_4lessIS1_EENS_9allocatorINS_4pairIKS1_S3_EEEEED1B8ne200100Ev, symObjAddr: 0x0, symBinAddr: 0x6E50, symSize: 0x10 }
  - { offset: 0x5C374, size: 0x8, addend: 0x0, symName: __ZNSt3__16__treeINS_12__value_typeI8llm_archPKcEENS_19__map_value_compareIS2_S5_NS_4lessIS2_EELb1EEENS_9allocatorIS5_EEE7destroyEPNS_11__tree_nodeIS5_PvEE, symObjAddr: 0x2BC0, symBinAddr: 0x9880, symSize: 0x40 }
  - { offset: 0x5C4FF, size: 0x8, addend: 0x0, symName: __ZNSt3__13mapI6llm_kvPKcNS_4lessIS1_EENS_9allocatorINS_4pairIKS1_S3_EEEEED1B8ne200100Ev, symObjAddr: 0x10, symBinAddr: 0x6E60, symSize: 0x10 }
  - { offset: 0x5C5B2, size: 0x8, addend: 0x0, symName: __ZNSt3__16__treeINS_12__value_typeI6llm_kvPKcEENS_19__map_value_compareIS2_S5_NS_4lessIS2_EELb1EEENS_9allocatorIS5_EEE7destroyEPNS_11__tree_nodeIS5_PvEE, symObjAddr: 0x2D70, symBinAddr: 0x9A30, symSize: 0x40 }
  - { offset: 0x5C73D, size: 0x8, addend: 0x0, symName: __ZNSt3__13mapI10llm_tensorPKcNS_4lessIS1_EENS_9allocatorINS_4pairIKS1_S3_EEEEED1B8ne200100Ev, symObjAddr: 0x20, symBinAddr: 0x6E70, symSize: 0x10 }
  - { offset: 0x5C7F0, size: 0x8, addend: 0x0, symName: __ZNSt3__16__treeINS_12__value_typeI10llm_tensorPKcEENS_19__map_value_compareIS2_S5_NS_4lessIS2_EELb1EEENS_9allocatorIS5_EEE7destroyEPNS_11__tree_nodeIS5_PvEE, symObjAddr: 0x2F20, symBinAddr: 0x9BE0, symSize: 0x40 }
  - { offset: 0x5C97B, size: 0x8, addend: 0x0, symName: __ZNSt3__13mapI10llm_tensor15llm_tensor_infoNS_4lessIS1_EENS_9allocatorINS_4pairIKS1_S2_EEEEED1B8ne200100Ev, symObjAddr: 0x30, symBinAddr: 0x6E80, symSize: 0x10 }
  - { offset: 0x5CA2E, size: 0x8, addend: 0x0, symName: __ZNSt3__16__treeINS_12__value_typeI10llm_tensor15llm_tensor_infoEENS_19__map_value_compareIS2_S4_NS_4lessIS2_EELb1EEENS_9allocatorIS4_EEE7destroyEPNS_11__tree_nodeIS4_PvEE, symObjAddr: 0x30D0, symBinAddr: 0x9D90, symSize: 0x40 }
  - { offset: 0x5CB4A, size: 0x8, addend: 0x0, symName: __ZN6LLM_KVC2E8llm_archPKc, symObjAddr: 0x40, symBinAddr: 0x6E90, symSize: 0x10 }
  - { offset: 0x5CBB3, size: 0x8, addend: 0x0, symName: __ZN6LLM_KVC1E8llm_archPKc, symObjAddr: 0x50, symBinAddr: 0x6EA0, symSize: 0x10 }
  - { offset: 0x5CF7F, size: 0x8, addend: 0x0, symName: __ZNK6LLM_KVclE6llm_kv, symObjAddr: 0x60, symBinAddr: 0x6EB0, symSize: 0xD0 }
  - { offset: 0x5D548, size: 0x8, addend: 0x0, symName: __ZN11LLM_TN_IMPLC2E8llm_arch10llm_tensorPKcii, symObjAddr: 0x130, symBinAddr: 0x6F80, symSize: 0x2090 }
  - { offset: 0x5E5DE, size: 0x8, addend: 0x0, symName: __ZNSt3__13setI10llm_tensorNS_4lessIS1_EENS_9allocatorIS1_EEE6insertB8ne200100IPKS1_EEvT_SA_, symObjAddr: 0x2740, symBinAddr: 0x9590, symSize: 0x140 }
  - { offset: 0x5E624, size: 0x8, addend: 0x0, symName: __ZNSt3__13setI10llm_tensorNS_4lessIS1_EENS_9allocatorIS1_EEE6insertB8ne200100IPKS1_EEvT_SA_, symObjAddr: 0x2740, symBinAddr: 0x9590, symSize: 0x140 }
  - { offset: 0x5E9BB, size: 0x8, addend: 0x0, symName: __ZNSt3__13setI10llm_tensorNS_4lessIS1_EENS_9allocatorIS1_EEEC1B8ne200100ESt16initializer_listIS1_ERKS3_, symObjAddr: 0x2700, symBinAddr: 0x9550, symSize: 0x40 }
  - { offset: 0x5EB16, size: 0x8, addend: 0x0, symName: __ZNSt3__16__treeI10llm_tensorNS_4lessIS1_EENS_9allocatorIS1_EEE7destroyEPNS_11__tree_nodeIS1_PvEE, symObjAddr: 0x2A10, symBinAddr: 0x96D0, symSize: 0x40 }
  - { offset: 0x5EC2D, size: 0x8, addend: 0x0, symName: __ZN11LLM_TN_IMPLC1E8llm_arch10llm_tensorPKcii, symObjAddr: 0x21C0, symBinAddr: 0x9010, symSize: 0x10 }
  - { offset: 0x5F18C, size: 0x8, addend: 0x0, symName: __ZNK11LLM_TN_IMPL3strEv, symObjAddr: 0x21D0, symBinAddr: 0x9020, symSize: 0x200 }
  - { offset: 0x5FAB9, size: 0x8, addend: 0x0, symName: __Z13llm_arch_name8llm_arch, symObjAddr: 0x23D0, symBinAddr: 0x9220, symSize: 0x50 }
  - { offset: 0x5FAFA, size: 0x8, addend: 0x0, symName: __Z13llm_arch_name8llm_arch, symObjAddr: 0x23D0, symBinAddr: 0x9220, symSize: 0x50 }
  - { offset: 0x5FB0F, size: 0x8, addend: 0x0, symName: __Z13llm_arch_name8llm_arch, symObjAddr: 0x23D0, symBinAddr: 0x9220, symSize: 0x50 }
  - { offset: 0x5FB2D, size: 0x8, addend: 0x0, symName: __Z13llm_arch_name8llm_arch, symObjAddr: 0x23D0, symBinAddr: 0x9220, symSize: 0x50 }
  - { offset: 0x5FD24, size: 0x8, addend: 0x0, symName: __Z20llm_arch_from_stringRKNSt3__112basic_stringIcNS_11char_traitsIcEENS_9allocatorIcEEEE, symObjAddr: 0x2420, symBinAddr: 0x9270, symSize: 0x100 }
  - { offset: 0x600BC, size: 0x8, addend: 0x0, symName: __Z19llm_tensor_info_for10llm_tensor, symObjAddr: 0x2520, symBinAddr: 0x9370, symSize: 0x50 }
  - { offset: 0x601A1, size: 0x8, addend: 0x0, symName: __Z21llm_arch_is_recurrentRK8llm_arch, symObjAddr: 0x2570, symBinAddr: 0x93C0, symSize: 0x20 }
  - { offset: 0x601D0, size: 0x8, addend: 0x0, symName: __Z18llm_arch_is_hybridRK8llm_arch, symObjAddr: 0x2590, symBinAddr: 0x93E0, symSize: 0x150 }
  - { offset: 0x601FF, size: 0x8, addend: 0x0, symName: __Z21llm_arch_is_diffusionRK8llm_arch, symObjAddr: 0x26E0, symBinAddr: 0x9530, symSize: 0x20 }
  - { offset: 0x60938, size: 0x8, addend: 0x0, symName: __ZNSt3__13mapI8llm_archPKcNS_4lessIS1_EENS_9allocatorINS_4pairIKS1_S3_EEEEEC2B8ne200100ESt16initializer_listIS9_ERKS5_, symObjAddr: 0x2A50, symBinAddr: 0x9710, symSize: 0x170 }
  - { offset: 0x6125D, size: 0x8, addend: 0x0, symName: __ZNSt3__13mapI6llm_kvPKcNS_4lessIS1_EENS_9allocatorINS_4pairIKS1_S3_EEEEEC2B8ne200100ESt16initializer_listIS9_ERKS5_, symObjAddr: 0x2C00, symBinAddr: 0x98C0, symSize: 0x170 }
  - { offset: 0x61B4E, size: 0x8, addend: 0x0, symName: __ZNSt3__13mapI10llm_tensorPKcNS_4lessIS1_EENS_9allocatorINS_4pairIKS1_S3_EEEEEC2B8ne200100ESt16initializer_listIS9_ERKS5_, symObjAddr: 0x2DB0, symBinAddr: 0x9A70, symSize: 0x170 }
  - { offset: 0x62473, size: 0x8, addend: 0x0, symName: __ZNSt3__13mapI10llm_tensor15llm_tensor_infoNS_4lessIS1_EENS_9allocatorINS_4pairIKS1_S2_EEEEEC2B8ne200100ESt16initializer_listIS8_ERKS4_, symObjAddr: 0x2F60, symBinAddr: 0x9C20, symSize: 0x170 }
  - { offset: 0x62B9E, size: 0x8, addend: 0x0, symName: __GLOBAL__sub_I_llama_arch.cpp, symObjAddr: 0x3360, symBinAddr: 0x9DD0, symSize: 0x166 }
  - { offset: 0x747F9, size: 0x8, addend: 0x0, symName: __ZNSt3__124__put_character_sequenceB8ne200100IcNS_11char_traitsIcEEEERNS_13basic_ostreamIT_T0_EES7_PKS4_m, symObjAddr: 0x6B40, symBinAddr: 0x107D0, symSize: 0x150 }
  - { offset: 0x7BCA4, size: 0x8, addend: 0x0, symName: __ZNSt3__116__pad_and_outputB8ne200100IcNS_11char_traitsIcEEEENS_19ostreambuf_iteratorIT_T0_EES6_PKS4_S8_S8_RNS_8ios_baseES4_, symObjAddr: 0x6C90, symBinAddr: 0x10920, symSize: 0x160 }
  - { offset: 0x80390, size: 0x8, addend: 0x0, symName: __ZN18llama_batch_allocrC2Ej, symObjAddr: 0x0, symBinAddr: 0x9F40, symSize: 0x370 }
  - { offset: 0x811D3, size: 0x8, addend: 0x0, symName: __ZNSt3__16vectorINS_3setIiNS_4lessIiEENS_9allocatorIiEEEENS4_IS6_EEE8__appendEm, symObjAddr: 0x5760, symBinAddr: 0xF690, symSize: 0x220 }
  - { offset: 0x818B4, size: 0x8, addend: 0x0, symName: __ZNSt3__16vectorINS0_IbNS_9allocatorIbEEEENS1_IS3_EEE8__appendEm, symObjAddr: 0x5A50, symBinAddr: 0xF8C0, symSize: 0x260 }
  - { offset: 0x81F56, size: 0x8, addend: 0x0, symName: __ZNSt3__16vectorIbNS_9allocatorIbEEE6resizeEmb, symObjAddr: 0x370, symBinAddr: 0xA2B0, symSize: 0x2A0 }
  - { offset: 0x8277D, size: 0x8, addend: 0x0, symName: __ZNSt3__16vectorIiNS_9allocatorIiEEE8__appendEmRKi, symObjAddr: 0x5E10, symBinAddr: 0xFC80, symSize: 0x200 }
  - { offset: 0x82C07, size: 0x8, addend: 0x0, symName: __ZNSt3__113unordered_mapINS_6bitsetILm256EEENS_6vectorIiNS_9allocatorIiEEEENS_4hashIS2_EENS_8equal_toIS2_EENS4_INS_4pairIKS2_S6_EEEEED1B8ne200100Ev, symObjAddr: 0x610, symBinAddr: 0xA550, symSize: 0x70 }
  - { offset: 0x83006, size: 0x8, addend: 0x0, symName: __ZNSt3__16vectorINS0_IbNS_9allocatorIbEEEENS1_IS3_EEED1B8ne200100Ev, symObjAddr: 0x680, symBinAddr: 0xA5C0, symSize: 0x70 }
  - { offset: 0x83252, size: 0x8, addend: 0x0, symName: __ZNSt3__16vectorINS_3setIiNS_4lessIiEENS_9allocatorIiEEEENS4_IS6_EEED1B8ne200100Ev, symObjAddr: 0x6F0, symBinAddr: 0xA630, symSize: 0x70 }
  - { offset: 0x8367F, size: 0x8, addend: 0x0, symName: __ZNSt3__16vectorIbNS_9allocatorIbEEE7reserveEm, symObjAddr: 0x5CC0, symBinAddr: 0xFB30, symSize: 0x140 }
  - { offset: 0x83A53, size: 0x8, addend: 0x0, symName: __ZNSt3__16vectorIbNS_9allocatorIbEEE20__throw_length_errorB8ne200100Ev, symObjAddr: 0x5E00, symBinAddr: 0xFC70, symSize: 0x10 }
  - { offset: 0x83A6B, size: 0x8, addend: 0x0, symName: __ZNSt3__16vectorIiNS_9allocatorIiEEE8__appendEmRKi, symObjAddr: 0x5E10, symBinAddr: 0xFC80, symSize: 0x200 }
  - { offset: 0x83F66, size: 0x8, addend: 0x0, symName: __ZNSt3__16__treeIiNS_4lessIiEENS_9allocatorIiEEE7destroyEPNS_11__tree_nodeIiPvEE, symObjAddr: 0x5720, symBinAddr: 0xF650, symSize: 0x40 }
  - { offset: 0x8407D, size: 0x8, addend: 0x0, symName: __ZN18llama_batch_allocrC1Ej, symObjAddr: 0x760, symBinAddr: 0xA6A0, symSize: 0x10 }
  - { offset: 0x85829, size: 0x8, addend: 0x0, symName: __ZN18llama_batch_allocr4initERK11llama_batchRK11llama_vocabPK14llama_memory_ijjb, symObjAddr: 0x770, symBinAddr: 0xA6B0, symSize: 0x1CB0 }
  - { offset: 0x895FE, size: 0x8, addend: 0x0, symName: __ZN18llama_batch_allocr5clearEv, symObjAddr: 0x2420, symBinAddr: 0xC360, symSize: 0x1E0 }
  - { offset: 0x8A238, size: 0x8, addend: 0x0, symName: __ZNSt3__16vectorIPiNS_9allocatorIS1_EEE8__appendEm, symObjAddr: 0x6170, symBinAddr: 0xFE80, symSize: 0x150 }
  - { offset: 0x8A656, size: 0x8, addend: 0x0, symName: __ZN18llama_batch_allocr12ubatch_printERK12llama_ubatchi, symObjAddr: 0x2600, symBinAddr: 0xC540, symSize: 0xCD0 }
  - { offset: 0x8BAA4, size: 0x8, addend: 0x0, symName: __ZNSt3__118basic_stringstreamIcNS_11char_traitsIcEENS_9allocatorIcEEEC1B8ne200100Ev, symObjAddr: 0x32D0, symBinAddr: 0xD210, symSize: 0x180 }
  - { offset: 0x8BD3C, size: 0x8, addend: 0x0, symName: __ZNSt3__112__hash_tableINS_17__hash_value_typeINS_6bitsetILm256EEENS_6vectorIiNS_9allocatorIiEEEEEENS_22__unordered_map_hasherIS3_S8_NS_4hashIS3_EENS_8equal_toIS3_EELb1EEENS_21__unordered_map_equalIS3_S8_SD_SB_Lb1EEENS5_IS8_EEE25__emplace_unique_key_argsIS3_JRKNS_21piecewise_construct_tENS_5tupleIJRKS3_EEENSN_IJEEEEEENS_4pairINS_15__hash_iteratorIPNS_11__hash_nodeIS8_PvEEEEbEERKT_DpOT0_, symObjAddr: 0x6370, symBinAddr: 0x10000, symSize: 0x4B0 }
  - { offset: 0x8C5BD, size: 0x8, addend: 0x0, symName: __ZNSt3__16vectorINS_6bitsetILm256EEENS_9allocatorIS2_EEE20__throw_length_errorB8ne200100Ev, symObjAddr: 0x6360, symBinAddr: 0xFFF0, symSize: 0x10 }
  - { offset: 0x8C5D5, size: 0x8, addend: 0x0, symName: __ZNSt3__112__hash_tableINS_17__hash_value_typeINS_6bitsetILm256EEENS_6vectorIiNS_9allocatorIiEEEEEENS_22__unordered_map_hasherIS3_S8_NS_4hashIS3_EENS_8equal_toIS3_EELb1EEENS_21__unordered_map_equalIS3_S8_SD_SB_Lb1EEENS5_IS8_EEE25__emplace_unique_key_argsIS3_JRKNS_21piecewise_construct_tENS_5tupleIJRKS3_EEENSN_IJEEEEEENS_4pairINS_15__hash_iteratorIPNS_11__hash_nodeIS8_PvEEEEbEERKT_DpOT0_, symObjAddr: 0x6370, symBinAddr: 0x10000, symSize: 0x4B0 }
  - { offset: 0x8C5FA, size: 0x8, addend: 0x0, symName: __ZNSt3__16vectorIaNS_9allocatorIaEEE20__throw_length_errorB8ne200100Ev, symObjAddr: 0x62D0, symBinAddr: 0xFFE0, symSize: 0x10 }
  - { offset: 0x8C623, size: 0x8, addend: 0x0, symName: __ZN12llama_ubatchD1Ev, symObjAddr: 0x3570, symBinAddr: 0xD4B0, symSize: 0x40 }
  - { offset: 0x8C6F1, size: 0x8, addend: 0x0, symName: __ZNSt3__118basic_stringstreamIcNS_11char_traitsIcEENS_9allocatorIcEEED1Ev, symObjAddr: 0x34F0, symBinAddr: 0xD430, symSize: 0x80 }
  - { offset: 0x8CCC9, size: 0x8, addend: 0x0, symName: __ZNSt3__115basic_stringbufIcNS_11char_traitsIcEENS_9allocatorIcEEE15__init_buf_ptrsB8ne200100Ev, symObjAddr: 0x6A20, symBinAddr: 0x106B0, symSize: 0x120 }
  - { offset: 0x8CF26, size: 0x8, addend: 0x0, symName: __ZNK18llama_batch_allocr11seq_pos_minEi, symObjAddr: 0x3450, symBinAddr: 0xD390, symSize: 0x30 }
  - { offset: 0x8CFC3, size: 0x8, addend: 0x0, symName: __ZNK18llama_batch_allocr11seq_pos_maxEi, symObjAddr: 0x3480, symBinAddr: 0xD3C0, symSize: 0x70 }
  - { offset: 0x8D131, size: 0x8, addend: 0x0, symName: __ZN18llama_batch_allocr11split_resetEv, symObjAddr: 0x35B0, symBinAddr: 0xD4F0, symSize: 0x40 }
  - { offset: 0x8D665, size: 0x8, addend: 0x0, symName: __ZN18llama_batch_allocr14ubatch_reserveEjj, symObjAddr: 0x35F0, symBinAddr: 0xD530, symSize: 0x550 }
  - { offset: 0x8E7D2, size: 0x8, addend: 0x0, symName: __ZNSt3__110shared_ptrIN12llama_ubatch6data_tEED1B8ne200100Ev, symObjAddr: 0x3B40, symBinAddr: 0xDA80, symSize: 0x40 }
  - { offset: 0x8E869, size: 0x8, addend: 0x0, symName: __ZNK18llama_batch_allocr9get_batchEv, symObjAddr: 0x3B80, symBinAddr: 0xDAC0, symSize: 0x10 }
  - { offset: 0x8E893, size: 0x8, addend: 0x0, symName: __ZNK18llama_batch_allocr12get_n_tokensEv, symObjAddr: 0x3B90, symBinAddr: 0xDAD0, symSize: 0x10 }
  - { offset: 0x8E8B3, size: 0x8, addend: 0x0, symName: __ZNK18llama_batch_allocr13get_n_outputsEv, symObjAddr: 0x3BA0, symBinAddr: 0xDAE0, symSize: 0x10 }
  - { offset: 0x8E8DB, size: 0x8, addend: 0x0, symName: __ZNK18llama_batch_allocr10get_n_usedEv, symObjAddr: 0x3BB0, symBinAddr: 0xDAF0, symSize: 0x10 }
  - { offset: 0x8E903, size: 0x8, addend: 0x0, symName: __ZN18llama_batch_allocr11get_out_idsEv, symObjAddr: 0x3BC0, symBinAddr: 0xDB00, symSize: 0x10 }
  - { offset: 0x8E92B, size: 0x8, addend: 0x0, symName: __ZN18llama_batch_allocr12split_simpleEj, symObjAddr: 0x3BD0, symBinAddr: 0xDB10, symSize: 0x250 }
  - { offset: 0x8F06A, size: 0x8, addend: 0x0, symName: __ZN18llama_batch_allocr10ubatch_addERKNSt3__16vectorIiNS0_9allocatorIiEEEEjb, symObjAddr: 0x3E20, symBinAddr: 0xDD60, symSize: 0xB70 }
  - { offset: 0x912E4, size: 0x8, addend: 0x0, symName: __ZNSt3__16vectorIfNS_9allocatorIfEEE8__appendEm, symObjAddr: 0x73E0, symBinAddr: 0x11070, symSize: 0x150 }
  - { offset: 0x91BF5, size: 0x8, addend: 0x0, symName: __ZN18llama_batch_allocr11split_equalEjb, symObjAddr: 0x4990, symBinAddr: 0xE8D0, symSize: 0x850 }
  - { offset: 0x9365D, size: 0x8, addend: 0x0, symName: __ZNSt3__16vectorIiNS_9allocatorIiEEE18__insert_with_sizeB8ne200100INS_11__wrap_iterIPiEES7_EES7_NS5_IPKiEET_T0_l, symObjAddr: 0x6FA0, symBinAddr: 0x10C30, symSize: 0x440 }
  - { offset: 0x942E5, size: 0x8, addend: 0x0, symName: __ZNSt3__128__exception_guard_exceptionsINS_6vectorINS1_IiNS_9allocatorIiEEEENS2_IS4_EEE16__destroy_vectorEED1B8ne200100Ev, symObjAddr: 0x6F30, symBinAddr: 0x10BC0, symSize: 0x70 }
  - { offset: 0x9456A, size: 0x8, addend: 0x0, symName: __ZNSt3__16vectorINS0_IiNS_9allocatorIiEEEENS1_IS3_EEED1B8ne200100Ev, symObjAddr: 0x51E0, symBinAddr: 0xF120, symSize: 0x70 }
  - { offset: 0x94837, size: 0x8, addend: 0x0, symName: __ZN18llama_batch_allocr9split_seqEj, symObjAddr: 0x5250, symBinAddr: 0xF190, symSize: 0x310 }
  - { offset: 0x9516A, size: 0x8, addend: 0x0, symName: _llama_batch_get_one, symObjAddr: 0x5560, symBinAddr: 0xF4A0, symSize: 0x30 }
  - { offset: 0x951A4, size: 0x8, addend: 0x0, symName: _llama_batch_init, symObjAddr: 0x5590, symBinAddr: 0xF4D0, symSize: 0xE0 }
  - { offset: 0x952A9, size: 0x8, addend: 0x0, symName: _llama_batch_free, symObjAddr: 0x5670, symBinAddr: 0xF5B0, symSize: 0xA0 }
  - { offset: 0x9587E, size: 0x8, addend: 0x0, symName: __ZNSt3__16vectorINS_3setIiNS_4lessIiEENS_9allocatorIiEEEENS4_IS6_EEE20__throw_length_errorB8ne200100Ev, symObjAddr: 0x5980, symBinAddr: 0xF8B0, symSize: 0x10 }
  - { offset: 0x95C89, size: 0x8, addend: 0x0, symName: __ZNSt3__16vectorINS0_IbNS_9allocatorIbEEEENS1_IS3_EEE20__throw_length_errorB8ne200100Ev, symObjAddr: 0x5CB0, symBinAddr: 0xFB20, symSize: 0x10 }
  - { offset: 0x95CA1, size: 0x8, addend: 0x0, symName: __ZNSt3__16vectorIbNS_9allocatorIbEEE7reserveEm, symObjAddr: 0x5CC0, symBinAddr: 0xFB30, symSize: 0x140 }
  - { offset: 0x962AC, size: 0x8, addend: 0x0, symName: __ZNSt3__16vectorIPiNS_9allocatorIS1_EEE20__throw_length_errorB8ne200100Ev, symObjAddr: 0x62C0, symBinAddr: 0xFFD0, symSize: 0x10 }
  - { offset: 0x962C4, size: 0x8, addend: 0x0, symName: __ZNSt3__16vectorIaNS_9allocatorIaEEE20__throw_length_errorB8ne200100Ev, symObjAddr: 0x62D0, symBinAddr: 0xFFE0, symSize: 0x10 }
  - { offset: 0x968E0, size: 0x8, addend: 0x0, symName: __ZNSt3__112__hash_tableINS_17__hash_value_typeINS_6bitsetILm256EEENS_6vectorIiNS_9allocatorIiEEEEEENS_22__unordered_map_hasherIS3_S8_NS_4hashIS3_EENS_8equal_toIS3_EELb1EEENS_21__unordered_map_equalIS3_S8_SD_SB_Lb1EEENS5_IS8_EEE11__do_rehashILb1EEEvm, symObjAddr: 0x6870, symBinAddr: 0x10500, symSize: 0x1B0 }
  - { offset: 0x96C9C, size: 0x8, addend: 0x0, symName: __ZNSt3__110unique_ptrINS_11__hash_nodeINS_17__hash_value_typeINS_6bitsetILm256EEENS_6vectorIiNS_9allocatorIiEEEEEEPvEENS_22__hash_node_destructorINS6_ISB_EEEEED1B8ne200100Ev, symObjAddr: 0x6820, symBinAddr: 0x104B0, symSize: 0x50 }
  - { offset: 0x97609, size: 0x8, addend: 0x0, symName: __ZNSt3__120__shared_ptr_emplaceIN12llama_ubatch6data_tENS_9allocatorIS2_EEED1Ev, symObjAddr: 0x6DF0, symBinAddr: 0x10A80, symSize: 0x20 }
  - { offset: 0x97661, size: 0x8, addend: 0x0, symName: __ZNSt3__120__shared_ptr_emplaceIN12llama_ubatch6data_tENS_9allocatorIS2_EEED0Ev, symObjAddr: 0x6E10, symBinAddr: 0x10AA0, symSize: 0x30 }
  - { offset: 0x9776D, size: 0x8, addend: 0x0, symName: __ZNSt3__120__shared_ptr_emplaceIN12llama_ubatch6data_tENS_9allocatorIS2_EEE16__on_zero_sharedEv, symObjAddr: 0x6E40, symBinAddr: 0x10AD0, symSize: 0x10 }
  - { offset: 0x97831, size: 0x8, addend: 0x0, symName: __ZN12llama_ubatch6data_tD2Ev, symObjAddr: 0x6E60, symBinAddr: 0x10AF0, symSize: 0xD0 }
  - { offset: 0x98313, size: 0x8, addend: 0x0, symName: __ZNSt3__120__shared_ptr_emplaceIN12llama_ubatch6data_tENS_9allocatorIS2_EEE21__on_zero_shared_weakEv, symObjAddr: 0x6E50, symBinAddr: 0x10AE0, symSize: 0x10 }
  - { offset: 0x98A5D, size: 0x8, addend: 0x0, symName: __ZNSt3__16vectorIfNS_9allocatorIfEEE20__throw_length_errorB8ne200100Ev, symObjAddr: 0x7530, symBinAddr: 0x111C0, symSize: 0x10 }
  - { offset: 0x9A988, size: 0x8, addend: 0x0, symName: __ZL18LLM_CHAT_TEMPLATES, symObjAddr: 0x86E08, symBinAddr: 0x3A6070, symSize: 0x0 }
  - { offset: 0xA2846, size: 0x8, addend: 0x0, symName: __ZNSt3__1eqB8ne200100IcNS_11char_traitsIcEENS_9allocatorIcEEEEbRKNS_12basic_stringIT_T0_T1_EEPKS6_, symObjAddr: 0x5CF0, symBinAddr: 0x16CB0, symSize: 0x70 }
  - { offset: 0xA2A16, size: 0x8, addend: 0x0, symName: __ZNSt3__1lsB8ne200100IcNS_11char_traitsIcEENS_9allocatorIcEEEERNS_13basic_ostreamIT_T0_EES9_RKNS_12basic_stringIS6_S7_T1_EE, symObjAddr: 0x5D60, symBinAddr: 0x16D20, symSize: 0x30 }
  - { offset: 0xA2AA2, size: 0x8, addend: 0x0, symName: __ZNSt3__1neB8ne200100IcNS_11char_traitsIcEENS_9allocatorIcEEEEbRKNS_12basic_stringIT_T0_T1_EEPKS6_, symObjAddr: 0x5F40, symBinAddr: 0x16F00, symSize: 0x70 }
  - { offset: 0xA4DBD, size: 0x8, addend: 0x0, symName: __ZNSt3__13mapINS_12basic_stringIcNS_11char_traitsIcEENS_9allocatorIcEEEE17llm_chat_templateNS_4lessIS6_EENS4_INS_4pairIKS6_S7_EEEEED1B8ne200100Ev, symObjAddr: 0x0, symBinAddr: 0x111D0, symSize: 0x10 }
  - { offset: 0xA4E70, size: 0x8, addend: 0x0, symName: __ZNSt3__16__treeINS_12__value_typeINS_12basic_stringIcNS_11char_traitsIcEENS_9allocatorIcEEEE17llm_chat_templateEENS_19__map_value_compareIS7_S9_NS_4lessIS7_EELb1EEENS5_IS9_EEE7destroyEPNS_11__tree_nodeIS9_PvEE, symObjAddr: 0x6910, symBinAddr: 0x175A0, symSize: 0x50 }
  - { offset: 0xA5107, size: 0x8, addend: 0x0, symName: __Z26llm_chat_template_from_strRKNSt3__112basic_stringIcNS_11char_traitsIcEENS_9allocatorIcEEEE, symObjAddr: 0x10, symBinAddr: 0x111E0, symSize: 0x20 }
  - { offset: 0xA513A, size: 0x8, addend: 0x0, symName: __ZNKSt3__13mapINS_12basic_stringIcNS_11char_traitsIcEENS_9allocatorIcEEEE17llm_chat_templateNS_4lessIS6_EENS4_INS_4pairIKS6_S7_EEEEE2atERSB_, symObjAddr: 0x30, symBinAddr: 0x11200, symSize: 0x110 }
  - { offset: 0xA56F2, size: 0x8, addend: 0x0, symName: __Z24llm_chat_detect_templateRKNSt3__112basic_stringIcNS_11char_traitsIcEENS_9allocatorIcEEEE, symObjAddr: 0x140, symBinAddr: 0x11310, symSize: 0x7D0 }
  - { offset: 0xA5DBE, size: 0x8, addend: 0x0, symName: '__ZZ24llm_chat_detect_templateRKNSt3__112basic_stringIcNS_11char_traitsIcEENS_9allocatorIcEEEEENK3$_0clEPKc', symObjAddr: 0x910, symBinAddr: 0x11AE0, symSize: 0xD0 }
  - { offset: 0xA606F, size: 0x8, addend: 0x0, symName: __ZNKSt3__112basic_stringIcNS_11char_traitsIcEENS_9allocatorIcEEE4findB8ne200100EPKcm, symObjAddr: 0x9E0, symBinAddr: 0x11BB0, symSize: 0xE0 }
  - { offset: 0xA6B66, size: 0x8, addend: 0x0, symName: __Z23llm_chat_apply_template17llm_chat_templateRKNSt3__16vectorIPK18llama_chat_messageNS0_9allocatorIS4_EEEERNS0_12basic_stringIcNS0_11char_traitsIcEENS5_IcEEEEb, symObjAddr: 0xAC0, symBinAddr: 0x11C90, symSize: 0x5020 }
  - { offset: 0xB7A86, size: 0x8, addend: 0x0, symName: __ZL4trimRKNSt3__112basic_stringIcNS_11char_traitsIcEENS_9allocatorIcEEEE, symObjAddr: 0x5D90, symBinAddr: 0x16D50, symSize: 0x1B0 }
  - { offset: 0xB8941, size: 0x8, addend: 0x0, symName: _llama_chat_builtin_templates, symObjAddr: 0x6030, symBinAddr: 0x16F70, symSize: 0xA0 }
  - { offset: 0xB8E45, size: 0x8, addend: 0x0, symName: __ZNSt3__16__treeINS_12__value_typeINS_12basic_stringIcNS_11char_traitsIcEENS_9allocatorIcEEEE17llm_chat_templateEENS_19__map_value_compareIS7_S9_NS_4lessIS7_EELb1EEENS5_IS9_EEE30__emplace_hint_unique_key_argsIS7_JRKNS_4pairIKS7_S8_EEEEENSH_INS_15__tree_iteratorIS9_PNS_11__tree_nodeIS9_PvEElEEbEENS_21__tree_const_iteratorIS9_SQ_lEERKT_DpOT0_, symObjAddr: 0x6200, symBinAddr: 0x17010, symSize: 0xF0 }
  - { offset: 0xB9236, size: 0x8, addend: 0x0, symName: __ZNSt3__16__treeINS_12__value_typeINS_12basic_stringIcNS_11char_traitsIcEENS_9allocatorIcEEEE17llm_chat_templateEENS_19__map_value_compareIS7_S9_NS_4lessIS7_EELb1EEENS5_IS9_EEE12__find_equalIS7_EERPNS_16__tree_node_baseIPvEENS_21__tree_const_iteratorIS9_PNS_11__tree_nodeIS9_SI_EElEERPNS_15__tree_end_nodeISK_EESL_RKT_, symObjAddr: 0x62F0, symBinAddr: 0x17100, symSize: 0x450 }
  - { offset: 0xB9F38, size: 0x8, addend: 0x0, symName: __ZNSt3__110unique_ptrINS_11__tree_nodeINS_12__value_typeINS_12basic_stringIcNS_11char_traitsIcEENS_9allocatorIcEEEE17llm_chat_templateEEPvEENS_22__tree_node_destructorINS6_ISC_EEEEED1B8ne200100Ev, symObjAddr: 0x6740, symBinAddr: 0x17550, symSize: 0x50 }
  - { offset: 0xBB0E0, size: 0x8, addend: 0x0, symName: __GLOBAL__sub_I_llama_chat.cpp, symObjAddr: 0x7580, symBinAddr: 0x175F0, symSize: 0x970 }
  - { offset: 0xBE13A, size: 0x8, addend: 0x0, symName: __GLOBAL__sub_I_llama_chat.cpp.cold.1, symObjAddr: 0x7EF0, symBinAddr: 0x2ABCC0, symSize: 0x2B }
  - { offset: 0xF395E, size: 0x8, addend: 0x0, symName: __ZNSt3__113__tree_removeB8ne200100IPNS_16__tree_node_baseIPvEEEEvT_S5_, symObjAddr: 0x10120, symBinAddr: 0x27BF0, symSize: 0x380 }
  - { offset: 0xFF1F0, size: 0x8, addend: 0x0, symName: __ZN13llama_contextC2ERK11llama_model20llama_context_params, symObjAddr: 0x0, symBinAddr: 0x17F60, symSize: 0x1C10 }
  - { offset: 0x103504, size: 0x8, addend: 0x0, symName: __ZNK13llama_context12graph_get_cbEv, symObjAddr: 0x8A90, symBinAddr: 0x20970, symSize: 0x20 }
  - { offset: 0x105AE9, size: 0x8, addend: 0x0, symName: __ZN13llama_context11set_samplerEiP13llama_sampler, symObjAddr: 0x1C10, symBinAddr: 0x19B70, symSize: 0x370 }
  - { offset: 0x1066D1, size: 0x8, addend: 0x0, symName: __ZN13llama_context14output_reserveEi, symObjAddr: 0x2030, symBinAddr: 0x19F90, symSize: 0x420 }
  - { offset: 0x107055, size: 0x8, addend: 0x0, symName: __ZN13llama_context13sched_reserveEv, symObjAddr: 0x2450, symBinAddr: 0x1A3B0, symSize: 0x980 }
  - { offset: 0x1084AB, size: 0x8, addend: 0x0, symName: __ZNSt3__16vectorINS_10unique_ptrI12ggml_backend20ggml_backend_deleterEENS_9allocatorIS4_EEE20__throw_length_errorB8ne200100Ev, symObjAddr: 0xFF60, symBinAddr: 0x27BB0, symSize: 0x10 }
  - { offset: 0x1084C3, size: 0x8, addend: 0x0, symName: __ZNSt3__16vectorINS_4pairIP12ggml_backendPFvS3_iEEENS_9allocatorIS6_EEE20__throw_length_errorB8ne200100Ev, symObjAddr: 0xFF70, symBinAddr: 0x27BC0, symSize: 0x10 }
  - { offset: 0x1084CE, size: 0x8, addend: 0x0, symName: __ZNSt3__16vectorIP12ggml_backendNS_9allocatorIS2_EEE20__throw_length_errorB8ne200100Ev, symObjAddr: 0xFF90, symBinAddr: 0x27BD0, symSize: 0x10 }
  - { offset: 0x1084E6, size: 0x8, addend: 0x0, symName: __ZNSt3__16vectorImNS_9allocatorImEEE20__throw_length_errorB8ne200100Ev, symObjAddr: 0xFFA0, symBinAddr: 0x27BE0, symSize: 0x10 }
  - { offset: 0x1084F1, size: 0x8, addend: 0x0, symName: __ZNSt3__16vectorImNS_9allocatorImEEE20__throw_length_errorB8ne200100Ev, symObjAddr: 0xFFA0, symBinAddr: 0x27BE0, symSize: 0x10 }
  - { offset: 0x10851E, size: 0x8, addend: 0x0, symName: __ZNSt3__16vectorIP12ggml_backendNS_9allocatorIS2_EEE20__throw_length_errorB8ne200100Ev, symObjAddr: 0xFF90, symBinAddr: 0x27BD0, symSize: 0x10 }
  - { offset: 0x108529, size: 0x8, addend: 0x0, symName: __ZNSt3__16vectorINS_4pairIP12ggml_backendPFvS3_iEEENS_9allocatorIS6_EEE20__throw_length_errorB8ne200100Ev, symObjAddr: 0xFF70, symBinAddr: 0x27BC0, symSize: 0x10 }
  - { offset: 0x1085AA, size: 0x8, addend: 0x0, symName: __ZNSt3__16vectorINS_10unique_ptrI12ggml_backend20ggml_backend_deleterEENS_9allocatorIS4_EEED1B8ne200100Ev, symObjAddr: 0x2E00, symBinAddr: 0x1AD30, symSize: 0x80 }
  - { offset: 0x10876B, size: 0x8, addend: 0x0, symName: __ZNSt3__110unique_ptrI18ggml_backend_sched26ggml_backend_sched_deleterED1B8ne200100Ev, symObjAddr: 0x2E80, symBinAddr: 0x1ADB0, symSize: 0x30 }
  - { offset: 0x1087F8, size: 0x8, addend: 0x0, symName: __ZNSt3__110unique_ptrI18llama_batch_allocrNS_14default_deleteIS1_EEED1B8ne200100Ev, symObjAddr: 0x2EB0, symBinAddr: 0x1ADE0, symSize: 0x40 }
  - { offset: 0x1088B7, size: 0x8, addend: 0x0, symName: __ZNSt3__16__treeINS_12__value_typeIiNS_6vectorIfNS_9allocatorIfEEEEEENS_19__map_value_compareIiS6_NS_4lessIiEELb1EEENS3_IS6_EEE7destroyEPNS_11__tree_nodeIS6_PvEE, symObjAddr: 0xFF10, symBinAddr: 0x27B60, symSize: 0x50 }
  - { offset: 0x108B6D, size: 0x8, addend: 0x0, symName: __ZN13llama_context13sampling_infoD1Ev, symObjAddr: 0x2EF0, symBinAddr: 0x1AE20, symSize: 0x70 }
  - { offset: 0x10910B, size: 0x8, addend: 0x0, symName: __ZN11llama_crossD1Ev, symObjAddr: 0x2F60, symBinAddr: 0x1AE90, symSize: 0x80 }
  - { offset: 0x109450, size: 0x8, addend: 0x0, symName: __ZNSt3__113unordered_mapIP18llama_adapter_lorafNS_4hashIS2_EENS_8equal_toIS2_EENS_9allocatorINS_4pairIKS2_fEEEEED1B8ne200100Ev, symObjAddr: 0x2FE0, symBinAddr: 0x1AF10, symSize: 0x50 }
  - { offset: 0x1096D5, size: 0x8, addend: 0x0, symName: __ZN18llama_adapter_cvecD2Ev, symObjAddr: 0xF340, symBinAddr: 0x271E0, symSize: 0xF0 }
  - { offset: 0x10A296, size: 0x8, addend: 0x0, symName: _llama_set_abort_callback, symObjAddr: 0x1F80, symBinAddr: 0x19EE0, symSize: 0xB0 }
  - { offset: 0x10A631, size: 0x8, addend: 0x0, symName: __ZN13llama_context11synchronizeEv, symObjAddr: 0x34D0, symBinAddr: 0x1B3F0, symSize: 0xC0 }
  - { offset: 0x10A6F6, size: 0x8, addend: 0x0, symName: __ZNSt3__16vectorIjNS_9allocatorIjEEE8__appendEm, symObjAddr: 0x11210, symBinAddr: 0x28950, symSize: 0x150 }
  - { offset: 0x10B02E, size: 0x8, addend: 0x0, symName: __ZN13llama_context13graph_reserveEjjjPK22llama_memory_context_ibPm, symObjAddr: 0x3610, symBinAddr: 0x1B530, symSize: 0x5B0 }
  - { offset: 0x10BECC, size: 0x8, addend: 0x0, symName: __ZNSt3__113__tree_removeB8ne200100IPNS_16__tree_node_baseIPvEEEEvT_S5_, symObjAddr: 0x10120, symBinAddr: 0x27BF0, symSize: 0x380 }
  - { offset: 0x10C11C, size: 0x8, addend: 0x0, symName: __ZN18llama_batch_allocrD2Ev, symObjAddr: 0xF5F0, symBinAddr: 0x272D0, symSize: 0x1F0 }
  - { offset: 0x10D510, size: 0x8, addend: 0x0, symName: __ZNSt3__16__treeINS_12__value_typeIiP13llama_samplerEENS_19__map_value_compareIiS4_NS_4lessIiEELb1EEENS_9allocatorIS4_EEE7destroyEPNS_11__tree_nodeIS4_PvEE, symObjAddr: 0xFED0, symBinAddr: 0x27B20, symSize: 0x40 }
  - { offset: 0x10DBFE, size: 0x8, addend: 0x0, symName: __ZN13llama_contextC1ERK11llama_model20llama_context_params, symObjAddr: 0x3030, symBinAddr: 0x1AF60, symSize: 0x10 }
  - { offset: 0x10DD05, size: 0x8, addend: 0x0, symName: __ZN13llama_contextD2Ev, symObjAddr: 0x3040, symBinAddr: 0x1AF70, symSize: 0x470 }
  - { offset: 0x10F762, size: 0x8, addend: 0x0, symName: __ZN13llama_contextD1Ev, symObjAddr: 0x34C0, symBinAddr: 0x1B3E0, symSize: 0x10 }
  - { offset: 0x10F7BC, size: 0x8, addend: 0x0, symName: __ZNK13llama_context15graph_max_nodesEj, symObjAddr: 0x3590, symBinAddr: 0x1B4B0, symSize: 0x80 }
  - { offset: 0x110064, size: 0x8, addend: 0x0, symName: __ZNSt3__13mapIiP13llama_samplerNS_4lessIiEENS_9allocatorINS_4pairIKiS2_EEEEE6insertB8ne200100INS_20__map_const_iteratorINS_21__tree_const_iteratorINS_12__value_typeIiS2_EEPNS_11__tree_nodeISF_PvEElEEEEEEvT_SM_, symObjAddr: 0x11370, symBinAddr: 0x28AB0, symSize: 0x100 }
  - { offset: 0x1100AA, size: 0x8, addend: 0x0, symName: __ZNSt3__13mapIiP13llama_samplerNS_4lessIiEENS_9allocatorINS_4pairIKiS2_EEEEE6insertB8ne200100INS_20__map_const_iteratorINS_21__tree_const_iteratorINS_12__value_typeIiS2_EEPNS_11__tree_nodeISF_PvEElEEEEEEvT_SM_, symObjAddr: 0x11370, symBinAddr: 0x28AB0, symSize: 0x100 }
  - { offset: 0x1104B7, size: 0x8, addend: 0x0, symName: __ZN16llm_graph_paramsD1Ev, symObjAddr: 0x6100, symBinAddr: 0x1E020, symSize: 0x90 }
  - { offset: 0x1106D7, size: 0x8, addend: 0x0, symName: __ZNK13llama_context9get_modelEv, symObjAddr: 0x3BC0, symBinAddr: 0x1BAE0, symSize: 0x10 }
  - { offset: 0x1106F7, size: 0x8, addend: 0x0, symName: __ZNK13llama_context11get_cparamsEv, symObjAddr: 0x3BD0, symBinAddr: 0x1BAF0, symSize: 0x10 }
  - { offset: 0x11071F, size: 0x8, addend: 0x0, symName: __ZNK13llama_context9get_schedEv, symObjAddr: 0x3BE0, symBinAddr: 0x1BB00, symSize: 0x10 }
  - { offset: 0x110767, size: 0x8, addend: 0x0, symName: __ZNK13llama_context5n_ctxEv, symObjAddr: 0x3BF0, symBinAddr: 0x1BB10, symSize: 0x10 }
  - { offset: 0x110787, size: 0x8, addend: 0x0, symName: __ZNK13llama_context9n_ctx_seqEv, symObjAddr: 0x3C00, symBinAddr: 0x1BB20, symSize: 0x10 }
  - { offset: 0x1107A7, size: 0x8, addend: 0x0, symName: __ZNK13llama_context7n_batchEv, symObjAddr: 0x3C10, symBinAddr: 0x1BB30, symSize: 0x10 }
  - { offset: 0x1107C7, size: 0x8, addend: 0x0, symName: __ZNK13llama_context8n_ubatchEv, symObjAddr: 0x3C20, symBinAddr: 0x1BB40, symSize: 0x10 }
  - { offset: 0x1107E7, size: 0x8, addend: 0x0, symName: __ZNK13llama_context9n_seq_maxEv, symObjAddr: 0x3C30, symBinAddr: 0x1BB50, symSize: 0x10 }
  - { offset: 0x110807, size: 0x8, addend: 0x0, symName: __ZNK13llama_context9n_threadsEv, symObjAddr: 0x3C40, symBinAddr: 0x1BB60, symSize: 0x10 }
  - { offset: 0x110827, size: 0x8, addend: 0x0, symName: __ZNK13llama_context15n_threads_batchEv, symObjAddr: 0x3C50, symBinAddr: 0x1BB70, symSize: 0x10 }
  - { offset: 0x11085D, size: 0x8, addend: 0x0, symName: __ZNK13llama_context10get_memoryEv, symObjAddr: 0x3C60, symBinAddr: 0x1BB80, symSize: 0x10 }
  - { offset: 0x1108B3, size: 0x8, addend: 0x0, symName: __ZN13llama_context13memory_updateEb, symObjAddr: 0x3C70, symBinAddr: 0x1BB90, symSize: 0x1B0 }
  - { offset: 0x110CBB, size: 0x8, addend: 0x0, symName: __ZNK13llama_context12pooling_typeEv, symObjAddr: 0x3E20, symBinAddr: 0x1BD40, symSize: 0x10 }
  - { offset: 0x110CDB, size: 0x8, addend: 0x0, symName: __ZN13llama_context10get_logitsEv, symObjAddr: 0x3E30, symBinAddr: 0x1BD50, symSize: 0x20 }
  - { offset: 0x110D12, size: 0x8, addend: 0x0, symName: __ZN13llama_context14output_reorderEv, symObjAddr: 0x3E50, symBinAddr: 0x1BD70, symSize: 0x950 }
  - { offset: 0x110F60, size: 0x8, addend: 0x0, symName: __ZNK13llama_context18output_resolve_rowEi, symObjAddr: 0x47A0, symBinAddr: 0x1C6C0, symSize: 0x1B0 }
  - { offset: 0x1110CD, size: 0x8, addend: 0x0, symName: __ZN13llama_context14get_logits_ithEi, symObjAddr: 0x4950, symBinAddr: 0x1C870, symSize: 0x280 }
  - { offset: 0x111284, size: 0x8, addend: 0x0, symName: __ZN13llama_context14get_embeddingsEv, symObjAddr: 0x4BD0, symBinAddr: 0x1CAF0, symSize: 0x20 }
  - { offset: 0x1112BB, size: 0x8, addend: 0x0, symName: __ZNK13llama_context18get_sampled_tokensEv, symObjAddr: 0x4BF0, symBinAddr: 0x1CB10, symSize: 0x10 }
  - { offset: 0x1112E3, size: 0x8, addend: 0x0, symName: __ZN13llama_context18get_embeddings_ithEi, symObjAddr: 0x4C00, symBinAddr: 0x1CB20, symSize: 0x290 }
  - { offset: 0x1115CA, size: 0x8, addend: 0x0, symName: __ZN13llama_context18get_embeddings_seqEi, symObjAddr: 0x4E90, symBinAddr: 0x1CDB0, symSize: 0x50 }
  - { offset: 0x1115FE, size: 0x8, addend: 0x0, symName: __ZN13llama_context18get_embeddings_seqEi, symObjAddr: 0x4E90, symBinAddr: 0x1CDB0, symSize: 0x50 }
  - { offset: 0x11161C, size: 0x8, addend: 0x0, symName: __ZN13llama_context18get_embeddings_seqEi, symObjAddr: 0x4E90, symBinAddr: 0x1CDB0, symSize: 0x50 }
  - { offset: 0x111643, size: 0x8, addend: 0x0, symName: __ZN13llama_context18get_embeddings_seqEi, symObjAddr: 0x4E90, symBinAddr: 0x1CDB0, symSize: 0x50 }
  - { offset: 0x111758, size: 0x8, addend: 0x0, symName: __ZN13llama_context21get_sampled_token_ithEi, symObjAddr: 0x4EE0, symBinAddr: 0x1CE00, symSize: 0xD0 }
  - { offset: 0x111821, size: 0x8, addend: 0x0, symName: __ZN13llama_context21get_sampled_probs_ithEi, symObjAddr: 0x4FB0, symBinAddr: 0x1CED0, symSize: 0xE0 }
  - { offset: 0x1118FE, size: 0x8, addend: 0x0, symName: __ZN13llama_context22get_sampled_logits_ithEi, symObjAddr: 0x5090, symBinAddr: 0x1CFB0, symSize: 0xE0 }
  - { offset: 0x1119F1, size: 0x8, addend: 0x0, symName: __ZN13llama_context26get_sampled_candidates_ithEi, symObjAddr: 0x5170, symBinAddr: 0x1D090, symSize: 0xA0 }
  - { offset: 0x111AA9, size: 0x8, addend: 0x0, symName: __ZN13llama_context28get_sampled_candidates_countEi, symObjAddr: 0x5210, symBinAddr: 0x1D130, symSize: 0xB0 }
  - { offset: 0x111B7D, size: 0x8, addend: 0x0, symName: __ZN13llama_context24get_sampled_logits_countEi, symObjAddr: 0x52C0, symBinAddr: 0x1D1E0, symSize: 0xC0 }
  - { offset: 0x111C51, size: 0x8, addend: 0x0, symName: __ZN13llama_context23get_sampled_probs_countEi, symObjAddr: 0x5380, symBinAddr: 0x1D2A0, symSize: 0xB0 }
  - { offset: 0x111D25, size: 0x8, addend: 0x0, symName: __ZN13llama_context17attach_threadpoolEP15ggml_threadpoolS1_, symObjAddr: 0x5430, symBinAddr: 0x1D350, symSize: 0x50 }
  - { offset: 0x111D6C, size: 0x8, addend: 0x0, symName: __ZN13llama_context17detach_threadpoolEv, symObjAddr: 0x5480, symBinAddr: 0x1D3A0, symSize: 0x40 }
  - { offset: 0x111DA1, size: 0x8, addend: 0x0, symName: __ZN13llama_context13set_n_threadsEii, symObjAddr: 0x54C0, symBinAddr: 0x1D3E0, symSize: 0x50 }
  - { offset: 0x111DF4, size: 0x8, addend: 0x0, symName: __ZN13llama_context18set_abort_callbackEPFbPvES0_, symObjAddr: 0x5510, symBinAddr: 0x1D430, symSize: 0xB0 }
  - { offset: 0x111F83, size: 0x8, addend: 0x0, symName: __ZN13llama_context14set_embeddingsEb, symObjAddr: 0x55C0, symBinAddr: 0x1D4E0, symSize: 0x40 }
  - { offset: 0x111FC7, size: 0x8, addend: 0x0, symName: __ZN13llama_context15set_causal_attnEb, symObjAddr: 0x5600, symBinAddr: 0x1D520, symSize: 0x40 }
  - { offset: 0x11200B, size: 0x8, addend: 0x0, symName: __ZN13llama_context10set_warmupEb, symObjAddr: 0x5640, symBinAddr: 0x1D560, symSize: 0x40 }
  - { offset: 0x1120A1, size: 0x8, addend: 0x0, symName: __ZN13llama_context16set_adapter_loraEP18llama_adapter_loraf, symObjAddr: 0x5680, symBinAddr: 0x1D5A0, symSize: 0xA0 }
  - { offset: 0x1121D4, size: 0x8, addend: 0x0, symName: __ZNSt3__112__hash_tableINS_17__hash_value_typeIP18llama_adapter_lorafEENS_22__unordered_map_hasherIS3_S4_NS_4hashIS3_EENS_8equal_toIS3_EELb1EEENS_21__unordered_map_equalIS3_S4_S9_S7_Lb1EEENS_9allocatorIS4_EEE4findIS3_EENS_15__hash_iteratorIPNS_11__hash_nodeIS4_PvEEEERKT_, symObjAddr: 0x104A0, symBinAddr: 0x27F70, symSize: 0x180 }
  - { offset: 0x11222B, size: 0x8, addend: 0x0, symName: __ZNSt3__112__hash_tableINS_17__hash_value_typeIP18llama_adapter_lorafEENS_22__unordered_map_hasherIS3_S4_NS_4hashIS3_EENS_8equal_toIS3_EELb1EEENS_21__unordered_map_equalIS3_S4_S9_S7_Lb1EEENS_9allocatorIS4_EEE4findIS3_EENS_15__hash_iteratorIPNS_11__hash_nodeIS4_PvEEEERKT_, symObjAddr: 0x104A0, symBinAddr: 0x27F70, symSize: 0x180 }
  - { offset: 0x112247, size: 0x8, addend: 0x0, symName: __ZNSt3__112__hash_tableINS_17__hash_value_typeIP18llama_adapter_lorafEENS_22__unordered_map_hasherIS3_S4_NS_4hashIS3_EENS_8equal_toIS3_EELb1EEENS_21__unordered_map_equalIS3_S4_S9_S7_Lb1EEENS_9allocatorIS4_EEE4findIS3_EENS_15__hash_iteratorIPNS_11__hash_nodeIS4_PvEEEERKT_, symObjAddr: 0x104A0, symBinAddr: 0x27F70, symSize: 0x180 }
  - { offset: 0x11233D, size: 0x8, addend: 0x0, symName: __ZNSt3__112__hash_tableINS_17__hash_value_typeIP18llama_adapter_lorafEENS_22__unordered_map_hasherIS3_S4_NS_4hashIS3_EENS_8equal_toIS3_EELb1EEENS_21__unordered_map_equalIS3_S4_S9_S7_Lb1EEENS_9allocatorIS4_EEE25__emplace_unique_key_argsIS3_JRKNS_21piecewise_construct_tENS_5tupleIJRKS3_EEENSK_IJEEEEEENS_4pairINS_15__hash_iteratorIPNS_11__hash_nodeIS4_PvEEEEbEERKT_DpOT0_, symObjAddr: 0x10620, symBinAddr: 0x280F0, symSize: 0x460 }
  - { offset: 0x112C89, size: 0x8, addend: 0x0, symName: __ZN13llama_context15rm_adapter_loraEP18llama_adapter_lora, symObjAddr: 0x5720, symBinAddr: 0x1D640, symSize: 0x90 }
  - { offset: 0x112EDE, size: 0x8, addend: 0x0, symName: __ZNSt3__112__hash_tableINS_17__hash_value_typeIP18llama_adapter_lorafEENS_22__unordered_map_hasherIS3_S4_NS_4hashIS3_EENS_8equal_toIS3_EELb1EEENS_21__unordered_map_equalIS3_S4_S9_S7_Lb1EEENS_9allocatorIS4_EEE6removeENS_21__hash_const_iteratorIPNS_11__hash_nodeIS4_PvEEEE, symObjAddr: 0x10C30, symBinAddr: 0x28700, symSize: 0x200 }
  - { offset: 0x1131C8, size: 0x8, addend: 0x0, symName: __ZN13llama_context18clear_adapter_loraEv, symObjAddr: 0x57B0, symBinAddr: 0x1D6D0, symSize: 0x90 }
  - { offset: 0x1133D6, size: 0x8, addend: 0x0, symName: __ZN13llama_context18apply_adapter_cvecEPKfmiii, symObjAddr: 0x5840, symBinAddr: 0x1D760, symSize: 0x80 }
  - { offset: 0x113462, size: 0x8, addend: 0x0, symName: __ZN13llama_context14process_ubatchERK12llama_ubatch14llm_graph_typeP22llama_memory_context_iR11ggml_status, symObjAddr: 0x58C0, symBinAddr: 0x1D7E0, symSize: 0x580 }
  - { offset: 0x114037, size: 0x8, addend: 0x0, symName: __ZN13llama_context13graph_computeEP11ggml_cgraphb, symObjAddr: 0x6030, symBinAddr: 0x1DF50, symSize: 0xD0 }
  - { offset: 0x11423F, size: 0x8, addend: 0x0, symName: __ZNK13llama_context12graph_paramsEP16llm_graph_resultRK12llama_ubatchPK22llama_memory_context_i14llm_graph_type, symObjAddr: 0x5E40, symBinAddr: 0x1DD60, symSize: 0x1F0 }
  - { offset: 0x114F68, size: 0x8, addend: 0x0, symName: __ZN13llama_context6encodeERK11llama_batch, symObjAddr: 0x6190, symBinAddr: 0x1E0B0, symSize: 0xB70 }
  - { offset: 0x117B63, size: 0x8, addend: 0x0, symName: __ZN13llama_context6decodeERK11llama_batch, symObjAddr: 0x6D40, symBinAddr: 0x1EC20, symSize: 0x1A70 }
  - { offset: 0x11AAF0, size: 0x8, addend: 0x0, symName: __ZL24copy_tensor_async_floatsRKNSt3__13mapIiP11ggml_tensorNS_4lessIiEENS_9allocatorINS_4pairIKiS2_EEEEEEPfmRNS_6vectorIjNS5_IjEEEERKNS0_IijS4_NS5_INS6_IS7_jEEEEEEP18ggml_backend_sched, symObjAddr: 0x87B0, symBinAddr: 0x20690, symSize: 0x1C0 }
  - { offset: 0x11AF54, size: 0x8, addend: 0x0, symName: __ZNSt3__16__treeINS_12__value_typeIijEENS_19__map_value_compareIiS2_NS_4lessIiEELb1EEENS_9allocatorIS2_EEE7destroyEPNS_11__tree_nodeIS2_PvEE, symObjAddr: 0x111C0, symBinAddr: 0x28900, symSize: 0x40 }
  - { offset: 0x11B07E, size: 0x8, addend: 0x0, symName: __ZNSt3__16vectorIN13llama_context9swap_infoENS_9allocatorIS2_EEE9push_backB8ne200100EOS2_, symObjAddr: 0x8970, symBinAddr: 0x20850, symSize: 0x110 }
  - { offset: 0x11B774, size: 0x8, addend: 0x0, symName: __ZNSt3__16vectorIN13llama_context9swap_infoENS_9allocatorIS2_EEE20__throw_length_errorB8ne200100Ev, symObjAddr: 0x11200, symBinAddr: 0x28940, symSize: 0x10 }
  - { offset: 0x11B78C, size: 0x8, addend: 0x0, symName: __ZNSt3__16vectorIjNS_9allocatorIjEEE8__appendEm, symObjAddr: 0x11210, symBinAddr: 0x28950, symSize: 0x150 }
  - { offset: 0x11B797, size: 0x8, addend: 0x0, symName: __ZNK13llama_context18get_gf_res_reserveEv, symObjAddr: 0x8A80, symBinAddr: 0x20960, symSize: 0x10 }
  - { offset: 0x11B8D8, size: 0x8, addend: 0x0, symName: __ZN13llama_context14state_get_sizeEv, symObjAddr: 0x8AB0, symBinAddr: 0x20990, symSize: 0x90 }
  - { offset: 0x11B99A, size: 0x8, addend: 0x0, symName: __ZN13llama_context16state_write_dataER16llama_io_write_i, symObjAddr: 0x8B40, symBinAddr: 0x20A20, symSize: 0x350 }
  - { offset: 0x11C546, size: 0x8, addend: 0x0, symName: __ZN20llama_io_write_dummyD1Ev, symObjAddr: 0x8E90, symBinAddr: 0x20D70, symSize: 0x10 }
  - { offset: 0x11C6BF, size: 0x8, addend: 0x0, symName: __ZN13llama_context14state_get_dataEPhm, symObjAddr: 0x8EA0, symBinAddr: 0x20D80, symSize: 0xA0 }
  - { offset: 0x11C7BD, size: 0x8, addend: 0x0, symName: __ZN21llama_io_write_bufferD1Ev, symObjAddr: 0x8F40, symBinAddr: 0x20E20, symSize: 0x10 }
  - { offset: 0x11C930, size: 0x8, addend: 0x0, symName: __ZN13llama_context14state_set_dataEPKhm, symObjAddr: 0x8F50, symBinAddr: 0x20E30, symSize: 0xA0 }
  - { offset: 0x11CA2E, size: 0x8, addend: 0x0, symName: __ZN13llama_context15state_read_dataER15llama_io_read_i, symObjAddr: 0x8FF0, symBinAddr: 0x20ED0, symSize: 0x560 }
  - { offset: 0x11DB54, size: 0x8, addend: 0x0, symName: __ZN20llama_io_read_bufferD1Ev, symObjAddr: 0x9550, symBinAddr: 0x21430, symSize: 0x10 }
  - { offset: 0x11DBBD, size: 0x8, addend: 0x0, symName: __ZN13llama_context18state_seq_get_sizeEij, symObjAddr: 0x9560, symBinAddr: 0x21440, symSize: 0xB0 }
  - { offset: 0x11DCF1, size: 0x8, addend: 0x0, symName: __ZN13llama_context20state_seq_write_dataER16llama_io_write_iij, symObjAddr: 0x9610, symBinAddr: 0x214F0, symSize: 0x30 }
  - { offset: 0x11DD6C, size: 0x8, addend: 0x0, symName: __ZN13llama_context18state_seq_get_dataEiPhmj, symObjAddr: 0x9640, symBinAddr: 0x21520, symSize: 0xC0 }
  - { offset: 0x11DF19, size: 0x8, addend: 0x0, symName: __ZN13llama_context18state_seq_set_dataEiPKhmj, symObjAddr: 0x9700, symBinAddr: 0x215E0, symSize: 0xC0 }
  - { offset: 0x11E089, size: 0x8, addend: 0x0, symName: __ZN13llama_context19state_seq_read_dataER15llama_io_read_iij, symObjAddr: 0x97C0, symBinAddr: 0x216A0, symSize: 0x30 }
  - { offset: 0x11E557, size: 0x8, addend: 0x0, symName: __ZN13llama_context15state_load_fileEPKcPimPm, symObjAddr: 0x97F0, symBinAddr: 0x216D0, symSize: 0x1C0 }
  - { offset: 0x11EA10, size: 0x8, addend: 0x0, symName: __ZN18llama_io_read_fileD1Ev, symObjAddr: 0x99B0, symBinAddr: 0x21890, symSize: 0x30 }
  - { offset: 0x11ECCB, size: 0x8, addend: 0x0, symName: __ZN13llama_context15state_save_fileEPKcPKim, symObjAddr: 0x99E0, symBinAddr: 0x218C0, symSize: 0x100 }
  - { offset: 0x11F0BE, size: 0x8, addend: 0x0, symName: __ZN19llama_io_write_fileD1Ev, symObjAddr: 0x9AE0, symBinAddr: 0x219C0, symSize: 0x30 }
  - { offset: 0x11F20F, size: 0x8, addend: 0x0, symName: __ZN13llama_context19state_seq_load_fileEiPKcPimPm, symObjAddr: 0x9B10, symBinAddr: 0x219F0, symSize: 0x250 }
  - { offset: 0x11F75A, size: 0x8, addend: 0x0, symName: __ZN13llama_context19state_seq_save_fileEiPKcPKim, symObjAddr: 0x9D60, symBinAddr: 0x21C40, symSize: 0x170 }
  - { offset: 0x11FC0F, size: 0x8, addend: 0x0, symName: __ZN19llama_io_write_file7n_bytesEv, symObjAddr: 0x9ED0, symBinAddr: 0x21DB0, symSize: 0x10 }
  - { offset: 0x11FC2F, size: 0x8, addend: 0x0, symName: __ZNK13llama_context13perf_get_dataEv, symObjAddr: 0x9EE0, symBinAddr: 0x21DC0, symSize: 0x90 }
  - { offset: 0x11FCF6, size: 0x8, addend: 0x0, symName: __ZN13llama_context10perf_resetEv, symObjAddr: 0x9F70, symBinAddr: 0x21E50, symSize: 0x40 }
  - { offset: 0x120488, size: 0x8, addend: 0x0, symName: __ZNK13llama_context16memory_breakdownEv, symObjAddr: 0x9FB0, symBinAddr: 0x21E90, symSize: 0x4D0 }
  - { offset: 0x12189C, size: 0x8, addend: 0x0, symName: __ZNSt3__16__treeINS_12__value_typeIP24ggml_backend_buffer_typemEENS_19__map_value_compareIS3_S4_NS_4lessIS3_EELb1EEENS_9allocatorIS4_EEE7destroyEPNS_11__tree_nodeIS4_PvEE, symObjAddr: 0x117E0, symBinAddr: 0x28F20, symSize: 0x40 }
  - { offset: 0x1219CB, size: 0x8, addend: 0x0, symName: __ZNSt3__16__treeINS_12__value_typeIP24ggml_backend_buffer_type27llama_memory_breakdown_dataEENS_19__map_value_compareIS3_S5_NS_4lessIS3_EELb1EEENS_9allocatorIS5_EEE7destroyEPNS_11__tree_nodeIS5_PvEE, symObjAddr: 0x117A0, symBinAddr: 0x28EE0, symSize: 0x40 }
  - { offset: 0x121B9B, size: 0x8, addend: 0x0, symName: __ZN13llama_context8opt_initEP11llama_model16llama_opt_params, symObjAddr: 0xA480, symBinAddr: 0x22360, symSize: 0x660 }
  - { offset: 0x122654, size: 0x8, addend: 0x0, symName: __ZN13llama_context14opt_epoch_iterEP16ggml_opt_datasetP15ggml_opt_resultRKNSt3__16vectorIiNS4_9allocatorIiEEEESA_R11llama_batchPFvbP16ggml_opt_contextS1_S3_xxxEbxxx, symObjAddr: 0xAAE0, symBinAddr: 0x229C0, symSize: 0x970 }
  - { offset: 0x123738, size: 0x8, addend: 0x0, symName: __ZN13llama_context9opt_epochEP16ggml_opt_datasetP15ggml_opt_resultS3_xPFvbP16ggml_opt_contextS1_S3_xxxES7_, symObjAddr: 0xB450, symBinAddr: 0x23330, symSize: 0x390 }
  - { offset: 0x12434C, size: 0x8, addend: 0x0, symName: _llama_context_default_params, symObjAddr: 0xB7E0, symBinAddr: 0x236C0, symSize: 0x30 }
  - { offset: 0x1243AA, size: 0x8, addend: 0x0, symName: _llama_init_from_model, symObjAddr: 0xB810, symBinAddr: 0x236F0, symSize: 0x240 }
  - { offset: 0x1245A9, size: 0x8, addend: 0x0, symName: _llama_new_context_with_model, symObjAddr: 0xBA50, symBinAddr: 0x23930, symSize: 0x10 }
  - { offset: 0x124617, size: 0x8, addend: 0x0, symName: _llama_free, symObjAddr: 0xBA60, symBinAddr: 0x23940, symSize: 0x30 }
  - { offset: 0x12466A, size: 0x8, addend: 0x0, symName: _llama_n_ctx, symObjAddr: 0xBA90, symBinAddr: 0x23970, symSize: 0x10 }
  - { offset: 0x1246CB, size: 0x8, addend: 0x0, symName: _llama_n_ctx_seq, symObjAddr: 0xBAA0, symBinAddr: 0x23980, symSize: 0x10 }
  - { offset: 0x124713, size: 0x8, addend: 0x0, symName: _llama_n_batch, symObjAddr: 0xBAB0, symBinAddr: 0x23990, symSize: 0x10 }
  - { offset: 0x12475B, size: 0x8, addend: 0x0, symName: _llama_n_ubatch, symObjAddr: 0xBAC0, symBinAddr: 0x239A0, symSize: 0x10 }
  - { offset: 0x1247A3, size: 0x8, addend: 0x0, symName: _llama_n_seq_max, symObjAddr: 0xBAD0, symBinAddr: 0x239B0, symSize: 0x10 }
  - { offset: 0x124804, size: 0x8, addend: 0x0, symName: _llama_get_model, symObjAddr: 0xBAE0, symBinAddr: 0x239C0, symSize: 0x10 }
  - { offset: 0x124865, size: 0x8, addend: 0x0, symName: _llama_pooling_type, symObjAddr: 0xBAF0, symBinAddr: 0x239D0, symSize: 0x10 }
  - { offset: 0x1248DE, size: 0x8, addend: 0x0, symName: _llama_attach_threadpool, symObjAddr: 0xBB00, symBinAddr: 0x239E0, symSize: 0x50 }
  - { offset: 0x12497F, size: 0x8, addend: 0x0, symName: _llama_detach_threadpool, symObjAddr: 0xBB50, symBinAddr: 0x23A30, symSize: 0x40 }
  - { offset: 0x124A08, size: 0x8, addend: 0x0, symName: _llama_set_n_threads, symObjAddr: 0xBB90, symBinAddr: 0x23A70, symSize: 0x50 }
  - { offset: 0x124AB3, size: 0x8, addend: 0x0, symName: _llama_n_threads, symObjAddr: 0xBBE0, symBinAddr: 0x23AC0, symSize: 0x10 }
  - { offset: 0x124B14, size: 0x8, addend: 0x0, symName: _llama_n_threads_batch, symObjAddr: 0xBBF0, symBinAddr: 0x23AD0, symSize: 0x10 }
  - { offset: 0x124B81, size: 0x8, addend: 0x0, symName: _llama_set_embeddings, symObjAddr: 0xBC00, symBinAddr: 0x23AE0, symSize: 0x40 }
  - { offset: 0x124C23, size: 0x8, addend: 0x0, symName: _llama_set_causal_attn, symObjAddr: 0xBC40, symBinAddr: 0x23B20, symSize: 0x40 }
  - { offset: 0x124CBF, size: 0x8, addend: 0x0, symName: _llama_set_warmup, symObjAddr: 0xBC80, symBinAddr: 0x23B60, symSize: 0x40 }
  - { offset: 0x124D36, size: 0x8, addend: 0x0, symName: _llama_synchronize, symObjAddr: 0xBCC0, symBinAddr: 0x23BA0, symSize: 0x10 }
  - { offset: 0x124D8C, size: 0x8, addend: 0x0, symName: _llama_get_logits, symObjAddr: 0xBCD0, symBinAddr: 0x23BB0, symSize: 0x30 }
  - { offset: 0x124DFE, size: 0x8, addend: 0x0, symName: _llama_get_logits_ith, symObjAddr: 0xBD00, symBinAddr: 0x23BE0, symSize: 0x40 }
  - { offset: 0x124EA0, size: 0x8, addend: 0x0, symName: _llama_get_embeddings, symObjAddr: 0xBD40, symBinAddr: 0x23C20, symSize: 0x30 }
  - { offset: 0x124F12, size: 0x8, addend: 0x0, symName: _llama_get_embeddings_ith, symObjAddr: 0xBD70, symBinAddr: 0x23C50, symSize: 0x20 }
  - { offset: 0x124FA2, size: 0x8, addend: 0x0, symName: _llama_get_embeddings_seq, symObjAddr: 0xBD90, symBinAddr: 0x23C70, symSize: 0x60 }
  - { offset: 0x12516F, size: 0x8, addend: 0x0, symName: _llama_set_sampler, symObjAddr: 0xBDF0, symBinAddr: 0x23CD0, symSize: 0x10 }
  - { offset: 0x1251DC, size: 0x8, addend: 0x0, symName: _llama_get_sampled_token_ith, symObjAddr: 0xBE00, symBinAddr: 0x23CE0, symSize: 0x20 }
  - { offset: 0x12523B, size: 0x8, addend: 0x0, symName: _llama_get_sampled_probs_ith, symObjAddr: 0xBE20, symBinAddr: 0x23D00, symSize: 0x20 }
  - { offset: 0x12529A, size: 0x8, addend: 0x0, symName: _llama_get_sampled_logits_ith, symObjAddr: 0xBE40, symBinAddr: 0x23D20, symSize: 0x20 }
  - { offset: 0x12533D, size: 0x8, addend: 0x0, symName: _llama_get_sampled_candidates_ith, symObjAddr: 0xBE60, symBinAddr: 0x23D40, symSize: 0xA0 }
  - { offset: 0x12543A, size: 0x8, addend: 0x0, symName: _llama_get_sampled_candidates_count_ith, symObjAddr: 0xBF00, symBinAddr: 0x23DE0, symSize: 0x20 }
  - { offset: 0x125499, size: 0x8, addend: 0x0, symName: _llama_get_sampled_logits_count_ith, symObjAddr: 0xBF20, symBinAddr: 0x23E00, symSize: 0x20 }
  - { offset: 0x1254F8, size: 0x8, addend: 0x0, symName: _llama_get_sampled_probs_count_ith, symObjAddr: 0xBF40, symBinAddr: 0x23E20, symSize: 0x20 }
  - { offset: 0x125596, size: 0x8, addend: 0x0, symName: _llama_set_adapter_lora, symObjAddr: 0xBF60, symBinAddr: 0x23E40, symSize: 0xA0 }
  - { offset: 0x125740, size: 0x8, addend: 0x0, symName: _llama_rm_adapter_lora, symObjAddr: 0xC000, symBinAddr: 0x23EE0, symSize: 0xA0 }
  - { offset: 0x125A08, size: 0x8, addend: 0x0, symName: _llama_clear_adapter_lora, symObjAddr: 0xC0A0, symBinAddr: 0x23F80, symSize: 0x90 }
  - { offset: 0x125C8E, size: 0x8, addend: 0x0, symName: _llama_apply_adapter_cvec, symObjAddr: 0xC130, symBinAddr: 0x24010, symSize: 0x80 }
  - { offset: 0x125D9C, size: 0x8, addend: 0x0, symName: _llama_get_memory, symObjAddr: 0xC1B0, symBinAddr: 0x24090, symSize: 0x10 }
  - { offset: 0x125E04, size: 0x8, addend: 0x0, symName: _llama_memory_clear, symObjAddr: 0xC1C0, symBinAddr: 0x240A0, symSize: 0x20 }
  - { offset: 0x125E47, size: 0x8, addend: 0x0, symName: _llama_memory_seq_rm, symObjAddr: 0xC1E0, symBinAddr: 0x240C0, symSize: 0x20 }
  - { offset: 0x125EAB, size: 0x8, addend: 0x0, symName: _llama_memory_seq_cp, symObjAddr: 0xC200, symBinAddr: 0x240E0, symSize: 0x20 }
  - { offset: 0x125F1A, size: 0x8, addend: 0x0, symName: _llama_memory_seq_keep, symObjAddr: 0xC220, symBinAddr: 0x24100, symSize: 0x20 }
  - { offset: 0x125F5C, size: 0x8, addend: 0x0, symName: _llama_memory_seq_add, symObjAddr: 0xC240, symBinAddr: 0x24120, symSize: 0x20 }
  - { offset: 0x125FCB, size: 0x8, addend: 0x0, symName: _llama_memory_seq_div, symObjAddr: 0xC260, symBinAddr: 0x24140, symSize: 0x20 }
  - { offset: 0x12603A, size: 0x8, addend: 0x0, symName: _llama_memory_seq_pos_min, symObjAddr: 0xC280, symBinAddr: 0x24160, symSize: 0x20 }
  - { offset: 0x126080, size: 0x8, addend: 0x0, symName: _llama_memory_seq_pos_max, symObjAddr: 0xC2A0, symBinAddr: 0x24180, symSize: 0x20 }
  - { offset: 0x1260C6, size: 0x8, addend: 0x0, symName: _llama_memory_can_shift, symObjAddr: 0xC2C0, symBinAddr: 0x241A0, symSize: 0x20 }
  - { offset: 0x126118, size: 0x8, addend: 0x0, symName: _llama_get_state_size, symObjAddr: 0xC2E0, symBinAddr: 0x241C0, symSize: 0x10 }
  - { offset: 0x126176, size: 0x8, addend: 0x0, symName: _llama_state_get_size, symObjAddr: 0xC2F0, symBinAddr: 0x241D0, symSize: 0x10 }
  - { offset: 0x1261DB, size: 0x8, addend: 0x0, symName: _llama_copy_state_data, symObjAddr: 0xC300, symBinAddr: 0x241E0, symSize: 0x30 }
  - { offset: 0x126279, size: 0x8, addend: 0x0, symName: _llama_state_get_data, symObjAddr: 0xC330, symBinAddr: 0x24210, symSize: 0x30 }
  - { offset: 0x1262FF, size: 0x8, addend: 0x0, symName: _llama_set_state_data, symObjAddr: 0xC360, symBinAddr: 0x24240, symSize: 0x30 }
  - { offset: 0x12639D, size: 0x8, addend: 0x0, symName: _llama_state_set_data, symObjAddr: 0xC390, symBinAddr: 0x24270, symSize: 0x30 }
  - { offset: 0x1263F0, size: 0x8, addend: 0x0, symName: _llama_load_session_file, symObjAddr: 0xC3C0, symBinAddr: 0x242A0, symSize: 0x10 }
  - { offset: 0x126489, size: 0x8, addend: 0x0, symName: _llama_state_load_file, symObjAddr: 0xC3D0, symBinAddr: 0x242B0, symSize: 0xA0 }
  - { offset: 0x126565, size: 0x8, addend: 0x0, symName: _llama_save_session_file, symObjAddr: 0xC470, symBinAddr: 0x24350, symSize: 0x10 }
  - { offset: 0x1265E8, size: 0x8, addend: 0x0, symName: _llama_state_save_file, symObjAddr: 0xC480, symBinAddr: 0x24360, symSize: 0xA0 }
  - { offset: 0x1266E1, size: 0x8, addend: 0x0, symName: _llama_state_seq_get_size, symObjAddr: 0xC520, symBinAddr: 0x24400, symSize: 0x10 }
  - { offset: 0x126768, size: 0x8, addend: 0x0, symName: _llama_state_seq_get_size_ext, symObjAddr: 0xC530, symBinAddr: 0x24410, symSize: 0x10 }
  - { offset: 0x126801, size: 0x8, addend: 0x0, symName: _llama_state_seq_get_data, symObjAddr: 0xC540, symBinAddr: 0x24420, symSize: 0x40 }
  - { offset: 0x1268C7, size: 0x8, addend: 0x0, symName: _llama_state_seq_get_data_ext, symObjAddr: 0xC580, symBinAddr: 0x24460, symSize: 0x50 }
  - { offset: 0x126977, size: 0x8, addend: 0x0, symName: _llama_state_seq_set_data, symObjAddr: 0xC5D0, symBinAddr: 0x244B0, symSize: 0x40 }
  - { offset: 0x126A3D, size: 0x8, addend: 0x0, symName: _llama_state_seq_set_data_ext, symObjAddr: 0xC610, symBinAddr: 0x244F0, symSize: 0x50 }
  - { offset: 0x126AA2, size: 0x8, addend: 0x0, symName: _llama_state_seq_save_file, symObjAddr: 0xC660, symBinAddr: 0x24540, symSize: 0xA0 }
  - { offset: 0x126B7E, size: 0x8, addend: 0x0, symName: _llama_state_seq_load_file, symObjAddr: 0xC700, symBinAddr: 0x245E0, symSize: 0xB0 }
  - { offset: 0x126C72, size: 0x8, addend: 0x0, symName: _llama_encode, symObjAddr: 0xC7B0, symBinAddr: 0x24690, symSize: 0x40 }
  - { offset: 0x126CEC, size: 0x8, addend: 0x0, symName: _llama_decode, symObjAddr: 0xC7F0, symBinAddr: 0x246D0, symSize: 0x40 }
  - { offset: 0x126D8B, size: 0x8, addend: 0x0, symName: _llama_perf_context, symObjAddr: 0xC830, symBinAddr: 0x24710, symSize: 0xA0 }
  - { offset: 0x126E93, size: 0x8, addend: 0x0, symName: _llama_perf_context_print, symObjAddr: 0xC8D0, symBinAddr: 0x247B0, symSize: 0x1D0 }
  - { offset: 0x127112, size: 0x8, addend: 0x0, symName: _llama_perf_context_reset, symObjAddr: 0xCAA0, symBinAddr: 0x24980, symSize: 0x40 }
  - { offset: 0x12855D, size: 0x8, addend: 0x0, symName: _llama_memory_breakdown_print, symObjAddr: 0xCAE0, symBinAddr: 0x249C0, symSize: 0x2710 }
  - { offset: 0x12FA66, size: 0x8, addend: 0x0, symName: __ZNSt3__15arrayINS_12basic_stringIcNS_11char_traitsIcEENS_9allocatorIcEEEELm9EED2Ev, symObjAddr: 0xFDC0, symBinAddr: 0x27A10, symSize: 0x110 }
  - { offset: 0x12FBB0, size: 0x8, addend: 0x0, symName: __ZNSt3__16__treeIP24ggml_backend_buffer_typeNS_4lessIS2_EENS_9allocatorIS2_EEE7destroyEPNS_11__tree_nodeIS2_PvEE, symObjAddr: 0x11920, symBinAddr: 0x28FE0, symSize: 0x40 }
  - { offset: 0x12FCDC, size: 0x8, addend: 0x0, symName: __ZNSt3__16vectorINS_5arrayINS_12basic_stringIcNS_11char_traitsIcEENS_9allocatorIcEEEELm9EEENS5_IS8_EEE20__throw_length_errorB8ne200100Ev, symObjAddr: 0x11820, symBinAddr: 0x28F60, symSize: 0x10 }
  - { offset: 0x12FCFF, size: 0x8, addend: 0x0, symName: __ZNSt3__16vectorI27llama_memory_breakdown_dataNS_9allocatorIS1_EEE20__throw_length_errorB8ne200100Ev, symObjAddr: 0x11960, symBinAddr: 0x29020, symSize: 0x10 }
  - { offset: 0x12FD22, size: 0x8, addend: 0x0, symName: __ZNSt3__128__exception_guard_exceptionsINS_6vectorINS_12basic_stringIcNS_11char_traitsIcEENS_9allocatorIcEEEENS5_IS7_EEE16__destroy_vectorEED1B8ne200100Ev, symObjAddr: 0x118B0, symBinAddr: 0x28F70, symSize: 0x70 }
  - { offset: 0x12FF80, size: 0x8, addend: 0x0, symName: _llama_memory_breakdown_print.cold.1, symObjAddr: 0x11A00, symBinAddr: 0x2ABCF0, symSize: 0x30 }
  - { offset: 0x130053, size: 0x8, addend: 0x0, symName: _llama_memory_breakdown_print.cold.2, symObjAddr: 0x11A30, symBinAddr: 0x2ABD20, symSize: 0x2B }
  - { offset: 0x130126, size: 0x8, addend: 0x0, symName: __ZNSt3__16vectorINS_12basic_stringIcNS_11char_traitsIcEENS_9allocatorIcEEEENS4_IS6_EEED1B8ne200100Ev, symObjAddr: 0xF1F0, symBinAddr: 0x270D0, symSize: 0x70 }
  - { offset: 0x130384, size: 0x8, addend: 0x0, symName: __ZNSt3__16vectorINS_5arrayINS_12basic_stringIcNS_11char_traitsIcEENS_9allocatorIcEEEELm9EEENS5_IS8_EEED1B8ne200100Ev, symObjAddr: 0xF260, symBinAddr: 0x27140, symSize: 0x70 }
  - { offset: 0x130534, size: 0x8, addend: 0x0, symName: _llama_opt_param_filter_all, symObjAddr: 0xF2D0, symBinAddr: 0x271B0, symSize: 0x10 }
  - { offset: 0x13056E, size: 0x8, addend: 0x0, symName: _llama_opt_init, symObjAddr: 0xF2E0, symBinAddr: 0x271C0, symSize: 0x10 }
  - { offset: 0x1305D1, size: 0x8, addend: 0x0, symName: _llama_opt_epoch, symObjAddr: 0xF2F0, symBinAddr: 0x271D0, symSize: 0x10 }
  - { offset: 0x13130D, size: 0x8, addend: 0x0, symName: __ZN20llama_io_write_dummyD0Ev, symObjAddr: 0xF7E0, symBinAddr: 0x274C0, symSize: 0x10 }
  - { offset: 0x131339, size: 0x8, addend: 0x0, symName: __ZN20llama_io_write_dummy5writeEPKvm, symObjAddr: 0xF7F0, symBinAddr: 0x274D0, symSize: 0x10 }
  - { offset: 0x131378, size: 0x8, addend: 0x0, symName: __ZN20llama_io_write_dummy12write_tensorEPK11ggml_tensormm, symObjAddr: 0xF800, symBinAddr: 0x274E0, symSize: 0x10 }
  - { offset: 0x1313C2, size: 0x8, addend: 0x0, symName: __ZN20llama_io_write_dummy7n_bytesEv, symObjAddr: 0xF810, symBinAddr: 0x274F0, symSize: 0x10 }
  - { offset: 0x1313E7, size: 0x8, addend: 0x0, symName: __ZN21llama_io_write_bufferD0Ev, symObjAddr: 0xF820, symBinAddr: 0x27500, symSize: 0x10 }
  - { offset: 0x131413, size: 0x8, addend: 0x0, symName: __ZN21llama_io_write_buffer5writeEPKvm, symObjAddr: 0xF830, symBinAddr: 0x27510, symSize: 0x80 }
  - { offset: 0x13145A, size: 0x8, addend: 0x0, symName: __ZN21llama_io_write_buffer12write_tensorEPK11ggml_tensormm, symObjAddr: 0xF8B0, symBinAddr: 0x27590, symSize: 0x80 }
  - { offset: 0x1314DB, size: 0x8, addend: 0x0, symName: __ZN21llama_io_write_buffer7n_bytesEv, symObjAddr: 0xF930, symBinAddr: 0x27610, symSize: 0x10 }
  - { offset: 0x131500, size: 0x8, addend: 0x0, symName: __ZN20llama_io_read_bufferD0Ev, symObjAddr: 0xF940, symBinAddr: 0x27620, symSize: 0x10 }
  - { offset: 0x13152C, size: 0x8, addend: 0x0, symName: __ZN20llama_io_read_buffer4readEm, symObjAddr: 0xF950, symBinAddr: 0x27630, symSize: 0x70 }
  - { offset: 0x131573, size: 0x8, addend: 0x0, symName: __ZN20llama_io_read_buffer7read_toEPvm, symObjAddr: 0xF9C0, symBinAddr: 0x276A0, symSize: 0x30 }
  - { offset: 0x1315D5, size: 0x8, addend: 0x0, symName: __ZN20llama_io_read_buffer7n_bytesEv, symObjAddr: 0xF9F0, symBinAddr: 0x276D0, symSize: 0x10 }
  - { offset: 0x1315FA, size: 0x8, addend: 0x0, symName: __ZN18llama_io_read_fileD0Ev, symObjAddr: 0xFA00, symBinAddr: 0x276E0, symSize: 0x40 }
  - { offset: 0x13162A, size: 0x8, addend: 0x0, symName: __ZN18llama_io_read_fileD0Ev, symObjAddr: 0xFA00, symBinAddr: 0x276E0, symSize: 0x40 }
  - { offset: 0x131648, size: 0x8, addend: 0x0, symName: __ZN18llama_io_read_fileD0Ev, symObjAddr: 0xFA00, symBinAddr: 0x276E0, symSize: 0x40 }
  - { offset: 0x131B64, size: 0x8, addend: 0x0, symName: __ZN18llama_io_read_file4readEm, symObjAddr: 0xFA40, symBinAddr: 0x27720, symSize: 0x110 }
  - { offset: 0x1320A6, size: 0x8, addend: 0x0, symName: __ZN18llama_io_read_file7read_toEPvm, symObjAddr: 0xFB50, symBinAddr: 0x27830, symSize: 0x20 }
  - { offset: 0x1320ED, size: 0x8, addend: 0x0, symName: __ZN18llama_io_read_file7n_bytesEv, symObjAddr: 0xFB70, symBinAddr: 0x27850, symSize: 0x10 }
  - { offset: 0x132177, size: 0x8, addend: 0x0, symName: __ZN19llama_io_write_fileD0Ev, symObjAddr: 0xFC10, symBinAddr: 0x27860, symSize: 0x40 }
  - { offset: 0x1321A7, size: 0x8, addend: 0x0, symName: __ZN19llama_io_write_fileD0Ev, symObjAddr: 0xFC10, symBinAddr: 0x27860, symSize: 0x40 }
  - { offset: 0x1321C5, size: 0x8, addend: 0x0, symName: __ZN19llama_io_write_fileD0Ev, symObjAddr: 0xFC10, symBinAddr: 0x27860, symSize: 0x40 }
  - { offset: 0x13230D, size: 0x8, addend: 0x0, symName: __ZN19llama_io_write_file5writeEPKvm, symObjAddr: 0xFC50, symBinAddr: 0x278A0, symSize: 0x20 }
  - { offset: 0x1323B6, size: 0x8, addend: 0x0, symName: __ZN19llama_io_write_file12write_tensorEPK11ggml_tensormm, symObjAddr: 0xFC70, symBinAddr: 0x278C0, symSize: 0x150 }
  - { offset: 0x13311C, size: 0x8, addend: 0x0, symName: __ZNSt3__112__hash_tableINS_17__hash_value_typeIP18llama_adapter_lorafEENS_22__unordered_map_hasherIS3_S4_NS_4hashIS3_EENS_8equal_toIS3_EELb1EEENS_21__unordered_map_equalIS3_S4_S9_S7_Lb1EEENS_9allocatorIS4_EEE11__do_rehashILb1EEEvm, symObjAddr: 0x10A80, symBinAddr: 0x28550, symSize: 0x1B0 }
  - { offset: 0x133D94, size: 0x8, addend: 0x0, symName: __ZNSt3__16__treeINS_12__value_typeIijEENS_19__map_value_compareIiS2_NS_4lessIiEELb1EEENS_9allocatorIS2_EEE7destroyEPNS_11__tree_nodeIS2_PvEE, symObjAddr: 0x111C0, symBinAddr: 0x28900, symSize: 0x40 }
  - { offset: 0x1340B2, size: 0x8, addend: 0x0, symName: __ZNSt3__16vectorIjNS_9allocatorIjEEE20__throw_length_errorB8ne200100Ev, symObjAddr: 0x11360, symBinAddr: 0x28AA0, symSize: 0x10 }
  - { offset: 0x1340CA, size: 0x8, addend: 0x0, symName: __ZNSt3__13mapIiP13llama_samplerNS_4lessIiEENS_9allocatorINS_4pairIKiS2_EEEEE6insertB8ne200100INS_20__map_const_iteratorINS_21__tree_const_iteratorINS_12__value_typeIiS2_EEPNS_11__tree_nodeISF_PvEElEEEEEEvT_SM_, symObjAddr: 0x11370, symBinAddr: 0x28AB0, symSize: 0x100 }
  - { offset: 0x13430A, size: 0x8, addend: 0x0, symName: __ZNSt3__16__treeINS_12__value_typeIiP13llama_samplerEENS_19__map_value_compareIiS4_NS_4lessIiEELb1EEENS_9allocatorIS4_EEE12__find_equalIiEERPNS_16__tree_node_baseIPvEENS_21__tree_const_iteratorIS4_PNS_11__tree_nodeIS4_SE_EElEERPNS_15__tree_end_nodeISG_EESH_RKT_, symObjAddr: 0x11470, symBinAddr: 0x28BB0, symSize: 0x160 }
  - { offset: 0x134749, size: 0x8, addend: 0x0, symName: '__ZNSt3__110__function6__funcIZNK13llama_context12graph_get_cbEvE3$_0NS_9allocatorIS3_EEFvRK12llama_ubatchP11ggml_tensorPKciEED1Ev', symObjAddr: 0x115D0, symBinAddr: 0x28D10, symSize: 0x10 }
  - { offset: 0x134773, size: 0x8, addend: 0x0, symName: '__ZNSt3__110__function6__funcIZNK13llama_context12graph_get_cbEvE3$_0NS_9allocatorIS3_EEFvRK12llama_ubatchP11ggml_tensorPKciEED0Ev', symObjAddr: 0x115E0, symBinAddr: 0x28D20, symSize: 0x10 }
  - { offset: 0x13488A, size: 0x8, addend: 0x0, symName: '__ZNKSt3__110__function6__funcIZNK13llama_context12graph_get_cbEvE3$_0NS_9allocatorIS3_EEFvRK12llama_ubatchP11ggml_tensorPKciEE7__cloneEv', symObjAddr: 0x115F0, symBinAddr: 0x28D30, symSize: 0x30 }
  - { offset: 0x134A77, size: 0x8, addend: 0x0, symName: '__ZNKSt3__110__function6__funcIZNK13llama_context12graph_get_cbEvE3$_0NS_9allocatorIS3_EEFvRK12llama_ubatchP11ggml_tensorPKciEE7__cloneEPNS0_6__baseISD_EE', symObjAddr: 0x11620, symBinAddr: 0x28D60, symSize: 0x20 }
  - { offset: 0x134B22, size: 0x8, addend: 0x0, symName: '__ZNSt3__110__function6__funcIZNK13llama_context12graph_get_cbEvE3$_0NS_9allocatorIS3_EEFvRK12llama_ubatchP11ggml_tensorPKciEE7destroyEv', symObjAddr: 0x11640, symBinAddr: 0x28D80, symSize: 0x10 }
  - { offset: 0x134B77, size: 0x8, addend: 0x0, symName: '__ZNSt3__110__function6__funcIZNK13llama_context12graph_get_cbEvE3$_0NS_9allocatorIS3_EEFvRK12llama_ubatchP11ggml_tensorPKciEE18destroy_deallocateEv', symObjAddr: 0x11650, symBinAddr: 0x28D90, symSize: 0x10 }
  - { offset: 0x134D6B, size: 0x8, addend: 0x0, symName: '__ZNSt3__110__function6__funcIZNK13llama_context12graph_get_cbEvE3$_0NS_9allocatorIS3_EEFvRK12llama_ubatchP11ggml_tensorPKciEEclES8_OSA_OSC_Oi', symObjAddr: 0x11660, symBinAddr: 0x28DA0, symSize: 0x110 }
  - { offset: 0x135082, size: 0x8, addend: 0x0, symName: '__ZNKSt3__110__function6__funcIZNK13llama_context12graph_get_cbEvE3$_0NS_9allocatorIS3_EEFvRK12llama_ubatchP11ggml_tensorPKciEE6targetERKSt9type_info', symObjAddr: 0x11770, symBinAddr: 0x28EB0, symSize: 0x20 }
  - { offset: 0x1350F2, size: 0x8, addend: 0x0, symName: '__ZNKSt3__110__function6__funcIZNK13llama_context12graph_get_cbEvE3$_0NS_9allocatorIS3_EEFvRK12llama_ubatchP11ggml_tensorPKciEE11target_typeEv', symObjAddr: 0x11790, symBinAddr: 0x28ED0, symSize: 0x10 }
  - { offset: 0x1372A7, size: 0x8, addend: 0x0, symName: _llama_max_parallel_sequences, symObjAddr: 0x0, symBinAddr: 0x29030, symSize: 0xB }
  - { offset: 0x1372B5, size: 0x8, addend: 0x0, symName: _llama_max_parallel_sequences, symObjAddr: 0x0, symBinAddr: 0x29030, symSize: 0xB }
  - { offset: 0x13740B, size: 0x8, addend: 0x0, symName: __ZNK29llama_grammar_trigger_pattern4findERKNSt3__112basic_stringIcNS0_11char_traitsIcEENS0_9allocatorIcEEEE, symObjAddr: 0x0, symBinAddr: 0x29040, symSize: 0x440 }
  - { offset: 0x13C51C, size: 0x8, addend: 0x0, symName: __ZNSt3__119piecewise_constructE, symObjAddr: 0x19BB0, symBinAddr: 0x2AF6C0, symSize: 0x0 }
  - { offset: 0x15A3D6, size: 0x8, addend: 0x0, symName: __ZNSt3__1plB8ne200100IcNS_11char_traitsIcEENS_9allocatorIcEEEENS_12basic_stringIT_T0_T1_EEOS9_SA_, symObjAddr: 0x7C0, symBinAddr: 0x29800, symSize: 0x60 }
  - { offset: 0x15D1B6, size: 0x8, addend: 0x0, symName: __ZNSt3__135__uninitialized_allocator_copy_implB8ne200100INS_9allocatorINS_6vectorI21llama_grammar_elementNS1_IS3_EEEEEEPS5_S7_S7_EET2_RT_T0_T1_S8_, symObjAddr: 0x17DB0, symBinAddr: 0x40970, symSize: 0x100 }
  - { offset: 0x15D71D, size: 0x8, addend: 0x0, symName: __ZNSt3__135__uninitialized_allocator_copy_implB8ne200100INS_9allocatorINS_6vectorIPK21llama_grammar_elementNS1_IS5_EEEEEEPS7_S9_S9_EET2_RT_T0_T1_SA_, symObjAddr: 0x17F70, symBinAddr: 0x40B30, symSize: 0x100 }
  - { offset: 0x15DC84, size: 0x8, addend: 0x0, symName: __ZNSt3__130__uninitialized_allocator_copyB8ne200100INS_9allocatorI29llama_grammar_trigger_patternEEPS2_S4_S4_EET2_RT_T0_T1_S5_, symObjAddr: 0x180D0, symBinAddr: 0x40C90, symSize: 0x110 }
  - { offset: 0x15F395, size: 0x8, addend: 0x0, symName: __ZNSt3__119__throw_regex_errorB8ne200100ILNS_15regex_constants10error_typeE12EEEvv, symObjAddr: 0xD330, symBinAddr: 0x36180, symSize: 0x50 }
  - { offset: 0x15F3BB, size: 0x8, addend: 0x0, symName: __ZNSt3__119__throw_regex_errorB8ne200100ILNS_15regex_constants10error_typeE16EEEvv, symObjAddr: 0xD380, symBinAddr: 0x361D0, symSize: 0x50 }
  - { offset: 0x160DCC, size: 0x8, addend: 0x0, symName: __ZNSt3__134__uninitialized_allocator_relocateB8ne200100INS_9allocatorI29llama_grammar_trigger_patternEEPS2_EEvRT_T0_S7_S7_, symObjAddr: 0xFFB0, symBinAddr: 0x38C70, symSize: 0x120 }
  - { offset: 0x160E27, size: 0x8, addend: 0x0, symName: __ZNSt3__134__uninitialized_allocator_relocateB8ne200100INS_9allocatorI29llama_grammar_trigger_patternEEPS2_EEvRT_T0_S7_S7_, symObjAddr: 0xFFB0, symBinAddr: 0x38C70, symSize: 0x120 }
  - { offset: 0x16150F, size: 0x8, addend: 0x0, symName: __ZNSt3__119__throw_regex_errorB8ne200100ILNS_15regex_constants10error_typeE17EEEvv, symObjAddr: 0x10400, symBinAddr: 0x390C0, symSize: 0x50 }
  - { offset: 0x161C4A, size: 0x8, addend: 0x0, symName: __ZNSt3__119__throw_regex_errorB8ne200100ILNS_15regex_constants10error_typeE14EEEvv, symObjAddr: 0x10D40, symBinAddr: 0x39A00, symSize: 0x50 }
  - { offset: 0x161F33, size: 0x8, addend: 0x0, symName: __ZNSt3__119__throw_regex_errorB8ne200100ILNS_15regex_constants10error_typeE15EEEvv, symObjAddr: 0x170B0, symBinAddr: 0x3FCF0, symSize: 0x50 }
  - { offset: 0x1622CF, size: 0x8, addend: 0x0, symName: __ZNSt3__119__throw_regex_errorB8ne200100ILNS_15regex_constants10error_typeE6EEEvv, symObjAddr: 0x11970, symBinAddr: 0x3A630, symSize: 0x50 }
  - { offset: 0x16247E, size: 0x8, addend: 0x0, symName: __ZNSt3__119__throw_regex_errorB8ne200100ILNS_15regex_constants10error_typeE11EEEvv, symObjAddr: 0x12210, symBinAddr: 0x3AED0, symSize: 0x50 }
  - { offset: 0x1624C2, size: 0x8, addend: 0x0, symName: __ZNSt3__119__throw_regex_errorB8ne200100ILNS_15regex_constants10error_typeE8EEEvv, symObjAddr: 0x16A00, symBinAddr: 0x3F640, symSize: 0x50 }
  - { offset: 0x1624E8, size: 0x8, addend: 0x0, symName: __ZNSt3__119__throw_regex_errorB8ne200100ILNS_15regex_constants10error_typeE7EEEvv, symObjAddr: 0x16A50, symBinAddr: 0x3F690, symSize: 0x50 }
  - { offset: 0x162637, size: 0x8, addend: 0x0, symName: __ZNSt3__119__throw_regex_errorB8ne200100ILNS_15regex_constants10error_typeE4EEEvv, symObjAddr: 0x12D10, symBinAddr: 0x3B9D0, symSize: 0x50 }
  - { offset: 0x16265D, size: 0x8, addend: 0x0, symName: __ZNSt3__119__throw_regex_errorB8ne200100ILNS_15regex_constants10error_typeE3EEEvv, symObjAddr: 0x12480, symBinAddr: 0x3B140, symSize: 0x50 }
  - { offset: 0x162683, size: 0x8, addend: 0x0, symName: __ZNSt3__119__throw_regex_errorB8ne200100ILNS_15regex_constants10error_typeE5EEEvv, symObjAddr: 0x148F0, symBinAddr: 0x3D530, symSize: 0x50 }
  - { offset: 0x163297, size: 0x8, addend: 0x0, symName: __ZNSt3__119__throw_regex_errorB8ne200100ILNS_15regex_constants10error_typeE1EEEvv, symObjAddr: 0x15BB0, symBinAddr: 0x3E7F0, symSize: 0x50 }
  - { offset: 0x1632BD, size: 0x8, addend: 0x0, symName: __ZNSt3__119__throw_regex_errorB8ne200100ILNS_15regex_constants10error_typeE2EEEvv, symObjAddr: 0x16170, symBinAddr: 0x3EDB0, symSize: 0x50 }
  - { offset: 0x16331F, size: 0x8, addend: 0x0, symName: __ZNSt3__119__throw_regex_errorB8ne200100ILNS_15regex_constants10error_typeE9EEEvv, symObjAddr: 0x16700, symBinAddr: 0x3F340, symSize: 0x50 }
  - { offset: 0x1650B8, size: 0x8, addend: 0x0, symName: __ZL11decode_utf8RKNSt3__112basic_stringIcNS_11char_traitsIcEENS_9allocatorIcEEEE18llama_partial_utf8, symObjAddr: 0x9200, symBinAddr: 0x321B0, symSize: 0x5E0 }
  - { offset: 0x1650E2, size: 0x8, addend: 0x0, symName: __ZZL11decode_utf8RKNSt3__112basic_stringIcNS_11char_traitsIcEENS_9allocatorIcEEEE18llama_partial_utf8E6lookup, symObjAddr: 0x19B70, symBinAddr: 0x2AF680, symSize: 0x0 }
  - { offset: 0x16885B, size: 0x8, addend: 0x0, symName: __ZNK29llama_grammar_trigger_pattern4findERKNSt3__112basic_stringIcNS0_11char_traitsIcEENS0_9allocatorIcEEEE, symObjAddr: 0x0, symBinAddr: 0x29040, symSize: 0x440 }
  - { offset: 0x169C87, size: 0x8, addend: 0x0, symName: __ZNKSt3__111basic_regexIcNS_12regex_traitsIcEEE8__searchINS_9allocatorINS_9sub_matchIPKcEEEEEEbS8_S8_RNS_13match_resultsIS8_T_EENS_15regex_constants15match_flag_typeE, symObjAddr: 0xB600, symBinAddr: 0x34450, symSize: 0x340 }
  - { offset: 0x16A1F7, size: 0x8, addend: 0x0, symName: __ZNSt3__113match_resultsINS_11__wrap_iterIPKcEENS_9allocatorINS_9sub_matchIS4_EEEEE8__assignB8ne200100IS3_NS5_INS6_IS3_EEEEEEvS4_S4_RKNS0_IT_T0_EEb, symObjAddr: 0xB940, symBinAddr: 0x34790, symSize: 0x170 }
  - { offset: 0x16B593, size: 0x8, addend: 0x0, symName: __ZN20llama_grammar_parser13get_symbol_idEPKcm, symObjAddr: 0x440, symBinAddr: 0x29480, symSize: 0xE0 }
  - { offset: 0x16BB2B, size: 0x8, addend: 0x0, symName: __ZNSt3__16__treeINS_12__value_typeINS_12basic_stringIcNS_11char_traitsIcEENS_9allocatorIcEEEEjEENS_19__map_value_compareIS7_S8_NS_4lessIS7_EELb1EEENS5_IS8_EEE25__emplace_unique_key_argsIS7_JS7_RjEEENS_4pairINS_15__tree_iteratorIS8_PNS_11__tree_nodeIS8_PvEElEEbEERKT_DpOT0_, symObjAddr: 0xF320, symBinAddr: 0x38170, symSize: 0x190 }
  - { offset: 0x16C133, size: 0x8, addend: 0x0, symName: __ZNKSt3__111basic_regexIcNS_12regex_traitsIcEEE8__searchINS_9allocatorINS_9sub_matchIPKcEEEEEEbS8_S8_RNS_13match_resultsIS8_T_EENS_15regex_constants15match_flag_typeE, symObjAddr: 0xB600, symBinAddr: 0x34450, symSize: 0x340 }
  - { offset: 0x16C13E, size: 0x8, addend: 0x0, symName: __ZNSt3__112basic_stringIcNS_11char_traitsIcEENS_9allocatorIcEEEC1B8ne200100EPKcm, symObjAddr: 0x520, symBinAddr: 0x29560, symSize: 0x90 }
  - { offset: 0x16C561, size: 0x8, addend: 0x0, symName: __ZN20llama_grammar_parser18generate_symbol_idERKNSt3__112basic_stringIcNS0_11char_traitsIcEENS0_9allocatorIcEEEE, symObjAddr: 0x5B0, symBinAddr: 0x295F0, symSize: 0x210 }
  - { offset: 0x16D048, size: 0x8, addend: 0x0, symName: __ZNSt3__16__treeINS_12__value_typeINS_12basic_stringIcNS_11char_traitsIcEENS_9allocatorIcEEEEjEENS_19__map_value_compareIS7_S8_NS_4lessIS7_EELb1EEENS5_IS8_EEE25__emplace_unique_key_argsIS7_JRKNS_21piecewise_construct_tENS_5tupleIJOS7_EEENSJ_IJEEEEEENS_4pairINS_15__tree_iteratorIS8_PNS_11__tree_nodeIS8_PvEElEEbEERKT_DpOT0_, symObjAddr: 0xF630, symBinAddr: 0x38300, symSize: 0x190 }
  - { offset: 0x16D8CC, size: 0x8, addend: 0x0, symName: __ZN20llama_grammar_parser8add_ruleEjRKNSt3__16vectorI21llama_grammar_elementNS0_9allocatorIS2_EEEE, symObjAddr: 0x820, symBinAddr: 0x29860, symSize: 0xE0 }
  - { offset: 0x16DBD8, size: 0x8, addend: 0x0, symName: __ZNSt3__16vectorINS0_I21llama_grammar_elementNS_9allocatorIS1_EEEENS2_IS4_EEE8__appendEm, symObjAddr: 0xF7C0, symBinAddr: 0x38490, symSize: 0x1A0 }
  - { offset: 0x16E04C, size: 0x8, addend: 0x0, symName: __ZNSt3__16vectorI21llama_grammar_elementNS_9allocatorIS1_EEE18__assign_with_sizeB8ne200100IPS1_S6_EEvT_T0_l, symObjAddr: 0xF970, symBinAddr: 0x38640, symSize: 0x140 }
  - { offset: 0x16EA81, size: 0x8, addend: 0x0, symName: __ZNSt3__16__treeINS_12__value_typeIjNS_12basic_stringIcNS_11char_traitsIcEENS_9allocatorIcEEEEEENS_19__map_value_compareIjS8_NS_4lessIjEELb1EEENS5_IS8_EEE7destroyEPNS_11__tree_nodeIS8_PvEE, symObjAddr: 0xFAB0, symBinAddr: 0x38780, symSize: 0x50 }
  - { offset: 0x16EE3B, size: 0x8, addend: 0x0, symName: __ZN20llama_grammar_parser16parse_alternatesEPKcRKNSt3__112basic_stringIcNS2_11char_traitsIcEENS2_9allocatorIcEEEEjb, symObjAddr: 0x900, symBinAddr: 0x29940, symSize: 0x3B0 }
  - { offset: 0x16FCB8, size: 0x8, addend: 0x0, symName: __ZN20llama_grammar_parser14parse_sequenceEPKcRKNSt3__112basic_stringIcNS2_11char_traitsIcEENS2_9allocatorIcEEEERNS2_6vectorI21llama_grammar_elementNS6_ISC_EEEEb, symObjAddr: 0xCB0, symBinAddr: 0x29CF0, symSize: 0x1FE0 }
  - { offset: 0x1734DA, size: 0x8, addend: 0x0, symName: __ZNSt3__16vectorI21llama_grammar_elementNS_9allocatorIS1_EEE20__throw_length_errorB8ne200100Ev, symObjAddr: 0xAAD0, symBinAddr: 0x33A80, symSize: 0x10 }
  - { offset: 0x173694, size: 0x8, addend: 0x0, symName: '__ZZN20llama_grammar_parser14parse_sequenceEPKcRKNSt3__112basic_stringIcNS2_11char_traitsIcEENS2_9allocatorIcEEEERNS2_6vectorI21llama_grammar_elementNS6_ISC_EEEEbENK3$_0clEyy', symObjAddr: 0x31E0, symBinAddr: 0x2C190, symSize: 0x900 }
  - { offset: 0x1755F2, size: 0x8, addend: 0x0, symName: __ZL10parse_charPKc, symObjAddr: 0x2C90, symBinAddr: 0x2BCD0, symSize: 0x380 }
  - { offset: 0x1758F5, size: 0x8, addend: 0x0, symName: __ZL9parse_intPKc, symObjAddr: 0x3AE0, symBinAddr: 0x2CA90, symSize: 0x120 }
  - { offset: 0x175B9A, size: 0x8, addend: 0x0, symName: __ZL10parse_namePKc, symObjAddr: 0x3010, symBinAddr: 0x2C050, symSize: 0x140 }
  - { offset: 0x17608C, size: 0x8, addend: 0x0, symName: __ZL9parse_hexPKci, symObjAddr: 0xA8B0, symBinAddr: 0x33860, symSize: 0x220 }
  - { offset: 0x176BCF, size: 0x8, addend: 0x0, symName: __ZNSt3__16vectorI21llama_grammar_elementNS_9allocatorIS1_EEE18__insert_with_sizeB8ne200100INS_11__wrap_iterIPS1_EES8_EES8_NS6_IPKS1_EET_T0_l, symObjAddr: 0xACF0, symBinAddr: 0x33BE0, symSize: 0x450 }
  - { offset: 0x177849, size: 0x8, addend: 0x0, symName: __ZNSt3__16vectorI21llama_grammar_elementNS_9allocatorIS1_EEE8__appendEm, symObjAddr: 0xABA0, symBinAddr: 0x33A90, symSize: 0x150 }
  - { offset: 0x177C52, size: 0x8, addend: 0x0, symName: __ZN20llama_grammar_parser10parse_ruleEPKc, symObjAddr: 0x3C00, symBinAddr: 0x2CBB0, symSize: 0x370 }
  - { offset: 0x178537, size: 0x8, addend: 0x0, symName: __ZN20llama_grammar_parser5parseEPKc, symObjAddr: 0x3F70, symBinAddr: 0x2CF20, symSize: 0x340 }
  - { offset: 0x179479, size: 0x8, addend: 0x0, symName: __ZN20llama_grammar_parser5printEP7__sFILE, symObjAddr: 0x42B0, symBinAddr: 0x2D260, symSize: 0x970 }
  - { offset: 0x17A7C8, size: 0x8, addend: 0x0, symName: __ZNSt3__16__treeINS_12__value_typeIjNS_12basic_stringIcNS_11char_traitsIcEENS_9allocatorIcEEEEEENS_19__map_value_compareIjS8_NS_4lessIjEELb1EEENS5_IS8_EEE7destroyEPNS_11__tree_nodeIS8_PvEE, symObjAddr: 0xFAB0, symBinAddr: 0x38780, symSize: 0x50 }
  - { offset: 0x17AEFA, size: 0x8, addend: 0x0, symName: __ZNK20llama_grammar_parser7c_rulesEv, symObjAddr: 0x4C20, symBinAddr: 0x2DBD0, symSize: 0x230 }
  - { offset: 0x17B68B, size: 0x8, addend: 0x0, symName: __ZNSt3__16vectorIPK21llama_grammar_elementNS_9allocatorIS3_EEE20__throw_length_errorB8ne200100Ev, symObjAddr: 0xFB00, symBinAddr: 0x387D0, symSize: 0x10 }
  - { offset: 0x17B6A3, size: 0x8, addend: 0x0, symName: __ZNSt3__16vectorI23llama_grammar_candidateNS_9allocatorIS1_EEE20__throw_length_errorB8ne200100Ev, symObjAddr: 0xFB10, symBinAddr: 0x387E0, symSize: 0x10 }
  - { offset: 0x17B6AE, size: 0x8, addend: 0x0, symName: __Z23llama_grammar_get_rulesPK13llama_grammar, symObjAddr: 0x4E50, symBinAddr: 0x2DE00, symSize: 0x10 }
  - { offset: 0x17B6DD, size: 0x8, addend: 0x0, symName: __Z24llama_grammar_get_stacksP13llama_grammar, symObjAddr: 0x4E60, symBinAddr: 0x2DE10, symSize: 0x10 }
  - { offset: 0x17B9FF, size: 0x8, addend: 0x0, symName: __Z20llama_grammar_acceptP13llama_grammarj, symObjAddr: 0x4E70, symBinAddr: 0x2DE20, symSize: 0x160 }
  - { offset: 0x17BFE1, size: 0x8, addend: 0x0, symName: __ZL24llama_grammar_accept_chrR13llama_grammarRKNSt3__16vectorIPK21llama_grammar_elementNS1_9allocatorIS5_EEEEjRNS2_IS8_NS6_IS8_EEEE, symObjAddr: 0x4FD0, symBinAddr: 0x2DF80, symSize: 0x280 }
  - { offset: 0x17C8F4, size: 0x8, addend: 0x0, symName: __ZNSt3__16vectorINS0_IPK21llama_grammar_elementNS_9allocatorIS3_EEEENS4_IS6_EEE20__throw_length_errorB8ne200100Ev, symObjAddr: 0xB3C0, symBinAddr: 0x34230, symSize: 0x10 }
  - { offset: 0x17C90C, size: 0x8, addend: 0x0, symName: __ZNSt3__110shared_ptrINS_13__empty_stateIcEEED1B8ne200100Ev, symObjAddr: 0xB3D0, symBinAddr: 0x34240, symSize: 0x40 }
  - { offset: 0x17C917, size: 0x8, addend: 0x0, symName: __ZNSt3__16vectorINS0_IPK21llama_grammar_elementNS_9allocatorIS3_EEEENS4_IS6_EEED1B8ne200100Ev, symObjAddr: 0x5250, symBinAddr: 0x2E200, symSize: 0x70 }
  - { offset: 0x17CF16, size: 0x8, addend: 0x0, symName: __ZL27llama_grammar_advance_stackRKNSt3__16vectorINS0_I21llama_grammar_elementNS_9allocatorIS1_EEEENS2_IS4_EEEERKNS0_IPKS1_NS2_ISA_EEEERNS0_ISC_NS2_ISC_EEEE, symObjAddr: 0x63E0, symBinAddr: 0x2F390, symSize: 0x4C0 }
  - { offset: 0x17ECBA, size: 0x8, addend: 0x0, symName: __Z41llama_grammar_reject_candidates_for_stackRKNSt3__16vectorINS0_I21llama_grammar_elementNS_9allocatorIS1_EEEENS2_IS4_EEEERKNS0_IPKS1_NS2_ISA_EEEERKNS0_I23llama_grammar_candidateNS2_ISF_EEEE, symObjAddr: 0x52C0, symBinAddr: 0x2E270, symSize: 0x1120 }
  - { offset: 0x181C20, size: 0x8, addend: 0x0, symName: __ZL31llama_grammar_reject_candidatesRKNSt3__16vectorINS0_I21llama_grammar_elementNS_9allocatorIS1_EEEENS2_IS4_EEEERKNS0_INS0_IPKS1_NS2_ISA_EEEENS2_ISC_EEEERKNS0_I23llama_grammar_candidateNS2_ISH_EEEE, symObjAddr: 0x68A0, symBinAddr: 0x2F850, symSize: 0x110 }
  - { offset: 0x181FBD, size: 0x8, addend: 0x0, symName: __ZNSt3__16vectorI23llama_grammar_candidateNS_9allocatorIS1_EEE20__throw_length_errorB8ne200100Ev, symObjAddr: 0xFB10, symBinAddr: 0x387E0, symSize: 0x10 }
  - { offset: 0x181FD5, size: 0x8, addend: 0x0, symName: __ZNSt3__128__exception_guard_exceptionsINS_6vectorINS1_I21llama_grammar_elementNS_9allocatorIS2_EEEENS3_IS5_EEE16__destroy_vectorEED1B8ne200100Ev, symObjAddr: 0xFB20, symBinAddr: 0x387F0, symSize: 0x70 }
  - { offset: 0x182345, size: 0x8, addend: 0x0, symName: __ZNSt3__16vectorINS0_IPK21llama_grammar_elementNS_9allocatorIS3_EEEENS4_IS6_EEE24__emplace_back_slow_pathIJRKS6_EEEPS6_DpOT_, symObjAddr: 0xB1C0, symBinAddr: 0x34030, symSize: 0x1A0 }
  - { offset: 0x1832DE, size: 0x8, addend: 0x0, symName: __Z23llama_grammar_init_implPK11llama_vocabPPK21llama_grammar_elementmm, symObjAddr: 0x69B0, symBinAddr: 0x2F960, symSize: 0x860 }
  - { offset: 0x1853FC, size: 0x8, addend: 0x0, symName: __ZL35llama_grammar_detect_left_recursionRKNSt3__16vectorINS0_I21llama_grammar_elementNS_9allocatorIS1_EEEENS2_IS4_EEEEmPNS0_IbNS2_IbEEEESB_SB_, symObjAddr: 0x7210, symBinAddr: 0x301C0, symSize: 0x170 }
  - { offset: 0x185746, size: 0x8, addend: 0x0, symName: __ZNSt3__16vectorINS0_I21llama_grammar_elementNS_9allocatorIS1_EEEENS2_IS4_EEE20__throw_length_errorB8ne200100Ev, symObjAddr: 0xF960, symBinAddr: 0x38630, symSize: 0x10 }
  - { offset: 0x18575E, size: 0x8, addend: 0x0, symName: __ZNSt3__16vectorI21llama_grammar_elementNS_9allocatorIS1_EEE18__assign_with_sizeB8ne200100IPS1_S6_EEvT_T0_l, symObjAddr: 0xF970, symBinAddr: 0x38640, symSize: 0x140 }
  - { offset: 0x185769, size: 0x8, addend: 0x0, symName: __ZNSt3__128__exception_guard_exceptionsINS_6vectorINS1_I21llama_grammar_elementNS_9allocatorIS2_EEEENS3_IS5_EEE16__destroy_vectorEED1B8ne200100Ev, symObjAddr: 0xFB20, symBinAddr: 0x387F0, symSize: 0x70 }
  - { offset: 0x1859EE, size: 0x8, addend: 0x0, symName: __ZNSt3__16vectorINS0_I21llama_grammar_elementNS_9allocatorIS1_EEEENS2_IS4_EEED1B8ne200100Ev, symObjAddr: 0x7380, symBinAddr: 0x30330, symSize: 0x70 }
  - { offset: 0x186744, size: 0x8, addend: 0x0, symName: __Z23llama_grammar_init_implPK11llama_vocabPKcS3_bPS3_mPKim, symObjAddr: 0x73F0, symBinAddr: 0x303A0, symSize: 0xF60 }
  - { offset: 0x18A242, size: 0x8, addend: 0x0, symName: __ZNSt3__16__treeINS_12__value_typeINS_12basic_stringIcNS_11char_traitsIcEENS_9allocatorIcEEEEjEENS_19__map_value_compareIS7_S8_NS_4lessIS7_EELb1EEENS5_IS8_EEE4findIS7_EENS_15__tree_iteratorIS8_PNS_11__tree_nodeIS8_PvEElEERKT_, symObjAddr: 0xFB90, symBinAddr: 0x38860, symSize: 0x110 }
  - { offset: 0x18A5A6, size: 0x8, addend: 0x0, symName: __ZNSt3__16__treeINS_12__value_typeINS_12basic_stringIcNS_11char_traitsIcEENS_9allocatorIcEEEEjEENS_19__map_value_compareIS7_S8_NS_4lessIS7_EELb1EEENS5_IS8_EEE7destroyEPNS_11__tree_nodeIS8_PvEE, symObjAddr: 0xB410, symBinAddr: 0x34280, symSize: 0x50 }
  - { offset: 0x18A83D, size: 0x8, addend: 0x0, symName: __ZNSt3__13mapINS_12basic_stringIcNS_11char_traitsIcEENS_9allocatorIcEEEEjNS_4lessIS6_EENS4_INS_4pairIKS6_jEEEEE2atERSA_, symObjAddr: 0x8350, symBinAddr: 0x31300, symSize: 0x110 }
  - { offset: 0x18AB69, size: 0x8, addend: 0x0, symName: __ZNSt3__16vectorI29llama_grammar_trigger_patternNS_9allocatorIS1_EEE24__emplace_back_slow_pathIJEEEPS1_DpOT_, symObjAddr: 0xFCB0, symBinAddr: 0x38970, symSize: 0x1D0 }
  - { offset: 0x18B119, size: 0x8, addend: 0x0, symName: __ZNSt3__111basic_regexIcNS_12regex_traitsIcEEEC2B8ne200100INS_11char_traitsIcEENS_9allocatorIcEEEERKNS_12basic_stringIcT_T0_EENS_15regex_constants18syntax_option_typeE, symObjAddr: 0x10160, symBinAddr: 0x38E20, symSize: 0xD0 }
  - { offset: 0x18B320, size: 0x8, addend: 0x0, symName: __ZNSt3__16vectorI29llama_grammar_trigger_patternNS_9allocatorIS1_EEE24__emplace_back_slow_pathIJEEEPS1_DpOT_, symObjAddr: 0xFCB0, symBinAddr: 0x38970, symSize: 0x1D0 }
  - { offset: 0x18B32B, size: 0x8, addend: 0x0, symName: __ZN20llama_grammar_parserD1Ev, symObjAddr: 0x8560, symBinAddr: 0x31510, symSize: 0x80 }
  - { offset: 0x18B670, size: 0x8, addend: 0x0, symName: __ZNSt3__16vectorI29llama_grammar_trigger_patternNS_9allocatorIS1_EEED1B8ne200100Ev, symObjAddr: 0x84B0, symBinAddr: 0x31460, symSize: 0xB0 }
  - { offset: 0x18BBB8, size: 0x8, addend: 0x0, symName: __ZNSt3__111basic_regexIcNS_12regex_traitsIcEEED1Ev, symObjAddr: 0x8460, symBinAddr: 0x31410, symSize: 0x50 }
  - { offset: 0x18BEFF, size: 0x8, addend: 0x0, symName: __Z23llama_grammar_free_implP13llama_grammar, symObjAddr: 0x85E0, symBinAddr: 0x31590, symSize: 0x30 }
  - { offset: 0x18BF56, size: 0x8, addend: 0x0, symName: __ZN13llama_grammarD2Ev, symObjAddr: 0xB460, symBinAddr: 0x342D0, symSize: 0x180 }
  - { offset: 0x18D481, size: 0x8, addend: 0x0, symName: __Z24llama_grammar_clone_implRK13llama_grammar, symObjAddr: 0x8610, symBinAddr: 0x315C0, symSize: 0x5E0 }
  - { offset: 0x18E64F, size: 0x8, addend: 0x0, symName: __ZNSt3__16vectorINS_4pairIiNS1_ImmEEEENS_9allocatorIS3_EEE20__throw_length_errorB8ne200100Ev, symObjAddr: 0x180C0, symBinAddr: 0x40C80, symSize: 0x10 }
  - { offset: 0x18E667, size: 0x8, addend: 0x0, symName: __ZNSt3__130__uninitialized_allocator_copyB8ne200100INS_9allocatorI29llama_grammar_trigger_patternEEPS2_S4_S4_EET2_RT_T0_T1_S5_, symObjAddr: 0x180D0, symBinAddr: 0x40C90, symSize: 0x110 }
  - { offset: 0x18E672, size: 0x8, addend: 0x0, symName: __ZNSt3__16vectorI29llama_grammar_trigger_patternNS_9allocatorIS1_EEE20__throw_length_errorB8ne200100Ev, symObjAddr: 0xFFA0, symBinAddr: 0x38C60, symSize: 0x10 }
  - { offset: 0x18E68A, size: 0x8, addend: 0x0, symName: __ZNSt3__134__uninitialized_allocator_relocateB8ne200100INS_9allocatorI29llama_grammar_trigger_patternEEPS2_EEvRT_T0_S7_S7_, symObjAddr: 0xFFB0, symBinAddr: 0x38C70, symSize: 0x120 }
  - { offset: 0x18E695, size: 0x8, addend: 0x0, symName: __ZNSt3__128__exception_guard_exceptionsINS_6vectorI29llama_grammar_trigger_patternNS_9allocatorIS2_EEE16__destroy_vectorEED2B8ne200100Ev, symObjAddr: 0x181E0, symBinAddr: 0x40DA0, symSize: 0xC0 }
  - { offset: 0x18EA1E, size: 0x8, addend: 0x0, symName: __ZNSt3__128__exception_guard_exceptionsINS_6vectorINS1_IPK21llama_grammar_elementNS_9allocatorIS4_EEEENS5_IS7_EEE16__destroy_vectorEED1B8ne200100Ev, symObjAddr: 0x17F00, symBinAddr: 0x40AC0, symSize: 0x70 }
  - { offset: 0x18F3CB, size: 0x8, addend: 0x0, symName: __Z24llama_grammar_apply_implRK13llama_grammarP22llama_token_data_array, symObjAddr: 0x8BF0, symBinAddr: 0x31BA0, symSize: 0x610 }
  - { offset: 0x190AB4, size: 0x8, addend: 0x0, symName: __ZNSt3__16vectorINS_4pairINS0_IjNS_9allocatorIjEEEE18llama_partial_utf8EENS2_IS6_EEE20__throw_length_errorB8ne200100Ev, symObjAddr: 0x182A0, symBinAddr: 0x40E60, symSize: 0x10 }
  - { offset: 0x190ACC, size: 0x8, addend: 0x0, symName: __ZNSt3__16vectorINS0_IPK21llama_grammar_elementNS_9allocatorIS3_EEEENS4_IS6_EEE24__emplace_back_slow_pathIJRS6_EEEPS6_DpOT_, symObjAddr: 0x182B0, symBinAddr: 0x40E70, symSize: 0x19F }
  - { offset: 0x190AD7, size: 0x8, addend: 0x0, symName: __ZNSt3__16vectorINS_4pairINS0_IjNS_9allocatorIjEEEE18llama_partial_utf8EENS2_IS6_EEED1B8ne200100Ev, symObjAddr: 0x97E0, symBinAddr: 0x32790, symSize: 0x70 }
  - { offset: 0x191578, size: 0x8, addend: 0x0, symName: __Z25llama_grammar_accept_implR13llama_grammari, symObjAddr: 0x9850, symBinAddr: 0x32800, symSize: 0x4E0 }
  - { offset: 0x192923, size: 0x8, addend: 0x0, symName: __Z26llama_grammar_accept_tokenR13llama_grammariRKNSt3__112basic_stringIcNS1_11char_traitsIcEENS1_9allocatorIcEEEE, symObjAddr: 0x9D30, symBinAddr: 0x32CE0, symSize: 0x910 }
  - { offset: 0x195701, size: 0x8, addend: 0x0, symName: __ZNSt3__16vectorINS_4pairIiNS1_ImmEEEENS_9allocatorIS3_EEE9push_backB8ne200100EOS3_, symObjAddr: 0xA640, symBinAddr: 0x335F0, symSize: 0x140 }
  - { offset: 0x195B17, size: 0x8, addend: 0x0, symName: __ZNSt3__14pairINS_12basic_stringIcNS_11char_traitsIcEENS_9allocatorIcEEEES6_ED1Ev, symObjAddr: 0x142C0, symBinAddr: 0x3CF00, symSize: 0x40 }
  - { offset: 0x195E2F, size: 0x8, addend: 0x0, symName: __ZNSt3__16vectorINS0_IPK21llama_grammar_elementNS_9allocatorIS3_EEEENS4_IS6_EEE24__emplace_back_slow_pathIJRS6_EEEPS6_DpOT_, symObjAddr: 0x182B0, symBinAddr: 0x40E70, symSize: 0x19F }
  - { offset: 0x196613, size: 0x8, addend: 0x0, symName: __ZNSt3__128__exception_guard_exceptionsINS_29_AllocatorDestroyRangeReverseINS_9allocatorINS_6vectorIPK21llama_grammar_elementNS2_IS6_EEEEEEPS8_EEED1B8ne200100Ev, symObjAddr: 0x18070, symBinAddr: 0x40C30, symSize: 0x50 }
  - { offset: 0x196640, size: 0x8, addend: 0x0, symName: __ZNSt3__128__exception_guard_exceptionsINS_29_AllocatorDestroyRangeReverseINS_9allocatorINS_6vectorIPK21llama_grammar_elementNS2_IS6_EEEEEEPS8_EEED1B8ne200100Ev, symObjAddr: 0x18070, symBinAddr: 0x40C30, symSize: 0x50 }
  - { offset: 0x196AE7, size: 0x8, addend: 0x0, symName: __Z24llama_grammar_accept_strR13llama_grammarRKNSt3__112basic_stringIcNS1_11char_traitsIcEENS1_9allocatorIcEEEE, symObjAddr: 0xA780, symBinAddr: 0x33730, symSize: 0x130 }
  - { offset: 0x1973C4, size: 0x8, addend: 0x0, symName: __ZNSt3__114__split_bufferINS_6vectorIPK21llama_grammar_elementNS_9allocatorIS4_EEEERNS5_IS7_EEED1Ev, symObjAddr: 0xB360, symBinAddr: 0x341D0, symSize: 0x60 }
  - { offset: 0x197667, size: 0x8, addend: 0x0, symName: __ZNSt3__110shared_ptrINS_13__empty_stateIcEEED1B8ne200100Ev, symObjAddr: 0xB3D0, symBinAddr: 0x34240, symSize: 0x40 }
  - { offset: 0x1979E9, size: 0x8, addend: 0x0, symName: __ZNSt3__16vectorINS_9sub_matchIPKcEENS_9allocatorIS4_EEE6assignEmRKS4_, symObjAddr: 0xBAB0, symBinAddr: 0x34900, symSize: 0x220 }
  - { offset: 0x19803F, size: 0x8, addend: 0x0, symName: __ZNKSt3__111basic_regexIcNS_12regex_traitsIcEEE27__match_at_start_posix_subsINS_9allocatorINS_9sub_matchIPKcEEEEEEbS8_S8_RNS_13match_resultsIS8_T_EENS_15regex_constants15match_flag_typeEb, symObjAddr: 0xCC00, symBinAddr: 0x35A50, symSize: 0x6F0 }
  - { offset: 0x199D1F, size: 0x8, addend: 0x0, symName: __ZNKSt3__111basic_regexIcNS_12regex_traitsIcEEE21__match_at_start_ecmaINS_9allocatorINS_9sub_matchIPKcEEEEEEbS8_S8_RNS_13match_resultsIS8_T_EENS_15regex_constants15match_flag_typeEb, symObjAddr: 0xBCD0, symBinAddr: 0x34B20, symSize: 0x4F0 }
  - { offset: 0x19AE82, size: 0x8, addend: 0x0, symName: __ZNKSt3__111basic_regexIcNS_12regex_traitsIcEEE29__match_at_start_posix_nosubsINS_9allocatorINS_9sub_matchIPKcEEEEEEbS8_S8_RNS_13match_resultsIS8_T_EENS_15regex_constants15match_flag_typeEb, symObjAddr: 0xC1C0, symBinAddr: 0x35010, symSize: 0xA40 }
  - { offset: 0x19CDEF, size: 0x8, addend: 0x0, symName: __ZNSt3__16vectorINS_9sub_matchINS_11__wrap_iterIPKcEEEENS_9allocatorIS6_EEE8__appendEm, symObjAddr: 0xF170, symBinAddr: 0x37FC0, symSize: 0x1A0 }
  - { offset: 0x19D63A, size: 0x8, addend: 0x0, symName: __ZNSt3__16vectorINS_9sub_matchIPKcEENS_9allocatorIS4_EEE20__throw_length_errorB8ne200100Ev, symObjAddr: 0xD9E0, symBinAddr: 0x36830, symSize: 0x10 }
  - { offset: 0x19D652, size: 0x8, addend: 0x0, symName: __ZNSt3__16vectorINS_4pairImPKcEENS_9allocatorIS4_EEE8__appendEm, symObjAddr: 0xD9F0, symBinAddr: 0x36840, symSize: 0x140 }
  - { offset: 0x19DD3B, size: 0x8, addend: 0x0, symName: __ZNSt3__16vectorINS_7__stateIcEENS_9allocatorIS2_EEE24__emplace_back_slow_pathIJS2_EEEPS2_DpOT_, symObjAddr: 0xD450, symBinAddr: 0x362A0, symSize: 0x1D0 }
  - { offset: 0x19E3F7, size: 0x8, addend: 0x0, symName: __ZNSt3__16vectorINS_9sub_matchIPKcEENS_9allocatorIS4_EEE8__appendEmRKS4_, symObjAddr: 0xD820, symBinAddr: 0x36670, symSize: 0x1C0 }
  - { offset: 0x19E932, size: 0x8, addend: 0x0, symName: __ZNSt3__16vectorINS_4pairImPKcEENS_9allocatorIS4_EEE8__appendEm, symObjAddr: 0xD9F0, symBinAddr: 0x36840, symSize: 0x140 }
  - { offset: 0x19EDAC, size: 0x8, addend: 0x0, symName: __ZNSt3__17__stateIcEC2ERKS1_, symObjAddr: 0xDB40, symBinAddr: 0x36990, symSize: 0x1A0 }
  - { offset: 0x19F404, size: 0x8, addend: 0x0, symName: __ZNSt3__17__stateIcED1Ev, symObjAddr: 0xD2F0, symBinAddr: 0x36140, symSize: 0x40 }
  - { offset: 0x19F67B, size: 0x8, addend: 0x0, symName: __ZNSt3__16vectorINS_7__stateIcEENS_9allocatorIS2_EEED1B8ne200100Ev, symObjAddr: 0xD3D0, symBinAddr: 0x36220, symSize: 0x80 }
  - { offset: 0x19FEE2, size: 0x8, addend: 0x0, symName: __ZNSt3__15dequeINS_7__stateIcEENS_9allocatorIS2_EEE19__add_back_capacityEv, symObjAddr: 0xDEA0, symBinAddr: 0x36CF0, symSize: 0x3F0 }
  - { offset: 0x1A0C49, size: 0x8, addend: 0x0, symName: __ZNSt3__15dequeINS_7__stateIcEENS_9allocatorIS2_EEE20__add_front_capacityEv, symObjAddr: 0xE800, symBinAddr: 0x37650, symSize: 0x400 }
  - { offset: 0x1A1A3F, size: 0x8, addend: 0x0, symName: __ZNSt3__15dequeINS_7__stateIcEENS_9allocatorIS2_EEED1B8ne200100Ev, symObjAddr: 0xDE30, symBinAddr: 0x36C80, symSize: 0x70 }
  - { offset: 0x1A1D7C, size: 0x8, addend: 0x0, symName: __ZNSt3__16vectorINS_9sub_matchIPKcEENS_9allocatorIS4_EEE18__assign_with_sizeB8ne200100IPS4_S9_EEvT_T0_l, symObjAddr: 0xEDD0, symBinAddr: 0x37C20, symSize: 0x1F0 }
  - { offset: 0x1A25D3, size: 0x8, addend: 0x0, symName: __ZNSt3__16vectorINS_4pairImPKcEENS_9allocatorIS4_EEE18__assign_with_sizeB8ne200100IPS4_S9_EEvT_T0_l, symObjAddr: 0xEFC0, symBinAddr: 0x37E10, symSize: 0x1B0 }
  - { offset: 0x1A2F2C, size: 0x8, addend: 0x0, symName: __ZNSt3__16vectorINS_7__stateIcEENS_9allocatorIS2_EEE26__swap_out_circular_bufferERNS_14__split_bufferIS2_RS4_EE, symObjAddr: 0xD620, symBinAddr: 0x36470, symSize: 0x170 }
  - { offset: 0x1A34B6, size: 0x8, addend: 0x0, symName: __ZNSt3__16vectorINS_7__stateIcEENS_9allocatorIS2_EEE20__throw_length_errorB8ne200100Ev, symObjAddr: 0xD810, symBinAddr: 0x36660, symSize: 0x10 }
  - { offset: 0x1A34CE, size: 0x8, addend: 0x0, symName: __ZNSt3__16vectorINS_9sub_matchIPKcEENS_9allocatorIS4_EEE8__appendEmRKS4_, symObjAddr: 0xD820, symBinAddr: 0x36670, symSize: 0x1C0 }
  - { offset: 0x1A34D9, size: 0x8, addend: 0x0, symName: __ZNSt3__114__split_bufferINS_7__stateIcEERNS_9allocatorIS2_EEED1Ev, symObjAddr: 0xD790, symBinAddr: 0x365E0, symSize: 0x80 }
  - { offset: 0x1A3D9F, size: 0x8, addend: 0x0, symName: __ZNSt3__16vectorINS_4pairImPKcEENS_9allocatorIS4_EEE20__throw_length_errorB8ne200100Ev, symObjAddr: 0xDB30, symBinAddr: 0x36980, symSize: 0x10 }
  - { offset: 0x1A3DB7, size: 0x8, addend: 0x0, symName: __ZNSt3__17__stateIcEC2ERKS1_, symObjAddr: 0xDB40, symBinAddr: 0x36990, symSize: 0x1A0 }
  - { offset: 0x1A41BA, size: 0x8, addend: 0x0, symName: __ZNSt3__15dequeINS_7__stateIcEENS_9allocatorIS2_EEE5clearEv, symObjAddr: 0xDCE0, symBinAddr: 0x36B30, symSize: 0x150 }
  - { offset: 0x1A4B95, size: 0x8, addend: 0x0, symName: __ZNSt3__114__split_bufferIPNS_7__stateIcEENS_9allocatorIS3_EEE12emplace_backIJRS3_EEEvDpOT_, symObjAddr: 0xE290, symBinAddr: 0x370E0, symSize: 0x1D0 }
  - { offset: 0x1A502C, size: 0x8, addend: 0x0, symName: __ZNSt3__114__split_bufferIPNS_7__stateIcEENS_9allocatorIS3_EEE12emplace_backIJS3_EEEvDpOT_, symObjAddr: 0xE460, symBinAddr: 0x372B0, symSize: 0x1D0 }
  - { offset: 0x1A54C3, size: 0x8, addend: 0x0, symName: __ZNSt3__114__split_bufferIPNS_7__stateIcEENS_9allocatorIS3_EEE13emplace_frontIJS3_EEEvDpOT_, symObjAddr: 0xE630, symBinAddr: 0x37480, symSize: 0x1D0 }
  - { offset: 0x1A5A0F, size: 0x8, addend: 0x0, symName: __ZNSt3__114__split_bufferIPNS_7__stateIcEENS_9allocatorIS3_EEE13emplace_frontIJRS3_EEEvDpOT_, symObjAddr: 0xEC00, symBinAddr: 0x37A50, symSize: 0x1D0 }
  - { offset: 0x1A630F, size: 0x8, addend: 0x0, symName: __ZNSt3__16vectorINS_9sub_matchINS_11__wrap_iterIPKcEEEENS_9allocatorIS6_EEE20__throw_length_errorB8ne200100Ev, symObjAddr: 0xF310, symBinAddr: 0x38160, symSize: 0x10 }
  - { offset: 0x1A6327, size: 0x8, addend: 0x0, symName: __ZNSt3__16__treeINS_12__value_typeINS_12basic_stringIcNS_11char_traitsIcEENS_9allocatorIcEEEEjEENS_19__map_value_compareIS7_S8_NS_4lessIS7_EELb1EEENS5_IS8_EEE25__emplace_unique_key_argsIS7_JS7_RjEEENS_4pairINS_15__tree_iteratorIS8_PNS_11__tree_nodeIS8_PvEElEEbEERKT_DpOT0_, symObjAddr: 0xF320, symBinAddr: 0x38170, symSize: 0x190 }
  - { offset: 0x1A6BF6, size: 0x8, addend: 0x0, symName: __ZNSt3__114__split_bufferI29llama_grammar_trigger_patternRNS_9allocatorIS1_EEED1Ev, symObjAddr: 0xFEE0, symBinAddr: 0x38BA0, symSize: 0xC0 }
  - { offset: 0x1A6F14, size: 0x8, addend: 0x0, symName: __ZNSt3__111basic_regexIcNS_12regex_traitsIcEEEC1B8ne200100Ev, symObjAddr: 0xFE80, symBinAddr: 0x38B40, symSize: 0x60 }
  - { offset: 0x1A71CB, size: 0x8, addend: 0x0, symName: __ZNSt3__128__exception_guard_exceptionsINS_29_AllocatorDestroyRangeReverseINS_9allocatorI29llama_grammar_trigger_patternEEPS3_EEED1B8ne200100Ev, symObjAddr: 0x100D0, symBinAddr: 0x38D90, symSize: 0x90 }
  - { offset: 0x1A74EC, size: 0x8, addend: 0x0, symName: __ZNSt3__111basic_regexIcNS_12regex_traitsIcEEE7__parseINS_11__wrap_iterIPKcEEEET_S9_S9_, symObjAddr: 0x10230, symBinAddr: 0x38EF0, symSize: 0x1D0 }
  - { offset: 0x1A7EA4, size: 0x8, addend: 0x0, symName: __ZNSt3__111basic_regexIcNS_12regex_traitsIcEEE13__parse_egrepINS_11__wrap_iterIPKcEEEET_S9_S9_, symObjAddr: 0x10B60, symBinAddr: 0x39820, symSize: 0x1E0 }
  - { offset: 0x1A8502, size: 0x8, addend: 0x0, symName: __ZNSt3__111basic_regexIcNS_12regex_traitsIcEEE24__parse_extended_reg_expINS_11__wrap_iterIPKcEEEET_S9_S9_, symObjAddr: 0x107F0, symBinAddr: 0x394B0, symSize: 0x190 }
  - { offset: 0x1A895A, size: 0x8, addend: 0x0, symName: __ZNSt3__111basic_regexIcNS_12regex_traitsIcEEE21__parse_basic_reg_expINS_11__wrap_iterIPKcEEEET_S9_S9_, symObjAddr: 0x106B0, symBinAddr: 0x39370, symSize: 0x140 }
  - { offset: 0x1A8DAC, size: 0x8, addend: 0x0, symName: __ZNSt3__111basic_regexIcNS_12regex_traitsIcEEE12__parse_grepINS_11__wrap_iterIPKcEEEET_S9_S9_, symObjAddr: 0x10980, symBinAddr: 0x39640, symSize: 0x1E0 }
  - { offset: 0x1A940A, size: 0x8, addend: 0x0, symName: __ZNSt3__111basic_regexIcNS_12regex_traitsIcEEE16__parse_ecma_expINS_11__wrap_iterIPKcEEEET_S9_S9_, symObjAddr: 0x10450, symBinAddr: 0x39110, symSize: 0x260 }
  - { offset: 0x1A9D26, size: 0x8, addend: 0x0, symName: __ZNSt3__111basic_regexIcNS_12regex_traitsIcEEE17__parse_assertionINS_11__wrap_iterIPKcEEEET_S9_S9_, symObjAddr: 0x10F60, symBinAddr: 0x39C20, symSize: 0x2D0 }
  - { offset: 0x1AA46E, size: 0x8, addend: 0x0, symName: __ZNSt3__111basic_regexIcNS_12regex_traitsIcEEE12__parse_atomINS_11__wrap_iterIPKcEEEET_S9_S9_, symObjAddr: 0x11230, symBinAddr: 0x39EF0, symSize: 0x2A0 }
  - { offset: 0x1AA8EB, size: 0x8, addend: 0x0, symName: __ZNSt3__111basic_regexIcNS_12regex_traitsIcEEE23__parse_ERE_dupl_symbolINS_11__wrap_iterIPKcEEEET_S9_S9_PNS_16__owns_one_stateIcEEjj, symObjAddr: 0x114D0, symBinAddr: 0x3A190, symSize: 0x3F0 }
  - { offset: 0x1AB21E, size: 0x8, addend: 0x0, symName: __ZNSt3__111basic_regexIcNS_12regex_traitsIcEEE18__parse_nondupl_REINS_11__wrap_iterIPKcEEEET_S9_S9_, symObjAddr: 0x17100, symBinAddr: 0x3FD40, symSize: 0x2D0 }
  - { offset: 0x1ABAB7, size: 0x8, addend: 0x0, symName: __ZNSt3__111basic_regexIcNS_12regex_traitsIcEEE22__parse_RE_dupl_symbolINS_11__wrap_iterIPKcEEEET_S9_S9_PNS_16__owns_one_stateIcEEjj, symObjAddr: 0x173D0, symBinAddr: 0x40010, symSize: 0x260 }
  - { offset: 0x1AC2C6, size: 0x8, addend: 0x0, symName: __ZNSt3__111basic_regexIcNS_12regex_traitsIcEEE22__parse_ERE_expressionINS_11__wrap_iterIPKcEEEET_S9_S9_, symObjAddr: 0x17730, symBinAddr: 0x40370, symSize: 0x240 }
  - { offset: 0x1AC852, size: 0x8, addend: 0x0, symName: __ZNSt3__111__end_stateIcED1Ev, symObjAddr: 0x10D90, symBinAddr: 0x39A50, symSize: 0x10 }
  - { offset: 0x1AC87E, size: 0x8, addend: 0x0, symName: __ZNSt3__111__end_stateIcED0Ev, symObjAddr: 0x10DA0, symBinAddr: 0x39A60, symSize: 0x10 }
  - { offset: 0x1AC89E, size: 0x8, addend: 0x0, symName: __ZNKSt3__111__end_stateIcE6__execERNS_7__stateIcEE, symObjAddr: 0x10DB0, symBinAddr: 0x39A70, symSize: 0x10 }
  - { offset: 0x1AC8D2, size: 0x8, addend: 0x0, symName: __ZNKSt3__16__nodeIcE12__exec_splitEbRNS_7__stateIcEE, symObjAddr: 0x10DC0, symBinAddr: 0x39A80, symSize: 0x10 }
  - { offset: 0x1AC919, size: 0x8, addend: 0x0, symName: __ZNKSt3__16__nodeIcE6__execERNS_7__stateIcEE, symObjAddr: 0x10DD0, symBinAddr: 0x39A90, symSize: 0x10 }
  - { offset: 0x1AC965, size: 0x8, addend: 0x0, symName: __ZNSt3__120__shared_ptr_pointerIPNS_13__empty_stateIcEENS_10shared_ptrIS2_E27__shared_ptr_default_deleteIS2_S2_EENS_9allocatorIS2_EEED1Ev, symObjAddr: 0x10DE0, symBinAddr: 0x39AA0, symSize: 0x10 }
  - { offset: 0x1AC9BD, size: 0x8, addend: 0x0, symName: __ZNSt3__120__shared_ptr_pointerIPNS_13__empty_stateIcEENS_10shared_ptrIS2_E27__shared_ptr_default_deleteIS2_S2_EENS_9allocatorIS2_EEED0Ev, symObjAddr: 0x10DF0, symBinAddr: 0x39AB0, symSize: 0x20 }
  - { offset: 0x1ACA22, size: 0x8, addend: 0x0, symName: __ZNSt3__120__shared_ptr_pointerIPNS_13__empty_stateIcEENS_10shared_ptrIS2_E27__shared_ptr_default_deleteIS2_S2_EENS_9allocatorIS2_EEE16__on_zero_sharedEv, symObjAddr: 0x10E10, symBinAddr: 0x39AD0, symSize: 0x20 }
  - { offset: 0x1ACAB7, size: 0x8, addend: 0x0, symName: __ZNKSt3__120__shared_ptr_pointerIPNS_13__empty_stateIcEENS_10shared_ptrIS2_E27__shared_ptr_default_deleteIS2_S2_EENS_9allocatorIS2_EEE13__get_deleterERKSt9type_info, symObjAddr: 0x10E30, symBinAddr: 0x39AF0, symSize: 0x20 }
  - { offset: 0x1ACB84, size: 0x8, addend: 0x0, symName: __ZNSt3__120__shared_ptr_pointerIPNS_13__empty_stateIcEENS_10shared_ptrIS2_E27__shared_ptr_default_deleteIS2_S2_EENS_9allocatorIS2_EEE21__on_zero_shared_weakEv, symObjAddr: 0x10E50, symBinAddr: 0x39B10, symSize: 0x10 }
  - { offset: 0x1ACC33, size: 0x8, addend: 0x0, symName: __ZNSt3__113__empty_stateIcED1Ev, symObjAddr: 0x10E60, symBinAddr: 0x39B20, symSize: 0x30 }
  - { offset: 0x1ACC9F, size: 0x8, addend: 0x0, symName: __ZNSt3__113__empty_stateIcED0Ev, symObjAddr: 0x10E90, symBinAddr: 0x39B50, symSize: 0x40 }
  - { offset: 0x1ACCC3, size: 0x8, addend: 0x0, symName: __ZNSt3__113__empty_stateIcED0Ev, symObjAddr: 0x10E90, symBinAddr: 0x39B50, symSize: 0x40 }
  - { offset: 0x1ACCE1, size: 0x8, addend: 0x0, symName: __ZNSt3__113__empty_stateIcED0Ev, symObjAddr: 0x10E90, symBinAddr: 0x39B50, symSize: 0x40 }
  - { offset: 0x1ACCFF, size: 0x8, addend: 0x0, symName: __ZNSt3__113__empty_stateIcED0Ev, symObjAddr: 0x10E90, symBinAddr: 0x39B50, symSize: 0x40 }
  - { offset: 0x1ACD46, size: 0x8, addend: 0x0, symName: __ZNKSt3__113__empty_stateIcE6__execERNS_7__stateIcEE, symObjAddr: 0x10ED0, symBinAddr: 0x39B90, symSize: 0x20 }
  - { offset: 0x1ACD99, size: 0x8, addend: 0x0, symName: __ZNSt3__116__owns_one_stateIcED1Ev, symObjAddr: 0x10EF0, symBinAddr: 0x39BB0, symSize: 0x30 }
  - { offset: 0x1ACE02, size: 0x8, addend: 0x0, symName: __ZNSt3__116__owns_one_stateIcED0Ev, symObjAddr: 0x10F20, symBinAddr: 0x39BE0, symSize: 0x40 }
  - { offset: 0x1ACE31, size: 0x8, addend: 0x0, symName: __ZNSt3__116__owns_one_stateIcED0Ev, symObjAddr: 0x10F20, symBinAddr: 0x39BE0, symSize: 0x40 }
  - { offset: 0x1ACE4F, size: 0x8, addend: 0x0, symName: __ZNSt3__116__owns_one_stateIcED0Ev, symObjAddr: 0x10F20, symBinAddr: 0x39BE0, symSize: 0x40 }
  - { offset: 0x1ACF7A, size: 0x8, addend: 0x0, symName: __ZNSt3__111basic_regexIcNS_12regex_traitsIcEEE16__push_lookaheadERKS3_bj, symObjAddr: 0x118C0, symBinAddr: 0x3A580, symSize: 0xB0 }
  - { offset: 0x1AD36E, size: 0x8, addend: 0x0, symName: __ZNSt3__111basic_regexIcNS_12regex_traitsIcEEE19__parse_atom_escapeINS_11__wrap_iterIPKcEEEET_S9_S9_, symObjAddr: 0x11FC0, symBinAddr: 0x3AC80, symSize: 0x100 }
  - { offset: 0x1AD611, size: 0x8, addend: 0x0, symName: __ZNSt3__111basic_regexIcNS_12regex_traitsIcEEE26__parse_bracket_expressionINS_11__wrap_iterIPKcEEEET_S9_S9_, symObjAddr: 0x120C0, symBinAddr: 0x3AD80, symSize: 0x150 }
  - { offset: 0x1AD920, size: 0x8, addend: 0x0, symName: __ZNSt3__111basic_regexIcNS_12regex_traitsIcEEE25__parse_pattern_characterINS_11__wrap_iterIPKcEEEET_S9_S9_, symObjAddr: 0x12260, symBinAddr: 0x3AF20, symSize: 0x1B0 }
  - { offset: 0x1ADB1F, size: 0x8, addend: 0x0, symName: __ZNSt3__111basic_regexIcNS_12regex_traitsIcEEE11__push_loopEmmPNS_16__owns_one_stateIcEEmmb, symObjAddr: 0x168B0, symBinAddr: 0x3F4F0, symSize: 0x150 }
  - { offset: 0x1AE108, size: 0x8, addend: 0x0, symName: __ZNSt3__120__l_anchor_multilineIcED1Ev, symObjAddr: 0x119C0, symBinAddr: 0x3A680, symSize: 0x30 }
  - { offset: 0x1AE191, size: 0x8, addend: 0x0, symName: __ZNSt3__120__l_anchor_multilineIcED0Ev, symObjAddr: 0x119F0, symBinAddr: 0x3A6B0, symSize: 0x40 }
  - { offset: 0x1AE1C1, size: 0x8, addend: 0x0, symName: __ZNSt3__120__l_anchor_multilineIcED0Ev, symObjAddr: 0x119F0, symBinAddr: 0x3A6B0, symSize: 0x40 }
  - { offset: 0x1AE1DF, size: 0x8, addend: 0x0, symName: __ZNSt3__120__l_anchor_multilineIcED0Ev, symObjAddr: 0x119F0, symBinAddr: 0x3A6B0, symSize: 0x40 }
  - { offset: 0x1AE1FD, size: 0x8, addend: 0x0, symName: __ZNSt3__120__l_anchor_multilineIcED0Ev, symObjAddr: 0x119F0, symBinAddr: 0x3A6B0, symSize: 0x40 }
  - { offset: 0x1AE228, size: 0x8, addend: 0x0, symName: __ZNKSt3__120__l_anchor_multilineIcE6__execERNS_7__stateIcEE, symObjAddr: 0x11A30, symBinAddr: 0x3A6F0, symSize: 0x60 }
  - { offset: 0x1AE28D, size: 0x8, addend: 0x0, symName: __ZNSt3__120__r_anchor_multilineIcED1Ev, symObjAddr: 0x11A90, symBinAddr: 0x3A750, symSize: 0x30 }
  - { offset: 0x1AE316, size: 0x8, addend: 0x0, symName: __ZNSt3__120__r_anchor_multilineIcED0Ev, symObjAddr: 0x11AC0, symBinAddr: 0x3A780, symSize: 0x40 }
  - { offset: 0x1AE346, size: 0x8, addend: 0x0, symName: __ZNSt3__120__r_anchor_multilineIcED0Ev, symObjAddr: 0x11AC0, symBinAddr: 0x3A780, symSize: 0x40 }
  - { offset: 0x1AE364, size: 0x8, addend: 0x0, symName: __ZNSt3__120__r_anchor_multilineIcED0Ev, symObjAddr: 0x11AC0, symBinAddr: 0x3A780, symSize: 0x40 }
  - { offset: 0x1AE382, size: 0x8, addend: 0x0, symName: __ZNSt3__120__r_anchor_multilineIcED0Ev, symObjAddr: 0x11AC0, symBinAddr: 0x3A780, symSize: 0x40 }
  - { offset: 0x1AE3AD, size: 0x8, addend: 0x0, symName: __ZNKSt3__120__r_anchor_multilineIcE6__execERNS_7__stateIcEE, symObjAddr: 0x11B00, symBinAddr: 0x3A7C0, symSize: 0x60 }
  - { offset: 0x1AE438, size: 0x8, addend: 0x0, symName: __ZNSt3__115__word_boundaryIcNS_12regex_traitsIcEEED1Ev, symObjAddr: 0x11B60, symBinAddr: 0x3A820, symSize: 0x50 }
  - { offset: 0x1AE4FB, size: 0x8, addend: 0x0, symName: __ZNSt3__115__word_boundaryIcNS_12regex_traitsIcEEED0Ev, symObjAddr: 0x11BB0, symBinAddr: 0x3A870, symSize: 0x50 }
  - { offset: 0x1AE624, size: 0x8, addend: 0x0, symName: __ZNKSt3__115__word_boundaryIcNS_12regex_traitsIcEEE6__execERNS_7__stateIcEE, symObjAddr: 0x11C00, symBinAddr: 0x3A8C0, symSize: 0x100 }
  - { offset: 0x1AE804, size: 0x8, addend: 0x0, symName: __ZNSt3__111__lookaheadIcNS_12regex_traitsIcEEED1Ev, symObjAddr: 0x11D00, symBinAddr: 0x3A9C0, symSize: 0x90 }
  - { offset: 0x1AE9AD, size: 0x8, addend: 0x0, symName: __ZNSt3__111__lookaheadIcNS_12regex_traitsIcEEED0Ev, symObjAddr: 0x11D90, symBinAddr: 0x3AA50, symSize: 0x90 }
  - { offset: 0x1AEB5E, size: 0x8, addend: 0x0, symName: __ZNKSt3__111__lookaheadIcNS_12regex_traitsIcEEE6__execERNS_7__stateIcEE, symObjAddr: 0x11E20, symBinAddr: 0x3AAE0, symSize: 0x1A0 }
  - { offset: 0x1AF116, size: 0x8, addend: 0x0, symName: __ZNSt3__111basic_regexIcNS_12regex_traitsIcEEE11__push_charEc, symObjAddr: 0x12BE0, symBinAddr: 0x3B8A0, symSize: 0x130 }
  - { offset: 0x1AF4B5, size: 0x8, addend: 0x0, symName: __ZNSt3__111basic_regexIcNS_12regex_traitsIcEEE15__push_back_refEi, symObjAddr: 0x12D60, symBinAddr: 0x3BA20, symSize: 0xD0 }
  - { offset: 0x1AF709, size: 0x8, addend: 0x0, symName: __ZNSt3__111basic_regexIcNS_12regex_traitsIcEEE30__parse_character_class_escapeINS_11__wrap_iterIPKcEEEET_S9_S9_, symObjAddr: 0x124D0, symBinAddr: 0x3B190, symSize: 0x2E0 }
  - { offset: 0x1AFCAC, size: 0x8, addend: 0x0, symName: __ZNSt3__111basic_regexIcNS_12regex_traitsIcEEE24__parse_character_escapeINS_11__wrap_iterIPKcEEEET_S9_S9_PNS_12basic_stringIcNS_11char_traitsIcEENS_9allocatorIcEEEE, symObjAddr: 0x127B0, symBinAddr: 0x3B470, symSize: 0x430 }
  - { offset: 0x1B0301, size: 0x8, addend: 0x0, symName: __ZNSt3__120__bracket_expressionIcNS_12regex_traitsIcEEEC2B8ne200100ERKS2_PNS_6__nodeIcEEbbb, symObjAddr: 0x135D0, symBinAddr: 0x3C290, symSize: 0x1A0 }
  - { offset: 0x1B0A1F, size: 0x8, addend: 0x0, symName: __ZNSt3__120__bracket_expressionIcNS_12regex_traitsIcEEE10__add_charB8ne200100Ec, symObjAddr: 0x13450, symBinAddr: 0x3C110, symSize: 0x180 }
  - { offset: 0x1B0D8F, size: 0x8, addend: 0x0, symName: __ZNSt3__111basic_regexIcNS_12regex_traitsIcEEE23__parse_expression_termINS_11__wrap_iterIPKcEEEET_S9_S9_PNS_20__bracket_expressionIcS2_EE, symObjAddr: 0x14940, symBinAddr: 0x3D580, symSize: 0x420 }
  - { offset: 0x1B1BD7, size: 0x8, addend: 0x0, symName: __ZNSt3__123__match_any_but_newlineIcED1Ev, symObjAddr: 0x12410, symBinAddr: 0x3B0D0, symSize: 0x30 }
  - { offset: 0x1B1C60, size: 0x8, addend: 0x0, symName: __ZNSt3__123__match_any_but_newlineIcED0Ev, symObjAddr: 0x12440, symBinAddr: 0x3B100, symSize: 0x40 }
  - { offset: 0x1B1C90, size: 0x8, addend: 0x0, symName: __ZNSt3__123__match_any_but_newlineIcED0Ev, symObjAddr: 0x12440, symBinAddr: 0x3B100, symSize: 0x40 }
  - { offset: 0x1B1CAE, size: 0x8, addend: 0x0, symName: __ZNSt3__123__match_any_but_newlineIcED0Ev, symObjAddr: 0x12440, symBinAddr: 0x3B100, symSize: 0x40 }
  - { offset: 0x1B1CCC, size: 0x8, addend: 0x0, symName: __ZNSt3__123__match_any_but_newlineIcED0Ev, symObjAddr: 0x12440, symBinAddr: 0x3B100, symSize: 0x40 }
  - { offset: 0x1B211C, size: 0x8, addend: 0x0, symName: __ZNSt3__118__match_char_icaseIcNS_12regex_traitsIcEEED1Ev, symObjAddr: 0x12E30, symBinAddr: 0x3BAF0, symSize: 0x50 }
  - { offset: 0x1B21DF, size: 0x8, addend: 0x0, symName: __ZNSt3__118__match_char_icaseIcNS_12regex_traitsIcEEED0Ev, symObjAddr: 0x12E80, symBinAddr: 0x3BB40, symSize: 0x50 }
  - { offset: 0x1B22AA, size: 0x8, addend: 0x0, symName: __ZNKSt3__118__match_char_icaseIcNS_12regex_traitsIcEEE6__execERNS_7__stateIcEE, symObjAddr: 0x12ED0, symBinAddr: 0x3BB90, symSize: 0x50 }
  - { offset: 0x1B2363, size: 0x8, addend: 0x0, symName: __ZNSt3__120__match_char_collateIcNS_12regex_traitsIcEEED1Ev, symObjAddr: 0x12F20, symBinAddr: 0x3BBE0, symSize: 0x50 }
  - { offset: 0x1B2426, size: 0x8, addend: 0x0, symName: __ZNSt3__120__match_char_collateIcNS_12regex_traitsIcEEED0Ev, symObjAddr: 0x12F70, symBinAddr: 0x3BC30, symSize: 0x50 }
  - { offset: 0x1B24F1, size: 0x8, addend: 0x0, symName: __ZNKSt3__120__match_char_collateIcNS_12regex_traitsIcEEE6__execERNS_7__stateIcEE, symObjAddr: 0x12FC0, symBinAddr: 0x3BC80, symSize: 0x40 }
  - { offset: 0x1B255F, size: 0x8, addend: 0x0, symName: __ZNSt3__112__match_charIcED1Ev, symObjAddr: 0x13000, symBinAddr: 0x3BCC0, symSize: 0x30 }
  - { offset: 0x1B25E8, size: 0x8, addend: 0x0, symName: __ZNSt3__112__match_charIcED0Ev, symObjAddr: 0x13030, symBinAddr: 0x3BCF0, symSize: 0x40 }
  - { offset: 0x1B2618, size: 0x8, addend: 0x0, symName: __ZNSt3__112__match_charIcED0Ev, symObjAddr: 0x13030, symBinAddr: 0x3BCF0, symSize: 0x40 }
  - { offset: 0x1B2636, size: 0x8, addend: 0x0, symName: __ZNSt3__112__match_charIcED0Ev, symObjAddr: 0x13030, symBinAddr: 0x3BCF0, symSize: 0x40 }
  - { offset: 0x1B2654, size: 0x8, addend: 0x0, symName: __ZNSt3__112__match_charIcED0Ev, symObjAddr: 0x13030, symBinAddr: 0x3BCF0, symSize: 0x40 }
  - { offset: 0x1B267F, size: 0x8, addend: 0x0, symName: __ZNKSt3__112__match_charIcE6__execERNS_7__stateIcEE, symObjAddr: 0x13070, symBinAddr: 0x3BD30, symSize: 0x40 }
  - { offset: 0x1B26ED, size: 0x8, addend: 0x0, symName: __ZNSt3__116__back_ref_icaseIcNS_12regex_traitsIcEEED1Ev, symObjAddr: 0x130B0, symBinAddr: 0x3BD70, symSize: 0x50 }
  - { offset: 0x1B27B0, size: 0x8, addend: 0x0, symName: __ZNSt3__116__back_ref_icaseIcNS_12regex_traitsIcEEED0Ev, symObjAddr: 0x13100, symBinAddr: 0x3BDC0, symSize: 0x50 }
  - { offset: 0x1B287B, size: 0x8, addend: 0x0, symName: __ZNKSt3__116__back_ref_icaseIcNS_12regex_traitsIcEEE6__execERNS_7__stateIcEE, symObjAddr: 0x13150, symBinAddr: 0x3BE10, symSize: 0xC0 }
  - { offset: 0x1B29E9, size: 0x8, addend: 0x0, symName: __ZNSt3__118__back_ref_collateIcNS_12regex_traitsIcEEED1Ev, symObjAddr: 0x13210, symBinAddr: 0x3BED0, symSize: 0x50 }
  - { offset: 0x1B2AAC, size: 0x8, addend: 0x0, symName: __ZNSt3__118__back_ref_collateIcNS_12regex_traitsIcEEED0Ev, symObjAddr: 0x13260, symBinAddr: 0x3BF20, symSize: 0x50 }
  - { offset: 0x1B2B77, size: 0x8, addend: 0x0, symName: __ZNKSt3__118__back_ref_collateIcNS_12regex_traitsIcEEE6__execERNS_7__stateIcEE, symObjAddr: 0x132B0, symBinAddr: 0x3BF70, symSize: 0x80 }
  - { offset: 0x1B2C50, size: 0x8, addend: 0x0, symName: __ZNSt3__110__back_refIcED1Ev, symObjAddr: 0x13330, symBinAddr: 0x3BFF0, symSize: 0x30 }
  - { offset: 0x1B2CD9, size: 0x8, addend: 0x0, symName: __ZNSt3__110__back_refIcED0Ev, symObjAddr: 0x13360, symBinAddr: 0x3C020, symSize: 0x40 }
  - { offset: 0x1B2D09, size: 0x8, addend: 0x0, symName: __ZNSt3__110__back_refIcED0Ev, symObjAddr: 0x13360, symBinAddr: 0x3C020, symSize: 0x40 }
  - { offset: 0x1B2D27, size: 0x8, addend: 0x0, symName: __ZNSt3__110__back_refIcED0Ev, symObjAddr: 0x13360, symBinAddr: 0x3C020, symSize: 0x40 }
  - { offset: 0x1B2D45, size: 0x8, addend: 0x0, symName: __ZNSt3__110__back_refIcED0Ev, symObjAddr: 0x13360, symBinAddr: 0x3C020, symSize: 0x40 }
  - { offset: 0x1B2D70, size: 0x8, addend: 0x0, symName: __ZNKSt3__110__back_refIcE6__execERNS_7__stateIcEE, symObjAddr: 0x133A0, symBinAddr: 0x3C060, symSize: 0xB0 }
  - { offset: 0x1B3176, size: 0x8, addend: 0x0, symName: __ZNSt3__16vectorIcNS_9allocatorIcEEE20__throw_length_errorB8ne200100Ev, symObjAddr: 0x148E0, symBinAddr: 0x3D520, symSize: 0x10 }
  - { offset: 0x1B318E, size: 0x8, addend: 0x0, symName: __ZNSt3__119__throw_regex_errorB8ne200100ILNS_15regex_constants10error_typeE5EEEvv, symObjAddr: 0x148F0, symBinAddr: 0x3D530, symSize: 0x50 }
  - { offset: 0x1B3559, size: 0x8, addend: 0x0, symName: __ZNSt3__16vectorINS_4pairINS_12basic_stringIcNS_11char_traitsIcEENS_9allocatorIcEEEES7_EENS5_IS8_EEED1B8ne200100Ev, symObjAddr: 0x137E0, symBinAddr: 0x3C430, symSize: 0x90 }
  - { offset: 0x1B3BCF, size: 0x8, addend: 0x0, symName: __ZNSt3__120__bracket_expressionIcNS_12regex_traitsIcEEED1Ev, symObjAddr: 0x13870, symBinAddr: 0x3C4C0, symSize: 0x10 }
  - { offset: 0x1B3C05, size: 0x8, addend: 0x0, symName: __ZNSt3__120__bracket_expressionIcNS_12regex_traitsIcEEED2Ev, symObjAddr: 0x14300, symBinAddr: 0x3CF40, symSize: 0x150 }
  - { offset: 0x1B4627, size: 0x8, addend: 0x0, symName: __ZNSt3__120__bracket_expressionIcNS_12regex_traitsIcEEED0Ev, symObjAddr: 0x13880, symBinAddr: 0x3C4D0, symSize: 0x20 }
  - { offset: 0x1B4A7D, size: 0x8, addend: 0x0, symName: __ZNKSt3__120__bracket_expressionIcNS_12regex_traitsIcEEE6__execERNS_7__stateIcEE, symObjAddr: 0x138A0, symBinAddr: 0x3C4F0, symSize: 0xA10 }
  - { offset: 0x1B6550, size: 0x8, addend: 0x0, symName: __ZNKSt3__112regex_traitsIcE20__lookup_collatenameIPcEENS_12basic_stringIcNS_11char_traitsIcEENS_9allocatorIcEEEET_SA_c, symObjAddr: 0x14560, symBinAddr: 0x3D1A0, symSize: 0x210 }
  - { offset: 0x1B70ED, size: 0x8, addend: 0x0, symName: __ZNKSt3__112regex_traitsIcE9transformIPcEENS_12basic_stringIcNS_11char_traitsIcEENS_9allocatorIcEEEET_SA_, symObjAddr: 0x14450, symBinAddr: 0x3D090, symSize: 0x110 }
  - { offset: 0x1B772E, size: 0x8, addend: 0x0, symName: __ZNKSt3__112regex_traitsIcE19__transform_primaryIPcEENS_12basic_stringIcNS_11char_traitsIcEENS_9allocatorIcEEEET_SA_c, symObjAddr: 0x14770, symBinAddr: 0x3D3B0, symSize: 0x170 }
  - { offset: 0x1B7EAD, size: 0x8, addend: 0x0, symName: __ZNSt3__14pairINS_12basic_stringIcNS_11char_traitsIcEENS_9allocatorIcEEEES6_ED1Ev, symObjAddr: 0x142C0, symBinAddr: 0x3CF00, symSize: 0x40 }
  - { offset: 0x1B819E, size: 0x8, addend: 0x0, symName: __ZNSt3__111basic_regexIcNS_12regex_traitsIcEEE25__parse_equivalence_classINS_11__wrap_iterIPKcEEEET_S9_S9_PNS_20__bracket_expressionIcS2_EE, symObjAddr: 0x14D60, symBinAddr: 0x3D9A0, symSize: 0x250 }
  - { offset: 0x1B8CDC, size: 0x8, addend: 0x0, symName: __ZNSt3__111basic_regexIcNS_12regex_traitsIcEEE18__parse_awk_escapeINS_11__wrap_iterIPKcEEEET_S9_S9_PNS_12basic_stringIcNS_11char_traitsIcEENS_9allocatorIcEEEE, symObjAddr: 0x152B0, symBinAddr: 0x3DEF0, symSize: 0x2E0 }
  - { offset: 0x1B8E4F, size: 0x8, addend: 0x0, symName: __ZNSt3__111basic_regexIcNS_12regex_traitsIcEEE23__parse_character_classINS_11__wrap_iterIPKcEEEET_S9_S9_PNS_20__bracket_expressionIcS2_EE, symObjAddr: 0x14FB0, symBinAddr: 0x3DBF0, symSize: 0x90 }
  - { offset: 0x1B9186, size: 0x8, addend: 0x0, symName: __ZNSt3__111basic_regexIcNS_12regex_traitsIcEEE24__parse_collating_symbolINS_11__wrap_iterIPKcEEEET_S9_S9_RNS_12basic_stringIcNS_11char_traitsIcEENS_9allocatorIcEEEE, symObjAddr: 0x15040, symBinAddr: 0x3DC80, symSize: 0xD0 }
  - { offset: 0x1B95A6, size: 0x8, addend: 0x0, symName: __ZNSt3__111basic_regexIcNS_12regex_traitsIcEEE20__parse_class_escapeINS_11__wrap_iterIPKcEEEET_S9_S9_RNS_12basic_stringIcNS_11char_traitsIcEENS_9allocatorIcEEEEPNS_20__bracket_expressionIcS2_EE, symObjAddr: 0x15110, symBinAddr: 0x3DD50, symSize: 0x1A0 }
  - { offset: 0x1B9785, size: 0x8, addend: 0x0, symName: __ZNSt3__120__bracket_expressionIcNS_12regex_traitsIcEEE13__add_digraphB8ne200100Ecc, symObjAddr: 0x159D0, symBinAddr: 0x3E610, symSize: 0x1E0 }
  - { offset: 0x1B9E0B, size: 0x8, addend: 0x0, symName: __ZNSt3__120__bracket_expressionIcNS_12regex_traitsIcEEE11__add_rangeB8ne200100ENS_12basic_stringIcNS_11char_traitsIcEENS_9allocatorIcEEEES9_, symObjAddr: 0x15590, symBinAddr: 0x3E1D0, symSize: 0x440 }
  - { offset: 0x1BB533, size: 0x8, addend: 0x0, symName: __ZNKSt3__112regex_traitsIcE20__lookup_collatenameINS_11__wrap_iterIPKcEEEENS_12basic_stringIcNS_11char_traitsIcEENS_9allocatorIcEEEET_SD_c, symObjAddr: 0x15C00, symBinAddr: 0x3E840, symSize: 0x210 }
  - { offset: 0x1BC0E5, size: 0x8, addend: 0x0, symName: __ZNKSt3__112regex_traitsIcE19__transform_primaryINS_11__wrap_iterIPcEEEENS_12basic_stringIcNS_11char_traitsIcEENS_9allocatorIcEEEET_SC_c, symObjAddr: 0x15E10, symBinAddr: 0x3EA50, symSize: 0x170 }
  - { offset: 0x1BC879, size: 0x8, addend: 0x0, symName: __ZNSt3__16vectorINS_12basic_stringIcNS_11char_traitsIcEENS_9allocatorIcEEEENS4_IS6_EEE24__emplace_back_slow_pathIJRKS6_EEEPS6_DpOT_, symObjAddr: 0x15F80, symBinAddr: 0x3EBC0, symSize: 0x180 }
  - { offset: 0x1BCD22, size: 0x8, addend: 0x0, symName: __ZNKSt3__112regex_traitsIcE18__lookup_classnameINS_11__wrap_iterIPKcEEEEjT_S7_bc, symObjAddr: 0x161C0, symBinAddr: 0x3EE00, symSize: 0x120 }
  - { offset: 0x1BD473, size: 0x8, addend: 0x0, symName: __ZNSt3__120__bracket_expressionIcNS_12regex_traitsIcEEE14__add_neg_charB8ne200100Ec, symObjAddr: 0x162E0, symBinAddr: 0x3EF20, symSize: 0x180 }
  - { offset: 0x1BD8A5, size: 0x8, addend: 0x0, symName: __ZNKSt3__112regex_traitsIcE9transformINS_11__wrap_iterIPcEEEENS_12basic_stringIcNS_11char_traitsIcEENS_9allocatorIcEEEET_SC_, symObjAddr: 0x165F0, symBinAddr: 0x3F230, symSize: 0x110 }
  - { offset: 0x1BDF1F, size: 0x8, addend: 0x0, symName: __ZNSt3__16vectorINS_4pairINS_12basic_stringIcNS_11char_traitsIcEENS_9allocatorIcEEEES7_EENS5_IS8_EEE9push_backB8ne200100EOS8_, symObjAddr: 0x16460, symBinAddr: 0x3F0A0, symSize: 0x190 }
  - { offset: 0x1BE80C, size: 0x8, addend: 0x0, symName: __ZNSt3__16vectorINS_4pairIccEENS_9allocatorIS2_EEE20__throw_length_errorB8ne200100Ev, symObjAddr: 0x16760, symBinAddr: 0x3F3A0, symSize: 0x10 }
  - { offset: 0x1BE824, size: 0x8, addend: 0x0, symName: __ZNSt3__128__begin_marked_subexpressionIcED1Ev, symObjAddr: 0x16770, symBinAddr: 0x3F3B0, symSize: 0x30 }
  - { offset: 0x1BECA3, size: 0x8, addend: 0x0, symName: __ZNSt3__16vectorINS_12basic_stringIcNS_11char_traitsIcEENS_9allocatorIcEEEENS4_IS6_EEE20__throw_length_errorB8ne200100Ev, symObjAddr: 0x16160, symBinAddr: 0x3EDA0, symSize: 0x10 }
  - { offset: 0x1BECBB, size: 0x8, addend: 0x0, symName: __ZNSt3__119__throw_regex_errorB8ne200100ILNS_15regex_constants10error_typeE2EEEvv, symObjAddr: 0x16170, symBinAddr: 0x3EDB0, symSize: 0x50 }
  - { offset: 0x1BECC6, size: 0x8, addend: 0x0, symName: __ZNSt3__114__split_bufferINS_12basic_stringIcNS_11char_traitsIcEENS_9allocatorIcEEEERNS4_IS6_EEED1Ev, symObjAddr: 0x16100, symBinAddr: 0x3ED40, symSize: 0x60 }
  - { offset: 0x1BF285, size: 0x8, addend: 0x0, symName: __ZNSt3__16vectorINS_4pairINS_12basic_stringIcNS_11char_traitsIcEENS_9allocatorIcEEEES7_EENS5_IS8_EEE20__throw_length_errorB8ne200100Ev, symObjAddr: 0x16750, symBinAddr: 0x3F390, symSize: 0x10 }
  - { offset: 0x1BF29D, size: 0x8, addend: 0x0, symName: __ZNSt3__16vectorINS_4pairIccEENS_9allocatorIS2_EEE20__throw_length_errorB8ne200100Ev, symObjAddr: 0x16760, symBinAddr: 0x3F3A0, symSize: 0x10 }
  - { offset: 0x1BF2C5, size: 0x8, addend: 0x0, symName: __ZNSt3__128__begin_marked_subexpressionIcED1Ev, symObjAddr: 0x16770, symBinAddr: 0x3F3B0, symSize: 0x30 }
  - { offset: 0x1BF34E, size: 0x8, addend: 0x0, symName: __ZNSt3__128__begin_marked_subexpressionIcED0Ev, symObjAddr: 0x167A0, symBinAddr: 0x3F3E0, symSize: 0x40 }
  - { offset: 0x1BF37E, size: 0x8, addend: 0x0, symName: __ZNSt3__128__begin_marked_subexpressionIcED0Ev, symObjAddr: 0x167A0, symBinAddr: 0x3F3E0, symSize: 0x40 }
  - { offset: 0x1BF39C, size: 0x8, addend: 0x0, symName: __ZNSt3__128__begin_marked_subexpressionIcED0Ev, symObjAddr: 0x167A0, symBinAddr: 0x3F3E0, symSize: 0x40 }
  - { offset: 0x1BF3BA, size: 0x8, addend: 0x0, symName: __ZNSt3__128__begin_marked_subexpressionIcED0Ev, symObjAddr: 0x167A0, symBinAddr: 0x3F3E0, symSize: 0x40 }
  - { offset: 0x1BF3E5, size: 0x8, addend: 0x0, symName: __ZNKSt3__128__begin_marked_subexpressionIcE6__execERNS_7__stateIcEE, symObjAddr: 0x167E0, symBinAddr: 0x3F420, symSize: 0x30 }
  - { offset: 0x1BF479, size: 0x8, addend: 0x0, symName: __ZNSt3__126__end_marked_subexpressionIcED1Ev, symObjAddr: 0x16810, symBinAddr: 0x3F450, symSize: 0x30 }
  - { offset: 0x1BF502, size: 0x8, addend: 0x0, symName: __ZNSt3__126__end_marked_subexpressionIcED0Ev, symObjAddr: 0x16840, symBinAddr: 0x3F480, symSize: 0x40 }
  - { offset: 0x1BF532, size: 0x8, addend: 0x0, symName: __ZNSt3__126__end_marked_subexpressionIcED0Ev, symObjAddr: 0x16840, symBinAddr: 0x3F480, symSize: 0x40 }
  - { offset: 0x1BF550, size: 0x8, addend: 0x0, symName: __ZNSt3__126__end_marked_subexpressionIcED0Ev, symObjAddr: 0x16840, symBinAddr: 0x3F480, symSize: 0x40 }
  - { offset: 0x1BF56E, size: 0x8, addend: 0x0, symName: __ZNSt3__126__end_marked_subexpressionIcED0Ev, symObjAddr: 0x16840, symBinAddr: 0x3F480, symSize: 0x40 }
  - { offset: 0x1BF599, size: 0x8, addend: 0x0, symName: __ZNKSt3__126__end_marked_subexpressionIcE6__execERNS_7__stateIcEE, symObjAddr: 0x16880, symBinAddr: 0x3F4C0, symSize: 0x30 }
  - { offset: 0x1BF85E, size: 0x8, addend: 0x0, symName: __ZNSt3__16__loopIcED0Ev, symObjAddr: 0x16AF0, symBinAddr: 0x3F730, symSize: 0x60 }
  - { offset: 0x1BF94F, size: 0x8, addend: 0x0, symName: __ZNSt3__16__loopIcED1Ev, symObjAddr: 0x16AA0, symBinAddr: 0x3F6E0, symSize: 0x50 }
  - { offset: 0x1BFA77, size: 0x8, addend: 0x0, symName: __ZNKSt3__16__loopIcE6__execERNS_7__stateIcEE, symObjAddr: 0x16B50, symBinAddr: 0x3F790, symSize: 0x260 }
  - { offset: 0x1BFBDD, size: 0x8, addend: 0x0, symName: __ZNKSt3__16__loopIcE12__exec_splitEbRNS_7__stateIcEE, symObjAddr: 0x16DB0, symBinAddr: 0x3F9F0, symSize: 0xF0 }
  - { offset: 0x1BFCC4, size: 0x8, addend: 0x0, symName: __ZNSt3__117__owns_two_statesIcED1Ev, symObjAddr: 0x16EA0, symBinAddr: 0x3FAE0, symSize: 0x50 }
  - { offset: 0x1BFD56, size: 0x8, addend: 0x0, symName: __ZNSt3__117__owns_two_statesIcED0Ev, symObjAddr: 0x16EF0, symBinAddr: 0x3FB30, symSize: 0x60 }
  - { offset: 0x1BFDF0, size: 0x8, addend: 0x0, symName: __ZNSt3__117__repeat_one_loopIcED1Ev, symObjAddr: 0x16F50, symBinAddr: 0x3FB90, symSize: 0x10 }
  - { offset: 0x1BFE1C, size: 0x8, addend: 0x0, symName: __ZNSt3__117__repeat_one_loopIcED0Ev, symObjAddr: 0x16F60, symBinAddr: 0x3FBA0, symSize: 0x10 }
  - { offset: 0x1BFE48, size: 0x8, addend: 0x0, symName: __ZNKSt3__117__repeat_one_loopIcE6__execERNS_7__stateIcEE, symObjAddr: 0x16F70, symBinAddr: 0x3FBB0, symSize: 0x20 }
  - { offset: 0x1BFEB6, size: 0x8, addend: 0x0, symName: __ZNSt3__111__alternateIcED1Ev, symObjAddr: 0x16F90, symBinAddr: 0x3FBD0, symSize: 0x50 }
  - { offset: 0x1BFF6A, size: 0x8, addend: 0x0, symName: __ZNSt3__111__alternateIcED0Ev, symObjAddr: 0x16FE0, symBinAddr: 0x3FC20, symSize: 0x60 }
  - { offset: 0x1C0024, size: 0x8, addend: 0x0, symName: __ZNKSt3__111__alternateIcE6__execERNS_7__stateIcEE, symObjAddr: 0x17040, symBinAddr: 0x3FC80, symSize: 0x10 }
  - { offset: 0x1C0058, size: 0x8, addend: 0x0, symName: __ZNKSt3__111__alternateIcE12__exec_splitEbRNS_7__stateIcEE, symObjAddr: 0x17050, symBinAddr: 0x3FC90, symSize: 0x20 }
  - { offset: 0x1C00A7, size: 0x8, addend: 0x0, symName: __ZNSt3__121__empty_non_own_stateIcED1Ev, symObjAddr: 0x17070, symBinAddr: 0x3FCB0, symSize: 0x10 }
  - { offset: 0x1C00D3, size: 0x8, addend: 0x0, symName: __ZNSt3__121__empty_non_own_stateIcED0Ev, symObjAddr: 0x17080, symBinAddr: 0x3FCC0, symSize: 0x10 }
  - { offset: 0x1C00FF, size: 0x8, addend: 0x0, symName: __ZNKSt3__121__empty_non_own_stateIcE6__execERNS_7__stateIcEE, symObjAddr: 0x17090, symBinAddr: 0x3FCD0, symSize: 0x20 }
  - { offset: 0x1C0444, size: 0x8, addend: 0x0, symName: __ZNSt3__111__match_anyIcED1Ev, symObjAddr: 0x17630, symBinAddr: 0x40270, symSize: 0x30 }
  - { offset: 0x1C04CD, size: 0x8, addend: 0x0, symName: __ZNSt3__111__match_anyIcED0Ev, symObjAddr: 0x17660, symBinAddr: 0x402A0, symSize: 0x40 }
  - { offset: 0x1C04FD, size: 0x8, addend: 0x0, symName: __ZNSt3__111__match_anyIcED0Ev, symObjAddr: 0x17660, symBinAddr: 0x402A0, symSize: 0x40 }
  - { offset: 0x1C051B, size: 0x8, addend: 0x0, symName: __ZNSt3__111__match_anyIcED0Ev, symObjAddr: 0x17660, symBinAddr: 0x402A0, symSize: 0x40 }
  - { offset: 0x1C0539, size: 0x8, addend: 0x0, symName: __ZNSt3__111__match_anyIcED0Ev, symObjAddr: 0x17660, symBinAddr: 0x402A0, symSize: 0x40 }
  - { offset: 0x1C0564, size: 0x8, addend: 0x0, symName: __ZNKSt3__111__match_anyIcE6__execERNS_7__stateIcEE, symObjAddr: 0x176A0, symBinAddr: 0x402E0, symSize: 0x40 }
  - { offset: 0x1C05B5, size: 0x8, addend: 0x0, symName: __ZNSt3__111basic_regexIcNS_12regex_traitsIcEEE15__test_back_refEc, symObjAddr: 0x176E0, symBinAddr: 0x40320, symSize: 0x50 }
  - { offset: 0x1C06DF, size: 0x8, addend: 0x0, symName: __ZNSt3__111basic_regexIcNS_12regex_traitsIcEEE20__parse_ORD_CHAR_EREINS_11__wrap_iterIPKcEEEET_S9_S9_, symObjAddr: 0x17970, symBinAddr: 0x405B0, symSize: 0x1C0 }
  - { offset: 0x1C077C, size: 0x8, addend: 0x0, symName: __ZNSt3__111basic_regexIcNS_12regex_traitsIcEEE23__parse_QUOTED_CHAR_EREINS_11__wrap_iterIPKcEEEET_S9_S9_, symObjAddr: 0x17B30, symBinAddr: 0x40770, symSize: 0x200 }
  - { offset: 0x1C09E9, size: 0x8, addend: 0x0, symName: __ZNSt3__128__exception_guard_exceptionsINS_29_AllocatorDestroyRangeReverseINS_9allocatorINS_6vectorI21llama_grammar_elementNS2_IS4_EEEEEEPS6_EEED1B8ne200100Ev, symObjAddr: 0x17EB0, symBinAddr: 0x40A70, symSize: 0x50 }
  - { offset: 0x1C0A16, size: 0x8, addend: 0x0, symName: __ZNSt3__128__exception_guard_exceptionsINS_29_AllocatorDestroyRangeReverseINS_9allocatorINS_6vectorI21llama_grammar_elementNS2_IS4_EEEEEEPS6_EEED1B8ne200100Ev, symObjAddr: 0x17EB0, symBinAddr: 0x40A70, symSize: 0x50 }
  - { offset: 0x1EEBC0, size: 0x8, addend: 0x0, symName: __ZNSt3__125__throw_bad_function_callB8ne200100Ev, symObjAddr: 0xC7F0, symBinAddr: 0x4D220, symSize: 0x40 }
  - { offset: 0x1EF00C, size: 0x8, addend: 0x0, symName: __ZNSt3__111make_uniqueB8ne200100I24llm_graph_input_samplingJRKNS_3mapIiP13llama_samplerNS_4lessIiEENS_9allocatorINS_4pairIKiS4_EEEEEEELi0EEENS_10unique_ptrIT_NS_14default_deleteISG_EEEEDpOT0_, symObjAddr: 0xB240, symBinAddr: 0x4C190, symSize: 0x110 }
  - { offset: 0x1F8F5F, size: 0x8, addend: 0x0, symName: __ZN20llm_graph_input_embd9set_inputEPK12llama_ubatch, symObjAddr: 0x0, symBinAddr: 0x41010, symSize: 0xC0 }
  - { offset: 0x1F9094, size: 0x8, addend: 0x0, symName: __ZN20llm_graph_input_embd9can_reuseERK16llm_graph_params, symObjAddr: 0xC0, symBinAddr: 0x410D0, symSize: 0x70 }
  - { offset: 0x1F9346, size: 0x8, addend: 0x0, symName: __ZN19llm_graph_input_pos9set_inputEPK12llama_ubatch, symObjAddr: 0x130, symBinAddr: 0x41140, symSize: 0x290 }
  - { offset: 0x1F9709, size: 0x8, addend: 0x0, symName: __ZN19llm_graph_input_pos9can_reuseERK16llm_graph_params, symObjAddr: 0x3C0, symBinAddr: 0x413D0, symSize: 0x20 }
  - { offset: 0x1F99C2, size: 0x8, addend: 0x0, symName: __ZN25llm_graph_input_attn_temp9set_inputEPK12llama_ubatch, symObjAddr: 0x3E0, symBinAddr: 0x413F0, symSize: 0x2F0 }
  - { offset: 0x1F9E1B, size: 0x8, addend: 0x0, symName: __ZN26llm_graph_input_pos_bucket9set_inputEPK12llama_ubatch, symObjAddr: 0x6D0, symBinAddr: 0x416E0, symSize: 0x530 }
  - { offset: 0x1F9F7B, size: 0x8, addend: 0x0, symName: __Z30llama_relative_position_bucketiiyb, symObjAddr: 0xC00, symBinAddr: 0x41C10, symSize: 0xF0 }
  - { offset: 0x1F9FE0, size: 0x8, addend: 0x0, symName: __ZN29llm_graph_input_pos_bucket_kv9set_inputEPK12llama_ubatch, symObjAddr: 0xCF0, symBinAddr: 0x41D00, symSize: 0x20 }
  - { offset: 0x1FA018, size: 0x8, addend: 0x0, symName: __ZN23llm_graph_input_out_ids9set_inputEPK12llama_ubatch, symObjAddr: 0xD10, symBinAddr: 0x41D20, symSize: 0x1C0 }
  - { offset: 0x1FA0F2, size: 0x8, addend: 0x0, symName: __ZN23llm_graph_input_out_ids9can_reuseERK16llm_graph_params, symObjAddr: 0xED0, symBinAddr: 0x41EE0, symSize: 0x20 }
  - { offset: 0x1FA3AB, size: 0x8, addend: 0x0, symName: __ZN20llm_graph_input_mean9set_inputEPK12llama_ubatch, symObjAddr: 0xEF0, symBinAddr: 0x41F00, symSize: 0x650 }
  - { offset: 0x1FABA3, size: 0x8, addend: 0x0, symName: __ZN19llm_graph_input_cls9set_inputEPK12llama_ubatch, symObjAddr: 0x1540, symBinAddr: 0x42550, symSize: 0x4D0 }
  - { offset: 0x1FB1C6, size: 0x8, addend: 0x0, symName: __ZN18llm_graph_input_rs9set_inputEPK12llama_ubatch, symObjAddr: 0x1A10, symBinAddr: 0x42A20, symSize: 0xA0 }
  - { offset: 0x1FB259, size: 0x8, addend: 0x0, symName: __ZN18llm_graph_input_rs9can_reuseERK16llm_graph_params, symObjAddr: 0x1AB0, symBinAddr: 0x42AC0, symSize: 0xB0 }
  - { offset: 0x1FB2CF, size: 0x8, addend: 0x0, symName: __ZN26llm_graph_input_cross_embd9set_inputEPK12llama_ubatch, symObjAddr: 0x1B60, symBinAddr: 0x42B70, symSize: 0x40 }
  - { offset: 0x1FB35F, size: 0x8, addend: 0x0, symName: __ZN29llm_graph_input_attn_no_cache9set_inputEPK12llama_ubatch, symObjAddr: 0x1BA0, symBinAddr: 0x42BB0, symSize: 0x340 }
  - { offset: 0x1FB8F1, size: 0x8, addend: 0x0, symName: __ZL10print_maskPKfxxx14llama_swa_type, symObjAddr: 0x1EE0, symBinAddr: 0x42EF0, symSize: 0x220 }
  - { offset: 0x1FBB06, size: 0x8, addend: 0x0, symName: __ZN23llm_graph_input_attn_kv9set_inputEPK12llama_ubatch, symObjAddr: 0x2100, symBinAddr: 0x43110, symSize: 0x60 }
  - { offset: 0x1FBB40, size: 0x8, addend: 0x0, symName: __ZN23llm_graph_input_attn_kv9can_reuseERK16llm_graph_params, symObjAddr: 0x2160, symBinAddr: 0x43170, symSize: 0x60 }
  - { offset: 0x1FBB9A, size: 0x8, addend: 0x0, symName: __ZN22llm_graph_input_attn_k9set_inputEPK12llama_ubatch, symObjAddr: 0x21C0, symBinAddr: 0x431D0, symSize: 0x40 }
  - { offset: 0x1FBBD4, size: 0x8, addend: 0x0, symName: __ZN22llm_graph_input_attn_k9can_reuseERK16llm_graph_params, symObjAddr: 0x2200, symBinAddr: 0x43210, symSize: 0x60 }
  - { offset: 0x1FBC2E, size: 0x8, addend: 0x0, symName: __ZN28llm_graph_input_attn_kv_iswa9set_inputEPK12llama_ubatch, symObjAddr: 0x2260, symBinAddr: 0x43270, symSize: 0xD0 }
  - { offset: 0x1FBC68, size: 0x8, addend: 0x0, symName: __ZN28llm_graph_input_attn_kv_iswa9can_reuseERK16llm_graph_params, symObjAddr: 0x2330, symBinAddr: 0x43340, symSize: 0xC0 }
  - { offset: 0x1FBD9E, size: 0x8, addend: 0x0, symName: __ZN26llm_graph_input_attn_cross9set_inputEPK12llama_ubatch, symObjAddr: 0x23F0, symBinAddr: 0x43400, symSize: 0x210 }
  - { offset: 0x1FC059, size: 0x8, addend: 0x0, symName: __ZN26llm_graph_input_mem_hybrid9set_inputEPK12llama_ubatch, symObjAddr: 0x2600, symBinAddr: 0x43610, symSize: 0x110 }
  - { offset: 0x1FC16E, size: 0x8, addend: 0x0, symName: __ZN26llm_graph_input_mem_hybrid9can_reuseERK16llm_graph_params, symObjAddr: 0x2710, symBinAddr: 0x43720, symSize: 0x130 }
  - { offset: 0x1FC29E, size: 0x8, addend: 0x0, symName: __ZN31llm_graph_input_mem_hybrid_iswa9set_inputEPK12llama_ubatch, symObjAddr: 0x2840, symBinAddr: 0x43850, symSize: 0x190 }
  - { offset: 0x1FC454, size: 0x8, addend: 0x0, symName: __ZN31llm_graph_input_mem_hybrid_iswa9can_reuseERK16llm_graph_params, symObjAddr: 0x29D0, symBinAddr: 0x439E0, symSize: 0x1B0 }
  - { offset: 0x1FCEC0, size: 0x8, addend: 0x0, symName: __ZN24llm_graph_input_sampling9set_inputEPK12llama_ubatch, symObjAddr: 0x2B80, symBinAddr: 0x43B90, symSize: 0x210 }
  - { offset: 0x1FD7FF, size: 0x8, addend: 0x0, symName: __ZNSt3__112__hash_tableIiNS_4hashIiEENS_8equal_toIiEENS_9allocatorIiEEE25__emplace_unique_key_argsIiJRKiEEENS_4pairINS_15__hash_iteratorIPNS_11__hash_nodeIiPvEEEEbEERKT_DpOT0_, symObjAddr: 0xBEF0, symBinAddr: 0x4CB90, symSize: 0x490 }
  - { offset: 0x1FDE8B, size: 0x8, addend: 0x0, symName: __ZNSt3__113unordered_setIiNS_4hashIiEENS_8equal_toIiEENS_9allocatorIiEEED1B8ne200100Ev, symObjAddr: 0x2D90, symBinAddr: 0x43DA0, symSize: 0x50 }
  - { offset: 0x1FE1DD, size: 0x8, addend: 0x0, symName: __ZN24llm_graph_input_sampling9can_reuseERK16llm_graph_params, symObjAddr: 0x2DE0, symBinAddr: 0x43DF0, symSize: 0x140 }
  - { offset: 0x1FE219, size: 0x8, addend: 0x0, symName: __ZN24llm_graph_input_sampling9can_reuseERK16llm_graph_params, symObjAddr: 0x2DE0, symBinAddr: 0x43DF0, symSize: 0x140 }
  - { offset: 0x1FEB2E, size: 0x8, addend: 0x0, symName: __ZN16llm_graph_resultC2Ex, symObjAddr: 0x2F20, symBinAddr: 0x43F30, symSize: 0x320 }
  - { offset: 0x1FF3D6, size: 0x8, addend: 0x0, symName: __ZN16llm_graph_result5resetEv, symObjAddr: 0x3240, symBinAddr: 0x44250, symSize: 0x700 }
  - { offset: 0x200432, size: 0x8, addend: 0x0, symName: __ZNSt3__16vectorINS_10unique_ptrI17llm_graph_input_iNS_14default_deleteIS2_EEEENS_9allocatorIS5_EEED1B8ne200100Ev, symObjAddr: 0x3A00, symBinAddr: 0x44950, symSize: 0x80 }
  - { offset: 0x200627, size: 0x8, addend: 0x0, symName: __ZNSt3__16__treeINS_12__value_typeIiP11ggml_tensorEENS_19__map_value_compareIiS4_NS_4lessIiEELb1EEENS_9allocatorIS4_EEE7destroyEPNS_11__tree_nodeIS4_PvEE, symObjAddr: 0xC530, symBinAddr: 0x4D1D0, symSize: 0x40 }
  - { offset: 0x201220, size: 0x8, addend: 0x0, symName: __ZNSt3__16vectorINS_10unique_ptrI17llm_graph_input_iNS_14default_deleteIS2_EEEENS_9allocatorIS5_EEE20__throw_length_errorB8ne200100Ev, symObjAddr: 0xC580, symBinAddr: 0x4D210, symSize: 0x10 }
  - { offset: 0x2012D9, size: 0x8, addend: 0x0, symName: __ZN16llm_graph_resultC1Ex, symObjAddr: 0x3A80, symBinAddr: 0x449D0, symSize: 0x10 }
  - { offset: 0x201331, size: 0x8, addend: 0x0, symName: __ZNK16llm_graph_result13get_max_nodesEv, symObjAddr: 0x3A90, symBinAddr: 0x449E0, symSize: 0x10 }
  - { offset: 0x2013BD, size: 0x8, addend: 0x0, symName: __ZN16llm_graph_result10set_inputsEPK12llama_ubatch, symObjAddr: 0x3AA0, symBinAddr: 0x449F0, symSize: 0x40 }
  - { offset: 0x2015A0, size: 0x8, addend: 0x0, symName: __ZN16llm_graph_result11set_outputsEv, symObjAddr: 0x3AE0, symBinAddr: 0x44A30, symSize: 0x1C0 }
  - { offset: 0x201CC5, size: 0x8, addend: 0x0, symName: __ZN16llm_graph_result9can_reuseERK16llm_graph_params, symObjAddr: 0x3CA0, symBinAddr: 0x44BF0, symSize: 0x130 }
  - { offset: 0x201E99, size: 0x8, addend: 0x0, symName: __ZNK16llm_graph_params11allow_reuseERKS_, symObjAddr: 0x3DD0, symBinAddr: 0x44D20, symSize: 0x3A0 }
  - { offset: 0x20279C, size: 0x8, addend: 0x0, symName: __ZN16llm_graph_result9add_inputENSt3__110unique_ptrI17llm_graph_input_iNS0_14default_deleteIS2_EEEE, symObjAddr: 0x4170, symBinAddr: 0x450C0, symSize: 0x140 }
  - { offset: 0x202CB3, size: 0x8, addend: 0x0, symName: __ZNSt3__16vectorINS_10unique_ptrI17llm_graph_input_iNS_14default_deleteIS2_EEEENS_9allocatorIS5_EEE20__throw_length_errorB8ne200100Ev, symObjAddr: 0xC580, symBinAddr: 0x4D210, symSize: 0x10 }
  - { offset: 0x202CD6, size: 0x8, addend: 0x0, symName: __ZN16llm_graph_result10set_paramsERK16llm_graph_params, symObjAddr: 0x42B0, symBinAddr: 0x45200, symSize: 0x20 }
  - { offset: 0x202D15, size: 0x8, addend: 0x0, symName: __ZN16llm_graph_paramsaSERKS_, symObjAddr: 0x42D0, symBinAddr: 0x45220, symSize: 0x1F0 }
  - { offset: 0x203359, size: 0x8, addend: 0x0, symName: __ZNSt3__16__treeINS_12__value_typeIiP13llama_samplerEENS_19__map_value_compareIiS4_NS_4lessIiEELb1EEENS_9allocatorIS4_EEE14__assign_multiINS_21__tree_const_iteratorIS4_PNS_11__tree_nodeIS4_PvEElEEEEvT_SJ_, symObjAddr: 0xB7C0, symBinAddr: 0x4C6C0, symSize: 0x350 }
  - { offset: 0x203A40, size: 0x8, addend: 0x0, symName: __ZNSt3__110__function12__value_funcIFvRK12llama_ubatchP11ggml_tensorPKciEE4swapB8ne200100ERSA_, symObjAddr: 0xBCD0, symBinAddr: 0x4CA10, symSize: 0x140 }
  - { offset: 0x2045D4, size: 0x8, addend: 0x0, symName: __ZN17llm_graph_contextC2ERK16llm_graph_params, symObjAddr: 0x44C0, symBinAddr: 0x45410, symSize: 0x200 }
  - { offset: 0x204AA9, size: 0x8, addend: 0x0, symName: __ZN17llm_graph_contextC1ERK16llm_graph_params, symObjAddr: 0x46C0, symBinAddr: 0x45610, symSize: 0x10 }
  - { offset: 0x204BC7, size: 0x8, addend: 0x0, symName: __ZNK17llm_graph_context2cbEP11ggml_tensorPKci, symObjAddr: 0x46D0, symBinAddr: 0x45620, symSize: 0x50 }
  - { offset: 0x204CD2, size: 0x8, addend: 0x0, symName: __ZNK17llm_graph_context10build_cvecEP11ggml_tensori, symObjAddr: 0x4720, symBinAddr: 0x45670, symSize: 0x20 }
  - { offset: 0x204D70, size: 0x8, addend: 0x0, symName: __ZNK17llm_graph_context13build_lora_mmEP11ggml_tensorS1_, symObjAddr: 0x4740, symBinAddr: 0x45690, symSize: 0x100 }
  - { offset: 0x204F9D, size: 0x8, addend: 0x0, symName: __ZNK17llm_graph_context16build_lora_mm_idEP11ggml_tensorS1_S1_, symObjAddr: 0x4840, symBinAddr: 0x45790, symSize: 0x140 }
  - { offset: 0x2051CD, size: 0x8, addend: 0x0, symName: __ZNK17llm_graph_context10build_normEP11ggml_tensorS1_S1_13llm_norm_typei, symObjAddr: 0x4980, symBinAddr: 0x458D0, symSize: 0x1C0 }
  - { offset: 0x20556C, size: 0x8, addend: 0x0, symName: __ZNK17llm_graph_context9build_ffnEP11ggml_tensorS1_S1_S1_S1_S1_S1_S1_S1_S1_S1_15llm_ffn_op_type17llm_ffn_gate_typei, symObjAddr: 0x4B40, symBinAddr: 0x45A90, symSize: 0x750 }
  - { offset: 0x2067D8, size: 0x8, addend: 0x0, symName: __ZNK17llm_graph_context13build_moe_ffnEP11ggml_tensorS1_S1_S1_S1_S1_xx15llm_ffn_op_typebbf29llama_expert_gating_func_typeiS1_, symObjAddr: 0x5290, symBinAddr: 0x461E0, symSize: 0xA0 }
  - { offset: 0x206930, size: 0x8, addend: 0x0, symName: __ZNK17llm_graph_context13build_moe_ffnEP11ggml_tensorS1_S1_S1_S1_S1_S1_S1_S1_S1_xx15llm_ffn_op_typebbf29llama_expert_gating_func_typeiS1_, symObjAddr: 0x5330, symBinAddr: 0x46280, symSize: 0x1110 }
  - { offset: 0x208F14, size: 0x8, addend: 0x0, symName: __ZNK17llm_graph_context14build_inp_embdEP11ggml_tensor, symObjAddr: 0x6440, symBinAddr: 0x47390, symSize: 0x4A0 }
  - { offset: 0x209AF9, size: 0x8, addend: 0x0, symName: __ZNK17llm_graph_context13build_inp_posEv, symObjAddr: 0x68E0, symBinAddr: 0x47830, symSize: 0x1E0 }
  - { offset: 0x20A0E0, size: 0x8, addend: 0x0, symName: __ZNK17llm_graph_context20build_inp_attn_scaleEv, symObjAddr: 0x6AC0, symBinAddr: 0x47A10, symSize: 0x1E0 }
  - { offset: 0x20A700, size: 0x8, addend: 0x0, symName: __ZNK17llm_graph_context17build_inp_out_idsEv, symObjAddr: 0x6CA0, symBinAddr: 0x47BF0, symSize: 0x210 }
  - { offset: 0x20ACEB, size: 0x8, addend: 0x0, symName: __ZNK17llm_graph_context14build_inp_meanEv, symObjAddr: 0x6EB0, symBinAddr: 0x47E00, symSize: 0x1E0 }
  - { offset: 0x20B2BB, size: 0x8, addend: 0x0, symName: __ZNK17llm_graph_context13build_inp_clsEv, symObjAddr: 0x7090, symBinAddr: 0x47FE0, symSize: 0x1E0 }
  - { offset: 0x20B891, size: 0x8, addend: 0x0, symName: __ZNK17llm_graph_context20build_inp_cross_embdEv, symObjAddr: 0x7270, symBinAddr: 0x481C0, symSize: 0x200 }
  - { offset: 0x20BEA0, size: 0x8, addend: 0x0, symName: __ZNK17llm_graph_context24build_inp_pos_bucket_encEv, symObjAddr: 0x7470, symBinAddr: 0x483C0, symSize: 0x1E0 }
  - { offset: 0x20C501, size: 0x8, addend: 0x0, symName: __ZNK17llm_graph_context24build_inp_pos_bucket_decEv, symObjAddr: 0x7650, symBinAddr: 0x485A0, symSize: 0x220 }
  - { offset: 0x20CB8D, size: 0x8, addend: 0x0, symName: __ZNK17llm_graph_context14build_pos_biasEP11ggml_tensorS1_, symObjAddr: 0x7870, symBinAddr: 0x487C0, symSize: 0x120 }
  - { offset: 0x20CE97, size: 0x8, addend: 0x0, symName: __ZNK17llm_graph_context14build_attn_mhaEP11ggml_tensorS1_S1_S1_S1_S1_S1_fi, symObjAddr: 0x7990, symBinAddr: 0x488E0, symSize: 0x7D0 }
  - { offset: 0x20E0FA, size: 0x8, addend: 0x0, symName: __ZNK17llm_graph_context23build_attn_inp_no_cacheEv, symObjAddr: 0x8160, symBinAddr: 0x490B0, symSize: 0x2D0 }
  - { offset: 0x20E711, size: 0x8, addend: 0x0, symName: __ZNK17llm_graph_context10build_attnEP29llm_graph_input_attn_no_cacheP11ggml_tensorS3_S3_S3_S3_S3_S3_S3_fi, symObjAddr: 0x8430, symBinAddr: 0x49380, symSize: 0x120 }
  - { offset: 0x20EA65, size: 0x8, addend: 0x0, symName: __ZNK17llm_graph_context17build_attn_inp_kvEv, symObjAddr: 0x8550, symBinAddr: 0x494A0, symSize: 0x180 }
  - { offset: 0x20EFFD, size: 0x8, addend: 0x0, symName: __ZL22build_attn_inp_kv_implP12ggml_contextRK12llama_ubatchRK13llama_hparamsRK13llama_cparamsPK22llama_kv_cache_context, symObjAddr: 0x86D0, symBinAddr: 0x49620, symSize: 0x1E0 }
  - { offset: 0x20F453, size: 0x8, addend: 0x0, symName: __ZNK17llm_graph_context10build_attnEP23llm_graph_input_attn_kvP11ggml_tensorS3_S3_S3_S3_S3_S3_S3_fi, symObjAddr: 0x88B0, symBinAddr: 0x49800, symSize: 0x1F0 }
  - { offset: 0x20F8D9, size: 0x8, addend: 0x0, symName: __ZNK17llm_graph_context16build_attn_inp_kEv, symObjAddr: 0x8AA0, symBinAddr: 0x499F0, symSize: 0x2E0 }
  - { offset: 0x20FF60, size: 0x8, addend: 0x0, symName: __ZNK17llm_graph_context10build_attnEP22llm_graph_input_attn_kP11ggml_tensorS3_S3_S3_S3_S3_S3_S3_fi, symObjAddr: 0x8D80, symBinAddr: 0x49CD0, symSize: 0x1B0 }
  - { offset: 0x2102B2, size: 0x8, addend: 0x0, symName: __ZNK17llm_graph_context10build_attnEP28llm_graph_input_attn_kv_iswaP11ggml_tensorS3_S3_S3_S3_S3_S3_S3_fi, symObjAddr: 0x8F30, symBinAddr: 0x49E80, symSize: 0x230 }
  - { offset: 0x210631, size: 0x8, addend: 0x0, symName: __ZNK17llm_graph_context20build_attn_inp_crossEv, symObjAddr: 0x9160, symBinAddr: 0x4A0B0, symSize: 0x210 }
  - { offset: 0x210C19, size: 0x8, addend: 0x0, symName: __ZNK17llm_graph_context10build_attnEP26llm_graph_input_attn_crossP11ggml_tensorS3_S3_S3_S3_S3_S3_S3_fi, symObjAddr: 0x9370, symBinAddr: 0x4A2C0, symSize: 0x110 }
  - { offset: 0x210F6A, size: 0x8, addend: 0x0, symName: __ZNK17llm_graph_context22build_attn_inp_kv_iswaEv, symObjAddr: 0x9480, symBinAddr: 0x4A3D0, symSize: 0x420 }
  - { offset: 0x211698, size: 0x8, addend: 0x0, symName: __ZNK17llm_graph_context8build_rsEP11ggml_tensorS1_S1_iijjjiRKNSt3__18functionIFS1_P12ggml_contextS1_S1_EEE, symObjAddr: 0x98A0, symBinAddr: 0x4A7F0, symSize: 0x180 }
  - { offset: 0x211A2B, size: 0x8, addend: 0x0, symName: __ZNK17llm_graph_context12build_rs_inpEv, symObjAddr: 0x9A20, symBinAddr: 0x4A970, symSize: 0x170 }
  - { offset: 0x211FC3, size: 0x8, addend: 0x0, symName: __ZL17build_rs_inp_implP12ggml_contextRK12llama_ubatchPK30llama_memory_recurrent_context, symObjAddr: 0x9B90, symBinAddr: 0x4AAE0, symSize: 0x110 }
  - { offset: 0x21236B, size: 0x8, addend: 0x0, symName: __ZNK17llm_graph_context8build_rsEP18llm_graph_input_rsP11ggml_tensoriiRKNSt3__18functionIFS3_P12ggml_contextS3_S3_EEE, symObjAddr: 0x9CA0, symBinAddr: 0x4ABF0, symSize: 0xA0 }
  - { offset: 0x212700, size: 0x8, addend: 0x0, symName: __ZNK17llm_graph_context27build_rwkv_token_shift_loadEP18llm_graph_input_rsRK12llama_ubatchi, symObjAddr: 0x9D40, symBinAddr: 0x4AC90, symSize: 0x1B0 }
  - { offset: 0x212A81, size: 0x8, addend: 0x0, symName: __ZNK17llm_graph_context28build_rwkv_token_shift_storeEP11ggml_tensorRK12llama_ubatchi, symObjAddr: 0x9EF0, symBinAddr: 0x4AE40, symSize: 0xF0 }
  - { offset: 0x212CBA, size: 0x8, addend: 0x0, symName: __ZNK17llm_graph_context20build_inp_mem_hybridEv, symObjAddr: 0x9FE0, symBinAddr: 0x4AF30, symSize: 0x280 }
  - { offset: 0x2136D5, size: 0x8, addend: 0x0, symName: __ZNK17llm_graph_context25build_inp_mem_hybrid_iswaEv, symObjAddr: 0xA260, symBinAddr: 0x4B1B0, symSize: 0x4A0 }
  - { offset: 0x214083, size: 0x8, addend: 0x0, symName: __ZNK17llm_graph_context15build_dense_outEP11ggml_tensorS1_, symObjAddr: 0xA700, symBinAddr: 0x4B650, symSize: 0x100 }
  - { offset: 0x21420C, size: 0x8, addend: 0x0, symName: __ZNK17llm_graph_context13build_poolingEP11ggml_tensorS1_S1_S1_, symObjAddr: 0xA800, symBinAddr: 0x4B750, symSize: 0x220 }
  - { offset: 0x21421F, size: 0x8, addend: 0x0, symName: __ZNK17llm_graph_context13build_poolingEP11ggml_tensorS1_S1_S1_, symObjAddr: 0xA800, symBinAddr: 0x4B750, symSize: 0x220 }
  - { offset: 0x2150C7, size: 0x8, addend: 0x0, symName: __ZNK17llm_graph_context14build_samplingEv, symObjAddr: 0xAA20, symBinAddr: 0x4B970, symSize: 0x820 }
  - { offset: 0x216D4E, size: 0x8, addend: 0x0, symName: __ZNSt3__16__treeINS_12__value_typeIiiEENS_19__map_value_compareIiS2_NS_4lessIiEELb1EEENS_9allocatorIS2_EEE7destroyEPNS_11__tree_nodeIS2_PvEE, symObjAddr: 0xBE30, symBinAddr: 0x4CB50, symSize: 0x40 }
  - { offset: 0x216FC6, size: 0x8, addend: 0x0, symName: __ZN20llm_graph_input_embdD1Ev, symObjAddr: 0xB350, symBinAddr: 0x4C2A0, symSize: 0x10 }
  - { offset: 0x216FEF, size: 0x8, addend: 0x0, symName: __ZN20llm_graph_input_embdD0Ev, symObjAddr: 0xB360, symBinAddr: 0x4C2B0, symSize: 0x10 }
  - { offset: 0x217018, size: 0x8, addend: 0x0, symName: __ZN19llm_graph_input_posD1Ev, symObjAddr: 0xB370, symBinAddr: 0x4C2C0, symSize: 0x10 }
  - { offset: 0x217041, size: 0x8, addend: 0x0, symName: __ZN19llm_graph_input_posD0Ev, symObjAddr: 0xB380, symBinAddr: 0x4C2D0, symSize: 0x10 }
  - { offset: 0x21706A, size: 0x8, addend: 0x0, symName: __ZN25llm_graph_input_attn_tempD1Ev, symObjAddr: 0xB390, symBinAddr: 0x4C2E0, symSize: 0x10 }
  - { offset: 0x217093, size: 0x8, addend: 0x0, symName: __ZN25llm_graph_input_attn_tempD0Ev, symObjAddr: 0xB3A0, symBinAddr: 0x4C2F0, symSize: 0x10 }
  - { offset: 0x2170BC, size: 0x8, addend: 0x0, symName: __ZN17llm_graph_input_i9can_reuseERK16llm_graph_params, symObjAddr: 0xB3B0, symBinAddr: 0x4C300, symSize: 0x10 }
  - { offset: 0x2170EF, size: 0x8, addend: 0x0, symName: __ZN26llm_graph_input_pos_bucketD1Ev, symObjAddr: 0xB3C0, symBinAddr: 0x4C310, symSize: 0x10 }
  - { offset: 0x217118, size: 0x8, addend: 0x0, symName: __ZN26llm_graph_input_pos_bucketD0Ev, symObjAddr: 0xB3D0, symBinAddr: 0x4C320, symSize: 0x10 }
  - { offset: 0x217141, size: 0x8, addend: 0x0, symName: __ZN29llm_graph_input_pos_bucket_kvD1Ev, symObjAddr: 0xB3E0, symBinAddr: 0x4C330, symSize: 0x10 }
  - { offset: 0x21716A, size: 0x8, addend: 0x0, symName: __ZN29llm_graph_input_pos_bucket_kvD0Ev, symObjAddr: 0xB3F0, symBinAddr: 0x4C340, symSize: 0x10 }
  - { offset: 0x217193, size: 0x8, addend: 0x0, symName: __ZN23llm_graph_input_out_idsD1Ev, symObjAddr: 0xB400, symBinAddr: 0x4C350, symSize: 0x10 }
  - { offset: 0x2171BC, size: 0x8, addend: 0x0, symName: __ZN23llm_graph_input_out_idsD0Ev, symObjAddr: 0xB410, symBinAddr: 0x4C360, symSize: 0x10 }
  - { offset: 0x2171E5, size: 0x8, addend: 0x0, symName: __ZN20llm_graph_input_meanD1Ev, symObjAddr: 0xB420, symBinAddr: 0x4C370, symSize: 0x10 }
  - { offset: 0x21720E, size: 0x8, addend: 0x0, symName: __ZN20llm_graph_input_meanD0Ev, symObjAddr: 0xB430, symBinAddr: 0x4C380, symSize: 0x10 }
  - { offset: 0x217237, size: 0x8, addend: 0x0, symName: __ZN19llm_graph_input_clsD1Ev, symObjAddr: 0xB440, symBinAddr: 0x4C390, symSize: 0x10 }
  - { offset: 0x217260, size: 0x8, addend: 0x0, symName: __ZN19llm_graph_input_clsD0Ev, symObjAddr: 0xB450, symBinAddr: 0x4C3A0, symSize: 0x10 }
  - { offset: 0x217289, size: 0x8, addend: 0x0, symName: __ZN18llm_graph_input_rsD1Ev, symObjAddr: 0xB460, symBinAddr: 0x4C3B0, symSize: 0x10 }
  - { offset: 0x2172B2, size: 0x8, addend: 0x0, symName: __ZN18llm_graph_input_rsD0Ev, symObjAddr: 0xB470, symBinAddr: 0x4C3C0, symSize: 0x10 }
  - { offset: 0x2172DB, size: 0x8, addend: 0x0, symName: __ZN26llm_graph_input_cross_embdD1Ev, symObjAddr: 0xB480, symBinAddr: 0x4C3D0, symSize: 0x10 }
  - { offset: 0x217304, size: 0x8, addend: 0x0, symName: __ZN26llm_graph_input_cross_embdD0Ev, symObjAddr: 0xB490, symBinAddr: 0x4C3E0, symSize: 0x10 }
  - { offset: 0x21732D, size: 0x8, addend: 0x0, symName: __ZN29llm_graph_input_attn_no_cacheD1Ev, symObjAddr: 0xB4A0, symBinAddr: 0x4C3F0, symSize: 0x10 }
  - { offset: 0x217356, size: 0x8, addend: 0x0, symName: __ZN29llm_graph_input_attn_no_cacheD0Ev, symObjAddr: 0xB4B0, symBinAddr: 0x4C400, symSize: 0x10 }
  - { offset: 0x21737F, size: 0x8, addend: 0x0, symName: __ZN23llm_graph_input_attn_kvD1Ev, symObjAddr: 0xB4C0, symBinAddr: 0x4C410, symSize: 0x10 }
  - { offset: 0x2173A8, size: 0x8, addend: 0x0, symName: __ZN23llm_graph_input_attn_kvD0Ev, symObjAddr: 0xB4D0, symBinAddr: 0x4C420, symSize: 0x10 }
  - { offset: 0x2173D1, size: 0x8, addend: 0x0, symName: __ZN22llm_graph_input_attn_kD1Ev, symObjAddr: 0xB4E0, symBinAddr: 0x4C430, symSize: 0x10 }
  - { offset: 0x2173FA, size: 0x8, addend: 0x0, symName: __ZN22llm_graph_input_attn_kD0Ev, symObjAddr: 0xB4F0, symBinAddr: 0x4C440, symSize: 0x10 }
  - { offset: 0x217423, size: 0x8, addend: 0x0, symName: __ZN28llm_graph_input_attn_kv_iswaD1Ev, symObjAddr: 0xB500, symBinAddr: 0x4C450, symSize: 0x10 }
  - { offset: 0x21744C, size: 0x8, addend: 0x0, symName: __ZN28llm_graph_input_attn_kv_iswaD0Ev, symObjAddr: 0xB510, symBinAddr: 0x4C460, symSize: 0x10 }
  - { offset: 0x217475, size: 0x8, addend: 0x0, symName: __ZN26llm_graph_input_attn_crossD1Ev, symObjAddr: 0xB520, symBinAddr: 0x4C470, symSize: 0x10 }
  - { offset: 0x21749E, size: 0x8, addend: 0x0, symName: __ZN26llm_graph_input_attn_crossD0Ev, symObjAddr: 0xB530, symBinAddr: 0x4C480, symSize: 0x10 }
  - { offset: 0x2174E1, size: 0x8, addend: 0x0, symName: __ZN26llm_graph_input_mem_hybridD1Ev, symObjAddr: 0xB540, symBinAddr: 0x4C490, symSize: 0x50 }
  - { offset: 0x217671, size: 0x8, addend: 0x0, symName: __ZN26llm_graph_input_mem_hybridD0Ev, symObjAddr: 0xB590, symBinAddr: 0x4C4E0, symSize: 0x50 }
  - { offset: 0x21782E, size: 0x8, addend: 0x0, symName: __ZN31llm_graph_input_mem_hybrid_iswaD1Ev, symObjAddr: 0xB5E0, symBinAddr: 0x4C530, symSize: 0x50 }
  - { offset: 0x2179BE, size: 0x8, addend: 0x0, symName: __ZN31llm_graph_input_mem_hybrid_iswaD0Ev, symObjAddr: 0xB630, symBinAddr: 0x4C580, symSize: 0x50 }
  - { offset: 0x217B7B, size: 0x8, addend: 0x0, symName: __ZN24llm_graph_input_samplingD1Ev, symObjAddr: 0xB680, symBinAddr: 0x4C5D0, symSize: 0x20 }
  - { offset: 0x217C55, size: 0x8, addend: 0x0, symName: __ZN24llm_graph_input_samplingD0Ev, symObjAddr: 0xB6A0, symBinAddr: 0x4C5F0, symSize: 0x30 }
  - { offset: 0x217D59, size: 0x8, addend: 0x0, symName: __ZN16llm_graph_resultD1Ev, symObjAddr: 0xB6D0, symBinAddr: 0x4C620, symSize: 0x10 }
  - { offset: 0x217D8F, size: 0x8, addend: 0x0, symName: __ZN16llm_graph_resultD2Ev, symObjAddr: 0xC940, symBinAddr: 0x4D370, symSize: 0x161 }
  - { offset: 0x218655, size: 0x8, addend: 0x0, symName: __ZN16llm_graph_resultD0Ev, symObjAddr: 0xB6E0, symBinAddr: 0x4C630, symSize: 0x20 }
  - { offset: 0x2186D2, size: 0x8, addend: 0x0, symName: __ZN17llm_graph_contextD1Ev, symObjAddr: 0xB700, symBinAddr: 0x4C650, symSize: 0x30 }
  - { offset: 0x2187AC, size: 0x8, addend: 0x0, symName: __ZN17llm_graph_contextD0Ev, symObjAddr: 0xB730, symBinAddr: 0x4C680, symSize: 0x40 }
  - { offset: 0x218C5F, size: 0x8, addend: 0x0, symName: __ZN17llm_graph_input_iD1Ev, symObjAddr: 0xBE10, symBinAddr: 0x2ABD50, symSize: 0x10 }
  - { offset: 0x218C88, size: 0x8, addend: 0x0, symName: __ZN17llm_graph_input_iD0Ev, symObjAddr: 0xBE20, symBinAddr: 0x2ABD60, symSize: 0x10 }
  - { offset: 0x2190B4, size: 0x8, addend: 0x0, symName: __ZNSt3__112__hash_tableIiNS_4hashIiEENS_8equal_toIiEENS_9allocatorIiEEE11__do_rehashILb1EEEvm, symObjAddr: 0xC380, symBinAddr: 0x4D020, symSize: 0x1B0 }
  - { offset: 0x21997F, size: 0x8, addend: 0x0, symName: __ZNSt3__117bad_function_callD1Ev, symObjAddr: 0xC830, symBinAddr: 0x4D260, symSize: 0x10 }
  - { offset: 0x2199D5, size: 0x8, addend: 0x0, symName: __ZNSt3__117bad_function_callD0Ev, symObjAddr: 0xC840, symBinAddr: 0x4D270, symSize: 0x20 }
  - { offset: 0x219A38, size: 0x8, addend: 0x0, symName: __ZNSt3__110__function6__funcIPFP11ggml_tensorP12ggml_contextS3_S3_ENS_9allocatorIS7_EES6_ED1Ev, symObjAddr: 0xC860, symBinAddr: 0x4D290, symSize: 0x10 }
  - { offset: 0x219A64, size: 0x8, addend: 0x0, symName: __ZNSt3__110__function6__funcIPFP11ggml_tensorP12ggml_contextS3_S3_ENS_9allocatorIS7_EES6_ED0Ev, symObjAddr: 0xC870, symBinAddr: 0x4D2A0, symSize: 0x10 }
  - { offset: 0x219B7B, size: 0x8, addend: 0x0, symName: __ZNKSt3__110__function6__funcIPFP11ggml_tensorP12ggml_contextS3_S3_ENS_9allocatorIS7_EES6_E7__cloneEv, symObjAddr: 0xC880, symBinAddr: 0x4D2B0, symSize: 0x30 }
  - { offset: 0x219D8C, size: 0x8, addend: 0x0, symName: __ZNKSt3__110__function6__funcIPFP11ggml_tensorP12ggml_contextS3_S3_ENS_9allocatorIS7_EES6_E7__cloneEPNS0_6__baseIS6_EE, symObjAddr: 0xC8B0, symBinAddr: 0x4D2E0, symSize: 0x20 }
  - { offset: 0x219E7F, size: 0x8, addend: 0x0, symName: __ZNSt3__110__function6__funcIPFP11ggml_tensorP12ggml_contextS3_S3_ENS_9allocatorIS7_EES6_E7destroyEv, symObjAddr: 0xC8D0, symBinAddr: 0x4D300, symSize: 0x10 }
  - { offset: 0x219ED6, size: 0x8, addend: 0x0, symName: __ZNSt3__110__function6__funcIPFP11ggml_tensorP12ggml_contextS3_S3_ENS_9allocatorIS7_EES6_E18destroy_deallocateEv, symObjAddr: 0xC8E0, symBinAddr: 0x4D310, symSize: 0x10 }
  - { offset: 0x21A00C, size: 0x8, addend: 0x0, symName: __ZNSt3__110__function6__funcIPFP11ggml_tensorP12ggml_contextS3_S3_ENS_9allocatorIS7_EES6_EclEOS5_OS3_SC_, symObjAddr: 0xC8F0, symBinAddr: 0x4D320, symSize: 0x20 }
  - { offset: 0x21A192, size: 0x8, addend: 0x0, symName: __ZNKSt3__110__function6__funcIPFP11ggml_tensorP12ggml_contextS3_S3_ENS_9allocatorIS7_EES6_E6targetERKSt9type_info, symObjAddr: 0xC910, symBinAddr: 0x4D340, symSize: 0x20 }
  - { offset: 0x21A200, size: 0x8, addend: 0x0, symName: __ZNKSt3__110__function6__funcIPFP11ggml_tensorP12ggml_contextS3_S3_ENS_9allocatorIS7_EES6_E11target_typeEv, symObjAddr: 0xC930, symBinAddr: 0x4D360, symSize: 0x10 }
  - { offset: 0x21C1BD, size: 0x8, addend: 0x0, symName: __ZN13llama_hparams15set_swa_patternEjb, symObjAddr: 0x0, symBinAddr: 0x4D4E0, symSize: 0x140 }
  - { offset: 0x21E2E7, size: 0x8, addend: 0x0, symName: __ZN13llama_hparams15set_swa_patternEjb, symObjAddr: 0x0, symBinAddr: 0x4D4E0, symSize: 0x140 }
  - { offset: 0x21E35A, size: 0x8, addend: 0x0, symName: __ZNK13llama_hparams10is_swa_anyEv, symObjAddr: 0x140, symBinAddr: 0x4D620, symSize: 0x60 }
  - { offset: 0x21E397, size: 0x8, addend: 0x0, symName: __ZNK13llama_hparams6n_headEj, symObjAddr: 0x1A0, symBinAddr: 0x4D680, symSize: 0x30 }
  - { offset: 0x21E3F6, size: 0x8, addend: 0x0, symName: __ZNK13llama_hparams9n_head_kvEj, symObjAddr: 0x1D0, symBinAddr: 0x4D6B0, symSize: 0x30 }
  - { offset: 0x21E435, size: 0x8, addend: 0x0, symName: __ZNK13llama_hparams4n_ffEj, symObjAddr: 0x200, symBinAddr: 0x4D6E0, symSize: 0x30 }
  - { offset: 0x21E4CD, size: 0x8, addend: 0x0, symName: __ZNK13llama_hparams5n_gqaEj, symObjAddr: 0x230, symBinAddr: 0x4D710, symSize: 0x40 }
  - { offset: 0x21E574, size: 0x8, addend: 0x0, symName: __ZNK13llama_hparams10n_embd_inpEv, symObjAddr: 0x270, symBinAddr: 0x4D750, symSize: 0x20 }
  - { offset: 0x21E5AB, size: 0x8, addend: 0x0, symName: __ZNK13llama_hparams10n_embd_outEv, symObjAddr: 0x290, symBinAddr: 0x4D770, symSize: 0x20 }
  - { offset: 0x21E5D2, size: 0x8, addend: 0x0, symName: __ZNK13llama_hparams12n_embd_k_gqaEj, symObjAddr: 0x2B0, symBinAddr: 0x4D790, symSize: 0x40 }
  - { offset: 0x21E636, size: 0x8, addend: 0x0, symName: __ZNK13llama_hparams12n_embd_v_gqaEj, symObjAddr: 0x2F0, symBinAddr: 0x4D7D0, symSize: 0x40 }
  - { offset: 0x21E6CD, size: 0x8, addend: 0x0, symName: __ZNK13llama_hparams24is_n_embd_k_gqa_variableEv, symObjAddr: 0x330, symBinAddr: 0x4D810, symSize: 0x70 }
  - { offset: 0x21E7C1, size: 0x8, addend: 0x0, symName: __ZNK13llama_hparams24is_n_embd_v_gqa_variableEv, symObjAddr: 0x3A0, symBinAddr: 0x4D880, symSize: 0x70 }
  - { offset: 0x21E887, size: 0x8, addend: 0x0, symName: __ZNK13llama_hparams16n_embd_k_gqa_maxEv, symObjAddr: 0x410, symBinAddr: 0x4D8F0, symSize: 0x100 }
  - { offset: 0x21E965, size: 0x8, addend: 0x0, symName: __ZNK13llama_hparams16n_embd_v_gqa_maxEv, symObjAddr: 0x510, symBinAddr: 0x4D9F0, symSize: 0x100 }
  - { offset: 0x21EA43, size: 0x8, addend: 0x0, symName: __ZNK13llama_hparams8n_embd_rEv, symObjAddr: 0x610, symBinAddr: 0x4DAF0, symSize: 0x50 }
  - { offset: 0x21EA6A, size: 0x8, addend: 0x0, symName: __ZNK13llama_hparams8n_embd_sEv, symObjAddr: 0x660, symBinAddr: 0x4DB40, symSize: 0x30 }
  - { offset: 0x21EA91, size: 0x8, addend: 0x0, symName: __ZNK13llama_hparams12is_recurrentEj, symObjAddr: 0x690, symBinAddr: 0x4DB70, symSize: 0x40 }
  - { offset: 0x21EADE, size: 0x8, addend: 0x0, symName: __ZNK13llama_hparams14n_pos_per_embdEv, symObjAddr: 0x6D0, symBinAddr: 0x4DBB0, symSize: 0x20 }
  - { offset: 0x21EB05, size: 0x8, addend: 0x0, symName: __ZNK13llama_hparams6is_swaEj, symObjAddr: 0x6F0, symBinAddr: 0x4DBD0, symSize: 0x40 }
  - { offset: 0x21EB52, size: 0x8, addend: 0x0, symName: __ZNK13llama_hparams6is_mlaEv, symObjAddr: 0x730, symBinAddr: 0x4DC10, symSize: 0x20 }
  - { offset: 0x21EB8A, size: 0x8, addend: 0x0, symName: __ZNK13llama_hparams17n_embd_head_k_mlaEv, symObjAddr: 0x750, symBinAddr: 0x4DC30, symSize: 0x30 }
  - { offset: 0x21EBC7, size: 0x8, addend: 0x0, symName: __ZNK13llama_hparams17n_embd_head_v_mlaEv, symObjAddr: 0x780, symBinAddr: 0x4DC60, symSize: 0x30 }
  - { offset: 0x21EC0A, size: 0x8, addend: 0x0, symName: __ZNK13llama_hparams6has_kvEj, symObjAddr: 0x7B0, symBinAddr: 0x4DC90, symSize: 0x20 }
  - { offset: 0x21EC54, size: 0x8, addend: 0x0, symName: __ZNK13llama_hparams10n_layer_kvEv, symObjAddr: 0x7D0, symBinAddr: 0x4DCB0, symSize: 0x110 }
  - { offset: 0x21ECB9, size: 0x8, addend: 0x0, symName: __ZNK13llama_hparams9use_mropeEv, symObjAddr: 0x8E0, symBinAddr: 0x4DDC0, symSize: 0x1D }
  - { offset: 0x220C0E, size: 0x8, addend: 0x0, symName: __ZL14g_logger_state.0, symObjAddr: 0x1910, symBinAddr: 0x31A280, symSize: 0x0 }
  - { offset: 0x220C19, size: 0x8, addend: 0x0, symName: __ZL14g_logger_state.1, symObjAddr: 0x2E998, symBinAddr: 0x3A6088, symSize: 0x0 }
  - { offset: 0x227DEA, size: 0x8, addend: 0x0, symName: __ZN9time_measC2ERxb, symObjAddr: 0x0, symBinAddr: 0x4DDE0, symSize: 0x30 }
  - { offset: 0x227E71, size: 0x8, addend: 0x0, symName: __ZN9time_measC1ERxb, symObjAddr: 0x30, symBinAddr: 0x4DE10, symSize: 0x30 }
  - { offset: 0x227EF6, size: 0x8, addend: 0x0, symName: __ZN9time_measD2Ev, symObjAddr: 0x60, symBinAddr: 0x4DE40, symSize: 0x30 }
  - { offset: 0x227F42, size: 0x8, addend: 0x0, symName: __ZN9time_measD1Ev, symObjAddr: 0xA0, symBinAddr: 0x4DE70, symSize: 0x30 }
  - { offset: 0x227F93, size: 0x8, addend: 0x0, symName: _llama_log_get, symObjAddr: 0xD0, symBinAddr: 0x4DEA0, symSize: 0x10 }
  - { offset: 0x227FFC, size: 0x8, addend: 0x0, symName: _llama_log_set, symObjAddr: 0xE0, symBinAddr: 0x4DEB0, symSize: 0x40 }
  - { offset: 0x228060, size: 0x8, addend: 0x0, symName: __Z26llama_log_callback_default14ggml_log_levelPKcPv, symObjAddr: 0x120, symBinAddr: 0x4DEF0, symSize: 0x30 }
  - { offset: 0x2282FE, size: 0x8, addend: 0x0, symName: __Z18llama_log_internal14ggml_log_levelPKcz, symObjAddr: 0x150, symBinAddr: 0x4DF20, symSize: 0x170 }
  - { offset: 0x2286C7, size: 0x8, addend: 0x0, symName: __Z11replace_allRNSt3__112basic_stringIcNS_11char_traitsIcEENS_9allocatorIcEEEERKS5_S8_, symObjAddr: 0x2C0, symBinAddr: 0x4E090, symSize: 0x250 }
  - { offset: 0x2290B7, size: 0x8, addend: 0x0, symName: __Z6formatPKcz, symObjAddr: 0x510, symBinAddr: 0x4E2E0, symSize: 0x200 }
  - { offset: 0x2297CF, size: 0x8, addend: 0x0, symName: __Z25llama_format_tensor_shapeRKNSt3__16vectorIxNS_9allocatorIxEEEE, symObjAddr: 0x710, symBinAddr: 0x4E4E0, symSize: 0x180 }
  - { offset: 0x229BD5, size: 0x8, addend: 0x0, symName: __ZNSt3__16vectorIxNS_9allocatorIxEEE20__throw_out_of_rangeB8ne200100Ev, symObjAddr: 0x1360, symBinAddr: 0x4EEA0, symSize: 0x10 }
  - { offset: 0x229C0D, size: 0x8, addend: 0x0, symName: __Z25llama_format_tensor_shapePK11ggml_tensor, symObjAddr: 0x890, symBinAddr: 0x4E660, symSize: 0x180 }
  - { offset: 0x22A172, size: 0x8, addend: 0x0, symName: __Z14gguf_kv_to_strPK12gguf_contexti, symObjAddr: 0xA10, symBinAddr: 0x4E7E0, symSize: 0x590 }
  - { offset: 0x22B732, size: 0x8, addend: 0x0, symName: __ZL16gguf_data_to_str9gguf_typePKvi, symObjAddr: 0x1120, symBinAddr: 0x4ED70, symSize: 0x130 }
  - { offset: 0x22E2D4, size: 0x8, addend: 0x0, symName: __ZN16llama_io_write_i12write_stringERKNSt3__112basic_stringIcNS0_11char_traitsIcEENS0_9allocatorIcEEEE, symObjAddr: 0x0, symBinAddr: 0x4EEB0, symSize: 0x60 }
  - { offset: 0x230D56, size: 0x8, addend: 0x0, symName: __ZN16llama_io_write_i12write_stringERKNSt3__112basic_stringIcNS0_11char_traitsIcEENS0_9allocatorIcEEEE, symObjAddr: 0x0, symBinAddr: 0x4EEB0, symSize: 0x60 }
  - { offset: 0x230E70, size: 0x8, addend: 0x0, symName: __ZN15llama_io_read_i11read_stringERNSt3__112basic_stringIcNS0_11char_traitsIcEENS0_9allocatorIcEEEE, symObjAddr: 0x60, symBinAddr: 0x4EF10, symSize: 0x43 }
  - { offset: 0x232DE9, size: 0x8, addend: 0x0, symName: __ZN19llama_kv_cache_iswaC2ERK11llama_model9ggml_typeS3_bbbbjjjjRKNSt3__18functionIFbiEEERKNS5_IFiiEEE, symObjAddr: 0x0, symBinAddr: 0x4EF60, symSize: 0x3A0 }
  - { offset: 0x25793A, size: 0x8, addend: 0x0, symName: __ZNSt3__111make_uniqueB8ne200100I27llama_kv_cache_iswa_contextJP19llama_kv_cache_iswaNS_6vectorIN14llama_kv_cache9slot_infoENS_9allocatorIS6_EEEES9_NS4_I12llama_ubatchNS7_ISA_EEEEELi0EEENS_10unique_ptrIT_NS_14default_deleteISE_EEEEDpOT0_, symObjAddr: 0xEF0, symBinAddr: 0x4FE10, symSize: 0x260 }
  - { offset: 0x260CEB, size: 0x8, addend: 0x0, symName: __ZN19llama_kv_cache_iswaC1ERK11llama_model9ggml_typeS3_bbbbjjjjRKNSt3__18functionIFbiEEERKNS5_IFiiEEE, symObjAddr: 0x3A0, symBinAddr: 0x4F300, symSize: 0x10 }
  - { offset: 0x2617BB, size: 0x8, addend: 0x0, symName: __ZN19llama_kv_cache_iswaC2ERK11llama_model9ggml_typeS3_bbbbjjjjRKNSt3__18functionIFbiEEERKNS5_IFiiEEE, symObjAddr: 0x0, symBinAddr: 0x4EF60, symSize: 0x3A0 }
  - { offset: 0x262045, size: 0x8, addend: 0x0, symName: __ZN19llama_kv_cache_iswa5clearEb, symObjAddr: 0x3B0, symBinAddr: 0x4F310, symSize: 0x30 }
  - { offset: 0x2620D9, size: 0x8, addend: 0x0, symName: __ZN19llama_kv_cache_iswa6seq_rmEiii, symObjAddr: 0x3E0, symBinAddr: 0x4F340, symSize: 0x50 }
  - { offset: 0x2621BC, size: 0x8, addend: 0x0, symName: __ZN19llama_kv_cache_iswa6seq_cpEiiii, symObjAddr: 0x430, symBinAddr: 0x4F390, symSize: 0x50 }
  - { offset: 0x262292, size: 0x8, addend: 0x0, symName: __ZN19llama_kv_cache_iswa8seq_keepEi, symObjAddr: 0x480, symBinAddr: 0x4F3E0, symSize: 0x30 }
  - { offset: 0x262326, size: 0x8, addend: 0x0, symName: __ZN19llama_kv_cache_iswa7seq_addEiiii, symObjAddr: 0x4B0, symBinAddr: 0x4F410, symSize: 0x50 }
  - { offset: 0x2623FC, size: 0x8, addend: 0x0, symName: __ZN19llama_kv_cache_iswa7seq_divEiiii, symObjAddr: 0x500, symBinAddr: 0x4F460, symSize: 0x50 }
  - { offset: 0x2624D2, size: 0x8, addend: 0x0, symName: __ZNK19llama_kv_cache_iswa11seq_pos_minEi, symObjAddr: 0x550, symBinAddr: 0x4F4B0, symSize: 0x20 }
  - { offset: 0x26253B, size: 0x8, addend: 0x0, symName: __ZNK19llama_kv_cache_iswa11seq_pos_maxEi, symObjAddr: 0x570, symBinAddr: 0x4F4D0, symSize: 0x20 }
  - { offset: 0x262B57, size: 0x8, addend: 0x0, symName: __ZNK19llama_kv_cache_iswa16memory_breakdownEv, symObjAddr: 0x590, symBinAddr: 0x4F4F0, symSize: 0x180 }
  - { offset: 0x263D5B, size: 0x8, addend: 0x0, symName: __ZN19llama_kv_cache_iswa10init_batchER18llama_batch_allocrjb, symObjAddr: 0x710, symBinAddr: 0x4F670, symSize: 0x7A0 }
  - { offset: 0x266195, size: 0x8, addend: 0x0, symName: __ZNSt3__16vectorI12llama_ubatchNS_9allocatorIS1_EEE24__emplace_back_slow_pathIJS1_EEEPS1_DpOT_, symObjAddr: 0x23E0, symBinAddr: 0x51100, symSize: 0x230 }
  - { offset: 0x266828, size: 0x8, addend: 0x0, symName: __ZNSt3__16vectorIN14llama_kv_cache9slot_infoENS_9allocatorIS2_EEED1B8ne200100Ev, symObjAddr: 0x1150, symBinAddr: 0x50070, symSize: 0xC0 }
  - { offset: 0x266D78, size: 0x8, addend: 0x0, symName: __ZNSt3__16vectorI12llama_ubatchNS_9allocatorIS1_EEED1B8ne200100Ev, symObjAddr: 0x1210, symBinAddr: 0x50130, symSize: 0x90 }
  - { offset: 0x26717B, size: 0x8, addend: 0x0, symName: __ZN27llama_kv_cache_iswa_contextC2EP19llama_kv_cache_iswaNSt3__16vectorIN14llama_kv_cache9slot_infoENS2_9allocatorIS5_EEEES8_NS3_I12llama_ubatchNS6_IS9_EEEE, symObjAddr: 0x1660, symBinAddr: 0x50580, symSize: 0x5B0 }
  - { offset: 0x268D65, size: 0x8, addend: 0x0, symName: __ZN19llama_kv_cache_iswa9init_fullEv, symObjAddr: 0x12A0, symBinAddr: 0x501C0, symSize: 0x50 }
  - { offset: 0x268E0B, size: 0x8, addend: 0x0, symName: __ZN27llama_kv_cache_iswa_contextC2EP19llama_kv_cache_iswa, symObjAddr: 0x14A0, symBinAddr: 0x503C0, symSize: 0xC0 }
  - { offset: 0x269100, size: 0x8, addend: 0x0, symName: __ZN19llama_kv_cache_iswa11init_updateEP13llama_contextb, symObjAddr: 0x12F0, symBinAddr: 0x50210, symSize: 0x60 }
  - { offset: 0x2691EA, size: 0x8, addend: 0x0, symName: __ZN27llama_kv_cache_iswa_contextC2EP19llama_kv_cache_iswaP13llama_contextb, symObjAddr: 0x1570, symBinAddr: 0x50490, symSize: 0xE0 }
  - { offset: 0x2694D1, size: 0x8, addend: 0x0, symName: __ZNK19llama_kv_cache_iswa13get_can_shiftEv, symObjAddr: 0x1350, symBinAddr: 0x50270, symSize: 0x30 }
  - { offset: 0x269536, size: 0x8, addend: 0x0, symName: __ZNK19llama_kv_cache_iswa11state_writeER16llama_io_write_iij, symObjAddr: 0x1380, symBinAddr: 0x502A0, symSize: 0x50 }
  - { offset: 0x2695E0, size: 0x8, addend: 0x0, symName: __ZN19llama_kv_cache_iswa10state_readER15llama_io_read_iij, symObjAddr: 0x13D0, symBinAddr: 0x502F0, symSize: 0x50 }
  - { offset: 0x2696A0, size: 0x8, addend: 0x0, symName: __ZNK19llama_kv_cache_iswa8get_baseEv, symObjAddr: 0x1420, symBinAddr: 0x50340, symSize: 0x10 }
  - { offset: 0x2696DE, size: 0x8, addend: 0x0, symName: __ZNK19llama_kv_cache_iswa7get_swaEv, symObjAddr: 0x1430, symBinAddr: 0x50350, symSize: 0x10 }
  - { offset: 0x26971C, size: 0x8, addend: 0x0, symName: __ZN27llama_kv_cache_iswa_contextC2E19llama_memory_status, symObjAddr: 0x1440, symBinAddr: 0x50360, symSize: 0x30 }
  - { offset: 0x26977F, size: 0x8, addend: 0x0, symName: __ZN27llama_kv_cache_iswa_contextC1E19llama_memory_status, symObjAddr: 0x1470, symBinAddr: 0x50390, symSize: 0x30 }
  - { offset: 0x2698FA, size: 0x8, addend: 0x0, symName: __ZN27llama_kv_cache_iswa_contextC1EP19llama_kv_cache_iswa, symObjAddr: 0x1560, symBinAddr: 0x50480, symSize: 0x10 }
  - { offset: 0x26993E, size: 0x8, addend: 0x0, symName: __ZN27llama_kv_cache_iswa_contextC1EP19llama_kv_cache_iswaP13llama_contextb, symObjAddr: 0x1650, symBinAddr: 0x50570, symSize: 0x10 }
  - { offset: 0x269D3C, size: 0x8, addend: 0x0, symName: __ZNSt3__16vectorI12llama_ubatchNS_9allocatorIS1_EEE20__throw_length_errorB8ne200100Ev, symObjAddr: 0x2610, symBinAddr: 0x51330, symSize: 0x10 }
  - { offset: 0x269D5F, size: 0x8, addend: 0x0, symName: __ZNSt3__128__exception_guard_exceptionsINS_6vectorI12llama_ubatchNS_9allocatorIS2_EEE16__destroy_vectorEED1B8ne200100Ev, symObjAddr: 0x26A0, symBinAddr: 0x51340, symSize: 0x93 }
  - { offset: 0x269F90, size: 0x8, addend: 0x0, symName: __ZN27llama_kv_cache_iswa_contextC1EP19llama_kv_cache_iswaNSt3__16vectorIN14llama_kv_cache9slot_infoENS2_9allocatorIS5_EEEES8_NS3_I12llama_ubatchNS6_IS9_EEEE, symObjAddr: 0x1C10, symBinAddr: 0x50B30, symSize: 0x10 }
  - { offset: 0x26A001, size: 0x8, addend: 0x0, symName: __ZN27llama_kv_cache_iswa_contextD2Ev, symObjAddr: 0x1C20, symBinAddr: 0x50B40, symSize: 0xC0 }
  - { offset: 0x26A3B2, size: 0x8, addend: 0x0, symName: __ZN27llama_kv_cache_iswa_contextD1Ev, symObjAddr: 0x1CE0, symBinAddr: 0x50C00, symSize: 0xC0 }
  - { offset: 0x26A782, size: 0x8, addend: 0x0, symName: __ZN27llama_kv_cache_iswa_contextD0Ev, symObjAddr: 0x1DA0, symBinAddr: 0x50CC0, symSize: 0xC0 }
  - { offset: 0x26AB5C, size: 0x8, addend: 0x0, symName: __ZN27llama_kv_cache_iswa_context4nextEv, symObjAddr: 0x1E60, symBinAddr: 0x50D80, symSize: 0x50 }
  - { offset: 0x26ABF3, size: 0x8, addend: 0x0, symName: __ZN27llama_kv_cache_iswa_context5applyEv, symObjAddr: 0x1EB0, symBinAddr: 0x50DD0, symSize: 0x30 }
  - { offset: 0x26AC83, size: 0x8, addend: 0x0, symName: __ZNK27llama_kv_cache_iswa_context10get_statusEv, symObjAddr: 0x1EE0, symBinAddr: 0x50E00, symSize: 0x10 }
  - { offset: 0x26ACCD, size: 0x8, addend: 0x0, symName: __ZNK27llama_kv_cache_iswa_context10get_ubatchEv, symObjAddr: 0x1EF0, symBinAddr: 0x50E10, symSize: 0x10 }
  - { offset: 0x26AD2A, size: 0x8, addend: 0x0, symName: __ZNK27llama_kv_cache_iswa_context8get_baseEv, symObjAddr: 0x1F00, symBinAddr: 0x50E20, symSize: 0x10 }
  - { offset: 0x26AD71, size: 0x8, addend: 0x0, symName: __ZNK27llama_kv_cache_iswa_context7get_swaEv, symObjAddr: 0x1F10, symBinAddr: 0x50E30, symSize: 0x10 }
  - { offset: 0x26ADD2, size: 0x8, addend: 0x0, symName: __ZN19llama_kv_cache_iswaD1Ev, symObjAddr: 0x1F20, symBinAddr: 0x50E40, symSize: 0x50 }
  - { offset: 0x26AF5F, size: 0x8, addend: 0x0, symName: __ZN19llama_kv_cache_iswaD0Ev, symObjAddr: 0x1F70, symBinAddr: 0x50E90, symSize: 0x50 }
  - { offset: 0x26B0FE, size: 0x8, addend: 0x0, symName: '__ZNSt3__110__function6__funcIZN19llama_kv_cache_iswaC1ERK11llama_model9ggml_typeS6_bbbbjjjjRKNS_8functionIFbiEEERKNS7_IFiiEEEE3$_0NS_9allocatorISG_EES8_ED1Ev', symObjAddr: 0x1FC0, symBinAddr: 0x50EE0, symSize: 0x10 }
  - { offset: 0x26B128, size: 0x8, addend: 0x0, symName: '__ZNSt3__110__function6__funcIZN19llama_kv_cache_iswaC1ERK11llama_model9ggml_typeS6_bbbbjjjjRKNS_8functionIFbiEEERKNS7_IFiiEEEE3$_0NS_9allocatorISG_EES8_ED0Ev', symObjAddr: 0x1FD0, symBinAddr: 0x50EF0, symSize: 0x10 }
  - { offset: 0x26B23F, size: 0x8, addend: 0x0, symName: '__ZNKSt3__110__function6__funcIZN19llama_kv_cache_iswaC1ERK11llama_model9ggml_typeS6_bbbbjjjjRKNS_8functionIFbiEEERKNS7_IFiiEEEE3$_0NS_9allocatorISG_EES8_E7__cloneEv', symObjAddr: 0x1FE0, symBinAddr: 0x50F00, symSize: 0x30 }
  - { offset: 0x26B450, size: 0x8, addend: 0x0, symName: '__ZNKSt3__110__function6__funcIZN19llama_kv_cache_iswaC1ERK11llama_model9ggml_typeS6_bbbbjjjjRKNS_8functionIFbiEEERKNS7_IFiiEEEE3$_0NS_9allocatorISG_EES8_E7__cloneEPNS0_6__baseIS8_EE', symObjAddr: 0x2010, symBinAddr: 0x50F30, symSize: 0x20 }
  - { offset: 0x26B51F, size: 0x8, addend: 0x0, symName: '__ZNSt3__110__function6__funcIZN19llama_kv_cache_iswaC1ERK11llama_model9ggml_typeS6_bbbbjjjjRKNS_8functionIFbiEEERKNS7_IFiiEEEE3$_0NS_9allocatorISG_EES8_E7destroyEv', symObjAddr: 0x2030, symBinAddr: 0x50F50, symSize: 0x10 }
  - { offset: 0x26B574, size: 0x8, addend: 0x0, symName: '__ZNSt3__110__function6__funcIZN19llama_kv_cache_iswaC1ERK11llama_model9ggml_typeS6_bbbbjjjjRKNS_8functionIFbiEEERKNS7_IFiiEEEE3$_0NS_9allocatorISG_EES8_E18destroy_deallocateEv', symObjAddr: 0x2040, symBinAddr: 0x50F60, symSize: 0x10 }
  - { offset: 0x26B71D, size: 0x8, addend: 0x0, symName: '__ZNSt3__110__function6__funcIZN19llama_kv_cache_iswaC1ERK11llama_model9ggml_typeS6_bbbbjjjjRKNS_8functionIFbiEEERKNS7_IFiiEEEE3$_0NS_9allocatorISG_EES8_EclEOi', symObjAddr: 0x2050, symBinAddr: 0x50F70, symSize: 0x50 }
  - { offset: 0x26B8C1, size: 0x8, addend: 0x0, symName: '__ZNKSt3__110__function6__funcIZN19llama_kv_cache_iswaC1ERK11llama_model9ggml_typeS6_bbbbjjjjRKNS_8functionIFbiEEERKNS7_IFiiEEEE3$_0NS_9allocatorISG_EES8_E6targetERKSt9type_info', symObjAddr: 0x20A0, symBinAddr: 0x50FC0, symSize: 0x20 }
  - { offset: 0x26B931, size: 0x8, addend: 0x0, symName: '__ZNKSt3__110__function6__funcIZN19llama_kv_cache_iswaC1ERK11llama_model9ggml_typeS6_bbbbjjjjRKNS_8functionIFbiEEERKNS7_IFiiEEEE3$_0NS_9allocatorISG_EES8_E11target_typeEv', symObjAddr: 0x20C0, symBinAddr: 0x50FE0, symSize: 0x10 }
  - { offset: 0x26B954, size: 0x8, addend: 0x0, symName: '__ZNSt3__110__function6__funcIZN19llama_kv_cache_iswaC1ERK11llama_model9ggml_typeS6_bbbbjjjjRKNS_8functionIFbiEEERKNS7_IFiiEEEE3$_1NS_9allocatorISG_EES8_ED1Ev', symObjAddr: 0x2110, symBinAddr: 0x50FF0, symSize: 0x10 }
  - { offset: 0x26B97E, size: 0x8, addend: 0x0, symName: '__ZNSt3__110__function6__funcIZN19llama_kv_cache_iswaC1ERK11llama_model9ggml_typeS6_bbbbjjjjRKNS_8functionIFbiEEERKNS7_IFiiEEEE3$_1NS_9allocatorISG_EES8_ED0Ev', symObjAddr: 0x2120, symBinAddr: 0x51000, symSize: 0x10 }
  - { offset: 0x26BA95, size: 0x8, addend: 0x0, symName: '__ZNKSt3__110__function6__funcIZN19llama_kv_cache_iswaC1ERK11llama_model9ggml_typeS6_bbbbjjjjRKNS_8functionIFbiEEERKNS7_IFiiEEEE3$_1NS_9allocatorISG_EES8_E7__cloneEv', symObjAddr: 0x2130, symBinAddr: 0x51010, symSize: 0x30 }
  - { offset: 0x26BCA6, size: 0x8, addend: 0x0, symName: '__ZNKSt3__110__function6__funcIZN19llama_kv_cache_iswaC1ERK11llama_model9ggml_typeS6_bbbbjjjjRKNS_8functionIFbiEEERKNS7_IFiiEEEE3$_1NS_9allocatorISG_EES8_E7__cloneEPNS0_6__baseIS8_EE', symObjAddr: 0x2160, symBinAddr: 0x51040, symSize: 0x20 }
  - { offset: 0x26BD75, size: 0x8, addend: 0x0, symName: '__ZNSt3__110__function6__funcIZN19llama_kv_cache_iswaC1ERK11llama_model9ggml_typeS6_bbbbjjjjRKNS_8functionIFbiEEERKNS7_IFiiEEEE3$_1NS_9allocatorISG_EES8_E7destroyEv', symObjAddr: 0x2180, symBinAddr: 0x51060, symSize: 0x10 }
  - { offset: 0x26BDCA, size: 0x8, addend: 0x0, symName: '__ZNSt3__110__function6__funcIZN19llama_kv_cache_iswaC1ERK11llama_model9ggml_typeS6_bbbbjjjjRKNS_8functionIFbiEEERKNS7_IFiiEEEE3$_1NS_9allocatorISG_EES8_E18destroy_deallocateEv', symObjAddr: 0x2190, symBinAddr: 0x51070, symSize: 0x10 }
  - { offset: 0x26BEF5, size: 0x8, addend: 0x0, symName: '__ZNSt3__110__function6__funcIZN19llama_kv_cache_iswaC1ERK11llama_model9ggml_typeS6_bbbbjjjjRKNS_8functionIFbiEEERKNS7_IFiiEEEE3$_1NS_9allocatorISG_EES8_EclEOi', symObjAddr: 0x21A0, symBinAddr: 0x51080, symSize: 0x50 }
  - { offset: 0x26C053, size: 0x8, addend: 0x0, symName: '__ZNKSt3__110__function6__funcIZN19llama_kv_cache_iswaC1ERK11llama_model9ggml_typeS6_bbbbjjjjRKNS_8functionIFbiEEERKNS7_IFiiEEEE3$_1NS_9allocatorISG_EES8_E6targetERKSt9type_info', symObjAddr: 0x21F0, symBinAddr: 0x510D0, symSize: 0x20 }
  - { offset: 0x26C0C3, size: 0x8, addend: 0x0, symName: '__ZNKSt3__110__function6__funcIZN19llama_kv_cache_iswaC1ERK11llama_model9ggml_typeS6_bbbbjjjjRKNS_8functionIFbiEEERKNS7_IFiiEEEE3$_1NS_9allocatorISG_EES8_E11target_typeEv', symObjAddr: 0x2210, symBinAddr: 0x510F0, symSize: 0x10 }
  - { offset: 0x2AB36B, size: 0x8, addend: 0x0, symName: __ZNSt3__135__uninitialized_allocator_copy_implB8ne200100INS_9allocatorINS_6vectorIjNS1_IjEEEEEEPS4_S6_S6_EET2_RT_T0_T1_S7_, symObjAddr: 0x13B80, symBinAddr: 0x645C0, symSize: 0x100 }
  - { offset: 0x2AC687, size: 0x8, addend: 0x0, symName: __ZNSt3__134__uninitialized_allocator_relocateB8ne200100INS_9allocatorIN14llama_kv_cache9slot_infoEEEPS3_EEvRT_T0_S8_S8_, symObjAddr: 0x15D80, symBinAddr: 0x66130, symSize: 0x110 }
  - { offset: 0x2AC6E2, size: 0x8, addend: 0x0, symName: __ZNSt3__134__uninitialized_allocator_relocateB8ne200100INS_9allocatorIN14llama_kv_cache9slot_infoEEEPS3_EEvRT_T0_S8_S8_, symObjAddr: 0x15D80, symBinAddr: 0x66130, symSize: 0x110 }
  - { offset: 0x2B5983, size: 0x8, addend: 0x0, symName: __ZN14llama_kv_cacheC2ERK11llama_model9ggml_typeS3_bbbjjjj14llama_swa_typeRKNSt3__18functionIFbiEEERKNS6_IFiiEEE, symObjAddr: 0x0, symBinAddr: 0x513E0, symSize: 0x1670 }
  - { offset: 0x2B9575, size: 0x8, addend: 0x0, symName: __ZN14llama_kv_cache7prepareERKNSt3__16vectorI12llama_ubatchNS0_9allocatorIS2_EEEE, symObjAddr: 0x3AC0, symBinAddr: 0x54E60, symSize: 0x1380 }
  - { offset: 0x2C011E, size: 0x8, addend: 0x0, symName: __ZNSt3__16vectorI14llama_kv_cellsNS_9allocatorIS1_EEE8__appendEm, symObjAddr: 0x144F0, symBinAddr: 0x64BA0, symSize: 0x370 }
  - { offset: 0x2C089E, size: 0x8, addend: 0x0, symName: __ZNSt3__19allocatorI14llama_kv_cellsE7destroyB8ne200100EPS1_, symObjAddr: 0x14290, symBinAddr: 0x64AA0, symSize: 0xA0 }
  - { offset: 0x2C0F26, size: 0x8, addend: 0x0, symName: __ZN14llama_kv_cells6resizeEj, symObjAddr: 0x1670, symBinAddr: 0x52A50, symSize: 0x180 }
  - { offset: 0x2C1445, size: 0x8, addend: 0x0, symName: __ZNSt3__16vectorIjNS_9allocatorIjEEE8__appendEmRKj, symObjAddr: 0x149E0, symBinAddr: 0x65090, symSize: 0x200 }
  - { offset: 0x2C19DE, size: 0x8, addend: 0x0, symName: __ZNSt3__112__hash_tableINS_17__hash_value_typeIiiEENS_22__unordered_map_hasherIiS2_NS_4hashIiEENS_8equal_toIiEELb1EEENS_21__unordered_map_equalIiS2_S7_S5_Lb1EEENS_9allocatorIS2_EEE25__emplace_unique_key_argsIiJRKNS_21piecewise_construct_tENS_5tupleIJOiEEENSI_IJEEEEEENS_4pairINS_15__hash_iteratorIPNS_11__hash_nodeIS2_PvEEEEbEERKT_DpOT0_, symObjAddr: 0x14C60, symBinAddr: 0x65290, symSize: 0x4A0 }
  - { offset: 0x2C213E, size: 0x8, addend: 0x0, symName: __ZNSt3__16vectorIN14llama_kv_cache8kv_layerENS_9allocatorIS2_EEE24__emplace_back_slow_pathIJS2_EEEPS2_DpOT_, symObjAddr: 0x152B0, symBinAddr: 0x658E0, symSize: 0x240 }
  - { offset: 0x2C2A1C, size: 0x8, addend: 0x0, symName: __ZNSt3__112__hash_tableINS_17__hash_value_typeIiiEENS_22__unordered_map_hasherIiS2_NS_4hashIiEENS_8equal_toIiEELb1EEENS_21__unordered_map_equalIiS2_S7_S5_Lb1EEENS_9allocatorIS2_EEE25__emplace_unique_key_argsIiJRKNS_21piecewise_construct_tENS_5tupleIJRKiEEENSI_IJEEEEEENS_4pairINS_15__hash_iteratorIPNS_11__hash_nodeIS2_PvEEEEbEERKT_DpOT0_, symObjAddr: 0x15500, symBinAddr: 0x65B30, symSize: 0x4A0 }
  - { offset: 0x2C326B, size: 0x8, addend: 0x0, symName: __ZNSt3__16__treeINS_12__value_typeIP24ggml_backend_buffer_typeNS_10unique_ptrI12ggml_context20ggml_context_deleterEEEENS_19__map_value_compareIS3_S8_ZN14llama_kv_cacheC1ERK11llama_model9ggml_typeSE_bbbjjjj14llama_swa_typeRKNS_8functionIFbiEEERKNSG_IFiiEEEE28ggml_backend_buft_comparatorLb1EEENS_9allocatorIS8_EEE7destroyEPNS_11__tree_nodeIS8_PvEE, symObjAddr: 0x14330, symBinAddr: 0x64B40, symSize: 0x60 }
  - { offset: 0x2C3477, size: 0x8, addend: 0x0, symName: __ZNSt3__112__hash_tableINS_17__hash_value_typeIiiEENS_22__unordered_map_hasherIiS2_NS_4hashIiEENS_8equal_toIiEELb1EEENS_21__unordered_map_equalIiS2_S7_S5_Lb1EEENS_9allocatorIS2_EEE25__emplace_unique_key_argsIiJRKNS_21piecewise_construct_tENS_5tupleIJOiEEENSI_IJEEEEEENS_4pairINS_15__hash_iteratorIPNS_11__hash_nodeIS2_PvEEEEbEERKT_DpOT0_, symObjAddr: 0x14C60, symBinAddr: 0x65290, symSize: 0x4A0 }
  - { offset: 0x2C3482, size: 0x8, addend: 0x0, symName: __ZNSt3__16vectorINS_4pairINS_10unique_ptrI12ggml_context20ggml_context_deleterEENS2_I19ggml_backend_buffer27ggml_backend_buffer_deleterEEEENS_9allocatorIS9_EEE20__throw_length_errorB8ne200100Ev, symObjAddr: 0x159A0, symBinAddr: 0x65FD0, symSize: 0x10 }
  - { offset: 0x2C34A5, size: 0x8, addend: 0x0, symName: __ZN14llama_kv_cache8kv_layerD1Ev, symObjAddr: 0x17F0, symBinAddr: 0x52BD0, symSize: 0x40 }
  - { offset: 0x2C3719, size: 0x8, addend: 0x0, symName: __ZNSt3__113unordered_mapIiiNS_4hashIiEENS_8equal_toIiEENS_9allocatorINS_4pairIKiiEEEEED1B8ne200100Ev, symObjAddr: 0x18D0, symBinAddr: 0x52CB0, symSize: 0x50 }
  - { offset: 0x2C399D, size: 0x8, addend: 0x0, symName: __ZNSt3__16vectorIN14llama_kv_cache8kv_layerENS_9allocatorIS2_EEED1B8ne200100Ev, symObjAddr: 0x1920, symBinAddr: 0x52D00, symSize: 0x80 }
  - { offset: 0x2C3D91, size: 0x8, addend: 0x0, symName: __ZN14llama_kv_cache16stream_copy_infoD1Ev, symObjAddr: 0x19A0, symBinAddr: 0x52D80, symSize: 0x40 }
  - { offset: 0x2C4001, size: 0x8, addend: 0x0, symName: __ZNSt3__16vectorI14llama_kv_cellsNS_9allocatorIS1_EEED1B8ne200100Ev, symObjAddr: 0x19E0, symBinAddr: 0x52DC0, symSize: 0x70 }
  - { offset: 0x2C4173, size: 0x8, addend: 0x0, symName: __ZNSt3__16vectorINS_4pairINS_10unique_ptrI12ggml_context20ggml_context_deleterEENS2_I19ggml_backend_buffer27ggml_backend_buffer_deleterEEEENS_9allocatorIS9_EEED1B8ne200100Ev, symObjAddr: 0x1A50, symBinAddr: 0x52E30, symSize: 0xA0 }
  - { offset: 0x2C4A15, size: 0x8, addend: 0x0, symName: __ZNSt3__16vectorI17llama_kv_cell_extNS_9allocatorIS1_EEE8__appendEm, symObjAddr: 0x12EA0, symBinAddr: 0x63EB0, symSize: 0x150 }
  - { offset: 0x2C4E89, size: 0x8, addend: 0x0, symName: __ZNSt3__16vectorINS_6bitsetILm256EEENS_9allocatorIS2_EEE8__appendEm, symObjAddr: 0x13000, symBinAddr: 0x64010, symSize: 0x140 }
  - { offset: 0x2C532F, size: 0x8, addend: 0x0, symName: __ZNSt3__16__treeIjNS_4lessIjEENS_9allocatorIjEEE7destroyEPNS_11__tree_nodeIjPvEE, symObjAddr: 0x132D0, symBinAddr: 0x64150, symSize: 0x40 }
  - { offset: 0x2C54FC, size: 0x8, addend: 0x0, symName: __ZNK14llama_kv_cache12size_k_bytesEv, symObjAddr: 0x1830, symBinAddr: 0x52C10, symSize: 0x50 }
  - { offset: 0x2C55E5, size: 0x8, addend: 0x0, symName: __ZNK14llama_kv_cache12size_v_bytesEv, symObjAddr: 0x1880, symBinAddr: 0x52C60, symSize: 0x50 }
  - { offset: 0x2C5D15, size: 0x8, addend: 0x0, symName: __ZN14llama_kv_cacheC1ERK11llama_model9ggml_typeS3_bbbjjjj14llama_swa_typeRKNSt3__18functionIFbiEEERKNS6_IFiiEEE, symObjAddr: 0x1AF0, symBinAddr: 0x52ED0, symSize: 0x10 }
  - { offset: 0x2C5EF5, size: 0x8, addend: 0x0, symName: __ZN14llama_kv_cache5clearEb, symObjAddr: 0x1B00, symBinAddr: 0x52EE0, symSize: 0x170 }
  - { offset: 0x2C694C, size: 0x8, addend: 0x0, symName: __ZN14llama_kv_cache6seq_rmEiii, symObjAddr: 0x1C70, symBinAddr: 0x53050, symSize: 0x4F0 }
  - { offset: 0x2C753A, size: 0x8, addend: 0x0, symName: __ZN14llama_kv_cells6seq_rmEji, symObjAddr: 0x2160, symBinAddr: 0x53540, symSize: 0x200 }
  - { offset: 0x2C8413, size: 0x8, addend: 0x0, symName: __ZN14llama_kv_cache6seq_cpEiiii, symObjAddr: 0x2360, symBinAddr: 0x53740, symSize: 0x6E0 }
  - { offset: 0x2C9941, size: 0x8, addend: 0x0, symName: __ZN14llama_kv_cells7seq_addEji, symObjAddr: 0x2A40, symBinAddr: 0x53E20, symSize: 0x110 }
  - { offset: 0x2C9D03, size: 0x8, addend: 0x0, symName: __ZN14llama_kv_cells7pos_addEji, symObjAddr: 0x2B80, symBinAddr: 0x53F60, symSize: 0x110 }
  - { offset: 0x2CA174, size: 0x8, addend: 0x0, symName: __ZNSt3__16vectorI14llama_kv_cellsNS_9allocatorIS1_EEE8__appendEm, symObjAddr: 0x144F0, symBinAddr: 0x64BA0, symSize: 0x370 }
  - { offset: 0x2CA5E7, size: 0x8, addend: 0x0, symName: __ZNK14llama_kv_cache8get_sizeEv, symObjAddr: 0x2B50, symBinAddr: 0x53F30, symSize: 0x30 }
  - { offset: 0x2CA69D, size: 0x8, addend: 0x0, symName: __ZN14llama_kv_cells10seq_pos_rmEj, symObjAddr: 0x13750, symBinAddr: 0x64190, symSize: 0x120 }
  - { offset: 0x2CAA76, size: 0x8, addend: 0x0, symName: __ZN14llama_kv_cells11seq_pos_addEj, symObjAddr: 0x13870, symBinAddr: 0x642B0, symSize: 0x140 }
  - { offset: 0x2CAE68, size: 0x8, addend: 0x0, symName: __ZN14llama_kv_cache8seq_keepEi, symObjAddr: 0x2C90, symBinAddr: 0x54070, symSize: 0xF0 }
  - { offset: 0x2CAFFD, size: 0x8, addend: 0x0, symName: __ZN14llama_kv_cells8seq_keepEji, symObjAddr: 0x2D80, symBinAddr: 0x54160, symSize: 0x250 }
  - { offset: 0x2CB979, size: 0x8, addend: 0x0, symName: __ZN14llama_kv_cache7seq_addEiiii, symObjAddr: 0x2FD0, symBinAddr: 0x543B0, symSize: 0x240 }
  - { offset: 0x2CBBF6, size: 0x8, addend: 0x0, symName: __ZN14llama_kv_cache7seq_divEiiii, symObjAddr: 0x3210, symBinAddr: 0x545F0, symSize: 0x200 }
  - { offset: 0x2CBEDB, size: 0x8, addend: 0x0, symName: __ZNK14llama_kv_cache11seq_pos_minEi, symObjAddr: 0x3410, symBinAddr: 0x547F0, symSize: 0x80 }
  - { offset: 0x2CC052, size: 0x8, addend: 0x0, symName: __ZNK14llama_kv_cache11seq_pos_maxEi, symObjAddr: 0x3490, symBinAddr: 0x54870, symSize: 0xC0 }
  - { offset: 0x2CC731, size: 0x8, addend: 0x0, symName: __ZNK14llama_kv_cache16memory_breakdownEv, symObjAddr: 0x3550, symBinAddr: 0x54930, symSize: 0x1E0 }
  - { offset: 0x2CD5F0, size: 0x8, addend: 0x0, symName: __ZN14llama_kv_cache10init_batchER18llama_batch_allocrjb, symObjAddr: 0x3730, symBinAddr: 0x54B10, symSize: 0x350 }
  - { offset: 0x2D0140, size: 0x8, addend: 0x0, symName: __ZNK14llama_kv_cache9find_slotERK12llama_ubatchb, symObjAddr: 0x5600, symBinAddr: 0x56850, symSize: 0xF50 }
  - { offset: 0x2D2643, size: 0x8, addend: 0x0, symName: __ZN14llama_kv_cache9slot_infoC2ERKS0_, symObjAddr: 0x139B0, symBinAddr: 0x643F0, symSize: 0x150 }
  - { offset: 0x2D2C2F, size: 0x8, addend: 0x0, symName: __ZNSt3__16vectorIN14llama_kv_cache9slot_infoENS_9allocatorIS2_EEE24__emplace_back_slow_pathIJRKS2_EEEPS2_DpOT_, symObjAddr: 0x15C30, symBinAddr: 0x65FE0, symSize: 0x140 }
  - { offset: 0x2D3044, size: 0x8, addend: 0x0, symName: __ZZN14llama_kv_cache7prepareERKNSt3__16vectorI12llama_ubatchNS0_9allocatorIS2_EEEEEN7state_tD1Ev, symObjAddr: 0x6680, symBinAddr: 0x578D0, symSize: 0xD0 }
  - { offset: 0x2D36F2, size: 0x8, addend: 0x0, symName: __ZN14llama_kv_cache12apply_ubatchERKNS_9slot_infoERK12llama_ubatch, symObjAddr: 0x6750, symBinAddr: 0x579A0, symSize: 0xB60 }
  - { offset: 0x2D51EB, size: 0x8, addend: 0x0, symName: __ZN14llama_kv_cells3setERKNSt3__16vectorIjNS0_9allocatorIjEEEERKS_, symObjAddr: 0x72B0, symBinAddr: 0x58500, symSize: 0x280 }
  - { offset: 0x2D596B, size: 0x8, addend: 0x0, symName: __ZNSt3__16vectorI14llama_kv_cellsNS_9allocatorIS1_EEE20__throw_length_errorB8ne200100Ev, symObjAddr: 0x14860, symBinAddr: 0x64F10, symSize: 0x10 }
  - { offset: 0x2D5983, size: 0x8, addend: 0x0, symName: __ZNSt3__19allocatorI14llama_kv_cellsE9constructB8ne200100IS1_JS1_EEEvPT_DpOT0_, symObjAddr: 0x14870, symBinAddr: 0x64F20, symSize: 0x170 }
  - { offset: 0x2D598E, size: 0x8, addend: 0x0, symName: __ZNSt3__16vectorIZN14llama_kv_cache7prepareERKNS0_I12llama_ubatchNS_9allocatorIS2_EEEEE7state_tNS3_IS8_EEE20__throw_length_errorB8ne200100Ev, symObjAddr: 0x15F50, symBinAddr: 0x66300, symSize: 0x10 }
  - { offset: 0x2D59A6, size: 0x8, addend: 0x0, symName: __ZNSt3__113unordered_mapIiNS_6vectorIjNS_9allocatorIjEEEENS_4hashIiEENS_8equal_toIiEENS2_INS_4pairIKiS4_EEEEED1B8ne200100Ev, symObjAddr: 0x15F60, symBinAddr: 0x66310, symSize: 0x70 }
  - { offset: 0x2D59B1, size: 0x8, addend: 0x0, symName: __ZN14llama_kv_cache9slot_infoD1Ev, symObjAddr: 0x6550, symBinAddr: 0x577A0, symSize: 0x90 }
  - { offset: 0x2D5D87, size: 0x8, addend: 0x0, symName: __ZN14llama_kv_cellsD1Ev, symObjAddr: 0x65E0, symBinAddr: 0x57830, symSize: 0xA0 }
  - { offset: 0x2D63E8, size: 0x8, addend: 0x0, symName: __ZNSt3__16vectorIZN14llama_kv_cache7prepareERKNS0_I12llama_ubatchNS_9allocatorIS2_EEEEE7state_tNS3_IS8_EEED1B8ne200100Ev, symObjAddr: 0x7530, symBinAddr: 0x58780, symSize: 0x70 }
  - { offset: 0x2D6576, size: 0x8, addend: 0x0, symName: __ZN14llama_kv_cache9init_fullEv, symObjAddr: 0x4F90, symBinAddr: 0x561E0, symSize: 0x50 }
  - { offset: 0x2D661F, size: 0x8, addend: 0x0, symName: __ZN22llama_kv_cache_contextC2EP14llama_kv_cache, symObjAddr: 0x12000, symBinAddr: 0x63250, symSize: 0x300 }
  - { offset: 0x2D6FCF, size: 0x8, addend: 0x0, symName: __ZN14llama_kv_cache11init_updateEP13llama_contextb, symObjAddr: 0x4FE0, symBinAddr: 0x56230, symSize: 0x390 }
  - { offset: 0x2D72EA, size: 0x8, addend: 0x0, symName: __ZNK14llama_kv_cache13get_has_shiftEv, symObjAddr: 0x5370, symBinAddr: 0x565C0, symSize: 0x290 }
  - { offset: 0x2D79A6, size: 0x8, addend: 0x0, symName: __ZNSt3__16vectorINS0_IjNS_9allocatorIjEEEENS1_IS3_EEE8__appendEm, symObjAddr: 0x140F0, symBinAddr: 0x64900, symSize: 0x1A0 }
  - { offset: 0x2D7FB5, size: 0x8, addend: 0x0, symName: __ZN14llama_kv_cache6updateEP13llama_contextbRKNS_16stream_copy_infoE, symObjAddr: 0x75A0, symBinAddr: 0x587F0, symSize: 0x340 }
  - { offset: 0x2D83BE, size: 0x8, addend: 0x0, symName: __ZNK14llama_kv_cache17build_graph_shiftEP16llm_graph_resultP13llama_context, symObjAddr: 0x78E0, symBinAddr: 0x58B30, symSize: 0x2E0 }
  - { offset: 0x2D8C44, size: 0x8, addend: 0x0, symName: __ZNK14llama_kv_cache16build_rope_shiftERK13llama_cparamsP12ggml_contextP11ggml_tensorS6_S6_ff, symObjAddr: 0xFCF0, symBinAddr: 0x60F40, symSize: 0x130 }
  - { offset: 0x2D8E30, size: 0x8, addend: 0x0, symName: __ZNK14llama_kv_cache13get_can_shiftEv, symObjAddr: 0x7BC0, symBinAddr: 0x58E10, symSize: 0x10 }
  - { offset: 0x2D8E56, size: 0x8, addend: 0x0, symName: __ZNK14llama_kv_cache12get_n_streamEv, symObjAddr: 0x7BD0, symBinAddr: 0x58E20, symSize: 0x10 }
  - { offset: 0x2D8E76, size: 0x8, addend: 0x0, symName: __ZNK14llama_kv_cache8get_n_kvERKNS_9slot_infoE, symObjAddr: 0x7BE0, symBinAddr: 0x58E30, symSize: 0xF0 }
  - { offset: 0x2D8EB5, size: 0x8, addend: 0x0, symName: __ZNK14llama_kv_cache8get_n_kvERKNS_9slot_infoE, symObjAddr: 0x7BE0, symBinAddr: 0x58E30, symSize: 0xF0 }
  - { offset: 0x2D8ED3, size: 0x8, addend: 0x0, symName: __ZNK14llama_kv_cache8get_n_kvERKNS_9slot_infoE, symObjAddr: 0x7BE0, symBinAddr: 0x58E30, symSize: 0xF0 }
  - { offset: 0x2D8EF0, size: 0x8, addend: 0x0, symName: __ZNK14llama_kv_cache8get_n_kvERKNS_9slot_infoE, symObjAddr: 0x7BE0, symBinAddr: 0x58E30, symSize: 0xF0 }
  - { offset: 0x2D9135, size: 0x8, addend: 0x0, symName: __ZNK14llama_kv_cache5get_kEP12ggml_contextijRKNS_9slot_infoE, symObjAddr: 0x7CD0, symBinAddr: 0x58F20, symSize: 0x2C0 }
  - { offset: 0x2D94F9, size: 0x8, addend: 0x0, symName: __ZNK14llama_kv_cache5get_vEP12ggml_contextijRKNS_9slot_infoE, symObjAddr: 0x7F90, symBinAddr: 0x591E0, symSize: 0x360 }
  - { offset: 0x2D98AA, size: 0x8, addend: 0x0, symName: __ZNK14llama_kv_cache5cpy_kEP12ggml_contextP11ggml_tensorS3_iRKNS_9slot_infoE, symObjAddr: 0x82F0, symBinAddr: 0x59540, symSize: 0x2A0 }
  - { offset: 0x2D9CB5, size: 0x8, addend: 0x0, symName: __ZNK14llama_kv_cache5cpy_vEP12ggml_contextP11ggml_tensorS3_iRKNS_9slot_infoE, symObjAddr: 0x8590, symBinAddr: 0x597E0, symSize: 0x380 }
  - { offset: 0x2DA1DA, size: 0x8, addend: 0x0, symName: __ZNK14llama_kv_cache18build_input_k_idxsEP12ggml_contextRK12llama_ubatch, symObjAddr: 0x8910, symBinAddr: 0x59B60, symSize: 0x30 }
  - { offset: 0x2DA245, size: 0x8, addend: 0x0, symName: __ZNK14llama_kv_cache18build_input_v_idxsEP12ggml_contextRK12llama_ubatch, symObjAddr: 0x8940, symBinAddr: 0x59B90, symSize: 0x50 }
  - { offset: 0x2DA2B8, size: 0x8, addend: 0x0, symName: __ZNK14llama_kv_cache16set_input_k_idxsEP11ggml_tensorPK12llama_ubatchRKNS_9slot_infoE, symObjAddr: 0x8990, symBinAddr: 0x59BE0, symSize: 0x410 }
  - { offset: 0x2DA480, size: 0x8, addend: 0x0, symName: __ZNK14llama_kv_cache16set_input_v_idxsEP11ggml_tensorPK12llama_ubatchRKNS_9slot_infoE, symObjAddr: 0x8DA0, symBinAddr: 0x59FF0, symSize: 0x690 }
  - { offset: 0x2DA752, size: 0x8, addend: 0x0, symName: __ZNK14llama_kv_cache17set_input_k_shiftEP11ggml_tensor, symObjAddr: 0x9430, symBinAddr: 0x5A680, symSize: 0x140 }
  - { offset: 0x2DA765, size: 0x8, addend: 0x0, symName: __ZNK14llama_kv_cache17set_input_k_shiftEP11ggml_tensor, symObjAddr: 0x9430, symBinAddr: 0x5A680, symSize: 0x140 }
  - { offset: 0x2DD23F, size: 0x8, addend: 0x0, symName: __ZNK14llama_kv_cache17set_input_kq_maskEP11ggml_tensorPK12llama_ubatchb, symObjAddr: 0x9570, symBinAddr: 0x5A7C0, symSize: 0x65D0 }
  - { offset: 0x2ED1DA, size: 0x8, addend: 0x0, symName: __ZNSt3__112__hash_tableINS_17__hash_value_typeIiNS_6vectorIjNS_9allocatorIjEEEEEENS_22__unordered_map_hasherIiS6_NS_4hashIiEENS_8equal_toIiEELb1EEENS_21__unordered_map_equalIiS6_SB_S9_Lb1EEENS3_IS6_EEE25__emplace_unique_key_argsIiJRKNS_21piecewise_construct_tENS_5tupleIJRKiEEENSL_IJEEEEEENS_4pairINS_15__hash_iteratorIPNS_11__hash_nodeIS6_PvEEEEbEERKT_DpOT0_, symObjAddr: 0x16030, symBinAddr: 0x663E0, symSize: 0x4D0 }
  - { offset: 0x2ED92E, size: 0x8, addend: 0x0, symName: __ZNSt3__112__hash_tableINS_17__hash_value_typeIijEENS_22__unordered_map_hasherIiS2_NS_4hashIiEENS_8equal_toIiEELb1EEENS_21__unordered_map_equalIiS2_S7_S5_Lb1EEENS_9allocatorIS2_EEE25__emplace_unique_key_argsIiJRKNS_21piecewise_construct_tENS_5tupleIJRKiEEENSI_IJEEEEEENS_4pairINS_15__hash_iteratorIPNS_11__hash_nodeIS2_PvEEEEbEERKT_DpOT0_, symObjAddr: 0x16700, symBinAddr: 0x66AB0, symSize: 0x4A0 }
  - { offset: 0x2EE08E, size: 0x8, addend: 0x0, symName: __ZNSt3__16vectorI14llama_kv_cellsNS_9allocatorIS1_EEE20__throw_out_of_rangeB8ne200100Ev, symObjAddr: 0x16020, symBinAddr: 0x663D0, symSize: 0x10 }
  - { offset: 0x2EE0A6, size: 0x8, addend: 0x0, symName: __ZNSt3__112__hash_tableINS_17__hash_value_typeIiNS_6vectorIjNS_9allocatorIjEEEEEENS_22__unordered_map_hasherIiS6_NS_4hashIiEENS_8equal_toIiEELb1EEENS_21__unordered_map_equalIiS6_SB_S9_Lb1EEENS3_IS6_EEE25__emplace_unique_key_argsIiJRKNS_21piecewise_construct_tENS_5tupleIJRKiEEENSL_IJEEEEEENS_4pairINS_15__hash_iteratorIPNS_11__hash_nodeIS6_PvEEEEbEERKT_DpOT0_, symObjAddr: 0x16030, symBinAddr: 0x663E0, symSize: 0x4D0 }
  - { offset: 0x2EE0B1, size: 0x8, addend: 0x0, symName: __ZNSt3__113unordered_mapIiNS_6vectorIjNS_9allocatorIjEEEENS_4hashIiEENS_8equal_toIiEENS2_INS_4pairIKiS4_EEEEED1B8ne200100Ev, symObjAddr: 0x15F60, symBinAddr: 0x66310, symSize: 0x70 }
  - { offset: 0x2EE4A7, size: 0x8, addend: 0x0, symName: __ZNSt3__113unordered_mapIijNS_4hashIiEENS_8equal_toIiEENS_9allocatorINS_4pairIKijEEEEED1B8ne200100Ev, symObjAddr: 0x15FD0, symBinAddr: 0x66380, symSize: 0x50 }
  - { offset: 0x2EE741, size: 0x8, addend: 0x0, symName: __ZNK14llama_kv_cache20set_input_pos_bucketEP11ggml_tensorPK12llama_ubatch, symObjAddr: 0xFB40, symBinAddr: 0x60D90, symSize: 0x160 }
  - { offset: 0x2EE945, size: 0x8, addend: 0x0, symName: __ZNK14llama_kv_cache10total_sizeEv, symObjAddr: 0xFCA0, symBinAddr: 0x60EF0, symSize: 0x50 }
  - { offset: 0x2EEBC0, size: 0x8, addend: 0x0, symName: __ZN23llm_graph_input_k_shift9set_inputEPK12llama_ubatch, symObjAddr: 0xFE20, symBinAddr: 0x61070, symSize: 0x150 }
  - { offset: 0x2EF496, size: 0x8, addend: 0x0, symName: __ZNK14llama_kv_cache11state_writeER16llama_io_write_iij, symObjAddr: 0xFF70, symBinAddr: 0x611C0, symSize: 0x580 }
  - { offset: 0x2F01B0, size: 0x8, addend: 0x0, symName: __ZNK14llama_kv_cache16state_write_metaER16llama_io_write_iRKNS_13cell_ranges_tEi, symObjAddr: 0x104F0, symBinAddr: 0x61740, symSize: 0x2F0 }
  - { offset: 0x2F09AC, size: 0x8, addend: 0x0, symName: __ZNK14llama_kv_cache16state_write_dataER16llama_io_write_iRKNS_13cell_ranges_tE, symObjAddr: 0x107E0, symBinAddr: 0x61A30, symSize: 0x3C0 }
  - { offset: 0x2F12F8, size: 0x8, addend: 0x0, symName: __ZNSt3__16vectorINS_4pairIjjEENS_9allocatorIS2_EEE20__throw_length_errorB8ne200100Ev, symObjAddr: 0x16D50, symBinAddr: 0x67100, symSize: 0x10 }
  - { offset: 0x2F1310, size: 0x8, addend: 0x0, symName: __ZNSt3__16vectorIN14llama_kv_cache9slot_infoENS_9allocatorIS2_EEE8__appendEm, symObjAddr: 0x16D60, symBinAddr: 0x67110, symSize: 0x1A7 }
  - { offset: 0x2F161D, size: 0x8, addend: 0x0, symName: __ZN14llama_kv_cache10state_readER15llama_io_read_iij, symObjAddr: 0x10BA0, symBinAddr: 0x61DF0, symSize: 0x270 }
  - { offset: 0x2F1C84, size: 0x8, addend: 0x0, symName: __ZN14llama_kv_cache15state_read_metaER15llama_io_read_ijjRNS_9slot_infoEi, symObjAddr: 0x10E10, symBinAddr: 0x62060, symSize: 0x7E0 }
  - { offset: 0x2F2E64, size: 0x8, addend: 0x0, symName: __ZN14llama_kv_cache15state_read_dataER15llama_io_read_ijjRKNS_9slot_infoE, symObjAddr: 0x115F0, symBinAddr: 0x62840, symSize: 0x990 }
  - { offset: 0x2F48AE, size: 0x8, addend: 0x0, symName: __ZN22llama_kv_cache_contextC2E19llama_memory_status, symObjAddr: 0x11F80, symBinAddr: 0x631D0, symSize: 0x40 }
  - { offset: 0x2F4952, size: 0x8, addend: 0x0, symName: __ZN22llama_kv_cache_contextC1E19llama_memory_status, symObjAddr: 0x11FC0, symBinAddr: 0x63210, symSize: 0x40 }
  - { offset: 0x2F4BA8, size: 0x8, addend: 0x0, symName: __ZNSt3__16vectorIN14llama_kv_cache9slot_infoENS_9allocatorIS2_EEE6resizeEm, symObjAddr: 0x12300, symBinAddr: 0x63550, symSize: 0xE0 }
  - { offset: 0x2F50B7, size: 0x8, addend: 0x0, symName: __ZNSt3__16vectorIN14llama_kv_cache9slot_infoENS_9allocatorIS2_EEE8__appendEm, symObjAddr: 0x16D60, symBinAddr: 0x67110, symSize: 0x1A7 }
  - { offset: 0x2F55F1, size: 0x8, addend: 0x0, symName: __ZN22llama_kv_cache_contextC1EP14llama_kv_cache, symObjAddr: 0x123E0, symBinAddr: 0x63630, symSize: 0x10 }
  - { offset: 0x2F5635, size: 0x8, addend: 0x0, symName: __ZN22llama_kv_cache_contextC2EP14llama_kv_cacheP13llama_contextbNS0_16stream_copy_infoE, symObjAddr: 0x123F0, symBinAddr: 0x63640, symSize: 0xB0 }
  - { offset: 0x2F57D5, size: 0x8, addend: 0x0, symName: __ZN22llama_kv_cache_contextC1EP14llama_kv_cacheP13llama_contextbNS0_16stream_copy_infoE, symObjAddr: 0x124A0, symBinAddr: 0x636F0, symSize: 0xB0 }
  - { offset: 0x2F59BC, size: 0x8, addend: 0x0, symName: __ZN22llama_kv_cache_contextC2EP14llama_kv_cacheNSt3__16vectorINS0_9slot_infoENS2_9allocatorIS4_EEEENS3_I12llama_ubatchNS5_IS8_EEEE, symObjAddr: 0x12550, symBinAddr: 0x637A0, symSize: 0x80 }
  - { offset: 0x2F5B0C, size: 0x8, addend: 0x0, symName: __ZN22llama_kv_cache_contextC1EP14llama_kv_cacheNSt3__16vectorINS0_9slot_infoENS2_9allocatorIS4_EEEENS3_I12llama_ubatchNS5_IS8_EEEE, symObjAddr: 0x125D0, symBinAddr: 0x63820, symSize: 0x80 }
  - { offset: 0x2F5CAC, size: 0x8, addend: 0x0, symName: __ZN22llama_kv_cache_contextD2Ev, symObjAddr: 0x12650, symBinAddr: 0x638A0, symSize: 0x150 }
  - { offset: 0x2F66E2, size: 0x8, addend: 0x0, symName: __ZN22llama_kv_cache_contextD1Ev, symObjAddr: 0x127A0, symBinAddr: 0x639F0, symSize: 0x10 }
  - { offset: 0x2F6735, size: 0x8, addend: 0x0, symName: __ZN22llama_kv_cache_contextD0Ev, symObjAddr: 0x127B0, symBinAddr: 0x63A00, symSize: 0x20 }
  - { offset: 0x2F6795, size: 0x8, addend: 0x0, symName: __ZN22llama_kv_cache_context4nextEv, symObjAddr: 0x127D0, symBinAddr: 0x63A20, symSize: 0x40 }
  - { offset: 0x2F6866, size: 0x8, addend: 0x0, symName: __ZN22llama_kv_cache_context5applyEv, symObjAddr: 0x12810, symBinAddr: 0x63A60, symSize: 0x150 }
  - { offset: 0x2F6AFA, size: 0x8, addend: 0x0, symName: __ZNK22llama_kv_cache_context10get_statusEv, symObjAddr: 0x12960, symBinAddr: 0x63BB0, symSize: 0x10 }
  - { offset: 0x2F6B44, size: 0x8, addend: 0x0, symName: __ZNK22llama_kv_cache_context10get_ubatchEv, symObjAddr: 0x12970, symBinAddr: 0x63BC0, symSize: 0x10 }
  - { offset: 0x2F6B8C, size: 0x8, addend: 0x0, symName: __ZNK22llama_kv_cache_context8get_n_kvEv, symObjAddr: 0x12980, symBinAddr: 0x63BD0, symSize: 0x10 }
  - { offset: 0x2F6BD6, size: 0x8, addend: 0x0, symName: __ZNK22llama_kv_cache_context5get_kEP12ggml_contexti, symObjAddr: 0x12990, symBinAddr: 0x63BE0, symSize: 0x20 }
  - { offset: 0x2F6C49, size: 0x8, addend: 0x0, symName: __ZNK22llama_kv_cache_context5get_vEP12ggml_contexti, symObjAddr: 0x129B0, symBinAddr: 0x63C00, symSize: 0x20 }
  - { offset: 0x2F6CBC, size: 0x8, addend: 0x0, symName: __ZNK22llama_kv_cache_context5cpy_kEP12ggml_contextP11ggml_tensorS3_i, symObjAddr: 0x129D0, symBinAddr: 0x63C20, symSize: 0x10 }
  - { offset: 0x2F6D4D, size: 0x8, addend: 0x0, symName: __ZNK22llama_kv_cache_context5cpy_vEP12ggml_contextP11ggml_tensorS3_i, symObjAddr: 0x129E0, symBinAddr: 0x63C30, symSize: 0x10 }
  - { offset: 0x2F6E27, size: 0x8, addend: 0x0, symName: __ZNK22llama_kv_cache_context18build_input_k_idxsEP12ggml_contextRK12llama_ubatch, symObjAddr: 0x129F0, symBinAddr: 0x63C40, symSize: 0x30 }
  - { offset: 0x2F6F13, size: 0x8, addend: 0x0, symName: __ZNK22llama_kv_cache_context18build_input_v_idxsEP12ggml_contextRK12llama_ubatch, symObjAddr: 0x12A20, symBinAddr: 0x63C70, symSize: 0x50 }
  - { offset: 0x2F6FC4, size: 0x8, addend: 0x0, symName: __ZNK22llama_kv_cache_context17set_input_k_shiftEP11ggml_tensor, symObjAddr: 0x12A70, symBinAddr: 0x63CC0, symSize: 0x140 }
  - { offset: 0x2F7107, size: 0x8, addend: 0x0, symName: __ZNK22llama_kv_cache_context16set_input_k_idxsEP11ggml_tensorPK12llama_ubatch, symObjAddr: 0x12BB0, symBinAddr: 0x63E00, symSize: 0x20 }
  - { offset: 0x2F7181, size: 0x8, addend: 0x0, symName: __ZNK22llama_kv_cache_context16set_input_v_idxsEP11ggml_tensorPK12llama_ubatch, symObjAddr: 0x12BD0, symBinAddr: 0x63E20, symSize: 0x20 }
  - { offset: 0x2F71FB, size: 0x8, addend: 0x0, symName: __ZNK22llama_kv_cache_context17set_input_kq_maskEP11ggml_tensorPK12llama_ubatchb, symObjAddr: 0x12BF0, symBinAddr: 0x63E40, symSize: 0x10 }
  - { offset: 0x2F7282, size: 0x8, addend: 0x0, symName: __ZNK22llama_kv_cache_context20set_input_pos_bucketEP11ggml_tensorPK12llama_ubatch, symObjAddr: 0x12C00, symBinAddr: 0x63E50, symSize: 0x10 }
  - { offset: 0x2F72E7, size: 0x8, addend: 0x0, symName: __ZN14llama_kv_cacheD1Ev, symObjAddr: 0x12C10, symBinAddr: 0x63E60, symSize: 0x10 }
  - { offset: 0x2F731D, size: 0x8, addend: 0x0, symName: __ZN14llama_kv_cacheD2Ev, symObjAddr: 0x13F00, symBinAddr: 0x64710, symSize: 0x1F0 }
  - { offset: 0x2F82F5, size: 0x8, addend: 0x0, symName: __ZN14llama_kv_cacheD0Ev, symObjAddr: 0x12C20, symBinAddr: 0x63E70, symSize: 0x20 }
  - { offset: 0x2F8351, size: 0x8, addend: 0x0, symName: __ZN23llm_graph_input_k_shiftD1Ev, symObjAddr: 0x12C40, symBinAddr: 0x63E90, symSize: 0x10 }
  - { offset: 0x2F837A, size: 0x8, addend: 0x0, symName: __ZN23llm_graph_input_k_shiftD0Ev, symObjAddr: 0x12C50, symBinAddr: 0x63EA0, symSize: 0x10 }
  - { offset: 0x2F8779, size: 0x8, addend: 0x0, symName: __ZNSt3__16vectorI17llama_kv_cell_extNS_9allocatorIS1_EEE20__throw_length_errorB8ne200100Ev, symObjAddr: 0x12FF0, symBinAddr: 0x64000, symSize: 0x10 }
  - { offset: 0x2F8791, size: 0x8, addend: 0x0, symName: __ZNSt3__16vectorINS_6bitsetILm256EEENS_9allocatorIS2_EEE8__appendEm, symObjAddr: 0x13000, symBinAddr: 0x64010, symSize: 0x140 }
  - { offset: 0x2F8EA1, size: 0x8, addend: 0x0, symName: __ZNSt3__16vectorINS0_IjNS_9allocatorIjEEEENS1_IS3_EEE20__throw_length_errorB8ne200100Ev, symObjAddr: 0x13B70, symBinAddr: 0x645B0, symSize: 0x10 }
  - { offset: 0x2F8EB9, size: 0x8, addend: 0x0, symName: __ZNSt3__135__uninitialized_allocator_copy_implB8ne200100INS_9allocatorINS_6vectorIjNS1_IjEEEEEEPS4_S6_S6_EET2_RT_T0_T1_S7_, symObjAddr: 0x13B80, symBinAddr: 0x645C0, symSize: 0x100 }
  - { offset: 0x2F8EC4, size: 0x8, addend: 0x0, symName: __ZNSt3__128__exception_guard_exceptionsINS_6vectorINS1_IjNS_9allocatorIjEEEENS2_IS4_EEE16__destroy_vectorEED1B8ne200100Ev, symObjAddr: 0x13B00, symBinAddr: 0x64540, symSize: 0x70 }
  - { offset: 0x2F9239, size: 0x8, addend: 0x0, symName: __ZNSt3__128__exception_guard_exceptionsINS_29_AllocatorDestroyRangeReverseINS_9allocatorINS_6vectorIjNS2_IjEEEEEEPS5_EEED1B8ne200100Ev, symObjAddr: 0x13C80, symBinAddr: 0x646C0, symSize: 0x50 }
  - { offset: 0x2F9266, size: 0x8, addend: 0x0, symName: __ZNSt3__128__exception_guard_exceptionsINS_29_AllocatorDestroyRangeReverseINS_9allocatorINS_6vectorIjNS2_IjEEEEEEPS5_EEED1B8ne200100Ev, symObjAddr: 0x13C80, symBinAddr: 0x646C0, symSize: 0x50 }
  - { offset: 0x2FA3F0, size: 0x8, addend: 0x0, symName: __ZNSt3__19allocatorI14llama_kv_cellsE9constructB8ne200100IS1_JS1_EEEvPT_DpOT0_, symObjAddr: 0x14870, symBinAddr: 0x64F20, symSize: 0x170 }
  - { offset: 0x2FA424, size: 0x8, addend: 0x0, symName: __ZNSt3__19allocatorI14llama_kv_cellsE9constructB8ne200100IS1_JS1_EEEvPT_DpOT0_, symObjAddr: 0x14870, symBinAddr: 0x64F20, symSize: 0x170 }
  - { offset: 0x2FA448, size: 0x8, addend: 0x0, symName: __ZNSt3__19allocatorI14llama_kv_cellsE9constructB8ne200100IS1_JS1_EEEvPT_DpOT0_, symObjAddr: 0x14870, symBinAddr: 0x64F20, symSize: 0x170 }
  - { offset: 0x2FABF4, size: 0x8, addend: 0x0, symName: __ZNSt3__112__hash_tableINS_17__hash_value_typeIiiEENS_22__unordered_map_hasherIiS2_NS_4hashIiEENS_8equal_toIiEELb1EEENS_21__unordered_map_equalIiS2_S7_S5_Lb1EEENS_9allocatorIS2_EEE11__do_rehashILb1EEEvm, symObjAddr: 0x15100, symBinAddr: 0x65730, symSize: 0x1B0 }
  - { offset: 0x2FB19C, size: 0x8, addend: 0x0, symName: __ZNSt3__16vectorIN14llama_kv_cache8kv_layerENS_9allocatorIS2_EEE20__throw_length_errorB8ne200100Ev, symObjAddr: 0x154F0, symBinAddr: 0x65B20, symSize: 0x10 }
  - { offset: 0x2FB1B4, size: 0x8, addend: 0x0, symName: __ZNSt3__112__hash_tableINS_17__hash_value_typeIiiEENS_22__unordered_map_hasherIiS2_NS_4hashIiEENS_8equal_toIiEELb1EEENS_21__unordered_map_equalIiS2_S7_S5_Lb1EEENS_9allocatorIS2_EEE25__emplace_unique_key_argsIiJRKNS_21piecewise_construct_tENS_5tupleIJRKiEEENSI_IJEEEEEENS_4pairINS_15__hash_iteratorIPNS_11__hash_nodeIS2_PvEEEEbEERKT_DpOT0_, symObjAddr: 0x15500, symBinAddr: 0x65B30, symSize: 0x4A0 }
  - { offset: 0x2FB4D4, size: 0x8, addend: 0x0, symName: __ZNSt3__16vectorIN14llama_kv_cache9slot_infoENS_9allocatorIS2_EEE24__emplace_back_slow_pathIJRKS2_EEEPS2_DpOT_, symObjAddr: 0x15C30, symBinAddr: 0x65FE0, symSize: 0x140 }
  - { offset: 0x2FB64D, size: 0x8, addend: 0x0, symName: __ZNSt3__16vectorIN14llama_kv_cache9slot_infoENS_9allocatorIS2_EEE20__throw_length_errorB8ne200100Ev, symObjAddr: 0x15D70, symBinAddr: 0x66120, symSize: 0x10 }
  - { offset: 0x2FB665, size: 0x8, addend: 0x0, symName: __ZNSt3__134__uninitialized_allocator_relocateB8ne200100INS_9allocatorIN14llama_kv_cache9slot_infoEEEPS3_EEvRT_T0_S8_S8_, symObjAddr: 0x15D80, symBinAddr: 0x66130, symSize: 0x110 }
  - { offset: 0x2FB670, size: 0x8, addend: 0x0, symName: __ZNSt3__114__split_bufferIN14llama_kv_cache9slot_infoERNS_9allocatorIS2_EEED2Ev, symObjAddr: 0x15E90, symBinAddr: 0x66240, symSize: 0xC0 }
  - { offset: 0x2FC163, size: 0x8, addend: 0x0, symName: __ZNSt3__112__hash_tableINS_17__hash_value_typeIiNS_6vectorIjNS_9allocatorIjEEEEEENS_22__unordered_map_hasherIiS6_NS_4hashIiEENS_8equal_toIiEELb1EEENS_21__unordered_map_equalIiS6_SB_S9_Lb1EEENS3_IS6_EEE11__do_rehashILb1EEEvm, symObjAddr: 0x16550, symBinAddr: 0x66900, symSize: 0x1B0 }
  - { offset: 0x2FC51F, size: 0x8, addend: 0x0, symName: __ZNSt3__110unique_ptrINS_11__hash_nodeINS_17__hash_value_typeIiNS_6vectorIjNS_9allocatorIjEEEEEEPvEENS_22__hash_node_destructorINS4_IS9_EEEEED1B8ne200100Ev, symObjAddr: 0x16500, symBinAddr: 0x668B0, symSize: 0x50 }
  - { offset: 0x2FCD28, size: 0x8, addend: 0x0, symName: __ZNSt3__112__hash_tableINS_17__hash_value_typeIijEENS_22__unordered_map_hasherIiS2_NS_4hashIiEENS_8equal_toIiEELb1EEENS_21__unordered_map_equalIiS2_S7_S5_Lb1EEENS_9allocatorIS2_EEE11__do_rehashILb1EEEvm, symObjAddr: 0x16BA0, symBinAddr: 0x66F50, symSize: 0x1B0 }
  - { offset: 0x2FF15C, size: 0x8, addend: 0x0, symName: __ZN24llama_memory_hybrid_iswaC2ERK11llama_model9ggml_typeS3_bbjjjS3_S3_jjbbRKNSt3__18functionIFbiEEES9_, symObjAddr: 0x0, symBinAddr: 0x672C0, symSize: 0x2E0 }
  - { offset: 0x32AABA, size: 0x8, addend: 0x0, symName: __ZNSt3__111make_uniqueB8ne200100I32llama_memory_hybrid_iswa_contextJP24llama_memory_hybrid_iswaNS_6vectorIN14llama_kv_cache9slot_infoENS_9allocatorIS6_EEEES9_NS4_I12llama_ubatchNS7_ISA_EEEEELi0EEENS_10unique_ptrIT_NS_14default_deleteISE_EEEEDpOT0_, symObjAddr: 0x9D0, symBinAddr: 0x67C50, symSize: 0x260 }
  - { offset: 0x3358B3, size: 0x8, addend: 0x0, symName: __ZN24llama_memory_hybrid_iswaC1ERK11llama_model9ggml_typeS3_bbjjjS3_S3_jjbbRKNSt3__18functionIFbiEEES9_, symObjAddr: 0x2E0, symBinAddr: 0x675A0, symSize: 0x10 }
  - { offset: 0x336593, size: 0x8, addend: 0x0, symName: __ZN24llama_memory_hybrid_iswaC2ERK11llama_model9ggml_typeS3_bbjjjS3_S3_jjbbRKNSt3__18functionIFbiEEES9_, symObjAddr: 0x0, symBinAddr: 0x672C0, symSize: 0x2E0 }
  - { offset: 0x337B00, size: 0x8, addend: 0x0, symName: __ZN24llama_memory_hybrid_iswa10init_batchER18llama_batch_allocrjb, symObjAddr: 0x2F0, symBinAddr: 0x675B0, symSize: 0x6A0 }
  - { offset: 0x339C7D, size: 0x8, addend: 0x0, symName: __ZN32llama_memory_hybrid_iswa_contextC2EP24llama_memory_hybrid_iswaNSt3__16vectorIN14llama_kv_cache9slot_infoENS2_9allocatorIS5_EEEES8_NS3_I12llama_ubatchNS6_IS9_EEEE, symObjAddr: 0x14B0, symBinAddr: 0x685E0, symSize: 0x5B0 }
  - { offset: 0x33B85D, size: 0x8, addend: 0x0, symName: __ZN24llama_memory_hybrid_iswa9init_fullEv, symObjAddr: 0xD80, symBinAddr: 0x67EB0, symSize: 0x50 }
  - { offset: 0x33B903, size: 0x8, addend: 0x0, symName: __ZN32llama_memory_hybrid_iswa_contextC2EP24llama_memory_hybrid_iswa, symObjAddr: 0x12F0, symBinAddr: 0x68420, symSize: 0xC0 }
  - { offset: 0x33BBEE, size: 0x8, addend: 0x0, symName: __ZN24llama_memory_hybrid_iswa11init_updateEP13llama_contextb, symObjAddr: 0xDD0, symBinAddr: 0x67F00, symSize: 0x60 }
  - { offset: 0x33BCD8, size: 0x8, addend: 0x0, symName: __ZN32llama_memory_hybrid_iswa_contextC2EP24llama_memory_hybrid_iswaP13llama_contextb, symObjAddr: 0x13C0, symBinAddr: 0x684F0, symSize: 0xE0 }
  - { offset: 0x33BFB4, size: 0x8, addend: 0x0, symName: __ZNK24llama_memory_hybrid_iswa13get_can_shiftEv, symObjAddr: 0xE30, symBinAddr: 0x67F60, symSize: 0x10 }
  - { offset: 0x33C007, size: 0x8, addend: 0x0, symName: __ZN24llama_memory_hybrid_iswa5clearEb, symObjAddr: 0xE40, symBinAddr: 0x67F70, symSize: 0x30 }
  - { offset: 0x33C09B, size: 0x8, addend: 0x0, symName: __ZN24llama_memory_hybrid_iswa6seq_rmEiii, symObjAddr: 0xE70, symBinAddr: 0x67FA0, symSize: 0x50 }
  - { offset: 0x33C15B, size: 0x8, addend: 0x0, symName: __ZN24llama_memory_hybrid_iswa6seq_cpEiiii, symObjAddr: 0xEC0, symBinAddr: 0x67FF0, symSize: 0x50 }
  - { offset: 0x33C231, size: 0x8, addend: 0x0, symName: __ZN24llama_memory_hybrid_iswa8seq_keepEi, symObjAddr: 0xF10, symBinAddr: 0x68040, symSize: 0x30 }
  - { offset: 0x33C2C5, size: 0x8, addend: 0x0, symName: __ZN24llama_memory_hybrid_iswa7seq_addEiiii, symObjAddr: 0xF40, symBinAddr: 0x68070, symSize: 0x50 }
  - { offset: 0x33C39B, size: 0x8, addend: 0x0, symName: __ZN24llama_memory_hybrid_iswa7seq_divEiiii, symObjAddr: 0xF90, symBinAddr: 0x680C0, symSize: 0x50 }
  - { offset: 0x33C471, size: 0x8, addend: 0x0, symName: __ZNK24llama_memory_hybrid_iswa11seq_pos_minEi, symObjAddr: 0xFE0, symBinAddr: 0x68110, symSize: 0x40 }
  - { offset: 0x33C50C, size: 0x8, addend: 0x0, symName: __ZNK24llama_memory_hybrid_iswa11seq_pos_maxEi, symObjAddr: 0x1020, symBinAddr: 0x68150, symSize: 0x40 }
  - { offset: 0x33CB55, size: 0x8, addend: 0x0, symName: __ZNK24llama_memory_hybrid_iswa16memory_breakdownEv, symObjAddr: 0x1060, symBinAddr: 0x68190, symSize: 0x180 }
  - { offset: 0x33D2FF, size: 0x8, addend: 0x0, symName: __ZNK24llama_memory_hybrid_iswa11state_writeER16llama_io_write_iij, symObjAddr: 0x11E0, symBinAddr: 0x68310, symSize: 0x40 }
  - { offset: 0x33D3BF, size: 0x8, addend: 0x0, symName: __ZN24llama_memory_hybrid_iswa10state_readER15llama_io_read_iij, symObjAddr: 0x1220, symBinAddr: 0x68350, symSize: 0x50 }
  - { offset: 0x33D495, size: 0x8, addend: 0x0, symName: __ZNK24llama_memory_hybrid_iswa12get_mem_attnEv, symObjAddr: 0x1270, symBinAddr: 0x683A0, symSize: 0x10 }
  - { offset: 0x33D4E9, size: 0x8, addend: 0x0, symName: __ZNK24llama_memory_hybrid_iswa12get_mem_recrEv, symObjAddr: 0x1280, symBinAddr: 0x683B0, symSize: 0x10 }
  - { offset: 0x33D527, size: 0x8, addend: 0x0, symName: __ZN32llama_memory_hybrid_iswa_contextC2E19llama_memory_status, symObjAddr: 0x1290, symBinAddr: 0x683C0, symSize: 0x30 }
  - { offset: 0x33D58A, size: 0x8, addend: 0x0, symName: __ZN32llama_memory_hybrid_iswa_contextC1E19llama_memory_status, symObjAddr: 0x12C0, symBinAddr: 0x683F0, symSize: 0x30 }
  - { offset: 0x33D705, size: 0x8, addend: 0x0, symName: __ZN32llama_memory_hybrid_iswa_contextC1EP24llama_memory_hybrid_iswa, symObjAddr: 0x13B0, symBinAddr: 0x684E0, symSize: 0x10 }
  - { offset: 0x33D749, size: 0x8, addend: 0x0, symName: __ZN32llama_memory_hybrid_iswa_contextC1EP24llama_memory_hybrid_iswaP13llama_contextb, symObjAddr: 0x14A0, symBinAddr: 0x685D0, symSize: 0x10 }
  - { offset: 0x33DCAF, size: 0x8, addend: 0x0, symName: __ZN32llama_memory_hybrid_iswa_contextC1EP24llama_memory_hybrid_iswaNSt3__16vectorIN14llama_kv_cache9slot_infoENS2_9allocatorIS5_EEEES8_NS3_I12llama_ubatchNS6_IS9_EEEE, symObjAddr: 0x1A60, symBinAddr: 0x68B90, symSize: 0x10 }
  - { offset: 0x33DD20, size: 0x8, addend: 0x0, symName: __ZN32llama_memory_hybrid_iswa_context4nextEv, symObjAddr: 0x1A70, symBinAddr: 0x68BA0, symSize: 0x50 }
  - { offset: 0x33DDB3, size: 0x8, addend: 0x0, symName: __ZN32llama_memory_hybrid_iswa_context5applyEv, symObjAddr: 0x1AC0, symBinAddr: 0x68BF0, symSize: 0x30 }
  - { offset: 0x33DE40, size: 0x8, addend: 0x0, symName: __ZNK32llama_memory_hybrid_iswa_context10get_statusEv, symObjAddr: 0x1AF0, symBinAddr: 0x68C20, symSize: 0x10 }
  - { offset: 0x33DE8A, size: 0x8, addend: 0x0, symName: __ZNK32llama_memory_hybrid_iswa_context10get_ubatchEv, symObjAddr: 0x1B00, symBinAddr: 0x68C30, symSize: 0x10 }
  - { offset: 0x33DEE7, size: 0x8, addend: 0x0, symName: __ZNK32llama_memory_hybrid_iswa_context8get_attnEv, symObjAddr: 0x1B10, symBinAddr: 0x68C40, symSize: 0x10 }
  - { offset: 0x33DF2E, size: 0x8, addend: 0x0, symName: __ZNK32llama_memory_hybrid_iswa_context8get_recrEv, symObjAddr: 0x1B20, symBinAddr: 0x68C50, symSize: 0x10 }
  - { offset: 0x33E018, size: 0x8, addend: 0x0, symName: __ZN24llama_memory_hybrid_iswaD1Ev, symObjAddr: 0x1B30, symBinAddr: 0x68C60, symSize: 0x50 }
  - { offset: 0x33E1A5, size: 0x8, addend: 0x0, symName: __ZN24llama_memory_hybrid_iswaD0Ev, symObjAddr: 0x1B80, symBinAddr: 0x68CB0, symSize: 0x50 }
  - { offset: 0x33E35E, size: 0x8, addend: 0x0, symName: __ZN32llama_memory_hybrid_iswa_contextD1Ev, symObjAddr: 0x1BD0, symBinAddr: 0x68D00, symSize: 0xC0 }
  - { offset: 0x33E727, size: 0x8, addend: 0x0, symName: __ZN32llama_memory_hybrid_iswa_contextD0Ev, symObjAddr: 0x1C90, symBinAddr: 0x68DC0, symSize: 0xC0 }
  - { offset: 0x33EAF9, size: 0x8, addend: 0x0, symName: '__ZNSt3__110__function6__funcIZN24llama_memory_hybrid_iswaC1ERK11llama_model9ggml_typeS6_bbjjjS6_S6_jjbbRKNS_8functionIFbiEEESB_E3$_0NS_9allocatorISC_EES8_ED1Ev', symObjAddr: 0x1D50, symBinAddr: 0x68E80, symSize: 0x10 }
  - { offset: 0x33EB23, size: 0x8, addend: 0x0, symName: '__ZNSt3__110__function6__funcIZN24llama_memory_hybrid_iswaC1ERK11llama_model9ggml_typeS6_bbjjjS6_S6_jjbbRKNS_8functionIFbiEEESB_E3$_0NS_9allocatorISC_EES8_ED0Ev', symObjAddr: 0x1D60, symBinAddr: 0x68E90, symSize: 0x10 }
  - { offset: 0x33EC3A, size: 0x8, addend: 0x0, symName: '__ZNKSt3__110__function6__funcIZN24llama_memory_hybrid_iswaC1ERK11llama_model9ggml_typeS6_bbjjjS6_S6_jjbbRKNS_8functionIFbiEEESB_E3$_0NS_9allocatorISC_EES8_E7__cloneEv', symObjAddr: 0x1D70, symBinAddr: 0x68EA0, symSize: 0x30 }
  - { offset: 0x33EE27, size: 0x8, addend: 0x0, symName: '__ZNKSt3__110__function6__funcIZN24llama_memory_hybrid_iswaC1ERK11llama_model9ggml_typeS6_bbjjjS6_S6_jjbbRKNS_8functionIFbiEEESB_E3$_0NS_9allocatorISC_EES8_E7__cloneEPNS0_6__baseIS8_EE', symObjAddr: 0x1DA0, symBinAddr: 0x68ED0, symSize: 0x20 }
  - { offset: 0x33EED2, size: 0x8, addend: 0x0, symName: '__ZNSt3__110__function6__funcIZN24llama_memory_hybrid_iswaC1ERK11llama_model9ggml_typeS6_bbjjjS6_S6_jjbbRKNS_8functionIFbiEEESB_E3$_0NS_9allocatorISC_EES8_E7destroyEv', symObjAddr: 0x1DC0, symBinAddr: 0x68EF0, symSize: 0x10 }
  - { offset: 0x33EF27, size: 0x8, addend: 0x0, symName: '__ZNSt3__110__function6__funcIZN24llama_memory_hybrid_iswaC1ERK11llama_model9ggml_typeS6_bbjjjS6_S6_jjbbRKNS_8functionIFbiEEESB_E3$_0NS_9allocatorISC_EES8_E18destroy_deallocateEv', symObjAddr: 0x1DD0, symBinAddr: 0x68F00, symSize: 0x10 }
  - { offset: 0x33F052, size: 0x8, addend: 0x0, symName: '__ZNSt3__110__function6__funcIZN24llama_memory_hybrid_iswaC1ERK11llama_model9ggml_typeS6_bbjjjS6_S6_jjbbRKNS_8functionIFbiEEESB_E3$_0NS_9allocatorISC_EES8_EclEOi', symObjAddr: 0x1DE0, symBinAddr: 0x68F10, symSize: 0x20 }
  - { offset: 0x33F143, size: 0x8, addend: 0x0, symName: '__ZNKSt3__110__function6__funcIZN24llama_memory_hybrid_iswaC1ERK11llama_model9ggml_typeS6_bbjjjS6_S6_jjbbRKNS_8functionIFbiEEESB_E3$_0NS_9allocatorISC_EES8_E6targetERKSt9type_info', symObjAddr: 0x1E00, symBinAddr: 0x68F30, symSize: 0x20 }
  - { offset: 0x33F1B3, size: 0x8, addend: 0x0, symName: '__ZNKSt3__110__function6__funcIZN24llama_memory_hybrid_iswaC1ERK11llama_model9ggml_typeS6_bbjjjS6_S6_jjbbRKNS_8functionIFbiEEESB_E3$_0NS_9allocatorISC_EES8_E11target_typeEv', symObjAddr: 0x1E20, symBinAddr: 0x68F50, symSize: 0x10 }
  - { offset: 0x33F1D6, size: 0x8, addend: 0x0, symName: '__ZNSt3__110__function6__funcIZN24llama_memory_hybrid_iswaC1ERK11llama_model9ggml_typeS6_bbjjjS6_S6_jjbbRKNS_8functionIFbiEEESB_E3$_1NS_9allocatorISC_EES8_ED1Ev', symObjAddr: 0x1E70, symBinAddr: 0x68F60, symSize: 0x10 }
  - { offset: 0x33F200, size: 0x8, addend: 0x0, symName: '__ZNSt3__110__function6__funcIZN24llama_memory_hybrid_iswaC1ERK11llama_model9ggml_typeS6_bbjjjS6_S6_jjbbRKNS_8functionIFbiEEESB_E3$_1NS_9allocatorISC_EES8_ED0Ev', symObjAddr: 0x1E80, symBinAddr: 0x68F70, symSize: 0x10 }
  - { offset: 0x33F317, size: 0x8, addend: 0x0, symName: '__ZNKSt3__110__function6__funcIZN24llama_memory_hybrid_iswaC1ERK11llama_model9ggml_typeS6_bbjjjS6_S6_jjbbRKNS_8functionIFbiEEESB_E3$_1NS_9allocatorISC_EES8_E7__cloneEv', symObjAddr: 0x1E90, symBinAddr: 0x68F80, symSize: 0x30 }
  - { offset: 0x33F504, size: 0x8, addend: 0x0, symName: '__ZNKSt3__110__function6__funcIZN24llama_memory_hybrid_iswaC1ERK11llama_model9ggml_typeS6_bbjjjS6_S6_jjbbRKNS_8functionIFbiEEESB_E3$_1NS_9allocatorISC_EES8_E7__cloneEPNS0_6__baseIS8_EE', symObjAddr: 0x1EC0, symBinAddr: 0x68FB0, symSize: 0x20 }
  - { offset: 0x33F5AF, size: 0x8, addend: 0x0, symName: '__ZNSt3__110__function6__funcIZN24llama_memory_hybrid_iswaC1ERK11llama_model9ggml_typeS6_bbjjjS6_S6_jjbbRKNS_8functionIFbiEEESB_E3$_1NS_9allocatorISC_EES8_E7destroyEv', symObjAddr: 0x1EE0, symBinAddr: 0x68FD0, symSize: 0x10 }
  - { offset: 0x33F604, size: 0x8, addend: 0x0, symName: '__ZNSt3__110__function6__funcIZN24llama_memory_hybrid_iswaC1ERK11llama_model9ggml_typeS6_bbjjjS6_S6_jjbbRKNS_8functionIFbiEEESB_E3$_1NS_9allocatorISC_EES8_E18destroy_deallocateEv', symObjAddr: 0x1EF0, symBinAddr: 0x68FE0, symSize: 0x10 }
  - { offset: 0x33F72F, size: 0x8, addend: 0x0, symName: '__ZNSt3__110__function6__funcIZN24llama_memory_hybrid_iswaC1ERK11llama_model9ggml_typeS6_bbjjjS6_S6_jjbbRKNS_8functionIFbiEEESB_E3$_1NS_9allocatorISC_EES8_EclEOi', symObjAddr: 0x1F00, symBinAddr: 0x68FF0, symSize: 0x20 }
  - { offset: 0x33F7D8, size: 0x8, addend: 0x0, symName: '__ZNKSt3__110__function6__funcIZN24llama_memory_hybrid_iswaC1ERK11llama_model9ggml_typeS6_bbjjjS6_S6_jjbbRKNS_8functionIFbiEEESB_E3$_1NS_9allocatorISC_EES8_E6targetERKSt9type_info', symObjAddr: 0x1F20, symBinAddr: 0x69010, symSize: 0x20 }
  - { offset: 0x33F848, size: 0x8, addend: 0x0, symName: '__ZNKSt3__110__function6__funcIZN24llama_memory_hybrid_iswaC1ERK11llama_model9ggml_typeS6_bbjjjS6_S6_jjbbRKNS_8functionIFbiEEESB_E3$_1NS_9allocatorISC_EES8_E11target_typeEv', symObjAddr: 0x1F40, symBinAddr: 0x69030, symSize: 0x10 }
  - { offset: 0x341A3D, size: 0x8, addend: 0x0, symName: __ZN19llama_memory_hybridC2ERK11llama_model9ggml_typeS3_bjjj14llama_swa_typeS3_S3_jjbbRKNSt3__18functionIFbiEEESA_, symObjAddr: 0x0, symBinAddr: 0x69040, symSize: 0x2E0 }
  - { offset: 0x36D20A, size: 0x8, addend: 0x0, symName: __ZNSt3__111make_uniqueB8ne200100I27llama_memory_hybrid_contextJP19llama_memory_hybridNS_6vectorIN14llama_kv_cache9slot_infoENS_9allocatorIS6_EEEENS4_I12llama_ubatchNS7_ISA_EEEEELi0EEENS_10unique_ptrIT_NS_14default_deleteISE_EEEEDpOT0_, symObjAddr: 0x9F0, symBinAddr: 0x699F0, symSize: 0x1A0 }
  - { offset: 0x377517, size: 0x8, addend: 0x0, symName: __ZN19llama_memory_hybridC1ERK11llama_model9ggml_typeS3_bjjj14llama_swa_typeS3_S3_jjbbRKNSt3__18functionIFbiEEESA_, symObjAddr: 0x2E0, symBinAddr: 0x69320, symSize: 0x10 }
  - { offset: 0x3781EB, size: 0x8, addend: 0x0, symName: __ZN19llama_memory_hybridC2ERK11llama_model9ggml_typeS3_bjjj14llama_swa_typeS3_S3_jjbbRKNSt3__18functionIFbiEEESA_, symObjAddr: 0x0, symBinAddr: 0x69040, symSize: 0x2E0 }
  - { offset: 0x379758, size: 0x8, addend: 0x0, symName: __ZN19llama_memory_hybrid10init_batchER18llama_batch_allocrjb, symObjAddr: 0x2F0, symBinAddr: 0x69330, symSize: 0x6C0 }
  - { offset: 0x37B43D, size: 0x8, addend: 0x0, symName: __ZN27llama_memory_hybrid_contextC2EP19llama_memory_hybridNSt3__16vectorIN14llama_kv_cache9slot_infoENS2_9allocatorIS5_EEEENS3_I12llama_ubatchNS6_IS9_EEEE, symObjAddr: 0x1420, symBinAddr: 0x6A2D0, symSize: 0x4C0 }
  - { offset: 0x37CA49, size: 0x8, addend: 0x0, symName: __ZN19llama_memory_hybrid9init_fullEv, symObjAddr: 0xCE0, symBinAddr: 0x69B90, symSize: 0x50 }
  - { offset: 0x37CAEF, size: 0x8, addend: 0x0, symName: __ZN27llama_memory_hybrid_contextC2EP19llama_memory_hybrid, symObjAddr: 0x1260, symBinAddr: 0x6A110, symSize: 0xC0 }
  - { offset: 0x37CDDA, size: 0x8, addend: 0x0, symName: __ZN19llama_memory_hybrid11init_updateEP13llama_contextb, symObjAddr: 0xD30, symBinAddr: 0x69BE0, symSize: 0x60 }
  - { offset: 0x37CEC4, size: 0x8, addend: 0x0, symName: __ZN27llama_memory_hybrid_contextC2EP19llama_memory_hybridP13llama_contextb, symObjAddr: 0x1330, symBinAddr: 0x6A1E0, symSize: 0xE0 }
  - { offset: 0x37D1A0, size: 0x8, addend: 0x0, symName: __ZNK19llama_memory_hybrid13get_can_shiftEv, symObjAddr: 0xD90, symBinAddr: 0x69C40, symSize: 0x10 }
  - { offset: 0x37D1F3, size: 0x8, addend: 0x0, symName: __ZN19llama_memory_hybrid5clearEb, symObjAddr: 0xDA0, symBinAddr: 0x69C50, symSize: 0x30 }
  - { offset: 0x37D287, size: 0x8, addend: 0x0, symName: __ZN19llama_memory_hybrid6seq_rmEiii, symObjAddr: 0xDD0, symBinAddr: 0x69C80, symSize: 0x50 }
  - { offset: 0x37D347, size: 0x8, addend: 0x0, symName: __ZN19llama_memory_hybrid6seq_cpEiiii, symObjAddr: 0xE20, symBinAddr: 0x69CD0, symSize: 0x50 }
  - { offset: 0x37D41D, size: 0x8, addend: 0x0, symName: __ZN19llama_memory_hybrid8seq_keepEi, symObjAddr: 0xE70, symBinAddr: 0x69D20, symSize: 0x30 }
  - { offset: 0x37D4B1, size: 0x8, addend: 0x0, symName: __ZN19llama_memory_hybrid7seq_addEiiii, symObjAddr: 0xEA0, symBinAddr: 0x69D50, symSize: 0x50 }
  - { offset: 0x37D587, size: 0x8, addend: 0x0, symName: __ZN19llama_memory_hybrid7seq_divEiiii, symObjAddr: 0xEF0, symBinAddr: 0x69DA0, symSize: 0x50 }
  - { offset: 0x37D65D, size: 0x8, addend: 0x0, symName: __ZNK19llama_memory_hybrid11seq_pos_minEi, symObjAddr: 0xF40, symBinAddr: 0x69DF0, symSize: 0x40 }
  - { offset: 0x37D6F8, size: 0x8, addend: 0x0, symName: __ZNK19llama_memory_hybrid11seq_pos_maxEi, symObjAddr: 0xF80, symBinAddr: 0x69E30, symSize: 0x40 }
  - { offset: 0x37DD41, size: 0x8, addend: 0x0, symName: __ZNK19llama_memory_hybrid16memory_breakdownEv, symObjAddr: 0xFC0, symBinAddr: 0x69E70, symSize: 0x180 }
  - { offset: 0x37E4EB, size: 0x8, addend: 0x0, symName: __ZNK19llama_memory_hybrid11state_writeER16llama_io_write_iij, symObjAddr: 0x1140, symBinAddr: 0x69FF0, symSize: 0x50 }
  - { offset: 0x37E595, size: 0x8, addend: 0x0, symName: __ZN19llama_memory_hybrid10state_readER15llama_io_read_iij, symObjAddr: 0x1190, symBinAddr: 0x6A040, symSize: 0x50 }
  - { offset: 0x37E655, size: 0x8, addend: 0x0, symName: __ZNK19llama_memory_hybrid12get_mem_attnEv, symObjAddr: 0x11E0, symBinAddr: 0x6A090, symSize: 0x10 }
  - { offset: 0x37E6A9, size: 0x8, addend: 0x0, symName: __ZNK19llama_memory_hybrid12get_mem_recrEv, symObjAddr: 0x11F0, symBinAddr: 0x6A0A0, symSize: 0x10 }
  - { offset: 0x37E6E7, size: 0x8, addend: 0x0, symName: __ZN27llama_memory_hybrid_contextC2E19llama_memory_status, symObjAddr: 0x1200, symBinAddr: 0x6A0B0, symSize: 0x30 }
  - { offset: 0x37E74A, size: 0x8, addend: 0x0, symName: __ZN27llama_memory_hybrid_contextC1E19llama_memory_status, symObjAddr: 0x1230, symBinAddr: 0x6A0E0, symSize: 0x30 }
  - { offset: 0x37E8C5, size: 0x8, addend: 0x0, symName: __ZN27llama_memory_hybrid_contextC1EP19llama_memory_hybrid, symObjAddr: 0x1320, symBinAddr: 0x6A1D0, symSize: 0x10 }
  - { offset: 0x37E909, size: 0x8, addend: 0x0, symName: __ZN27llama_memory_hybrid_contextC1EP19llama_memory_hybridP13llama_contextb, symObjAddr: 0x1410, symBinAddr: 0x6A2C0, symSize: 0x10 }
  - { offset: 0x37EE6F, size: 0x8, addend: 0x0, symName: __ZN27llama_memory_hybrid_contextC1EP19llama_memory_hybridNSt3__16vectorIN14llama_kv_cache9slot_infoENS2_9allocatorIS5_EEEENS3_I12llama_ubatchNS6_IS9_EEEE, symObjAddr: 0x18E0, symBinAddr: 0x6A790, symSize: 0x10 }
  - { offset: 0x37EED1, size: 0x8, addend: 0x0, symName: __ZN27llama_memory_hybrid_context4nextEv, symObjAddr: 0x18F0, symBinAddr: 0x6A7A0, symSize: 0x50 }
  - { offset: 0x37EF64, size: 0x8, addend: 0x0, symName: __ZN27llama_memory_hybrid_context5applyEv, symObjAddr: 0x1940, symBinAddr: 0x6A7F0, symSize: 0x30 }
  - { offset: 0x37EFF1, size: 0x8, addend: 0x0, symName: __ZNK27llama_memory_hybrid_context10get_statusEv, symObjAddr: 0x1970, symBinAddr: 0x6A820, symSize: 0x10 }
  - { offset: 0x37F03A, size: 0x8, addend: 0x0, symName: __ZNK27llama_memory_hybrid_context10get_ubatchEv, symObjAddr: 0x1980, symBinAddr: 0x6A830, symSize: 0x10 }
  - { offset: 0x37F097, size: 0x8, addend: 0x0, symName: __ZNK27llama_memory_hybrid_context8get_attnEv, symObjAddr: 0x1990, symBinAddr: 0x6A840, symSize: 0x10 }
  - { offset: 0x37F0DE, size: 0x8, addend: 0x0, symName: __ZNK27llama_memory_hybrid_context8get_recrEv, symObjAddr: 0x19A0, symBinAddr: 0x6A850, symSize: 0x10 }
  - { offset: 0x37F1C8, size: 0x8, addend: 0x0, symName: __ZN19llama_memory_hybridD1Ev, symObjAddr: 0x19B0, symBinAddr: 0x6A860, symSize: 0x50 }
  - { offset: 0x37F355, size: 0x8, addend: 0x0, symName: __ZN19llama_memory_hybridD0Ev, symObjAddr: 0x1A00, symBinAddr: 0x6A8B0, symSize: 0x50 }
  - { offset: 0x37F50E, size: 0x8, addend: 0x0, symName: __ZN27llama_memory_hybrid_contextD1Ev, symObjAddr: 0x1A50, symBinAddr: 0x6A900, symSize: 0xC0 }
  - { offset: 0x37F8D7, size: 0x8, addend: 0x0, symName: __ZN27llama_memory_hybrid_contextD0Ev, symObjAddr: 0x1B10, symBinAddr: 0x6A9C0, symSize: 0xC0 }
  - { offset: 0x37FCA9, size: 0x8, addend: 0x0, symName: '__ZNSt3__110__function6__funcIZN19llama_memory_hybridC1ERK11llama_model9ggml_typeS6_bjjj14llama_swa_typeS6_S6_jjbbRKNS_8functionIFbiEEESC_E3$_0NS_9allocatorISD_EES9_ED1Ev', symObjAddr: 0x1BD0, symBinAddr: 0x6AA80, symSize: 0x10 }
  - { offset: 0x37FCD3, size: 0x8, addend: 0x0, symName: '__ZNSt3__110__function6__funcIZN19llama_memory_hybridC1ERK11llama_model9ggml_typeS6_bjjj14llama_swa_typeS6_S6_jjbbRKNS_8functionIFbiEEESC_E3$_0NS_9allocatorISD_EES9_ED0Ev', symObjAddr: 0x1BE0, symBinAddr: 0x6AA90, symSize: 0x10 }
  - { offset: 0x37FDEA, size: 0x8, addend: 0x0, symName: '__ZNKSt3__110__function6__funcIZN19llama_memory_hybridC1ERK11llama_model9ggml_typeS6_bjjj14llama_swa_typeS6_S6_jjbbRKNS_8functionIFbiEEESC_E3$_0NS_9allocatorISD_EES9_E7__cloneEv', symObjAddr: 0x1BF0, symBinAddr: 0x6AAA0, symSize: 0x30 }
  - { offset: 0x37FFD7, size: 0x8, addend: 0x0, symName: '__ZNKSt3__110__function6__funcIZN19llama_memory_hybridC1ERK11llama_model9ggml_typeS6_bjjj14llama_swa_typeS6_S6_jjbbRKNS_8functionIFbiEEESC_E3$_0NS_9allocatorISD_EES9_E7__cloneEPNS0_6__baseIS9_EE', symObjAddr: 0x1C20, symBinAddr: 0x6AAD0, symSize: 0x20 }
  - { offset: 0x380082, size: 0x8, addend: 0x0, symName: '__ZNSt3__110__function6__funcIZN19llama_memory_hybridC1ERK11llama_model9ggml_typeS6_bjjj14llama_swa_typeS6_S6_jjbbRKNS_8functionIFbiEEESC_E3$_0NS_9allocatorISD_EES9_E7destroyEv', symObjAddr: 0x1C40, symBinAddr: 0x6AAF0, symSize: 0x10 }
  - { offset: 0x3800D7, size: 0x8, addend: 0x0, symName: '__ZNSt3__110__function6__funcIZN19llama_memory_hybridC1ERK11llama_model9ggml_typeS6_bjjj14llama_swa_typeS6_S6_jjbbRKNS_8functionIFbiEEESC_E3$_0NS_9allocatorISD_EES9_E18destroy_deallocateEv', symObjAddr: 0x1C50, symBinAddr: 0x6AB00, symSize: 0x10 }
  - { offset: 0x380202, size: 0x8, addend: 0x0, symName: '__ZNSt3__110__function6__funcIZN19llama_memory_hybridC1ERK11llama_model9ggml_typeS6_bjjj14llama_swa_typeS6_S6_jjbbRKNS_8functionIFbiEEESC_E3$_0NS_9allocatorISD_EES9_EclEOi', symObjAddr: 0x1C60, symBinAddr: 0x6AB10, symSize: 0x20 }
  - { offset: 0x3802F3, size: 0x8, addend: 0x0, symName: '__ZNKSt3__110__function6__funcIZN19llama_memory_hybridC1ERK11llama_model9ggml_typeS6_bjjj14llama_swa_typeS6_S6_jjbbRKNS_8functionIFbiEEESC_E3$_0NS_9allocatorISD_EES9_E6targetERKSt9type_info', symObjAddr: 0x1C80, symBinAddr: 0x6AB30, symSize: 0x20 }
  - { offset: 0x380363, size: 0x8, addend: 0x0, symName: '__ZNKSt3__110__function6__funcIZN19llama_memory_hybridC1ERK11llama_model9ggml_typeS6_bjjj14llama_swa_typeS6_S6_jjbbRKNS_8functionIFbiEEESC_E3$_0NS_9allocatorISD_EES9_E11target_typeEv', symObjAddr: 0x1CA0, symBinAddr: 0x6AB50, symSize: 0x10 }
  - { offset: 0x380386, size: 0x8, addend: 0x0, symName: '__ZNSt3__110__function6__funcIZN19llama_memory_hybridC1ERK11llama_model9ggml_typeS6_bjjj14llama_swa_typeS6_S6_jjbbRKNS_8functionIFbiEEESC_E3$_1NS_9allocatorISD_EES9_ED1Ev', symObjAddr: 0x1CF0, symBinAddr: 0x6AB60, symSize: 0x10 }
  - { offset: 0x3803B0, size: 0x8, addend: 0x0, symName: '__ZNSt3__110__function6__funcIZN19llama_memory_hybridC1ERK11llama_model9ggml_typeS6_bjjj14llama_swa_typeS6_S6_jjbbRKNS_8functionIFbiEEESC_E3$_1NS_9allocatorISD_EES9_ED0Ev', symObjAddr: 0x1D00, symBinAddr: 0x6AB70, symSize: 0x10 }
  - { offset: 0x3804C7, size: 0x8, addend: 0x0, symName: '__ZNKSt3__110__function6__funcIZN19llama_memory_hybridC1ERK11llama_model9ggml_typeS6_bjjj14llama_swa_typeS6_S6_jjbbRKNS_8functionIFbiEEESC_E3$_1NS_9allocatorISD_EES9_E7__cloneEv', symObjAddr: 0x1D10, symBinAddr: 0x6AB80, symSize: 0x30 }
  - { offset: 0x3806B4, size: 0x8, addend: 0x0, symName: '__ZNKSt3__110__function6__funcIZN19llama_memory_hybridC1ERK11llama_model9ggml_typeS6_bjjj14llama_swa_typeS6_S6_jjbbRKNS_8functionIFbiEEESC_E3$_1NS_9allocatorISD_EES9_E7__cloneEPNS0_6__baseIS9_EE', symObjAddr: 0x1D40, symBinAddr: 0x6ABB0, symSize: 0x20 }
  - { offset: 0x38075F, size: 0x8, addend: 0x0, symName: '__ZNSt3__110__function6__funcIZN19llama_memory_hybridC1ERK11llama_model9ggml_typeS6_bjjj14llama_swa_typeS6_S6_jjbbRKNS_8functionIFbiEEESC_E3$_1NS_9allocatorISD_EES9_E7destroyEv', symObjAddr: 0x1D60, symBinAddr: 0x6ABD0, symSize: 0x10 }
  - { offset: 0x3807B4, size: 0x8, addend: 0x0, symName: '__ZNSt3__110__function6__funcIZN19llama_memory_hybridC1ERK11llama_model9ggml_typeS6_bjjj14llama_swa_typeS6_S6_jjbbRKNS_8functionIFbiEEESC_E3$_1NS_9allocatorISD_EES9_E18destroy_deallocateEv', symObjAddr: 0x1D70, symBinAddr: 0x6ABE0, symSize: 0x10 }
  - { offset: 0x3808DF, size: 0x8, addend: 0x0, symName: '__ZNSt3__110__function6__funcIZN19llama_memory_hybridC1ERK11llama_model9ggml_typeS6_bjjj14llama_swa_typeS6_S6_jjbbRKNS_8functionIFbiEEESC_E3$_1NS_9allocatorISD_EES9_EclEOi', symObjAddr: 0x1D80, symBinAddr: 0x6ABF0, symSize: 0x20 }
  - { offset: 0x380988, size: 0x8, addend: 0x0, symName: '__ZNKSt3__110__function6__funcIZN19llama_memory_hybridC1ERK11llama_model9ggml_typeS6_bjjj14llama_swa_typeS6_S6_jjbbRKNS_8functionIFbiEEESC_E3$_1NS_9allocatorISD_EES9_E6targetERKSt9type_info', symObjAddr: 0x1DA0, symBinAddr: 0x6AC10, symSize: 0x20 }
  - { offset: 0x3809F8, size: 0x8, addend: 0x0, symName: '__ZNKSt3__110__function6__funcIZN19llama_memory_hybridC1ERK11llama_model9ggml_typeS6_bjjj14llama_swa_typeS6_S6_jjbbRKNS_8functionIFbiEEESC_E3$_1NS_9allocatorISD_EES9_E11target_typeEv', symObjAddr: 0x1DC0, symBinAddr: 0x6AC30, symSize: 0x10 }
  - { offset: 0x3AB79E, size: 0x8, addend: 0x0, symName: __ZN22llama_memory_recurrentC2ERK11llama_model9ggml_typeS3_bjjRKNSt3__18functionIFbiEEE, symObjAddr: 0x0, symBinAddr: 0x6AC40, symSize: 0x910 }
  - { offset: 0x3AE61F, size: 0x8, addend: 0x0, symName: __ZNSt3__16vectorIN22llama_memory_recurrent8mem_cellENS_9allocatorIS2_EEE8__appendEm, symObjAddr: 0x4830, symBinAddr: 0x6EF00, symSize: 0x240 }
  - { offset: 0x3AEE07, size: 0x8, addend: 0x0, symName: __ZNSt3__16vectorIP11ggml_tensorNS_9allocatorIS2_EEE8__appendEm, symObjAddr: 0x4BA0, symBinAddr: 0x6F1F0, symSize: 0x150 }
  - { offset: 0x3AF36A, size: 0x8, addend: 0x0, symName: __ZNSt3__16__treeINS_12__value_typeIP24ggml_backend_buffer_typeNS_10unique_ptrI12ggml_context20ggml_context_deleterEEEENS_19__map_value_compareIS3_S8_ZN22llama_memory_recurrentC1ERK11llama_model9ggml_typeSE_bjjRKNS_8functionIFbiEEEE28ggml_backend_buft_comparatorLb1EEENS_9allocatorIS8_EEE7destroyEPNS_11__tree_nodeIS8_PvEE, symObjAddr: 0x4B40, symBinAddr: 0x6F190, symSize: 0x60 }
  - { offset: 0x3AF734, size: 0x8, addend: 0x0, symName: __ZNSt3__16vectorIN22llama_memory_recurrent8mem_cellENS_9allocatorIS2_EEED1B8ne200100Ev, symObjAddr: 0xA50, symBinAddr: 0x6B5F0, symSize: 0x70 }
  - { offset: 0x3AF972, size: 0x8, addend: 0x0, symName: __ZNK22llama_memory_recurrent12size_r_bytesEv, symObjAddr: 0x910, symBinAddr: 0x6B550, symSize: 0x50 }
  - { offset: 0x3AFA69, size: 0x8, addend: 0x0, symName: __ZNK22llama_memory_recurrent12size_s_bytesEv, symObjAddr: 0x960, symBinAddr: 0x6B5A0, symSize: 0x50 }
  - { offset: 0x3B0025, size: 0x8, addend: 0x0, symName: __ZN22llama_memory_recurrentC1ERK11llama_model9ggml_typeS3_bjjRKNSt3__18functionIFbiEEE, symObjAddr: 0xAC0, symBinAddr: 0x6B660, symSize: 0x10 }
  - { offset: 0x3B01AC, size: 0x8, addend: 0x0, symName: __ZN22llama_memory_recurrent5clearEb, symObjAddr: 0xAD0, symBinAddr: 0x6B670, symSize: 0xE0 }
  - { offset: 0x3B06D0, size: 0x8, addend: 0x0, symName: __ZN22llama_memory_recurrent6seq_rmEiii, symObjAddr: 0xBB0, symBinAddr: 0x6B750, symSize: 0x300 }
  - { offset: 0x3B0F20, size: 0x8, addend: 0x0, symName: __ZN22llama_memory_recurrent6seq_cpEiiii, symObjAddr: 0xEB0, symBinAddr: 0x6BA50, symSize: 0x1E0 }
  - { offset: 0x3B154C, size: 0x8, addend: 0x0, symName: __ZN22llama_memory_recurrent8seq_keepEi, symObjAddr: 0x1090, symBinAddr: 0x6BC30, symSize: 0x1D0 }
  - { offset: 0x3B1A12, size: 0x8, addend: 0x0, symName: __ZN22llama_memory_recurrent7seq_addEiiii, symObjAddr: 0x1260, symBinAddr: 0x6BE00, symSize: 0xB0 }
  - { offset: 0x3B1C1C, size: 0x8, addend: 0x0, symName: __ZN22llama_memory_recurrent7seq_divEiiii, symObjAddr: 0x1310, symBinAddr: 0x6BEB0, symSize: 0xB0 }
  - { offset: 0x3B1E91, size: 0x8, addend: 0x0, symName: __ZNK22llama_memory_recurrent11seq_pos_minEi, symObjAddr: 0x13C0, symBinAddr: 0x6BF60, symSize: 0x90 }
  - { offset: 0x3B208F, size: 0x8, addend: 0x0, symName: __ZNK22llama_memory_recurrent11seq_pos_maxEi, symObjAddr: 0x1450, symBinAddr: 0x6BFF0, symSize: 0x90 }
  - { offset: 0x3B285B, size: 0x8, addend: 0x0, symName: __ZNK22llama_memory_recurrent16memory_breakdownEv, symObjAddr: 0x14E0, symBinAddr: 0x6C080, symSize: 0x150 }
  - { offset: 0x3B34CE, size: 0x8, addend: 0x0, symName: __ZN22llama_memory_recurrent10init_batchER18llama_batch_allocrjb, symObjAddr: 0x1630, symBinAddr: 0x6C1D0, symSize: 0x540 }
  - { offset: 0x3B44AC, size: 0x8, addend: 0x0, symName: __ZN22llama_memory_recurrent7prepareERKNSt3__16vectorI12llama_ubatchNS0_9allocatorIS2_EEEE, symObjAddr: 0x1BB0, symBinAddr: 0x6C710, symSize: 0x140 }
  - { offset: 0x3B4B7F, size: 0x8, addend: 0x0, symName: __ZNSt3__16vectorIN22llama_memory_recurrent8mem_cellENS_9allocatorIS2_EEE16__init_with_sizeB8ne200100IPS2_S7_EEvT_T0_m, symObjAddr: 0x5310, symBinAddr: 0x6F340, symSize: 0x150 }
  - { offset: 0x3B5148, size: 0x8, addend: 0x0, symName: __ZN22llama_memory_recurrent9find_slotERK12llama_ubatch, symObjAddr: 0x1E10, symBinAddr: 0x6C8E0, symSize: 0xBF0 }
  - { offset: 0x3B6C8B, size: 0x8, addend: 0x0, symName: __ZN22llama_memory_recurrent9init_fullEv, symObjAddr: 0x1D80, symBinAddr: 0x6C850, symSize: 0x50 }
  - { offset: 0x3B6D89, size: 0x8, addend: 0x0, symName: __ZN22llama_memory_recurrent11init_updateEP13llama_contextb, symObjAddr: 0x1DD0, symBinAddr: 0x6C8A0, symSize: 0x40 }
  - { offset: 0x3B724F, size: 0x8, addend: 0x0, symName: __ZNK22llama_memory_recurrent13get_can_shiftEv, symObjAddr: 0x2A00, symBinAddr: 0x6D4D0, symSize: 0x10 }
  - { offset: 0x3B7275, size: 0x8, addend: 0x0, symName: __ZNK22llama_memory_recurrent10total_sizeEv, symObjAddr: 0x2A10, symBinAddr: 0x6D4E0, symSize: 0x50 }
  - { offset: 0x3B7AEE, size: 0x8, addend: 0x0, symName: __ZNK22llama_memory_recurrent11state_writeER16llama_io_write_iij, symObjAddr: 0x2A60, symBinAddr: 0x6D530, symSize: 0x4C0 }
  - { offset: 0x3B8913, size: 0x8, addend: 0x0, symName: __ZNK22llama_memory_recurrent16state_write_metaER16llama_io_write_iRKNSt3__16vectorINS2_4pairIjjEENS2_9allocatorIS5_EEEEi, symObjAddr: 0x2F20, symBinAddr: 0x6D9F0, symSize: 0x130 }
  - { offset: 0x3B8C97, size: 0x8, addend: 0x0, symName: __ZNK22llama_memory_recurrent16state_write_dataER16llama_io_write_iRKNSt3__16vectorINS2_4pairIjjEENS2_9allocatorIS5_EEEE, symObjAddr: 0x3050, symBinAddr: 0x6DB20, symSize: 0x230 }
  - { offset: 0x3B928F, size: 0x8, addend: 0x0, symName: __ZN22llama_memory_recurrent10state_readER15llama_io_read_iij, symObjAddr: 0x3280, symBinAddr: 0x6DD50, symSize: 0xC0 }
  - { offset: 0x3B938E, size: 0x8, addend: 0x0, symName: __ZN22llama_memory_recurrent15state_read_metaER15llama_io_read_iji, symObjAddr: 0x3340, symBinAddr: 0x6DE10, symSize: 0x5F0 }
  - { offset: 0x3B9DA5, size: 0x8, addend: 0x0, symName: __ZN22llama_memory_recurrent15state_read_dataER15llama_io_read_ij, symObjAddr: 0x3930, symBinAddr: 0x6E400, symSize: 0x550 }
  - { offset: 0x3BAEE9, size: 0x8, addend: 0x0, symName: __ZN30llama_memory_recurrent_contextC2E19llama_memory_status, symObjAddr: 0x3E80, symBinAddr: 0x6E950, symSize: 0x30 }
  - { offset: 0x3BAF4D, size: 0x8, addend: 0x0, symName: __ZN30llama_memory_recurrent_contextC1E19llama_memory_status, symObjAddr: 0x3EB0, symBinAddr: 0x6E980, symSize: 0x30 }
  - { offset: 0x3BAFD5, size: 0x8, addend: 0x0, symName: __ZN30llama_memory_recurrent_contextC2EP22llama_memory_recurrent, symObjAddr: 0x3EE0, symBinAddr: 0x6E9B0, symSize: 0x30 }
  - { offset: 0x3BB039, size: 0x8, addend: 0x0, symName: __ZN30llama_memory_recurrent_contextC1EP22llama_memory_recurrent, symObjAddr: 0x3F10, symBinAddr: 0x6E9E0, symSize: 0x30 }
  - { offset: 0x3BB0C1, size: 0x8, addend: 0x0, symName: __ZN30llama_memory_recurrent_contextC2EP22llama_memory_recurrentNSt3__16vectorI12llama_ubatchNS2_9allocatorIS4_EEEE, symObjAddr: 0x3F40, symBinAddr: 0x6EA10, symSize: 0x50 }
  - { offset: 0x3BB13C, size: 0x8, addend: 0x0, symName: __ZN30llama_memory_recurrent_contextC1EP22llama_memory_recurrentNSt3__16vectorI12llama_ubatchNS2_9allocatorIS4_EEEE, symObjAddr: 0x3F90, symBinAddr: 0x6EA60, symSize: 0x50 }
  - { offset: 0x3BB1E3, size: 0x8, addend: 0x0, symName: __ZN30llama_memory_recurrent_contextD2Ev, symObjAddr: 0x3FE0, symBinAddr: 0x6EAB0, symSize: 0x90 }
  - { offset: 0x3BB456, size: 0x8, addend: 0x0, symName: __ZN30llama_memory_recurrent_contextD1Ev, symObjAddr: 0x4070, symBinAddr: 0x6EB40, symSize: 0x90 }
  - { offset: 0x3BB6E8, size: 0x8, addend: 0x0, symName: __ZN30llama_memory_recurrent_contextD0Ev, symObjAddr: 0x4100, symBinAddr: 0x6EBD0, symSize: 0x90 }
  - { offset: 0x3BB984, size: 0x8, addend: 0x0, symName: __ZN30llama_memory_recurrent_context4nextEv, symObjAddr: 0x4190, symBinAddr: 0x6EC60, symSize: 0x40 }
  - { offset: 0x3BB9FB, size: 0x8, addend: 0x0, symName: __ZN30llama_memory_recurrent_context5applyEv, symObjAddr: 0x41D0, symBinAddr: 0x6ECA0, symSize: 0x30 }
  - { offset: 0x3BBA27, size: 0x8, addend: 0x0, symName: __ZN30llama_memory_recurrent_context5applyEv, symObjAddr: 0x41D0, symBinAddr: 0x6ECA0, symSize: 0x30 }
  - { offset: 0x3BBA71, size: 0x8, addend: 0x0, symName: __ZNK30llama_memory_recurrent_context10get_statusEv, symObjAddr: 0x4200, symBinAddr: 0x6ECD0, symSize: 0x10 }
  - { offset: 0x3BBABB, size: 0x8, addend: 0x0, symName: __ZNK30llama_memory_recurrent_context10get_ubatchEv, symObjAddr: 0x4210, symBinAddr: 0x6ECE0, symSize: 0x10 }
  - { offset: 0x3BBB02, size: 0x8, addend: 0x0, symName: __ZNK30llama_memory_recurrent_context8get_n_rsEv, symObjAddr: 0x4220, symBinAddr: 0x6ECF0, symSize: 0x20 }
  - { offset: 0x3BBB2A, size: 0x8, addend: 0x0, symName: __ZNK30llama_memory_recurrent_context8get_headEv, symObjAddr: 0x4240, symBinAddr: 0x6ED10, symSize: 0x20 }
  - { offset: 0x3BBB52, size: 0x8, addend: 0x0, symName: __ZNK30llama_memory_recurrent_context8get_rs_zEv, symObjAddr: 0x4260, symBinAddr: 0x6ED30, symSize: 0x20 }
  - { offset: 0x3BBB7A, size: 0x8, addend: 0x0, symName: __ZNK30llama_memory_recurrent_context8get_sizeEv, symObjAddr: 0x4280, symBinAddr: 0x6ED50, symSize: 0x10 }
  - { offset: 0x3BBBA2, size: 0x8, addend: 0x0, symName: __ZNK30llama_memory_recurrent_context7get_r_lEi, symObjAddr: 0x4290, symBinAddr: 0x6ED60, symSize: 0x20 }
  - { offset: 0x3BBBFF, size: 0x8, addend: 0x0, symName: __ZNK30llama_memory_recurrent_context7get_s_lEi, symObjAddr: 0x42B0, symBinAddr: 0x6ED80, symSize: 0x20 }
  - { offset: 0x3BBC5D, size: 0x8, addend: 0x0, symName: __ZNK30llama_memory_recurrent_context6s_copyEi, symObjAddr: 0x42D0, symBinAddr: 0x6EDA0, symSize: 0x20 }
  - { offset: 0x3BBCBB, size: 0x8, addend: 0x0, symName: __ZN22llama_memory_recurrentD1Ev, symObjAddr: 0x42F0, symBinAddr: 0x6EDC0, symSize: 0x10 }
  - { offset: 0x3BBCF1, size: 0x8, addend: 0x0, symName: __ZN22llama_memory_recurrentD2Ev, symObjAddr: 0x4720, symBinAddr: 0x6EDF0, symSize: 0x110 }
  - { offset: 0x3BC45D, size: 0x8, addend: 0x0, symName: __ZN22llama_memory_recurrentD0Ev, symObjAddr: 0x4300, symBinAddr: 0x6EDD0, symSize: 0x20 }
  - { offset: 0x3BD3B8, size: 0x8, addend: 0x0, symName: __ZNSt3__16vectorIN22llama_memory_recurrent8mem_cellENS_9allocatorIS2_EEE20__throw_length_errorB8ne200100Ev, symObjAddr: 0x4A70, symBinAddr: 0x6F140, symSize: 0x10 }
  - { offset: 0x3BD4D2, size: 0x8, addend: 0x0, symName: __ZNSt3__128__exception_guard_exceptionsINS_29_AllocatorDestroyRangeReverseINS_9allocatorIN22llama_memory_recurrent8mem_cellEEEPS4_EEED1B8ne200100Ev, symObjAddr: 0x4B00, symBinAddr: 0x6F150, symSize: 0x40 }
  - { offset: 0x3BD4FF, size: 0x8, addend: 0x0, symName: __ZNSt3__128__exception_guard_exceptionsINS_29_AllocatorDestroyRangeReverseINS_9allocatorIN22llama_memory_recurrent8mem_cellEEEPS4_EEED1B8ne200100Ev, symObjAddr: 0x4B00, symBinAddr: 0x6F150, symSize: 0x40 }
  - { offset: 0x3BDC28, size: 0x8, addend: 0x0, symName: __ZNSt3__16vectorIN22llama_memory_recurrent8mem_cellENS_9allocatorIS2_EEE16__init_with_sizeB8ne200100IPS2_S7_EEvT_T0_m, symObjAddr: 0x5310, symBinAddr: 0x6F340, symSize: 0x150 }
  - { offset: 0x3BDF08, size: 0x8, addend: 0x0, symName: __ZNSt3__13setIiNS_4lessIiEENS_9allocatorIiEEE6insertB8ne200100INS_21__tree_const_iteratorIiPNS_11__tree_nodeIiPvEElEEEEvT_SD_, symObjAddr: 0x54D0, symBinAddr: 0x6F500, symSize: 0x170 }
  - { offset: 0x3BDF4E, size: 0x8, addend: 0x0, symName: __ZNSt3__13setIiNS_4lessIiEENS_9allocatorIiEEE6insertB8ne200100INS_21__tree_const_iteratorIiPNS_11__tree_nodeIiPvEElEEEEvT_SD_, symObjAddr: 0x54D0, symBinAddr: 0x6F500, symSize: 0x170 }
  - { offset: 0x3BE374, size: 0x8, addend: 0x0, symName: __ZNSt3__128__exception_guard_exceptionsINS_6vectorIN22llama_memory_recurrent8mem_cellENS_9allocatorIS3_EEE16__destroy_vectorEED1B8ne200100Ev, symObjAddr: 0x5460, symBinAddr: 0x6F490, symSize: 0x70 }
  - { offset: 0x3C0616, size: 0x8, addend: 0x0, symName: __Z27llama_memory_status_combine19llama_memory_statusS_, symObjAddr: 0x0, symBinAddr: 0x6F670, symSize: 0x40 }
  - { offset: 0x3C062B, size: 0x8, addend: 0x0, symName: __Z27llama_memory_status_combine19llama_memory_statusS_, symObjAddr: 0x0, symBinAddr: 0x6F670, symSize: 0x40 }
  - { offset: 0x3C0677, size: 0x8, addend: 0x0, symName: __Z27llama_memory_status_is_fail19llama_memory_status, symObjAddr: 0x40, symBinAddr: 0x6F6B0, symSize: 0xF }
  - { offset: 0x3C318C, size: 0x8, addend: 0x0, symName: __ZN10llama_mmap9SUPPORTEDE, symObjAddr: 0x1BF4, symBinAddr: 0x2B05AE, symSize: 0x0 }
  - { offset: 0x3C88A2, size: 0x8, addend: 0x0, symName: __ZN11llama_mlock9SUPPORTEDE, symObjAddr: 0x1BF5, symBinAddr: 0x2B05AF, symSize: 0x0 }
  - { offset: 0x3C8AEA, size: 0x8, addend: 0x0, symName: __ZN10llama_fileC2EPKcS1_b, symObjAddr: 0x0, symBinAddr: 0x6F6C0, symSize: 0x60 }
  - { offset: 0x3C8BDA, size: 0x8, addend: 0x0, symName: __ZN10llama_file4implC2EPKcS2_b, symObjAddr: 0x1590, symBinAddr: 0x70B80, symSize: 0xF0 }
  - { offset: 0x3C905E, size: 0x8, addend: 0x0, symName: __ZN10llama_fileC1EPKcS1_b, symObjAddr: 0x60, symBinAddr: 0x6F720, symSize: 0x60 }
  - { offset: 0x3C9333, size: 0x8, addend: 0x0, symName: __ZN10llama_fileD2Ev, symObjAddr: 0xC0, symBinAddr: 0x6F780, symSize: 0x60 }
  - { offset: 0x3C9540, size: 0x8, addend: 0x0, symName: __ZN10llama_fileD1Ev, symObjAddr: 0x120, symBinAddr: 0x6F7E0, symSize: 0x60 }
  - { offset: 0x3C9747, size: 0x8, addend: 0x0, symName: __ZNK10llama_file4tellEv, symObjAddr: 0x180, symBinAddr: 0x6F840, symSize: 0x10 }
  - { offset: 0x3C979C, size: 0x8, addend: 0x0, symName: __ZNK10llama_file4impl4tellEv, symObjAddr: 0x190, symBinAddr: 0x6F850, symSize: 0x130 }
  - { offset: 0x3C9981, size: 0x8, addend: 0x0, symName: __ZNK10llama_file4sizeEv, symObjAddr: 0x2C0, symBinAddr: 0x6F980, symSize: 0x10 }
  - { offset: 0x3C99DA, size: 0x8, addend: 0x0, symName: __ZNK10llama_file14read_alignmentEv, symObjAddr: 0x2D0, symBinAddr: 0x6F990, symSize: 0x10 }
  - { offset: 0x3C9A52, size: 0x8, addend: 0x0, symName: __ZNK10llama_file13has_direct_ioEv, symObjAddr: 0x2E0, symBinAddr: 0x6F9A0, symSize: 0x20 }
  - { offset: 0x3C9AB4, size: 0x8, addend: 0x0, symName: __ZNK10llama_file7file_idEv, symObjAddr: 0x300, symBinAddr: 0x6F9C0, symSize: 0x20 }
  - { offset: 0x3C9B14, size: 0x8, addend: 0x0, symName: __ZNK10llama_file4seekEmi, symObjAddr: 0x320, symBinAddr: 0x6F9E0, symSize: 0x10 }
  - { offset: 0x3C9B96, size: 0x8, addend: 0x0, symName: __ZNK10llama_file4impl4seekEmi, symObjAddr: 0x330, symBinAddr: 0x6F9F0, symSize: 0xD0 }
  - { offset: 0x3C9D77, size: 0x8, addend: 0x0, symName: __ZN10llama_file8read_rawEPvm, symObjAddr: 0x400, symBinAddr: 0x6FAC0, symSize: 0x20 }
  - { offset: 0x3C9E32, size: 0x8, addend: 0x0, symName: __ZN10llama_file4impl18read_aligned_chunkEPvm, symObjAddr: 0x1250, symBinAddr: 0x70910, symSize: 0x150 }
  - { offset: 0x3CA1AF, size: 0x8, addend: 0x0, symName: __ZN10llama_file4impl15read_raw_unsafeEPvm, symObjAddr: 0x430, symBinAddr: 0x6FAF0, symSize: 0x320 }
  - { offset: 0x3CA4D1, size: 0x8, addend: 0x0, symName: __ZN10llama_file15read_raw_unsafeEPvm, symObjAddr: 0x420, symBinAddr: 0x6FAE0, symSize: 0x10 }
  - { offset: 0x3CA56A, size: 0x8, addend: 0x0, symName: __ZN10llama_file4impl7init_fpEPKc, symObjAddr: 0x13B0, symBinAddr: 0x70A60, symSize: 0x110 }
  - { offset: 0x3CA922, size: 0x8, addend: 0x0, symName: __ZN10llama_file8read_u32Ev, symObjAddr: 0x750, symBinAddr: 0x6FE10, symSize: 0x50 }
  - { offset: 0x3CA9FF, size: 0x8, addend: 0x0, symName: __ZNK10llama_file9write_rawEPKvm, symObjAddr: 0x7A0, symBinAddr: 0x6FE60, symSize: 0x10 }
  - { offset: 0x3CAA81, size: 0x8, addend: 0x0, symName: __ZNK10llama_file4impl9write_rawEPKvm, symObjAddr: 0x7B0, symBinAddr: 0x6FE70, symSize: 0xE0 }
  - { offset: 0x3CAC72, size: 0x8, addend: 0x0, symName: __ZNK10llama_file9write_u32Ej, symObjAddr: 0x890, symBinAddr: 0x6FF50, symSize: 0x30 }
  - { offset: 0x3CADBF, size: 0x8, addend: 0x0, symName: __ZN10llama_mmapC2EP10llama_filemb, symObjAddr: 0x8C0, symBinAddr: 0x6FF80, symSize: 0x60 }
  - { offset: 0x3CAEAF, size: 0x8, addend: 0x0, symName: __ZN10llama_mmap4implC2EP10llama_filemb, symObjAddr: 0x1690, symBinAddr: 0x70C70, symSize: 0x2F0 }
  - { offset: 0x3CB80C, size: 0x8, addend: 0x0, symName: __ZN10llama_mmapC1EP10llama_filemb, symObjAddr: 0x920, symBinAddr: 0x6FFE0, symSize: 0x60 }
  - { offset: 0x3CB9F2, size: 0x8, addend: 0x0, symName: __ZN10llama_mmapD2Ev, symObjAddr: 0x980, symBinAddr: 0x70040, symSize: 0x40 }
  - { offset: 0x3CBAD0, size: 0x8, addend: 0x0, symName: __ZN10llama_mmap4implD2Ev, symObjAddr: 0x1980, symBinAddr: 0x70F60, symSize: 0xA0 }
  - { offset: 0x3CBD1F, size: 0x8, addend: 0x0, symName: __ZN10llama_mmapD1Ev, symObjAddr: 0x9C0, symBinAddr: 0x70080, symSize: 0x40 }
  - { offset: 0x3CBE44, size: 0x8, addend: 0x0, symName: __ZNK10llama_mmap4sizeEv, symObjAddr: 0xA00, symBinAddr: 0x700C0, symSize: 0x10 }
  - { offset: 0x3CBE89, size: 0x8, addend: 0x0, symName: __ZNK10llama_mmap4addrEv, symObjAddr: 0xA10, symBinAddr: 0x700D0, symSize: 0x10 }
  - { offset: 0x3CBECE, size: 0x8, addend: 0x0, symName: __ZN10llama_mmap14unmap_fragmentEmm, symObjAddr: 0xA20, symBinAddr: 0x700E0, symSize: 0x10 }
  - { offset: 0x3CBF50, size: 0x8, addend: 0x0, symName: __ZN10llama_mmap4impl14unmap_fragmentEmm, symObjAddr: 0xA30, symBinAddr: 0x700F0, symSize: 0x650 }
  - { offset: 0x3CDB6A, size: 0x8, addend: 0x0, symName: __ZNSt3__16vectorINS_4pairImmEENS_9allocatorIS2_EEE20__throw_length_errorB8ne200100Ev, symObjAddr: 0x14C0, symBinAddr: 0x70B70, symSize: 0x10 }
  - { offset: 0x3CDC27, size: 0x8, addend: 0x0, symName: __ZN11llama_mlockC2Ev, symObjAddr: 0x1080, symBinAddr: 0x70740, symSize: 0x30 }
  - { offset: 0x3CDD03, size: 0x8, addend: 0x0, symName: __ZN11llama_mlockC1Ev, symObjAddr: 0x10B0, symBinAddr: 0x70770, symSize: 0x30 }
  - { offset: 0x3CDE6E, size: 0x8, addend: 0x0, symName: __ZN11llama_mlockD2Ev, symObjAddr: 0x10E0, symBinAddr: 0x707A0, symSize: 0x20 }
  - { offset: 0x3CDF31, size: 0x8, addend: 0x0, symName: __ZN11llama_mlockD1Ev, symObjAddr: 0x1100, symBinAddr: 0x707C0, symSize: 0x20 }
  - { offset: 0x3CE03E, size: 0x8, addend: 0x0, symName: __ZN11llama_mlock4initEPv, symObjAddr: 0x1120, symBinAddr: 0x707E0, symSize: 0x40 }
  - { offset: 0x3CE07A, size: 0x8, addend: 0x0, symName: __ZN11llama_mlock4initEPv, symObjAddr: 0x1120, symBinAddr: 0x707E0, symSize: 0x40 }
  - { offset: 0x3CE0C1, size: 0x8, addend: 0x0, symName: __ZN11llama_mlock7grow_toEm, symObjAddr: 0x1160, symBinAddr: 0x70820, symSize: 0x10 }
  - { offset: 0x3CE12D, size: 0x8, addend: 0x0, symName: __ZN11llama_mlock4impl7grow_toEm, symObjAddr: 0x1170, symBinAddr: 0x70830, symSize: 0xD0 }
  - { offset: 0x3CE2B7, size: 0x8, addend: 0x0, symName: __Z14llama_path_maxv, symObjAddr: 0x1240, symBinAddr: 0x70900, symSize: 0x10 }
  - { offset: 0x3CE6E0, size: 0x8, addend: 0x0, symName: __ZN10llama_mmap4implC2EP10llama_filemb, symObjAddr: 0x1690, symBinAddr: 0x70C70, symSize: 0x2F0 }
  - { offset: 0x3F0B9B, size: 0x8, addend: 0x0, symName: __ZNSt3__120__throw_future_errorB8ne200100ENS_11future_errcE, symObjAddr: 0xC0E0, symBinAddr: 0x7C580, symSize: 0x60 }
  - { offset: 0x3F1D30, size: 0x8, addend: 0x0, symName: '__ZNSt3__114__thread_proxyB8ne200100INS_5tupleIJNS_10unique_ptrINS_15__thread_structENS_14default_deleteIS3_EEEEMNS_19__async_assoc_stateINS_4pairIP11ggml_tensorbEENS_12__async_funcIZN18llama_model_loader13load_all_dataEP12ggml_contextRNS_13unordered_mapIjP19ggml_backend_bufferNS_4hashIjEENS_8equal_toIjEENS_9allocatorINS8_IKjSI_EEEEEEPNS_6vectorINS2_I11llama_mlockNS4_ISU_EEEENSN_ISW_EEEEPFbfPvES10_E3$_0JEEEEEFvvEPS15_EEEEES10_S10_', symObjAddr: 0xC140, symBinAddr: 0x7C5E0, symSize: 0x90 }
  - { offset: 0x3F20FA, size: 0x8, addend: 0x0, symName: '__ZNSt3__114__thread_proxyB8ne200100INS_5tupleIJNS_10unique_ptrINS_15__thread_structENS_14default_deleteIS3_EEEEMNS_19__async_assoc_stateINS_4pairIP11ggml_tensorbEENS_12__async_funcIZN18llama_model_loader13load_all_dataEP12ggml_contextRNS_13unordered_mapIjP19ggml_backend_bufferNS_4hashIjEENS_8equal_toIjEENS_9allocatorINS8_IKjSI_EEEEEEPNS_6vectorINS2_I11llama_mlockNS4_ISU_EEEENSN_ISW_EEEEPFbfPvES10_E3$_1JEEEEEFvvEPS15_EEEEES10_S10_', symObjAddr: 0xC450, symBinAddr: 0x7C8F0, symSize: 0x90 }
  - { offset: 0x3F6CA5, size: 0x8, addend: 0x0, symName: __ZN18llama_model_loader13load_all_dataEP12ggml_contextRNSt3__113unordered_mapIjP19ggml_backend_bufferNS2_4hashIjEENS2_8equal_toIjEENS2_9allocatorINS2_4pairIKjS5_EEEEEEPNS2_6vectorINS2_10unique_ptrI11llama_mlockNS2_14default_deleteISJ_EEEENSA_ISM_EEEEPFbfPvESQ_, symObjAddr: 0x64A0, symBinAddr: 0x77370, symSize: 0x1F40 }
  - { offset: 0x3FB6E4, size: 0x8, addend: 0x0, symName: __Z23llama_file_version_name10llama_fver, symObjAddr: 0x0, symBinAddr: 0x71000, symSize: 0x30 }
  - { offset: 0x3FB7D1, size: 0x8, addend: 0x0, symName: __ZN18llama_model_loader9get_arr_nIjEENSt3__19enable_ifIXsr3std11is_integralIT_EE5valueEbE4typeE6llm_kvRS3_b, symObjAddr: 0x30, symBinAddr: 0x71030, symSize: 0x80 }
  - { offset: 0x3FBA6D, size: 0x8, addend: 0x0, symName: __ZN18llama_model_loader9get_arr_nIjEENSt3__19enable_ifIXsr3std11is_integralIT_EE5valueEbE4typeERKNS1_12basic_stringIcNS1_11char_traitsIcEENS1_9allocatorIcEEEERS3_b, symObjAddr: 0xB0, symBinAddr: 0x710B0, symSize: 0x110 }
  - { offset: 0x3FBDDB, size: 0x8, addend: 0x0, symName: __ZN8GGUFMeta3GKVINS_9ArrayInfoEE6get_kvEPK12gguf_contexti, symObjAddr: 0x8D00, symBinAddr: 0x79A70, symSize: 0x130 }
  - { offset: 0x3FC019, size: 0x8, addend: 0x0, symName: __ZN18llama_model_loader7get_arrINSt3__16vectorINS1_12basic_stringIcNS1_11char_traitsIcEENS1_9allocatorIcEEEENS6_IS8_EEEEEEb6llm_kvRT_b, symObjAddr: 0x1C0, symBinAddr: 0x711C0, symSize: 0x80 }
  - { offset: 0x3FC2B5, size: 0x8, addend: 0x0, symName: __ZN18llama_model_loader7get_arrINSt3__112basic_stringIcNS1_11char_traitsIcEENS1_9allocatorIcEEEEEEbRKS7_RNS1_6vectorIT_NS5_ISB_EEEEb, symObjAddr: 0x240, symBinAddr: 0x71240, symSize: 0x3E0 }
  - { offset: 0x3FD955, size: 0x8, addend: 0x0, symName: __ZN18llama_model_loader7get_keyIbEEb6llm_kvRT_b, symObjAddr: 0x620, symBinAddr: 0x71620, symSize: 0x80 }
  - { offset: 0x3FDBF1, size: 0x8, addend: 0x0, symName: __ZN18llama_model_loader7get_keyIbEEbRKNSt3__112basic_stringIcNS1_11char_traitsIcEENS1_9allocatorIcEEEERT_b, symObjAddr: 0x6A0, symBinAddr: 0x716A0, symSize: 0x140 }
  - { offset: 0x3FE105, size: 0x8, addend: 0x0, symName: __ZNSt3__112__hash_tableINS_17__hash_value_typeINS_12basic_stringIcNS_11char_traitsIcEENS_9allocatorIcEEEE23llama_model_kv_overrideEENS_22__unordered_map_hasherIS7_S9_NS_4hashIS7_EENS_8equal_toIS7_EELb1EEENS_21__unordered_map_equalIS7_S9_SE_SC_Lb1EEENS5_IS9_EEE4findIS7_EENS_15__hash_iteratorIPNS_11__hash_nodeIS9_PvEEEERKT_, symObjAddr: 0x9030, symBinAddr: 0x79BA0, symSize: 0x290 }
  - { offset: 0x3FE403, size: 0x8, addend: 0x0, symName: __ZN8GGUFMeta3GKVIbE17validate_overrideE28llama_model_kv_override_typePK23llama_model_kv_override, symObjAddr: 0x9860, symBinAddr: 0x79F20, symSize: 0x200 }
  - { offset: 0x3FE5F4, size: 0x8, addend: 0x0, symName: __ZN8GGUFMeta3GKVIbE6get_kvEPK12gguf_contexti, symObjAddr: 0x9770, symBinAddr: 0x79E30, symSize: 0xF0 }
  - { offset: 0x3FE7C7, size: 0x8, addend: 0x0, symName: __ZN18llama_model_loader7get_keyIfEEb6llm_kvRT_b, symObjAddr: 0x7E0, symBinAddr: 0x717E0, symSize: 0x80 }
  - { offset: 0x3FEA63, size: 0x8, addend: 0x0, symName: __ZN18llama_model_loader7get_keyIfEEbRKNSt3__112basic_stringIcNS1_11char_traitsIcEENS1_9allocatorIcEEEERT_b, symObjAddr: 0x860, symBinAddr: 0x71860, symSize: 0x140 }
  - { offset: 0x3FEF43, size: 0x8, addend: 0x0, symName: __ZN8GGUFMeta3GKVIfE17validate_overrideE28llama_model_kv_override_typePK23llama_model_kv_override, symObjAddr: 0x9B50, symBinAddr: 0x7A210, symSize: 0x200 }
  - { offset: 0x3FF134, size: 0x8, addend: 0x0, symName: __ZN8GGUFMeta3GKVIfE6get_kvEPK12gguf_contexti, symObjAddr: 0x9A60, symBinAddr: 0x7A120, symSize: 0xF0 }
  - { offset: 0x3FF307, size: 0x8, addend: 0x0, symName: __ZN18llama_model_loader7get_keyIjEEb6llm_kvRT_b, symObjAddr: 0x9A0, symBinAddr: 0x719A0, symSize: 0x80 }
  - { offset: 0x3FF580, size: 0x8, addend: 0x0, symName: __ZN18llama_model_loader7get_keyIjEEbRKNSt3__112basic_stringIcNS1_11char_traitsIcEENS1_9allocatorIcEEEERT_b, symObjAddr: 0xA20, symBinAddr: 0x71A20, symSize: 0x130 }
  - { offset: 0x3FFA60, size: 0x8, addend: 0x0, symName: __ZN8GGUFMeta3GKVIjE17validate_overrideE28llama_model_kv_override_typePK23llama_model_kv_override, symObjAddr: 0x9E40, symBinAddr: 0x7A500, symSize: 0x200 }
  - { offset: 0x3FFC51, size: 0x8, addend: 0x0, symName: __ZN8GGUFMeta3GKVIjE6get_kvEPK12gguf_contexti, symObjAddr: 0x9D50, symBinAddr: 0x7A410, symSize: 0xF0 }
  - { offset: 0x3FFE24, size: 0x8, addend: 0x0, symName: __ZN18llama_model_loader7get_keyINSt3__112basic_stringIcNS1_11char_traitsIcEENS1_9allocatorIcEEEEEEb6llm_kvRT_b, symObjAddr: 0xB50, symBinAddr: 0x71B50, symSize: 0x80 }
  - { offset: 0x4000C0, size: 0x8, addend: 0x0, symName: __ZN18llama_model_loader7get_keyINSt3__112basic_stringIcNS1_11char_traitsIcEENS1_9allocatorIcEEEEEEbRKS7_RT_b, symObjAddr: 0xBD0, symBinAddr: 0x71BD0, symSize: 0x160 }
  - { offset: 0x400769, size: 0x8, addend: 0x0, symName: __ZN8GGUFMeta3GKVINSt3__112basic_stringIcNS1_11char_traitsIcEENS1_9allocatorIcEEEEE17validate_overrideE28llama_model_kv_override_typePK23llama_model_kv_override, symObjAddr: 0xA1C0, symBinAddr: 0x7A880, symSize: 0x200 }
  - { offset: 0x40095A, size: 0x8, addend: 0x0, symName: __ZN8GGUFMeta3GKVINSt3__112basic_stringIcNS1_11char_traitsIcEENS1_9allocatorIcEEEEE6get_kvEPK12gguf_contexti, symObjAddr: 0xA040, symBinAddr: 0x7A700, symSize: 0x180 }
  - { offset: 0x400E56, size: 0x8, addend: 0x0, symName: __ZN18llama_model_loader7get_keyI18llama_pooling_typeEEb6llm_kvRT_b, symObjAddr: 0xD30, symBinAddr: 0x71D30, symSize: 0x90 }
  - { offset: 0x401144, size: 0x8, addend: 0x0, symName: __ZN18llama_model_loader14get_key_or_arrE6llm_kvRjb, symObjAddr: 0xDC0, symBinAddr: 0x71DC0, symSize: 0x1C0 }
  - { offset: 0x401665, size: 0x8, addend: 0x0, symName: __ZN18llama_model_loader14get_key_or_arrINSt3__15arrayIiLm4EEEEEb6llm_kvRT_jb, symObjAddr: 0xF80, symBinAddr: 0x71F80, symSize: 0x90 }
  - { offset: 0x401917, size: 0x8, addend: 0x0, symName: __ZN18llama_model_loader14get_key_or_arrIiLm4EEEbRKNSt3__112basic_stringIcNS1_11char_traitsIcEENS1_9allocatorIcEEEERNS1_5arrayIT_XT0_EEEjb, symObjAddr: 0x1010, symBinAddr: 0x72010, symSize: 0x320 }
  - { offset: 0x402037, size: 0x8, addend: 0x0, symName: __ZN18llama_model_loader7get_arrIiLm4EEEbRKNSt3__112basic_stringIcNS1_11char_traitsIcEENS1_9allocatorIcEEEERNS1_5arrayIT_XT0_EEEb, symObjAddr: 0xA3C0, symBinAddr: 0x7AA80, symSize: 0x2B0 }
  - { offset: 0x4025C2, size: 0x8, addend: 0x0, symName: __ZN18llama_model_loader7get_keyIiEEbRKNSt3__112basic_stringIcNS1_11char_traitsIcEENS1_9allocatorIcEEEERT_b, symObjAddr: 0x4D50, symBinAddr: 0x75C20, symSize: 0x130 }
  - { offset: 0x4029D5, size: 0x8, addend: 0x0, symName: __ZN18llama_model_loader14get_key_or_arrINSt3__15arrayIjLm512EEEEEb6llm_kvRT_jb, symObjAddr: 0x1330, symBinAddr: 0x72330, symSize: 0x90 }
  - { offset: 0x402C87, size: 0x8, addend: 0x0, symName: __ZN18llama_model_loader14get_key_or_arrIjLm512EEEbRKNSt3__112basic_stringIcNS1_11char_traitsIcEENS1_9allocatorIcEEEERNS1_5arrayIT_XT0_EEEjb, symObjAddr: 0x13C0, symBinAddr: 0x723C0, symSize: 0x2E0 }
  - { offset: 0x4033A7, size: 0x8, addend: 0x0, symName: __ZN18llama_model_loader7get_arrIjLm512EEEbRKNSt3__112basic_stringIcNS1_11char_traitsIcEENS1_9allocatorIcEEEERNS1_5arrayIT_XT0_EEEb, symObjAddr: 0xA670, symBinAddr: 0x7AD30, symSize: 0x300 }
  - { offset: 0x40392F, size: 0x8, addend: 0x0, symName: __ZN18llama_model_loader14get_key_or_arrINSt3__15arrayIfLm512EEEEEb6llm_kvRT_jb, symObjAddr: 0x16A0, symBinAddr: 0x726A0, symSize: 0x90 }
  - { offset: 0x403BE1, size: 0x8, addend: 0x0, symName: __ZN18llama_model_loader14get_key_or_arrIfLm512EEEbRKNSt3__112basic_stringIcNS1_11char_traitsIcEENS1_9allocatorIcEEEERNS1_5arrayIT_XT0_EEEjb, symObjAddr: 0x1730, symBinAddr: 0x72730, symSize: 0x2E0 }
  - { offset: 0x404301, size: 0x8, addend: 0x0, symName: __ZN18llama_model_loader7get_arrIfLm512EEEbRKNSt3__112basic_stringIcNS1_11char_traitsIcEENS1_9allocatorIcEEEERNS1_5arrayIT_XT0_EEEb, symObjAddr: 0xA970, symBinAddr: 0x7B030, symSize: 0x270 }
  - { offset: 0x406E0B, size: 0x8, addend: 0x0, symName: __ZN18llama_model_loaderC2ERKNSt3__112basic_stringIcNS0_11char_traitsIcEENS0_9allocatorIcEEEERNS0_6vectorIS6_NS4_IS6_EEEEbbbbPK23llama_model_kv_overridePK32llama_model_tensor_buft_override, symObjAddr: 0x1A10, symBinAddr: 0x72A10, symSize: 0x30E0 }
  - { offset: 0x4101CD, size: 0x8, addend: 0x0, symName: __ZNSt3__112__hash_tableINS_17__hash_value_typeINS_12basic_stringIcNS_11char_traitsIcEENS_9allocatorIcEEEE23llama_model_kv_overrideEENS_22__unordered_map_hasherIS7_S9_NS_4hashIS7_EENS_8equal_toIS7_EELb1EEENS_21__unordered_map_equalIS7_S9_SE_SC_Lb1EEENS5_IS9_EEE25__emplace_unique_key_argsIS7_JNS_4pairIKS7_S8_EEEEENSL_INS_15__hash_iteratorIPNS_11__hash_nodeIS9_PvEEEEbEERKT_DpOT0_, symObjAddr: 0xAC30, symBinAddr: 0x7B2F0, symSize: 0x5A0 }
  - { offset: 0x410BD6, size: 0x8, addend: 0x0, symName: __ZNK18llama_model_loader20weight_name_comparerclERKNSt3__112basic_stringIcNS1_11char_traitsIcEENS1_9allocatorIcEEEES9_, symObjAddr: 0xB3F0, symBinAddr: 0x7BAA0, symSize: 0xF0 }
  - { offset: 0x410EA3, size: 0x8, addend: 0x0, symName: __ZN18llama_model_loader19llama_tensor_weightC2EPK10llama_filetPK12gguf_contextP11ggml_tensor, symObjAddr: 0x88D0, symBinAddr: 0x79790, symSize: 0x190 }
  - { offset: 0x41108A, size: 0x8, addend: 0x0, symName: __ZNSt3__16__treeINS_12__value_typeINS_12basic_stringIcNS_11char_traitsIcEENS_9allocatorIcEEEEN18llama_model_loader19llama_tensor_weightEEENS_19__map_value_compareIS7_SA_NS8_20weight_name_comparerELb1EEENS5_ISA_EEE25__emplace_unique_key_argsIS7_JRS7_S9_EEENS_4pairINS_15__tree_iteratorISA_PNS_11__tree_nodeISA_PvEElEEbEERKT_DpOT0_, symObjAddr: 0xB4E0, symBinAddr: 0x7BB90, symSize: 0x160 }
  - { offset: 0x411505, size: 0x8, addend: 0x0, symName: __ZN8GGUFMeta3GKVItE17validate_overrideE28llama_model_kv_override_typePK23llama_model_kv_override, symObjAddr: 0xB900, symBinAddr: 0x7BE30, symSize: 0x200 }
  - { offset: 0x4116F6, size: 0x8, addend: 0x0, symName: __ZN8GGUFMeta3GKVItE6get_kvEPK12gguf_contexti, symObjAddr: 0xB810, symBinAddr: 0x7BD40, symSize: 0xF0 }
  - { offset: 0x4118D7, size: 0x8, addend: 0x0, symName: __ZN18llama_model_loader7get_keyItEEbRKNSt3__112basic_stringIcNS1_11char_traitsIcEENS1_9allocatorIcEEEERT_b, symObjAddr: 0x4B80, symBinAddr: 0x75AF0, symSize: 0x130 }
  - { offset: 0x411DFB, size: 0x8, addend: 0x0, symName: __ZNSt3__16__treeINS_12__value_typeI9ggml_typejEENS_19__map_value_compareIS2_S3_NS_4lessIS2_EELb1EEENS_9allocatorIS3_EEE7destroyEPNS_11__tree_nodeIS3_PvEE, symObjAddr: 0xBDF0, symBinAddr: 0x7C320, symSize: 0x40 }
  - { offset: 0x411F1C, size: 0x8, addend: 0x0, symName: __ZNK18llama_model_loader20weight_name_comparerclERKNSt3__112basic_stringIcNS1_11char_traitsIcEENS1_9allocatorIcEEEES9_, symObjAddr: 0xB3F0, symBinAddr: 0x7BAA0, symSize: 0xF0 }
  - { offset: 0x411F27, size: 0x8, addend: 0x0, symName: __ZNSt3__16vectorINS_10unique_ptrI10llama_fileNS_14default_deleteIS2_EEEENS_9allocatorIS5_EEE20__throw_length_errorB8ne200100Ev, symObjAddr: 0xB3D0, symBinAddr: 0x7BA90, symSize: 0x10 }
  - { offset: 0x411F54, size: 0x8, addend: 0x0, symName: __ZNSt3__16vectorIP18ggml_backend_eventNS_9allocatorIS2_EEE12emplace_backIJRS2_EEES7_DpOT_, symObjAddr: 0x8BB0, symBinAddr: 0x79920, symSize: 0x120 }
  - { offset: 0x4120DC, size: 0x8, addend: 0x0, symName: __ZNSt3__110unique_ptrINS_11__tree_nodeINS_12__value_typeINS_12basic_stringIcNS_11char_traitsIcEENS_9allocatorIcEEEEN18llama_model_loader19llama_tensor_weightEEEPvEENS_22__tree_node_destructorINS6_ISD_EEEEED1B8ne200100Ev, symObjAddr: 0xB640, symBinAddr: 0x7BCF0, symSize: 0x50 }
  - { offset: 0x4123FC, size: 0x8, addend: 0x0, symName: __ZNSt3__16vectorINS_10unique_ptrI12ggml_context20ggml_context_deleterEENS_9allocatorIS4_EEED1B8ne200100Ev, symObjAddr: 0x4E80, symBinAddr: 0x75D50, symSize: 0x80 }
  - { offset: 0x4125C6, size: 0x8, addend: 0x0, symName: __ZNSt3__113unordered_mapINS_12basic_stringIcNS_11char_traitsIcEENS_9allocatorIcEEEE23llama_model_kv_overrideNS_4hashIS6_EENS_8equal_toIS6_EENS4_INS_4pairIKS6_S7_EEEEED1B8ne200100Ev, symObjAddr: 0x4F00, symBinAddr: 0x75DD0, symSize: 0x70 }
  - { offset: 0x4129A7, size: 0x8, addend: 0x0, symName: __ZNSt3__16__treeINS_12__value_typeINS_12basic_stringIcNS_11char_traitsIcEENS_9allocatorIcEEEEN18llama_model_loader19llama_tensor_weightEEENS_19__map_value_compareIS7_SA_NS8_20weight_name_comparerELb1EEENS5_ISA_EEE7destroyEPNS_11__tree_nodeISA_PvEE, symObjAddr: 0xABE0, symBinAddr: 0x7B2A0, symSize: 0x50 }
  - { offset: 0x412C3E, size: 0x8, addend: 0x0, symName: __ZNSt3__16vectorINS_10unique_ptrI10llama_mmapNS_14default_deleteIS2_EEEENS_9allocatorIS5_EEED1B8ne200100Ev, symObjAddr: 0x4F70, symBinAddr: 0x75E40, symSize: 0x80 }
  - { offset: 0x412E2E, size: 0x8, addend: 0x0, symName: __ZNSt3__16vectorINS_10unique_ptrI10llama_fileNS_14default_deleteIS2_EEEENS_9allocatorIS5_EEED1B8ne200100Ev, symObjAddr: 0x4FF0, symBinAddr: 0x75EC0, symSize: 0x80 }
  - { offset: 0x4132F0, size: 0x8, addend: 0x0, symName: __ZN8GGUFMeta3GKVIiE17validate_overrideE28llama_model_kv_override_typePK23llama_model_kv_override, symObjAddr: 0xBBF0, symBinAddr: 0x7C120, symSize: 0x200 }
  - { offset: 0x4134E1, size: 0x8, addend: 0x0, symName: __ZN8GGUFMeta3GKVIiE6get_kvEPK12gguf_contexti, symObjAddr: 0xBB00, symBinAddr: 0x7C030, symSize: 0xF0 }
  - { offset: 0x413C76, size: 0x8, addend: 0x0, symName: __ZN18llama_model_loaderC1ERKNSt3__112basic_stringIcNS0_11char_traitsIcEENS0_9allocatorIcEEEERNS0_6vectorIS6_NS4_IS6_EEEEbbbbPK23llama_model_kv_overridePK32llama_model_tensor_buft_override, symObjAddr: 0x5070, symBinAddr: 0x75F40, symSize: 0x10 }
  - { offset: 0x413D76, size: 0x8, addend: 0x0, symName: __ZNK18llama_model_loader13get_arch_nameEv, symObjAddr: 0x5080, symBinAddr: 0x75F50, symSize: 0x50 }
  - { offset: 0x413E14, size: 0x8, addend: 0x0, symName: __ZNK18llama_model_loader8get_archEv, symObjAddr: 0x50D0, symBinAddr: 0x75FA0, symSize: 0x10 }
  - { offset: 0x413F16, size: 0x8, addend: 0x0, symName: __ZNK18llama_model_loader10get_weightEPKc, symObjAddr: 0x50E0, symBinAddr: 0x75FB0, symSize: 0x140 }
  - { offset: 0x414638, size: 0x8, addend: 0x0, symName: __ZNK18llama_model_loader14require_weightEPKc, symObjAddr: 0x5220, symBinAddr: 0x760F0, symSize: 0xC0 }
  - { offset: 0x4147AF, size: 0x8, addend: 0x0, symName: __ZNK18llama_model_loader15get_tensor_metaEPKc, symObjAddr: 0x52E0, symBinAddr: 0x761B0, symSize: 0x20 }
  - { offset: 0x414836, size: 0x8, addend: 0x0, symName: __ZNK18llama_model_loader19require_tensor_metaERKNSt3__112basic_stringIcNS0_11char_traitsIcEENS0_9allocatorIcEEEE, symObjAddr: 0x5300, symBinAddr: 0x761D0, symSize: 0xE0 }
  - { offset: 0x414AB8, size: 0x8, addend: 0x0, symName: __ZNK18llama_model_loader17check_tensor_dimsERKNSt3__112basic_stringIcNS0_11char_traitsIcEENS0_9allocatorIcEEEERKNS0_6vectorIxNS4_IxEEEEb, symObjAddr: 0x53E0, symBinAddr: 0x762B0, symSize: 0x250 }
  - { offset: 0x415557, size: 0x8, addend: 0x0, symName: __ZN18llama_model_loader13create_tensorEP12ggml_contextRKNSt3__112basic_stringIcNS2_11char_traitsIcEENS2_9allocatorIcEEEERKSt16initializer_listIxEi, symObjAddr: 0x5630, symBinAddr: 0x76500, symSize: 0x150 }
  - { offset: 0x415C33, size: 0x8, addend: 0x0, symName: __ZNSt3__16vectorIxNS_9allocatorIxEEE20__throw_length_errorB8ne200100Ev, symObjAddr: 0xBEB0, symBinAddr: 0x7C360, symSize: 0x10 }
  - { offset: 0x415C4B, size: 0x8, addend: 0x0, symName: __ZNSt3__16vectorINS_10unique_ptrI10llama_mmapNS_14default_deleteIS2_EEEENS_9allocatorIS5_EEE20__throw_length_errorB8ne200100Ev, symObjAddr: 0xBEC0, symBinAddr: 0x7C370, symSize: 0x10 }
  - { offset: 0x415C56, size: 0x8, addend: 0x0, symName: __ZN18llama_model_loader21create_tensor_as_viewEP12ggml_contextP11ggml_tensorRKNSt3__112basic_stringIcNS4_11char_traitsIcEENS4_9allocatorIcEEEERKSt16initializer_listIxEmb, symObjAddr: 0x5780, symBinAddr: 0x76650, symSize: 0x260 }
  - { offset: 0x4164FE, size: 0x8, addend: 0x0, symName: __ZNK18llama_model_loader20done_getting_tensorsEv, symObjAddr: 0x59E0, symBinAddr: 0x768B0, symSize: 0xC0 }
  - { offset: 0x417250, size: 0x8, addend: 0x0, symName: __ZN18llama_model_loader13init_mappingsEbPNSt3__16vectorINS0_10unique_ptrI11llama_mlockNS0_14default_deleteIS3_EEEENS0_9allocatorIS6_EEEE, symObjAddr: 0x5AA0, symBinAddr: 0x76970, symSize: 0x630 }
  - { offset: 0x418B08, size: 0x8, addend: 0x0, symName: __ZNSt3__16vectorINS_10unique_ptrI10llama_mmapNS_14default_deleteIS2_EEEENS_9allocatorIS5_EEE20__throw_length_errorB8ne200100Ev, symObjAddr: 0xBEC0, symBinAddr: 0x7C370, symSize: 0x10 }
  - { offset: 0x418B35, size: 0x8, addend: 0x0, symName: __ZNSt3__16vectorINS_10unique_ptrI11llama_mlockNS_14default_deleteIS2_EEEENS_9allocatorIS5_EEE20__throw_length_errorB8ne200100Ev, symObjAddr: 0xBEE0, symBinAddr: 0x7C380, symSize: 0x10 }
  - { offset: 0x418B40, size: 0x8, addend: 0x0, symName: __ZNSt3__16vectorINS_10unique_ptrI11llama_mlockNS_14default_deleteIS2_EEEENS_9allocatorIS5_EEE20__throw_length_errorB8ne200100Ev, symObjAddr: 0xBEE0, symBinAddr: 0x7C380, symSize: 0x10 }
  - { offset: 0x418B58, size: 0x8, addend: 0x0, symName: __ZNSt3__16vectorINS_10unique_ptrI10llama_mmapNS_14default_deleteIS2_EEEENS_9allocatorIS5_EEE20__throw_out_of_rangeB8ne200100Ev, symObjAddr: 0xBEF0, symBinAddr: 0x7C390, symSize: 0x10 }
  - { offset: 0x418B63, size: 0x8, addend: 0x0, symName: __ZNSt3__110unique_ptrI10llama_mmapNS_14default_deleteIS1_EEED1B8ne200100Ev, symObjAddr: 0x6110, symBinAddr: 0x76FE0, symSize: 0x40 }
  - { offset: 0x418BF2, size: 0x8, addend: 0x0, symName: __ZNSt3__110unique_ptrI11llama_mlockNS_14default_deleteIS1_EEED1B8ne200100Ev, symObjAddr: 0x60D0, symBinAddr: 0x76FA0, symSize: 0x40 }
  - { offset: 0x418D96, size: 0x8, addend: 0x0, symName: __ZNK18llama_model_loader17get_mapping_rangeEPmS0_PPviP12ggml_context, symObjAddr: 0x6150, symBinAddr: 0x77020, symSize: 0x140 }
  - { offset: 0x419033, size: 0x8, addend: 0x0, symName: __ZNSt3__16vectorINS_10unique_ptrI10llama_mmapNS_14default_deleteIS2_EEEENS_9allocatorIS5_EEE20__throw_out_of_rangeB8ne200100Ev, symObjAddr: 0xBEF0, symBinAddr: 0x7C390, symSize: 0x10 }
  - { offset: 0x41904B, size: 0x8, addend: 0x0, symName: __ZNSt3__16vectorINS_10unique_ptrI10llama_fileNS_14default_deleteIS2_EEEENS_9allocatorIS5_EEE20__throw_out_of_rangeB8ne200100Ev, symObjAddr: 0xBF00, symBinAddr: 0x7C3A0, symSize: 0x10 }
  - { offset: 0x419056, size: 0x8, addend: 0x0, symName: __ZNK18llama_model_loader13load_data_forEP11ggml_tensor, symObjAddr: 0x6290, symBinAddr: 0x77160, symSize: 0x210 }
  - { offset: 0x41BAFA, size: 0x8, addend: 0x0, symName: __ZNSt3__113__assoc_stateINS_4pairIP11ggml_tensorbEEE4moveEv, symObjAddr: 0xC540, symBinAddr: 0x7C9E0, symSize: 0xC0 }
  - { offset: 0x41BCED, size: 0x8, addend: 0x0, symName: __ZNSt3__16vectorIP18ggml_backend_eventNS_9allocatorIS2_EEE12emplace_backIJRS2_EEES7_DpOT_, symObjAddr: 0x8BB0, symBinAddr: 0x79920, symSize: 0x120 }
  - { offset: 0x41C149, size: 0x8, addend: 0x0, symName: __ZNSt3__16vectorINS_10unique_ptrI10llama_fileNS_14default_deleteIS2_EEEENS_9allocatorIS5_EEE20__throw_out_of_rangeB8ne200100Ev, symObjAddr: 0xBF00, symBinAddr: 0x7C3A0, symSize: 0x10 }
  - { offset: 0x41C161, size: 0x8, addend: 0x0, symName: '__ZNSt3__119__async_assoc_stateINS_4pairIP11ggml_tensorbEENS_12__async_funcIZN18llama_model_loader13load_all_dataEP12ggml_contextRNS_13unordered_mapIjP19ggml_backend_bufferNS_4hashIjEENS_8equal_toIjEENS_9allocatorINS1_IKjSB_EEEEEEPNS_6vectorINS_10unique_ptrI11llama_mlockNS_14default_deleteISO_EEEENSG_ISR_EEEEPFbfPvESV_E3$_0JEEEED1Ev', symObjAddr: 0xBF10, symBinAddr: 0x7C3B0, symSize: 0x40 }
  - { offset: 0x41C16C, size: 0x8, addend: 0x0, symName: __ZNSt3__16vectorINS_4pairImmEENS_9allocatorIS2_EEE20__throw_out_of_rangeB8ne200100Ev, symObjAddr: 0xC600, symBinAddr: 0x7CAA0, symSize: 0x10 }
  - { offset: 0x41C18F, size: 0x8, addend: 0x0, symName: __ZNSt3__16vectorINS_6futureINS_4pairIP11ggml_tensorbEEEENS_9allocatorIS6_EEE20__throw_length_errorB8ne200100Ev, symObjAddr: 0xC260, symBinAddr: 0x7C700, symSize: 0x10 }
  - { offset: 0x41C1A7, size: 0x8, addend: 0x0, symName: __ZNSt3__16vectorINS_10unique_ptrI11llama_mlockNS_14default_deleteIS2_EEEENS_9allocatorIS5_EEE20__throw_out_of_rangeB8ne200100Ev, symObjAddr: 0xC270, symBinAddr: 0x7C710, symSize: 0x10 }
  - { offset: 0x41C1B2, size: 0x8, addend: 0x0, symName: __ZNSt3__16vectorINS_10unique_ptrI11llama_mlockNS_14default_deleteIS2_EEEENS_9allocatorIS5_EEE20__throw_out_of_rangeB8ne200100Ev, symObjAddr: 0xC270, symBinAddr: 0x7C710, symSize: 0x10 }
  - { offset: 0x41C1CA, size: 0x8, addend: 0x0, symName: '__ZNSt3__119__async_assoc_stateINS_4pairIP11ggml_tensorbEENS_12__async_funcIZN18llama_model_loader13load_all_dataEP12ggml_contextRNS_13unordered_mapIjP19ggml_backend_bufferNS_4hashIjEENS_8equal_toIjEENS_9allocatorINS1_IKjSB_EEEEEEPNS_6vectorINS_10unique_ptrI11llama_mlockNS_14default_deleteISO_EEEENSG_ISR_EEEEPFbfPvESV_E3$_1JEEEED1Ev', symObjAddr: 0xC280, symBinAddr: 0x7C720, symSize: 0x40 }
  - { offset: 0x41C1D5, size: 0x8, addend: 0x0, symName: __ZNSt3__16vectorI7no_initIhENS_9allocatorIS2_EEE20__throw_length_errorB8ne200100Ev, symObjAddr: 0xC530, symBinAddr: 0x7C9D0, symSize: 0x10 }
  - { offset: 0x41C1ED, size: 0x8, addend: 0x0, symName: __ZNSt3__113__assoc_stateINS_4pairIP11ggml_tensorbEEE4moveEv, symObjAddr: 0xC540, symBinAddr: 0x7C9E0, symSize: 0xC0 }
  - { offset: 0x41C1F8, size: 0x8, addend: 0x0, symName: __ZNSt3__16vectorIP19ggml_backend_bufferNS_9allocatorIS2_EEE20__throw_length_errorB8ne200100Ev, symObjAddr: 0x8CD0, symBinAddr: 0x79A40, symSize: 0x10 }
  - { offset: 0x41C210, size: 0x8, addend: 0x0, symName: __ZNSt3__16vectorIPvNS_9allocatorIS1_EEE20__throw_length_errorB8ne200100Ev, symObjAddr: 0x8CE0, symBinAddr: 0x79A50, symSize: 0x10 }
  - { offset: 0x41C21B, size: 0x8, addend: 0x0, symName: __ZNSt3__16vectorIPvNS_9allocatorIS1_EEE20__throw_length_errorB8ne200100Ev, symObjAddr: 0x8CE0, symBinAddr: 0x79A50, symSize: 0x10 }
  - { offset: 0x41C233, size: 0x8, addend: 0x0, symName: __ZNSt3__16vectorIP18ggml_backend_eventNS_9allocatorIS2_EEE20__throw_length_errorB8ne200100Ev, symObjAddr: 0x8CF0, symBinAddr: 0x79A60, symSize: 0x10 }
  - { offset: 0x41C23E, size: 0x8, addend: 0x0, symName: '__ZNSt3__110unique_ptrINS_5tupleIJNS0_INS_15__thread_structENS_14default_deleteIS2_EEEEMNS_19__async_assoc_stateINS_4pairIP11ggml_tensorbEENS_12__async_funcIZN18llama_model_loader13load_all_dataEP12ggml_contextRNS_13unordered_mapIjP19ggml_backend_bufferNS_4hashIjEENS_8equal_toIjEENS_9allocatorINS7_IKjSH_EEEEEEPNS_6vectorINS0_I11llama_mlockNS3_IST_EEEENSM_ISV_EEEEPFbfPvESZ_E3$_1JEEEEEFvvEPS14_EEENS3_IS18_EEED1B8ne200100Ev', symObjAddr: 0xC4E0, symBinAddr: 0x7C980, symSize: 0x50 }
  - { offset: 0x41C3E8, size: 0x8, addend: 0x0, symName: __ZNSt3__110unique_ptrINS_15__thread_structENS_14default_deleteIS1_EEED1B8ne200100Ev, symObjAddr: 0xC220, symBinAddr: 0x7C6C0, symSize: 0x40 }
  - { offset: 0x41C477, size: 0x8, addend: 0x0, symName: '__ZNSt3__110unique_ptrINS_5tupleIJNS0_INS_15__thread_structENS_14default_deleteIS2_EEEEMNS_19__async_assoc_stateINS_4pairIP11ggml_tensorbEENS_12__async_funcIZN18llama_model_loader13load_all_dataEP12ggml_contextRNS_13unordered_mapIjP19ggml_backend_bufferNS_4hashIjEENS_8equal_toIjEENS_9allocatorINS7_IKjSH_EEEEEEPNS_6vectorINS0_I11llama_mlockNS3_IST_EEEENSM_ISV_EEEEPFbfPvESZ_E3$_0JEEEEEFvvEPS14_EEENS3_IS18_EEED1B8ne200100Ev', symObjAddr: 0xC1D0, symBinAddr: 0x7C670, symSize: 0x50 }
  - { offset: 0x41C621, size: 0x8, addend: 0x0, symName: __ZNSt3__16vectorINS_6futureINS_4pairIP11ggml_tensorbEEEENS_9allocatorIS6_EEED1B8ne200100Ev, symObjAddr: 0x83E0, symBinAddr: 0x792B0, symSize: 0x80 }
  - { offset: 0x41C807, size: 0x8, addend: 0x0, symName: __ZNK18llama_model_loader10ftype_nameEv, symObjAddr: 0x8460, symBinAddr: 0x79330, symSize: 0x20 }
  - { offset: 0x41C846, size: 0x8, addend: 0x0, symName: __ZL22llama_model_ftype_name11llama_ftype, symObjAddr: 0x8480, symBinAddr: 0x79350, symSize: 0x2C0 }
  - { offset: 0x41CB11, size: 0x8, addend: 0x0, symName: __ZNK18llama_model_loader10print_infoEv, symObjAddr: 0x8740, symBinAddr: 0x79610, symSize: 0x180 }
  - { offset: 0x41D336, size: 0x8, addend: 0x0, symName: __ZNSt3__16vectorIP18ggml_backend_eventNS_9allocatorIS2_EEE20__throw_length_errorB8ne200100Ev, symObjAddr: 0x8CF0, symBinAddr: 0x79A60, symSize: 0x10 }
  - { offset: 0x41D34E, size: 0x8, addend: 0x0, symName: __ZN8GGUFMeta3GKVINS_9ArrayInfoEE6get_kvEPK12gguf_contexti, symObjAddr: 0x8D00, symBinAddr: 0x79A70, symSize: 0x130 }
  - { offset: 0x41E44A, size: 0x8, addend: 0x0, symName: __ZNSt3__112__hash_tableINS_17__hash_value_typeINS_12basic_stringIcNS_11char_traitsIcEENS_9allocatorIcEEEE23llama_model_kv_overrideEENS_22__unordered_map_hasherIS7_S9_NS_4hashIS7_EENS_8equal_toIS7_EELb1EEENS_21__unordered_map_equalIS7_S9_SE_SC_Lb1EEENS5_IS9_EEE11__do_rehashILb1EEEvm, symObjAddr: 0xB220, symBinAddr: 0x7B8E0, symSize: 0x1B0 }
  - { offset: 0x41E806, size: 0x8, addend: 0x0, symName: __ZNSt3__110unique_ptrINS_11__hash_nodeINS_17__hash_value_typeINS_12basic_stringIcNS_11char_traitsIcEENS_9allocatorIcEEEE23llama_model_kv_overrideEEPvEENS_22__hash_node_destructorINS6_ISC_EEEEED1B8ne200100Ev, symObjAddr: 0xB1D0, symBinAddr: 0x7B890, symSize: 0x50 }
  - { offset: 0x41EDA3, size: 0x8, addend: 0x0, symName: '__ZNSt3__119__async_assoc_stateINS_4pairIP11ggml_tensorbEENS_12__async_funcIZN18llama_model_loader13load_all_dataEP12ggml_contextRNS_13unordered_mapIjP19ggml_backend_bufferNS_4hashIjEENS_8equal_toIjEENS_9allocatorINS1_IKjSB_EEEEEEPNS_6vectorINS_10unique_ptrI11llama_mlockNS_14default_deleteISO_EEEENSG_ISR_EEEEPFbfPvESV_E3$_0JEEEED1Ev', symObjAddr: 0xBF10, symBinAddr: 0x7C3B0, symSize: 0x40 }
  - { offset: 0x41EE3F, size: 0x8, addend: 0x0, symName: '__ZNSt3__119__async_assoc_stateINS_4pairIP11ggml_tensorbEENS_12__async_funcIZN18llama_model_loader13load_all_dataEP12ggml_contextRNS_13unordered_mapIjP19ggml_backend_bufferNS_4hashIjEENS_8equal_toIjEENS_9allocatorINS1_IKjSB_EEEEEEPNS_6vectorINS_10unique_ptrI11llama_mlockNS_14default_deleteISO_EEEENSG_ISR_EEEEPFbfPvESV_E3$_0JEEEED0Ev', symObjAddr: 0xBF50, symBinAddr: 0x7C3F0, symSize: 0x50 }
  - { offset: 0x41EEF9, size: 0x8, addend: 0x0, symName: '__ZNSt3__119__async_assoc_stateINS_4pairIP11ggml_tensorbEENS_12__async_funcIZN18llama_model_loader13load_all_dataEP12ggml_contextRNS_13unordered_mapIjP19ggml_backend_bufferNS_4hashIjEENS_8equal_toIjEENS_9allocatorINS1_IKjSB_EEEEEEPNS_6vectorINS_10unique_ptrI11llama_mlockNS_14default_deleteISO_EEEENSG_ISR_EEEEPFbfPvESV_E3$_0JEEEE16__on_zero_sharedEv', symObjAddr: 0xBFA0, symBinAddr: 0x7C440, symSize: 0x30 }
  - { offset: 0x41F165, size: 0x8, addend: 0x0, symName: '__ZNSt3__119__async_assoc_stateINS_4pairIP11ggml_tensorbEENS_12__async_funcIZN18llama_model_loader13load_all_dataEP12ggml_contextRNS_13unordered_mapIjP19ggml_backend_bufferNS_4hashIjEENS_8equal_toIjEENS_9allocatorINS1_IKjSB_EEEEEEPNS_6vectorINS_10unique_ptrI11llama_mlockNS_14default_deleteISO_EEEENSG_ISR_EEEEPFbfPvESV_E3$_0JEEEE9__executeEv', symObjAddr: 0xBFD0, symBinAddr: 0x7C470, symSize: 0x110 }
  - { offset: 0x41F615, size: 0x8, addend: 0x0, symName: '__ZNSt3__119__async_assoc_stateINS_4pairIP11ggml_tensorbEENS_12__async_funcIZN18llama_model_loader13load_all_dataEP12ggml_contextRNS_13unordered_mapIjP19ggml_backend_bufferNS_4hashIjEENS_8equal_toIjEENS_9allocatorINS1_IKjSB_EEEEEEPNS_6vectorINS_10unique_ptrI11llama_mlockNS_14default_deleteISO_EEEENSG_ISR_EEEEPFbfPvESV_E3$_1JEEEED1Ev', symObjAddr: 0xC280, symBinAddr: 0x7C720, symSize: 0x40 }
  - { offset: 0x41F6B1, size: 0x8, addend: 0x0, symName: '__ZNSt3__119__async_assoc_stateINS_4pairIP11ggml_tensorbEENS_12__async_funcIZN18llama_model_loader13load_all_dataEP12ggml_contextRNS_13unordered_mapIjP19ggml_backend_bufferNS_4hashIjEENS_8equal_toIjEENS_9allocatorINS1_IKjSB_EEEEEEPNS_6vectorINS_10unique_ptrI11llama_mlockNS_14default_deleteISO_EEEENSG_ISR_EEEEPFbfPvESV_E3$_1JEEEED0Ev', symObjAddr: 0xC2C0, symBinAddr: 0x7C760, symSize: 0x50 }
  - { offset: 0x41F753, size: 0x8, addend: 0x0, symName: '__ZNSt3__119__async_assoc_stateINS_4pairIP11ggml_tensorbEENS_12__async_funcIZN18llama_model_loader13load_all_dataEP12ggml_contextRNS_13unordered_mapIjP19ggml_backend_bufferNS_4hashIjEENS_8equal_toIjEENS_9allocatorINS1_IKjSB_EEEEEEPNS_6vectorINS_10unique_ptrI11llama_mlockNS_14default_deleteISO_EEEENSG_ISR_EEEEPFbfPvESV_E3$_1JEEEE16__on_zero_sharedEv', symObjAddr: 0xC310, symBinAddr: 0x7C7B0, symSize: 0x30 }
  - { offset: 0x41F805, size: 0x8, addend: 0x0, symName: '__ZNSt3__119__async_assoc_stateINS_4pairIP11ggml_tensorbEENS_12__async_funcIZN18llama_model_loader13load_all_dataEP12ggml_contextRNS_13unordered_mapIjP19ggml_backend_bufferNS_4hashIjEENS_8equal_toIjEENS_9allocatorINS1_IKjSB_EEEEEEPNS_6vectorINS_10unique_ptrI11llama_mlockNS_14default_deleteISO_EEEENSG_ISR_EEEEPFbfPvESV_E3$_1JEEEE9__executeEv', symObjAddr: 0xC340, symBinAddr: 0x7C7E0, symSize: 0x110 }
  - { offset: 0x43B61D, size: 0x8, addend: 0x0, symName: __ZN17llama_model_saverC2ERK11llama_model, symObjAddr: 0x0, symBinAddr: 0x7CAB0, symSize: 0x40 }
  - { offset: 0x43B68F, size: 0x8, addend: 0x0, symName: __ZN17llama_model_saverC1ERK11llama_model, symObjAddr: 0x40, symBinAddr: 0x7CAF0, symSize: 0x40 }
  - { offset: 0x43B6FE, size: 0x8, addend: 0x0, symName: __ZN17llama_model_saverD2Ev, symObjAddr: 0x80, symBinAddr: 0x7CB30, symSize: 0x20 }
  - { offset: 0x43B757, size: 0x8, addend: 0x0, symName: __ZN17llama_model_saverD1Ev, symObjAddr: 0xB0, symBinAddr: 0x7CB50, symSize: 0x20 }
  - { offset: 0x43B8B3, size: 0x8, addend: 0x0, symName: __ZN17llama_model_saver6add_kvE6llm_kvj, symObjAddr: 0xD0, symBinAddr: 0x7CB70, symSize: 0x70 }
  - { offset: 0x43BB9F, size: 0x8, addend: 0x0, symName: __ZN17llama_model_saver6add_kvE6llm_kvi, symObjAddr: 0x140, symBinAddr: 0x7CBE0, symSize: 0x70 }
  - { offset: 0x43BE8B, size: 0x8, addend: 0x0, symName: __ZN17llama_model_saver6add_kvE6llm_kvf, symObjAddr: 0x1B0, symBinAddr: 0x7CC50, symSize: 0x70 }
  - { offset: 0x43C179, size: 0x8, addend: 0x0, symName: __ZN17llama_model_saver6add_kvE6llm_kvb, symObjAddr: 0x220, symBinAddr: 0x7CCC0, symSize: 0x70 }
  - { offset: 0x43C465, size: 0x8, addend: 0x0, symName: __ZN17llama_model_saver6add_kvE6llm_kvPKc, symObjAddr: 0x290, symBinAddr: 0x7CD30, symSize: 0x70 }
  - { offset: 0x43C764, size: 0x8, addend: 0x0, symName: __ZN17llama_model_saver6add_kvE6llm_kvc, symObjAddr: 0x300, symBinAddr: 0x7CDA0, symSize: 0x20 }
  - { offset: 0x43CA82, size: 0x8, addend: 0x0, symName: __ZN17llama_model_saver6add_kvE6llm_kvRKNSt3__16vectorINS1_12basic_stringIcNS1_11char_traitsIcEENS1_9allocatorIcEEEENS6_IS8_EEEE, symObjAddr: 0x320, symBinAddr: 0x7CDC0, symSize: 0x1C0 }
  - { offset: 0x43D126, size: 0x8, addend: 0x0, symName: __ZNSt3__16vectorIPKcNS_9allocatorIS2_EEE20__throw_length_errorB8ne200100Ev, symObjAddr: 0x29A0, symBinAddr: 0x7F3D0, symSize: 0x10 }
  - { offset: 0x43D3FB, size: 0x8, addend: 0x0, symName: __ZN17llama_model_saver10add_tensorEPK11ggml_tensor, symObjAddr: 0x4E0, symBinAddr: 0x7CF80, symSize: 0x190 }
  - { offset: 0x43D860, size: 0x8, addend: 0x0, symName: __ZN17llama_model_saver17add_kv_from_modelEv, symObjAddr: 0x670, symBinAddr: 0x7D110, symSize: 0x1CB0 }
  - { offset: 0x43E370, size: 0x8, addend: 0x0, symName: __ZN17llama_model_saver17add_kv_from_modelEv, symObjAddr: 0x670, symBinAddr: 0x7D110, symSize: 0x1CB0 }
  - { offset: 0x4476CF, size: 0x8, addend: 0x0, symName: __ZN17llama_model_saver6add_kvINSt3__112basic_stringIcNS1_11char_traitsIcEENS1_9allocatorIcEEEEEEv6llm_kvRKT_b, symObjAddr: 0x2320, symBinAddr: 0x7EDC0, symSize: 0x140 }
  - { offset: 0x447AF7, size: 0x8, addend: 0x0, symName: __ZN17llama_model_saver6add_kvINSt3__15arrayIjLm512EEEEEv6llm_kvRKT_b, symObjAddr: 0x2460, symBinAddr: 0x7EF00, symSize: 0x120 }
  - { offset: 0x448084, size: 0x8, addend: 0x0, symName: __ZN17llama_model_saver22add_tensors_from_modelEv, symObjAddr: 0x25F0, symBinAddr: 0x7F020, symSize: 0x380 }
  - { offset: 0x448C84, size: 0x8, addend: 0x0, symName: __ZN17llama_model_saver4saveERKNSt3__112basic_stringIcNS0_11char_traitsIcEENS0_9allocatorIcEEEE, symObjAddr: 0x2970, symBinAddr: 0x7F3A0, symSize: 0x30 }
  - { offset: 0x44ACE8, size: 0x8, addend: 0x0, symName: __ZL24LLAMA_ROPE_SCALING_TYPES, symObjAddr: 0x5A7A38, symBinAddr: 0x3A6090, symSize: 0x0 }
  - { offset: 0x4A8E8F, size: 0x8, addend: 0x0, symName: __ZNSt3__111make_uniqueB8ne200100I20llm_build_nemotron_hJRK11llama_modelRK16llm_graph_paramsELi0EEENS_10unique_ptrIT_NS_14default_deleteIS9_EEEEDpOT0_, symObjAddr: 0x564A0, symBinAddr: 0xD5800, symSize: 0x60 }
  - { offset: 0x4A8F35, size: 0x8, addend: 0x0, symName: __ZNSt3__111make_uniqueB8ne200100I14llm_build_phi3ILb1EEJRK11llama_modelRK16llm_graph_paramsELi0EEENS_10unique_ptrIT_NS_14default_deleteISA_EEEEDpOT0_, symObjAddr: 0x55540, symBinAddr: 0xD48A0, symSize: 0x60 }
  - { offset: 0x4A8FDB, size: 0x8, addend: 0x0, symName: __ZNSt3__111make_uniqueB8ne200100I15llm_build_mambaJRK11llama_modelRK16llm_graph_paramsELi0EEENS_10unique_ptrIT_NS_14default_deleteIS9_EEEEDpOT0_, symObjAddr: 0x55C00, symBinAddr: 0xD4F60, symSize: 0x60 }
  - { offset: 0x4A9081, size: 0x8, addend: 0x0, symName: __ZNSt3__111make_uniqueB8ne200100I14llm_build_lfm2JRK11llama_modelRK16llm_graph_paramsELi0EEENS_10unique_ptrIT_NS_14default_deleteIS9_EEEEDpOT0_, symObjAddr: 0x56E60, symBinAddr: 0xD61C0, symSize: 0x60 }
  - { offset: 0x4A9127, size: 0x8, addend: 0x0, symName: __ZNSt3__111make_uniqueB8ne200100I20llm_build_mimo2_iswaJRK11llama_modelRK16llm_graph_paramsELi0EEENS_10unique_ptrIT_NS_14default_deleteIS9_EEEEDpOT0_, symObjAddr: 0x57220, symBinAddr: 0xD6580, symSize: 0x60 }
  - { offset: 0x4A91CD, size: 0x8, addend: 0x0, symName: __ZNSt3__111make_uniqueB8ne200100I14llm_build_rnd1JRK11llama_modelRK16llm_graph_paramsELi0EEENS_10unique_ptrIT_NS_14default_deleteIS9_EEEEDpOT0_, symObjAddr: 0x55240, symBinAddr: 0xD45A0, symSize: 0x60 }
  - { offset: 0x4A9273, size: 0x8, addend: 0x0, symName: __ZNSt3__111make_uniqueB8ne200100I16llm_build_cogvlmJRK11llama_modelRK16llm_graph_paramsELi0EEENS_10unique_ptrIT_NS_14default_deleteIS9_EEEEDpOT0_, symObjAddr: 0x570A0, symBinAddr: 0xD6400, symSize: 0x60 }
  - { offset: 0x4A9319, size: 0x8, addend: 0x0, symName: __ZNSt3__111make_uniqueB8ne200100I17llm_build_smollm3JRK11llama_modelRK16llm_graph_paramsELi0EEENS_10unique_ptrIT_NS_14default_deleteIS9_EEEEDpOT0_, symObjAddr: 0x56D40, symBinAddr: 0xD60A0, symSize: 0x60 }
  - { offset: 0x4A93BF, size: 0x8, addend: 0x0, symName: __ZNSt3__111make_uniqueB8ne200100I15llm_build_afmoeJRK11llama_modelRK16llm_graph_paramsELi0EEENS_10unique_ptrIT_NS_14default_deleteIS9_EEEEDpOT0_, symObjAddr: 0x56B60, symBinAddr: 0xD5EC0, symSize: 0x60 }
  - { offset: 0x4A9465, size: 0x8, addend: 0x0, symName: __ZNSt3__111make_uniqueB8ne200100I16llm_build_bitnetJRK11llama_modelRK16llm_graph_paramsELi0EEENS_10unique_ptrIT_NS_14default_deleteIS9_EEEEDpOT0_, symObjAddr: 0x562C0, symBinAddr: 0xD5620, symSize: 0x60 }
  - { offset: 0x4A950B, size: 0x8, addend: 0x0, symName: __ZNSt3__111make_uniqueB8ne200100I20llm_build_exaone_moeJRK11llama_modelRK16llm_graph_paramsELi0EEENS_10unique_ptrIT_NS_14default_deleteIS9_EEEEDpOT0_, symObjAddr: 0x56620, symBinAddr: 0xD5980, symSize: 0x60 }
  - { offset: 0x4A95B1, size: 0x8, addend: 0x0, symName: __ZNSt3__111make_uniqueB8ne200100I24llm_build_granite_hybridJRK11llama_modelRK16llm_graph_paramsELi0EEENS_10unique_ptrIT_NS_14default_deleteIS9_EEEEDpOT0_, symObjAddr: 0x56800, symBinAddr: 0xD5B60, symSize: 0x60 }
  - { offset: 0x4A9657, size: 0x8, addend: 0x0, symName: __ZNSt3__111make_uniqueB8ne200100I18llm_build_grovemoeJRK11llama_modelRK16llm_graph_paramsELi0EEENS_10unique_ptrIT_NS_14default_deleteIS9_EEEEDpOT0_, symObjAddr: 0x56F80, symBinAddr: 0xD62E0, symSize: 0x60 }
  - { offset: 0x4A96FD, size: 0x8, addend: 0x0, symName: __ZNSt3__111make_uniqueB8ne200100I14llm_build_jaisJRK11llama_modelRK16llm_graph_paramsELi0EEENS_10unique_ptrIT_NS_14default_deleteIS9_EEEEDpOT0_, symObjAddr: 0x563E0, symBinAddr: 0xD5740, symSize: 0x60 }
  - { offset: 0x4A97A3, size: 0x8, addend: 0x0, symName: __ZNSt3__111make_uniqueB8ne200100I18llm_build_mistral3JRK11llama_modelRK16llm_graph_paramsELi0EEENS_10unique_ptrIT_NS_14default_deleteIS9_EEEEDpOT0_, symObjAddr: 0x571C0, symBinAddr: 0xD6520, symSize: 0x60 }
  - { offset: 0x4A9849, size: 0x8, addend: 0x0, symName: __ZNSt3__111make_uniqueB8ne200100I24llm_build_pangu_embeddedJRK11llama_modelRK16llm_graph_paramsELi0EEENS_10unique_ptrIT_NS_14default_deleteIS9_EEEEDpOT0_, symObjAddr: 0x57100, symBinAddr: 0xD6460, symSize: 0x60 }
  - { offset: 0x4A98EF, size: 0x8, addend: 0x0, symName: __ZNSt3__111make_uniqueB8ne200100I15llm_build_olmoeJRK11llama_modelRK16llm_graph_paramsELi0EEENS_10unique_ptrIT_NS_14default_deleteIS9_EEEEDpOT0_, symObjAddr: 0x55F60, symBinAddr: 0xD52C0, symSize: 0x60 }
  - { offset: 0x4A9995, size: 0x8, addend: 0x0, symName: __ZNSt3__111make_uniqueB8ne200100I16llm_build_arcticJRK11llama_modelRK16llm_graph_paramsELi0EEENS_10unique_ptrIT_NS_14default_deleteIS9_EEEEDpOT0_, symObjAddr: 0x56080, symBinAddr: 0xD53E0, symSize: 0x60 }
  - { offset: 0x4A9A3B, size: 0x8, addend: 0x0, symName: __ZNSt3__111make_uniqueB8ne200100I14llm_build_glm4JRK11llama_modelRK16llm_graph_paramsELi0EEENS_10unique_ptrIT_NS_14default_deleteIS9_EEEEDpOT0_, symObjAddr: 0x56200, symBinAddr: 0xD5560, symSize: 0x60 }
  - { offset: 0x4A9AE1, size: 0x8, addend: 0x0, symName: __ZNSt3__111make_uniqueB8ne200100I26llm_build_wavtokenizer_decJRK11llama_modelRK16llm_graph_paramsELi0EEENS_10unique_ptrIT_NS_14default_deleteIS9_EEEEDpOT0_, symObjAddr: 0x568C0, symBinAddr: 0xD5C20, symSize: 0x60 }
  - { offset: 0x4A9B87, size: 0x8, addend: 0x0, symName: __ZNSt3__111make_uniqueB8ne200100I17llm_build_chatglmJRK11llama_modelRK16llm_graph_paramsELi0EEENS_10unique_ptrIT_NS_14default_deleteIS9_EEEEDpOT0_, symObjAddr: 0x561A0, symBinAddr: 0xD5500, symSize: 0x60 }
  - { offset: 0x4A9C2D, size: 0x8, addend: 0x0, symName: __ZNSt3__111make_uniqueB8ne200100I22llm_build_gemma3n_iswaJRK11llama_modelRK16llm_graph_paramsELi0EEENS_10unique_ptrIT_NS_14default_deleteIS9_EEEEDpOT0_, symObjAddr: 0x55AE0, symBinAddr: 0xD4E40, symSize: 0x60 }
  - { offset: 0x4A9CD3, size: 0x8, addend: 0x0, symName: __ZNSt3__111make_uniqueB8ne200100I19llm_build_chameleonJRK11llama_modelRK16llm_graph_paramsELi0EEENS_10unique_ptrIT_NS_14default_deleteIS9_EEEEDpOT0_, symObjAddr: 0x56860, symBinAddr: 0xD5BC0, symSize: 0x60 }
  - { offset: 0x4A9D79, size: 0x8, addend: 0x0, symName: __ZNSt3__111make_uniqueB8ne200100I15llm_build_gemmaJRK11llama_modelRK16llm_graph_paramsELi0EEENS_10unique_ptrIT_NS_14default_deleteIS9_EEEEDpOT0_, symObjAddr: 0x55960, symBinAddr: 0xD4CC0, symSize: 0x60 }
  - { offset: 0x4A9E1F, size: 0x8, addend: 0x0, symName: __ZNSt3__111make_uniqueB8ne200100I18llm_build_deepseekJRK11llama_modelRK16llm_graph_paramsELi0EEENS_10unique_ptrIT_NS_14default_deleteIS9_EEEEDpOT0_, symObjAddr: 0x560E0, symBinAddr: 0xD5440, symSize: 0x60 }
  - { offset: 0x4A9EC5, size: 0x8, addend: 0x0, symName: __ZNSt3__111make_uniqueB8ne200100I18llm_build_glm4_moeJRK11llama_modelRK16llm_graph_paramsELi0EEENS_10unique_ptrIT_NS_14default_deleteIS9_EEEEDpOT0_, symObjAddr: 0x56260, symBinAddr: 0xD55C0, symSize: 0x60 }
  - { offset: 0x4A9F6B, size: 0x8, addend: 0x0, symName: __ZNSt3__111make_uniqueB8ne200100I19llm_build_deepseek2JRK11llama_modelRK16llm_graph_paramsELi0EEENS_10unique_ptrIT_NS_14default_deleteIS9_EEEEDpOT0_, symObjAddr: 0x56140, symBinAddr: 0xD54A0, symSize: 0x60 }
  - { offset: 0x4AA011, size: 0x8, addend: 0x0, symName: __ZNSt3__111make_uniqueB8ne200100I15llm_build_rwkv6JRK11llama_modelRK16llm_graph_paramsELi0EEENS_10unique_ptrIT_NS_14default_deleteIS9_EEEEDpOT0_, symObjAddr: 0x56680, symBinAddr: 0xD59E0, symSize: 0x60 }
  - { offset: 0x4AA0B7, size: 0x8, addend: 0x0, symName: __ZNSt3__111make_uniqueB8ne200100I17llm_build_qwen2vlJRK11llama_modelRK16llm_graph_paramsELi0EEENS_10unique_ptrIT_NS_14default_deleteIS9_EEEEDpOT0_, symObjAddr: 0x552A0, symBinAddr: 0xD4600, symSize: 0x60 }
  - { offset: 0x4AA15D, size: 0x8, addend: 0x0, symName: __ZNSt3__111make_uniqueB8ne200100I23llm_build_hunyuan_denseJRK11llama_modelRK16llm_graph_paramsELi0EEENS_10unique_ptrIT_NS_14default_deleteIS9_EEEEDpOT0_, symObjAddr: 0x56CE0, symBinAddr: 0xD6040, symSize: 0x60 }
  - { offset: 0x4AA203, size: 0x8, addend: 0x0, symName: __ZNSt3__111make_uniqueB8ne200100I15llm_build_olmo2ILb1EEJRK11llama_modelRK16llm_graph_paramsELi0EEENS_10unique_ptrIT_NS_14default_deleteISA_EEEEDpOT0_, symObjAddr: 0x55EA0, symBinAddr: 0xD5200, symSize: 0x60 }
  - { offset: 0x4AA2A9, size: 0x8, addend: 0x0, symName: __ZNSt3__111make_uniqueB8ne200100I22llm_build_smallthinkerILb1EEJRK11llama_modelRK16llm_graph_paramsELi0EEENS_10unique_ptrIT_NS_14default_deleteISA_EEEEDpOT0_, symObjAddr: 0x56EC0, symBinAddr: 0xD6220, symSize: 0x60 }
  - { offset: 0x4AA34F, size: 0x8, addend: 0x0, symName: __ZNSt3__111make_uniqueB8ne200100I17llm_build_openelmJRK11llama_modelRK16llm_graph_paramsELi0EEENS_10unique_ptrIT_NS_14default_deleteIS9_EEEEDpOT0_, symObjAddr: 0x55FC0, symBinAddr: 0xD5320, symSize: 0x60 }
  - { offset: 0x4AA3F5, size: 0x8, addend: 0x0, symName: __ZNSt3__111make_uniqueB8ne200100I25llm_build_openai_moe_iswaJRK11llama_modelRK16llm_graph_paramsELi0EEENS_10unique_ptrIT_NS_14default_deleteIS9_EEEEDpOT0_, symObjAddr: 0x56DA0, symBinAddr: 0xD6100, symSize: 0x60 }
  - { offset: 0x4AA49B, size: 0x8, addend: 0x0, symName: __ZNSt3__111make_uniqueB8ne200100I19llm_build_codeshellJRK11llama_modelRK16llm_graph_paramsELi0EEENS_10unique_ptrIT_NS_14default_deleteIS9_EEEEDpOT0_, symObjAddr: 0x557E0, symBinAddr: 0xD4B40, symSize: 0x60 }
  - { offset: 0x4AA541, size: 0x8, addend: 0x0, symName: __ZNSt3__111make_uniqueB8ne200100I16llm_build_plamo3ILb1EEJRK11llama_modelRK16llm_graph_paramsELi0EEENS_10unique_ptrIT_NS_14default_deleteISA_EEEEDpOT0_, symObjAddr: 0x556C0, symBinAddr: 0xD4A20, symSize: 0x60 }
  - { offset: 0x4AA5E7, size: 0x8, addend: 0x0, symName: __ZNSt3__111make_uniqueB8ne200100I15llm_build_orionJRK11llama_modelRK16llm_graph_paramsELi0EEENS_10unique_ptrIT_NS_14default_deleteIS9_EEEEDpOT0_, symObjAddr: 0x55840, symBinAddr: 0xD4BA0, symSize: 0x60 }
  - { offset: 0x4AA68D, size: 0x8, addend: 0x0, symName: __ZNSt3__111make_uniqueB8ne200100I14llm_build_qwenJRK11llama_modelRK16llm_graph_paramsELi0EEENS_10unique_ptrIT_NS_14default_deleteIS9_EEEEDpOT0_, symObjAddr: 0x55060, symBinAddr: 0xD43C0, symSize: 0x60 }
  - { offset: 0x4AA733, size: 0x8, addend: 0x0, symName: __ZNSt3__111make_uniqueB8ne200100I19llm_build_internlm2JRK11llama_modelRK16llm_graph_paramsELi0EEENS_10unique_ptrIT_NS_14default_deleteIS9_EEEEDpOT0_, symObjAddr: 0x558A0, symBinAddr: 0xD4C00, symSize: 0x60 }
  - { offset: 0x4AA7D9, size: 0x8, addend: 0x0, symName: __ZNSt3__111make_uniqueB8ne200100I22llm_build_cohere2_iswaJRK11llama_modelRK16llm_graph_paramsELi0EEENS_10unique_ptrIT_NS_14default_deleteIS9_EEEEDpOT0_, symObjAddr: 0x55D80, symBinAddr: 0xD50E0, symSize: 0x60 }
  - { offset: 0x4AA87F, size: 0x8, addend: 0x0, symName: __ZNSt3__111make_uniqueB8ne200100I21llm_build_bailingmoe2JRK11llama_modelRK16llm_graph_paramsELi0EEENS_10unique_ptrIT_NS_14default_deleteIS9_EEEEDpOT0_, symObjAddr: 0x569E0, symBinAddr: 0xD5D40, symSize: 0x60 }
  - { offset: 0x4AA925, size: 0x8, addend: 0x0, symName: __ZNSt3__111make_uniqueB8ne200100I15llm_build_dots1JRK11llama_modelRK16llm_graph_paramsELi0EEENS_10unique_ptrIT_NS_14default_deleteIS9_EEEEDpOT0_, symObjAddr: 0x56AA0, symBinAddr: 0xD5E00, symSize: 0x60 }
  - { offset: 0x4AA9CB, size: 0x8, addend: 0x0, symName: __ZNSt3__111make_uniqueB8ne200100I19llm_build_starcoderJRK11llama_modelRK16llm_graph_paramsELi0EEENS_10unique_ptrIT_NS_14default_deleteIS9_EEEEDpOT0_, symObjAddr: 0x54DC0, symBinAddr: 0xD4120, symSize: 0x60 }
  - { offset: 0x4AAA71, size: 0x8, addend: 0x0, symName: __ZNSt3__111make_uniqueB8ne200100I16llm_build_plamo2JRK11llama_modelRK16llm_graph_paramsELi0EEENS_10unique_ptrIT_NS_14default_deleteIS9_EEEEDpOT0_, symObjAddr: 0x55660, symBinAddr: 0xD49C0, symSize: 0x60 }
  - { offset: 0x4AAB17, size: 0x8, addend: 0x0, symName: __ZNSt3__111make_uniqueB8ne200100I18llm_build_stablelmJRK11llama_modelRK16llm_graph_paramsELi0EEENS_10unique_ptrIT_NS_14default_deleteIS9_EEEEDpOT0_, symObjAddr: 0x55000, symBinAddr: 0xD4360, symSize: 0x60 }
  - { offset: 0x4AABBD, size: 0x8, addend: 0x0, symName: __ZNSt3__111make_uniqueB8ne200100I16llm_build_refactJRK11llama_modelRK16llm_graph_paramsELi0EEENS_10unique_ptrIT_NS_14default_deleteIS9_EEEEDpOT0_, symObjAddr: 0x54E20, symBinAddr: 0xD4180, symSize: 0x60 }
  - { offset: 0x4AAC63, size: 0x8, addend: 0x0, symName: __ZNSt3__111make_uniqueB8ne200100I14llm_build_gpt2JRK11llama_modelRK16llm_graph_paramsELi0EEENS_10unique_ptrIT_NS_14default_deleteIS9_EEEEDpOT0_, symObjAddr: 0x55780, symBinAddr: 0xD4AE0, symSize: 0x60 }
  - { offset: 0x4AAD09, size: 0x8, addend: 0x0, symName: __ZNSt3__111make_uniqueB8ne200100I13llm_build_mptJRK11llama_modelRK16llm_graph_paramsELi0EEENS_10unique_ptrIT_NS_14default_deleteIS9_EEEEDpOT0_, symObjAddr: 0x54FA0, symBinAddr: 0xD4300, symSize: 0x60 }
  - { offset: 0x4AADAF, size: 0x8, addend: 0x0, symName: __ZNSt3__111make_uniqueB8ne200100I14llm_build_deciJRK11llama_modelRK16llm_graph_paramsELi0EEENS_10unique_ptrIT_NS_14default_deleteIS9_EEEEDpOT0_, symObjAddr: 0x54C40, symBinAddr: 0xD3FA0, symSize: 0x60 }
  - { offset: 0x4AAE55, size: 0x8, addend: 0x0, symName: __ZNSt3__111make_uniqueB8ne200100I16llm_build_falconJRK11llama_modelRK16llm_graph_paramsELi0EEENS_10unique_ptrIT_NS_14default_deleteIS9_EEEEDpOT0_, symObjAddr: 0x54D00, symBinAddr: 0xD4060, symSize: 0x60 }
  - { offset: 0x4AAEFB, size: 0x8, addend: 0x0, symName: __ZNSt3__111make_uniqueB8ne200100I14llm_build_dbrxJRK11llama_modelRK16llm_graph_paramsELi0EEENS_10unique_ptrIT_NS_14default_deleteIS9_EEEEDpOT0_, symObjAddr: 0x55DE0, symBinAddr: 0xD5140, symSize: 0x60 }
  - { offset: 0x4AAFA1, size: 0x8, addend: 0x0, symName: __ZNSt3__111make_uniqueB8ne200100I18llm_build_neo_bertJRK11llama_modelRK16llm_graph_paramsELi0EEENS_10unique_ptrIT_NS_14default_deleteIS9_EEEEDpOT0_, symObjAddr: 0x54EE0, symBinAddr: 0xD4240, symSize: 0x60 }
  - { offset: 0x4AB047, size: 0x8, addend: 0x0, symName: __ZNSt3__111make_uniqueB8ne200100I20llm_build_llama_iswaJRK11llama_modelRK16llm_graph_paramsELi0EEENS_10unique_ptrIT_NS_14default_deleteIS9_EEEEDpOT0_, symObjAddr: 0x54B20, symBinAddr: 0xD3E80, symSize: 0x60 }
  - { offset: 0x4AB0ED, size: 0x8, addend: 0x0, symName: __ZNSt3__111make_uniqueB8ne200100I15llm_build_llamaILb0EEJRK11llama_modelRK16llm_graph_paramsELi0EEENS_10unique_ptrIT_NS_14default_deleteISA_EEEEDpOT0_, symObjAddr: 0x54AC0, symBinAddr: 0xD3E20, symSize: 0x60 }
  - { offset: 0x4AB193, size: 0x8, addend: 0x0, symName: __ZNSt3__111make_uniqueB8ne200100I15llm_build_qwen2JRK11llama_modelRK16llm_graph_paramsELi0EEENS_10unique_ptrIT_NS_14default_deleteIS9_EEEEDpOT0_, symObjAddr: 0x550C0, symBinAddr: 0xD4420, symSize: 0x60 }
  - { offset: 0x4AB239, size: 0x8, addend: 0x0, symName: __ZNSt3__111make_uniqueB8ne200100I25llm_build_gemma_embeddingJRK11llama_modelRK16llm_graph_paramsELi0EEENS_10unique_ptrIT_NS_14default_deleteIS9_EEEEDpOT0_, symObjAddr: 0x55B40, symBinAddr: 0xD4EA0, symSize: 0x60 }
  - { offset: 0x4AB2DF, size: 0x8, addend: 0x0, symName: __ZNSt3__111make_uniqueB8ne200100I21llm_build_modern_bertJRK11llama_modelRK16llm_graph_paramsELi0EEENS_10unique_ptrIT_NS_14default_deleteIS9_EEEEDpOT0_, symObjAddr: 0x54E80, symBinAddr: 0xD41E0, symSize: 0x60 }
  - { offset: 0x4AB385, size: 0x8, addend: 0x0, symName: __ZNSt3__111make_uniqueB8ne200100I18llm_build_baichuanJRK11llama_modelRK16llm_graph_paramsELi0EEENS_10unique_ptrIT_NS_14default_deleteIS9_EEEEDpOT0_, symObjAddr: 0x54CA0, symBinAddr: 0xD4000, symSize: 0x60 }
  - { offset: 0x4AB42B, size: 0x8, addend: 0x0, symName: __ZNSt3__111make_uniqueB8ne200100I19llm_build_qwen3nextJRK11llama_modelRK16llm_graph_paramsELi0EEENS_10unique_ptrIT_NS_14default_deleteIS9_EEEEDpOT0_, symObjAddr: 0x57160, symBinAddr: 0xD64C0, symSize: 0x60 }
  - { offset: 0x4AB4D1, size: 0x8, addend: 0x0, symName: __ZNSt3__111make_uniqueB8ne200100I21llm_build_gemma2_iswaJRK11llama_modelRK16llm_graph_paramsELi0EEENS_10unique_ptrIT_NS_14default_deleteIS9_EEEEDpOT0_, symObjAddr: 0x559C0, symBinAddr: 0xD4D20, symSize: 0x60 }
  - { offset: 0x4AB577, size: 0x8, addend: 0x0, symName: __ZNSt3__111make_uniqueB8ne200100I17llm_build_gptneoxJRK11llama_modelRK16llm_graph_paramsELi0EEENS_10unique_ptrIT_NS_14default_deleteIS9_EEEEDpOT0_, symObjAddr: 0x56020, symBinAddr: 0xD5380, symSize: 0x60 }
  - { offset: 0x4AB61D, size: 0x8, addend: 0x0, symName: __ZNSt3__111make_uniqueB8ne200100I14llm_build_grokJRK11llama_modelRK16llm_graph_paramsELi0EEENS_10unique_ptrIT_NS_14default_deleteIS9_EEEEDpOT0_, symObjAddr: 0x54D60, symBinAddr: 0xD40C0, symSize: 0x60 }
  - { offset: 0x4AB6C3, size: 0x8, addend: 0x0, symName: __ZNSt3__111make_uniqueB8ne200100I20llm_build_qwen3vlmoeJRK11llama_modelRK16llm_graph_paramsELi0EEENS_10unique_ptrIT_NS_14default_deleteIS9_EEEEDpOT0_, symObjAddr: 0x55480, symBinAddr: 0xD47E0, symSize: 0x60 }
  - { offset: 0x4AB769, size: 0x8, addend: 0x0, symName: __ZNSt3__111make_uniqueB8ne200100I16llm_build_xverseJRK11llama_modelRK16llm_graph_paramsELi0EEENS_10unique_ptrIT_NS_14default_deleteIS9_EEEEDpOT0_, symObjAddr: 0x55CC0, symBinAddr: 0xD5020, symSize: 0x60 }
  - { offset: 0x4AB80F, size: 0x8, addend: 0x0, symName: __ZNSt3__111make_uniqueB8ne200100I14llm_build_phi2JRK11llama_modelRK16llm_graph_paramsELi0EEENS_10unique_ptrIT_NS_14default_deleteIS9_EEEEDpOT0_, symObjAddr: 0x554E0, symBinAddr: 0xD4840, symSize: 0x60 }
  - { offset: 0x4AB8B5, size: 0x8, addend: 0x0, symName: __ZNSt3__111make_uniqueB8ne200100I15llm_build_plamoJRK11llama_modelRK16llm_graph_paramsELi0EEENS_10unique_ptrIT_NS_14default_deleteIS9_EEEEDpOT0_, symObjAddr: 0x55600, symBinAddr: 0xD4960, symSize: 0x60 }
  - { offset: 0x4AB95B, size: 0x8, addend: 0x0, symName: __ZNSt3__111make_uniqueB8ne200100I19llm_build_falcon_h1JRK11llama_modelRK16llm_graph_paramsELi0EEENS_10unique_ptrIT_NS_14default_deleteIS9_EEEEDpOT0_, symObjAddr: 0x56E00, symBinAddr: 0xD6160, symSize: 0x60 }
  - { offset: 0x4ABA01, size: 0x8, addend: 0x0, symName: __ZNSt3__111make_uniqueB8ne200100I19llm_build_maincoderJRK11llama_modelRK16llm_graph_paramsELi0EEENS_10unique_ptrIT_NS_14default_deleteIS9_EEEEDpOT0_, symObjAddr: 0x54BE0, symBinAddr: 0xD3F40, symSize: 0x60 }
  - { offset: 0x4ABAA7, size: 0x8, addend: 0x0, symName: __ZNSt3__111make_uniqueB8ne200100I15llm_build_bloomJRK11llama_modelRK16llm_graph_paramsELi0EEENS_10unique_ptrIT_NS_14default_deleteIS9_EEEEDpOT0_, symObjAddr: 0x54F40, symBinAddr: 0xD42A0, symSize: 0x60 }
  - { offset: 0x4ABB4D, size: 0x8, addend: 0x0, symName: __ZNSt3__111make_uniqueB8ne200100I15llm_build_jambaJRK11llama_modelRK16llm_graph_paramsELi0EEENS_10unique_ptrIT_NS_14default_deleteIS9_EEEEDpOT0_, symObjAddr: 0x55C60, symBinAddr: 0xD4FC0, symSize: 0x60 }
  - { offset: 0x4ABBF3, size: 0x8, addend: 0x0, symName: __ZNSt3__111make_uniqueB8ne200100I16llm_build_exaoneJRK11llama_modelRK16llm_graph_paramsELi0EEENS_10unique_ptrIT_NS_14default_deleteIS9_EEEEDpOT0_, symObjAddr: 0x56500, symBinAddr: 0xD5860, symSize: 0x60 }
  - { offset: 0x4ABC99, size: 0x8, addend: 0x0, symName: __ZNSt3__111make_uniqueB8ne200100I15llm_build_qwen3JRK11llama_modelRK16llm_graph_paramsELi0EEENS_10unique_ptrIT_NS_14default_deleteIS9_EEEEDpOT0_, symObjAddr: 0x55360, symBinAddr: 0xD46C0, symSize: 0x60 }
  - { offset: 0x4ABD3F, size: 0x8, addend: 0x0, symName: __ZNSt3__111make_uniqueB8ne200100I18llm_build_qwen2moeJRK11llama_modelRK16llm_graph_paramsELi0EEENS_10unique_ptrIT_NS_14default_deleteIS9_EEEEDpOT0_, symObjAddr: 0x55300, symBinAddr: 0xD4660, symSize: 0x60 }
  - { offset: 0x4ABDE5, size: 0x8, addend: 0x0, symName: __ZNSt3__111make_uniqueB8ne200100I17llm_build_qwen3vlJRK11llama_modelRK16llm_graph_paramsELi0EEENS_10unique_ptrIT_NS_14default_deleteIS9_EEEEDpOT0_, symObjAddr: 0x55420, symBinAddr: 0xD4780, symSize: 0x60 }
  - { offset: 0x4ABE8B, size: 0x8, addend: 0x0, symName: __ZNSt3__111make_uniqueB8ne200100I17llm_build_exaone4ILb1EEJRK11llama_modelRK16llm_graph_paramsELi0EEENS_10unique_ptrIT_NS_14default_deleteISA_EEEEDpOT0_, symObjAddr: 0x56560, symBinAddr: 0xD58C0, symSize: 0x60 }
  - { offset: 0x4ABF31, size: 0x8, addend: 0x0, symName: __ZNSt3__111make_uniqueB8ne200100I18llm_build_qwen3moeJRK11llama_modelRK16llm_graph_paramsELi0EEENS_10unique_ptrIT_NS_14default_deleteIS9_EEEEDpOT0_, symObjAddr: 0x553C0, symBinAddr: 0xD4720, symSize: 0x60 }
  - { offset: 0x4ABFD7, size: 0x8, addend: 0x0, symName: __ZNSt3__111make_uniqueB8ne200100I15llm_build_rwkv7JRK11llama_modelRK16llm_graph_paramsELi0EEENS_10unique_ptrIT_NS_14default_deleteIS9_EEEEDpOT0_, symObjAddr: 0x56740, symBinAddr: 0xD5AA0, symSize: 0x60 }
  - { offset: 0x4AC07D, size: 0x8, addend: 0x0, symName: __ZNSt3__111make_uniqueB8ne200100I20llm_build_starcoder2JRK11llama_modelRK16llm_graph_paramsELi0EEENS_10unique_ptrIT_NS_14default_deleteIS9_EEEEDpOT0_, symObjAddr: 0x55BA0, symBinAddr: 0xD4F00, symSize: 0x60 }
  - { offset: 0x4AC123, size: 0x8, addend: 0x0, symName: __ZNSt3__111make_uniqueB8ne200100I15llm_build_arceeJRK11llama_modelRK16llm_graph_paramsELi0EEENS_10unique_ptrIT_NS_14default_deleteIS9_EEEEDpOT0_, symObjAddr: 0x56B00, symBinAddr: 0xD5E60, symSize: 0x60 }
  - { offset: 0x4AC1C9, size: 0x8, addend: 0x0, symName: __ZNSt3__111make_uniqueB8ne200100I16llm_build_t5_encJRK11llama_modelRK16llm_graph_paramsELi0EEENS_10unique_ptrIT_NS_14default_deleteIS9_EEEEDpOT0_, symObjAddr: 0x56320, symBinAddr: 0xD5680, symSize: 0x60 }
  - { offset: 0x4AC26F, size: 0x8, addend: 0x0, symName: __ZNSt3__111make_uniqueB8ne200100I20llm_build_minimax_m2JRK11llama_modelRK16llm_graph_paramsELi0EEENS_10unique_ptrIT_NS_14default_deleteIS9_EEEEDpOT0_, symObjAddr: 0x57040, symBinAddr: 0xD63A0, symSize: 0x60 }
  - { offset: 0x4AC315, size: 0x8, addend: 0x0, symName: __ZNSt3__111make_uniqueB8ne200100I17llm_build_apertusJRK11llama_modelRK16llm_graph_paramsELi0EEENS_10unique_ptrIT_NS_14default_deleteIS9_EEEEDpOT0_, symObjAddr: 0x56FE0, symBinAddr: 0xD6340, symSize: 0x60 }
  - { offset: 0x4AC3BB, size: 0x8, addend: 0x0, symName: __ZNSt3__111make_uniqueB8ne200100I16llm_build_gemma3ILb1EEJRK11llama_modelRK16llm_graph_paramsELi0EEENS_10unique_ptrIT_NS_14default_deleteISA_EEEEDpOT0_, symObjAddr: 0x55A20, symBinAddr: 0xD4D80, symSize: 0x60 }
  - { offset: 0x4AC461, size: 0x8, addend: 0x0, symName: __ZNSt3__111make_uniqueB8ne200100I18llm_build_seed_ossJRK11llama_modelRK16llm_graph_paramsELi0EEENS_10unique_ptrIT_NS_14default_deleteIS9_EEEEDpOT0_, symObjAddr: 0x56A40, symBinAddr: 0xD5DA0, symSize: 0x60 }
  - { offset: 0x4AC507, size: 0x8, addend: 0x0, symName: __ZNSt3__111make_uniqueB8ne200100I19llm_build_command_rJRK11llama_modelRK16llm_graph_paramsELi0EEENS_10unique_ptrIT_NS_14default_deleteIS9_EEEEDpOT0_, symObjAddr: 0x55D20, symBinAddr: 0xD5080, symSize: 0x60 }
  - { offset: 0x4AC5AD, size: 0x8, addend: 0x0, symName: __ZNSt3__111make_uniqueB8ne200100I18llm_build_minicpm3JRK11llama_modelRK16llm_graph_paramsELi0EEENS_10unique_ptrIT_NS_14default_deleteIS9_EEEEDpOT0_, symObjAddr: 0x55900, symBinAddr: 0xD4C60, symSize: 0x60 }
  - { offset: 0x4AC653, size: 0x8, addend: 0x0, symName: __ZNSt3__111make_uniqueB8ne200100I18llm_build_nemotronJRK11llama_modelRK16llm_graph_paramsELi0EEENS_10unique_ptrIT_NS_14default_deleteIS9_EEEEDpOT0_, symObjAddr: 0x56440, symBinAddr: 0xD57A0, symSize: 0x60 }
  - { offset: 0x4AC6F9, size: 0x8, addend: 0x0, symName: __ZNSt3__111make_uniqueB8ne200100I19llm_build_llada_moeJRK11llama_modelRK16llm_graph_paramsELi0EEENS_10unique_ptrIT_NS_14default_deleteIS9_EEEEDpOT0_, symObjAddr: 0x551E0, symBinAddr: 0xD4540, symSize: 0x60 }
  - { offset: 0x4AC79F, size: 0x8, addend: 0x0, symName: __ZNSt3__111make_uniqueB8ne200100I14llm_build_olmoJRK11llama_modelRK16llm_graph_paramsELi0EEENS_10unique_ptrIT_NS_14default_deleteIS9_EEEEDpOT0_, symObjAddr: 0x55E40, symBinAddr: 0xD51A0, symSize: 0x60 }
  - { offset: 0x4AC845, size: 0x8, addend: 0x0, symName: __ZNSt3__111make_uniqueB8ne200100I22llm_build_ernie4_5_moeJRK11llama_modelRK16llm_graph_paramsELi0EEENS_10unique_ptrIT_NS_14default_deleteIS9_EEEEDpOT0_, symObjAddr: 0x56C20, symBinAddr: 0xD5F80, symSize: 0x60 }
  - { offset: 0x4AC8EB, size: 0x8, addend: 0x0, symName: __ZNSt3__111make_uniqueB8ne200100I18llm_build_ernie4_5JRK11llama_modelRK16llm_graph_paramsELi0EEENS_10unique_ptrIT_NS_14default_deleteIS9_EEEEDpOT0_, symObjAddr: 0x56BC0, symBinAddr: 0xD5F20, symSize: 0x60 }
  - { offset: 0x4AC991, size: 0x8, addend: 0x0, symName: __ZNSt3__111make_uniqueB8ne200100I20llm_build_bailingmoeJRK11llama_modelRK16llm_graph_paramsELi0EEENS_10unique_ptrIT_NS_14default_deleteIS9_EEEEDpOT0_, symObjAddr: 0x56980, symBinAddr: 0xD5CE0, symSize: 0x60 }
  - { offset: 0x4ACA37, size: 0x8, addend: 0x0, symName: __ZNSt3__111make_uniqueB8ne200100I13llm_build_plmJRK11llama_modelRK16llm_graph_paramsELi0EEENS_10unique_ptrIT_NS_14default_deleteIS9_EEEEDpOT0_, symObjAddr: 0x56920, symBinAddr: 0xD5C80, symSize: 0x60 }
  - { offset: 0x4ACADD, size: 0x8, addend: 0x0, symName: __ZNSt3__111make_uniqueB8ne200100I15llm_build_dreamJRK11llama_modelRK16llm_graph_paramsELi0EEENS_10unique_ptrIT_NS_14default_deleteIS9_EEEEDpOT0_, symObjAddr: 0x55120, symBinAddr: 0xD4480, symSize: 0x60 }
  - { offset: 0x4ACB83, size: 0x8, addend: 0x0, symName: __ZNSt3__111make_uniqueB8ne200100I16llm_build_arwkv7JRK11llama_modelRK16llm_graph_paramsELi0EEENS_10unique_ptrIT_NS_14default_deleteIS9_EEEEDpOT0_, symObjAddr: 0x567A0, symBinAddr: 0xD5B00, symSize: 0x60 }
  - { offset: 0x4ACC29, size: 0x8, addend: 0x0, symName: __ZNSt3__111make_uniqueB8ne200100I20llm_build_rwkv6qwen2JRK11llama_modelRK16llm_graph_paramsELi0EEENS_10unique_ptrIT_NS_14default_deleteIS9_EEEEDpOT0_, symObjAddr: 0x566E0, symBinAddr: 0xD5A40, symSize: 0x60 }
  - { offset: 0x4ACCCF, size: 0x8, addend: 0x0, symName: __ZNSt3__111make_uniqueB8ne200100I15llm_build_lladaJRK11llama_modelRK16llm_graph_paramsELi0EEENS_10unique_ptrIT_NS_14default_deleteIS9_EEEEDpOT0_, symObjAddr: 0x55180, symBinAddr: 0xD44E0, symSize: 0x60 }
  - { offset: 0x4ACD75, size: 0x8, addend: 0x0, symName: __ZNSt3__111make_uniqueB8ne200100I21llm_build_hunyuan_moeJRK11llama_modelRK16llm_graph_paramsELi0EEENS_10unique_ptrIT_NS_14default_deleteIS9_EEEEDpOT0_, symObjAddr: 0x56C80, symBinAddr: 0xD5FE0, symSize: 0x60 }
  - { offset: 0x4ACE1B, size: 0x8, addend: 0x0, symName: __ZNSt3__111make_uniqueB8ne200100I15llm_build_llamaILb1EEJRK11llama_modelRK16llm_graph_paramsELi0EEENS_10unique_ptrIT_NS_14default_deleteISA_EEEEDpOT0_, symObjAddr: 0x54B80, symBinAddr: 0xD3EE0, symSize: 0x60 }
  - { offset: 0x4ACEC1, size: 0x8, addend: 0x0, symName: __ZNSt3__111make_uniqueB8ne200100I14llm_build_phi3ILb0EEJRK11llama_modelRK16llm_graph_paramsELi0EEENS_10unique_ptrIT_NS_14default_deleteISA_EEEEDpOT0_, symObjAddr: 0x555A0, symBinAddr: 0xD4900, symSize: 0x60 }
  - { offset: 0x4ACF67, size: 0x8, addend: 0x0, symName: __ZNSt3__111make_uniqueB8ne200100I16llm_build_t5_decJRK11llama_modelRK16llm_graph_paramsELi0EEENS_10unique_ptrIT_NS_14default_deleteIS9_EEEEDpOT0_, symObjAddr: 0x56380, symBinAddr: 0xD56E0, symSize: 0x60 }
  - { offset: 0x4AD00D, size: 0x8, addend: 0x0, symName: __ZNSt3__111make_uniqueB8ne200100I15llm_build_olmo2ILb0EEJRK11llama_modelRK16llm_graph_paramsELi0EEENS_10unique_ptrIT_NS_14default_deleteISA_EEEEDpOT0_, symObjAddr: 0x55F00, symBinAddr: 0xD5260, symSize: 0x60 }
  - { offset: 0x4AD0B3, size: 0x8, addend: 0x0, symName: __ZNSt3__111make_uniqueB8ne200100I22llm_build_smallthinkerILb0EEJRK11llama_modelRK16llm_graph_paramsELi0EEENS_10unique_ptrIT_NS_14default_deleteISA_EEEEDpOT0_, symObjAddr: 0x56F20, symBinAddr: 0xD6280, symSize: 0x60 }
  - { offset: 0x4AD159, size: 0x8, addend: 0x0, symName: __ZNSt3__111make_uniqueB8ne200100I17llm_build_exaone4ILb0EEJRK11llama_modelRK16llm_graph_paramsELi0EEENS_10unique_ptrIT_NS_14default_deleteISA_EEEEDpOT0_, symObjAddr: 0x565C0, symBinAddr: 0xD5920, symSize: 0x60 }
  - { offset: 0x4AD1FF, size: 0x8, addend: 0x0, symName: __ZNSt3__111make_uniqueB8ne200100I16llm_build_gemma3ILb0EEJRK11llama_modelRK16llm_graph_paramsELi0EEENS_10unique_ptrIT_NS_14default_deleteISA_EEEEDpOT0_, symObjAddr: 0x55A80, symBinAddr: 0xD4DE0, symSize: 0x60 }
  - { offset: 0x4AD2A5, size: 0x8, addend: 0x0, symName: __ZNSt3__111make_uniqueB8ne200100I16llm_build_plamo3ILb0EEJRK11llama_modelRK16llm_graph_paramsELi0EEENS_10unique_ptrIT_NS_14default_deleteISA_EEEEDpOT0_, symObjAddr: 0x55720, symBinAddr: 0xD4A80, symSize: 0x60 }
  - { offset: 0x4BD51A, size: 0x8, addend: 0x0, symName: __ZN11llama_model12load_tensorsER18llama_model_loader, symObjAddr: 0x6BA0, symBinAddr: 0x85F00, symSize: 0x49870 }
  - { offset: 0x566E5E, size: 0x8, addend: 0x0, symName: __ZNK11llama_model10print_infoEv, symObjAddr: 0x51A20, symBinAddr: 0xD0D80, symSize: 0x1400 }
  - { offset: 0x56A344, size: 0x8, addend: 0x0, symName: __ZNK11llama_model13create_memoryERK19llama_memory_paramsRK13llama_cparams, symObjAddr: 0x53650, symBinAddr: 0xD29B0, symSize: 0x770 }
  - { offset: 0x572B8C, size: 0x8, addend: 0x0, symName: __Z13llm_type_name8llm_type, symObjAddr: 0x0, symBinAddr: 0x7F3E0, symSize: 0x30 }
  - { offset: 0x572C2E, size: 0x8, addend: 0x0, symName: __ZNSt3__13mapI23llama_rope_scaling_typePKcNS_4lessIS1_EENS_9allocatorINS_4pairIKS1_S3_EEEEED1B8ne200100Ev, symObjAddr: 0x30, symBinAddr: 0x7F410, symSize: 0x10 }
  - { offset: 0x572CE1, size: 0x8, addend: 0x0, symName: __ZNSt3__16__treeINS_12__value_typeI23llama_rope_scaling_typePKcEENS_19__map_value_compareIS2_S5_NS_4lessIS2_EELb1EEENS_9allocatorIS5_EEE7destroyEPNS_11__tree_nodeIS5_PvEE, symObjAddr: 0x646C0, symBinAddr: 0xDB360, symSize: 0x40 }
  - { offset: 0x573134, size: 0x8, addend: 0x0, symName: __Z28llama_rope_scaling_type_name23llama_rope_scaling_type, symObjAddr: 0x40, symBinAddr: 0x7F420, symSize: 0xD0 }
  - { offset: 0x573A18, size: 0x8, addend: 0x0, symName: __ZN11llama_modelC2ERK18llama_model_params, symObjAddr: 0x110, symBinAddr: 0x7F4F0, symSize: 0x360 }
  - { offset: 0x57411A, size: 0x8, addend: 0x0, symName: __ZNSt3__113unordered_setIP18llama_adapter_loraNS_4hashIS2_EENS_8equal_toIS2_EENS_9allocatorIS2_EEED1B8ne200100Ev, symObjAddr: 0x470, symBinAddr: 0x7F850, symSize: 0x50 }
  - { offset: 0x57439E, size: 0x8, addend: 0x0, symName: __ZNSt3__16vectorINS_4pairINS_12basic_stringIcNS_11char_traitsIcEENS_9allocatorIcEEEEP11ggml_tensorEENS5_ISA_EEED1B8ne200100Ev, symObjAddr: 0x4C0, symBinAddr: 0x7F8A0, symSize: 0x70 }
  - { offset: 0x574626, size: 0x8, addend: 0x0, symName: __ZNSt3__113unordered_mapINS_12basic_stringIcNS_11char_traitsIcEENS_9allocatorIcEEEES6_NS_4hashIS6_EENS_8equal_toIS6_EENS4_INS_4pairIKS6_S6_EEEEED1B8ne200100Ev, symObjAddr: 0x530, symBinAddr: 0x7F910, symSize: 0x80 }
  - { offset: 0x57539A, size: 0x8, addend: 0x0, symName: __ZN11llama_modelC1ERK18llama_model_params, symObjAddr: 0x620, symBinAddr: 0x7F990, symSize: 0x10 }
  - { offset: 0x57551D, size: 0x8, addend: 0x0, symName: __ZN11llama_modelD2Ev, symObjAddr: 0x630, symBinAddr: 0x7F9A0, symSize: 0x220 }
  - { offset: 0x576F2B, size: 0x8, addend: 0x0, symName: __ZN11llama_model4implD2Ev, symObjAddr: 0x64700, symBinAddr: 0xDB3A0, symSize: 0x1B0 }
  - { offset: 0x5779E5, size: 0x8, addend: 0x0, symName: __ZN11llama_modelD1Ev, symObjAddr: 0x860, symBinAddr: 0x7FBC0, symSize: 0x10 }
  - { offset: 0x577A37, size: 0x8, addend: 0x0, symName: __ZN11llama_model10load_statsER18llama_model_loader, symObjAddr: 0x870, symBinAddr: 0x7FBD0, symSize: 0x20 }
  - { offset: 0x577AE1, size: 0x8, addend: 0x0, symName: __ZN11llama_model9load_archER18llama_model_loader, symObjAddr: 0x890, symBinAddr: 0x7FBF0, symSize: 0x160 }
  - { offset: 0x5781C6, size: 0x8, addend: 0x0, symName: __ZN11llama_model12load_hparamsER18llama_model_loader, symObjAddr: 0x9F0, symBinAddr: 0x7FD50, symSize: 0x5DB0 }
  - { offset: 0x57ACE8, size: 0x8, addend: 0x0, symName: _llama_model_rope_type, symObjAddr: 0x6900, symBinAddr: 0x85C60, symSize: 0x250 }
  - { offset: 0x57AD3E, size: 0x8, addend: 0x0, symName: __ZNK11llama_model9arch_nameEv, symObjAddr: 0x67A0, symBinAddr: 0x85B00, symSize: 0xB0 }
  - { offset: 0x57B037, size: 0x8, addend: 0x0, symName: __ZNK11llama_model9type_nameEv, symObjAddr: 0x6850, symBinAddr: 0x85BB0, symSize: 0xB0 }
  - { offset: 0x57B330, size: 0x8, addend: 0x0, symName: __ZN11llama_model10load_vocabER18llama_model_loader, symObjAddr: 0x6B50, symBinAddr: 0x85EB0, symSize: 0x50 }
  - { offset: 0x57E967, size: 0x8, addend: 0x0, symName: __ZNSt3__16vectorINS_4pairIP19ggml_backend_deviceP24ggml_backend_buffer_typeEENS_9allocatorIS6_EEE18__insert_with_sizeB8ne200100INS_11__wrap_iterIPS6_EESD_EESD_NSB_IPKS6_EET_T0_l, symObjAddr: 0x65940, symBinAddr: 0xDB660, symSize: 0x300 }
  - { offset: 0x57F5C6, size: 0x8, addend: 0x0, symName: __ZNSt3__16vectorIN11llama_model4impl9layer_devENS_9allocatorIS3_EEE8__appendEm, symObjAddr: 0x65C50, symBinAddr: 0xDB960, symSize: 0x140 }
  - { offset: 0x57F9FB, size: 0x8, addend: 0x0, symName: '__ZZN11llama_model12load_tensorsER18llama_model_loaderENK3$_1clEi', symObjAddr: 0x50450, symBinAddr: 0xCF7B0, symSize: 0x190 }
  - { offset: 0x57FCD0, size: 0x8, addend: 0x0, symName: __ZNSt3__16vectorI11llama_layerNS_9allocatorIS1_EEE8__appendEm, symObjAddr: 0x65E10, symBinAddr: 0xDBB20, symSize: 0x1C0 }
  - { offset: 0x580142, size: 0x8, addend: 0x0, symName: '__ZZN11llama_model12load_tensorsER18llama_model_loaderENK3$_3clERK11LLM_TN_IMPLRKSt16initializer_listIxEi', symObjAddr: 0x50630, symBinAddr: 0xCF990, symSize: 0xC80 }
  - { offset: 0x581F87, size: 0x8, addend: 0x0, symName: __ZNSt3__16vectorI11llama_layerNS_9allocatorIS1_EEE6resizeEm, symObjAddr: 0x505E0, symBinAddr: 0xCF940, symSize: 0x50 }
  - { offset: 0x582051, size: 0x8, addend: 0x0, symName: __ZNSt3__16vectorINS_4pairIP12ggml_contextNS_13unordered_mapIjP19ggml_backend_bufferNS_4hashIjEENS_8equal_toIjEENS_9allocatorINS1_IKjS6_EEEEEEEENSB_ISG_EEE7reserveEm, symObjAddr: 0x512B0, symBinAddr: 0xD0610, symSize: 0x110 }
  - { offset: 0x58261A, size: 0x8, addend: 0x0, symName: __ZNSt3__114__split_bufferINS_4pairINS_10unique_ptrI12ggml_context20ggml_context_deleterEENS_6vectorINS2_I19ggml_backend_buffer27ggml_backend_buffer_deleterEENS_9allocatorIS9_EEEEEERNSA_ISD_EEE17__destruct_at_endB8ne200100EPSD_, symObjAddr: 0x66260, symBinAddr: 0xDBF60, symSize: 0xE0 }
  - { offset: 0x582921, size: 0x8, addend: 0x0, symName: __ZNSt3__112__hash_tableINS_17__hash_value_typeIjP19ggml_backend_bufferEENS_22__unordered_map_hasherIjS4_NS_4hashIjEENS_8equal_toIjEELb1EEENS_21__unordered_map_equalIjS4_S9_S7_Lb1EEENS_9allocatorIS4_EEE11__do_rehashILb1EEEvm, symObjAddr: 0x66390, symBinAddr: 0xDC090, symSize: 0x1B0 }
  - { offset: 0x582D07, size: 0x8, addend: 0x0, symName: __ZNSt3__112__hash_tableINS_17__hash_value_typeIjP19ggml_backend_bufferEENS_22__unordered_map_hasherIjS4_NS_4hashIjEENS_8equal_toIjEELb1EEENS_21__unordered_map_equalIjS4_S9_S7_Lb1EEENS_9allocatorIS4_EEE25__emplace_unique_key_argsIjJRjRS3_EEENS_4pairINS_15__hash_iteratorIPNS_11__hash_nodeIS4_PvEEEEbEERKT_DpOT0_, symObjAddr: 0x66550, symBinAddr: 0xDC240, symSize: 0x450 }
  - { offset: 0x58352D, size: 0x8, addend: 0x0, symName: __ZNSt3__16vectorINS_4pairINS_10unique_ptrI12ggml_context20ggml_context_deleterEENS0_INS2_I19ggml_backend_buffer27ggml_backend_buffer_deleterEENS_9allocatorIS8_EEEEEENS9_ISC_EEE24__emplace_back_slow_pathIJS5_SB_EEEPSC_DpOT_, symObjAddr: 0x669B0, symBinAddr: 0xDC690, symSize: 0x150 }
  - { offset: 0x583A69, size: 0x8, addend: 0x0, symName: __ZNSt3__113unordered_mapIjP19ggml_backend_bufferNS_4hashIjEENS_8equal_toIjEENS_9allocatorINS_4pairIKjS2_EEEEEC2ERKSC_, symObjAddr: 0x66CA0, symBinAddr: 0xDC980, symSize: 0x1C0 }
  - { offset: 0x583E20, size: 0x8, addend: 0x0, symName: __ZNSt3__16vectorINS_4pairIP12ggml_contextNS_13unordered_mapIjP19ggml_backend_bufferNS_4hashIjEENS_8equal_toIjEENS_9allocatorINS1_IKjS6_EEEEEEEENSB_ISG_EEE24__emplace_back_slow_pathIJRS3_RSF_EEEPSG_DpOT_, symObjAddr: 0x66B00, symBinAddr: 0xDC7E0, symSize: 0x1A0 }
  - { offset: 0x58455A, size: 0x8, addend: 0x0, symName: __ZNSt3__16vectorINS_4pairINS_12basic_stringIcNS_11char_traitsIcEENS_9allocatorIcEEEEP11ggml_tensorEENS5_ISA_EEE24__emplace_back_slow_pathIJPKcRS9_EEEPSA_DpOT_, symObjAddr: 0x67290, symBinAddr: 0xDCF70, symSize: 0x1C0 }
  - { offset: 0x584C5C, size: 0x8, addend: 0x0, symName: __ZNSt3__16__treeINS_12__value_typeIP24ggml_backend_buffer_typeNS_10unique_ptrI12ggml_context20ggml_context_deleterEEEENS_19__map_value_compareIS3_S8_ZN11llama_model12load_tensorsER18llama_model_loaderE28ggml_backend_buft_comparatorLb1EEENS_9allocatorIS8_EEE7destroyEPNS_11__tree_nodeIS8_PvEE, symObjAddr: 0x65DA0, symBinAddr: 0xDBAB0, symSize: 0x60 }
  - { offset: 0x584E56, size: 0x8, addend: 0x0, symName: __ZNSt3__16vectorINS_4pairIP19ggml_backend_deviceP24ggml_backend_buffer_typeEENS_9allocatorIS6_EEE20__throw_length_errorB8ne200100Ev, symObjAddr: 0x57BB0, symBinAddr: 0xD6CC0, symSize: 0x10 }
  - { offset: 0x584E83, size: 0x8, addend: 0x0, symName: __ZNSt3__112__hash_tableINS_17__hash_value_typeIjP19ggml_backend_bufferEENS_22__unordered_map_hasherIjS4_NS_4hashIjEENS_8equal_toIjEELb1EEENS_21__unordered_map_equalIjS4_S9_S7_Lb1EEENS_9allocatorIS4_EEE25__emplace_unique_key_argsIjJRjRS3_EEENS_4pairINS_15__hash_iteratorIPNS_11__hash_nodeIS4_PvEEEEbEERKT_DpOT0_, symObjAddr: 0x66550, symBinAddr: 0xDC240, symSize: 0x450 }
  - { offset: 0x584E98, size: 0x8, addend: 0x0, symName: __ZNSt3__16vectorINS_4pairIP12ggml_contextNS_13unordered_mapIjP19ggml_backend_bufferNS_4hashIjEENS_8equal_toIjEENS_9allocatorINS1_IKjS6_EEEEEEEENSB_ISG_EEE20__throw_length_errorB8ne200100Ev, symObjAddr: 0x65FF0, symBinAddr: 0xDBCF0, symSize: 0x10 }
  - { offset: 0x584EAD, size: 0x8, addend: 0x0, symName: __ZNSt3__16vectorINS_4pairINS_10unique_ptrI12ggml_context20ggml_context_deleterEENS0_INS2_I19ggml_backend_buffer27ggml_backend_buffer_deleterEENS_9allocatorIS8_EEEEEENS9_ISC_EEE24__emplace_back_slow_pathIJS5_SB_EEEPSC_DpOT_, symObjAddr: 0x669B0, symBinAddr: 0xDC690, symSize: 0x150 }
  - { offset: 0x584EB8, size: 0x8, addend: 0x0, symName: __ZNSt3__16vectorINS_4pairINS_10unique_ptrI12ggml_context20ggml_context_deleterEENS0_INS2_I19ggml_backend_buffer27ggml_backend_buffer_deleterEENS_9allocatorIS8_EEEEEENS9_ISC_EEE20__throw_length_errorB8ne200100Ev, symObjAddr: 0x66250, symBinAddr: 0xDBF50, symSize: 0x10 }
  - { offset: 0x584ED0, size: 0x8, addend: 0x0, symName: __ZNSt3__114__split_bufferINS_4pairINS_10unique_ptrI12ggml_context20ggml_context_deleterEENS_6vectorINS2_I19ggml_backend_buffer27ggml_backend_buffer_deleterEENS_9allocatorIS9_EEEEEERNSA_ISD_EEE17__destruct_at_endB8ne200100EPSD_, symObjAddr: 0x66260, symBinAddr: 0xDBF60, symSize: 0xE0 }
  - { offset: 0x584EE5, size: 0x8, addend: 0x0, symName: __ZNSt3__16vectorIN11llama_model4impl9layer_devENS_9allocatorIS3_EEE8__appendEm, symObjAddr: 0x65C50, symBinAddr: 0xDB960, symSize: 0x140 }
  - { offset: 0x584EF0, size: 0x8, addend: 0x0, symName: __ZNSt3__16vectorINS_10unique_ptrI19ggml_backend_buffer27ggml_backend_buffer_deleterEENS_9allocatorIS4_EEED1B8ne200100Ev, symObjAddr: 0x513C0, symBinAddr: 0xD0720, symSize: 0x80 }
  - { offset: 0x5850B1, size: 0x8, addend: 0x0, symName: __ZNSt3__113unordered_mapIjP19ggml_backend_bufferNS_4hashIjEENS_8equal_toIjEENS_9allocatorINS_4pairIKjS2_EEEEED1B8ne200100Ev, symObjAddr: 0x51440, symBinAddr: 0xD07A0, symSize: 0x50 }
  - { offset: 0x585336, size: 0x8, addend: 0x0, symName: __ZNSt3__16vectorINS_4pairIP12ggml_contextNS_13unordered_mapIjP19ggml_backend_bufferNS_4hashIjEENS_8equal_toIjEENS_9allocatorINS1_IKjS6_EEEEEEEENSB_ISG_EEED1B8ne200100Ev, symObjAddr: 0x51490, symBinAddr: 0xD07F0, symSize: 0xA0 }
  - { offset: 0x585786, size: 0x8, addend: 0x0, symName: __ZNK11llama_model12n_gpu_layersEv, symObjAddr: 0x50410, symBinAddr: 0xCF770, symSize: 0x20 }
  - { offset: 0x5857A6, size: 0x8, addend: 0x0, symName: __ZNK11llama_model9n_devicesEv, symObjAddr: 0x50430, symBinAddr: 0xCF790, symSize: 0x20 }
  - { offset: 0x5858C8, size: 0x8, addend: 0x0, symName: __ZNSt3__16vectorIP19ggml_backend_deviceNS_9allocatorIS2_EEE20__throw_out_of_rangeB8ne200100Ev, symObjAddr: 0x57C80, symBinAddr: 0xD6CD0, symSize: 0x10 }
  - { offset: 0x5858E0, size: 0x8, addend: 0x0, symName: __ZL18select_weight_buftRK13llama_hparamsP11ggml_tensor7ggml_opRKNSt3__16vectorINS5_4pairIP19ggml_backend_deviceP24ggml_backend_buffer_typeEENS5_9allocatorISC_EEEE, symObjAddr: 0x57C90, symBinAddr: 0xD6CE0, symSize: 0x880 }
  - { offset: 0x58626E, size: 0x8, addend: 0x0, symName: __ZNSt3__111basic_regexIcNS_12regex_traitsIcEEEC2B8ne200100EPKcNS_15regex_constants18syntax_option_typeE, symObjAddr: 0x58560, symBinAddr: 0xD7560, symSize: 0xC0 }
  - { offset: 0x586831, size: 0x8, addend: 0x0, symName: __ZL18select_weight_buftRK13llama_hparamsP11ggml_tensor7ggml_opRKNSt3__16vectorINS5_4pairIP19ggml_backend_deviceP24ggml_backend_buffer_typeEENS5_9allocatorISC_EEEE, symObjAddr: 0x57C90, symBinAddr: 0xD6CE0, symSize: 0x880 }
  - { offset: 0x587429, size: 0x8, addend: 0x0, symName: __ZNSt3__16vectorIN11llama_model4impl9layer_devENS_9allocatorIS3_EEE20__throw_out_of_rangeB8ne200100Ev, symObjAddr: 0x65E00, symBinAddr: 0xDBB10, symSize: 0x10 }
  - { offset: 0x587441, size: 0x8, addend: 0x0, symName: __ZNSt3__16vectorI11llama_layerNS_9allocatorIS1_EEE8__appendEm, symObjAddr: 0x65E10, symBinAddr: 0xDBB20, symSize: 0x1C0 }
  - { offset: 0x587653, size: 0x8, addend: 0x0, symName: __ZNSt3__16vectorINS_4pairIP12ggml_contextNS_13unordered_mapIjP19ggml_backend_bufferNS_4hashIjEENS_8equal_toIjEENS_9allocatorINS1_IKjS6_EEEEEEEENSB_ISG_EEE26__swap_out_circular_bufferERNS_14__split_bufferISG_RSH_EE, symObjAddr: 0x66000, symBinAddr: 0xDBD00, symSize: 0x1C0 }
  - { offset: 0x587CE4, size: 0x8, addend: 0x0, symName: __ZNSt3__16vectorINS_4pairIP12ggml_contextNS_13unordered_mapIjP19ggml_backend_bufferNS_4hashIjEENS_8equal_toIjEENS_9allocatorINS1_IKjS6_EEEEEEEENSB_ISG_EEE20__throw_length_errorB8ne200100Ev, symObjAddr: 0x65FF0, symBinAddr: 0xDBCF0, symSize: 0x10 }
  - { offset: 0x587CFC, size: 0x8, addend: 0x0, symName: __ZNSt3__16vectorINS_4pairIP12ggml_contextNS_13unordered_mapIjP19ggml_backend_bufferNS_4hashIjEENS_8equal_toIjEENS_9allocatorINS1_IKjS6_EEEEEEEENSB_ISG_EEE26__swap_out_circular_bufferERNS_14__split_bufferISG_RSH_EE, symObjAddr: 0x66000, symBinAddr: 0xDBD00, symSize: 0x1C0 }
  - { offset: 0x587D07, size: 0x8, addend: 0x0, symName: __ZNSt3__114__split_bufferINS_4pairIP12ggml_contextNS_13unordered_mapIjP19ggml_backend_bufferNS_4hashIjEENS_8equal_toIjEENS_9allocatorINS1_IKjS6_EEEEEEEERNSB_ISG_EEED1Ev, symObjAddr: 0x661C0, symBinAddr: 0xDBEC0, symSize: 0x90 }
  - { offset: 0x588185, size: 0x8, addend: 0x0, symName: __ZNK11llama_model4descEv, symObjAddr: 0x51530, symBinAddr: 0xD0890, symSize: 0x50 }
  - { offset: 0x5881A9, size: 0x8, addend: 0x0, symName: __ZNK11llama_model4descEv, symObjAddr: 0x51530, symBinAddr: 0xD0890, symSize: 0x50 }
  - { offset: 0x5883AE, size: 0x8, addend: 0x0, symName: __ZNK11llama_model4sizeEv, symObjAddr: 0x51580, symBinAddr: 0xD08E0, symSize: 0x20 }
  - { offset: 0x5883EF, size: 0x8, addend: 0x0, symName: __ZNK11llama_model9n_tensorsEv, symObjAddr: 0x515A0, symBinAddr: 0xD0900, symSize: 0x20 }
  - { offset: 0x588438, size: 0x8, addend: 0x0, symName: __ZNK11llama_model10split_modeEv, symObjAddr: 0x515C0, symBinAddr: 0xD0920, symSize: 0x10 }
  - { offset: 0x588D88, size: 0x8, addend: 0x0, symName: __ZNK11llama_model16memory_breakdownEv, symObjAddr: 0x515D0, symBinAddr: 0xD0930, symSize: 0x440 }
  - { offset: 0x589ABF, size: 0x8, addend: 0x0, symName: __ZNK11llama_model10n_elementsEv, symObjAddr: 0x51A10, symBinAddr: 0xD0D70, symSize: 0x10 }
  - { offset: 0x58AA1B, size: 0x8, addend: 0x0, symName: '__ZZNK11llama_model10print_infoEvENK3$_6clERKNSt3__18functionIFjjEEEj', symObjAddr: 0x52E20, symBinAddr: 0xD2180, symSize: 0x330 }
  - { offset: 0x58B964, size: 0x8, addend: 0x0, symName: __ZNK11llama_model9dev_layerEi, symObjAddr: 0x53150, symBinAddr: 0xD24B0, symSize: 0x40 }
  - { offset: 0x58B9A0, size: 0x8, addend: 0x0, symName: __ZNK11llama_model9dev_layerEi, symObjAddr: 0x53150, symBinAddr: 0xD24B0, symSize: 0x40 }
  - { offset: 0x58BA0C, size: 0x8, addend: 0x0, symName: __ZNK11llama_model10dev_outputEv, symObjAddr: 0x53190, symBinAddr: 0xD24F0, symSize: 0x20 }
  - { offset: 0x58BAD7, size: 0x8, addend: 0x0, symName: __ZNK11llama_model11select_buftEi, symObjAddr: 0x531B0, symBinAddr: 0xD2510, symSize: 0x300 }
  - { offset: 0x58C456, size: 0x8, addend: 0x0, symName: __ZNK11llama_model20has_tensor_overridesEv, symObjAddr: 0x534B0, symBinAddr: 0xD2810, symSize: 0x20 }
  - { offset: 0x58C4D1, size: 0x8, addend: 0x0, symName: __ZNK11llama_model10get_tensorEPKc, symObjAddr: 0x534D0, symBinAddr: 0xD2830, symSize: 0xA0 }
  - { offset: 0x58C7F5, size: 0x8, addend: 0x0, symName: __ZNK11llama_model18get_rope_freq_baseERK13llama_cparamsi, symObjAddr: 0x53570, symBinAddr: 0xD28D0, symSize: 0x40 }
  - { offset: 0x58C83F, size: 0x8, addend: 0x0, symName: __ZNK11llama_model19get_rope_freq_scaleERK13llama_cparamsi, symObjAddr: 0x535B0, symBinAddr: 0xD2910, symSize: 0x40 }
  - { offset: 0x58C8AB, size: 0x8, addend: 0x0, symName: __ZNK11llama_model16get_rope_factorsERK13llama_cparamsi, symObjAddr: 0x535F0, symBinAddr: 0xD2950, symSize: 0x60 }
  - { offset: 0x58CB61, size: 0x8, addend: 0x0, symName: '__ZNSt3__18functionIFbiEEaSIZNK11llama_model13create_memoryERK19llama_memory_paramsRK13llama_cparamsE3$_2vEERS2_OT_', symObjAddr: 0x53EC0, symBinAddr: 0xD3220, symSize: 0x80 }
  - { offset: 0x58CD84, size: 0x8, addend: 0x0, symName: '__ZNSt3__18functionIFbiEEaSIZNK11llama_model13create_memoryERK19llama_memory_paramsRK13llama_cparamsE3$_3vEERS2_OT_', symObjAddr: 0x53F40, symBinAddr: 0xD32A0, symSize: 0x80 }
  - { offset: 0x58CFA7, size: 0x8, addend: 0x0, symName: '__ZNSt3__18functionIFiiEEaSIZNK11llama_model13create_memoryERK19llama_memory_paramsRK13llama_cparamsE3$_4vEERS2_OT_', symObjAddr: 0x53FC0, symBinAddr: 0xD3320, symSize: 0x80 }
  - { offset: 0x58D1CA, size: 0x8, addend: 0x0, symName: '__ZNSt3__18functionIFbiEEaSIZNK11llama_model13create_memoryERK19llama_memory_paramsRK13llama_cparamsE3$_0vEERS2_OT_', symObjAddr: 0x53DC0, symBinAddr: 0xD3120, symSize: 0x80 }
  - { offset: 0x58D3B4, size: 0x8, addend: 0x0, symName: '__ZNSt3__18functionIFbiEEaSIZNK11llama_model13create_memoryERK19llama_memory_paramsRK13llama_cparamsE3$_1vEERS2_OT_', symObjAddr: 0x53E40, symBinAddr: 0xD31A0, symSize: 0x80 }
  - { offset: 0x58D78C, size: 0x8, addend: 0x0, symName: __ZNSt3__110__function12__value_funcIFbiEE4swapB8ne200100ERS3_, symObjAddr: 0x67AF0, symBinAddr: 0xDD790, symSize: 0x140 }
  - { offset: 0x58E12C, size: 0x8, addend: 0x0, symName: __ZNSt3__110__function12__value_funcIFiiEE4swapB8ne200100ERS3_, symObjAddr: 0x67FD0, symBinAddr: 0xDDC70, symSize: 0x140 }
  - { offset: 0x58E356, size: 0x8, addend: 0x0, symName: __ZNK11llama_model11build_graphERK16llm_graph_params, symObjAddr: 0x54040, symBinAddr: 0xD33A0, symSize: 0xA80 }
  - { offset: 0x591A17, size: 0x8, addend: 0x0, symName: _llama_model_default_params, symObjAddr: 0x57280, symBinAddr: 0xD65E0, symSize: 0x40 }
  - { offset: 0x591A43, size: 0x8, addend: 0x0, symName: _llama_model_get_vocab, symObjAddr: 0x572C0, symBinAddr: 0xD6620, symSize: 0x10 }
  - { offset: 0x591AA2, size: 0x8, addend: 0x0, symName: _llama_free_model, symObjAddr: 0x572D0, symBinAddr: 0xD6630, symSize: 0x30 }
  - { offset: 0x591ACC, size: 0x8, addend: 0x0, symName: _llama_free_model, symObjAddr: 0x572D0, symBinAddr: 0xD6630, symSize: 0x30 }
  - { offset: 0x591B14, size: 0x8, addend: 0x0, symName: _llama_model_free, symObjAddr: 0x57300, symBinAddr: 0xD6660, symSize: 0x30 }
  - { offset: 0x591B5D, size: 0x8, addend: 0x0, symName: _llama_model_n_ctx_train, symObjAddr: 0x57330, symBinAddr: 0xD6690, symSize: 0x10 }
  - { offset: 0x591B79, size: 0x8, addend: 0x0, symName: _llama_model_n_embd, symObjAddr: 0x57340, symBinAddr: 0xD66A0, symSize: 0x10 }
  - { offset: 0x591B95, size: 0x8, addend: 0x0, symName: _llama_model_n_embd_inp, symObjAddr: 0x57350, symBinAddr: 0xD66B0, symSize: 0x10 }
  - { offset: 0x591BC1, size: 0x8, addend: 0x0, symName: _llama_model_n_embd_out, symObjAddr: 0x57360, symBinAddr: 0xD66C0, symSize: 0x10 }
  - { offset: 0x591BED, size: 0x8, addend: 0x0, symName: _llama_model_n_layer, symObjAddr: 0x57370, symBinAddr: 0xD66D0, symSize: 0x10 }
  - { offset: 0x591C09, size: 0x8, addend: 0x0, symName: _llama_model_n_head, symObjAddr: 0x57380, symBinAddr: 0xD66E0, symSize: 0x10 }
  - { offset: 0x591C27, size: 0x8, addend: 0x0, symName: _llama_model_n_head_kv, symObjAddr: 0x57390, symBinAddr: 0xD66F0, symSize: 0x10 }
  - { offset: 0x591C53, size: 0x8, addend: 0x0, symName: _llama_model_n_swa, symObjAddr: 0x573A0, symBinAddr: 0xD6700, symSize: 0x10 }
  - { offset: 0x591C7E, size: 0x8, addend: 0x0, symName: _llama_model_n_cls_out, symObjAddr: 0x573B0, symBinAddr: 0xD6710, symSize: 0x10 }
  - { offset: 0x591CCB, size: 0x8, addend: 0x0, symName: _llama_model_cls_label, symObjAddr: 0x573C0, symBinAddr: 0xD6720, symSize: 0x50 }
  - { offset: 0x591DFD, size: 0x8, addend: 0x0, symName: _llama_n_ctx_train, symObjAddr: 0x57410, symBinAddr: 0xD6770, symSize: 0x10 }
  - { offset: 0x591E60, size: 0x8, addend: 0x0, symName: _llama_n_embd, symObjAddr: 0x57420, symBinAddr: 0xD6780, symSize: 0x10 }
  - { offset: 0x591EC3, size: 0x8, addend: 0x0, symName: _llama_n_layer, symObjAddr: 0x57430, symBinAddr: 0xD6790, symSize: 0x10 }
  - { offset: 0x591F26, size: 0x8, addend: 0x0, symName: _llama_n_head, symObjAddr: 0x57440, symBinAddr: 0xD67A0, symSize: 0x10 }
  - { offset: 0x591F71, size: 0x8, addend: 0x0, symName: _llama_model_rope_freq_scale_train, symObjAddr: 0x57450, symBinAddr: 0xD67B0, symSize: 0x10 }
  - { offset: 0x591FD0, size: 0x8, addend: 0x0, symName: _llama_model_meta_val_str, symObjAddr: 0x57460, symBinAddr: 0xD67C0, symSize: 0x130 }
  - { offset: 0x5928B2, size: 0x8, addend: 0x0, symName: _llama_model_meta_count, symObjAddr: 0x57590, symBinAddr: 0xD68F0, symSize: 0x10 }
  - { offset: 0x59291F, size: 0x8, addend: 0x0, symName: _llama_model_meta_key_str, symObjAddr: 0x575A0, symBinAddr: 0xD6900, symSize: 0x20 }
  - { offset: 0x5929B0, size: 0x8, addend: 0x0, symName: _llama_model_meta_key_by_index, symObjAddr: 0x575C0, symBinAddr: 0xD6920, symSize: 0xB0 }
  - { offset: 0x592B65, size: 0x8, addend: 0x0, symName: _llama_model_meta_val_str_by_index, symObjAddr: 0x57670, symBinAddr: 0xD69D0, symSize: 0xB0 }
  - { offset: 0x592D33, size: 0x8, addend: 0x0, symName: _llama_model_desc, symObjAddr: 0x57720, symBinAddr: 0xD6A80, symSize: 0x90 }
  - { offset: 0x592FD3, size: 0x8, addend: 0x0, symName: _llama_model_size, symObjAddr: 0x577B0, symBinAddr: 0xD6B10, symSize: 0x20 }
  - { offset: 0x59303C, size: 0x8, addend: 0x0, symName: _llama_model_chat_template, symObjAddr: 0x577D0, symBinAddr: 0xD6B30, symSize: 0x100 }
  - { offset: 0x5933E3, size: 0x8, addend: 0x0, symName: _llama_model_n_params, symObjAddr: 0x578D0, symBinAddr: 0xD6C30, symSize: 0x10 }
  - { offset: 0x59344C, size: 0x8, addend: 0x0, symName: _llama_model_has_encoder, symObjAddr: 0x578E0, symBinAddr: 0xD6C40, symSize: 0x20 }
  - { offset: 0x593477, size: 0x8, addend: 0x0, symName: _llama_model_has_decoder, symObjAddr: 0x57900, symBinAddr: 0xD6C60, symSize: 0x10 }
  - { offset: 0x5934A2, size: 0x8, addend: 0x0, symName: _llama_model_decoder_start_token, symObjAddr: 0x57910, symBinAddr: 0xD6C70, symSize: 0x10 }
  - { offset: 0x5934CD, size: 0x8, addend: 0x0, symName: _llama_model_is_recurrent, symObjAddr: 0x57920, symBinAddr: 0xD6C80, symSize: 0x10 }
  - { offset: 0x593507, size: 0x8, addend: 0x0, symName: _llama_model_is_hybrid, symObjAddr: 0x57930, symBinAddr: 0xD6C90, symSize: 0x10 }
  - { offset: 0x593541, size: 0x8, addend: 0x0, symName: _llama_model_is_diffusion, symObjAddr: 0x57940, symBinAddr: 0xD6CA0, symSize: 0x10 }
  - { offset: 0x593591, size: 0x8, addend: 0x0, symName: __Z29llama_internal_get_tensor_mapPK11llama_model, symObjAddr: 0x57950, symBinAddr: 0xD6CB0, symSize: 0x10 }
  - { offset: 0x594143, size: 0x8, addend: 0x0, symName: __ZNSt3__111basic_regexIcNS_12regex_traitsIcEEE7__parseIPKcEET_S7_S7_, symObjAddr: 0x58660, symBinAddr: 0xD7620, symSize: 0x320 }
  - { offset: 0x59513B, size: 0x8, addend: 0x0, symName: __ZNSt3__111basic_regexIcNS_12regex_traitsIcEEE13__parse_egrepIPKcEET_S7_S7_, symObjAddr: 0x59050, symBinAddr: 0xD7FC0, symSize: 0x1E0 }
  - { offset: 0x5956D2, size: 0x8, addend: 0x0, symName: __ZNSt3__111basic_regexIcNS_12regex_traitsIcEEE24__parse_extended_reg_expIPKcEET_S7_S7_, symObjAddr: 0x58CE0, symBinAddr: 0xD7C50, symSize: 0x190 }
  - { offset: 0x595A50, size: 0x8, addend: 0x0, symName: __ZNSt3__111basic_regexIcNS_12regex_traitsIcEEE21__parse_basic_reg_expIPKcEET_S7_S7_, symObjAddr: 0x58B90, symBinAddr: 0xD7B00, symSize: 0x150 }
  - { offset: 0x595D72, size: 0x8, addend: 0x0, symName: __ZNSt3__111basic_regexIcNS_12regex_traitsIcEEE12__parse_grepIPKcEET_S7_S7_, symObjAddr: 0x58E70, symBinAddr: 0xD7DE0, symSize: 0x1E0 }
  - { offset: 0x596309, size: 0x8, addend: 0x0, symName: __ZNSt3__111basic_regexIcNS_12regex_traitsIcEEE19__parse_alternativeIPKcEET_S7_S7_, symObjAddr: 0x59450, symBinAddr: 0xD81A0, symSize: 0x90 }
  - { offset: 0x59644A, size: 0x8, addend: 0x0, symName: __ZNSt3__111basic_regexIcNS_12regex_traitsIcEEE16__parse_ecma_expIPKcEET_S7_S7_, symObjAddr: 0x589D0, symBinAddr: 0xD7940, symSize: 0x1C0 }
  - { offset: 0x5968B6, size: 0x8, addend: 0x0, symName: __ZNSt3__111basic_regexIcNS_12regex_traitsIcEEE12__parse_termIPKcEET_S7_S7_, symObjAddr: 0x594E0, symBinAddr: 0xD8230, symSize: 0x80 }
  - { offset: 0x596B51, size: 0x8, addend: 0x0, symName: __ZNSt3__111basic_regexIcNS_12regex_traitsIcEEE18__parse_nondupl_REIPKcEET_S7_S7_, symObjAddr: 0x60810, symBinAddr: 0xDA6C0, symSize: 0x2D0 }
  - { offset: 0x59725A, size: 0x8, addend: 0x0, symName: __ZNSt3__111basic_regexIcNS_12regex_traitsIcEEE22__parse_RE_dupl_symbolIPKcEET_S7_S7_PNS_16__owns_one_stateIcEEjj, symObjAddr: 0x60AE0, symBinAddr: 0xDA990, symSize: 0x260 }
  - { offset: 0x59788A, size: 0x8, addend: 0x0, symName: __ZNSt3__111basic_regexIcNS_12regex_traitsIcEEE22__parse_ERE_expressionIPKcEET_S7_S7_, symObjAddr: 0x60E40, symBinAddr: 0xDABF0, symSize: 0x240 }
  - { offset: 0x597DD9, size: 0x8, addend: 0x0, symName: __ZNSt3__111basic_regexIcNS_12regex_traitsIcEEE23__parse_ERE_dupl_symbolIPKcEET_S7_S7_PNS_16__owns_one_stateIcEEjj, symObjAddr: 0x59AD0, symBinAddr: 0xD8820, symSize: 0x3F0 }
  - { offset: 0x59832C, size: 0x8, addend: 0x0, symName: __ZNSt3__111basic_regexIcNS_12regex_traitsIcEEE17__parse_assertionIPKcEET_S7_S7_, symObjAddr: 0x59560, symBinAddr: 0xD82B0, symSize: 0x2D0 }
  - { offset: 0x5988EB, size: 0x8, addend: 0x0, symName: __ZNSt3__111basic_regexIcNS_12regex_traitsIcEEE12__parse_atomIPKcEET_S7_S7_, symObjAddr: 0x59830, symBinAddr: 0xD8580, symSize: 0x2A0 }
  - { offset: 0x5990F3, size: 0x8, addend: 0x0, symName: __ZNSt3__111basic_regexIcNS_12regex_traitsIcEEE19__parse_atom_escapeIPKcEET_S7_S7_, symObjAddr: 0x5B720, symBinAddr: 0xD8C10, symSize: 0x100 }
  - { offset: 0x59927C, size: 0x8, addend: 0x0, symName: __ZNSt3__111basic_regexIcNS_12regex_traitsIcEEE26__parse_bracket_expressionIPKcEET_S7_S7_, symObjAddr: 0x5B820, symBinAddr: 0xD8D10, symSize: 0x140 }
  - { offset: 0x599485, size: 0x8, addend: 0x0, symName: __ZNSt3__111basic_regexIcNS_12regex_traitsIcEEE25__parse_pattern_characterIPKcEET_S7_S7_, symObjAddr: 0x5B9B0, symBinAddr: 0xD8E50, symSize: 0x1B0 }
  - { offset: 0x59D8BB, size: 0x8, addend: 0x0, symName: __ZNSt3__111basic_regexIcNS_12regex_traitsIcEEE30__parse_character_class_escapeIPKcEET_S7_S7_, symObjAddr: 0x5BC20, symBinAddr: 0xD9000, symSize: 0x2E0 }
  - { offset: 0x59DE27, size: 0x8, addend: 0x0, symName: __ZNSt3__111basic_regexIcNS_12regex_traitsIcEEE24__parse_character_escapeIPKcEET_S7_S7_PNS_12basic_stringIcNS_11char_traitsIcEENS_9allocatorIcEEEE, symObjAddr: 0x5BF00, symBinAddr: 0xD92E0, symSize: 0x410 }
  - { offset: 0x59E9B6, size: 0x8, addend: 0x0, symName: __ZNSt3__111basic_regexIcNS_12regex_traitsIcEEE23__parse_expression_termIPKcEET_S7_S7_PNS_20__bracket_expressionIcS2_EE, symObjAddr: 0x5E000, symBinAddr: 0xD96F0, symSize: 0x500 }
  - { offset: 0x5A0D10, size: 0x8, addend: 0x0, symName: __ZNSt3__111basic_regexIcNS_12regex_traitsIcEEE25__parse_equivalence_classIPKcEET_S7_S7_PNS_20__bracket_expressionIcS2_EE, symObjAddr: 0x5E500, symBinAddr: 0xD9BF0, symSize: 0x250 }
  - { offset: 0x5A17EE, size: 0x8, addend: 0x0, symName: __ZNSt3__111basic_regexIcNS_12regex_traitsIcEEE18__parse_awk_escapeIPKcEET_S7_S7_PNS_12basic_stringIcNS_11char_traitsIcEENS_9allocatorIcEEEE, symObjAddr: 0x5E9C0, symBinAddr: 0xDA0B0, symSize: 0x2E0 }
  - { offset: 0x5A188E, size: 0x8, addend: 0x0, symName: __ZNKSt3__112regex_traitsIcE20__lookup_collatenameIPKcEENS_12basic_stringIcNS_11char_traitsIcEENS_9allocatorIcEEEET_SB_c, symObjAddr: 0x5F310, symBinAddr: 0xDA390, symSize: 0x210 }
  - { offset: 0x5A242B, size: 0x8, addend: 0x0, symName: __ZNKSt3__112regex_traitsIcE18__lookup_classnameIPKcEEjT_S5_bc, symObjAddr: 0x5F8D0, symBinAddr: 0xDA5A0, symSize: 0x120 }
  - { offset: 0x5A2B45, size: 0x8, addend: 0x0, symName: __ZNSt3__111basic_regexIcNS_12regex_traitsIcEEE24__parse_collating_symbolIPKcEET_S7_S7_RNS_12basic_stringIcNS_11char_traitsIcEENS_9allocatorIcEEEE, symObjAddr: 0x5E750, symBinAddr: 0xD9E40, symSize: 0xD0 }
  - { offset: 0x5A2ECD, size: 0x8, addend: 0x0, symName: __ZNSt3__111basic_regexIcNS_12regex_traitsIcEEE20__parse_class_escapeIPKcEET_S7_S7_RNS_12basic_stringIcNS_11char_traitsIcEENS_9allocatorIcEEEEPNS_20__bracket_expressionIcS2_EE, symObjAddr: 0x5E820, symBinAddr: 0xD9F10, symSize: 0x1A0 }
  - { offset: 0x5A687F, size: 0x8, addend: 0x0, symName: __ZNSt3__111basic_regexIcNS_12regex_traitsIcEEE20__parse_ORD_CHAR_EREIPKcEET_S7_S7_, symObjAddr: 0x61080, symBinAddr: 0xDAE30, symSize: 0x1C0 }
  - { offset: 0x5A68DD, size: 0x8, addend: 0x0, symName: __ZNSt3__111basic_regexIcNS_12regex_traitsIcEEE23__parse_QUOTED_CHAR_EREIPKcEET_S7_S7_, symObjAddr: 0x61240, symBinAddr: 0xDAFF0, symSize: 0x200 }
  - { offset: 0x5ACE1D, size: 0x8, addend: 0x0, symName: __ZNSt3__13mapI23llama_rope_scaling_typePKcNS_4lessIS1_EENS_9allocatorINS_4pairIKS1_S3_EEEEEC2B8ne200100ESt16initializer_listIS9_ERKS5_, symObjAddr: 0x64550, symBinAddr: 0xDB1F0, symSize: 0x170 }
  - { offset: 0x5AD840, size: 0x8, addend: 0x0, symName: __ZNSt3__16__treeINS_12__value_typeIP19ggml_backend_deviceNS_6vectorINS_4pairIS3_P24ggml_backend_buffer_typeEENS_9allocatorIS8_EEEEEENS_19__map_value_compareIS3_SC_NS_4lessIS3_EELb1EEENS9_ISC_EEE7destroyEPNS_11__tree_nodeISC_PvEE, symObjAddr: 0x648B0, symBinAddr: 0xDB550, symSize: 0x50 }
  - { offset: 0x5ADAF6, size: 0x8, addend: 0x0, symName: __ZNSt3__16vectorINS_4pairINS_10unique_ptrI12ggml_context20ggml_context_deleterEENS0_INS2_I19ggml_backend_buffer27ggml_backend_buffer_deleterEENS_9allocatorIS8_EEEEEENS9_ISC_EEE22__base_destruct_at_endB8ne200100EPSC_, symObjAddr: 0x64900, symBinAddr: 0xDB5A0, symSize: 0xC0 }
  - { offset: 0x5B0082, size: 0x8, addend: 0x0, symName: __ZNSt3__16vectorIN11llama_model4impl9layer_devENS_9allocatorIS3_EEE20__throw_length_errorB8ne200100Ev, symObjAddr: 0x65D90, symBinAddr: 0xDBAA0, symSize: 0x10 }
  - { offset: 0x5B009A, size: 0x8, addend: 0x0, symName: __ZNSt3__16__treeINS_12__value_typeIP24ggml_backend_buffer_typeNS_10unique_ptrI12ggml_context20ggml_context_deleterEEEENS_19__map_value_compareIS3_S8_ZN11llama_model12load_tensorsER18llama_model_loaderE28ggml_backend_buft_comparatorLb1EEENS_9allocatorIS8_EEE7destroyEPNS_11__tree_nodeIS8_PvEE, symObjAddr: 0x65DA0, symBinAddr: 0xDBAB0, symSize: 0x60 }
  - { offset: 0x5B045B, size: 0x8, addend: 0x0, symName: __ZNSt3__16vectorI11llama_layerNS_9allocatorIS1_EEE20__throw_length_errorB8ne200100Ev, symObjAddr: 0x65FD0, symBinAddr: 0xDBCE0, symSize: 0x10 }
  - { offset: 0x5B070E, size: 0x8, addend: 0x0, symName: __ZNSt3__112__hash_tableINS_17__hash_value_typeIjP19ggml_backend_bufferEENS_22__unordered_map_hasherIjS4_NS_4hashIjEENS_8equal_toIjEELb1EEENS_21__unordered_map_equalIjS4_S9_S7_Lb1EEENS_9allocatorIS4_EEED1Ev, symObjAddr: 0x66340, symBinAddr: 0xDC040, symSize: 0x50 }
  - { offset: 0x5B0FD1, size: 0x8, addend: 0x0, symName: __ZNSt3__112__hash_tableINS_17__hash_value_typeIjP19ggml_backend_bufferEENS_22__unordered_map_hasherIjS4_NS_4hashIjEENS_8equal_toIjEELb1EEENS_21__unordered_map_equalIjS4_S9_S7_Lb1EEENS_9allocatorIS4_EEE25__emplace_unique_key_argsIjJRKNS_4pairIKjS3_EEEEENSH_INS_15__hash_iteratorIPNS_11__hash_nodeIS4_PvEEEEbEERKT_DpOT0_, symObjAddr: 0x66E60, symBinAddr: 0xDCB40, symSize: 0x430 }
  - { offset: 0x5B1908, size: 0x8, addend: 0x0, symName: __ZNSt3__16vectorINS_4pairINS_12basic_stringIcNS_11char_traitsIcEENS_9allocatorIcEEEEP11ggml_tensorEENS5_ISA_EEE20__throw_length_errorB8ne200100Ev, symObjAddr: 0x674B0, symBinAddr: 0xDD190, symSize: 0x10 }
  - { offset: 0x5B192B, size: 0x8, addend: 0x0, symName: __ZNSt3__114__split_bufferINS_4pairINS_12basic_stringIcNS_11char_traitsIcEENS_9allocatorIcEEEEP11ggml_tensorEERNS5_ISA_EEED1Ev, symObjAddr: 0x67450, symBinAddr: 0xDD130, symSize: 0x60 }
  - { offset: 0x5B1C4F, size: 0x8, addend: 0x0, symName: '__ZNSt3__110__function6__funcIZNK11llama_model10print_infoEvE3$_0NS_9allocatorIS3_EEFjjEED1Ev', symObjAddr: 0x67500, symBinAddr: 0xDD1A0, symSize: 0x10 }
  - { offset: 0x5B1C79, size: 0x8, addend: 0x0, symName: '__ZNSt3__110__function6__funcIZNK11llama_model10print_infoEvE3$_0NS_9allocatorIS3_EEFjjEED0Ev', symObjAddr: 0x67510, symBinAddr: 0xDD1B0, symSize: 0x10 }
  - { offset: 0x5B1D90, size: 0x8, addend: 0x0, symName: '__ZNKSt3__110__function6__funcIZNK11llama_model10print_infoEvE3$_0NS_9allocatorIS3_EEFjjEE7__cloneEv', symObjAddr: 0x67520, symBinAddr: 0xDD1C0, symSize: 0x30 }
  - { offset: 0x5B1F7D, size: 0x8, addend: 0x0, symName: '__ZNKSt3__110__function6__funcIZNK11llama_model10print_infoEvE3$_0NS_9allocatorIS3_EEFjjEE7__cloneEPNS0_6__baseIS6_EE', symObjAddr: 0x67550, symBinAddr: 0xDD1F0, symSize: 0x20 }
  - { offset: 0x5B2028, size: 0x8, addend: 0x0, symName: '__ZNSt3__110__function6__funcIZNK11llama_model10print_infoEvE3$_0NS_9allocatorIS3_EEFjjEE7destroyEv', symObjAddr: 0x67570, symBinAddr: 0xDD210, symSize: 0x10 }
  - { offset: 0x5B207D, size: 0x8, addend: 0x0, symName: '__ZNSt3__110__function6__funcIZNK11llama_model10print_infoEvE3$_0NS_9allocatorIS3_EEFjjEE18destroy_deallocateEv', symObjAddr: 0x67580, symBinAddr: 0xDD220, symSize: 0x10 }
  - { offset: 0x5B21A9, size: 0x8, addend: 0x0, symName: '__ZNSt3__110__function6__funcIZNK11llama_model10print_infoEvE3$_0NS_9allocatorIS3_EEFjjEEclEOj', symObjAddr: 0x67590, symBinAddr: 0xDD230, symSize: 0x20 }
  - { offset: 0x5B2252, size: 0x8, addend: 0x0, symName: '__ZNKSt3__110__function6__funcIZNK11llama_model10print_infoEvE3$_0NS_9allocatorIS3_EEFjjEE6targetERKSt9type_info', symObjAddr: 0x675B0, symBinAddr: 0xDD250, symSize: 0x20 }
  - { offset: 0x5B22C2, size: 0x8, addend: 0x0, symName: '__ZNKSt3__110__function6__funcIZNK11llama_model10print_infoEvE3$_0NS_9allocatorIS3_EEFjjEE11target_typeEv', symObjAddr: 0x675D0, symBinAddr: 0xDD270, symSize: 0x10 }
  - { offset: 0x5B22E5, size: 0x8, addend: 0x0, symName: '__ZNSt3__110__function6__funcIZNK11llama_model10print_infoEvE3$_1NS_9allocatorIS3_EEFjjEED1Ev', symObjAddr: 0x675E0, symBinAddr: 0xDD280, symSize: 0x10 }
  - { offset: 0x5B230F, size: 0x8, addend: 0x0, symName: '__ZNSt3__110__function6__funcIZNK11llama_model10print_infoEvE3$_1NS_9allocatorIS3_EEFjjEED0Ev', symObjAddr: 0x675F0, symBinAddr: 0xDD290, symSize: 0x10 }
  - { offset: 0x5B2426, size: 0x8, addend: 0x0, symName: '__ZNKSt3__110__function6__funcIZNK11llama_model10print_infoEvE3$_1NS_9allocatorIS3_EEFjjEE7__cloneEv', symObjAddr: 0x67600, symBinAddr: 0xDD2A0, symSize: 0x30 }
  - { offset: 0x5B2613, size: 0x8, addend: 0x0, symName: '__ZNKSt3__110__function6__funcIZNK11llama_model10print_infoEvE3$_1NS_9allocatorIS3_EEFjjEE7__cloneEPNS0_6__baseIS6_EE', symObjAddr: 0x67630, symBinAddr: 0xDD2D0, symSize: 0x20 }
  - { offset: 0x5B26BE, size: 0x8, addend: 0x0, symName: '__ZNSt3__110__function6__funcIZNK11llama_model10print_infoEvE3$_1NS_9allocatorIS3_EEFjjEE7destroyEv', symObjAddr: 0x67650, symBinAddr: 0xDD2F0, symSize: 0x10 }
  - { offset: 0x5B2713, size: 0x8, addend: 0x0, symName: '__ZNSt3__110__function6__funcIZNK11llama_model10print_infoEvE3$_1NS_9allocatorIS3_EEFjjEE18destroy_deallocateEv', symObjAddr: 0x67660, symBinAddr: 0xDD300, symSize: 0x10 }
  - { offset: 0x5B283F, size: 0x8, addend: 0x0, symName: '__ZNSt3__110__function6__funcIZNK11llama_model10print_infoEvE3$_1NS_9allocatorIS3_EEFjjEEclEOj', symObjAddr: 0x67670, symBinAddr: 0xDD310, symSize: 0x20 }
  - { offset: 0x5B28E8, size: 0x8, addend: 0x0, symName: '__ZNKSt3__110__function6__funcIZNK11llama_model10print_infoEvE3$_1NS_9allocatorIS3_EEFjjEE6targetERKSt9type_info', symObjAddr: 0x67690, symBinAddr: 0xDD330, symSize: 0x20 }
  - { offset: 0x5B2958, size: 0x8, addend: 0x0, symName: '__ZNKSt3__110__function6__funcIZNK11llama_model10print_infoEvE3$_1NS_9allocatorIS3_EEFjjEE11target_typeEv', symObjAddr: 0x676B0, symBinAddr: 0xDD350, symSize: 0x10 }
  - { offset: 0x5B297B, size: 0x8, addend: 0x0, symName: '__ZNSt3__110__function6__funcIZNK11llama_model10print_infoEvE3$_2NS_9allocatorIS3_EEFjjEED1Ev', symObjAddr: 0x676C0, symBinAddr: 0xDD360, symSize: 0x10 }
  - { offset: 0x5B29A5, size: 0x8, addend: 0x0, symName: '__ZNSt3__110__function6__funcIZNK11llama_model10print_infoEvE3$_2NS_9allocatorIS3_EEFjjEED0Ev', symObjAddr: 0x676D0, symBinAddr: 0xDD370, symSize: 0x10 }
  - { offset: 0x5B2ABC, size: 0x8, addend: 0x0, symName: '__ZNKSt3__110__function6__funcIZNK11llama_model10print_infoEvE3$_2NS_9allocatorIS3_EEFjjEE7__cloneEv', symObjAddr: 0x676E0, symBinAddr: 0xDD380, symSize: 0x30 }
  - { offset: 0x5B2CA9, size: 0x8, addend: 0x0, symName: '__ZNKSt3__110__function6__funcIZNK11llama_model10print_infoEvE3$_2NS_9allocatorIS3_EEFjjEE7__cloneEPNS0_6__baseIS6_EE', symObjAddr: 0x67710, symBinAddr: 0xDD3B0, symSize: 0x20 }
  - { offset: 0x5B2D54, size: 0x8, addend: 0x0, symName: '__ZNSt3__110__function6__funcIZNK11llama_model10print_infoEvE3$_2NS_9allocatorIS3_EEFjjEE7destroyEv', symObjAddr: 0x67730, symBinAddr: 0xDD3D0, symSize: 0x10 }
  - { offset: 0x5B2DA9, size: 0x8, addend: 0x0, symName: '__ZNSt3__110__function6__funcIZNK11llama_model10print_infoEvE3$_2NS_9allocatorIS3_EEFjjEE18destroy_deallocateEv', symObjAddr: 0x67740, symBinAddr: 0xDD3E0, symSize: 0x10 }
  - { offset: 0x5B2ED5, size: 0x8, addend: 0x0, symName: '__ZNSt3__110__function6__funcIZNK11llama_model10print_infoEvE3$_2NS_9allocatorIS3_EEFjjEEclEOj', symObjAddr: 0x67750, symBinAddr: 0xDD3F0, symSize: 0x20 }
  - { offset: 0x5B2F7E, size: 0x8, addend: 0x0, symName: '__ZNKSt3__110__function6__funcIZNK11llama_model10print_infoEvE3$_2NS_9allocatorIS3_EEFjjEE6targetERKSt9type_info', symObjAddr: 0x67770, symBinAddr: 0xDD410, symSize: 0x20 }
  - { offset: 0x5B2FEE, size: 0x8, addend: 0x0, symName: '__ZNKSt3__110__function6__funcIZNK11llama_model10print_infoEvE3$_2NS_9allocatorIS3_EEFjjEE11target_typeEv', symObjAddr: 0x67790, symBinAddr: 0xDD430, symSize: 0x10 }
  - { offset: 0x5B3011, size: 0x8, addend: 0x0, symName: '__ZNSt3__110__function6__funcIZNK11llama_model10print_infoEvE3$_3NS_9allocatorIS3_EEFjjEED1Ev', symObjAddr: 0x677A0, symBinAddr: 0xDD440, symSize: 0x10 }
  - { offset: 0x5B303B, size: 0x8, addend: 0x0, symName: '__ZNSt3__110__function6__funcIZNK11llama_model10print_infoEvE3$_3NS_9allocatorIS3_EEFjjEED0Ev', symObjAddr: 0x677B0, symBinAddr: 0xDD450, symSize: 0x10 }
  - { offset: 0x5B3152, size: 0x8, addend: 0x0, symName: '__ZNKSt3__110__function6__funcIZNK11llama_model10print_infoEvE3$_3NS_9allocatorIS3_EEFjjEE7__cloneEv', symObjAddr: 0x677C0, symBinAddr: 0xDD460, symSize: 0x30 }
  - { offset: 0x5B333F, size: 0x8, addend: 0x0, symName: '__ZNKSt3__110__function6__funcIZNK11llama_model10print_infoEvE3$_3NS_9allocatorIS3_EEFjjEE7__cloneEPNS0_6__baseIS6_EE', symObjAddr: 0x677F0, symBinAddr: 0xDD490, symSize: 0x20 }
  - { offset: 0x5B33EA, size: 0x8, addend: 0x0, symName: '__ZNSt3__110__function6__funcIZNK11llama_model10print_infoEvE3$_3NS_9allocatorIS3_EEFjjEE7destroyEv', symObjAddr: 0x67810, symBinAddr: 0xDD4B0, symSize: 0x10 }
  - { offset: 0x5B343F, size: 0x8, addend: 0x0, symName: '__ZNSt3__110__function6__funcIZNK11llama_model10print_infoEvE3$_3NS_9allocatorIS3_EEFjjEE18destroy_deallocateEv', symObjAddr: 0x67820, symBinAddr: 0xDD4C0, symSize: 0x10 }
  - { offset: 0x5B356B, size: 0x8, addend: 0x0, symName: '__ZNSt3__110__function6__funcIZNK11llama_model10print_infoEvE3$_3NS_9allocatorIS3_EEFjjEEclEOj', symObjAddr: 0x67830, symBinAddr: 0xDD4D0, symSize: 0x20 }
  - { offset: 0x5B3614, size: 0x8, addend: 0x0, symName: '__ZNKSt3__110__function6__funcIZNK11llama_model10print_infoEvE3$_3NS_9allocatorIS3_EEFjjEE6targetERKSt9type_info', symObjAddr: 0x67850, symBinAddr: 0xDD4F0, symSize: 0x20 }
  - { offset: 0x5B3684, size: 0x8, addend: 0x0, symName: '__ZNKSt3__110__function6__funcIZNK11llama_model10print_infoEvE3$_3NS_9allocatorIS3_EEFjjEE11target_typeEv', symObjAddr: 0x67870, symBinAddr: 0xDD510, symSize: 0x10 }
  - { offset: 0x5B36A7, size: 0x8, addend: 0x0, symName: '__ZNSt3__110__function6__funcIZNK11llama_model10print_infoEvE3$_4NS_9allocatorIS3_EEFjjEED1Ev', symObjAddr: 0x67880, symBinAddr: 0xDD520, symSize: 0x10 }
  - { offset: 0x5B36D1, size: 0x8, addend: 0x0, symName: '__ZNSt3__110__function6__funcIZNK11llama_model10print_infoEvE3$_4NS_9allocatorIS3_EEFjjEED0Ev', symObjAddr: 0x67890, symBinAddr: 0xDD530, symSize: 0x10 }
  - { offset: 0x5B37E8, size: 0x8, addend: 0x0, symName: '__ZNKSt3__110__function6__funcIZNK11llama_model10print_infoEvE3$_4NS_9allocatorIS3_EEFjjEE7__cloneEv', symObjAddr: 0x678A0, symBinAddr: 0xDD540, symSize: 0x30 }
  - { offset: 0x5B39D5, size: 0x8, addend: 0x0, symName: '__ZNKSt3__110__function6__funcIZNK11llama_model10print_infoEvE3$_4NS_9allocatorIS3_EEFjjEE7__cloneEPNS0_6__baseIS6_EE', symObjAddr: 0x678D0, symBinAddr: 0xDD570, symSize: 0x20 }
  - { offset: 0x5B3A80, size: 0x8, addend: 0x0, symName: '__ZNSt3__110__function6__funcIZNK11llama_model10print_infoEvE3$_4NS_9allocatorIS3_EEFjjEE7destroyEv', symObjAddr: 0x678F0, symBinAddr: 0xDD590, symSize: 0x10 }
  - { offset: 0x5B3AD5, size: 0x8, addend: 0x0, symName: '__ZNSt3__110__function6__funcIZNK11llama_model10print_infoEvE3$_4NS_9allocatorIS3_EEFjjEE18destroy_deallocateEv', symObjAddr: 0x67900, symBinAddr: 0xDD5A0, symSize: 0x10 }
  - { offset: 0x5B3C01, size: 0x8, addend: 0x0, symName: '__ZNSt3__110__function6__funcIZNK11llama_model10print_infoEvE3$_4NS_9allocatorIS3_EEFjjEEclEOj', symObjAddr: 0x67910, symBinAddr: 0xDD5B0, symSize: 0x20 }
  - { offset: 0x5B3CAA, size: 0x8, addend: 0x0, symName: '__ZNKSt3__110__function6__funcIZNK11llama_model10print_infoEvE3$_4NS_9allocatorIS3_EEFjjEE6targetERKSt9type_info', symObjAddr: 0x67930, symBinAddr: 0xDD5D0, symSize: 0x20 }
  - { offset: 0x5B3D1A, size: 0x8, addend: 0x0, symName: '__ZNKSt3__110__function6__funcIZNK11llama_model10print_infoEvE3$_4NS_9allocatorIS3_EEFjjEE11target_typeEv', symObjAddr: 0x67950, symBinAddr: 0xDD5F0, symSize: 0x10 }
  - { offset: 0x5B3D3D, size: 0x8, addend: 0x0, symName: '__ZNSt3__110__function6__funcIZNK11llama_model10print_infoEvE3$_5NS_9allocatorIS3_EEFjjEED1Ev', symObjAddr: 0x67960, symBinAddr: 0xDD600, symSize: 0x10 }
  - { offset: 0x5B3D67, size: 0x8, addend: 0x0, symName: '__ZNSt3__110__function6__funcIZNK11llama_model10print_infoEvE3$_5NS_9allocatorIS3_EEFjjEED0Ev', symObjAddr: 0x67970, symBinAddr: 0xDD610, symSize: 0x10 }
  - { offset: 0x5B3E7E, size: 0x8, addend: 0x0, symName: '__ZNKSt3__110__function6__funcIZNK11llama_model10print_infoEvE3$_5NS_9allocatorIS3_EEFjjEE7__cloneEv', symObjAddr: 0x67980, symBinAddr: 0xDD620, symSize: 0x30 }
  - { offset: 0x5B406B, size: 0x8, addend: 0x0, symName: '__ZNKSt3__110__function6__funcIZNK11llama_model10print_infoEvE3$_5NS_9allocatorIS3_EEFjjEE7__cloneEPNS0_6__baseIS6_EE', symObjAddr: 0x679B0, symBinAddr: 0xDD650, symSize: 0x20 }
  - { offset: 0x5B4116, size: 0x8, addend: 0x0, symName: '__ZNSt3__110__function6__funcIZNK11llama_model10print_infoEvE3$_5NS_9allocatorIS3_EEFjjEE7destroyEv', symObjAddr: 0x679D0, symBinAddr: 0xDD670, symSize: 0x10 }
  - { offset: 0x5B416B, size: 0x8, addend: 0x0, symName: '__ZNSt3__110__function6__funcIZNK11llama_model10print_infoEvE3$_5NS_9allocatorIS3_EEFjjEE18destroy_deallocateEv', symObjAddr: 0x679E0, symBinAddr: 0xDD680, symSize: 0x10 }
  - { offset: 0x5B4297, size: 0x8, addend: 0x0, symName: '__ZNSt3__110__function6__funcIZNK11llama_model10print_infoEvE3$_5NS_9allocatorIS3_EEFjjEEclEOj', symObjAddr: 0x679F0, symBinAddr: 0xDD690, symSize: 0x20 }
  - { offset: 0x5B4340, size: 0x8, addend: 0x0, symName: '__ZNKSt3__110__function6__funcIZNK11llama_model10print_infoEvE3$_5NS_9allocatorIS3_EEFjjEE6targetERKSt9type_info', symObjAddr: 0x67A10, symBinAddr: 0xDD6B0, symSize: 0x20 }
  - { offset: 0x5B43B0, size: 0x8, addend: 0x0, symName: '__ZNKSt3__110__function6__funcIZNK11llama_model10print_infoEvE3$_5NS_9allocatorIS3_EEFjjEE11target_typeEv', symObjAddr: 0x67A30, symBinAddr: 0xDD6D0, symSize: 0x10 }
  - { offset: 0x5B43D3, size: 0x8, addend: 0x0, symName: '__ZNSt3__110__function6__funcIZNK11llama_model13create_memoryERK19llama_memory_paramsRK13llama_cparamsE3$_0NS_9allocatorIS9_EEFbiEED1Ev', symObjAddr: 0x67A40, symBinAddr: 0xDD6E0, symSize: 0x10 }
  - { offset: 0x5B43FD, size: 0x8, addend: 0x0, symName: '__ZNSt3__110__function6__funcIZNK11llama_model13create_memoryERK19llama_memory_paramsRK13llama_cparamsE3$_0NS_9allocatorIS9_EEFbiEED0Ev', symObjAddr: 0x67A50, symBinAddr: 0xDD6F0, symSize: 0x10 }
  - { offset: 0x5B44B4, size: 0x8, addend: 0x0, symName: '__ZNKSt3__110__function6__funcIZNK11llama_model13create_memoryERK19llama_memory_paramsRK13llama_cparamsE3$_0NS_9allocatorIS9_EEFbiEE7__cloneEv', symObjAddr: 0x67A60, symBinAddr: 0xDD700, symSize: 0x20 }
  - { offset: 0x5B4600, size: 0x8, addend: 0x0, symName: '__ZNKSt3__110__function6__funcIZNK11llama_model13create_memoryERK19llama_memory_paramsRK13llama_cparamsE3$_0NS_9allocatorIS9_EEFbiEE7__cloneEPNS0_6__baseISC_EE', symObjAddr: 0x67A80, symBinAddr: 0xDD720, symSize: 0x10 }
  - { offset: 0x5B466C, size: 0x8, addend: 0x0, symName: '__ZNSt3__110__function6__funcIZNK11llama_model13create_memoryERK19llama_memory_paramsRK13llama_cparamsE3$_0NS_9allocatorIS9_EEFbiEE7destroyEv', symObjAddr: 0x67A90, symBinAddr: 0xDD730, symSize: 0x10 }
  - { offset: 0x5B46C1, size: 0x8, addend: 0x0, symName: '__ZNSt3__110__function6__funcIZNK11llama_model13create_memoryERK19llama_memory_paramsRK13llama_cparamsE3$_0NS_9allocatorIS9_EEFbiEE18destroy_deallocateEv', symObjAddr: 0x67AA0, symBinAddr: 0xDD740, symSize: 0x10 }
  - { offset: 0x5B4772, size: 0x8, addend: 0x0, symName: '__ZNSt3__110__function6__funcIZNK11llama_model13create_memoryERK19llama_memory_paramsRK13llama_cparamsE3$_0NS_9allocatorIS9_EEFbiEEclEOi', symObjAddr: 0x67AB0, symBinAddr: 0xDD750, symSize: 0x10 }
  - { offset: 0x5B47A1, size: 0x8, addend: 0x0, symName: '__ZNKSt3__110__function6__funcIZNK11llama_model13create_memoryERK19llama_memory_paramsRK13llama_cparamsE3$_0NS_9allocatorIS9_EEFbiEE6targetERKSt9type_info', symObjAddr: 0x67AC0, symBinAddr: 0xDD760, symSize: 0x20 }
  - { offset: 0x5B4811, size: 0x8, addend: 0x0, symName: '__ZNKSt3__110__function6__funcIZNK11llama_model13create_memoryERK19llama_memory_paramsRK13llama_cparamsE3$_0NS_9allocatorIS9_EEFbiEE11target_typeEv', symObjAddr: 0x67AE0, symBinAddr: 0xDD780, symSize: 0x10 }
  - { offset: 0x5B483A, size: 0x8, addend: 0x0, symName: '__ZNSt3__110__function6__funcIZNK11llama_model13create_memoryERK19llama_memory_paramsRK13llama_cparamsE3$_1NS_9allocatorIS9_EEFbiEED1Ev', symObjAddr: 0x67C30, symBinAddr: 0xDD8D0, symSize: 0x10 }
  - { offset: 0x5B4864, size: 0x8, addend: 0x0, symName: '__ZNSt3__110__function6__funcIZNK11llama_model13create_memoryERK19llama_memory_paramsRK13llama_cparamsE3$_1NS_9allocatorIS9_EEFbiEED0Ev', symObjAddr: 0x67C40, symBinAddr: 0xDD8E0, symSize: 0x10 }
  - { offset: 0x5B491B, size: 0x8, addend: 0x0, symName: '__ZNKSt3__110__function6__funcIZNK11llama_model13create_memoryERK19llama_memory_paramsRK13llama_cparamsE3$_1NS_9allocatorIS9_EEFbiEE7__cloneEv', symObjAddr: 0x67C50, symBinAddr: 0xDD8F0, symSize: 0x20 }
  - { offset: 0x5B4A67, size: 0x8, addend: 0x0, symName: '__ZNKSt3__110__function6__funcIZNK11llama_model13create_memoryERK19llama_memory_paramsRK13llama_cparamsE3$_1NS_9allocatorIS9_EEFbiEE7__cloneEPNS0_6__baseISC_EE', symObjAddr: 0x67C70, symBinAddr: 0xDD910, symSize: 0x10 }
  - { offset: 0x5B4AD3, size: 0x8, addend: 0x0, symName: '__ZNSt3__110__function6__funcIZNK11llama_model13create_memoryERK19llama_memory_paramsRK13llama_cparamsE3$_1NS_9allocatorIS9_EEFbiEE7destroyEv', symObjAddr: 0x67C80, symBinAddr: 0xDD920, symSize: 0x10 }
  - { offset: 0x5B4B28, size: 0x8, addend: 0x0, symName: '__ZNSt3__110__function6__funcIZNK11llama_model13create_memoryERK19llama_memory_paramsRK13llama_cparamsE3$_1NS_9allocatorIS9_EEFbiEE18destroy_deallocateEv', symObjAddr: 0x67C90, symBinAddr: 0xDD930, symSize: 0x10 }
  - { offset: 0x5B4BD9, size: 0x8, addend: 0x0, symName: '__ZNSt3__110__function6__funcIZNK11llama_model13create_memoryERK19llama_memory_paramsRK13llama_cparamsE3$_1NS_9allocatorIS9_EEFbiEEclEOi', symObjAddr: 0x67CA0, symBinAddr: 0xDD940, symSize: 0x10 }
  - { offset: 0x5B4C08, size: 0x8, addend: 0x0, symName: '__ZNKSt3__110__function6__funcIZNK11llama_model13create_memoryERK19llama_memory_paramsRK13llama_cparamsE3$_1NS_9allocatorIS9_EEFbiEE6targetERKSt9type_info', symObjAddr: 0x67CB0, symBinAddr: 0xDD950, symSize: 0x20 }
  - { offset: 0x5B4C78, size: 0x8, addend: 0x0, symName: '__ZNKSt3__110__function6__funcIZNK11llama_model13create_memoryERK19llama_memory_paramsRK13llama_cparamsE3$_1NS_9allocatorIS9_EEFbiEE11target_typeEv', symObjAddr: 0x67CD0, symBinAddr: 0xDD970, symSize: 0x10 }
  - { offset: 0x5B4C9B, size: 0x8, addend: 0x0, symName: '__ZNSt3__110__function6__funcIZNK11llama_model13create_memoryERK19llama_memory_paramsRK13llama_cparamsE3$_2NS_9allocatorIS9_EEFbiEED1Ev', symObjAddr: 0x67CE0, symBinAddr: 0xDD980, symSize: 0x10 }
  - { offset: 0x5B4CC5, size: 0x8, addend: 0x0, symName: '__ZNSt3__110__function6__funcIZNK11llama_model13create_memoryERK19llama_memory_paramsRK13llama_cparamsE3$_2NS_9allocatorIS9_EEFbiEED0Ev', symObjAddr: 0x67CF0, symBinAddr: 0xDD990, symSize: 0x10 }
  - { offset: 0x5B4DDC, size: 0x8, addend: 0x0, symName: '__ZNKSt3__110__function6__funcIZNK11llama_model13create_memoryERK19llama_memory_paramsRK13llama_cparamsE3$_2NS_9allocatorIS9_EEFbiEE7__cloneEv', symObjAddr: 0x67D00, symBinAddr: 0xDD9A0, symSize: 0x30 }
  - { offset: 0x5B4FC9, size: 0x8, addend: 0x0, symName: '__ZNKSt3__110__function6__funcIZNK11llama_model13create_memoryERK19llama_memory_paramsRK13llama_cparamsE3$_2NS_9allocatorIS9_EEFbiEE7__cloneEPNS0_6__baseISC_EE', symObjAddr: 0x67D30, symBinAddr: 0xDD9D0, symSize: 0x20 }
  - { offset: 0x5B5074, size: 0x8, addend: 0x0, symName: '__ZNSt3__110__function6__funcIZNK11llama_model13create_memoryERK19llama_memory_paramsRK13llama_cparamsE3$_2NS_9allocatorIS9_EEFbiEE7destroyEv', symObjAddr: 0x67D50, symBinAddr: 0xDD9F0, symSize: 0x10 }
  - { offset: 0x5B50C9, size: 0x8, addend: 0x0, symName: '__ZNSt3__110__function6__funcIZNK11llama_model13create_memoryERK19llama_memory_paramsRK13llama_cparamsE3$_2NS_9allocatorIS9_EEFbiEE18destroy_deallocateEv', symObjAddr: 0x67D60, symBinAddr: 0xDDA00, symSize: 0x10 }
  - { offset: 0x5B51F5, size: 0x8, addend: 0x0, symName: '__ZNSt3__110__function6__funcIZNK11llama_model13create_memoryERK19llama_memory_paramsRK13llama_cparamsE3$_2NS_9allocatorIS9_EEFbiEEclEOi', symObjAddr: 0x67D70, symBinAddr: 0xDDA10, symSize: 0x40 }
  - { offset: 0x5B5278, size: 0x8, addend: 0x0, symName: '__ZNKSt3__110__function6__funcIZNK11llama_model13create_memoryERK19llama_memory_paramsRK13llama_cparamsE3$_2NS_9allocatorIS9_EEFbiEE6targetERKSt9type_info', symObjAddr: 0x67DB0, symBinAddr: 0xDDA50, symSize: 0x20 }
  - { offset: 0x5B52E8, size: 0x8, addend: 0x0, symName: '__ZNKSt3__110__function6__funcIZNK11llama_model13create_memoryERK19llama_memory_paramsRK13llama_cparamsE3$_2NS_9allocatorIS9_EEFbiEE11target_typeEv', symObjAddr: 0x67DD0, symBinAddr: 0xDDA70, symSize: 0x10 }
  - { offset: 0x5B530B, size: 0x8, addend: 0x0, symName: '__ZNSt3__110__function6__funcIZNK11llama_model13create_memoryERK19llama_memory_paramsRK13llama_cparamsE3$_3NS_9allocatorIS9_EEFbiEED1Ev', symObjAddr: 0x67DE0, symBinAddr: 0xDDA80, symSize: 0x10 }
  - { offset: 0x5B5335, size: 0x8, addend: 0x0, symName: '__ZNSt3__110__function6__funcIZNK11llama_model13create_memoryERK19llama_memory_paramsRK13llama_cparamsE3$_3NS_9allocatorIS9_EEFbiEED0Ev', symObjAddr: 0x67DF0, symBinAddr: 0xDDA90, symSize: 0x10 }
  - { offset: 0x5B544C, size: 0x8, addend: 0x0, symName: '__ZNKSt3__110__function6__funcIZNK11llama_model13create_memoryERK19llama_memory_paramsRK13llama_cparamsE3$_3NS_9allocatorIS9_EEFbiEE7__cloneEv', symObjAddr: 0x67E00, symBinAddr: 0xDDAA0, symSize: 0x30 }
  - { offset: 0x5B5639, size: 0x8, addend: 0x0, symName: '__ZNKSt3__110__function6__funcIZNK11llama_model13create_memoryERK19llama_memory_paramsRK13llama_cparamsE3$_3NS_9allocatorIS9_EEFbiEE7__cloneEPNS0_6__baseISC_EE', symObjAddr: 0x67E30, symBinAddr: 0xDDAD0, symSize: 0x20 }
  - { offset: 0x5B56E4, size: 0x8, addend: 0x0, symName: '__ZNSt3__110__function6__funcIZNK11llama_model13create_memoryERK19llama_memory_paramsRK13llama_cparamsE3$_3NS_9allocatorIS9_EEFbiEE7destroyEv', symObjAddr: 0x67E50, symBinAddr: 0xDDAF0, symSize: 0x10 }
  - { offset: 0x5B5739, size: 0x8, addend: 0x0, symName: '__ZNSt3__110__function6__funcIZNK11llama_model13create_memoryERK19llama_memory_paramsRK13llama_cparamsE3$_3NS_9allocatorIS9_EEFbiEE18destroy_deallocateEv', symObjAddr: 0x67E60, symBinAddr: 0xDDB00, symSize: 0x10 }
  - { offset: 0x5B5865, size: 0x8, addend: 0x0, symName: '__ZNSt3__110__function6__funcIZNK11llama_model13create_memoryERK19llama_memory_paramsRK13llama_cparamsE3$_3NS_9allocatorIS9_EEFbiEEclEOi', symObjAddr: 0x67E70, symBinAddr: 0xDDB10, symSize: 0x40 }
  - { offset: 0x5B590E, size: 0x8, addend: 0x0, symName: '__ZNKSt3__110__function6__funcIZNK11llama_model13create_memoryERK19llama_memory_paramsRK13llama_cparamsE3$_3NS_9allocatorIS9_EEFbiEE6targetERKSt9type_info', symObjAddr: 0x67EB0, symBinAddr: 0xDDB50, symSize: 0x20 }
  - { offset: 0x5B597E, size: 0x8, addend: 0x0, symName: '__ZNKSt3__110__function6__funcIZNK11llama_model13create_memoryERK19llama_memory_paramsRK13llama_cparamsE3$_3NS_9allocatorIS9_EEFbiEE11target_typeEv', symObjAddr: 0x67ED0, symBinAddr: 0xDDB70, symSize: 0x10 }
  - { offset: 0x5B59A1, size: 0x8, addend: 0x0, symName: '__ZNSt3__110__function6__funcIZNK11llama_model13create_memoryERK19llama_memory_paramsRK13llama_cparamsE3$_4NS_9allocatorIS9_EEFiiEED1Ev', symObjAddr: 0x67EE0, symBinAddr: 0xDDB80, symSize: 0x10 }
  - { offset: 0x5B59CB, size: 0x8, addend: 0x0, symName: '__ZNSt3__110__function6__funcIZNK11llama_model13create_memoryERK19llama_memory_paramsRK13llama_cparamsE3$_4NS_9allocatorIS9_EEFiiEED0Ev', symObjAddr: 0x67EF0, symBinAddr: 0xDDB90, symSize: 0x10 }
  - { offset: 0x5B5AE2, size: 0x8, addend: 0x0, symName: '__ZNKSt3__110__function6__funcIZNK11llama_model13create_memoryERK19llama_memory_paramsRK13llama_cparamsE3$_4NS_9allocatorIS9_EEFiiEE7__cloneEv', symObjAddr: 0x67F00, symBinAddr: 0xDDBA0, symSize: 0x30 }
  - { offset: 0x5B5CCF, size: 0x8, addend: 0x0, symName: '__ZNKSt3__110__function6__funcIZNK11llama_model13create_memoryERK19llama_memory_paramsRK13llama_cparamsE3$_4NS_9allocatorIS9_EEFiiEE7__cloneEPNS0_6__baseISC_EE', symObjAddr: 0x67F30, symBinAddr: 0xDDBD0, symSize: 0x20 }
  - { offset: 0x5B5D7A, size: 0x8, addend: 0x0, symName: '__ZNSt3__110__function6__funcIZNK11llama_model13create_memoryERK19llama_memory_paramsRK13llama_cparamsE3$_4NS_9allocatorIS9_EEFiiEE7destroyEv', symObjAddr: 0x67F50, symBinAddr: 0xDDBF0, symSize: 0x10 }
  - { offset: 0x5B5DCF, size: 0x8, addend: 0x0, symName: '__ZNSt3__110__function6__funcIZNK11llama_model13create_memoryERK19llama_memory_paramsRK13llama_cparamsE3$_4NS_9allocatorIS9_EEFiiEE18destroy_deallocateEv', symObjAddr: 0x67F60, symBinAddr: 0xDDC00, symSize: 0x10 }
  - { offset: 0x5B5EFB, size: 0x8, addend: 0x0, symName: '__ZNSt3__110__function6__funcIZNK11llama_model13create_memoryERK19llama_memory_paramsRK13llama_cparamsE3$_4NS_9allocatorIS9_EEFiiEEclEOi', symObjAddr: 0x67F70, symBinAddr: 0xDDC10, symSize: 0x30 }
  - { offset: 0x5B5FA6, size: 0x8, addend: 0x0, symName: '__ZNKSt3__110__function6__funcIZNK11llama_model13create_memoryERK19llama_memory_paramsRK13llama_cparamsE3$_4NS_9allocatorIS9_EEFiiEE6targetERKSt9type_info', symObjAddr: 0x67FA0, symBinAddr: 0xDDC40, symSize: 0x20 }
  - { offset: 0x5B6016, size: 0x8, addend: 0x0, symName: '__ZNKSt3__110__function6__funcIZNK11llama_model13create_memoryERK19llama_memory_paramsRK13llama_cparamsE3$_4NS_9allocatorIS9_EEFiiEE11target_typeEv', symObjAddr: 0x67FC0, symBinAddr: 0xDDC60, symSize: 0x10 }
  - { offset: 0x5B60C8, size: 0x8, addend: 0x0, symName: __GLOBAL__sub_I_llama_model.cpp, symObjAddr: 0x723B0, symBinAddr: 0xDDDB0, symSize: 0x91 }
  - { offset: 0x5B833D, size: 0x8, addend: 0x0, symName: __ZL25llama_model_quantize_implRKNSt3__112basic_stringIcNS_11char_traitsIcEENS_9allocatorIcEEEES7_PK27llama_model_quantize_params, symObjAddr: 0x250, symBinAddr: 0xDE0A0, symSize: 0x7340 }
  - { offset: 0x5F0910, size: 0x8, addend: 0x0, symName: '__ZNSt3__111__introsortINS_17_ClassicAlgPolicyERZL25llama_model_quantize_implRKNS_12basic_stringIcNS_11char_traitsIcEENS_9allocatorIcEEEES9_PK27llama_model_quantize_paramsE3$_0PPKN18llama_model_loader19llama_tensor_weightELb0EEEvT1_SK_T0_NS_15iterator_traitsISK_E15difference_typeEb', symObjAddr: 0x13DE0, symBinAddr: 0xE5C80, symSize: 0xC90 }
  - { offset: 0x5F268D, size: 0x8, addend: 0x0, symName: '__ZNSt3__127__insertion_sort_incompleteB8ne200100INS_17_ClassicAlgPolicyERZL25llama_model_quantize_implRKNS_12basic_stringIcNS_11char_traitsIcEENS_9allocatorIcEEEES9_PK27llama_model_quantize_paramsE3$_0PPKN18llama_model_loader19llama_tensor_weightEEEbT1_SK_T0_', symObjAddr: 0x14B70, symBinAddr: 0xE6A10, symSize: 0x360 }
  - { offset: 0x60EF5B, size: 0x8, addend: 0x0, symName: '__ZNSt3__17__sort4B8ne200100INS_17_ClassicAlgPolicyERZL25llama_model_quantize_implRKNS_12basic_stringIcNS_11char_traitsIcEENS_9allocatorIcEEEES9_PK27llama_model_quantize_paramsE3$_0PPKN18llama_model_loader19llama_tensor_weightELi0EEEvT1_SK_SK_SK_T0_', symObjAddr: 0x14A70, symBinAddr: 0xE6910, symSize: 0x100 }
  - { offset: 0x60FA2F, size: 0x8, addend: 0x0, symName: '__ZNSt3__114__thread_proxyB8ne200100INS_5tupleIJNS_10unique_ptrINS_15__thread_structENS_14default_deleteIS3_EEEEZL28llama_tensor_dequantize_implP11ggml_tensorRNS_6vectorI7no_initIfENS_9allocatorISB_EEEERNS9_INS_6threadENSC_ISG_EEEEmiE3$_09ggml_typePhPfmEEEEEPvSP_', symObjAddr: 0x19470, symBinAddr: 0xE7350, symSize: 0xB0 }
  - { offset: 0x60FE2A, size: 0x8, addend: 0x0, symName: '__ZNSt3__114__thread_proxyB8ne200100INS_5tupleIJNS_10unique_ptrINS_15__thread_structENS_14default_deleteIS3_EEEEZL26llama_tensor_quantize_impl9ggml_typePKfPvxxxS9_RNS_6vectorINS_6threadENS_9allocatorISC_EEEEiE3$_0EEEEESA_SA_', symObjAddr: 0x196B0, symBinAddr: 0xE7550, symSize: 0x80 }
  - { offset: 0x614C20, size: 0x8, addend: 0x0, symName: _llama_model_quantize_default_params, symObjAddr: 0x0, symBinAddr: 0xDDE50, symSize: 0x40 }
  - { offset: 0x614F14, size: 0x8, addend: 0x0, symName: _llama_model_quantize, symObjAddr: 0x40, symBinAddr: 0xDDE90, symSize: 0x210 }
  - { offset: 0x61DAC4, size: 0x8, addend: 0x0, symName: __ZNSt3__16vectorIiNS_9allocatorIiEEE18__assign_with_sizeB8ne200100IPiS5_EEvT_T0_l, symObjAddr: 0x7EC0, symBinAddr: 0xE5B30, symSize: 0x140 }
  - { offset: 0x61F1CD, size: 0x8, addend: 0x0, symName: '__ZZL25llama_model_quantize_implRKNSt3__112basic_stringIcNS_11char_traitsIcEENS_9allocatorIcEEEES7_PK27llama_model_quantize_paramsENK3$_2clEi', symObjAddr: 0x7680, symBinAddr: 0xE53E0, symSize: 0x400 }
  - { offset: 0x61FF1B, size: 0x8, addend: 0x0, symName: '__ZZL25llama_model_quantize_implRKNSt3__112basic_stringIcNS_11char_traitsIcEENS_9allocatorIcEEEES7_PK27llama_model_quantize_paramsENK3$_1clEv', symObjAddr: 0x7A80, symBinAddr: 0xE57E0, symSize: 0x210 }
  - { offset: 0x620696, size: 0x8, addend: 0x0, symName: __ZNKSt3__112__hash_tableINS_17__hash_value_typeINS_12basic_stringIcNS_11char_traitsIcEENS_9allocatorIcEEEENS_6vectorIfNS5_IfEEEEEENS_22__unordered_map_hasherIS7_SB_NS_4hashIS7_EENS_8equal_toIS7_EELb1EEENS_21__unordered_map_equalIS7_SB_SG_SE_Lb1EEENS5_ISB_EEE4findIS7_EENS_21__hash_const_iteratorIPNS_11__hash_nodeISB_PvEEEERKT_, symObjAddr: 0x18D20, symBinAddr: 0xE70B0, symSize: 0x290 }
  - { offset: 0x620CBE, size: 0x8, addend: 0x0, symName: '__ZZL21llama_tensor_get_typeR19quantize_state_impl9ggml_typePK11ggml_tensor11llama_ftypeENK3$_1clEiiPKc', symObjAddr: 0x18BF0, symBinAddr: 0xE6F80, symSize: 0x130 }
  - { offset: 0x620E19, size: 0x8, addend: 0x0, symName: __ZNSt3__16__treeINS_12__value_typeIiNS_12basic_stringIcNS_11char_traitsIcEENS_9allocatorIcEEEEEENS_19__map_value_compareIiS8_NS_4lessIiEELb1EEENS5_IS8_EEE7destroyEPNS_11__tree_nodeIS8_PvEE, symObjAddr: 0x19780, symBinAddr: 0xE7620, symSize: 0x50 }
  - { offset: 0x6210AE, size: 0x8, addend: 0x0, symName: __ZN18llama_model_loaderD2Ev, symObjAddr: 0x197D0, symBinAddr: 0xE7670, symSize: 0x1F0 }
  - { offset: 0x621DB7, size: 0x8, addend: 0x0, symName: __ZNSt3__16vectorINS_6threadENS_9allocatorIS1_EEE20__throw_length_errorB8ne200100Ev, symObjAddr: 0x14F10, symBinAddr: 0xE6D70, symSize: 0x10 }
  - { offset: 0x621DCF, size: 0x8, addend: 0x0, symName: __ZNSt3__114__split_bufferINS_6threadERNS_9allocatorIS1_EEED1Ev, symObjAddr: 0x14F20, symBinAddr: 0xE6D80, symSize: 0x50 }
  - { offset: 0x621E0A, size: 0x8, addend: 0x0, symName: __ZNSt3__16vectorIPKN18llama_model_loader19llama_tensor_weightENS_9allocatorIS4_EEE20__throw_length_errorB8ne200100Ev, symObjAddr: 0x80D0, symBinAddr: 0xE5C70, symSize: 0x10 }
  - { offset: 0x621E42, size: 0x8, addend: 0x0, symName: __ZNSt3__16vectorI7no_initIfENS_9allocatorIS2_EEE20__throw_length_errorB8ne200100Ev, symObjAddr: 0x19460, symBinAddr: 0xE7340, symSize: 0x10 }
  - { offset: 0x621E5A, size: 0x8, addend: 0x0, symName: '__ZNSt3__114__thread_proxyB8ne200100INS_5tupleIJNS_10unique_ptrINS_15__thread_structENS_14default_deleteIS3_EEEEZL28llama_tensor_dequantize_implP11ggml_tensorRNS_6vectorI7no_initIfENS_9allocatorISB_EEEERNS9_INS_6threadENSC_ISG_EEEEmiE3$_09ggml_typePhPfmEEEEEPvSP_', symObjAddr: 0x19470, symBinAddr: 0xE7350, symSize: 0xB0 }
  - { offset: 0x621E65, size: 0x8, addend: 0x0, symName: __ZNSt3__128__exception_guard_exceptionsINS_6vectorINS_10unique_ptrI12gguf_context20gguf_context_deleterEENS_9allocatorIS5_EEE16__destroy_vectorEED1B8ne200100Ev, symObjAddr: 0x14F70, symBinAddr: 0xE6DD0, symSize: 0x80 }
  - { offset: 0x622036, size: 0x8, addend: 0x0, symName: '__ZNSt3__110unique_ptrINS_5tupleIJNS0_INS_15__thread_structENS_14default_deleteIS2_EEEEZL28llama_tensor_dequantize_implP11ggml_tensorRNS_6vectorI7no_initIfENS_9allocatorISA_EEEERNS8_INS_6threadENSB_ISF_EEEEmiE3$_09ggml_typePhPfmEEENS3_ISN_EEED1B8ne200100Ev', symObjAddr: 0x19520, symBinAddr: 0xE7400, symSize: 0x50 }
  - { offset: 0x622231, size: 0x8, addend: 0x0, symName: __ZNSt3__114__split_bufferINS_6threadERNS_9allocatorIS1_EEED1Ev, symObjAddr: 0x14F20, symBinAddr: 0xE6D80, symSize: 0x50 }
  - { offset: 0x622388, size: 0x8, addend: 0x0, symName: __ZNSt3__16vectorINS_10unique_ptrI12gguf_context20gguf_context_deleterEENS_9allocatorIS4_EEED1B8ne200100Ev, symObjAddr: 0x7D30, symBinAddr: 0xE5A40, symSize: 0x80 }
  - { offset: 0x6225F2, size: 0x8, addend: 0x0, symName: '__ZNSt3__110unique_ptrINS_5tupleIJNS0_INS_15__thread_structENS_14default_deleteIS2_EEEEZL26llama_tensor_quantize_impl9ggml_typePKfPvxxxS8_RNS_6vectorINS_6threadENS_9allocatorISB_EEEEiE3$_0EEENS3_ISH_EEED1B8ne200100Ev', symObjAddr: 0x19730, symBinAddr: 0xE75D0, symSize: 0x50 }
  - { offset: 0x62279C, size: 0x8, addend: 0x0, symName: __ZNSt3__114basic_ofstreamIcNS_11char_traitsIcEEED1Ev, symObjAddr: 0x7CE0, symBinAddr: 0xE59F0, symSize: 0x50 }
  - { offset: 0x6227E4, size: 0x8, addend: 0x0, symName: __ZNSt3__16vectorINS_6threadENS_9allocatorIS1_EEED1B8ne200100Ev, symObjAddr: 0x7DB0, symBinAddr: 0xE5AC0, symSize: 0x70 }
  - { offset: 0x622E4F, size: 0x8, addend: 0x0, symName: __ZNSt3__114basic_ofstreamIcNS_11char_traitsIcEEEC1ERKNS_12basic_stringIcS2_NS_9allocatorIcEEEEj, symObjAddr: 0x14FF0, symBinAddr: 0xE6E50, symSize: 0x130 }
  - { offset: 0x640525, size: 0x8, addend: 0x0, symName: '__ZZL26llama_tensor_quantize_impl9ggml_typePKfPvxxxS1_RNSt3__16vectorINS3_6threadENS3_9allocatorIS5_EEEEiENK3$_0clEv', symObjAddr: 0x195B0, symBinAddr: 0xE7450, symSize: 0x100 }
  - { offset: 0x6432A9, size: 0x8, addend: 0x0, symName: __ZL21llama_sampler_chain_i, symObjAddr: 0x211C0, symBinAddr: 0x31A288, symSize: 0x0 }
  - { offset: 0x6434B8, size: 0x8, addend: 0x0, symName: __ZL22llama_sampler_greedy_i, symObjAddr: 0x21210, symBinAddr: 0x31A2D8, symSize: 0x0 }
  - { offset: 0x6434C6, size: 0x8, addend: 0x0, symName: __ZL12get_rng_seedj, symObjAddr: 0xAD0, symBinAddr: 0xE8330, symSize: 0x130 }
  - { offset: 0x6434F2, size: 0x8, addend: 0x0, symName: __ZZL12get_rng_seedjE10is_rd_prng, symObjAddr: 0x210C18, symBinAddr: 0x3A6138, symSize: 0x0 }
  - { offset: 0x64384D, size: 0x8, addend: 0x0, symName: __ZL20llama_sampler_dist_i, symObjAddr: 0x21260, symBinAddr: 0x31A328, symSize: 0x0 }
  - { offset: 0x643868, size: 0x8, addend: 0x0, symName: __ZL21llama_sampler_empty_i, symObjAddr: 0x21760, symBinAddr: 0x31A828, symSize: 0x0 }
  - { offset: 0x643883, size: 0x8, addend: 0x0, symName: __ZL21llama_sampler_top_k_i, symObjAddr: 0x212B0, symBinAddr: 0x31A378, symSize: 0x0 }
  - { offset: 0x643891, size: 0x8, addend: 0x0, symName: __ZL43llama_token_data_array_partial_sort_inplaceP22llama_token_data_arrayi, symObjAddr: 0x4C10, symBinAddr: 0xEC3E0, symSize: 0x530 }
  - { offset: 0x644081, size: 0x8, addend: 0x0, symName: __ZL35llama_token_data_array_partial_sortRK22llama_token_data_arrayiRNSt3__16vectorI16llama_token_dataNS2_9allocatorIS4_EEEE, symObjAddr: 0x5140, symBinAddr: 0xEC910, symSize: 0x5F0 }
  - { offset: 0x659B5F, size: 0x8, addend: 0x0, symName: '__ZNSt3__111__introsortINS_17_ClassicAlgPolicyERZL35llama_token_data_array_partial_sortRK22llama_token_data_arrayiRNS_6vectorI16llama_token_dataNS_9allocatorIS6_EEEEE3$_0PS6_Lb0EEEvT1_SE_T0_NS_15iterator_traitsISE_E15difference_typeEb', symObjAddr: 0x5810, symBinAddr: 0xECF10, symSize: 0xD70 }
  - { offset: 0x65B3D3, size: 0x8, addend: 0x0, symName: '__ZNSt3__127__insertion_sort_incompleteB8ne200100INS_17_ClassicAlgPolicyERZL35llama_token_data_array_partial_sortRK22llama_token_data_arrayiRNS_6vectorI16llama_token_dataNS_9allocatorIS6_EEEEE3$_0PS6_EEbT1_SE_T0_', symObjAddr: 0x67E0, symBinAddr: 0xEDEE0, symSize: 0x4D0 }
  - { offset: 0x65D6BE, size: 0x8, addend: 0x0, symName: '__ZNSt3__111__introsortINS_17_ClassicAlgPolicyERZL27llama_sampler_typical_applyP13llama_samplerP22llama_token_data_arrayE3$_0PmLb0EEEvT1_S9_T0_NS_15iterator_traitsIS9_E15difference_typeEb', symObjAddr: 0x8A60, symBinAddr: 0xF0140, symSize: 0xAF0 }
  - { offset: 0x65F22D, size: 0x8, addend: 0x0, symName: '__ZNSt3__127__insertion_sort_incompleteB8ne200100INS_17_ClassicAlgPolicyERZL27llama_sampler_typical_applyP13llama_samplerP22llama_token_data_arrayE3$_0PmEEbT1_S9_T0_', symObjAddr: 0x96A0, symBinAddr: 0xF0D80, symSize: 0x320 }
  - { offset: 0x66A55C, size: 0x8, addend: 0x0, symName: __ZNSt3__113regex_replaceB8ne200100INS_20back_insert_iteratorINS_12basic_stringIcNS_11char_traitsIcEENS_9allocatorIcEEEEEEPKcNS_12regex_traitsIcEEcEET_SD_T0_SE_RKNS_11basic_regexIT2_T1_EEPKSG_NS_15regex_constants15match_flag_typeE, symObjAddr: 0x15E50, symBinAddr: 0xF4480, symSize: 0x300 }
  - { offset: 0x66CF1C, size: 0x8, addend: 0x0, symName: '__ZNSt3__119__partial_sort_implB8ne200100INS_17_ClassicAlgPolicyERZL35llama_token_data_array_partial_sortRK22llama_token_data_arrayiRNS_6vectorI16llama_token_dataNS_9allocatorIS6_EEEEE3$_0PS6_SD_EET1_SE_SE_T2_OT0_', symObjAddr: 0x6CB0, symBinAddr: 0xEE3B0, symSize: 0x470 }
  - { offset: 0x66D706, size: 0x8, addend: 0x0, symName: '__ZNSt3__17__sort5B8ne200100INS_17_ClassicAlgPolicyERZL35llama_token_data_array_partial_sortRK22llama_token_data_arrayiRNS_6vectorI16llama_token_dataNS_9allocatorIS6_EEEEE3$_0PS6_Li0EEEvT1_SE_SE_SE_SE_T0_', symObjAddr: 0x6580, symBinAddr: 0xEDC80, symSize: 0x260 }
  - { offset: 0x66EF74, size: 0x8, addend: 0x0, symName: '__ZNSt3__17__sort5B8ne200100INS_17_ClassicAlgPolicyERZL27llama_sampler_typical_applyP13llama_samplerP22llama_token_data_arrayE3$_0PmLi0EEEvT1_S9_S9_S9_S9_T0_', symObjAddr: 0x9550, symBinAddr: 0xF0C30, symSize: 0x150 }
  - { offset: 0x675BA1, size: 0x8, addend: 0x0, symName: __ZL21llama_sampler_top_p_i, symObjAddr: 0x21300, symBinAddr: 0x31A3C8, symSize: 0x0 }
  - { offset: 0x675BBC, size: 0x8, addend: 0x0, symName: __ZL21llama_sampler_min_p_i, symObjAddr: 0x21350, symBinAddr: 0x31A418, symSize: 0x0 }
  - { offset: 0x675BD7, size: 0x8, addend: 0x0, symName: __ZL23llama_sampler_typical_i, symObjAddr: 0x213A0, symBinAddr: 0x31A468, symSize: 0x0 }
  - { offset: 0x675BF2, size: 0x8, addend: 0x0, symName: __ZL20llama_sampler_temp_i, symObjAddr: 0x213F0, symBinAddr: 0x31A4B8, symSize: 0x0 }
  - { offset: 0x675C0D, size: 0x8, addend: 0x0, symName: __ZL24llama_sampler_temp_ext_i, symObjAddr: 0x21440, symBinAddr: 0x31A508, symSize: 0x0 }
  - { offset: 0x675C28, size: 0x8, addend: 0x0, symName: __ZL19llama_sampler_xtc_i, symObjAddr: 0x21490, symBinAddr: 0x31A558, symSize: 0x0 }
  - { offset: 0x675C43, size: 0x8, addend: 0x0, symName: __ZL24llama_sampler_mirostat_i, symObjAddr: 0x214E0, symBinAddr: 0x31A5A8, symSize: 0x0 }
  - { offset: 0x675C5E, size: 0x8, addend: 0x0, symName: __ZL27llama_sampler_mirostat_v2_i, symObjAddr: 0x21530, symBinAddr: 0x31A5F8, symSize: 0x0 }
  - { offset: 0x675C6C, size: 0x8, addend: 0x0, symName: __ZL31llama_sampler_init_grammar_implPK11llama_vocabPKcS3_bPS3_mPKimS4_m, symObjAddr: 0x1320, symBinAddr: 0xE8B80, symSize: 0x650 }
  - { offset: 0x675C8D, size: 0x8, addend: 0x0, symName: __ZZL31llama_sampler_init_grammar_implPK11llama_vocabPKcS3_bPS3_mPKimS4_mE13special_chars, symObjAddr: 0x210C28, symBinAddr: 0x3A6148, symSize: 0x0 }
  - { offset: 0x677677, size: 0x8, addend: 0x0, symName: __ZL23llama_sampler_grammar_i, symObjAddr: 0x217B0, symBinAddr: 0x31A878, symSize: 0x0 }
  - { offset: 0x677692, size: 0x8, addend: 0x0, symName: __ZL25llama_sampler_penalties_i, symObjAddr: 0x21580, symBinAddr: 0x31A648, symSize: 0x0 }
  - { offset: 0x6776B2, size: 0x8, addend: 0x0, symName: __ZL27llama_sampler_top_n_sigma_i, symObjAddr: 0x215D0, symBinAddr: 0x31A698, symSize: 0x0 }
  - { offset: 0x6776CD, size: 0x8, addend: 0x0, symName: __ZL19llama_sampler_dry_i, symObjAddr: 0x21620, symBinAddr: 0x31A6E8, symSize: 0x0 }
  - { offset: 0x6776E8, size: 0x8, addend: 0x0, symName: __ZL26llama_sampler_adaptive_p_i, symObjAddr: 0x21670, symBinAddr: 0x31A738, symSize: 0x0 }
  - { offset: 0x67773E, size: 0x8, addend: 0x0, symName: __ZL26llama_sampler_logit_bias_i, symObjAddr: 0x216C0, symBinAddr: 0x31A788, symSize: 0x0 }
  - { offset: 0x677759, size: 0x8, addend: 0x0, symName: __ZL22llama_sampler_infill_i, symObjAddr: 0x21710, symBinAddr: 0x31A7D8, symSize: 0x0 }
  - { offset: 0x678C66, size: 0x8, addend: 0x0, symName: __ZL17llama_sample_distP22llama_token_data_arrayRNSt3__123mersenne_twister_engineIjLm32ELm624ELm397ELm31ELj2567483615ELm11ELj4294967295ELm7ELj2636928640ELm15ELj4022730752ELm18ELj1812433253EEE, symObjAddr: 0xBDF0, symBinAddr: 0xF34D0, symSize: 0x230 }
  - { offset: 0x67A83E, size: 0x8, addend: 0x0, symName: _llama_sampler_init, symObjAddr: 0x0, symBinAddr: 0xE7860, symSize: 0x30 }
  - { offset: 0x67A865, size: 0x8, addend: 0x0, symName: _llama_sampler_name, symObjAddr: 0x30, symBinAddr: 0xE7890, symSize: 0x20 }
  - { offset: 0x67A89C, size: 0x8, addend: 0x0, symName: _llama_sampler_accept, symObjAddr: 0x50, symBinAddr: 0xE78B0, symSize: 0x20 }
  - { offset: 0x67A8CB, size: 0x8, addend: 0x0, symName: _llama_sampler_apply, symObjAddr: 0x70, symBinAddr: 0xE78D0, symSize: 0x40 }
  - { offset: 0x67A92D, size: 0x8, addend: 0x0, symName: _llama_sampler_reset, symObjAddr: 0xB0, symBinAddr: 0xE7910, symSize: 0x20 }
  - { offset: 0x67A97C, size: 0x8, addend: 0x0, symName: _llama_sampler_clone, symObjAddr: 0xD0, symBinAddr: 0xE7930, symSize: 0x70 }
  - { offset: 0x67A9DF, size: 0x8, addend: 0x0, symName: _llama_sampler_free, symObjAddr: 0x140, symBinAddr: 0xE79A0, symSize: 0x30 }
  - { offset: 0x67AA43, size: 0x8, addend: 0x0, symName: _llama_sampler_chain_init, symObjAddr: 0x170, symBinAddr: 0xE79D0, symSize: 0x50 }
  - { offset: 0x67AD05, size: 0x8, addend: 0x0, symName: _llama_sampler_sample, symObjAddr: 0x1C0, symBinAddr: 0xE7A20, symSize: 0x5D0 }
  - { offset: 0x67B65C, size: 0x8, addend: 0x0, symName: __ZNSt3__16vectorI16llama_token_dataNS_9allocatorIS1_EEE8__appendEm, symObjAddr: 0x1F2F0, symBinAddr: 0xFA730, symSize: 0x1A0 }
  - { offset: 0x67BDDE, size: 0x8, addend: 0x0, symName: _llama_sampler_chain_add, symObjAddr: 0x790, symBinAddr: 0xE7FF0, symSize: 0x120 }
  - { offset: 0x67C222, size: 0x8, addend: 0x0, symName: __ZNSt3__16vectorIN19llama_sampler_chain4infoENS_9allocatorIS2_EEE20__throw_length_errorB8ne200100Ev, symObjAddr: 0x1F490, symBinAddr: 0xFA8D0, symSize: 0x10 }
  - { offset: 0x67C245, size: 0x8, addend: 0x0, symName: _llama_sampler_chain_get, symObjAddr: 0x8B0, symBinAddr: 0xE8110, symSize: 0x50 }
  - { offset: 0x67C3E6, size: 0x8, addend: 0x0, symName: _llama_sampler_chain_remove, symObjAddr: 0x900, symBinAddr: 0xE8160, symSize: 0x70 }
  - { offset: 0x67C636, size: 0x8, addend: 0x0, symName: _llama_sampler_chain_n, symObjAddr: 0x970, symBinAddr: 0xE81D0, symSize: 0x20 }
  - { offset: 0x67C6BC, size: 0x8, addend: 0x0, symName: _llama_sampler_init_greedy, symObjAddr: 0x990, symBinAddr: 0xE81F0, symSize: 0x60 }
  - { offset: 0x67C72B, size: 0x8, addend: 0x0, symName: __ZN21llama_sampler_backendC2EPKc, symObjAddr: 0x3C90, symBinAddr: 0xEB460, symSize: 0x130 }
  - { offset: 0x67CE9C, size: 0x8, addend: 0x0, symName: _llama_sampler_init_dist, symObjAddr: 0x9F0, symBinAddr: 0xE8250, symSize: 0xE0 }
  - { offset: 0x67D1EB, size: 0x8, addend: 0x0, symName: __ZNSt3__113random_deviceC1B8ne200100Ev, symObjAddr: 0x3DC0, symBinAddr: 0xEB590, symSize: 0x60 }
  - { offset: 0x67D514, size: 0x8, addend: 0x0, symName: __ZN21llama_sampler_backendD1Ev, symObjAddr: 0xC00, symBinAddr: 0xE8460, symSize: 0x40 }
  - { offset: 0x67D760, size: 0x8, addend: 0x0, symName: _llama_sampler_init_top_k, symObjAddr: 0xC40, symBinAddr: 0xE84A0, symSize: 0x80 }
  - { offset: 0x67D7D7, size: 0x8, addend: 0x0, symName: _llama_sampler_init_top_p, symObjAddr: 0xCC0, symBinAddr: 0xE8520, symSize: 0xB0 }
  - { offset: 0x67D896, size: 0x8, addend: 0x0, symName: _llama_sampler_init_min_p, symObjAddr: 0xD70, symBinAddr: 0xE85D0, symSize: 0xA0 }
  - { offset: 0x67D916, size: 0x8, addend: 0x0, symName: _llama_sampler_init_typical, symObjAddr: 0xE10, symBinAddr: 0xE8670, symSize: 0x80 }
  - { offset: 0x67D962, size: 0x8, addend: 0x0, symName: _llama_sampler_init_temp, symObjAddr: 0xE90, symBinAddr: 0xE86F0, symSize: 0xA0 }
  - { offset: 0x67D9D9, size: 0x8, addend: 0x0, symName: _llama_sampler_init_temp_ext, symObjAddr: 0xF30, symBinAddr: 0xE8790, symSize: 0xC0 }
  - { offset: 0x67DA6B, size: 0x8, addend: 0x0, symName: _llama_sampler_init_xtc, symObjAddr: 0xFF0, symBinAddr: 0xE8850, symSize: 0x120 }
  - { offset: 0x67DB6D, size: 0x8, addend: 0x0, symName: _llama_sampler_init_mirostat, symObjAddr: 0x1110, symBinAddr: 0xE8970, symSize: 0x100 }
  - { offset: 0x67DC98, size: 0x8, addend: 0x0, symName: _llama_sampler_init_mirostat_v2, symObjAddr: 0x1210, symBinAddr: 0xE8A70, symSize: 0xE0 }
  - { offset: 0x67DDB1, size: 0x8, addend: 0x0, symName: _llama_sampler_init_grammar, symObjAddr: 0x12F0, symBinAddr: 0xE8B50, symSize: 0x30 }
  - { offset: 0x67E2EB, size: 0x8, addend: 0x0, symName: _llama_sampler_init_grammar_lazy, symObjAddr: 0x1970, symBinAddr: 0xE91D0, symSize: 0x40 }
  - { offset: 0x67E3AD, size: 0x8, addend: 0x0, symName: _llama_sampler_init_grammar_lazy_patterns, symObjAddr: 0x19B0, symBinAddr: 0xE9210, symSize: 0x30 }
  - { offset: 0x67E716, size: 0x8, addend: 0x0, symName: _llama_sampler_init_penalties, symObjAddr: 0x19E0, symBinAddr: 0xE9240, symSize: 0x130 }
  - { offset: 0x67EA4E, size: 0x8, addend: 0x0, symName: _llama_sampler_init_top_n_sigma, symObjAddr: 0x1B10, symBinAddr: 0xE9370, symSize: 0x70 }
  - { offset: 0x67FFDD, size: 0x8, addend: 0x0, symName: _llama_sampler_init_dry, symObjAddr: 0x1B80, symBinAddr: 0xE93E0, symSize: 0xEA0 }
  - { offset: 0x683311, size: 0x8, addend: 0x0, symName: __ZNSt3__112__hash_tableINS_17__hash_value_typeIiNS_6vectorIiNS_9allocatorIiEEEEEENS_22__unordered_map_hasherIiS6_NS_4hashIiEENS_8equal_toIiEELb1EEENS_21__unordered_map_equalIiS6_SB_S9_Lb1EEENS3_IS6_EEE27__node_insert_multi_prepareEmRS6_, symObjAddr: 0x1AC40, symBinAddr: 0xF61D0, symSize: 0x3B0 }
  - { offset: 0x683611, size: 0x8, addend: 0x0, symName: __ZNSt3__112__hash_tableINS_17__hash_value_typeIiNS_6vectorIiNS_9allocatorIiEEEEEENS_22__unordered_map_hasherIiS6_NS_4hashIiEENS_8equal_toIiEELb1EEENS_21__unordered_map_equalIiS6_SB_S9_Lb1EEENS3_IS6_EEE19__node_insert_multiEPNS_11__hash_nodeIS6_PvEE, symObjAddr: 0x1AA60, symBinAddr: 0xF5FF0, symSize: 0x190 }
  - { offset: 0x6839BE, size: 0x8, addend: 0x0, symName: __ZNSt3__118unordered_multimapIiNS_6vectorIiNS_9allocatorIiEEEENS_4hashIiEENS_8equal_toIiEENS2_INS_4pairIKiS4_EEEEED1B8ne200100Ev, symObjAddr: 0x2A70, symBinAddr: 0xEA280, symSize: 0x70 }
  - { offset: 0x683DB4, size: 0x8, addend: 0x0, symName: __ZNSt3__110unique_ptrINS_11__hash_nodeINS_17__hash_value_typeIiNS_6vectorIiNS_9allocatorIiEEEEEEPvEENS_22__hash_node_destructorINS4_IS9_EEEEED1B8ne200100Ev, symObjAddr: 0x1ABF0, symBinAddr: 0xF6180, symSize: 0x50 }
  - { offset: 0x6844D0, size: 0x8, addend: 0x0, symName: __Z30llama_sampler_init_dry_testingiffiiRKNSt3__16vectorINS0_IiNS_9allocatorIiEEEENS1_IS3_EEEE, symObjAddr: 0x2AE0, symBinAddr: 0xEA2F0, symSize: 0x280 }
  - { offset: 0x685023, size: 0x8, addend: 0x0, symName: _llama_sampler_init_adaptive_p, symObjAddr: 0x2D60, symBinAddr: 0xEA570, symSize: 0x140 }
  - { offset: 0x685413, size: 0x8, addend: 0x0, symName: _llama_sampler_init_logit_bias, symObjAddr: 0x2EA0, symBinAddr: 0xEA6B0, symSize: 0x110 }
  - { offset: 0x6859D6, size: 0x8, addend: 0x0, symName: _llama_sampler_init_infill, symObjAddr: 0x2FB0, symBinAddr: 0xEA7C0, symSize: 0xF0 }
  - { offset: 0x685F81, size: 0x8, addend: 0x0, symName: _llama_sampler_get_seed, symObjAddr: 0x30A0, symBinAddr: 0xEA8B0, symSize: 0xA0 }
  - { offset: 0x68612C, size: 0x8, addend: 0x0, symName: _llama_perf_sampler, symObjAddr: 0x3140, symBinAddr: 0xEA950, symSize: 0x60 }
  - { offset: 0x686227, size: 0x8, addend: 0x0, symName: _llama_perf_sampler_print, symObjAddr: 0x31A0, symBinAddr: 0xEA9B0, symSize: 0x70 }
  - { offset: 0x68630C, size: 0x8, addend: 0x0, symName: _llama_perf_sampler_reset, symObjAddr: 0x3210, symBinAddr: 0xEAA20, symSize: 0x50 }
  - { offset: 0x686359, size: 0x8, addend: 0x0, symName: __ZL24llama_sampler_chain_namePK13llama_sampler, symObjAddr: 0x3260, symBinAddr: 0xEAA70, symSize: 0x10 }
  - { offset: 0x6863D0, size: 0x8, addend: 0x0, symName: __ZL26llama_sampler_chain_acceptP13llama_sampleri, symObjAddr: 0x3270, symBinAddr: 0xEAA80, symSize: 0x90 }
  - { offset: 0x68653A, size: 0x8, addend: 0x0, symName: __ZL25llama_sampler_chain_applyP13llama_samplerP22llama_token_data_array, symObjAddr: 0x3300, symBinAddr: 0xEAB10, symSize: 0xA0 }
  - { offset: 0x6866B2, size: 0x8, addend: 0x0, symName: __ZL25llama_sampler_chain_resetP13llama_sampler, symObjAddr: 0x33A0, symBinAddr: 0xEABB0, symSize: 0x50 }
  - { offset: 0x686850, size: 0x8, addend: 0x0, symName: __ZL25llama_sampler_chain_clonePK13llama_sampler, symObjAddr: 0x33F0, symBinAddr: 0xEAC00, symSize: 0xE0 }
  - { offset: 0x686B1D, size: 0x8, addend: 0x0, symName: __ZL24llama_sampler_chain_freeP13llama_sampler, symObjAddr: 0x34D0, symBinAddr: 0xEACE0, symSize: 0x90 }
  - { offset: 0x686EC3, size: 0x8, addend: 0x0, symName: __ZL32llama_sampler_chain_backend_initP13llama_samplerP24ggml_backend_buffer_type, symObjAddr: 0x3560, symBinAddr: 0xEAD70, symSize: 0x90 }
  - { offset: 0x68701E, size: 0x8, addend: 0x0, symName: __ZL34llama_sampler_chain_backend_acceptP13llama_samplerP12ggml_contextP11ggml_cgraphP11ggml_tensor, symObjAddr: 0x35F0, symBinAddr: 0xEAE00, symSize: 0x70 }
  - { offset: 0x68716E, size: 0x8, addend: 0x0, symName: __ZL33llama_sampler_chain_backend_applyP13llama_samplerP12ggml_contextP11ggml_cgraphP18llama_sampler_data, symObjAddr: 0x3660, symBinAddr: 0xEAE70, symSize: 0x90 }
  - { offset: 0x6872D3, size: 0x8, addend: 0x0, symName: __ZL37llama_sampler_chain_backend_set_inputP13llama_sampler, symObjAddr: 0x36F0, symBinAddr: 0xEAF00, symSize: 0x50 }
  - { offset: 0x6873F0, size: 0x8, addend: 0x0, symName: __ZL25llama_sampler_greedy_namePK13llama_sampler, symObjAddr: 0x3750, symBinAddr: 0xEAF50, symSize: 0x10 }
  - { offset: 0x68743E, size: 0x8, addend: 0x0, symName: __ZN21llama_sampler_backend8get_nameEv, symObjAddr: 0x3960, symBinAddr: 0xEB160, symSize: 0x90 }
  - { offset: 0x687652, size: 0x8, addend: 0x0, symName: __ZL26llama_sampler_greedy_applyP13llama_samplerP22llama_token_data_array, symObjAddr: 0x3760, symBinAddr: 0xEAF60, symSize: 0xC0 }
  - { offset: 0x68769C, size: 0x8, addend: 0x0, symName: __ZL26llama_sampler_greedy_resetP13llama_sampler, symObjAddr: 0x3820, symBinAddr: 0xEB020, symSize: 0x10 }
  - { offset: 0x6876DE, size: 0x8, addend: 0x0, symName: __ZL26llama_sampler_greedy_clonePK13llama_sampler, symObjAddr: 0x3830, symBinAddr: 0xEB030, symSize: 0x60 }
  - { offset: 0x6877CE, size: 0x8, addend: 0x0, symName: __ZL25llama_sampler_greedy_freeP13llama_sampler, symObjAddr: 0x3890, symBinAddr: 0xEB090, symSize: 0x50 }
  - { offset: 0x687A75, size: 0x8, addend: 0x0, symName: __ZL33llama_sampler_greedy_backend_initP13llama_samplerP24ggml_backend_buffer_type, symObjAddr: 0x38E0, symBinAddr: 0xEB0E0, symSize: 0x50 }
  - { offset: 0x687B22, size: 0x8, addend: 0x0, symName: __ZL29llama_sampler_backend_supportP13llama_samplerP24ggml_backend_buffer_type, symObjAddr: 0x39F0, symBinAddr: 0xEB1F0, symSize: 0x270 }
  - { offset: 0x688000, size: 0x8, addend: 0x0, symName: __ZL34llama_sampler_greedy_backend_applyP13llama_samplerP12ggml_contextP11ggml_cgraphP18llama_sampler_data, symObjAddr: 0x3930, symBinAddr: 0xEB130, symSize: 0x30 }
  - { offset: 0x688364, size: 0x8, addend: 0x0, symName: __ZL23llama_sampler_dist_namePK13llama_sampler, symObjAddr: 0x3E20, symBinAddr: 0xEB5F0, symSize: 0x10 }
  - { offset: 0x68858B, size: 0x8, addend: 0x0, symName: __ZL24llama_sampler_dist_applyP13llama_samplerP22llama_token_data_array, symObjAddr: 0x3E30, symBinAddr: 0xEB600, symSize: 0x3B0 }
  - { offset: 0x6888D6, size: 0x8, addend: 0x0, symName: __ZL24llama_sampler_dist_resetP13llama_sampler, symObjAddr: 0x41E0, symBinAddr: 0xEB9B0, symSize: 0x90 }
  - { offset: 0x68899F, size: 0x8, addend: 0x0, symName: __ZL24llama_sampler_dist_clonePK13llama_sampler, symObjAddr: 0x4270, symBinAddr: 0xEBA40, symSize: 0x110 }
  - { offset: 0x688C06, size: 0x8, addend: 0x0, symName: __ZL23llama_sampler_dist_freeP13llama_sampler, symObjAddr: 0x4380, symBinAddr: 0xEBB50, symSize: 0x90 }
  - { offset: 0x688FD6, size: 0x8, addend: 0x0, symName: __ZL31llama_sampler_dist_backend_initP13llama_samplerP24ggml_backend_buffer_type, symObjAddr: 0x4410, symBinAddr: 0xEBBE0, symSize: 0x180 }
  - { offset: 0x689308, size: 0x8, addend: 0x0, symName: __ZL32llama_sampler_dist_backend_applyP13llama_samplerP12ggml_contextP11ggml_cgraphP18llama_sampler_data, symObjAddr: 0x4590, symBinAddr: 0xEBD60, symSize: 0x150 }
  - { offset: 0x689677, size: 0x8, addend: 0x0, symName: __ZL36llama_sampler_dist_backend_set_inputP13llama_sampler, symObjAddr: 0x46E0, symBinAddr: 0xEBEB0, symSize: 0x1F0 }
  - { offset: 0x6898FB, size: 0x8, addend: 0x0, symName: __ZL24llama_sampler_empty_namePK13llama_sampler, symObjAddr: 0x48D0, symBinAddr: 0xEC0A0, symSize: 0x10 }
  - { offset: 0x68993A, size: 0x8, addend: 0x0, symName: __ZL26llama_sampler_empty_acceptP13llama_sampleri, symObjAddr: 0x48E0, symBinAddr: 0xEC0B0, symSize: 0x10 }
  - { offset: 0x68996E, size: 0x8, addend: 0x0, symName: __ZL25llama_sampler_empty_applyP13llama_samplerP22llama_token_data_array, symObjAddr: 0x48F0, symBinAddr: 0xEC0C0, symSize: 0x10 }
  - { offset: 0x6899A2, size: 0x8, addend: 0x0, symName: __ZL25llama_sampler_empty_resetP13llama_sampler, symObjAddr: 0x4900, symBinAddr: 0xEC0D0, symSize: 0x10 }
  - { offset: 0x6899CA, size: 0x8, addend: 0x0, symName: __ZL25llama_sampler_empty_clonePK13llama_sampler, symObjAddr: 0x4910, symBinAddr: 0xEC0E0, symSize: 0x40 }
  - { offset: 0x689A4D, size: 0x8, addend: 0x0, symName: __ZL24llama_sampler_empty_freeP13llama_sampler, symObjAddr: 0x4950, symBinAddr: 0xEC120, symSize: 0x20 }
  - { offset: 0x689A79, size: 0x8, addend: 0x0, symName: __ZL32llama_sampler_empty_backend_initP13llama_samplerP24ggml_backend_buffer_type, symObjAddr: 0x4970, symBinAddr: 0xEC140, symSize: 0x10 }
  - { offset: 0x689AB1, size: 0x8, addend: 0x0, symName: __ZL34llama_sampler_empty_backend_acceptP13llama_samplerP12ggml_contextP11ggml_cgraphP11ggml_tensor, symObjAddr: 0x4980, symBinAddr: 0xEC150, symSize: 0x10 }
  - { offset: 0x689AFD, size: 0x8, addend: 0x0, symName: __ZL33llama_sampler_empty_backend_applyP13llama_samplerP12ggml_contextP11ggml_cgraphP18llama_sampler_data, symObjAddr: 0x4990, symBinAddr: 0xEC160, symSize: 0x10 }
  - { offset: 0x689B49, size: 0x8, addend: 0x0, symName: __ZL37llama_sampler_empty_backend_set_inputP13llama_sampler, symObjAddr: 0x49A0, symBinAddr: 0xEC170, symSize: 0x10 }
  - { offset: 0x689B71, size: 0x8, addend: 0x0, symName: __ZL24llama_sampler_top_k_namePK13llama_sampler, symObjAddr: 0x49B0, symBinAddr: 0xEC180, symSize: 0x10 }
  - { offset: 0x689BE6, size: 0x8, addend: 0x0, symName: __ZL25llama_sampler_top_k_applyP13llama_samplerP22llama_token_data_array, symObjAddr: 0x49C0, symBinAddr: 0xEC190, symSize: 0x40 }
  - { offset: 0x689C8A, size: 0x8, addend: 0x0, symName: __ZL25llama_sampler_top_k_clonePK13llama_sampler, symObjAddr: 0x4A00, symBinAddr: 0xEC1D0, symSize: 0x90 }
  - { offset: 0x689D74, size: 0x8, addend: 0x0, symName: __ZL24llama_sampler_top_k_freeP13llama_sampler, symObjAddr: 0x4A90, symBinAddr: 0xEC260, symSize: 0x50 }
  - { offset: 0x689FF9, size: 0x8, addend: 0x0, symName: __ZL32llama_sampler_top_k_backend_initP13llama_samplerP24ggml_backend_buffer_type, symObjAddr: 0x4AE0, symBinAddr: 0xEC2B0, symSize: 0x50 }
  - { offset: 0x68A0A6, size: 0x8, addend: 0x0, symName: __ZL33llama_sampler_top_k_backend_applyP13llama_samplerP12ggml_contextP11ggml_cgraphP18llama_sampler_data, symObjAddr: 0x4B30, symBinAddr: 0xEC300, symSize: 0xE0 }
  - { offset: 0x68A96B, size: 0x8, addend: 0x0, symName: __ZNSt3__16vectorIP16llama_token_dataNS_9allocatorIS2_EEE20__throw_length_errorB8ne200100Ev, symObjAddr: 0x5800, symBinAddr: 0xECF00, symSize: 0x10 }
  - { offset: 0x68A983, size: 0x8, addend: 0x0, symName: '__ZNSt3__111__introsortINS_17_ClassicAlgPolicyERZL35llama_token_data_array_partial_sortRK22llama_token_data_arrayiRNS_6vectorI16llama_token_dataNS_9allocatorIS6_EEEEE3$_0PS6_Lb0EEEvT1_SE_T0_NS_15iterator_traitsISE_E15difference_typeEb', symObjAddr: 0x5810, symBinAddr: 0xECF10, symSize: 0xD70 }
  - { offset: 0x68AA82, size: 0x8, addend: 0x0, symName: __ZL24llama_sampler_top_p_namePK13llama_sampler, symObjAddr: 0x7120, symBinAddr: 0xEE820, symSize: 0x10 }
  - { offset: 0x68AB47, size: 0x8, addend: 0x0, symName: __ZL25llama_sampler_top_p_applyP13llama_samplerP22llama_token_data_array, symObjAddr: 0x7130, symBinAddr: 0xEE830, symSize: 0x480 }
  - { offset: 0x68AEC8, size: 0x8, addend: 0x0, symName: __ZL25llama_sampler_top_p_clonePK13llama_sampler, symObjAddr: 0x75B0, symBinAddr: 0xEECB0, symSize: 0xC0 }
  - { offset: 0x68AFFA, size: 0x8, addend: 0x0, symName: __ZL24llama_sampler_top_p_freeP13llama_sampler, symObjAddr: 0x7670, symBinAddr: 0xEED70, symSize: 0x60 }
  - { offset: 0x68B3AB, size: 0x8, addend: 0x0, symName: __ZL32llama_sampler_top_p_backend_initP13llama_samplerP24ggml_backend_buffer_type, symObjAddr: 0x76D0, symBinAddr: 0xEEDD0, symSize: 0x50 }
  - { offset: 0x68B458, size: 0x8, addend: 0x0, symName: __ZL33llama_sampler_top_p_backend_applyP13llama_samplerP12ggml_contextP11ggml_cgraphP18llama_sampler_data, symObjAddr: 0x7720, symBinAddr: 0xEEE20, symSize: 0x2B0 }
  - { offset: 0x68BA0F, size: 0x8, addend: 0x0, symName: __ZL24llama_sampler_min_p_namePK13llama_sampler, symObjAddr: 0x79D0, symBinAddr: 0xEF0D0, symSize: 0x10 }
  - { offset: 0x68BD6D, size: 0x8, addend: 0x0, symName: __ZL25llama_sampler_min_p_applyP13llama_samplerP22llama_token_data_array, symObjAddr: 0x79E0, symBinAddr: 0xEF0E0, symSize: 0x380 }
  - { offset: 0x68C519, size: 0x8, addend: 0x0, symName: __ZNSt3__16vectorI16llama_token_dataNS_9allocatorIS1_EEE20__throw_length_errorB8ne200100Ev, symObjAddr: 0x7FE0, symBinAddr: 0xEF6E0, symSize: 0x10 }
  - { offset: 0x68C531, size: 0x8, addend: 0x0, symName: __ZL26llama_sampler_typical_namePK13llama_sampler, symObjAddr: 0x7FF0, symBinAddr: 0xEF6F0, symSize: 0x10 }
  - { offset: 0x68C56F, size: 0x8, addend: 0x0, symName: __ZL25llama_sampler_min_p_clonePK13llama_sampler, symObjAddr: 0x7D60, symBinAddr: 0xEF460, symSize: 0xB0 }
  - { offset: 0x68C662, size: 0x8, addend: 0x0, symName: __ZL24llama_sampler_min_p_freeP13llama_sampler, symObjAddr: 0x7E10, symBinAddr: 0xEF510, symSize: 0x50 }
  - { offset: 0x68C8E7, size: 0x8, addend: 0x0, symName: __ZL32llama_sampler_min_p_backend_initP13llama_samplerP24ggml_backend_buffer_type, symObjAddr: 0x7E60, symBinAddr: 0xEF560, symSize: 0x50 }
  - { offset: 0x68C994, size: 0x8, addend: 0x0, symName: __ZL33llama_sampler_min_p_backend_applyP13llama_samplerP12ggml_contextP11ggml_cgraphP18llama_sampler_data, symObjAddr: 0x7EB0, symBinAddr: 0xEF5B0, symSize: 0x130 }
  - { offset: 0x68CB97, size: 0x8, addend: 0x0, symName: __ZL26llama_sampler_typical_namePK13llama_sampler, symObjAddr: 0x7FF0, symBinAddr: 0xEF6F0, symSize: 0x10 }
  - { offset: 0x68D0C4, size: 0x8, addend: 0x0, symName: __ZL27llama_sampler_typical_applyP13llama_samplerP22llama_token_data_array, symObjAddr: 0x8000, symBinAddr: 0xEF700, symSize: 0x9A0 }
  - { offset: 0x68E47E, size: 0x8, addend: 0x0, symName: '__ZNSt3__111__introsortINS_17_ClassicAlgPolicyERZL27llama_sampler_typical_applyP13llama_samplerP22llama_token_data_arrayE3$_0PmLb0EEEvT1_S9_T0_NS_15iterator_traitsIS9_E15difference_typeEb', symObjAddr: 0x8A60, symBinAddr: 0xF0140, symSize: 0xAF0 }
  - { offset: 0x68E4BC, size: 0x8, addend: 0x0, symName: __ZL27llama_sampler_typical_clonePK13llama_sampler, symObjAddr: 0x89A0, symBinAddr: 0xF00A0, symSize: 0x80 }
  - { offset: 0x68E53B, size: 0x8, addend: 0x0, symName: __ZL26llama_sampler_typical_freeP13llama_sampler, symObjAddr: 0x8A20, symBinAddr: 0xF0120, symSize: 0x20 }
  - { offset: 0x68E638, size: 0x8, addend: 0x0, symName: __ZL23llama_sampler_temp_namePK13llama_sampler, symObjAddr: 0x99C0, symBinAddr: 0xF10A0, symSize: 0x10 }
  - { offset: 0x68E6E3, size: 0x8, addend: 0x0, symName: __ZL24llama_sampler_temp_applyP13llama_samplerP22llama_token_data_array, symObjAddr: 0x99D0, symBinAddr: 0xF10B0, symSize: 0x260 }
  - { offset: 0x68E7A3, size: 0x8, addend: 0x0, symName: __ZL24llama_sampler_temp_clonePK13llama_sampler, symObjAddr: 0x9C30, symBinAddr: 0xF1310, symSize: 0xA0 }
  - { offset: 0x68E88D, size: 0x8, addend: 0x0, symName: __ZL23llama_sampler_temp_freeP13llama_sampler, symObjAddr: 0x9CD0, symBinAddr: 0xF13B0, symSize: 0x50 }
  - { offset: 0x68EB12, size: 0x8, addend: 0x0, symName: __ZL31llama_sampler_temp_backend_initP13llama_samplerP24ggml_backend_buffer_type, symObjAddr: 0x9D20, symBinAddr: 0xF1400, symSize: 0x50 }
  - { offset: 0x68EBBF, size: 0x8, addend: 0x0, symName: __ZL32llama_sampler_temp_backend_applyP13llama_samplerP12ggml_contextP11ggml_cgraphP18llama_sampler_data, symObjAddr: 0x9D70, symBinAddr: 0xF1450, symSize: 0x20 }
  - { offset: 0x68EC44, size: 0x8, addend: 0x0, symName: __ZL35llama_sampler_backend_temp_samplingP12ggml_contextP11ggml_cgraphP18llama_sampler_dataf, symObjAddr: 0x9D90, symBinAddr: 0xF1470, symSize: 0xB0 }
  - { offset: 0x68EDA3, size: 0x8, addend: 0x0, symName: __ZL27llama_sampler_temp_ext_namePK13llama_sampler, symObjAddr: 0x9E40, symBinAddr: 0xF1520, symSize: 0x10 }
  - { offset: 0x68EDF1, size: 0x8, addend: 0x0, symName: __ZL28llama_sampler_temp_ext_applyP13llama_samplerP22llama_token_data_array, symObjAddr: 0x9E50, symBinAddr: 0xF1530, symSize: 0xB70 }
  - { offset: 0x68F118, size: 0x8, addend: 0x0, symName: __ZL28llama_sampler_temp_ext_clonePK13llama_sampler, symObjAddr: 0xA9C0, symBinAddr: 0xF20A0, symSize: 0xC0 }
  - { offset: 0x68F20B, size: 0x8, addend: 0x0, symName: __ZL27llama_sampler_temp_ext_freeP13llama_sampler, symObjAddr: 0xAA80, symBinAddr: 0xF2160, symSize: 0x50 }
  - { offset: 0x68F490, size: 0x8, addend: 0x0, symName: __ZL35llama_sampler_temp_ext_backend_initP13llama_samplerP24ggml_backend_buffer_type, symObjAddr: 0xAAD0, symBinAddr: 0xF21B0, symSize: 0x50 }
  - { offset: 0x68F53D, size: 0x8, addend: 0x0, symName: __ZL36llama_sampler_temp_ext_backend_applyP13llama_samplerP12ggml_contextP11ggml_cgraphP18llama_sampler_data, symObjAddr: 0xAB20, symBinAddr: 0xF2200, symSize: 0x240 }
  - { offset: 0x68F8FD, size: 0x8, addend: 0x0, symName: __ZL22llama_sampler_xtc_namePK13llama_sampler, symObjAddr: 0xAD60, symBinAddr: 0xF2440, symSize: 0x10 }
  - { offset: 0x68F9B3, size: 0x8, addend: 0x0, symName: __ZL22llama_sample_xtc_applyP13llama_samplerP22llama_token_data_array, symObjAddr: 0xAD70, symBinAddr: 0xF2450, symSize: 0x4A0 }
  - { offset: 0x68FC51, size: 0x8, addend: 0x0, symName: __ZL23llama_sampler_xtc_resetP13llama_sampler, symObjAddr: 0xB210, symBinAddr: 0xF28F0, symSize: 0x90 }
  - { offset: 0x68FD49, size: 0x8, addend: 0x0, symName: __ZL23llama_sampler_xtc_clonePK13llama_sampler, symObjAddr: 0xB2A0, symBinAddr: 0xF2980, symSize: 0x140 }
  - { offset: 0x68FEA1, size: 0x8, addend: 0x0, symName: __ZL22llama_sampler_xtc_freeP13llama_sampler, symObjAddr: 0xB3E0, symBinAddr: 0xF2AC0, symSize: 0x20 }
  - { offset: 0x68FECD, size: 0x8, addend: 0x0, symName: __ZL27llama_sampler_mirostat_namePK13llama_sampler, symObjAddr: 0xB400, symBinAddr: 0xF2AE0, symSize: 0x10 }
  - { offset: 0x68FEF6, size: 0x8, addend: 0x0, symName: __ZL28llama_sampler_mirostat_applyP13llama_samplerP22llama_token_data_array, symObjAddr: 0xB410, symBinAddr: 0xF2AF0, symSize: 0x810 }
  - { offset: 0x69023F, size: 0x8, addend: 0x0, symName: __ZL28llama_sampler_mirostat_resetP13llama_sampler, symObjAddr: 0xBC20, symBinAddr: 0xF3300, symSize: 0x90 }
  - { offset: 0x690337, size: 0x8, addend: 0x0, symName: __ZL28llama_sampler_mirostat_clonePK13llama_sampler, symObjAddr: 0xBCB0, symBinAddr: 0xF3390, symSize: 0x120 }
  - { offset: 0x6904A5, size: 0x8, addend: 0x0, symName: __ZL27llama_sampler_mirostat_freeP13llama_sampler, symObjAddr: 0xBDD0, symBinAddr: 0xF34B0, symSize: 0x20 }
  - { offset: 0x690B87, size: 0x8, addend: 0x0, symName: __ZNSt3__121discrete_distributionIiE10param_type6__initEv, symObjAddr: 0xC020, symBinAddr: 0xF3700, symSize: 0x1B0 }
  - { offset: 0x691032, size: 0x8, addend: 0x0, symName: __ZNSt3__121discrete_distributionIiEclINS_23mersenne_twister_engineIjLm32ELm624ELm397ELm31ELj2567483615ELm11ELj4294967295ELm7ELj2636928640ELm15ELj4022730752ELm18ELj1812433253EEEEEiRT_RKNS1_10param_typeE, symObjAddr: 0xC2A0, symBinAddr: 0xF3980, symSize: 0x1D0 }
  - { offset: 0x6912EF, size: 0x8, addend: 0x0, symName: __ZNSt3__16vectorIdNS_9allocatorIdEEE20__throw_length_errorB8ne200100Ev, symObjAddr: 0xC1D0, symBinAddr: 0xF38B0, symSize: 0x10 }
  - { offset: 0x691307, size: 0x8, addend: 0x0, symName: __ZNSt3__16vectorIdNS_9allocatorIdEEE13shrink_to_fitEv, symObjAddr: 0xC1E0, symBinAddr: 0xF38C0, symSize: 0xC0 }
  - { offset: 0x691516, size: 0x8, addend: 0x0, symName: __ZNSt3__16vectorIdNS_9allocatorIdEEE13shrink_to_fitEv, symObjAddr: 0xC1E0, symBinAddr: 0xF38C0, symSize: 0xC0 }
  - { offset: 0x691886, size: 0x8, addend: 0x0, symName: __ZL30llama_sampler_mirostat_v2_namePK13llama_sampler, symObjAddr: 0xC470, symBinAddr: 0xF3B50, symSize: 0x10 }
  - { offset: 0x6918AF, size: 0x8, addend: 0x0, symName: __ZL31llama_sampler_mirostat_v2_applyP13llama_samplerP22llama_token_data_array, symObjAddr: 0xC480, symBinAddr: 0xF3B60, symSize: 0x750 }
  - { offset: 0x691BEE, size: 0x8, addend: 0x0, symName: __ZL31llama_sampler_mirostat_v2_resetP13llama_sampler, symObjAddr: 0xCBD0, symBinAddr: 0xF42B0, symSize: 0x90 }
  - { offset: 0x691CCE, size: 0x8, addend: 0x0, symName: __ZL31llama_sampler_mirostat_v2_clonePK13llama_sampler, symObjAddr: 0xCC60, symBinAddr: 0xF4340, symSize: 0x120 }
  - { offset: 0x691E2B, size: 0x8, addend: 0x0, symName: __ZL30llama_sampler_mirostat_v2_freeP13llama_sampler, symObjAddr: 0xCD80, symBinAddr: 0xF4460, symSize: 0x20 }
  - { offset: 0x6A2727, size: 0x8, addend: 0x0, symName: __ZNKSt3__113match_resultsIPKcNS_9allocatorINS_9sub_matchIS2_EEEEE6formatINS_20back_insert_iteratorINS_12basic_stringIcNS_11char_traitsIcEENS3_IcEEEEEEEET_SG_S2_S2_NS_15regex_constants15match_flag_typeE, symObjAddr: 0x16150, symBinAddr: 0xF4780, symSize: 0x2F0 }
  - { offset: 0x6A2DC0, size: 0x8, addend: 0x0, symName: __ZNSt3__114regex_iteratorIPKccNS_12regex_traitsIcEEEppEv, symObjAddr: 0x16440, symBinAddr: 0xF4A70, symSize: 0xF0 }
  - { offset: 0x6A8BF9, size: 0x8, addend: 0x0, symName: __ZL26llama_sampler_grammar_namePK13llama_sampler, symObjAddr: 0x18E30, symBinAddr: 0xF4B60, symSize: 0x10 }
  - { offset: 0x6A8C22, size: 0x8, addend: 0x0, symName: __ZL33llama_sampler_grammar_accept_implP13llama_sampleri, symObjAddr: 0x18E40, symBinAddr: 0xF4B70, symSize: 0x20 }
  - { offset: 0x6A8C97, size: 0x8, addend: 0x0, symName: __ZL27llama_sampler_grammar_applyP13llama_samplerP22llama_token_data_array, symObjAddr: 0x18E60, symBinAddr: 0xF4B90, symSize: 0x20 }
  - { offset: 0x6A9126, size: 0x8, addend: 0x0, symName: __ZL27llama_sampler_grammar_resetP13llama_sampler, symObjAddr: 0x18E80, symBinAddr: 0xF4BB0, symSize: 0x280 }
  - { offset: 0x6A9999, size: 0x8, addend: 0x0, symName: __ZL28llama_sampler_penalties_namePK13llama_sampler, symObjAddr: 0x19200, symBinAddr: 0xF4F20, symSize: 0x10 }
  - { offset: 0x6A9ACA, size: 0x8, addend: 0x0, symName: __ZL27llama_sampler_grammar_clonePK13llama_sampler, symObjAddr: 0x19100, symBinAddr: 0xF4E30, symSize: 0xA0 }
  - { offset: 0x6A9C7D, size: 0x8, addend: 0x0, symName: __ZL26llama_sampler_grammar_freeP13llama_sampler, symObjAddr: 0x191A0, symBinAddr: 0xF4ED0, symSize: 0x50 }
  - { offset: 0x6A9F0F, size: 0x8, addend: 0x0, symName: __ZL28llama_sampler_penalties_namePK13llama_sampler, symObjAddr: 0x19200, symBinAddr: 0xF4F20, symSize: 0x10 }
  - { offset: 0x6A9FF3, size: 0x8, addend: 0x0, symName: __ZL30llama_sampler_penalties_acceptP13llama_sampleri, symObjAddr: 0x19210, symBinAddr: 0xF4F30, symSize: 0x1B0 }
  - { offset: 0x6AA70D, size: 0x8, addend: 0x0, symName: __ZNSt3__112__hash_tableINS_17__hash_value_typeIiiEENS_22__unordered_map_hasherIiS2_NS_4hashIiEENS_8equal_toIiEELb1EEENS_21__unordered_map_equalIiS2_S7_S5_Lb1EEENS_9allocatorIS2_EEE14__erase_uniqueIiEEmRKT_, symObjAddr: 0x19DE0, symBinAddr: 0xF54B0, symSize: 0x1A0 }
  - { offset: 0x6AA787, size: 0x8, addend: 0x0, symName: __ZNSt3__112__hash_tableINS_17__hash_value_typeIiiEENS_22__unordered_map_hasherIiS2_NS_4hashIiEENS_8equal_toIiEELb1EEENS_21__unordered_map_equalIiS2_S7_S5_Lb1EEENS_9allocatorIS2_EEE14__erase_uniqueIiEEmRKT_, symObjAddr: 0x19DE0, symBinAddr: 0xF54B0, symSize: 0x1A0 }
  - { offset: 0x6AA7A3, size: 0x8, addend: 0x0, symName: __ZNSt3__112__hash_tableINS_17__hash_value_typeIiiEENS_22__unordered_map_hasherIiS2_NS_4hashIiEENS_8equal_toIiEELb1EEENS_21__unordered_map_equalIiS2_S7_S5_Lb1EEENS_9allocatorIS2_EEE14__erase_uniqueIiEEmRKT_, symObjAddr: 0x19DE0, symBinAddr: 0xF54B0, symSize: 0x1A0 }
  - { offset: 0x6AAB07, size: 0x8, addend: 0x0, symName: __ZL29llama_sampler_penalties_applyP13llama_samplerP22llama_token_data_array, symObjAddr: 0x193C0, symBinAddr: 0xF50E0, symSize: 0x280 }
  - { offset: 0x6AAD11, size: 0x8, addend: 0x0, symName: __ZL29llama_sampler_penalties_resetP13llama_sampler, symObjAddr: 0x19640, symBinAddr: 0xF5360, symSize: 0x70 }
  - { offset: 0x6AAFAE, size: 0x8, addend: 0x0, symName: __ZL29llama_sampler_penalties_clonePK13llama_sampler, symObjAddr: 0x196B0, symBinAddr: 0xF53D0, symSize: 0x70 }
  - { offset: 0x6AB7E7, size: 0x8, addend: 0x0, symName: __ZL28llama_sampler_penalties_freeP13llama_sampler, symObjAddr: 0x19720, symBinAddr: 0xF5440, symSize: 0x70 }
  - { offset: 0x6AC3A6, size: 0x8, addend: 0x0, symName: __ZNSt3__112__hash_tableINS_17__hash_value_typeIiiEENS_22__unordered_map_hasherIiS2_NS_4hashIiEENS_8equal_toIiEELb1EEENS_21__unordered_map_equalIiS2_S7_S5_Lb1EEENS_9allocatorIS2_EEE6removeENS_21__hash_const_iteratorIPNS_11__hash_nodeIS2_PvEEEE, symObjAddr: 0x19F80, symBinAddr: 0xF5650, symSize: 0x200 }
  - { offset: 0x6AC6CA, size: 0x8, addend: 0x0, symName: __ZL30llama_sampler_top_n_sigma_namePK13llama_sampler, symObjAddr: 0x1A2C0, symBinAddr: 0xF5850, symSize: 0x10 }
  - { offset: 0x6AC6F3, size: 0x8, addend: 0x0, symName: __ZL31llama_sampler_top_n_sigma_applyP13llama_samplerP22llama_token_data_array, symObjAddr: 0x1A2D0, symBinAddr: 0xF5860, symSize: 0x6F0 }
  - { offset: 0x6AC940, size: 0x8, addend: 0x0, symName: __ZL31llama_sampler_top_n_sigma_clonePK13llama_sampler, symObjAddr: 0x1A9C0, symBinAddr: 0xF5F50, symSize: 0x80 }
  - { offset: 0x6AC9BE, size: 0x8, addend: 0x0, symName: __ZL30llama_sampler_top_n_sigma_freeP13llama_sampler, symObjAddr: 0x1AA40, symBinAddr: 0xF5FD0, symSize: 0x20 }
  - { offset: 0x6ACB20, size: 0x8, addend: 0x0, symName: __ZNSt3__112__hash_tableINS_17__hash_value_typeIiNS_6vectorIiNS_9allocatorIiEEEEEENS_22__unordered_map_hasherIiS6_NS_4hashIiEENS_8equal_toIiEELb1EEENS_21__unordered_map_equalIiS6_SB_S9_Lb1EEENS3_IS6_EEE11__do_rehashILb0EEEvm, symObjAddr: 0x1AFF0, symBinAddr: 0xF6580, symSize: 0x1F0 }
  - { offset: 0x6ACF9A, size: 0x8, addend: 0x0, symName: __ZL22llama_sampler_dry_namePK13llama_sampler, symObjAddr: 0x1B1E0, symBinAddr: 0xF6770, symSize: 0x10 }
  - { offset: 0x6ACFC3, size: 0x8, addend: 0x0, symName: __ZL24llama_sampler_dry_acceptP13llama_sampleri, symObjAddr: 0x1B1F0, symBinAddr: 0xF6780, symSize: 0x100 }
  - { offset: 0x6AD08F, size: 0x8, addend: 0x0, symName: __ZL23llama_sampler_dry_applyP13llama_samplerP22llama_token_data_array, symObjAddr: 0x1B2F0, symBinAddr: 0xF6880, symSize: 0xE60 }
  - { offset: 0x6AE02A, size: 0x8, addend: 0x0, symName: __ZNSt3__16vectorIiNS_9allocatorIiEEE6assignEmRKi, symObjAddr: 0x1C340, symBinAddr: 0xF78D0, symSize: 0x250 }
  - { offset: 0x6AE589, size: 0x8, addend: 0x0, symName: __ZL23llama_sampler_dry_resetP13llama_sampler, symObjAddr: 0x1C150, symBinAddr: 0xF76E0, symSize: 0x80 }
  - { offset: 0x6AE8EC, size: 0x8, addend: 0x0, symName: __ZL23llama_sampler_dry_clonePK13llama_sampler, symObjAddr: 0x1C1D0, symBinAddr: 0xF7760, symSize: 0x140 }
  - { offset: 0x6AEC4F, size: 0x8, addend: 0x0, symName: __ZNSt3__112__hash_tableINS_17__hash_value_typeIiNS_6vectorIiNS_9allocatorIiEEEEEENS_22__unordered_map_hasherIiS6_NS_4hashIiEENS_8equal_toIiEELb1EEENS_21__unordered_map_equalIiS6_SB_S9_Lb1EEENS3_IS6_EEE14__assign_multiINS_21__hash_const_iteratorIPNS_11__hash_nodeIS6_PvEEEEEEvT_SO_, symObjAddr: 0x1C590, symBinAddr: 0xF7B20, symSize: 0x160 }
  - { offset: 0x6AF27C, size: 0x8, addend: 0x0, symName: __ZNSt3__112__hash_tableINS_17__hash_value_typeIiiEENS_22__unordered_map_hasherIiS2_NS_4hashIiEENS_8equal_toIiEELb1EEENS_21__unordered_map_equalIiS2_S7_S5_Lb1EEENS_9allocatorIS2_EEE14__assign_multiINS_21__hash_const_iteratorIPNS_11__hash_nodeIS2_PvEEEEEEvT_SL_, symObjAddr: 0x1C830, symBinAddr: 0xF7DC0, symSize: 0x150 }
  - { offset: 0x6AF99F, size: 0x8, addend: 0x0, symName: __ZL22llama_sampler_dry_freeP13llama_sampler, symObjAddr: 0x1C310, symBinAddr: 0xF78A0, symSize: 0x30 }
  - { offset: 0x6AF9FC, size: 0x8, addend: 0x0, symName: __ZN17llama_sampler_dryD2Ev, symObjAddr: 0x1D0B0, symBinAddr: 0xF8640, symSize: 0xD0 }
  - { offset: 0x6B054E, size: 0x8, addend: 0x0, symName: __ZNSt3__112__hash_tableINS_17__hash_value_typeIiNS_6vectorIiNS_9allocatorIiEEEEEENS_22__unordered_map_hasherIiS6_NS_4hashIiEENS_8equal_toIiEELb1EEENS_21__unordered_map_equalIiS6_SB_S9_Lb1EEENS3_IS6_EEE16__construct_nodeIJRKNS_4pairIKiS5_EEEEENS_10unique_ptrINS_11__hash_nodeIS6_PvEENS_22__hash_node_destructorINS3_ISQ_EEEEEEDpOT_, symObjAddr: 0x1C740, symBinAddr: 0xF7CD0, symSize: 0xF0 }
  - { offset: 0x6B0BE2, size: 0x8, addend: 0x0, symName: __ZNSt3__112__hash_tableINS_17__hash_value_typeIiNS_6vectorIiNS_9allocatorIiEEEEEENS_22__unordered_map_hasherIiS6_NS_4hashIiEENS_8equal_toIiEELb1EEENS_21__unordered_map_equalIiS6_SB_S9_Lb1EEENS3_IS6_EEE17__deallocate_nodeEPNS_16__hash_node_baseIPNS_11__hash_nodeIS6_PvEEEE, symObjAddr: 0x1C6F0, symBinAddr: 0xF7C80, symSize: 0x50 }
  - { offset: 0x6B1192, size: 0x8, addend: 0x0, symName: __ZNSt3__112__hash_tableINS_17__hash_value_typeIiiEENS_22__unordered_map_hasherIiS2_NS_4hashIiEENS_8equal_toIiEELb1EEENS_21__unordered_map_equalIiS2_S7_S5_Lb1EEENS_9allocatorIS2_EEE19__node_insert_multiEPNS_11__hash_nodeIS2_PvEE, symObjAddr: 0x1C980, symBinAddr: 0xF7F10, symSize: 0x190 }
  - { offset: 0x6B141D, size: 0x8, addend: 0x0, symName: __ZNSt3__112__hash_tableINS_17__hash_value_typeIiiEENS_22__unordered_map_hasherIiS2_NS_4hashIiEENS_8equal_toIiEELb1EEENS_21__unordered_map_equalIiS2_S7_S5_Lb1EEENS_9allocatorIS2_EEE27__node_insert_multi_prepareEmRS2_, symObjAddr: 0x1CB10, symBinAddr: 0xF80A0, symSize: 0x3B0 }
  - { offset: 0x6B1789, size: 0x8, addend: 0x0, symName: __ZNSt3__112__hash_tableINS_17__hash_value_typeIiiEENS_22__unordered_map_hasherIiS2_NS_4hashIiEENS_8equal_toIiEELb1EEENS_21__unordered_map_equalIiS2_S7_S5_Lb1EEENS_9allocatorIS2_EEE11__do_rehashILb0EEEvm, symObjAddr: 0x1CEC0, symBinAddr: 0xF8450, symSize: 0x1F0 }
  - { offset: 0x6B1B85, size: 0x8, addend: 0x0, symName: __ZL29llama_sampler_adaptive_p_namePK13llama_sampler, symObjAddr: 0x1D180, symBinAddr: 0xF8710, symSize: 0x10 }
  - { offset: 0x6B1BD0, size: 0x8, addend: 0x0, symName: __ZL31llama_sampler_adaptive_p_acceptP13llama_sampleri, symObjAddr: 0x1D190, symBinAddr: 0xF8720, symSize: 0xB0 }
  - { offset: 0x6B1CE7, size: 0x8, addend: 0x0, symName: __ZL30llama_sampler_adaptive_p_applyP13llama_samplerP22llama_token_data_array, symObjAddr: 0x1D240, symBinAddr: 0xF87D0, symSize: 0x8E0 }
  - { offset: 0x6B234C, size: 0x8, addend: 0x0, symName: __ZL30llama_sampler_adaptive_p_resetP13llama_sampler, symObjAddr: 0x1DB20, symBinAddr: 0xF90B0, symSize: 0xC0 }
  - { offset: 0x6B2438, size: 0x8, addend: 0x0, symName: __ZL30llama_sampler_adaptive_p_clonePK13llama_sampler, symObjAddr: 0x1DBE0, symBinAddr: 0xF9170, symSize: 0x170 }
  - { offset: 0x6B2637, size: 0x8, addend: 0x0, symName: __ZL29llama_sampler_adaptive_p_freeP13llama_sampler, symObjAddr: 0x1DD50, symBinAddr: 0xF92E0, symSize: 0x40 }
  - { offset: 0x6B28DD, size: 0x8, addend: 0x0, symName: __ZL29llama_sampler_logit_bias_namePK13llama_sampler, symObjAddr: 0x1DEE0, symBinAddr: 0xF9320, symSize: 0x10 }
  - { offset: 0x6B2C69, size: 0x8, addend: 0x0, symName: __ZL30llama_sampler_logit_bias_applyP13llama_samplerP22llama_token_data_array, symObjAddr: 0x1DEF0, symBinAddr: 0xF9330, symSize: 0x200 }
  - { offset: 0x6B32CC, size: 0x8, addend: 0x0, symName: __ZNSt3__16vectorI16llama_logit_biasNS_9allocatorIS1_EEE20__throw_length_errorB8ne200100Ev, symObjAddr: 0x1E510, symBinAddr: 0xF9950, symSize: 0x10 }
  - { offset: 0x6B32E4, size: 0x8, addend: 0x0, symName: __ZN24llama_sampler_logit_biasD2Ev, symObjAddr: 0x1E520, symBinAddr: 0xF9960, symSize: 0xA0 }
  - { offset: 0x6B32EF, size: 0x8, addend: 0x0, symName: __ZL30llama_sampler_logit_bias_clonePK13llama_sampler, symObjAddr: 0x1E0F0, symBinAddr: 0xF9530, symSize: 0x20 }
  - { offset: 0x6B337F, size: 0x8, addend: 0x0, symName: __ZL29llama_sampler_logit_bias_freeP13llama_sampler, symObjAddr: 0x1E110, symBinAddr: 0xF9550, symSize: 0x30 }
  - { offset: 0x6B33DC, size: 0x8, addend: 0x0, symName: __ZN24llama_sampler_logit_biasD2Ev, symObjAddr: 0x1E520, symBinAddr: 0xF9960, symSize: 0xA0 }
  - { offset: 0x6B3973, size: 0x8, addend: 0x0, symName: __ZL37llama_sampler_logit_bias_backend_initP13llama_samplerP24ggml_backend_buffer_type, symObjAddr: 0x1E140, symBinAddr: 0xF9580, symSize: 0x160 }
  - { offset: 0x6B3C50, size: 0x8, addend: 0x0, symName: __ZL38llama_sampler_logit_bias_backend_applyP13llama_samplerP12ggml_contextP11ggml_cgraphP18llama_sampler_data, symObjAddr: 0x1E2A0, symBinAddr: 0xF96E0, symSize: 0xA0 }
  - { offset: 0x6B3E86, size: 0x8, addend: 0x0, symName: __ZL42llama_sampler_logit_bias_backend_set_inputP13llama_sampler, symObjAddr: 0x1E340, symBinAddr: 0xF9780, symSize: 0x1D0 }
  - { offset: 0x6B45DF, size: 0x8, addend: 0x0, symName: __ZL25llama_sampler_infill_namePK13llama_sampler, symObjAddr: 0x1E5C0, symBinAddr: 0xF9A00, symSize: 0x10 }
  - { offset: 0x6B4712, size: 0x8, addend: 0x0, symName: __ZL26llama_sampler_infill_applyP13llama_samplerP22llama_token_data_array, symObjAddr: 0x1E5D0, symBinAddr: 0xF9A10, symSize: 0xCB0 }
  - { offset: 0x6B4FD0, size: 0x8, addend: 0x0, symName: __ZL26llama_sampler_infill_clonePK13llama_sampler, symObjAddr: 0x1F280, symBinAddr: 0xFA6C0, symSize: 0x20 }
  - { offset: 0x6B505E, size: 0x8, addend: 0x0, symName: __ZL25llama_sampler_infill_freeP13llama_sampler, symObjAddr: 0x1F2A0, symBinAddr: 0xFA6E0, symSize: 0x50 }
  - { offset: 0x6DCB10, size: 0x8, addend: 0x0, symName: '__ZNSt3__111__introsortINS_17_ClassicAlgPolicyERZN11llama_vocab4impl4loadER18llama_model_loaderRK6LLM_KVE3$_0PiLb0EEEvT1_SC_T0_NS_15iterator_traitsISC_E15difference_typeEb', symObjAddr: 0x14850, symBinAddr: 0x10DD60, symSize: 0x1090 }
  - { offset: 0x6DE4E1, size: 0x8, addend: 0x0, symName: '__ZNSt3__127__insertion_sort_incompleteB8ne200100INS_17_ClassicAlgPolicyERZN11llama_vocab4impl4loadER18llama_model_loaderRK6LLM_KVE3$_0PiEEbT1_SC_T0_', symObjAddr: 0x15DE0, symBinAddr: 0x10F2F0, symSize: 0x2B0 }
  - { offset: 0x6E162D, size: 0x8, addend: 0x0, symName: __ZNSt3__111__introsortINS_17_ClassicAlgPolicyERZN20llm_tokenizer_plamo25buildERK11llama_vocabEUlRKNS_12basic_stringIcNS_11char_traitsIcEENS_9allocatorIcEEEESD_E_PSB_Lb0EEEvT1_SH_T0_NS_15iterator_traitsISH_E15difference_typeEb, symObjAddr: 0x1A5C0, symBinAddr: 0x113700, symSize: 0xCB0 }
  - { offset: 0x6E36C7, size: 0x8, addend: 0x0, symName: __ZNSt3__126__insertion_sort_unguardedB8ne200100INS_17_ClassicAlgPolicyERZN20llm_tokenizer_plamo25buildERK11llama_vocabEUlRKNS_12basic_stringIcNS_11char_traitsIcEENS_9allocatorIcEEEESD_E_PSB_EEvT1_SH_T0_, symObjAddr: 0x1BA70, symBinAddr: 0x114BB0, symSize: 0x130 }
  - { offset: 0x6E3AF5, size: 0x8, addend: 0x0, symName: __ZNSt3__111__sift_downB8ne200100INS_17_ClassicAlgPolicyERZN20llm_tokenizer_plamo25buildERK11llama_vocabEUlRKNS_12basic_stringIcNS_11char_traitsIcEENS_9allocatorIcEEEESD_E_PSB_EEvT1_OT0_NS_15iterator_traitsISH_E15difference_typeESH_, symObjAddr: 0x1C590, symBinAddr: 0x1156D0, symSize: 0x1C0 }
  - { offset: 0x6E3FB0, size: 0x8, addend: 0x0, symName: __ZNSt3__131__partition_with_equals_on_leftB8ne200100INS_17_ClassicAlgPolicyEPNS_12basic_stringIcNS_11char_traitsIcEENS_9allocatorIcEEEERZN20llm_tokenizer_plamo25buildERK11llama_vocabEUlRKS7_SE_E_EET0_SH_SH_T1_, symObjAddr: 0x1BBA0, symBinAddr: 0x114CE0, symSize: 0x1E0 }
  - { offset: 0x6E4546, size: 0x8, addend: 0x0, symName: __ZNSt3__132__partition_with_equals_on_rightB8ne200100INS_17_ClassicAlgPolicyEPNS_12basic_stringIcNS_11char_traitsIcEENS_9allocatorIcEEEERZN20llm_tokenizer_plamo25buildERK11llama_vocabEUlRKS7_SE_E_EENS_4pairIT0_bEESI_SI_T1_, symObjAddr: 0x1BD80, symBinAddr: 0x114EC0, symSize: 0x1E0 }
  - { offset: 0x6E4AD2, size: 0x8, addend: 0x0, symName: __ZNSt3__127__insertion_sort_incompleteB8ne200100INS_17_ClassicAlgPolicyERZN20llm_tokenizer_plamo25buildERK11llama_vocabEUlRKNS_12basic_stringIcNS_11char_traitsIcEENS_9allocatorIcEEEESD_E_PSB_EEbT1_SH_T0_, symObjAddr: 0x1BF60, symBinAddr: 0x1150A0, symSize: 0x630 }
  - { offset: 0x6E80A6, size: 0x8, addend: 0x0, symName: __ZNSt3__18pop_heapB8ne200100INS_11__wrap_iterIP14llm_bigram_spmEENS2_10comparatorEEEvT_S6_T0_, symObjAddr: 0xF7F0, symBinAddr: 0x109CD0, symSize: 0x1F0 }
  - { offset: 0x6E86C8, size: 0x8, addend: 0x0, symName: __ZNSt3__110__pop_heapB8ne200100INS_17_ClassicAlgPolicyEN14llm_bigram_bpe10comparatorENS_11__wrap_iterIPS2_EEEEvT1_S7_RT0_NS_15iterator_traitsIS7_E15difference_typeE, symObjAddr: 0x103B0, symBinAddr: 0x10A880, symSize: 0x2A0 }
  - { offset: 0x6E9335, size: 0x8, addend: 0x0, symName: __ZNSt3__1plB8ne200100IcNS_11char_traitsIcEENS_9allocatorIcEEEENS_12basic_stringIT_T0_T1_EERKS9_PKS6_, symObjAddr: 0xDF00, symBinAddr: 0x108620, symSize: 0x110 }
  - { offset: 0x6EA567, size: 0x8, addend: 0x0, symName: __ZNSt3__19__sift_upB8ne200100INS_17_ClassicAlgPolicyERN14llm_bigram_bpe10comparatorENS_11__wrap_iterIPS2_EEEEvT1_S8_OT0_NS_15iterator_traitsIS8_E15difference_typeE, symObjAddr: 0x10210, symBinAddr: 0x10A6E0, symSize: 0x1A0 }
  - { offset: 0x6ECFFD, size: 0x8, addend: 0x0, symName: '__ZNSt3__17__sort3B8ne200100INS_17_ClassicAlgPolicyERZN11llama_vocab4impl4loadER18llama_model_loaderRK6LLM_KVE3$_0PiLi0EEEbT1_SC_SC_T0_', symObjAddr: 0x158E0, symBinAddr: 0x10EDF0, symSize: 0x1B0 }
  - { offset: 0x6ED766, size: 0x8, addend: 0x0, symName: '__ZNSt3__17__sort5B8ne200100INS_17_ClassicAlgPolicyERZN11llama_vocab4impl4loadER18llama_model_loaderRK6LLM_KVE3$_0PiLi0EEEvT1_SC_SC_SC_SC_T0_', symObjAddr: 0x15C00, symBinAddr: 0x10F110, symSize: 0x1E0 }
  - { offset: 0x6EDDB1, size: 0x8, addend: 0x0, symName: '__ZNSt3__17__sort4B8ne200100INS_17_ClassicAlgPolicyERZN11llama_vocab4impl4loadER18llama_model_loaderRK6LLM_KVE3$_0PiLi0EEEvT1_SC_SC_SC_T0_', symObjAddr: 0x15A90, symBinAddr: 0x10EFA0, symSize: 0x170 }
  - { offset: 0x6EFECA, size: 0x8, addend: 0x0, symName: __ZNSt3__17__sort4B8ne200100INS_17_ClassicAlgPolicyERZN20llm_tokenizer_plamo25buildERK11llama_vocabEUlRKNS_12basic_stringIcNS_11char_traitsIcEENS_9allocatorIcEEEESD_E_PSB_Li0EEEvT1_SH_SH_SH_T0_, symObjAddr: 0x1B6B0, symBinAddr: 0x1147F0, symSize: 0x260 }
  - { offset: 0x6F05BC, size: 0x8, addend: 0x0, symName: __ZNSt3__116__insertion_sortB8ne200100INS_17_ClassicAlgPolicyERZN20llm_tokenizer_plamo25buildERK11llama_vocabEUlRKNS_12basic_stringIcNS_11char_traitsIcEENS_9allocatorIcEEEESD_E_PSB_EEvT1_SH_T0_, symObjAddr: 0x1B910, symBinAddr: 0x114A50, symSize: 0x160 }
  - { offset: 0x6F09F0, size: 0x8, addend: 0x0, symName: __ZNSt3__110__pop_heapB8ne200100INS_17_ClassicAlgPolicyEZN20llm_tokenizer_plamo25buildERK11llama_vocabEUlRKNS_12basic_stringIcNS_11char_traitsIcEENS_9allocatorIcEEEESD_E_PSB_EEvT1_SG_RT0_NS_15iterator_traitsISG_E15difference_typeE, symObjAddr: 0x1C750, symBinAddr: 0x115890, symSize: 0x200 }
  - { offset: 0x6F0F6D, size: 0x8, addend: 0x0, symName: __ZNSt3__19__sift_upB8ne200100INS_17_ClassicAlgPolicyERZN20llm_tokenizer_plamo25buildERK11llama_vocabEUlRKNS_12basic_stringIcNS_11char_traitsIcEENS_9allocatorIcEEEESD_E_PSB_EEvT1_SH_OT0_NS_15iterator_traitsISH_E15difference_typeE, symObjAddr: 0x1C950, symBinAddr: 0x115A90, symSize: 0x120 }
  - { offset: 0x6F4400, size: 0x8, addend: 0x0, symName: __ZNK11llama_vocab4impl14token_to_pieceEiPciib, symObjAddr: 0xB5B0, symBinAddr: 0x105CD0, symSize: 0x580 }
  - { offset: 0x6F525E, size: 0x8, addend: 0x0, symName: __ZNK11llama_vocab13byte_to_tokenEh, symObjAddr: 0x5900, symBinAddr: 0x1000A0, symSize: 0x3C0 }
  - { offset: 0x6F9814, size: 0x8, addend: 0x0, symName: __ZN11llama_vocab4impl4loadER18llama_model_loaderRK6LLM_KV, symObjAddr: 0x0, symBinAddr: 0xFA8E0, symSize: 0x54C0 }
  - { offset: 0x706564, size: 0x8, addend: 0x0, symName: __ZNSt3__16vectorIN11llama_vocab10token_dataENS_9allocatorIS2_EEE8__appendEm, symObjAddr: 0x13820, symBinAddr: 0x10D100, symSize: 0x1B0 }
  - { offset: 0x706DD0, size: 0x8, addend: 0x0, symName: __ZNSt3__16vectorIcNS_9allocatorIcEEE18__assign_with_sizeB8ne200100IPKcS6_EEvT_T0_l, symObjAddr: 0x14240, symBinAddr: 0x10DB20, symSize: 0x240 }
  - { offset: 0x707749, size: 0x8, addend: 0x0, symName: __ZNSt3__112__hash_tableINS_17__hash_value_typeINS_4pairINS_12basic_stringIcNS_11char_traitsIcEENS_9allocatorIcEEEES8_EEiEENS_22__unordered_map_hasherIS9_SA_N11llama_vocab4impl9pair_hashENS_8equal_toIS9_EELb1EEENS_21__unordered_map_equalIS9_SA_SG_SE_Lb1EEENS6_ISA_EEE25__emplace_unique_key_argsIS9_JS9_RiEEENS2_INS_15__hash_iteratorIPNS_11__hash_nodeISA_PvEEEEbEERKT_DpOT0_, symObjAddr: 0x139E0, symBinAddr: 0x10D2C0, symSize: 0x560 }
  - { offset: 0x70813D, size: 0x8, addend: 0x0, symName: __ZNSt3__112__hash_tableINS_17__hash_value_typeINS_12basic_stringIcNS_11char_traitsIcEENS_9allocatorIcEEEEiEENS_22__unordered_map_hasherIS7_S8_NS_4hashIS7_EENS_8equal_toIS7_EELb1EEENS_21__unordered_map_equalIS7_S8_SD_SB_Lb1EEENS5_IS8_EEE25__emplace_unique_key_argsIS7_JRKNS_21piecewise_construct_tENS_5tupleIJRKS7_EEENSN_IJEEEEEENS_4pairINS_15__hash_iteratorIPNS_11__hash_nodeIS8_PvEEEEbEERKT_DpOT0_, symObjAddr: 0x12930, symBinAddr: 0x10C6C0, symSize: 0x5B0 }
  - { offset: 0x708A99, size: 0x8, addend: 0x0, symName: __ZN11llama_vocab4impl14init_tokenizerE16llama_vocab_type, symObjAddr: 0x56D0, symBinAddr: 0xFFE70, symSize: 0x230 }
  - { offset: 0x708F7F, size: 0x8, addend: 0x0, symName: __ZNK11llama_vocab4impl8tokenizeERKNSt3__112basic_stringIcNS1_11char_traitsIcEENS1_9allocatorIcEEEEbb, symObjAddr: 0x5CD0, symBinAddr: 0x100460, symSize: 0x1D50 }
  - { offset: 0x71015F, size: 0x8, addend: 0x0, symName: __ZNK11llama_vocab4impl24token_to_piece_for_cacheEib, symObjAddr: 0x7B30, symBinAddr: 0x1022C0, symSize: 0x120 }
  - { offset: 0x710570, size: 0x8, addend: 0x0, symName: __ZNKSt3__112__hash_tableINS_17__hash_value_typeINS_12basic_stringIcNS_11char_traitsIcEENS_9allocatorIcEEEEiEENS_22__unordered_map_hasherIS7_S8_NS_4hashIS7_EENS_8equal_toIS7_EELb1EEENS_21__unordered_map_equalIS7_S8_SD_SB_Lb1EEENS5_IS8_EEE4findIS7_EENS_21__hash_const_iteratorIPNS_11__hash_nodeIS8_PvEEEERKT_, symObjAddr: 0x160A0, symBinAddr: 0x10F5B0, symSize: 0x290 }
  - { offset: 0x71086E, size: 0x8, addend: 0x0, symName: __ZNSt3__112__hash_tableINS_17__hash_value_typeINS_12basic_stringIcNS_11char_traitsIcEENS_9allocatorIcEEEEiEENS_22__unordered_map_hasherIS7_S8_NS_4hashIS7_EENS_8equal_toIS7_EELb1EEENS_21__unordered_map_equalIS7_S8_SD_SB_Lb1EEENS5_IS8_EEE4findIS7_EENS_15__hash_iteratorIPNS_11__hash_nodeIS8_PvEEEERKT_, symObjAddr: 0x13590, symBinAddr: 0x10CE70, symSize: 0x290 }
  - { offset: 0x710D3B, size: 0x8, addend: 0x0, symName: '__ZZN11llama_vocab4impl4loadER18llama_model_loaderRK6LLM_KVENK3$_3clERKNSt3__112basic_stringIcNS7_11char_traitsIcEENS7_9allocatorIcEEEE16llama_token_attrb', symObjAddr: 0x7CC0, symBinAddr: 0x1023E0, symSize: 0x80 }
  - { offset: 0x710E7D, size: 0x8, addend: 0x0, symName: __ZNSt3__16vectorI10llm_symbolNS_9allocatorIS1_EEE18__assign_with_sizeB8ne200100IPS1_S6_EEvT_T0_l, symObjAddr: 0x10660, symBinAddr: 0x10AB20, symSize: 0x160 }
  - { offset: 0x710E92, size: 0x8, addend: 0x0, symName: __ZNSt3__16__treeINS_12__value_typeINS_12basic_stringIcNS_11char_traitsIcEENS_9allocatorIcEEEENS_4pairIiiEEEENS_19__map_value_compareIS7_SA_NS_4lessIS7_EELb1EEENS5_ISA_EEE7destroyEPNS_11__tree_nodeISA_PvEE, symObjAddr: 0xFB00, symBinAddr: 0x109FD0, symSize: 0x50 }
  - { offset: 0x710E9D, size: 0x8, addend: 0x0, symName: __ZNSt3__16vectorIN11llama_vocab10token_dataENS_9allocatorIS2_EEE20__throw_out_of_rangeB8ne200100Ev, symObjAddr: 0x16090, symBinAddr: 0x10F5A0, symSize: 0x10 }
  - { offset: 0x710EB5, size: 0x8, addend: 0x0, symName: __ZNKSt3__112__hash_tableINS_17__hash_value_typeINS_12basic_stringIcNS_11char_traitsIcEENS_9allocatorIcEEEEiEENS_22__unordered_map_hasherIS7_S8_NS_4hashIS7_EENS_8equal_toIS7_EELb1EEENS_21__unordered_map_equalIS7_S8_SD_SB_Lb1EEENS5_IS8_EEE4findIS7_EENS_21__hash_const_iteratorIPNS_11__hash_nodeIS8_PvEEEERKT_, symObjAddr: 0x160A0, symBinAddr: 0x10F5B0, symSize: 0x290 }
  - { offset: 0x71132E, size: 0x8, addend: 0x0, symName: __ZNKSt3__112basic_stringIcNS_11char_traitsIcEENS_9allocatorIcEEE6substrB8ne200100Emm, symObjAddr: 0x55C0, symBinAddr: 0xFFDA0, symSize: 0xD0 }
  - { offset: 0x711935, size: 0x8, addend: 0x0, symName: __ZN18llm_tokenizer_rwkvC2ERK11llama_vocab, symObjAddr: 0x18040, symBinAddr: 0x111550, symSize: 0x150 }
  - { offset: 0x711DFF, size: 0x8, addend: 0x0, symName: __ZN17llm_tokenizer_ugmC2ERK11llama_vocabRKNSt3__16vectorIcNS3_9allocatorIcEEEE, symObjAddr: 0x17AC0, symBinAddr: 0x110FD0, symSize: 0x2D0 }
  - { offset: 0x712811, size: 0x8, addend: 0x0, symName: __ZN17llm_tokenizer_bpeC2ERK11llama_vocab, symObjAddr: 0x16350, symBinAddr: 0x10F860, symSize: 0x12D0 }
  - { offset: 0x718401, size: 0x8, addend: 0x0, symName: __ZN20llm_tokenizer_plamo25buildERK11llama_vocab, symObjAddr: 0x181F0, symBinAddr: 0x111700, symSize: 0x1540 }
  - { offset: 0x71E480, size: 0x8, addend: 0x0, symName: __ZNSt3__113unordered_mapIxiNS_4hashIxEENS_8equal_toIxEENS_9allocatorINS_4pairIKxiEEEEED1B8ne200100Ev, symObjAddr: 0x19730, symBinAddr: 0x112C40, symSize: 0x50 }
  - { offset: 0x71FBA4, size: 0x8, addend: 0x0, symName: __ZNK11llama_vocab4impl22tokenizer_st_partitionERNSt3__112forward_listI23fragment_buffer_variantNS1_9allocatorIS3_EEEEb, symObjAddr: 0x8270, symBinAddr: 0x102990, symSize: 0x790 }
  - { offset: 0x7214B7, size: 0x8, addend: 0x0, symName: __ZN26llm_tokenizer_rwkv_session8tokenizeERKNSt3__112basic_stringIcNS0_11char_traitsIcEENS0_9allocatorIcEEEERNS0_6vectorIiNS4_IiEEEE, symObjAddr: 0xB1D0, symBinAddr: 0x1058F0, symSize: 0x380 }
  - { offset: 0x72219C, size: 0x8, addend: 0x0, symName: __ZNK25llm_tokenizer_bpe_session10append_bosERNSt3__16vectorIiNS0_9allocatorIiEEEE, symObjAddr: 0x8E90, symBinAddr: 0x1035B0, symSize: 0x160 }
  - { offset: 0x722611, size: 0x8, addend: 0x0, symName: __ZNK25llm_tokenizer_bpe_session10append_eosERNSt3__16vectorIiNS0_9allocatorIiEEEE, symObjAddr: 0xA160, symBinAddr: 0x104880, symSize: 0x160 }
  - { offset: 0x722A86, size: 0x8, addend: 0x0, symName: __ZN25llm_tokenizer_bpe_session8tokenizeERKNSt3__112basic_stringIcNS0_11char_traitsIcEENS0_9allocatorIcEEEERNS0_6vectorIiNS4_IiEEEE, symObjAddr: 0x8FF0, symBinAddr: 0x103710, symSize: 0x1170 }
  - { offset: 0x726BBB, size: 0x8, addend: 0x0, symName: __ZNK20llm_tokenizer_plamo26encodeERKNSt3__112basic_stringIcNS0_11char_traitsIcEENS0_9allocatorIcEEEE, symObjAddr: 0x11600, symBinAddr: 0x10B9E0, symSize: 0xB40 }
  - { offset: 0x7290E9, size: 0x8, addend: 0x0, symName: __ZN25llm_tokenizer_wpm_session8tokenizeERKNSt3__112basic_stringIcNS0_11char_traitsIcEENS0_9allocatorIcEEEERNS0_6vectorIiNS4_IiEEEE, symObjAddr: 0xA360, symBinAddr: 0x104A80, symSize: 0x710 }
  - { offset: 0x72AB26, size: 0x8, addend: 0x0, symName: __ZN25llm_tokenizer_ugm_session8tokenizeERKNSt3__112basic_stringIcNS0_11char_traitsIcEENS0_9allocatorIcEEEERNS0_6vectorIiNS4_IiEEEE, symObjAddr: 0xAA70, symBinAddr: 0x105190, symSize: 0x760 }
  - { offset: 0x72BDEA, size: 0x8, addend: 0x0, symName: __ZNSt3__16vectorIiNS_9allocatorIiEEE9push_backB8ne200100ERKi, symObjAddr: 0x7A20, symBinAddr: 0x1021B0, symSize: 0x110 }
  - { offset: 0x72C228, size: 0x8, addend: 0x0, symName: __ZN25llm_tokenizer_spm_session8tokenizeERKNSt3__112basic_stringIcNS0_11char_traitsIcEENS0_9allocatorIcEEEERNS0_6vectorIiNS4_IiEEEE, symObjAddr: 0x8AA0, symBinAddr: 0x1031C0, symSize: 0x3A0 }
  - { offset: 0x72C9A3, size: 0x8, addend: 0x0, symName: __ZNSt3__16__treeINS_12__value_typeINS_12basic_stringIcNS_11char_traitsIcEENS_9allocatorIcEEEENS_4pairIiiEEEENS_19__map_value_compareIS7_SA_NS_4lessIS7_EELb1EEENS5_ISA_EEE7destroyEPNS_11__tree_nodeISA_PvEE, symObjAddr: 0xFB00, symBinAddr: 0x109FD0, symSize: 0x50 }
  - { offset: 0x72CC3A, size: 0x8, addend: 0x0, symName: __ZN25llm_tokenizer_spm_sessionD1Ev, symObjAddr: 0x8E40, symBinAddr: 0x103560, symSize: 0x50 }
  - { offset: 0x72CF8A, size: 0x8, addend: 0x0, symName: __ZN25llm_tokenizer_bpe_sessionD1Ev, symObjAddr: 0xA2C0, symBinAddr: 0x1049E0, symSize: 0xA0 }
  - { offset: 0x72D513, size: 0x8, addend: 0x0, symName: __ZNSt3__112forward_listI23fragment_buffer_variantNS_9allocatorIS1_EEED1Ev, symObjAddr: 0xB550, symBinAddr: 0x105C70, symSize: 0x60 }
  - { offset: 0x72D889, size: 0x8, addend: 0x0, symName: __ZNK11llama_vocab4impl8get_typeEv, symObjAddr: 0x7D40, symBinAddr: 0x102460, symSize: 0x10 }
  - { offset: 0x72D8A9, size: 0x8, addend: 0x0, symName: __ZNK11llama_vocab4impl9type_nameEv, symObjAddr: 0x7D50, symBinAddr: 0x102470, symSize: 0x110 }
  - { offset: 0x72DF40, size: 0x8, addend: 0x0, symName: __ZNK11llama_vocab4impl9is_normalEi, symObjAddr: 0x7E60, symBinAddr: 0x102580, symSize: 0x50 }
  - { offset: 0x72DFA7, size: 0x8, addend: 0x0, symName: __ZNK11llama_vocab4impl10is_unknownEi, symObjAddr: 0x7EB0, symBinAddr: 0x1025D0, symSize: 0x50 }
  - { offset: 0x72E00E, size: 0x8, addend: 0x0, symName: __ZNK11llama_vocab4impl10is_controlEi, symObjAddr: 0x7F00, symBinAddr: 0x102620, symSize: 0x50 }
  - { offset: 0x72E075, size: 0x8, addend: 0x0, symName: __ZNK11llama_vocab4impl7is_byteEi, symObjAddr: 0x7F50, symBinAddr: 0x102670, symSize: 0x50 }
  - { offset: 0x72E0DC, size: 0x8, addend: 0x0, symName: __ZNK11llama_vocab4impl15is_user_definedEi, symObjAddr: 0x7FA0, symBinAddr: 0x1026C0, symSize: 0x50 }
  - { offset: 0x72E143, size: 0x8, addend: 0x0, symName: __ZNK11llama_vocab4impl9is_unusedEi, symObjAddr: 0x7FF0, symBinAddr: 0x102710, symSize: 0x50 }
  - { offset: 0x72E1AA, size: 0x8, addend: 0x0, symName: __ZNK11llama_vocab4impl6is_eogEi, symObjAddr: 0x8040, symBinAddr: 0x102760, symSize: 0x40 }
  - { offset: 0x72E27F, size: 0x8, addend: 0x0, symName: __ZNK11llama_vocab4impl13token_to_byteEi, symObjAddr: 0x8080, symBinAddr: 0x1027A0, symSize: 0x190 }
  - { offset: 0x72E6A7, size: 0x8, addend: 0x0, symName: __ZNK11llama_vocab4impl14token_get_attrEi, symObjAddr: 0x8210, symBinAddr: 0x102930, symSize: 0x60 }
  - { offset: 0x72ED64, size: 0x8, addend: 0x0, symName: __ZNK11llama_vocab14get_token_dataEi, symObjAddr: 0x8A00, symBinAddr: 0x103120, symSize: 0x60 }
  - { offset: 0x72EE0E, size: 0x8, addend: 0x0, symName: __ZNK11llama_vocab14token_to_pieceEiPciib, symObjAddr: 0x8A60, symBinAddr: 0x103180, symSize: 0x10 }
  - { offset: 0x72EEAE, size: 0x8, addend: 0x0, symName: __ZNSt3__112basic_stringIcNS_11char_traitsIcEENS_9allocatorIcEEEpLB8ne200100ERKS5_, symObjAddr: 0x8A70, symBinAddr: 0x103190, symSize: 0x30 }
  - { offset: 0x72F2F0, size: 0x8, addend: 0x0, symName: __ZN25llm_tokenizer_spm_session14try_add_bigramEii, symObjAddr: 0xEA80, symBinAddr: 0x1091A0, symSize: 0x360 }
  - { offset: 0x72FC6F, size: 0x8, addend: 0x0, symName: __ZN25llm_tokenizer_spm_session9resegmentER10llm_symbolRNSt3__16vectorIiNS2_9allocatorIiEEEE, symObjAddr: 0xEDE0, symBinAddr: 0x109500, symSize: 0x450 }
  - { offset: 0x730EAA, size: 0x8, addend: 0x0, symName: __ZNSt3__16vectorI10llm_symbolNS_9allocatorIS1_EEE20__throw_length_errorB8ne200100Ev, symObjAddr: 0xF230, symBinAddr: 0x109950, symSize: 0x10 }
  - { offset: 0x7316CC, size: 0x8, addend: 0x0, symName: __ZN25llm_tokenizer_bpe_session14add_new_bigramEii, symObjAddr: 0xFB50, symBinAddr: 0x10A020, symSize: 0x420 }
  - { offset: 0x732AAD, size: 0x8, addend: 0x0, symName: __ZNSt3__16vectorI10llm_symbolNS_9allocatorIS1_EEE18__assign_with_sizeB8ne200100IPS1_S6_EEvT_T0_l, symObjAddr: 0x10660, symBinAddr: 0x10AB20, symSize: 0x160 }
  - { offset: 0x733765, size: 0x8, addend: 0x0, symName: __ZN25llm_tokenizer_wpm_session10preprocessERKNSt3__112basic_stringIcNS0_11char_traitsIcEENS0_9allocatorIcEEEE, symObjAddr: 0x107C0, symBinAddr: 0x10AC80, symSize: 0x640 }
  - { offset: 0x73586E, size: 0x8, addend: 0x0, symName: __ZN25llm_tokenizer_ugm_session9normalizeERKNSt3__112basic_stringIcNS0_11char_traitsIcEENS0_9allocatorIcEEEEPS6_, symObjAddr: 0x10EE0, symBinAddr: 0x10B2C0, symSize: 0x3F0 }
  - { offset: 0x736047, size: 0x8, addend: 0x0, symName: __ZNSt3__16vectorIN25llm_tokenizer_ugm_session17best_tokenizationENS_9allocatorIS2_EEE20__throw_length_errorB8ne200100Ev, symObjAddr: 0x115F0, symBinAddr: 0x10B9D0, symSize: 0x10 }
  - { offset: 0x73605F, size: 0x8, addend: 0x0, symName: __ZNK20llm_tokenizer_plamo26encodeERKNSt3__112basic_stringIcNS0_11char_traitsIcEENS0_9allocatorIcEEEE, symObjAddr: 0x11600, symBinAddr: 0x10B9E0, symSize: 0xB40 }
  - { offset: 0x736247, size: 0x8, addend: 0x0, symName: __ZNK11llama_vocab7is_byteEi, symObjAddr: 0xC3E0, symBinAddr: 0x106B00, symSize: 0x50 }
  - { offset: 0x736274, size: 0x8, addend: 0x0, symName: __ZNK11llama_vocab7is_byteEi, symObjAddr: 0xC3E0, symBinAddr: 0x106B00, symSize: 0x50 }
  - { offset: 0x7362E2, size: 0x8, addend: 0x0, symName: __ZL25llama_unescape_rwkv_tokenRKNSt3__112basic_stringIcNS_11char_traitsIcEENS_9allocatorIcEEEE, symObjAddr: 0xBEA0, symBinAddr: 0x1065C0, symSize: 0x540 }
  - { offset: 0x737903, size: 0x8, addend: 0x0, symName: __ZL17llama_decode_textRKNSt3__112basic_stringIcNS_11char_traitsIcEENS_9allocatorIcEEEE, symObjAddr: 0xBC60, symBinAddr: 0x106380, symSize: 0x240 }
  - { offset: 0x738424, size: 0x8, addend: 0x0, symName: '__ZZNK11llama_vocab4impl14token_to_pieceEiPciibENK3$_0clEPKcm', symObjAddr: 0xBB30, symBinAddr: 0x106250, symSize: 0x90 }
  - { offset: 0x738485, size: 0x8, addend: 0x0, symName: __ZL25llama_unescape_whitespaceRNSt3__112basic_stringIcNS_11char_traitsIcEENS_9allocatorIcEEEE, symObjAddr: 0xBBC0, symBinAddr: 0x1062E0, symSize: 0xA0 }
  - { offset: 0x738A15, size: 0x8, addend: 0x0, symName: __ZNSt3__16vectorINS_12basic_stringIcNS_11char_traitsIcEENS_9allocatorIcEEEENS4_IS6_EEE20__throw_out_of_rangeB8ne200100Ev, symObjAddr: 0x1D500, symBinAddr: 0x116640, symSize: 0x10 }
  - { offset: 0x738A2D, size: 0x8, addend: 0x0, symName: __ZN11llama_vocab4implD2Ev, symObjAddr: 0x1D510, symBinAddr: 0x116650, symSize: 0x210 }
  - { offset: 0x739120, size: 0x8, addend: 0x0, symName: __ZNK11llama_vocab4impl14token_to_pieceEi, symObjAddr: 0xC430, symBinAddr: 0x106B50, symSize: 0x40 }
  - { offset: 0x739198, size: 0x8, addend: 0x0, symName: __ZNK11llama_vocab4impl10detokenizeEPKiiPcibb, symObjAddr: 0xC470, symBinAddr: 0x106B90, symSize: 0x440 }
  - { offset: 0x7394AD, size: 0x8, addend: 0x0, symName: __ZNK11llama_vocab4impl10print_infoEv, symObjAddr: 0xC8B0, symBinAddr: 0x106FD0, symSize: 0x7D0 }
  - { offset: 0x73B157, size: 0x8, addend: 0x0, symName: __ZNK11llama_vocab8n_tokensEv, symObjAddr: 0xD080, symBinAddr: 0x1077A0, symSize: 0x20 }
  - { offset: 0x73B430, size: 0x8, addend: 0x0, symName: __ZN11llama_vocabC2Ev, symObjAddr: 0xD0A0, symBinAddr: 0x1077C0, symSize: 0x110 }
  - { offset: 0x73B783, size: 0x8, addend: 0x0, symName: __ZN11llama_vocabC1Ev, symObjAddr: 0xD1B0, symBinAddr: 0x1078D0, symSize: 0x110 }
  - { offset: 0x73BB7F, size: 0x8, addend: 0x0, symName: __ZN11llama_vocabD2Ev, symObjAddr: 0xD2C0, symBinAddr: 0x1079E0, symSize: 0x40 }
  - { offset: 0x73BC5D, size: 0x8, addend: 0x0, symName: __ZN11llama_vocab4implD2Ev, symObjAddr: 0x1D510, symBinAddr: 0x116650, symSize: 0x210 }
  - { offset: 0x73D050, size: 0x8, addend: 0x0, symName: __ZN11llama_vocabD1Ev, symObjAddr: 0xD300, symBinAddr: 0x107A20, symSize: 0x40 }
  - { offset: 0x73D159, size: 0x8, addend: 0x0, symName: __ZN11llama_vocab4loadER18llama_model_loaderRK6LLM_KV, symObjAddr: 0xD340, symBinAddr: 0x107A60, symSize: 0x10 }
  - { offset: 0x73D1DB, size: 0x8, addend: 0x0, symName: __ZNK11llama_vocab19get_tokenizer_modelEv, symObjAddr: 0xD350, symBinAddr: 0x107A70, symSize: 0x40 }
  - { offset: 0x73D207, size: 0x8, addend: 0x0, symName: __ZNK11llama_vocab19get_tokenizer_modelEv, symObjAddr: 0xD350, symBinAddr: 0x107A70, symSize: 0x40 }
  - { offset: 0x73D296, size: 0x8, addend: 0x0, symName: __ZNK11llama_vocab17get_tokenizer_preEv, symObjAddr: 0xD390, symBinAddr: 0x107AB0, symSize: 0x40 }
  - { offset: 0x73D2C2, size: 0x8, addend: 0x0, symName: __ZNK11llama_vocab17get_tokenizer_preEv, symObjAddr: 0xD390, symBinAddr: 0x107AB0, symSize: 0x40 }
  - { offset: 0x73D351, size: 0x8, addend: 0x0, symName: __ZNK11llama_vocab8get_typeEv, symObjAddr: 0xD3D0, symBinAddr: 0x107AF0, symSize: 0x10 }
  - { offset: 0x73D38E, size: 0x8, addend: 0x0, symName: __ZNK11llama_vocab12get_pre_typeEv, symObjAddr: 0xD3E0, symBinAddr: 0x107B00, symSize: 0x10 }
  - { offset: 0x73D3CB, size: 0x8, addend: 0x0, symName: __ZNK11llama_vocab13n_token_typesEv, symObjAddr: 0xD3F0, symBinAddr: 0x107B10, symSize: 0x10 }
  - { offset: 0x73D410, size: 0x8, addend: 0x0, symName: __ZNK11llama_vocab9type_nameEv, symObjAddr: 0xD400, symBinAddr: 0x107B20, symSize: 0x110 }
  - { offset: 0x73DAE5, size: 0x8, addend: 0x0, symName: __ZNK11llama_vocab9is_normalEi, symObjAddr: 0xD510, symBinAddr: 0x107C30, symSize: 0x50 }
  - { offset: 0x73DB12, size: 0x8, addend: 0x0, symName: __ZNK11llama_vocab9is_normalEi, symObjAddr: 0xD510, symBinAddr: 0x107C30, symSize: 0x50 }
  - { offset: 0x73DBA4, size: 0x8, addend: 0x0, symName: __ZNK11llama_vocab10is_unknownEi, symObjAddr: 0xD560, symBinAddr: 0x107C80, symSize: 0x50 }
  - { offset: 0x73DBE0, size: 0x8, addend: 0x0, symName: __ZNK11llama_vocab10is_unknownEi, symObjAddr: 0xD560, symBinAddr: 0x107C80, symSize: 0x50 }
  - { offset: 0x73DC72, size: 0x8, addend: 0x0, symName: __ZNK11llama_vocab10is_controlEi, symObjAddr: 0xD5B0, symBinAddr: 0x107CD0, symSize: 0x50 }
  - { offset: 0x73DC9F, size: 0x8, addend: 0x0, symName: __ZNK11llama_vocab10is_controlEi, symObjAddr: 0xD5B0, symBinAddr: 0x107CD0, symSize: 0x50 }
  - { offset: 0x73DD0D, size: 0x8, addend: 0x0, symName: __ZNK11llama_vocab15is_user_definedEi, symObjAddr: 0xD600, symBinAddr: 0x107D20, symSize: 0x50 }
  - { offset: 0x73DD3A, size: 0x8, addend: 0x0, symName: __ZNK11llama_vocab15is_user_definedEi, symObjAddr: 0xD600, symBinAddr: 0x107D20, symSize: 0x50 }
  - { offset: 0x73DDCC, size: 0x8, addend: 0x0, symName: __ZNK11llama_vocab9is_unusedEi, symObjAddr: 0xD650, symBinAddr: 0x107D70, symSize: 0x50 }
  - { offset: 0x73DE08, size: 0x8, addend: 0x0, symName: __ZNK11llama_vocab9is_unusedEi, symObjAddr: 0xD650, symBinAddr: 0x107D70, symSize: 0x50 }
  - { offset: 0x73DE9A, size: 0x8, addend: 0x0, symName: __ZNK11llama_vocab6is_eogEi, symObjAddr: 0xD6A0, symBinAddr: 0x107DC0, symSize: 0x40 }
  - { offset: 0x73DF5F, size: 0x8, addend: 0x0, symName: __ZNK11llama_vocab13token_to_byteEi, symObjAddr: 0xD6E0, symBinAddr: 0x107E00, symSize: 0x10 }
  - { offset: 0x73DFCB, size: 0x8, addend: 0x0, symName: __ZNK11llama_vocab13text_to_tokenERKNSt3__112basic_stringIcNS0_11char_traitsIcEENS0_9allocatorIcEEEE, symObjAddr: 0xD6F0, symBinAddr: 0x107E10, symSize: 0x50 }
  - { offset: 0x73E0A4, size: 0x8, addend: 0x0, symName: __ZNK11llama_vocab14token_get_textEi, symObjAddr: 0xD740, symBinAddr: 0x107E60, symSize: 0x70 }
  - { offset: 0x73E1EA, size: 0x8, addend: 0x0, symName: __ZNK11llama_vocab15token_get_scoreEi, symObjAddr: 0xD7B0, symBinAddr: 0x107ED0, symSize: 0x60 }
  - { offset: 0x73E294, size: 0x8, addend: 0x0, symName: __ZNK11llama_vocab14token_get_attrEi, symObjAddr: 0xD810, symBinAddr: 0x107F30, symSize: 0x60 }
  - { offset: 0x73E355, size: 0x8, addend: 0x0, symName: __ZNK11llama_vocab9token_bosEv, symObjAddr: 0xD870, symBinAddr: 0x107F90, symSize: 0x10 }
  - { offset: 0x73E392, size: 0x8, addend: 0x0, symName: __ZNK11llama_vocab9token_eosEv, symObjAddr: 0xD880, symBinAddr: 0x107FA0, symSize: 0x10 }
  - { offset: 0x73E3CF, size: 0x8, addend: 0x0, symName: __ZNK11llama_vocab9token_eotEv, symObjAddr: 0xD890, symBinAddr: 0x107FB0, symSize: 0x10 }
  - { offset: 0x73E40C, size: 0x8, addend: 0x0, symName: __ZNK11llama_vocab9token_eomEv, symObjAddr: 0xD8A0, symBinAddr: 0x107FC0, symSize: 0x10 }
  - { offset: 0x73E451, size: 0x8, addend: 0x0, symName: __ZNK11llama_vocab9token_unkEv, symObjAddr: 0xD8B0, symBinAddr: 0x107FD0, symSize: 0x10 }
  - { offset: 0x73E48E, size: 0x8, addend: 0x0, symName: __ZNK11llama_vocab9token_sepEv, symObjAddr: 0xD8C0, symBinAddr: 0x107FE0, symSize: 0x10 }
  - { offset: 0x73E4CB, size: 0x8, addend: 0x0, symName: __ZNK11llama_vocab8token_nlEv, symObjAddr: 0xD8D0, symBinAddr: 0x107FF0, symSize: 0x10 }
  - { offset: 0x73E508, size: 0x8, addend: 0x0, symName: __ZNK11llama_vocab9token_padEv, symObjAddr: 0xD8E0, symBinAddr: 0x108000, symSize: 0x10 }
  - { offset: 0x73E545, size: 0x8, addend: 0x0, symName: __ZNK11llama_vocab12token_prefixEv, symObjAddr: 0xD8F0, symBinAddr: 0x108010, symSize: 0x10 }
  - { offset: 0x73E58A, size: 0x8, addend: 0x0, symName: __ZNK11llama_vocab12token_middleEv, symObjAddr: 0xD900, symBinAddr: 0x108020, symSize: 0x10 }
  - { offset: 0x73E5CF, size: 0x8, addend: 0x0, symName: __ZNK11llama_vocab12token_suffixEv, symObjAddr: 0xD910, symBinAddr: 0x108030, symSize: 0x10 }
  - { offset: 0x73E614, size: 0x8, addend: 0x0, symName: __ZNK11llama_vocab13token_fim_preEv, symObjAddr: 0xD920, symBinAddr: 0x108040, symSize: 0x10 }
  - { offset: 0x73E651, size: 0x8, addend: 0x0, symName: __ZNK11llama_vocab13token_fim_sufEv, symObjAddr: 0xD930, symBinAddr: 0x108050, symSize: 0x10 }
  - { offset: 0x73E68E, size: 0x8, addend: 0x0, symName: __ZNK11llama_vocab13token_fim_midEv, symObjAddr: 0xD940, symBinAddr: 0x108060, symSize: 0x10 }
  - { offset: 0x73E6CB, size: 0x8, addend: 0x0, symName: __ZNK11llama_vocab13token_fim_padEv, symObjAddr: 0xD950, symBinAddr: 0x108070, symSize: 0x10 }
  - { offset: 0x73E708, size: 0x8, addend: 0x0, symName: __ZNK11llama_vocab13token_fim_repEv, symObjAddr: 0xD960, symBinAddr: 0x108080, symSize: 0x10 }
  - { offset: 0x73E745, size: 0x8, addend: 0x0, symName: __ZNK11llama_vocab13token_fim_sepEv, symObjAddr: 0xD970, symBinAddr: 0x108090, symSize: 0x10 }
  - { offset: 0x73E782, size: 0x8, addend: 0x0, symName: __ZNK11llama_vocab10token_maskEv, symObjAddr: 0xD980, symBinAddr: 0x1080A0, symSize: 0x10 }
  - { offset: 0x73E7BF, size: 0x8, addend: 0x0, symName: __ZNK11llama_vocab20get_add_space_prefixEv, symObjAddr: 0xD990, symBinAddr: 0x1080B0, symSize: 0x10 }
  - { offset: 0x73E804, size: 0x8, addend: 0x0, symName: __ZNK11llama_vocab11get_add_bosEv, symObjAddr: 0xD9A0, symBinAddr: 0x1080C0, symSize: 0x10 }
  - { offset: 0x73E841, size: 0x8, addend: 0x0, symName: __ZNK11llama_vocab11get_add_eosEv, symObjAddr: 0xD9B0, symBinAddr: 0x1080D0, symSize: 0x10 }
  - { offset: 0x73E87E, size: 0x8, addend: 0x0, symName: __ZNK11llama_vocab11get_add_sepEv, symObjAddr: 0xD9C0, symBinAddr: 0x1080E0, symSize: 0x10 }
  - { offset: 0x73E8BB, size: 0x8, addend: 0x0, symName: __ZNK11llama_vocab17get_ignore_mergesEv, symObjAddr: 0xD9D0, symBinAddr: 0x1080F0, symSize: 0x10 }
  - { offset: 0x73E8F8, size: 0x8, addend: 0x0, symName: __ZNK11llama_vocab16get_clean_spacesEv, symObjAddr: 0xD9E0, symBinAddr: 0x108100, symSize: 0x10 }
  - { offset: 0x73E93D, size: 0x8, addend: 0x0, symName: __ZNK11llama_vocab28get_remove_extra_whitespacesEv, symObjAddr: 0xD9F0, symBinAddr: 0x108110, symSize: 0x10 }
  - { offset: 0x73E982, size: 0x8, addend: 0x0, symName: __ZNK11llama_vocab22get_escape_whitespacesEv, symObjAddr: 0xDA00, symBinAddr: 0x108120, symSize: 0x10 }
  - { offset: 0x73E9BF, size: 0x8, addend: 0x0, symName: __ZNK11llama_vocab30get_treat_whitespace_as_suffixEv, symObjAddr: 0xDA10, symBinAddr: 0x108130, symSize: 0x10 }
  - { offset: 0x73E9FC, size: 0x8, addend: 0x0, symName: __ZNK11llama_vocab13max_token_lenEv, symObjAddr: 0xDA20, symBinAddr: 0x108140, symSize: 0x10 }
  - { offset: 0x73EAE7, size: 0x8, addend: 0x0, symName: __ZNK11llama_vocab13find_bpe_rankERKNSt3__112basic_stringIcNS0_11char_traitsIcEENS0_9allocatorIcEEEES8_, symObjAddr: 0xDA30, symBinAddr: 0x108150, symSize: 0x1F0 }
  - { offset: 0x73F076, size: 0x8, addend: 0x0, symName: __ZNSt3__112__hash_tableINS_17__hash_value_typeINS_4pairINS_12basic_stringIcNS_11char_traitsIcEENS_9allocatorIcEEEES8_EEiEENS_22__unordered_map_hasherIS9_SA_N11llama_vocab4impl9pair_hashENS_8equal_toIS9_EELb1EEENS_21__unordered_map_equalIS9_SA_SG_SE_Lb1EEENS6_ISA_EEE4findIS9_EENS_15__hash_iteratorIPNS_11__hash_nodeISA_PvEEEERKT_, symObjAddr: 0x1D720, symBinAddr: 0x116860, symSize: 0x1F0 }
  - { offset: 0x73F3E0, size: 0x8, addend: 0x0, symName: __ZNK11llama_vocab14get_bpe_mergesEv, symObjAddr: 0xDC20, symBinAddr: 0x108340, symSize: 0x2E0 }
  - { offset: 0x7400F7, size: 0x8, addend: 0x0, symName: __ZNK11llama_vocab24get_precompiled_charsmapEv, symObjAddr: 0xE010, symBinAddr: 0x108730, symSize: 0x70 }
  - { offset: 0x740486, size: 0x8, addend: 0x0, symName: __ZNK11llama_vocab8tokenizeEPKciPiibb, symObjAddr: 0xE080, symBinAddr: 0x1087A0, symSize: 0x240 }
  - { offset: 0x740BC5, size: 0x8, addend: 0x0, symName: __ZNK11llama_vocab8tokenizeERKNSt3__112basic_stringIcNS0_11char_traitsIcEENS0_9allocatorIcEEEEbb, symObjAddr: 0xE2C0, symBinAddr: 0x1089E0, symSize: 0x20 }
  - { offset: 0x740C6D, size: 0x8, addend: 0x0, symName: __ZNK11llama_vocab14token_to_pieceEi, symObjAddr: 0xE2E0, symBinAddr: 0x108A00, symSize: 0x40 }
  - { offset: 0x740CA9, size: 0x8, addend: 0x0, symName: __ZNK11llama_vocab14token_to_pieceEi, symObjAddr: 0xE2E0, symBinAddr: 0x108A00, symSize: 0x40 }
  - { offset: 0x740D26, size: 0x8, addend: 0x0, symName: __ZNK11llama_vocab10detokenizeEPKiiPcibb, symObjAddr: 0xE320, symBinAddr: 0x108A40, symSize: 0x10 }
  - { offset: 0x740D31, size: 0x8, addend: 0x0, symName: __ZNK11llama_vocab10detokenizeEPKiiPcibb, symObjAddr: 0xE320, symBinAddr: 0x108A40, symSize: 0x10 }
  - { offset: 0x740E4E, size: 0x8, addend: 0x0, symName: __ZNK11llama_vocab10detokenizeERKNSt3__16vectorIiNS0_9allocatorIiEEEEb, symObjAddr: 0xE330, symBinAddr: 0x108A50, symSize: 0x140 }
  - { offset: 0x7412D0, size: 0x8, addend: 0x0, symName: __ZNK11llama_vocab10print_infoEv, symObjAddr: 0xE470, symBinAddr: 0x108B90, symSize: 0x10 }
  - { offset: 0x741325, size: 0x8, addend: 0x0, symName: _llama_vocab_n_tokens, symObjAddr: 0xE480, symBinAddr: 0x108BA0, symSize: 0x20 }
  - { offset: 0x7413B6, size: 0x8, addend: 0x0, symName: _llama_n_vocab, symObjAddr: 0xE4A0, symBinAddr: 0x108BC0, symSize: 0x20 }
  - { offset: 0x741458, size: 0x8, addend: 0x0, symName: _llama_vocab_type, symObjAddr: 0xE4C0, symBinAddr: 0x108BE0, symSize: 0x10 }
  - { offset: 0x7414E2, size: 0x8, addend: 0x0, symName: _llama_vocab_get_text, symObjAddr: 0xE4D0, symBinAddr: 0x108BF0, symSize: 0x70 }
  - { offset: 0x741669, size: 0x8, addend: 0x0, symName: _llama_vocab_get_score, symObjAddr: 0xE540, symBinAddr: 0x108C60, symSize: 0x60 }
  - { offset: 0x741754, size: 0x8, addend: 0x0, symName: _llama_vocab_get_attr, symObjAddr: 0xE5A0, symBinAddr: 0x108CC0, symSize: 0x60 }
  - { offset: 0x741856, size: 0x8, addend: 0x0, symName: _llama_vocab_is_eog, symObjAddr: 0xE600, symBinAddr: 0x108D20, symSize: 0x40 }
  - { offset: 0x74187B, size: 0x8, addend: 0x0, symName: _llama_vocab_is_eog, symObjAddr: 0xE600, symBinAddr: 0x108D20, symSize: 0x40 }
  - { offset: 0x741960, size: 0x8, addend: 0x0, symName: _llama_vocab_is_control, symObjAddr: 0xE640, symBinAddr: 0x108D60, symSize: 0x50 }
  - { offset: 0x7419A8, size: 0x8, addend: 0x0, symName: _llama_vocab_is_control, symObjAddr: 0xE640, symBinAddr: 0x108D60, symSize: 0x50 }
  - { offset: 0x741A17, size: 0x8, addend: 0x0, symName: _llama_vocab_bos, symObjAddr: 0xE690, symBinAddr: 0x108DB0, symSize: 0x10 }
  - { offset: 0x741A6D, size: 0x8, addend: 0x0, symName: _llama_vocab_eos, symObjAddr: 0xE6A0, symBinAddr: 0x108DC0, symSize: 0x10 }
  - { offset: 0x741ADC, size: 0x8, addend: 0x0, symName: _llama_vocab_eot, symObjAddr: 0xE6B0, symBinAddr: 0x108DD0, symSize: 0x10 }
  - { offset: 0x741B32, size: 0x8, addend: 0x0, symName: _llama_vocab_cls, symObjAddr: 0xE6C0, symBinAddr: 0x108DE0, symSize: 0x10 }
  - { offset: 0x741BB0, size: 0x8, addend: 0x0, symName: _llama_vocab_sep, symObjAddr: 0xE6D0, symBinAddr: 0x108DF0, symSize: 0x10 }
  - { offset: 0x741C1F, size: 0x8, addend: 0x0, symName: _llama_vocab_nl, symObjAddr: 0xE6E0, symBinAddr: 0x108E00, symSize: 0x10 }
  - { offset: 0x741C8E, size: 0x8, addend: 0x0, symName: _llama_vocab_pad, symObjAddr: 0xE6F0, symBinAddr: 0x108E10, symSize: 0x10 }
  - { offset: 0x741CE4, size: 0x8, addend: 0x0, symName: _llama_vocab_get_add_bos, symObjAddr: 0xE700, symBinAddr: 0x108E20, symSize: 0x10 }
  - { offset: 0x741D3A, size: 0x8, addend: 0x0, symName: _llama_vocab_get_add_eos, symObjAddr: 0xE710, symBinAddr: 0x108E30, symSize: 0x10 }
  - { offset: 0x741DA9, size: 0x8, addend: 0x0, symName: _llama_vocab_get_add_sep, symObjAddr: 0xE720, symBinAddr: 0x108E40, symSize: 0x10 }
  - { offset: 0x741E27, size: 0x8, addend: 0x0, symName: _llama_vocab_fim_pre, symObjAddr: 0xE730, symBinAddr: 0x108E50, symSize: 0x10 }
  - { offset: 0x741E96, size: 0x8, addend: 0x0, symName: _llama_vocab_fim_suf, symObjAddr: 0xE740, symBinAddr: 0x108E60, symSize: 0x10 }
  - { offset: 0x741F05, size: 0x8, addend: 0x0, symName: _llama_vocab_fim_mid, symObjAddr: 0xE750, symBinAddr: 0x108E70, symSize: 0x10 }
  - { offset: 0x741F74, size: 0x8, addend: 0x0, symName: _llama_vocab_fim_pad, symObjAddr: 0xE760, symBinAddr: 0x108E80, symSize: 0x10 }
  - { offset: 0x741FE3, size: 0x8, addend: 0x0, symName: _llama_vocab_fim_rep, symObjAddr: 0xE770, symBinAddr: 0x108E90, symSize: 0x10 }
  - { offset: 0x742052, size: 0x8, addend: 0x0, symName: _llama_vocab_fim_sep, symObjAddr: 0xE780, symBinAddr: 0x108EA0, symSize: 0x10 }
  - { offset: 0x7420C1, size: 0x8, addend: 0x0, symName: _llama_vocab_mask, symObjAddr: 0xE790, symBinAddr: 0x108EB0, symSize: 0x10 }
  - { offset: 0x74214D, size: 0x8, addend: 0x0, symName: _llama_token_get_text, symObjAddr: 0xE7A0, symBinAddr: 0x108EC0, symSize: 0x70 }
  - { offset: 0x74230B, size: 0x8, addend: 0x0, symName: _llama_token_get_score, symObjAddr: 0xE810, symBinAddr: 0x108F30, symSize: 0x60 }
  - { offset: 0x74242D, size: 0x8, addend: 0x0, symName: _llama_token_get_attr, symObjAddr: 0xE870, symBinAddr: 0x108F90, symSize: 0x60 }
  - { offset: 0x742566, size: 0x8, addend: 0x0, symName: _llama_token_is_eog, symObjAddr: 0xE8D0, symBinAddr: 0x108FF0, symSize: 0x40 }
  - { offset: 0x7425A2, size: 0x8, addend: 0x0, symName: _llama_token_is_eog, symObjAddr: 0xE8D0, symBinAddr: 0x108FF0, symSize: 0x40 }
  - { offset: 0x7425C5, size: 0x8, addend: 0x0, symName: _llama_token_is_eog, symObjAddr: 0xE8D0, symBinAddr: 0x108FF0, symSize: 0x40 }
  - { offset: 0x7426AD, size: 0x8, addend: 0x0, symName: _llama_token_is_control, symObjAddr: 0xE910, symBinAddr: 0x109030, symSize: 0x50 }
  - { offset: 0x742729, size: 0x8, addend: 0x0, symName: _llama_token_is_control, symObjAddr: 0xE910, symBinAddr: 0x109030, symSize: 0x50 }
  - { offset: 0x7427B4, size: 0x8, addend: 0x0, symName: _llama_token_bos, symObjAddr: 0xE960, symBinAddr: 0x109080, symSize: 0x10 }
  - { offset: 0x742851, size: 0x8, addend: 0x0, symName: _llama_token_eos, symObjAddr: 0xE970, symBinAddr: 0x109090, symSize: 0x10 }
  - { offset: 0x7428EE, size: 0x8, addend: 0x0, symName: _llama_token_eot, symObjAddr: 0xE980, symBinAddr: 0x1090A0, symSize: 0x10 }
  - { offset: 0x742970, size: 0x8, addend: 0x0, symName: _llama_token_cls, symObjAddr: 0xE990, symBinAddr: 0x1090B0, symSize: 0x10 }
  - { offset: 0x742A0D, size: 0x8, addend: 0x0, symName: _llama_token_sep, symObjAddr: 0xE9A0, symBinAddr: 0x1090C0, symSize: 0x10 }
  - { offset: 0x742AAA, size: 0x8, addend: 0x0, symName: _llama_token_nl, symObjAddr: 0xE9B0, symBinAddr: 0x1090D0, symSize: 0x10 }
  - { offset: 0x742B47, size: 0x8, addend: 0x0, symName: _llama_token_pad, symObjAddr: 0xE9C0, symBinAddr: 0x1090E0, symSize: 0x10 }
  - { offset: 0x742BE4, size: 0x8, addend: 0x0, symName: _llama_add_bos_token, symObjAddr: 0xE9D0, symBinAddr: 0x1090F0, symSize: 0x10 }
  - { offset: 0x742C81, size: 0x8, addend: 0x0, symName: _llama_add_eos_token, symObjAddr: 0xE9E0, symBinAddr: 0x109100, symSize: 0x10 }
  - { offset: 0x742D1E, size: 0x8, addend: 0x0, symName: _llama_token_fim_pre, symObjAddr: 0xE9F0, symBinAddr: 0x109110, symSize: 0x10 }
  - { offset: 0x742DBB, size: 0x8, addend: 0x0, symName: _llama_token_fim_suf, symObjAddr: 0xEA00, symBinAddr: 0x109120, symSize: 0x10 }
  - { offset: 0x742E58, size: 0x8, addend: 0x0, symName: _llama_token_fim_mid, symObjAddr: 0xEA10, symBinAddr: 0x109130, symSize: 0x10 }
  - { offset: 0x742EF5, size: 0x8, addend: 0x0, symName: _llama_token_fim_pad, symObjAddr: 0xEA20, symBinAddr: 0x109140, symSize: 0x10 }
  - { offset: 0x742F92, size: 0x8, addend: 0x0, symName: _llama_token_fim_rep, symObjAddr: 0xEA30, symBinAddr: 0x109150, symSize: 0x10 }
  - { offset: 0x74302F, size: 0x8, addend: 0x0, symName: _llama_token_fim_sep, symObjAddr: 0xEA40, symBinAddr: 0x109160, symSize: 0x10 }
  - { offset: 0x7430B1, size: 0x8, addend: 0x0, symName: _llama_tokenize, symObjAddr: 0xEA50, symBinAddr: 0x109170, symSize: 0x10 }
  - { offset: 0x743178, size: 0x8, addend: 0x0, symName: _llama_token_to_piece, symObjAddr: 0xEA60, symBinAddr: 0x109180, symSize: 0x10 }
  - { offset: 0x743298, size: 0x8, addend: 0x0, symName: _llama_detokenize, symObjAddr: 0xEA70, symBinAddr: 0x109190, symSize: 0x10 }
  - { offset: 0x74350C, size: 0x8, addend: 0x0, symName: __ZNSt3__16vectorI14llm_bigram_spmNS_9allocatorIS1_EEE9push_backB8ne200100ERKS1_, symObjAddr: 0xF300, symBinAddr: 0x109960, symSize: 0x140 }
  - { offset: 0x743918, size: 0x8, addend: 0x0, symName: __ZNSt3__16__treeINS_12__value_typeINS_12basic_stringIcNS_11char_traitsIcEENS_9allocatorIcEEEENS_4pairIiiEEEENS_19__map_value_compareIS7_SA_NS_4lessIS7_EELb1EEENS5_ISA_EEE25__emplace_unique_key_argsIS7_JRKNS_21piecewise_construct_tENS_5tupleIJRKS7_EEENSL_IJEEEEEENS8_INS_15__tree_iteratorISA_PNS_11__tree_nodeISA_PvEElEEbEERKT_DpOT0_, symObjAddr: 0xF450, symBinAddr: 0x109AB0, symSize: 0x1D0 }
  - { offset: 0x7440F9, size: 0x8, addend: 0x0, symName: __ZNSt3__16__treeINS_12__value_typeINS_12basic_stringIcNS_11char_traitsIcEENS_9allocatorIcEEEENS_4pairIiiEEEENS_19__map_value_compareIS7_SA_NS_4lessIS7_EELb1EEENS5_ISA_EEE4findIS7_EENS_15__tree_iteratorISA_PNS_11__tree_nodeISA_PvEElEERKT_, symObjAddr: 0xF9E0, symBinAddr: 0x109EC0, symSize: 0x110 }
  - { offset: 0x744799, size: 0x8, addend: 0x0, symName: __ZNSt3__16vectorI14llm_bigram_spmNS_9allocatorIS1_EEE20__throw_length_errorB8ne200100Ev, symObjAddr: 0xF440, symBinAddr: 0x109AA0, symSize: 0x10 }
  - { offset: 0x7447B1, size: 0x8, addend: 0x0, symName: __ZNSt3__16__treeINS_12__value_typeINS_12basic_stringIcNS_11char_traitsIcEENS_9allocatorIcEEEENS_4pairIiiEEEENS_19__map_value_compareIS7_SA_NS_4lessIS7_EELb1EEENS5_ISA_EEE25__emplace_unique_key_argsIS7_JRKNS_21piecewise_construct_tENS_5tupleIJRKS7_EEENSL_IJEEEEEENS8_INS_15__tree_iteratorISA_PNS_11__tree_nodeISA_PvEElEEbEERKT_DpOT0_, symObjAddr: 0xF450, symBinAddr: 0x109AB0, symSize: 0x1D0 }
  - { offset: 0x744D2F, size: 0x8, addend: 0x0, symName: __ZNSt3__110unique_ptrINS_11__tree_nodeINS_12__value_typeINS_12basic_stringIcNS_11char_traitsIcEENS_9allocatorIcEEEENS_4pairIiiEEEEPvEENS_22__tree_node_destructorINS6_ISD_EEEEED1B8ne200100Ev, symObjAddr: 0xF620, symBinAddr: 0x109C80, symSize: 0x50 }
  - { offset: 0x7453BD, size: 0x8, addend: 0x0, symName: __ZNSt3__16vectorI14llm_bigram_bpeNS_9allocatorIS1_EEE24__emplace_back_slow_pathIJRKS1_EEEPS1_DpOT_, symObjAddr: 0xFF70, symBinAddr: 0x10A440, symSize: 0x230 }
  - { offset: 0x745D26, size: 0x8, addend: 0x0, symName: __ZNSt3__16vectorI14llm_bigram_bpeNS_9allocatorIS1_EEE20__throw_length_errorB8ne200100Ev, symObjAddr: 0x10200, symBinAddr: 0x10A6D0, symSize: 0x10 }
  - { offset: 0x745D3E, size: 0x8, addend: 0x0, symName: __ZNSt3__19__sift_upB8ne200100INS_17_ClassicAlgPolicyERN14llm_bigram_bpe10comparatorENS_11__wrap_iterIPS2_EEEEvT1_S8_OT0_NS_15iterator_traitsIS8_E15difference_typeE, symObjAddr: 0x10210, symBinAddr: 0x10A6E0, symSize: 0x1A0 }
  - { offset: 0x745D49, size: 0x8, addend: 0x0, symName: __ZNSt3__114__split_bufferI14llm_bigram_bpeRNS_9allocatorIS1_EEED1Ev, symObjAddr: 0x101A0, symBinAddr: 0x10A670, symSize: 0x60 }
  - { offset: 0x746946, size: 0x8, addend: 0x0, symName: __ZN25llm_tokenizer_ugm_session16normalize_prefixERKNSt3__112basic_stringIcNS0_11char_traitsIcEENS0_9allocatorIcEEEEm, symObjAddr: 0x112D0, symBinAddr: 0x10B6B0, symSize: 0x320 }
  - { offset: 0x7477BD, size: 0x8, addend: 0x0, symName: __ZNSt3__16vectorINS0_IiNS_9allocatorIiEEEENS1_IS3_EEEC2B8ne200100EmRKS3_, symObjAddr: 0x121C0, symBinAddr: 0x10C520, symSize: 0x190 }
  - { offset: 0x747E56, size: 0x8, addend: 0x0, symName: __ZNSt3__16vectorINS0_IiNS_9allocatorIiEEEENS1_IS3_EEEC2B8ne200100EmRKS3_, symObjAddr: 0x121C0, symBinAddr: 0x10C520, symSize: 0x190 }
  - { offset: 0x74817D, size: 0x8, addend: 0x0, symName: __ZNSt3__16vectorINS0_IiNS_9allocatorIiEEEENS1_IS3_EEE20__throw_length_errorB8ne200100Ev, symObjAddr: 0x123C0, symBinAddr: 0x10C6B0, symSize: 0x10 }
  - { offset: 0x74929F, size: 0x8, addend: 0x0, symName: __ZNSt3__112__hash_tableINS_17__hash_value_typeINS_12basic_stringIcNS_11char_traitsIcEENS_9allocatorIcEEEEiEENS_22__unordered_map_hasherIS7_S8_NS_4hashIS7_EENS_8equal_toIS7_EELb1EEENS_21__unordered_map_equalIS7_S8_SD_SB_Lb1EEENS5_IS8_EEE11__do_rehashILb1EEEvm, symObjAddr: 0x133E0, symBinAddr: 0x10CCC0, symSize: 0x1B0 }
  - { offset: 0x74965B, size: 0x8, addend: 0x0, symName: __ZNSt3__110unique_ptrINS_11__hash_nodeINS_17__hash_value_typeINS_12basic_stringIcNS_11char_traitsIcEENS_9allocatorIcEEEEiEEPvEENS_22__hash_node_destructorINS6_ISB_EEEEED1B8ne200100Ev, symObjAddr: 0x12EE0, symBinAddr: 0x10CC70, symSize: 0x50 }
  - { offset: 0x74A1D1, size: 0x8, addend: 0x0, symName: __ZNSt3__16vectorIN11llama_vocab10token_dataENS_9allocatorIS2_EEE20__throw_length_errorB8ne200100Ev, symObjAddr: 0x139D0, symBinAddr: 0x10D2B0, symSize: 0x10 }
  - { offset: 0x74A1E9, size: 0x8, addend: 0x0, symName: __ZNSt3__112__hash_tableINS_17__hash_value_typeINS_4pairINS_12basic_stringIcNS_11char_traitsIcEENS_9allocatorIcEEEES8_EEiEENS_22__unordered_map_hasherIS9_SA_N11llama_vocab4impl9pair_hashENS_8equal_toIS9_EELb1EEENS_21__unordered_map_equalIS9_SA_SG_SE_Lb1EEENS6_ISA_EEE25__emplace_unique_key_argsIS9_JS9_RiEEENS2_INS_15__hash_iteratorIPNS_11__hash_nodeISA_PvEEEEbEERKT_DpOT0_, symObjAddr: 0x139E0, symBinAddr: 0x10D2C0, symSize: 0x560 }
  - { offset: 0x74A6E5, size: 0x8, addend: 0x0, symName: __ZNKSt3__18equal_toINS_4pairINS_12basic_stringIcNS_11char_traitsIcEENS_9allocatorIcEEEES7_EEEclB8ne200100ERKS8_SB_, symObjAddr: 0x13F90, symBinAddr: 0x10D870, symSize: 0x100 }
  - { offset: 0x74A998, size: 0x8, addend: 0x0, symName: __ZNSt3__112__hash_tableINS_17__hash_value_typeINS_4pairINS_12basic_stringIcNS_11char_traitsIcEENS_9allocatorIcEEEES8_EEiEENS_22__unordered_map_hasherIS9_SA_N11llama_vocab4impl9pair_hashENS_8equal_toIS9_EELb1EEENS_21__unordered_map_equalIS9_SA_SG_SE_Lb1EEENS6_ISA_EEE11__do_rehashILb1EEEvm, symObjAddr: 0x14090, symBinAddr: 0x10D970, symSize: 0x1B0 }
  - { offset: 0x74AD54, size: 0x8, addend: 0x0, symName: __ZNSt3__110unique_ptrINS_11__hash_nodeINS_17__hash_value_typeINS_4pairINS_12basic_stringIcNS_11char_traitsIcEENS_9allocatorIcEEEES9_EEiEEPvEENS_22__hash_node_destructorINS7_ISD_EEEEED1B8ne200100Ev, symObjAddr: 0x13F40, symBinAddr: 0x10D820, symSize: 0x50 }
  - { offset: 0x74B6AF, size: 0x8, addend: 0x0, symName: __ZN17llm_tokenizer_spmD1Ev, symObjAddr: 0x16330, symBinAddr: 0x10F840, symSize: 0x10 }
  - { offset: 0x74B6DA, size: 0x8, addend: 0x0, symName: __ZN17llm_tokenizer_spmD0Ev, symObjAddr: 0x16340, symBinAddr: 0x10F850, symSize: 0x10 }
  - { offset: 0x74B7CD, size: 0x8, addend: 0x0, symName: __ZNSt3__16vectorINS_12basic_stringIcNS_11char_traitsIcEENS_9allocatorIcEEEENS4_IS6_EEE18__assign_with_sizeB8ne200100IPKS6_SB_EEvT_T0_l, symObjAddr: 0x17720, symBinAddr: 0x110C30, symSize: 0x340 }
  - { offset: 0x74C44B, size: 0x8, addend: 0x0, symName: __ZN17llm_tokenizer_bpeC2ERK11llama_vocab.cold.2, symObjAddr: 0x1D940, symBinAddr: 0x2ABDA0, symSize: 0x20 }
  - { offset: 0x74C466, size: 0x8, addend: 0x0, symName: __ZN17llm_tokenizer_bpeC2ERK11llama_vocab.cold.2, symObjAddr: 0x1D940, symBinAddr: 0x2ABDA0, symSize: 0x20 }
  - { offset: 0x74C47B, size: 0x8, addend: 0x0, symName: __ZN17llm_tokenizer_bpeC2ERK11llama_vocab.cold.2, symObjAddr: 0x1D940, symBinAddr: 0x2ABDA0, symSize: 0x20 }
  - { offset: 0x74C51E, size: 0x8, addend: 0x0, symName: __ZN17llm_tokenizer_bpeC2ERK11llama_vocab.cold.3, symObjAddr: 0x1D960, symBinAddr: 0x2ABDC0, symSize: 0x30 }
  - { offset: 0x74C5F1, size: 0x8, addend: 0x0, symName: __ZN17llm_tokenizer_bpeC2ERK11llama_vocab.cold.1, symObjAddr: 0x1D910, symBinAddr: 0x2ABD70, symSize: 0x30 }
  - { offset: 0x74C6C4, size: 0x8, addend: 0x0, symName: __ZN17llm_tokenizer_bpeC2ERK11llama_vocab.cold.5, symObjAddr: 0x1D9C0, symBinAddr: 0x2ABE20, symSize: 0x30 }
  - { offset: 0x74C797, size: 0x8, addend: 0x0, symName: __ZN17llm_tokenizer_bpeC2ERK11llama_vocab.cold.4, symObjAddr: 0x1D990, symBinAddr: 0x2ABDF0, symSize: 0x30 }
  - { offset: 0x74C887, size: 0x8, addend: 0x0, symName: __ZN17llm_tokenizer_bpeD1Ev, symObjAddr: 0x17620, symBinAddr: 0x110B30, symSize: 0x80 }
  - { offset: 0x74CB46, size: 0x8, addend: 0x0, symName: __ZN17llm_tokenizer_bpeD0Ev, symObjAddr: 0x176A0, symBinAddr: 0x110BB0, symSize: 0x80 }
  - { offset: 0x74CF62, size: 0x8, addend: 0x0, symName: __ZNSt3__128__exception_guard_exceptionsINS_29_AllocatorDestroyRangeReverseINS_9allocatorINS_12basic_stringIcNS_11char_traitsIcEENS2_IcEEEEEEPS7_EEED1B8ne200100Ev, symObjAddr: 0x17A60, symBinAddr: 0x110F70, symSize: 0x40 }
  - { offset: 0x74CF8F, size: 0x8, addend: 0x0, symName: __ZNSt3__128__exception_guard_exceptionsINS_29_AllocatorDestroyRangeReverseINS_9allocatorINS_12basic_stringIcNS_11char_traitsIcEENS2_IcEEEEEEPS7_EEED1B8ne200100Ev, symObjAddr: 0x17A60, symBinAddr: 0x110F70, symSize: 0x40 }
  - { offset: 0x74D15A, size: 0x8, addend: 0x0, symName: __ZN17llm_tokenizer_wpmD1Ev, symObjAddr: 0x17AA0, symBinAddr: 0x110FB0, symSize: 0x10 }
  - { offset: 0x74D186, size: 0x8, addend: 0x0, symName: __ZN17llm_tokenizer_wpmD0Ev, symObjAddr: 0x17AB0, symBinAddr: 0x110FC0, symSize: 0x10 }
  - { offset: 0x74D3AB, size: 0x8, addend: 0x0, symName: __ZN10naive_trie6insertEPKcmi, symObjAddr: 0x17D90, symBinAddr: 0x1112A0, symSize: 0x1C0 }
  - { offset: 0x74DF42, size: 0x8, addend: 0x0, symName: __ZNSt3__16__treeINS_12__value_typeIc10naive_trieEENS_19__map_value_compareIcS3_NS_4lessIcEELb1EEENS_9allocatorIS3_EEE7destroyEPNS_11__tree_nodeIS3_PvEE, symObjAddr: 0x17FF0, symBinAddr: 0x111500, symSize: 0x50 }
  - { offset: 0x74E7AB, size: 0x8, addend: 0x0, symName: __ZN17llm_tokenizer_ugmD1Ev, symObjAddr: 0x17F50, symBinAddr: 0x111460, symSize: 0x50 }
  - { offset: 0x74EA9B, size: 0x8, addend: 0x0, symName: __ZN17llm_tokenizer_ugmD0Ev, symObjAddr: 0x17FA0, symBinAddr: 0x1114B0, symSize: 0x50 }
  - { offset: 0x74EEB5, size: 0x8, addend: 0x0, symName: __ZN18llm_tokenizer_rwkvD1Ev, symObjAddr: 0x18190, symBinAddr: 0x1116A0, symSize: 0x20 }
  - { offset: 0x74EFBE, size: 0x8, addend: 0x0, symName: __ZN18llm_tokenizer_rwkvD0Ev, symObjAddr: 0x181B0, symBinAddr: 0x1116C0, symSize: 0x40 }
  - { offset: 0x750165, size: 0x8, addend: 0x0, symName: __ZNSt3__112__hash_tableINS_17__hash_value_typeINS_12basic_stringIcNS_11char_traitsIcEENS_9allocatorIcEEEEfEENS_22__unordered_map_hasherIS7_S8_NS_4hashIS7_EENS_8equal_toIS7_EELb1EEENS_21__unordered_map_equalIS7_S8_SD_SB_Lb1EEENS5_IS8_EEE25__emplace_unique_key_argsIS7_JRKNS_21piecewise_construct_tENS_5tupleIJRKS7_EEENSN_IJEEEEEENS_4pairINS_15__hash_iteratorIPNS_11__hash_nodeIS8_PvEEEEbEERKT_DpOT0_, symObjAddr: 0x19B80, symBinAddr: 0x112CC0, symSize: 0x5B0 }
  - { offset: 0x750AC1, size: 0x8, addend: 0x0, symName: __ZNSt3__112__hash_tableINS_17__hash_value_typeINS_12basic_stringIcNS_11char_traitsIcEENS_9allocatorIcEEEEfEENS_22__unordered_map_hasherIS7_S8_NS_4hashIS7_EENS_8equal_toIS7_EELb1EEENS_21__unordered_map_equalIS7_S8_SD_SB_Lb1EEENS5_IS8_EEE4findIS7_EENS_15__hash_iteratorIPNS_11__hash_nodeIS8_PvEEEERKT_, symObjAddr: 0x1A330, symBinAddr: 0x113470, symSize: 0x290 }
  - { offset: 0x750DBF, size: 0x8, addend: 0x0, symName: __ZNSt3__112__hash_tableINS_17__hash_value_typeIxiEENS_22__unordered_map_hasherIxS2_NS_4hashIxEENS_8equal_toIxEELb1EEENS_21__unordered_map_equalIxS2_S7_S5_Lb1EEENS_9allocatorIS2_EEE25__emplace_unique_key_argsIxJRKNS_21piecewise_construct_tENS_5tupleIJRKxEEENSI_IJEEEEEENS_4pairINS_15__hash_iteratorIPNS_11__hash_nodeIS2_PvEEEEbEERKT_DpOT0_, symObjAddr: 0x1CA70, symBinAddr: 0x115BB0, symSize: 0x4A0 }
  - { offset: 0x751520, size: 0x8, addend: 0x0, symName: __ZNSt3__16vectorINS0_IiNS_9allocatorIiEEEENS1_IS3_EEE8__appendEmRKS3_, symObjAddr: 0x1D0C0, symBinAddr: 0x116200, symSize: 0x2D0 }
  - { offset: 0x752298, size: 0x8, addend: 0x0, symName: __ZN20llm_tokenizer_plamo25buildERK11llama_vocab.cold.1, symObjAddr: 0x1D9F0, symBinAddr: 0x2ABE50, symSize: 0x4C }
  - { offset: 0x7525E9, size: 0x8, addend: 0x0, symName: __ZN20llm_tokenizer_plamo2D1Ev, symObjAddr: 0x19780, symBinAddr: 0x112C90, symSize: 0x10 }
  - { offset: 0x75261F, size: 0x8, addend: 0x0, symName: __ZN20llm_tokenizer_plamo2D2Ev, symObjAddr: 0x1D3F0, symBinAddr: 0x116530, symSize: 0x110 }
  - { offset: 0x752F23, size: 0x8, addend: 0x0, symName: __ZN20llm_tokenizer_plamo2D0Ev, symObjAddr: 0x19790, symBinAddr: 0x112CA0, symSize: 0x20 }
  - { offset: 0x753593, size: 0x8, addend: 0x0, symName: __ZNSt3__112__hash_tableINS_17__hash_value_typeINS_12basic_stringIcNS_11char_traitsIcEENS_9allocatorIcEEEEfEENS_22__unordered_map_hasherIS7_S8_NS_4hashIS7_EENS_8equal_toIS7_EELb1EEENS_21__unordered_map_equalIS7_S8_SD_SB_Lb1EEENS5_IS8_EEE11__do_rehashILb1EEEvm, symObjAddr: 0x1A180, symBinAddr: 0x1132C0, symSize: 0x1B0 }
  - { offset: 0x75394F, size: 0x8, addend: 0x0, symName: __ZNSt3__110unique_ptrINS_11__hash_nodeINS_17__hash_value_typeINS_12basic_stringIcNS_11char_traitsIcEENS_9allocatorIcEEEEfEEPvEENS_22__hash_node_destructorINS6_ISB_EEEEED1B8ne200100Ev, symObjAddr: 0x1A130, symBinAddr: 0x113270, symSize: 0x50 }
  - { offset: 0x753D9A, size: 0x8, addend: 0x0, symName: __ZZN20llm_tokenizer_plamo25buildERK11llama_vocabENKUlRKNSt3__112basic_stringIcNS3_11char_traitsIcEENS3_9allocatorIcEEEESB_E_clESB_SB_, symObjAddr: 0x1B270, symBinAddr: 0x1143B0, symSize: 0x440 }
  - { offset: 0x75501D, size: 0x8, addend: 0x0, symName: __ZNSt3__112__hash_tableINS_17__hash_value_typeIxiEENS_22__unordered_map_hasherIxS2_NS_4hashIxEENS_8equal_toIxEELb1EEENS_21__unordered_map_equalIxS2_S7_S5_Lb1EEENS_9allocatorIS2_EEE11__do_rehashILb1EEEvm, symObjAddr: 0x1CF10, symBinAddr: 0x116050, symSize: 0x1B0 }
  - { offset: 0x75568D, size: 0x8, addend: 0x0, symName: __ZNSt3__114__split_bufferINS_6vectorIiNS_9allocatorIiEEEERNS2_IS4_EEED1Ev, symObjAddr: 0x1D390, symBinAddr: 0x1164D0, symSize: 0x60 }
  - { offset: 0x757B83, size: 0x8, addend: 0x0, symName: _llama_split_path, symObjAddr: 0x4D10, symBinAddr: 0x11B650, symSize: 0x50 }
  - { offset: 0x757C41, size: 0x8, addend: 0x0, symName: _llama_print_system_info, symObjAddr: 0x5050, symBinAddr: 0x11B990, symSize: 0x170 }
  - { offset: 0x757C69, size: 0x8, addend: 0x0, symName: __ZZ23llama_print_system_infoE1s, symObjAddr: 0x1883F0, symBinAddr: 0x3A6190, symSize: 0x0 }
  - { offset: 0x785AE8, size: 0x8, addend: 0x0, symName: __ZZL21llama_params_fit_implPKcP18llama_model_paramsP20llama_context_paramsPfP32llama_model_tensor_buft_overridePmj14ggml_log_levelE15pattern_moe_all, symObjAddr: 0x188410, symBinAddr: 0x3A61B0, symSize: 0x0 }
  - { offset: 0x785D8C, size: 0x8, addend: 0x0, symName: __ZL28llama_get_device_memory_dataPKcPK18llama_model_paramsPK20llama_context_paramsRNSt3__16vectorIP19ggml_backend_deviceNS7_9allocatorISA_EEEERjSF_SF_14ggml_log_level, symObjAddr: 0x51C0, symBinAddr: 0x11BB00, symSize: 0x590 }
  - { offset: 0x7880E6, size: 0x8, addend: 0x0, symName: _llama_flash_attn_type_name, symObjAddr: 0x0, symBinAddr: 0x116A50, symSize: 0x40 }
  - { offset: 0x78A8CA, size: 0x8, addend: 0x0, symName: _llama_params_fit, symObjAddr: 0x40, symBinAddr: 0x116A90, symSize: 0x3250 }
  - { offset: 0x792DF4, size: 0x8, addend: 0x0, symName: __ZN26llama_params_fit_exceptionD0Ev, symObjAddr: 0x6E50, symBinAddr: 0x11D400, symSize: 0x20 }
  - { offset: 0x792E0C, size: 0x8, addend: 0x0, symName: '__ZZL21llama_params_fit_implPKcP18llama_model_paramsP20llama_context_paramsPfP32llama_model_tensor_buft_overridePmj14ggml_log_levelENK3$_2clES0_RKNSt3__16vectorIZL21llama_params_fit_implS0_S2_S4_S5_S7_S8_jS9_E5ngl_tNSB_9allocatorISD_EEEERKNSC_IP24ggml_backend_buffer_typeNSE_ISK_EEEE', symObjAddr: 0x5760, symBinAddr: 0x11C0A0, symSize: 0x390 }
  - { offset: 0x79388D, size: 0x8, addend: 0x0, symName: __ZNSt3__16vectorIZL21llama_params_fit_implPKcP18llama_model_paramsP20llama_context_paramsPfP32llama_model_tensor_buft_overridePmj14ggml_log_levelE5ngl_tNS_9allocatorISC_EEEaSB8ne200100ERKSF_, symObjAddr: 0x5AF0, symBinAddr: 0x11C430, symSize: 0x170 }
  - { offset: 0x79427A, size: 0x8, addend: 0x0, symName: __ZNSt3__16vectorIxNS_9allocatorIxEEE18__assign_with_sizeB8ne200100IPxS5_EEvT_T0_l, symObjAddr: 0x6E90, symBinAddr: 0x11D430, symSize: 0x140 }
  - { offset: 0x794CAF, size: 0x8, addend: 0x0, symName: __ZNSt3__15arrayINS_12basic_stringIcNS_11char_traitsIcEENS_9allocatorIcEEEELm1000EED1Ev, symObjAddr: 0x6FD0, symBinAddr: 0x11D570, symSize: 0x40 }
  - { offset: 0x794CDD, size: 0x8, addend: 0x0, symName: '__ZZL21llama_params_fit_implPKcP18llama_model_paramsP20llama_context_paramsPfP32llama_model_tensor_buft_overridePmj14ggml_log_levelENK3$_1clERKNSt3__16vectorIZL21llama_params_fit_implS0_S2_S4_S5_S7_S8_jS9_E5ngl_tNSB_9allocatorISD_EEEERKNSC_IP24ggml_backend_buffer_typeNSE_ISK_EEEERS1_', symObjAddr: 0x5C60, symBinAddr: 0x11C5A0, symSize: 0xCE0 }
  - { offset: 0x796965, size: 0x8, addend: 0x0, symName: __ZNSt3__16vectorIP24ggml_backend_buffer_typeNS_9allocatorIS2_EEE18__assign_with_sizeB8ne200100IPS2_S7_EEvT_T0_l, symObjAddr: 0x7010, symBinAddr: 0x11D5B0, symSize: 0x140 }
  - { offset: 0x79739A, size: 0x8, addend: 0x0, symName: '__ZZL31llama_model_load_from_file_implRKNSt3__112basic_stringIcNS_11char_traitsIcEENS_9allocatorIcEEEERNS_6vectorIS5_NS3_IS5_EEEE18llama_model_paramsEN3$_18__invokeEfPv', symObjAddr: 0x7150, symBinAddr: 0x11D6F0, symSize: 0xA0 }
  - { offset: 0x7973B7, size: 0x8, addend: 0x0, symName: __ZNSt3__16vectorIZL21llama_params_fit_implPKcP18llama_model_paramsP20llama_context_paramsPfP32llama_model_tensor_buft_overridePmj14ggml_log_levelE5ngl_tNS_9allocatorISC_EEE20__throw_length_errorB8ne200100Ev, symObjAddr: 0x6E80, symBinAddr: 0x11D420, symSize: 0x10 }
  - { offset: 0x7973CF, size: 0x8, addend: 0x0, symName: __ZNSt3__16vectorIxNS_9allocatorIxEEE18__assign_with_sizeB8ne200100IPxS5_EEvT_T0_l, symObjAddr: 0x6E90, symBinAddr: 0x11D430, symSize: 0x140 }
  - { offset: 0x7973E4, size: 0x8, addend: 0x0, symName: __ZNSt3__16vectorIZL21llama_params_fit_implPKcP18llama_model_paramsP20llama_context_paramsPfP32llama_model_tensor_buft_overridePmj14ggml_log_levelE5ngl_tNS_9allocatorISC_EEE20__throw_length_errorB8ne200100Ev, symObjAddr: 0x6E80, symBinAddr: 0x11D420, symSize: 0x10 }
  - { offset: 0x79771E, size: 0x8, addend: 0x0, symName: _llama_time_us, symObjAddr: 0x3290, symBinAddr: 0x119CE0, symSize: 0x10 }
  - { offset: 0x797741, size: 0x8, addend: 0x0, symName: _llama_sampler_chain_default_params, symObjAddr: 0x32B0, symBinAddr: 0x119CF0, symSize: 0x10 }
  - { offset: 0x79776B, size: 0x8, addend: 0x0, symName: _llama_max_devices, symObjAddr: 0x32C0, symBinAddr: 0x119D00, symSize: 0x10 }
  - { offset: 0x797786, size: 0x8, addend: 0x0, symName: _llama_max_tensor_buft_overrides, symObjAddr: 0x32D0, symBinAddr: 0x119D10, symSize: 0x10 }
  - { offset: 0x7977A1, size: 0x8, addend: 0x0, symName: _llama_supports_mmap, symObjAddr: 0x32E0, symBinAddr: 0x119D20, symSize: 0x10 }
  - { offset: 0x7977BC, size: 0x8, addend: 0x0, symName: _llama_supports_mlock, symObjAddr: 0x32F0, symBinAddr: 0x119D30, symSize: 0x10 }
  - { offset: 0x7977E5, size: 0x8, addend: 0x0, symName: _llama_supports_gpu_offload, symObjAddr: 0x3300, symBinAddr: 0x119D40, symSize: 0x50 }
  - { offset: 0x79786E, size: 0x8, addend: 0x0, symName: _llama_supports_rpc, symObjAddr: 0x3350, symBinAddr: 0x119D90, symSize: 0x20 }
  - { offset: 0x797891, size: 0x8, addend: 0x0, symName: _llama_backend_init, symObjAddr: 0x3370, symBinAddr: 0x119DB0, symSize: 0x40 }
  - { offset: 0x797928, size: 0x8, addend: 0x0, symName: _llama_numa_init, symObjAddr: 0x33B0, symBinAddr: 0x119DF0, symSize: 0x70 }
  - { offset: 0x7979FF, size: 0x8, addend: 0x0, symName: _llama_backend_free, symObjAddr: 0x3420, symBinAddr: 0x119E60, symSize: 0x10 }
  - { offset: 0x797A2E, size: 0x8, addend: 0x0, symName: _llama_load_model_from_file, symObjAddr: 0x3430, symBinAddr: 0x119E70, symSize: 0x10 }
  - { offset: 0x797A7F, size: 0x8, addend: 0x0, symName: _llama_model_load_from_file, symObjAddr: 0x3440, symBinAddr: 0x119E80, symSize: 0x180 }
  - { offset: 0x7982AA, size: 0x8, addend: 0x0, symName: __ZL31llama_model_load_from_file_implRKNSt3__112basic_stringIcNS_11char_traitsIcEENS_9allocatorIcEEEERNS_6vectorIS5_NS3_IS5_EEEE18llama_model_params, symObjAddr: 0x35C0, symBinAddr: 0x11A000, symSize: 0xED0 }
  - { offset: 0x7A0042, size: 0x8, addend: 0x0, symName: __ZNSt3__16vectorIP19ggml_backend_deviceNS_9allocatorIS2_EEE18__insert_with_sizeB8ne200100INS_11__wrap_iterIPS2_EES9_EES9_NS7_IPKS2_EET_T0_l, symObjAddr: 0x7280, symBinAddr: 0x11D790, symSize: 0x450 }
  - { offset: 0x7A14C0, size: 0x8, addend: 0x0, symName: __ZNSt3__16vectorIP19ggml_backend_deviceNS_9allocatorIS2_EEE20__throw_length_errorB8ne200100Ev, symObjAddr: 0x6B70, symBinAddr: 0x11D3F0, symSize: 0x10 }
  - { offset: 0x7A16DB, size: 0x8, addend: 0x0, symName: _llama_model_load_from_splits, symObjAddr: 0x4590, symBinAddr: 0x11AED0, symSize: 0x340 }
  - { offset: 0x7A247F, size: 0x8, addend: 0x0, symName: _llama_model_save_to_file, symObjAddr: 0x48D0, symBinAddr: 0x11B210, symSize: 0x130 }
  - { offset: 0x7A2D5C, size: 0x8, addend: 0x0, symName: _llama_chat_apply_template, symObjAddr: 0x4A00, symBinAddr: 0x11B340, symSize: 0x310 }
  - { offset: 0x7A3B3C, size: 0x8, addend: 0x0, symName: __ZNSt3__16vectorIPK18llama_chat_messageNS_9allocatorIS3_EEE20__throw_length_errorB8ne200100Ev, symObjAddr: 0x7910, symBinAddr: 0x11DBE0, symSize: 0x10 }
  - { offset: 0x7A3B54, size: 0x8, addend: 0x0, symName: _llama_print_system_info.cold.1, symObjAddr: 0x7920, symBinAddr: 0x2ABEA0, symSize: 0x50 }
  - { offset: 0x7A3BB9, size: 0x8, addend: 0x0, symName: _llama_split_prefix, symObjAddr: 0x4D60, symBinAddr: 0x11B6A0, symSize: 0x2F0 }
  - { offset: 0x7A483B, size: 0x8, addend: 0x0, symName: _llama_print_system_info.cold.1, symObjAddr: 0x7920, symBinAddr: 0x2ABEA0, symSize: 0x50 }
  - { offset: 0x7A4D36, size: 0x8, addend: 0x0, symName: __ZNSt3__16vectorIP19ggml_backend_deviceNS_9allocatorIS2_EEE18__assign_with_sizeB8ne200100IPS2_S7_EEvT_T0_l, symObjAddr: 0x6A30, symBinAddr: 0x11D2B0, symSize: 0x140 }
  - { offset: 0x7A576B, size: 0x8, addend: 0x0, symName: __ZNSt3__16vectorIP19ggml_backend_deviceNS_9allocatorIS2_EEE20__throw_length_errorB8ne200100Ev, symObjAddr: 0x6B70, symBinAddr: 0x11D3F0, symSize: 0x10 }
  - { offset: 0x7A5876, size: 0x8, addend: 0x0, symName: __ZNSt3__16vectorI24llama_device_memory_dataNS_9allocatorIS1_EEE20__throw_length_errorB8ne200100Ev, symObjAddr: 0x6960, symBinAddr: 0x11D2A0, symSize: 0x10 }
  - { offset: 0x7A58B5, size: 0x8, addend: 0x0, symName: __ZN26llama_params_fit_exceptionD1Ev, symObjAddr: 0x5750, symBinAddr: 0x11C090, symSize: 0x10 }
  - { offset: 0x7A5B80, size: 0x8, addend: 0x0, symName: '__ZZL21llama_params_fit_implPKcP18llama_model_paramsP20llama_context_paramsPfP32llama_model_tensor_buft_overridePmj14ggml_log_levelENK3$_1clERKNSt3__16vectorIZL21llama_params_fit_implS0_S2_S4_S5_S7_S8_jS9_E5ngl_tNSB_9allocatorISD_EEEERKNSC_IP24ggml_backend_buffer_typeNSE_ISK_EEEERS1_.cold.2', symObjAddr: 0x79D0, symBinAddr: 0x2ABF50, symSize: 0x60 }
  - { offset: 0x7A5C16, size: 0x8, addend: 0x0, symName: '__ZZL21llama_params_fit_implPKcP18llama_model_paramsP20llama_context_paramsPfP32llama_model_tensor_buft_overridePmj14ggml_log_levelENK3$_1clERKNSt3__16vectorIZL21llama_params_fit_implS0_S2_S4_S5_S7_S8_jS9_E5ngl_tNSB_9allocatorISD_EEEERKNSC_IP24ggml_backend_buffer_typeNSE_ISK_EEEERS1_.cold.1', symObjAddr: 0x7970, symBinAddr: 0x2ABEF0, symSize: 0x60 }
  - { offset: 0x7A5CAC, size: 0x8, addend: 0x0, symName: '__ZZL21llama_params_fit_implPKcP18llama_model_paramsP20llama_context_paramsPfP32llama_model_tensor_buft_overridePmj14ggml_log_levelENK3$_1clERKNSt3__16vectorIZL21llama_params_fit_implS0_S2_S4_S5_S7_S8_jS9_E5ngl_tNSB_9allocatorISD_EEEERKNSC_IP24ggml_backend_buffer_typeNSE_ISK_EEEERS1_.cold.4', symObjAddr: 0x7A90, symBinAddr: 0x2AC010, symSize: 0x53 }
  - { offset: 0x7A5D42, size: 0x8, addend: 0x0, symName: '__ZZL21llama_params_fit_implPKcP18llama_model_paramsP20llama_context_paramsPfP32llama_model_tensor_buft_overridePmj14ggml_log_levelENK3$_1clERKNSt3__16vectorIZL21llama_params_fit_implS0_S2_S4_S5_S7_S8_jS9_E5ngl_tNSB_9allocatorISD_EEEERKNSC_IP24ggml_backend_buffer_typeNSE_ISK_EEEERS1_.cold.3', symObjAddr: 0x7A30, symBinAddr: 0x2ABFB0, symSize: 0x60 }
  - { offset: 0x7A5E3F, size: 0x8, addend: 0x0, symName: '__ZZL28llama_get_device_memory_dataPKcPK18llama_model_paramsPK20llama_context_paramsRNSt3__16vectorIP19ggml_backend_deviceNS7_9allocatorISA_EEEERjSF_SF_14ggml_log_levelEN3$_08__invokeESG_S0_Pv', symObjAddr: 0x6940, symBinAddr: 0x11D280, symSize: 0x20 }
  - { offset: 0x7A62E3, size: 0x8, addend: 0x0, symName: __ZN26llama_params_fit_exceptionD0Ev, symObjAddr: 0x6E50, symBinAddr: 0x11D400, symSize: 0x20 }
  - { offset: 0x7A64C4, size: 0x8, addend: 0x0, symName: __ZNSt3__15arrayINS_12basic_stringIcNS_11char_traitsIcEENS_9allocatorIcEEEELm1000EED1Ev, symObjAddr: 0x6FD0, symBinAddr: 0x11D570, symSize: 0x40 }
  - { offset: 0x7A672E, size: 0x8, addend: 0x0, symName: '__ZZL31llama_model_load_from_file_implRKNSt3__112basic_stringIcNS_11char_traitsIcEENS_9allocatorIcEEEERNS_6vectorIS5_NS3_IS5_EEEE18llama_model_paramsEN3$_18__invokeEfPv', symObjAddr: 0x7150, symBinAddr: 0x11D6F0, symSize: 0xA0 }
  - { offset: 0x7A99ED, size: 0x8, addend: 0x0, symName: __ZN15llm_build_afmoeC2ERK11llama_modelRK16llm_graph_params, symObjAddr: 0x0, symBinAddr: 0x11DBF0, symSize: 0x9C0 }
  - { offset: 0x7C90E2, size: 0x8, addend: 0x0, symName: __ZN15llm_build_afmoeC2ERK11llama_modelRK16llm_graph_params, symObjAddr: 0x0, symBinAddr: 0x11DBF0, symSize: 0x9C0 }
  - { offset: 0x7C98A1, size: 0x8, addend: 0x0, symName: __ZN15llm_build_afmoeC1ERK11llama_modelRK16llm_graph_params, symObjAddr: 0x9C0, symBinAddr: 0x11E5B0, symSize: 0x10 }
  - { offset: 0x7C992E, size: 0x8, addend: 0x0, symName: __ZN15llm_build_afmoeD1Ev, symObjAddr: 0x9D0, symBinAddr: 0x11E5C0, symSize: 0x30 }
  - { offset: 0x7C9A27, size: 0x8, addend: 0x0, symName: __ZN15llm_build_afmoeD0Ev, symObjAddr: 0xA00, symBinAddr: 0x11E5F0, symSize: 0x40 }
  - { offset: 0x7CBA8F, size: 0x8, addend: 0x0, symName: __ZN17llm_build_apertusC2ERK11llama_modelRK16llm_graph_params, symObjAddr: 0x0, symBinAddr: 0x11E630, symSize: 0x720 }
