---
triple:          'arm64-apple-darwin'
binary-path:     '/opt/UnitySrc/personal/ocs-test/llama_dart/src/native/llama_cpp/build-ios-sim/framework/llama.framework/llama'
relocations:
  - { offset: 0x25B1E, size: 0x8, addend: 0x0, symName: __ZNSt3__127__tree_balance_after_insertB8ne200100IPNS_16__tree_node_baseIPvEEEEvT_S5_, symObjAddr: 0x307C, symBinAddr: 0x3BBC, symSize: 0x1AC }
  - { offset: 0x26C72, size: 0x8, addend: 0x0, symName: __ZNSt3__120__throw_length_errorB8ne200100EPKc, symObjAddr: 0x323C, symBinAddr: 0x3D7C, symSize: 0x50 }
  - { offset: 0x271E9, size: 0x8, addend: 0x0, symName: __ZNSt3__120__throw_out_of_rangeB8ne200100EPKc, symObjAddr: 0x4148, symBinAddr: 0x4C88, symSize: 0x50 }
  - { offset: 0x28D16, size: 0x8, addend: 0x0, symName: __ZSt28__throw_bad_array_new_lengthB8ne200100v, symObjAddr: 0x3054, symBinAddr: 0x3B94, symSize: 0x28 }
  - { offset: 0x30203, size: 0x8, addend: 0x0, symName: __ZNK18llama_adapter_cvec10tensor_forEi, symObjAddr: 0x0, symBinAddr: 0xB40, symSize: 0x40 }
  - { offset: 0x3026D, size: 0x8, addend: 0x0, symName: __ZNK18llama_adapter_cvec8apply_toEP12ggml_contextP11ggml_tensori, symObjAddr: 0x40, symBinAddr: 0xB80, symSize: 0x50 }
  - { offset: 0x302D4, size: 0x8, addend: 0x0, symName: __ZNK18llama_adapter_cvec8apply_toEP12ggml_contextP11ggml_tensori, symObjAddr: 0x40, symBinAddr: 0xB80, symSize: 0x50 }
  - { offset: 0x3092F, size: 0x8, addend: 0x0, symName: __ZN18llama_adapter_cvec4initERK11llama_model, symObjAddr: 0x90, symBinAddr: 0xBD0, symSize: 0x72C }
  - { offset: 0x33662, size: 0x8, addend: 0x0, symName: __ZNSt3__16__treeINS_12__value_typeIP24ggml_backend_buffer_typeP12ggml_contextEENS_19__map_value_compareIS3_S6_NS_4lessIS3_EELb1EEENS_9allocatorIS6_EEE7destroyEPNS_11__tree_nodeIS6_PvEE, symObjAddr: 0x5280, symBinAddr: 0x5DC0, symSize: 0x44 }
  - { offset: 0x33779, size: 0x8, addend: 0x0, symName: __ZNSt3__16vectorINS_10unique_ptrI19ggml_backend_buffer27ggml_backend_buffer_deleterEENS_9allocatorIS4_EEE20__throw_length_errorB8ne200100Ev, symObjAddr: 0x4BB4, symBinAddr: 0x56F4, symSize: 0x14 }
  - { offset: 0x33791, size: 0x8, addend: 0x0, symName: __ZNSt3__16vectorIhNS_9allocatorIhEEE20__throw_length_errorB8ne200100Ev, symObjAddr: 0x4BC8, symBinAddr: 0x5708, symSize: 0x14 }
  - { offset: 0x3379C, size: 0x8, addend: 0x0, symName: __ZNSt3__16vectorIP11ggml_tensorNS_9allocatorIS2_EEE20__throw_length_errorB8ne200100Ev, symObjAddr: 0x52C4, symBinAddr: 0x5E04, symSize: 0x14 }
  - { offset: 0x337B4, size: 0x8, addend: 0x0, symName: __ZNSt3__112__hash_tableINS_17__hash_value_typeINS_12basic_stringIcNS_11char_traitsIcEENS_9allocatorIcEEEE25llama_adapter_lora_weightEENS_22__unordered_map_hasherIS7_S9_NS_4hashIS7_EENS_8equal_toIS7_EELb1EEENS_21__unordered_map_equalIS7_S9_SE_SC_Lb1EEENS5_IS9_EEE4findIS7_EENS_15__hash_iteratorIPNS_11__hash_nodeIS9_PvEEEERKT_, symObjAddr: 0x52D8, symBinAddr: 0x5E18, symSize: 0x1B4 }
  - { offset: 0x337BF, size: 0x8, addend: 0x0, symName: __ZNSt3__16vectorINS_10unique_ptrI12ggml_context20ggml_context_deleterEENS_9allocatorIS4_EEE20__throw_length_errorB8ne200100Ev, symObjAddr: 0x3228, symBinAddr: 0x3D68, symSize: 0x14 }
  - { offset: 0x337D7, size: 0x8, addend: 0x0, symName: __ZNSt3__120__throw_length_errorB8ne200100EPKc, symObjAddr: 0x323C, symBinAddr: 0x3D7C, symSize: 0x50 }
  - { offset: 0x3381E, size: 0x8, addend: 0x0, symName: __ZN18llama_adapter_cvec5applyERK11llama_modelPKfmiii, symObjAddr: 0x7BC, symBinAddr: 0x12FC, symSize: 0x12C }
  - { offset: 0x33C63, size: 0x8, addend: 0x0, symName: __ZN18llama_adapter_lora10get_weightEP11ggml_tensor, symObjAddr: 0x8E8, symBinAddr: 0x1428, symSize: 0xF8 }
  - { offset: 0x34155, size: 0x8, addend: 0x0, symName: __ZNSt3__112__hash_tableINS_17__hash_value_typeINS_12basic_stringIcNS_11char_traitsIcEENS_9allocatorIcEEEE25llama_adapter_lora_weightEENS_22__unordered_map_hasherIS7_S9_NS_4hashIS7_EENS_8equal_toIS7_EELb1EEENS_21__unordered_map_equalIS7_S9_SE_SC_Lb1EEENS5_IS9_EEE4findIS7_EENS_15__hash_iteratorIPNS_11__hash_nodeIS9_PvEEEERKT_, symObjAddr: 0x52D8, symBinAddr: 0x5E18, symSize: 0x1B4 }
  - { offset: 0x3445E, size: 0x8, addend: 0x0, symName: __ZNSt3__112basic_stringIcNS_11char_traitsIcEENS_9allocatorIcEEE20__throw_length_errorB8ne200100Ev, symObjAddr: 0x41BC, symBinAddr: 0x4CFC, symSize: 0x14 }
  - { offset: 0x34476, size: 0x8, addend: 0x0, symName: __ZNSt3__112basic_stringIcNS_11char_traitsIcEENS_9allocatorIcEEE25__init_copy_ctor_externalEPKcm, symObjAddr: 0x41D0, symBinAddr: 0x4D10, symSize: 0x88 }
  - { offset: 0x34481, size: 0x8, addend: 0x0, symName: __ZNSt3__112basic_stringIcNS_11char_traitsIcEENS_9allocatorIcEEEC1B8ne200100ILi0EEEPKc, symObjAddr: 0x9E0, symBinAddr: 0x1520, symSize: 0xA4 }
  - { offset: 0x346E9, size: 0x8, addend: 0x0, symName: _llama_adapter_lora_init, symObjAddr: 0xA84, symBinAddr: 0x15C4, symSize: 0x100 }
  - { offset: 0x348CE, size: 0x8, addend: 0x0, symName: _llama_adapter_lora_init, symObjAddr: 0xA84, symBinAddr: 0x15C4, symSize: 0x100 }
  - { offset: 0x34B4E, size: 0x8, addend: 0x0, symName: __ZL28llama_adapter_lora_init_implR11llama_modelPKcR18llama_adapter_lora, symObjAddr: 0xB84, symBinAddr: 0x16C4, symSize: 0x2220 }
  - { offset: 0x3D420, size: 0x8, addend: 0x0, symName: __ZN18llama_adapter_loraD2Ev, symObjAddr: 0x5114, symBinAddr: 0x5C54, symSize: 0x16C }
  - { offset: 0x3F666, size: 0x8, addend: 0x0, symName: __ZNSt3__112__hash_tableINS_17__hash_value_typeINS_12basic_stringIcNS_11char_traitsIcEENS_9allocatorIcEEEES7_EENS_22__unordered_map_hasherIS7_S8_NS_4hashIS7_EENS_8equal_toIS7_EELb1EEENS_21__unordered_map_equalIS7_S8_SD_SB_Lb1EEENS5_IS8_EEE21__emplace_unique_implIJRPKcRKS7_EEENS_4pairINS_15__hash_iteratorIPNS_11__hash_nodeIS8_PvEEEEbEEDpOT_, symObjAddr: 0x34CC, symBinAddr: 0x400C, symSize: 0x140 }
  - { offset: 0x3FE69, size: 0x8, addend: 0x0, symName: __ZNSt3__112basic_stringIcNS_11char_traitsIcEENS_9allocatorIcEEE25__init_copy_ctor_externalEPKcm, symObjAddr: 0x41D0, symBinAddr: 0x4D10, symSize: 0x88 }
  - { offset: 0x40029, size: 0x8, addend: 0x0, symName: __ZNSt3__16vectorIiNS_9allocatorIiEEE8__appendEm, symObjAddr: 0x4258, symBinAddr: 0x4D98, symSize: 0x120 }
  - { offset: 0x400C7, size: 0x8, addend: 0x0, symName: __ZNSt3__16vectorIiNS_9allocatorIiEEE8__appendEm, symObjAddr: 0x4258, symBinAddr: 0x4D98, symSize: 0x120 }
  - { offset: 0x404A5, size: 0x8, addend: 0x0, symName: __ZNSt3__16vectorIiNS_9allocatorIiEEE20__throw_length_errorB8ne200100Ev, symObjAddr: 0x4378, symBinAddr: 0x4EB8, symSize: 0x14 }
  - { offset: 0x40514, size: 0x8, addend: 0x0, symName: __ZNSt3__16__treeINS_12__value_typeINS_12basic_stringIcNS_11char_traitsIcEENS_9allocatorIcEEEE25llama_adapter_lora_weightEENS_19__map_value_compareIS7_S9_NS_4lessIS7_EELb1EEENS5_IS9_EEE25__emplace_unique_key_argsIS7_JRKNS_21piecewise_construct_tENS_5tupleIJRKS7_EEENSK_IJEEEEEENS_4pairINS_15__tree_iteratorIS9_PNS_11__tree_nodeIS9_PvEElEEbEERKT_DpOT0_, symObjAddr: 0x438C, symBinAddr: 0x4ECC, symSize: 0x1B0 }
  - { offset: 0x40C2C, size: 0x8, addend: 0x0, symName: __ZNSt3__112__hash_tableINS_17__hash_value_typeINS_12basic_stringIcNS_11char_traitsIcEENS_9allocatorIcEEEE25llama_adapter_lora_weightEENS_22__unordered_map_hasherIS7_S9_NS_4hashIS7_EENS_8equal_toIS7_EELb1EEENS_21__unordered_map_equalIS7_S9_SE_SC_Lb1EEENS5_IS9_EEE25__emplace_unique_key_argsIS7_JRKNS_21piecewise_construct_tENS_5tupleIJRKS7_EEENSO_IJEEEEEENS_4pairINS_15__hash_iteratorIPNS_11__hash_nodeIS9_PvEEEEbEERKT_DpOT0_, symObjAddr: 0x45B0, symBinAddr: 0x50F0, symSize: 0x424 }
  - { offset: 0x4173F, size: 0x8, addend: 0x0, symName: '__ZZL28llama_adapter_lora_init_implR11llama_modelPKcR18llama_adapter_loraENK3$_4clEP11ggml_tensorS7_', symObjAddr: 0x3318, symBinAddr: 0x3E58, symSize: 0x180 }
  - { offset: 0x41D2E, size: 0x8, addend: 0x0, symName: __ZNSt3__110unique_ptrI12gguf_context20gguf_context_deleterED1B8ne200100Ev, symObjAddr: 0x3498, symBinAddr: 0x3FD8, symSize: 0x34 }
  - { offset: 0x41D3F, size: 0x8, addend: 0x0, symName: __ZNSt3__112__hash_tableIP18llama_adapter_loraNS_4hashIS2_EENS_8equal_toIS2_EENS_9allocatorIS2_EEE25__emplace_unique_key_argsIS2_JS2_EEENS_4pairINS_15__hash_iteratorIPNS_11__hash_nodeIS2_PvEEEEbEERKT_DpOT0_, symObjAddr: 0x4BDC, symBinAddr: 0x571C, symSize: 0x358 }
  - { offset: 0x42494, size: 0x8, addend: 0x0, symName: __ZNSt3__16__treeINS_12__value_typeINS_12basic_stringIcNS_11char_traitsIcEENS_9allocatorIcEEEE25llama_adapter_lora_weightEENS_19__map_value_compareIS7_S9_NS_4lessIS7_EELb1EEENS5_IS9_EEE7destroyEPNS_11__tree_nodeIS9_PvEE, symObjAddr: 0x50B4, symBinAddr: 0x5BF4, symSize: 0x60 }
  - { offset: 0x426F1, size: 0x8, addend: 0x0, symName: __ZNSt3__112basic_stringIcNS_11char_traitsIcEENS_9allocatorIcEEE20__throw_out_of_rangeB8ne200100Ev, symObjAddr: 0x4134, symBinAddr: 0x4C74, symSize: 0x14 }
  - { offset: 0x42709, size: 0x8, addend: 0x0, symName: __ZNSt3__120__throw_out_of_rangeB8ne200100EPKc, symObjAddr: 0x4148, symBinAddr: 0x4C88, symSize: 0x50 }
  - { offset: 0x42714, size: 0x8, addend: 0x0, symName: __ZNSt3__16vectorIP24ggml_backend_buffer_typeNS_9allocatorIS2_EEE20__throw_length_errorB8ne200100Ev, symObjAddr: 0x459C, symBinAddr: 0x50DC, symSize: 0x14 }
  - { offset: 0x4272C, size: 0x8, addend: 0x0, symName: __ZNSt3__112__hash_tableINS_17__hash_value_typeINS_12basic_stringIcNS_11char_traitsIcEENS_9allocatorIcEEEE25llama_adapter_lora_weightEENS_22__unordered_map_hasherIS7_S9_NS_4hashIS7_EENS_8equal_toIS7_EELb1EEENS_21__unordered_map_equalIS7_S9_SE_SC_Lb1EEENS5_IS9_EEE25__emplace_unique_key_argsIS7_JRKNS_21piecewise_construct_tENS_5tupleIJRKS7_EEENSO_IJEEEEEENS_4pairINS_15__hash_iteratorIPNS_11__hash_nodeIS9_PvEEEEbEERKT_DpOT0_, symObjAddr: 0x45B0, symBinAddr: 0x50F0, symSize: 0x424 }
  - { offset: 0x42737, size: 0x8, addend: 0x0, symName: __ZNSt3__110unique_ptrI12gguf_context20gguf_context_deleterED1B8ne200100Ev, symObjAddr: 0x3498, symBinAddr: 0x3FD8, symSize: 0x34 }
  - { offset: 0x427CB, size: 0x8, addend: 0x0, symName: __ZNSt3__110unique_ptrI19ggml_backend_buffer27ggml_backend_buffer_deleterED1B8ne200100Ev, symObjAddr: 0x32E4, symBinAddr: 0x3E24, symSize: 0x34 }
  - { offset: 0x4285F, size: 0x8, addend: 0x0, symName: __ZNSt3__110unique_ptrI12ggml_context20ggml_context_deleterED1B8ne200100Ev, symObjAddr: 0x32B0, symBinAddr: 0x3DF0, symSize: 0x34 }
  - { offset: 0x4291B, size: 0x8, addend: 0x0, symName: _llama_adapter_meta_val_str, symObjAddr: 0x2DB4, symBinAddr: 0x38F4, symSize: 0x13C }
  - { offset: 0x42EE7, size: 0x8, addend: 0x0, symName: __ZNKSt3__112__hash_tableINS_17__hash_value_typeINS_12basic_stringIcNS_11char_traitsIcEENS_9allocatorIcEEEES7_EENS_22__unordered_map_hasherIS7_S8_NS_4hashIS7_EENS_8equal_toIS7_EELb1EEENS_21__unordered_map_equalIS7_S8_SD_SB_Lb1EEENS5_IS8_EEE4findIS7_EENS_21__hash_const_iteratorIPNS_11__hash_nodeIS8_PvEEEERKT_, symObjAddr: 0x548C, symBinAddr: 0x5FCC, symSize: 0x1B4 }
  - { offset: 0x43240, size: 0x8, addend: 0x0, symName: _llama_adapter_meta_count, symObjAddr: 0x2EF0, symBinAddr: 0x3A30, symSize: 0x8 }
  - { offset: 0x4326E, size: 0x8, addend: 0x0, symName: _llama_adapter_meta_count, symObjAddr: 0x2EF0, symBinAddr: 0x3A30, symSize: 0x8 }
  - { offset: 0x4328D, size: 0x8, addend: 0x0, symName: _llama_adapter_meta_count, symObjAddr: 0x2EF0, symBinAddr: 0x3A30, symSize: 0x8 }
  - { offset: 0x43360, size: 0x8, addend: 0x0, symName: _llama_adapter_meta_key_by_index, symObjAddr: 0x2EF8, symBinAddr: 0x3A38, symSize: 0x84 }
  - { offset: 0x4359A, size: 0x8, addend: 0x0, symName: _llama_adapter_meta_val_str_by_index, symObjAddr: 0x2F7C, symBinAddr: 0x3ABC, symSize: 0x84 }
  - { offset: 0x4378B, size: 0x8, addend: 0x0, symName: _llama_adapter_lora_free, symObjAddr: 0x3000, symBinAddr: 0x3B40, symSize: 0x4 }
  - { offset: 0x437AE, size: 0x8, addend: 0x0, symName: _llama_adapter_get_alora_n_invocation_tokens, symObjAddr: 0x3004, symBinAddr: 0x3B44, symSize: 0x14 }
  - { offset: 0x43810, size: 0x8, addend: 0x0, symName: _llama_adapter_get_alora_invocation_tokens, symObjAddr: 0x3018, symBinAddr: 0x3B58, symSize: 0x3C }
  - { offset: 0x4385E, size: 0x8, addend: 0x0, symName: __ZSt28__throw_bad_array_new_lengthB8ne200100v, symObjAddr: 0x3054, symBinAddr: 0x3B94, symSize: 0x28 }
  - { offset: 0x438AF, size: 0x8, addend: 0x0, symName: __ZNSt12length_errorC1B8ne200100EPKc, symObjAddr: 0x328C, symBinAddr: 0x3DCC, symSize: 0x24 }
  - { offset: 0x43E47, size: 0x8, addend: 0x0, symName: __ZNSt3__16vectorIhNS_9allocatorIhEEE20__throw_length_errorB8ne200100Ev, symObjAddr: 0x4BC8, symBinAddr: 0x5708, symSize: 0x14 }
  - { offset: 0x43E5F, size: 0x8, addend: 0x0, symName: __ZNSt3__112__hash_tableIP18llama_adapter_loraNS_4hashIS2_EENS_8equal_toIS2_EENS_9allocatorIS2_EEE25__emplace_unique_key_argsIS2_JS2_EEENS_4pairINS_15__hash_iteratorIPNS_11__hash_nodeIS2_PvEEEEbEERKT_DpOT0_, symObjAddr: 0x4BDC, symBinAddr: 0x571C, symSize: 0x358 }
  - { offset: 0x442F1, size: 0x8, addend: 0x0, symName: __ZNSt3__14pairIKNS_12basic_stringIcNS_11char_traitsIcEENS_9allocatorIcEEEES6_EC2B8ne200100IRPKcRS7_Li0EEEOT_OT0_, symObjAddr: 0x37BC, symBinAddr: 0x42FC, symSize: 0x108 }
  - { offset: 0x446FC, size: 0x8, addend: 0x0, symName: __ZNKSt3__121__murmur2_or_cityhashImLm64EEclB8ne200100EPKvm, symObjAddr: 0x38C4, symBinAddr: 0x4404, symSize: 0x44C }
  - { offset: 0x450A0, size: 0x8, addend: 0x0, symName: __ZNSt3__112__hash_tableINS_17__hash_value_typeINS_12basic_stringIcNS_11char_traitsIcEENS_9allocatorIcEEEES7_EENS_22__unordered_map_hasherIS7_S8_NS_4hashIS7_EENS_8equal_toIS7_EELb1EEENS_21__unordered_map_equalIS7_S8_SD_SB_Lb1EEENS5_IS8_EEE20__node_insert_uniqueEPNS_11__hash_nodeIS8_PvEE, symObjAddr: 0x360C, symBinAddr: 0x414C, symSize: 0x144 }
  - { offset: 0x45313, size: 0x8, addend: 0x0, symName: __ZNSt3__110unique_ptrINS_11__hash_nodeINS_17__hash_value_typeINS_12basic_stringIcNS_11char_traitsIcEENS_9allocatorIcEEEES8_EEPvEENS_22__hash_node_destructorINS6_ISB_EEEEED1B8ne200100Ev, symObjAddr: 0x3750, symBinAddr: 0x4290, symSize: 0x6C }
  - { offset: 0x45732, size: 0x8, addend: 0x0, symName: __ZNSt3__112__hash_tableINS_17__hash_value_typeINS_12basic_stringIcNS_11char_traitsIcEENS_9allocatorIcEEEES7_EENS_22__unordered_map_hasherIS7_S8_NS_4hashIS7_EENS_8equal_toIS7_EELb1EEENS_21__unordered_map_equalIS7_S8_SD_SB_Lb1EEENS5_IS8_EEE28__node_insert_unique_prepareB8ne200100EmRS8_, symObjAddr: 0x3D10, symBinAddr: 0x4850, symSize: 0x2A4 }
  - { offset: 0x45DA0, size: 0x8, addend: 0x0, symName: __ZNSt3__112__hash_tableINS_17__hash_value_typeINS_12basic_stringIcNS_11char_traitsIcEENS_9allocatorIcEEEES7_EENS_22__unordered_map_hasherIS7_S8_NS_4hashIS7_EENS_8equal_toIS7_EELb1EEENS_21__unordered_map_equalIS7_S8_SD_SB_Lb1EEENS5_IS8_EEE11__do_rehashILb1EEEvm, symObjAddr: 0x3FB4, symBinAddr: 0x4AF4, symSize: 0x180 }
  - { offset: 0x4612D, size: 0x8, addend: 0x0, symName: __ZNSt3__112basic_stringIcNS_11char_traitsIcEENS_9allocatorIcEEE20__throw_out_of_rangeB8ne200100Ev, symObjAddr: 0x4134, symBinAddr: 0x4C74, symSize: 0x14 }
  - { offset: 0x46252, size: 0x8, addend: 0x0, symName: __ZNSt12out_of_rangeC1B8ne200100EPKc, symObjAddr: 0x4198, symBinAddr: 0x4CD8, symSize: 0x24 }
  - { offset: 0x465ED, size: 0x8, addend: 0x0, symName: __ZNSt3__16vectorIiNS_9allocatorIiEEE20__throw_length_errorB8ne200100Ev, symObjAddr: 0x4378, symBinAddr: 0x4EB8, symSize: 0x14 }
  - { offset: 0x46605, size: 0x8, addend: 0x0, symName: __ZNSt3__16__treeINS_12__value_typeINS_12basic_stringIcNS_11char_traitsIcEENS_9allocatorIcEEEE25llama_adapter_lora_weightEENS_19__map_value_compareIS7_S9_NS_4lessIS7_EELb1EEENS5_IS9_EEE25__emplace_unique_key_argsIS7_JRKNS_21piecewise_construct_tENS_5tupleIJRKS7_EEENSK_IJEEEEEENS_4pairINS_15__tree_iteratorIS9_PNS_11__tree_nodeIS9_PvEElEEbEERKT_DpOT0_, symObjAddr: 0x438C, symBinAddr: 0x4ECC, symSize: 0x1B0 }
  - { offset: 0x46A30, size: 0x8, addend: 0x0, symName: __ZNSt3__110unique_ptrINS_11__tree_nodeINS_12__value_typeINS_12basic_stringIcNS_11char_traitsIcEENS_9allocatorIcEEEE25llama_adapter_lora_weightEEPvEENS_22__tree_node_destructorINS6_ISC_EEEEED1B8ne200100Ev, symObjAddr: 0x453C, symBinAddr: 0x507C, symSize: 0x60 }
  - { offset: 0x4725C, size: 0x8, addend: 0x0, symName: __ZNSt3__112__hash_tableINS_17__hash_value_typeINS_12basic_stringIcNS_11char_traitsIcEENS_9allocatorIcEEEE25llama_adapter_lora_weightEENS_22__unordered_map_hasherIS7_S9_NS_4hashIS7_EENS_8equal_toIS7_EELb1EEENS_21__unordered_map_equalIS7_S9_SE_SC_Lb1EEENS5_IS9_EEE11__do_rehashILb1EEEvm, symObjAddr: 0x4A34, symBinAddr: 0x5574, symSize: 0x180 }
  - { offset: 0x475E9, size: 0x8, addend: 0x0, symName: __ZNSt3__16vectorINS_10unique_ptrI19ggml_backend_buffer27ggml_backend_buffer_deleterEENS_9allocatorIS4_EEE20__throw_length_errorB8ne200100Ev, symObjAddr: 0x4BB4, symBinAddr: 0x56F4, symSize: 0x14 }
  - { offset: 0x475FE, size: 0x8, addend: 0x0, symName: __ZNSt3__110unique_ptrINS_11__hash_nodeINS_17__hash_value_typeINS_12basic_stringIcNS_11char_traitsIcEENS_9allocatorIcEEEE25llama_adapter_lora_weightEEPvEENS_22__hash_node_destructorINS6_ISC_EEEEED1B8ne200100Ev, symObjAddr: 0x49D4, symBinAddr: 0x5514, symSize: 0x60 }
  - { offset: 0x47F3B, size: 0x8, addend: 0x0, symName: __ZNSt3__112__hash_tableIP18llama_adapter_loraNS_4hashIS2_EENS_8equal_toIS2_EENS_9allocatorIS2_EEE11__do_rehashILb1EEEvm, symObjAddr: 0x4F34, symBinAddr: 0x5A74, symSize: 0x180 }
  - { offset: 0x482C8, size: 0x8, addend: 0x0, symName: __ZNSt3__16__treeINS_12__value_typeINS_12basic_stringIcNS_11char_traitsIcEENS_9allocatorIcEEEE25llama_adapter_lora_weightEENS_19__map_value_compareIS7_S9_NS_4lessIS7_EELb1EEENS5_IS9_EEE7destroyEPNS_11__tree_nodeIS9_PvEE, symObjAddr: 0x50B4, symBinAddr: 0x5BF4, symSize: 0x60 }
  - { offset: 0x4ACFE, size: 0x8, addend: 0x0, symName: __MergedGlobals, symObjAddr: 0x71B78, symBinAddr: 0x35C030, symSize: 0x0 }
  - { offset: 0x5A8ED, size: 0x8, addend: 0x0, symName: __MergedGlobals, symObjAddr: 0x71B78, symBinAddr: 0x35C030, symSize: 0x0 }
  - { offset: 0x5AD15, size: 0x8, addend: 0x0, symName: __MergedGlobals, symObjAddr: 0x71B78, symBinAddr: 0x35C030, symSize: 0x0 }
  - { offset: 0x5B5E2, size: 0x8, addend: 0x0, symName: __MergedGlobals, symObjAddr: 0x71B78, symBinAddr: 0x35C030, symSize: 0x0 }
  - { offset: 0x5BD7D, size: 0x8, addend: 0x0, symName: __ZNSt3__13mapI8llm_archPKcNS_4lessIS1_EENS_9allocatorINS_4pairIKS1_S3_EEEEED1B8ne200100Ev, symObjAddr: 0x0, symBinAddr: 0x6180, symSize: 0x28 }
  - { offset: 0x5BE31, size: 0x8, addend: 0x0, symName: __ZNSt3__16__treeINS_12__value_typeI8llm_archPKcEENS_19__map_value_compareIS2_S5_NS_4lessIS2_EELb1EEENS_9allocatorIS5_EEE7destroyEPNS_11__tree_nodeIS5_PvEE, symObjAddr: 0x1748, symBinAddr: 0x770C, symSize: 0x44 }
  - { offset: 0x5BFBC, size: 0x8, addend: 0x0, symName: __ZNSt3__13mapI6llm_kvPKcNS_4lessIS1_EENS_9allocatorINS_4pairIKS1_S3_EEEEED1B8ne200100Ev, symObjAddr: 0x28, symBinAddr: 0x61A8, symSize: 0x28 }
  - { offset: 0x5C070, size: 0x8, addend: 0x0, symName: __ZNSt3__16__treeINS_12__value_typeI6llm_kvPKcEENS_19__map_value_compareIS2_S5_NS_4lessIS2_EELb1EEENS_9allocatorIS5_EEE7destroyEPNS_11__tree_nodeIS5_PvEE, symObjAddr: 0x1A28, symBinAddr: 0x79EC, symSize: 0x44 }
  - { offset: 0x5C1FB, size: 0x8, addend: 0x0, symName: __ZNSt3__13mapI10llm_tensorPKcNS_4lessIS1_EENS_9allocatorINS_4pairIKS1_S3_EEEEED1B8ne200100Ev, symObjAddr: 0x50, symBinAddr: 0x61D0, symSize: 0x28 }
  - { offset: 0x5C2AF, size: 0x8, addend: 0x0, symName: __ZNSt3__16__treeINS_12__value_typeI10llm_tensorPKcEENS_19__map_value_compareIS2_S5_NS_4lessIS2_EELb1EEENS_9allocatorIS5_EEE7destroyEPNS_11__tree_nodeIS5_PvEE, symObjAddr: 0x1D08, symBinAddr: 0x7CCC, symSize: 0x44 }
  - { offset: 0x5C43A, size: 0x8, addend: 0x0, symName: __ZNSt3__13mapI10llm_tensor15llm_tensor_infoNS_4lessIS1_EENS_9allocatorINS_4pairIKS1_S2_EEEEED1B8ne200100Ev, symObjAddr: 0x78, symBinAddr: 0x61F8, symSize: 0x28 }
  - { offset: 0x5C4EE, size: 0x8, addend: 0x0, symName: __ZNSt3__16__treeINS_12__value_typeI10llm_tensor15llm_tensor_infoEENS_19__map_value_compareIS2_S4_NS_4lessIS2_EELb1EEENS_9allocatorIS4_EEE7destroyEPNS_11__tree_nodeIS4_PvEE, symObjAddr: 0x1FF4, symBinAddr: 0x7FB8, symSize: 0x44 }
  - { offset: 0x5C60A, size: 0x8, addend: 0x0, symName: __ZN6LLM_KVC2E8llm_archPKc, symObjAddr: 0xA0, symBinAddr: 0x6220, symSize: 0xC }
  - { offset: 0x5C673, size: 0x8, addend: 0x0, symName: __ZN6LLM_KVC1E8llm_archPKc, symObjAddr: 0xAC, symBinAddr: 0x622C, symSize: 0xC }
  - { offset: 0x5C6BD, size: 0x8, addend: 0x0, symName: __ZN6LLM_KVC1E8llm_archPKc, symObjAddr: 0xAC, symBinAddr: 0x622C, symSize: 0xC }
  - { offset: 0x5CA3D, size: 0x8, addend: 0x0, symName: __ZNK6LLM_KVclE6llm_kv, symObjAddr: 0xB8, symBinAddr: 0x6238, symSize: 0xF4 }
  - { offset: 0x5CF64, size: 0x8, addend: 0x0, symName: __ZN11LLM_TN_IMPLC2E8llm_arch10llm_tensorPKcii, symObjAddr: 0x1AC, symBinAddr: 0x632C, symSize: 0xA38 }
  - { offset: 0x5D126, size: 0x8, addend: 0x0, symName: __ZN11LLM_TN_IMPLC1E8llm_arch10llm_tensorPKcii, symObjAddr: 0xBE4, symBinAddr: 0x6D64, symSize: 0x4 }
  - { offset: 0x5D139, size: 0x8, addend: 0x0, symName: __ZNSt3__13setI10llm_tensorNS_4lessIS1_EENS_9allocatorIS1_EEEC2B8ne200100ESt16initializer_listIS1_ERKS3_, symObjAddr: 0x1010, symBinAddr: 0x7190, symSize: 0xEC }
  - { offset: 0x5D4B5, size: 0x8, addend: 0x0, symName: __ZN11LLM_TN_IMPLC1E8llm_arch10llm_tensorPKcii, symObjAddr: 0xBE4, symBinAddr: 0x6D64, symSize: 0x4 }
  - { offset: 0x5D52A, size: 0x8, addend: 0x0, symName: __ZN11LLM_TN_IMPLC1E8llm_arch10llm_tensorPKcii, symObjAddr: 0xBE4, symBinAddr: 0x6D64, symSize: 0x4 }
  - { offset: 0x5D9D3, size: 0x8, addend: 0x0, symName: __ZNK11LLM_TN_IMPL3strEv, symObjAddr: 0xBE8, symBinAddr: 0x6D68, symSize: 0x1F8 }
  - { offset: 0x5E245, size: 0x8, addend: 0x0, symName: __Z13llm_arch_name8llm_arch, symObjAddr: 0xDE0, symBinAddr: 0x6F60, symSize: 0x58 }
  - { offset: 0x5E287, size: 0x8, addend: 0x0, symName: __Z13llm_arch_name8llm_arch, symObjAddr: 0xDE0, symBinAddr: 0x6F60, symSize: 0x58 }
  - { offset: 0x5E29C, size: 0x8, addend: 0x0, symName: __Z13llm_arch_name8llm_arch, symObjAddr: 0xDE0, symBinAddr: 0x6F60, symSize: 0x58 }
  - { offset: 0x5E2BA, size: 0x8, addend: 0x0, symName: __Z13llm_arch_name8llm_arch, symObjAddr: 0xDE0, symBinAddr: 0x6F60, symSize: 0x58 }
  - { offset: 0x5E480, size: 0x8, addend: 0x0, symName: __Z20llm_arch_from_stringRKNSt3__112basic_stringIcNS_11char_traitsIcEENS_9allocatorIcEEEE, symObjAddr: 0xE38, symBinAddr: 0x6FB8, symSize: 0x108 }
  - { offset: 0x5E81F, size: 0x8, addend: 0x0, symName: __Z19llm_tensor_info_for10llm_tensor, symObjAddr: 0xF40, symBinAddr: 0x70C0, symSize: 0x50 }
  - { offset: 0x5E904, size: 0x8, addend: 0x0, symName: __Z21llm_arch_is_recurrentRK8llm_arch, symObjAddr: 0xF90, symBinAddr: 0x7110, symSize: 0x20 }
  - { offset: 0x5E934, size: 0x8, addend: 0x0, symName: __Z18llm_arch_is_hybridRK8llm_arch, symObjAddr: 0xFB0, symBinAddr: 0x7130, symSize: 0x40 }
  - { offset: 0x5E964, size: 0x8, addend: 0x0, symName: __Z21llm_arch_is_diffusionRK8llm_arch, symObjAddr: 0xFF0, symBinAddr: 0x7170, symSize: 0x20 }
  - { offset: 0x5EC25, size: 0x8, addend: 0x0, symName: __ZNSt3__16__treeI10llm_tensorNS_4lessIS1_EENS_9allocatorIS1_EEE12__find_equalIS1_EERPNS_16__tree_node_baseIPvEENS_21__tree_const_iteratorIS1_PNS_11__tree_nodeIS1_S9_EElEERPNS_15__tree_end_nodeISB_EESC_RKT_, symObjAddr: 0x10FC, symBinAddr: 0x727C, symSize: 0x1B0 }
  - { offset: 0x5EC88, size: 0x8, addend: 0x0, symName: __ZNSt3__16__treeI10llm_tensorNS_4lessIS1_EENS_9allocatorIS1_EEE12__find_equalIS1_EERPNS_16__tree_node_baseIPvEENS_21__tree_const_iteratorIS1_PNS_11__tree_nodeIS1_S9_EElEERPNS_15__tree_end_nodeISB_EESC_RKT_, symObjAddr: 0x10FC, symBinAddr: 0x727C, symSize: 0x1B0 }
  - { offset: 0x5ECA4, size: 0x8, addend: 0x0, symName: __ZNSt3__16__treeI10llm_tensorNS_4lessIS1_EENS_9allocatorIS1_EEE12__find_equalIS1_EERPNS_16__tree_node_baseIPvEENS_21__tree_const_iteratorIS1_PNS_11__tree_nodeIS1_S9_EElEERPNS_15__tree_end_nodeISB_EESC_RKT_, symObjAddr: 0x10FC, symBinAddr: 0x727C, symSize: 0x1B0 }
  - { offset: 0x5EF2F, size: 0x8, addend: 0x0, symName: __ZNSt3__16__treeI10llm_tensorNS_4lessIS1_EENS_9allocatorIS1_EEE7destroyEPNS_11__tree_nodeIS1_PvEE, symObjAddr: 0x1468, symBinAddr: 0x742C, symSize: 0x44 }
  - { offset: 0x5F47C, size: 0x8, addend: 0x0, symName: __ZNSt3__13mapI8llm_archPKcNS_4lessIS1_EENS_9allocatorINS_4pairIKS1_S3_EEEEEC2B8ne200100ESt16initializer_listIS9_ERKS5_, symObjAddr: 0x14AC, symBinAddr: 0x7470, symSize: 0xEC }
  - { offset: 0x5F807, size: 0x8, addend: 0x0, symName: __ZNSt3__16__treeINS_12__value_typeI8llm_archPKcEENS_19__map_value_compareIS2_S5_NS_4lessIS2_EELb1EEENS_9allocatorIS5_EEE12__find_equalIS2_EERPNS_16__tree_node_baseIPvEENS_21__tree_const_iteratorIS5_PNS_11__tree_nodeIS5_SF_EElEERPNS_15__tree_end_nodeISH_EESI_RKT_, symObjAddr: 0x1598, symBinAddr: 0x755C, symSize: 0x1B0 }
  - { offset: 0x5F86A, size: 0x8, addend: 0x0, symName: __ZNSt3__16__treeINS_12__value_typeI8llm_archPKcEENS_19__map_value_compareIS2_S5_NS_4lessIS2_EELb1EEENS_9allocatorIS5_EEE12__find_equalIS2_EERPNS_16__tree_node_baseIPvEENS_21__tree_const_iteratorIS5_PNS_11__tree_nodeIS5_SF_EElEERPNS_15__tree_end_nodeISH_EESI_RKT_, symObjAddr: 0x1598, symBinAddr: 0x755C, symSize: 0x1B0 }
  - { offset: 0x5F886, size: 0x8, addend: 0x0, symName: __ZNSt3__16__treeINS_12__value_typeI8llm_archPKcEENS_19__map_value_compareIS2_S5_NS_4lessIS2_EELb1EEENS_9allocatorIS5_EEE12__find_equalIS2_EERPNS_16__tree_node_baseIPvEENS_21__tree_const_iteratorIS5_PNS_11__tree_nodeIS5_SF_EElEERPNS_15__tree_end_nodeISH_EESI_RKT_, symObjAddr: 0x1598, symBinAddr: 0x755C, symSize: 0x1B0 }
  - { offset: 0x5FF50, size: 0x8, addend: 0x0, symName: __ZNSt3__13mapI6llm_kvPKcNS_4lessIS1_EENS_9allocatorINS_4pairIKS1_S3_EEEEEC2B8ne200100ESt16initializer_listIS9_ERKS5_, symObjAddr: 0x178C, symBinAddr: 0x7750, symSize: 0xEC }
  - { offset: 0x602DB, size: 0x8, addend: 0x0, symName: __ZNSt3__16__treeINS_12__value_typeI6llm_kvPKcEENS_19__map_value_compareIS2_S5_NS_4lessIS2_EELb1EEENS_9allocatorIS5_EEE12__find_equalIS2_EERPNS_16__tree_node_baseIPvEENS_21__tree_const_iteratorIS5_PNS_11__tree_nodeIS5_SF_EElEERPNS_15__tree_end_nodeISH_EESI_RKT_, symObjAddr: 0x1878, symBinAddr: 0x783C, symSize: 0x1B0 }
  - { offset: 0x6033E, size: 0x8, addend: 0x0, symName: __ZNSt3__16__treeINS_12__value_typeI6llm_kvPKcEENS_19__map_value_compareIS2_S5_NS_4lessIS2_EELb1EEENS_9allocatorIS5_EEE12__find_equalIS2_EERPNS_16__tree_node_baseIPvEENS_21__tree_const_iteratorIS5_PNS_11__tree_nodeIS5_SF_EElEERPNS_15__tree_end_nodeISH_EESI_RKT_, symObjAddr: 0x1878, symBinAddr: 0x783C, symSize: 0x1B0 }
  - { offset: 0x6035A, size: 0x8, addend: 0x0, symName: __ZNSt3__16__treeINS_12__value_typeI6llm_kvPKcEENS_19__map_value_compareIS2_S5_NS_4lessIS2_EELb1EEENS_9allocatorIS5_EEE12__find_equalIS2_EERPNS_16__tree_node_baseIPvEENS_21__tree_const_iteratorIS5_PNS_11__tree_nodeIS5_SF_EElEERPNS_15__tree_end_nodeISH_EESI_RKT_, symObjAddr: 0x1878, symBinAddr: 0x783C, symSize: 0x1B0 }
  - { offset: 0x60A6E, size: 0x8, addend: 0x0, symName: __ZNSt3__13mapI10llm_tensorPKcNS_4lessIS1_EENS_9allocatorINS_4pairIKS1_S3_EEEEEC2B8ne200100ESt16initializer_listIS9_ERKS5_, symObjAddr: 0x1A6C, symBinAddr: 0x7A30, symSize: 0xEC }
  - { offset: 0x60DF9, size: 0x8, addend: 0x0, symName: __ZNSt3__16__treeINS_12__value_typeI10llm_tensorPKcEENS_19__map_value_compareIS2_S5_NS_4lessIS2_EELb1EEENS_9allocatorIS5_EEE12__find_equalIS2_EERPNS_16__tree_node_baseIPvEENS_21__tree_const_iteratorIS5_PNS_11__tree_nodeIS5_SF_EElEERPNS_15__tree_end_nodeISH_EESI_RKT_, symObjAddr: 0x1B58, symBinAddr: 0x7B1C, symSize: 0x1B0 }
  - { offset: 0x60E5C, size: 0x8, addend: 0x0, symName: __ZNSt3__16__treeINS_12__value_typeI10llm_tensorPKcEENS_19__map_value_compareIS2_S5_NS_4lessIS2_EELb1EEENS_9allocatorIS5_EEE12__find_equalIS2_EERPNS_16__tree_node_baseIPvEENS_21__tree_const_iteratorIS5_PNS_11__tree_nodeIS5_SF_EElEERPNS_15__tree_end_nodeISH_EESI_RKT_, symObjAddr: 0x1B58, symBinAddr: 0x7B1C, symSize: 0x1B0 }
  - { offset: 0x60E78, size: 0x8, addend: 0x0, symName: __ZNSt3__16__treeINS_12__value_typeI10llm_tensorPKcEENS_19__map_value_compareIS2_S5_NS_4lessIS2_EELb1EEENS_9allocatorIS5_EEE12__find_equalIS2_EERPNS_16__tree_node_baseIPvEENS_21__tree_const_iteratorIS5_PNS_11__tree_nodeIS5_SF_EElEERPNS_15__tree_end_nodeISH_EESI_RKT_, symObjAddr: 0x1B58, symBinAddr: 0x7B1C, symSize: 0x1B0 }
  - { offset: 0x6155E, size: 0x8, addend: 0x0, symName: __ZNSt3__13mapI10llm_tensor15llm_tensor_infoNS_4lessIS1_EENS_9allocatorINS_4pairIKS1_S2_EEEEEC2B8ne200100ESt16initializer_listIS8_ERKS4_, symObjAddr: 0x1D4C, symBinAddr: 0x7D10, symSize: 0xF8 }
  - { offset: 0x618E9, size: 0x8, addend: 0x0, symName: __ZNSt3__16__treeINS_12__value_typeI10llm_tensor15llm_tensor_infoEENS_19__map_value_compareIS2_S4_NS_4lessIS2_EELb1EEENS_9allocatorIS4_EEE12__find_equalIS2_EERPNS_16__tree_node_baseIPvEENS_21__tree_const_iteratorIS4_PNS_11__tree_nodeIS4_SE_EElEERPNS_15__tree_end_nodeISG_EESH_RKT_, symObjAddr: 0x1E44, symBinAddr: 0x7E08, symSize: 0x1B0 }
  - { offset: 0x6194C, size: 0x8, addend: 0x0, symName: __ZNSt3__16__treeINS_12__value_typeI10llm_tensor15llm_tensor_infoEENS_19__map_value_compareIS2_S4_NS_4lessIS2_EELb1EEENS_9allocatorIS4_EEE12__find_equalIS2_EERPNS_16__tree_node_baseIPvEENS_21__tree_const_iteratorIS4_PNS_11__tree_nodeIS4_SE_EElEERPNS_15__tree_end_nodeISG_EESH_RKT_, symObjAddr: 0x1E44, symBinAddr: 0x7E08, symSize: 0x1B0 }
  - { offset: 0x61968, size: 0x8, addend: 0x0, symName: __ZNSt3__16__treeINS_12__value_typeI10llm_tensor15llm_tensor_infoEENS_19__map_value_compareIS2_S4_NS_4lessIS2_EELb1EEENS_9allocatorIS4_EEE12__find_equalIS2_EERPNS_16__tree_node_baseIPvEENS_21__tree_const_iteratorIS4_PNS_11__tree_nodeIS4_SE_EElEERPNS_15__tree_end_nodeISG_EESH_RKT_, symObjAddr: 0x1E44, symBinAddr: 0x7E08, symSize: 0x1B0 }
  - { offset: 0x61F53, size: 0x8, addend: 0x0, symName: __GLOBAL__sub_I_llama_arch.cpp, symObjAddr: 0x4254, symBinAddr: 0x7FFC, symSize: 0x154 }
  - { offset: 0x73B2F, size: 0x8, addend: 0x0, symName: __ZNSt3__124__put_character_sequenceB8ne200100IcNS_11char_traitsIcEEEERNS_13basic_ostreamIT_T0_EES7_PKS4_m, symObjAddr: 0x5920, symBinAddr: 0xD81C, symSize: 0x16C }
  - { offset: 0x7AE89, size: 0x8, addend: 0x0, symName: __ZNSt3__116__pad_and_outputB8ne200100IcNS_11char_traitsIcEEEENS_19ostreambuf_iteratorIT_T0_EES6_PKS4_S8_S8_RNS_8ios_baseES4_, symObjAddr: 0x5A8C, symBinAddr: 0xD988, symSize: 0x19C }
  - { offset: 0x7F4E9, size: 0x8, addend: 0x0, symName: __ZN18llama_batch_allocrC2Ej, symObjAddr: 0x0, symBinAddr: 0x8150, symSize: 0x2D0 }
  - { offset: 0x802C9, size: 0x8, addend: 0x0, symName: __ZNSt3__16vectorINS_3setIiNS_4lessIiEENS_9allocatorIiEEEENS4_IS6_EEE8__appendEm, symObjAddr: 0x48AC, symBinAddr: 0xC9EC, symSize: 0x224 }
  - { offset: 0x8096D, size: 0x8, addend: 0x0, symName: __ZNSt3__16vectorINS_3setIiNS_4lessIiEENS_9allocatorIiEEEENS4_IS6_EEE20__throw_length_errorB8ne200100Ev, symObjAddr: 0x4AD0, symBinAddr: 0xCC10, symSize: 0x14 }
  - { offset: 0x80978, size: 0x8, addend: 0x0, symName: __ZNSt3__16vectorINS0_IbNS_9allocatorIbEEEENS1_IS3_EEE8__appendEm, symObjAddr: 0x4B80, symBinAddr: 0xCC24, symSize: 0x1CC }
  - { offset: 0x80FDB, size: 0x8, addend: 0x0, symName: __ZNSt3__16vectorINS0_IbNS_9allocatorIbEEEENS1_IS3_EEE20__throw_length_errorB8ne200100Ev, symObjAddr: 0x4D4C, symBinAddr: 0xCDF0, symSize: 0x14 }
  - { offset: 0x80FE6, size: 0x8, addend: 0x0, symName: __ZNSt3__16vectorIbNS_9allocatorIbEEE6resizeEmb, symObjAddr: 0x2D0, symBinAddr: 0x8420, symSize: 0x264 }
  - { offset: 0x817C1, size: 0x8, addend: 0x0, symName: __ZNSt3__16vectorIiNS_9allocatorIiEEE8__appendEmRKi, symObjAddr: 0x4E7C, symBinAddr: 0xCF20, symSize: 0x234 }
  - { offset: 0x81C16, size: 0x8, addend: 0x0, symName: __ZNSt3__113unordered_mapINS_6bitsetILm256EEENS_6vectorIiNS_9allocatorIiEEEENS_4hashIS2_EENS_8equal_toIS2_EENS4_INS_4pairIKS2_S6_EEEEED1B8ne200100Ev, symObjAddr: 0x534, symBinAddr: 0x8684, symSize: 0x68 }
  - { offset: 0x8203A, size: 0x8, addend: 0x0, symName: __ZNSt3__16vectorINS0_IbNS_9allocatorIbEEEENS1_IS3_EEED1B8ne200100Ev, symObjAddr: 0x59C, symBinAddr: 0x86EC, symSize: 0x68 }
  - { offset: 0x822A8, size: 0x8, addend: 0x0, symName: __ZNSt3__16vectorINS_3setIiNS_4lessIiEENS_9allocatorIiEEEENS4_IS6_EEED1B8ne200100Ev, symObjAddr: 0x604, symBinAddr: 0x8754, symSize: 0x68 }
  - { offset: 0x826D5, size: 0x8, addend: 0x0, symName: __ZNSt3__16vectorIbNS_9allocatorIbEEE7reserveEm, symObjAddr: 0x4D60, symBinAddr: 0xCE04, symSize: 0x108 }
  - { offset: 0x82AD8, size: 0x8, addend: 0x0, symName: __ZNSt3__16vectorIbNS_9allocatorIbEEE20__throw_length_errorB8ne200100Ev, symObjAddr: 0x4E68, symBinAddr: 0xCF0C, symSize: 0x14 }
  - { offset: 0x82AE3, size: 0x8, addend: 0x0, symName: __ZNSt3__16vectorIbNS_9allocatorIbEEE20__throw_length_errorB8ne200100Ev, symObjAddr: 0x4E68, symBinAddr: 0xCF0C, symSize: 0x14 }
  - { offset: 0x82AFB, size: 0x8, addend: 0x0, symName: __ZNSt3__16vectorIiNS_9allocatorIiEEE8__appendEmRKi, symObjAddr: 0x4E7C, symBinAddr: 0xCF20, symSize: 0x234 }
  - { offset: 0x82FF6, size: 0x8, addend: 0x0, symName: __ZNSt3__16__treeIiNS_4lessIiEENS_9allocatorIiEEE7destroyEPNS_11__tree_nodeIiPvEE, symObjAddr: 0x4868, symBinAddr: 0xC9A8, symSize: 0x44 }
  - { offset: 0x8310D, size: 0x8, addend: 0x0, symName: __ZN18llama_batch_allocrC1Ej, symObjAddr: 0x66C, symBinAddr: 0x87BC, symSize: 0x4 }
  - { offset: 0x83149, size: 0x8, addend: 0x0, symName: __ZN18llama_batch_allocrC1Ej, symObjAddr: 0x66C, symBinAddr: 0x87BC, symSize: 0x4 }
  - { offset: 0x848A3, size: 0x8, addend: 0x0, symName: __ZN18llama_batch_allocr4initERK11llama_batchRK11llama_vocabPK14llama_memory_ijjb, symObjAddr: 0x670, symBinAddr: 0x87C0, symSize: 0x18A8 }
  - { offset: 0x884A9, size: 0x8, addend: 0x0, symName: __ZN18llama_batch_allocr5clearEv, symObjAddr: 0x1F18, symBinAddr: 0xA068, symSize: 0x194 }
  - { offset: 0x89068, size: 0x8, addend: 0x0, symName: __ZNSt3__16vectorIPiNS_9allocatorIS1_EEE8__appendEm, symObjAddr: 0x51E4, symBinAddr: 0xD154, symSize: 0x120 }
  - { offset: 0x89073, size: 0x8, addend: 0x0, symName: __ZNSt3__16vectorIPiNS_9allocatorIS1_EEE8__appendEm, symObjAddr: 0x51E4, symBinAddr: 0xD154, symSize: 0x120 }
  - { offset: 0x89451, size: 0x8, addend: 0x0, symName: __ZNSt3__16vectorIPiNS_9allocatorIS1_EEE20__throw_length_errorB8ne200100Ev, symObjAddr: 0x5304, symBinAddr: 0xD274, symSize: 0x14 }
  - { offset: 0x8946E, size: 0x8, addend: 0x0, symName: __ZNSt3__112__hash_tableINS_17__hash_value_typeINS_6bitsetILm256EEENS_6vectorIiNS_9allocatorIiEEEEEENS_22__unordered_map_hasherIS3_S8_NS_4hashIS3_EENS_8equal_toIS3_EELb1EEENS_21__unordered_map_equalIS3_S8_SD_SB_Lb1EEENS5_IS8_EEE25__emplace_unique_key_argsIS3_JRKNS_21piecewise_construct_tENS_5tupleIJRKS3_EEENSN_IJEEEEEENS_4pairINS_15__hash_iteratorIPNS_11__hash_nodeIS8_PvEEEEbEERKT_DpOT0_, symObjAddr: 0x53B4, symBinAddr: 0xD2B0, symSize: 0x38C }
  - { offset: 0x89C88, size: 0x8, addend: 0x0, symName: __ZN18llama_batch_allocr12ubatch_printERK12llama_ubatchi, symObjAddr: 0x2198, symBinAddr: 0xA2E8, symSize: 0x924 }
  - { offset: 0x8B053, size: 0x8, addend: 0x0, symName: __ZNSt3__118basic_stringstreamIcNS_11char_traitsIcEENS_9allocatorIcEEEC1B8ne200100Ev, symObjAddr: 0x2ABC, symBinAddr: 0xAC0C, symSize: 0x194 }
  - { offset: 0x8B3BE, size: 0x8, addend: 0x0, symName: __ZNSt3__16vectorINS_6bitsetILm256EEENS_9allocatorIS2_EEE20__throw_length_errorB8ne200100Ev, symObjAddr: 0x53A0, symBinAddr: 0xD29C, symSize: 0x14 }
  - { offset: 0x8B3D6, size: 0x8, addend: 0x0, symName: __ZNSt3__112__hash_tableINS_17__hash_value_typeINS_6bitsetILm256EEENS_6vectorIiNS_9allocatorIiEEEEEENS_22__unordered_map_hasherIS3_S8_NS_4hashIS3_EENS_8equal_toIS3_EELb1EEENS_21__unordered_map_equalIS3_S8_SD_SB_Lb1EEENS5_IS8_EEE25__emplace_unique_key_argsIS3_JRKNS_21piecewise_construct_tENS_5tupleIJRKS3_EEENSN_IJEEEEEENS_4pairINS_15__hash_iteratorIPNS_11__hash_nodeIS8_PvEEEEbEERKT_DpOT0_, symObjAddr: 0x53B4, symBinAddr: 0xD2B0, symSize: 0x38C }
  - { offset: 0x8B3FB, size: 0x8, addend: 0x0, symName: __ZNSt3__16vectorIaNS_9allocatorIaEEE20__throw_length_errorB8ne200100Ev, symObjAddr: 0x5318, symBinAddr: 0xD288, symSize: 0x14 }
  - { offset: 0x8B424, size: 0x8, addend: 0x0, symName: __ZN12llama_ubatchD1Ev, symObjAddr: 0x2D50, symBinAddr: 0xAEA0, symSize: 0x5C }
  - { offset: 0x8B4F0, size: 0x8, addend: 0x0, symName: __ZNSt3__118basic_stringstreamIcNS_11char_traitsIcEENS_9allocatorIcEEED1Ev, symObjAddr: 0x2CC8, symBinAddr: 0xAE18, symSize: 0x88 }
  - { offset: 0x8B78F, size: 0x8, addend: 0x0, symName: __ZNSt3__16vectorIiNS_9allocatorIiEEE9push_backB8ne200100ERKi, symObjAddr: 0x20AC, symBinAddr: 0xA1FC, symSize: 0xEC }
  - { offset: 0x8BB94, size: 0x8, addend: 0x0, symName: __ZN18llama_batch_allocr12ubatch_printERK12llama_ubatchi, symObjAddr: 0x2198, symBinAddr: 0xA2E8, symSize: 0x924 }
  - { offset: 0x8BF81, size: 0x8, addend: 0x0, symName: __ZNK18llama_batch_allocr11seq_pos_minEi, symObjAddr: 0x2C50, symBinAddr: 0xADA0, symSize: 0x28 }
  - { offset: 0x8BFAC, size: 0x8, addend: 0x0, symName: __ZNK18llama_batch_allocr11seq_pos_minEi, symObjAddr: 0x2C50, symBinAddr: 0xADA0, symSize: 0x28 }
  - { offset: 0x8C021, size: 0x8, addend: 0x0, symName: __ZNK18llama_batch_allocr11seq_pos_maxEi, symObjAddr: 0x2C78, symBinAddr: 0xADC8, symSize: 0x50 }
  - { offset: 0x8C04C, size: 0x8, addend: 0x0, symName: __ZNK18llama_batch_allocr11seq_pos_maxEi, symObjAddr: 0x2C78, symBinAddr: 0xADC8, symSize: 0x50 }
  - { offset: 0x8C1BC, size: 0x8, addend: 0x0, symName: __ZN18llama_batch_allocr11split_resetEv, symObjAddr: 0x2DAC, symBinAddr: 0xAEFC, symSize: 0x20 }
  - { offset: 0x8C1E0, size: 0x8, addend: 0x0, symName: __ZN18llama_batch_allocr11split_resetEv, symObjAddr: 0x2DAC, symBinAddr: 0xAEFC, symSize: 0x20 }
  - { offset: 0x8C1FF, size: 0x8, addend: 0x0, symName: __ZN18llama_batch_allocr11split_resetEv, symObjAddr: 0x2DAC, symBinAddr: 0xAEFC, symSize: 0x20 }
  - { offset: 0x8C6D2, size: 0x8, addend: 0x0, symName: __ZN18llama_batch_allocr14ubatch_reserveEjj, symObjAddr: 0x2DCC, symBinAddr: 0xAF1C, symSize: 0x458 }
  - { offset: 0x8D7DA, size: 0x8, addend: 0x0, symName: __ZNSt3__110shared_ptrIN12llama_ubatch6data_tEED1B8ne200100Ev, symObjAddr: 0x3224, symBinAddr: 0xB374, symSize: 0x5C }
  - { offset: 0x8D86F, size: 0x8, addend: 0x0, symName: __ZNK18llama_batch_allocr9get_batchEv, symObjAddr: 0x3280, symBinAddr: 0xB3D0, symSize: 0x4 }
  - { offset: 0x8D897, size: 0x8, addend: 0x0, symName: __ZNK18llama_batch_allocr12get_n_tokensEv, symObjAddr: 0x3284, symBinAddr: 0xB3D4, symSize: 0x8 }
  - { offset: 0x8D8B9, size: 0x8, addend: 0x0, symName: __ZNK18llama_batch_allocr13get_n_outputsEv, symObjAddr: 0x328C, symBinAddr: 0xB3DC, symSize: 0x8 }
  - { offset: 0x8D8E3, size: 0x8, addend: 0x0, symName: __ZNK18llama_batch_allocr10get_n_usedEv, symObjAddr: 0x3294, symBinAddr: 0xB3E4, symSize: 0x8 }
  - { offset: 0x8D90D, size: 0x8, addend: 0x0, symName: __ZN18llama_batch_allocr11get_out_idsEv, symObjAddr: 0x329C, symBinAddr: 0xB3EC, symSize: 0x8 }
  - { offset: 0x8D937, size: 0x8, addend: 0x0, symName: __ZN18llama_batch_allocr12split_simpleEj, symObjAddr: 0x32A4, symBinAddr: 0xB3F4, symSize: 0x200 }
  - { offset: 0x8E08C, size: 0x8, addend: 0x0, symName: __ZN18llama_batch_allocr10ubatch_addERKNSt3__16vectorIiNS0_9allocatorIiEEEEjb, symObjAddr: 0x34A4, symBinAddr: 0xB5F4, symSize: 0x8A0 }
  - { offset: 0x8FD50, size: 0x8, addend: 0x0, symName: __ZNSt3__16vectorIfNS_9allocatorIfEEE8__appendEm, symObjAddr: 0x61B0, symBinAddr: 0xE098, symSize: 0x120 }
  - { offset: 0x9012E, size: 0x8, addend: 0x0, symName: __ZNSt3__16vectorIfNS_9allocatorIfEEE20__throw_length_errorB8ne200100Ev, symObjAddr: 0x62D0, symBinAddr: 0xE1B8, symSize: 0x14 }
  - { offset: 0x90642, size: 0x8, addend: 0x0, symName: __ZN18llama_batch_allocr11split_equalEjb, symObjAddr: 0x3D44, symBinAddr: 0xBE94, symSize: 0x67C }
  - { offset: 0x91F75, size: 0x8, addend: 0x0, symName: __ZNSt3__16vectorIiNS_9allocatorIiEEE18__insert_with_sizeB8ne200100INS_11__wrap_iterIPiEES7_EES7_NS5_IPKiEET_T0_l, symObjAddr: 0x5DB4, symBinAddr: 0xDC9C, symSize: 0x3FC }
  - { offset: 0x92A23, size: 0x8, addend: 0x0, symName: __ZNSt3__16vectorIfNS_9allocatorIfEEE8__appendEm, symObjAddr: 0x61B0, symBinAddr: 0xE098, symSize: 0x120 }
  - { offset: 0x92A40, size: 0x8, addend: 0x0, symName: __ZNSt3__128__exception_guard_exceptionsINS_6vectorINS1_IiNS_9allocatorIiEEEENS2_IS4_EEE16__destroy_vectorEED1B8ne200100Ev, symObjAddr: 0x5D30, symBinAddr: 0xDC18, symSize: 0x84 }
  - { offset: 0x92CCD, size: 0x8, addend: 0x0, symName: __ZNSt3__16vectorINS0_IiNS_9allocatorIiEEEENS1_IS3_EEED1B8ne200100Ev, symObjAddr: 0x43C0, symBinAddr: 0xC510, symSize: 0x74 }
  - { offset: 0x92F94, size: 0x8, addend: 0x0, symName: __ZN18llama_batch_allocr9split_seqEj, symObjAddr: 0x4434, symBinAddr: 0xC584, symSize: 0x2A8 }
  - { offset: 0x9389B, size: 0x8, addend: 0x0, symName: _llama_batch_get_one, symObjAddr: 0x46DC, symBinAddr: 0xC82C, symSize: 0x1C }
  - { offset: 0x938D3, size: 0x8, addend: 0x0, symName: _llama_batch_init, symObjAddr: 0x46F8, symBinAddr: 0xC848, symSize: 0xD0 }
  - { offset: 0x939CC, size: 0x8, addend: 0x0, symName: _llama_batch_free, symObjAddr: 0x47C8, symBinAddr: 0xC918, symSize: 0x90 }
  - { offset: 0x93F9B, size: 0x8, addend: 0x0, symName: __ZNSt3__16vectorINS_3setIiNS_4lessIiEENS_9allocatorIiEEEENS4_IS6_EEE20__throw_length_errorB8ne200100Ev, symObjAddr: 0x4AD0, symBinAddr: 0xCC10, symSize: 0x14 }
  - { offset: 0x943A6, size: 0x8, addend: 0x0, symName: __ZNSt3__16vectorINS0_IbNS_9allocatorIbEEEENS1_IS3_EEE20__throw_length_errorB8ne200100Ev, symObjAddr: 0x4D4C, symBinAddr: 0xCDF0, symSize: 0x14 }
  - { offset: 0x943BE, size: 0x8, addend: 0x0, symName: __ZNSt3__16vectorIbNS_9allocatorIbEEE7reserveEm, symObjAddr: 0x4D60, symBinAddr: 0xCE04, symSize: 0x108 }
  - { offset: 0x949C9, size: 0x8, addend: 0x0, symName: __ZNSt3__16vectorIPiNS_9allocatorIS1_EEE20__throw_length_errorB8ne200100Ev, symObjAddr: 0x5304, symBinAddr: 0xD274, symSize: 0x14 }
  - { offset: 0x949E1, size: 0x8, addend: 0x0, symName: __ZNSt3__16vectorIaNS_9allocatorIaEEE20__throw_length_errorB8ne200100Ev, symObjAddr: 0x5318, symBinAddr: 0xD288, symSize: 0x14 }
  - { offset: 0x94FFD, size: 0x8, addend: 0x0, symName: __ZNSt3__112__hash_tableINS_17__hash_value_typeINS_6bitsetILm256EEENS_6vectorIiNS_9allocatorIiEEEEEENS_22__unordered_map_hasherIS3_S8_NS_4hashIS3_EENS_8equal_toIS3_EELb1EEENS_21__unordered_map_equalIS3_S8_SD_SB_Lb1EEENS5_IS8_EEE11__do_rehashILb1EEEvm, symObjAddr: 0x57A0, symBinAddr: 0xD69C, symSize: 0x180 }
  - { offset: 0x9538A, size: 0x8, addend: 0x0, symName: __ZNSt3__124__put_character_sequenceB8ne200100IcNS_11char_traitsIcEEEERNS_13basic_ostreamIT_T0_EES7_PKS4_m, symObjAddr: 0x5920, symBinAddr: 0xD81C, symSize: 0x16C }
  - { offset: 0x9539F, size: 0x8, addend: 0x0, symName: __ZNSt3__110unique_ptrINS_11__hash_nodeINS_17__hash_value_typeINS_6bitsetILm256EEENS_6vectorIiNS_9allocatorIiEEEEEEPvEENS_22__hash_node_destructorINS6_ISB_EEEEED1B8ne200100Ev, symObjAddr: 0x5740, symBinAddr: 0xD63C, symSize: 0x60 }
  - { offset: 0x95BD3, size: 0x8, addend: 0x0, symName: __ZNSt3__120__shared_ptr_emplaceIN12llama_ubatch6data_tENS_9allocatorIS2_EEED1Ev, symObjAddr: 0x5C3C, symBinAddr: 0xDB24, symSize: 0x14 }
  - { offset: 0x95BFA, size: 0x8, addend: 0x0, symName: __ZNSt3__120__shared_ptr_emplaceIN12llama_ubatch6data_tENS_9allocatorIS2_EEED1Ev, symObjAddr: 0x5C3C, symBinAddr: 0xDB24, symSize: 0x14 }
  - { offset: 0x95C1C, size: 0x8, addend: 0x0, symName: __ZNSt3__120__shared_ptr_emplaceIN12llama_ubatch6data_tENS_9allocatorIS2_EEED1Ev, symObjAddr: 0x5C3C, symBinAddr: 0xDB24, symSize: 0x14 }
  - { offset: 0x95C52, size: 0x8, addend: 0x0, symName: __ZNSt3__120__shared_ptr_emplaceIN12llama_ubatch6data_tENS_9allocatorIS2_EEED0Ev, symObjAddr: 0x5C50, symBinAddr: 0xDB38, symSize: 0x24 }
  - { offset: 0x95D72, size: 0x8, addend: 0x0, symName: __ZNSt3__120__shared_ptr_emplaceIN12llama_ubatch6data_tENS_9allocatorIS2_EEE16__on_zero_sharedEv, symObjAddr: 0x5C74, symBinAddr: 0xDB5C, symSize: 0x8 }
  - { offset: 0x95D9B, size: 0x8, addend: 0x0, symName: __ZNSt3__120__shared_ptr_emplaceIN12llama_ubatch6data_tENS_9allocatorIS2_EEE16__on_zero_sharedEv, symObjAddr: 0x5C74, symBinAddr: 0xDB5C, symSize: 0x8 }
  - { offset: 0x95DB8, size: 0x8, addend: 0x0, symName: __ZNSt3__120__shared_ptr_emplaceIN12llama_ubatch6data_tENS_9allocatorIS2_EEE16__on_zero_sharedEv, symObjAddr: 0x5C74, symBinAddr: 0xDB5C, symSize: 0x8 }
  - { offset: 0x95E21, size: 0x8, addend: 0x0, symName: __ZN12llama_ubatch6data_tD2Ev, symObjAddr: 0x5C80, symBinAddr: 0xDB68, symSize: 0xB0 }
  - { offset: 0x96911, size: 0x8, addend: 0x0, symName: __ZNSt3__120__shared_ptr_emplaceIN12llama_ubatch6data_tENS_9allocatorIS2_EEE21__on_zero_shared_weakEv, symObjAddr: 0x5C7C, symBinAddr: 0xDB64, symSize: 0x4 }
  - { offset: 0x96943, size: 0x8, addend: 0x0, symName: __ZNSt3__120__shared_ptr_emplaceIN12llama_ubatch6data_tENS_9allocatorIS2_EEE21__on_zero_shared_weakEv, symObjAddr: 0x5C7C, symBinAddr: 0xDB64, symSize: 0x4 }
  - { offset: 0x96965, size: 0x8, addend: 0x0, symName: __ZNSt3__120__shared_ptr_emplaceIN12llama_ubatch6data_tENS_9allocatorIS2_EEE21__on_zero_shared_weakEv, symObjAddr: 0x5C7C, symBinAddr: 0xDB64, symSize: 0x4 }
  - { offset: 0x96988, size: 0x8, addend: 0x0, symName: __ZNSt3__120__shared_ptr_emplaceIN12llama_ubatch6data_tENS_9allocatorIS2_EEE21__on_zero_shared_weakEv, symObjAddr: 0x5C7C, symBinAddr: 0xDB64, symSize: 0x4 }
  - { offset: 0x969BD, size: 0x8, addend: 0x0, symName: __ZNSt3__120__shared_ptr_emplaceIN12llama_ubatch6data_tENS_9allocatorIS2_EEE21__on_zero_shared_weakEv, symObjAddr: 0x5C7C, symBinAddr: 0xDB64, symSize: 0x4 }
  - { offset: 0x97034, size: 0x8, addend: 0x0, symName: __ZNSt3__16vectorIfNS_9allocatorIfEEE20__throw_length_errorB8ne200100Ev, symObjAddr: 0x62D0, symBinAddr: 0xE1B8, symSize: 0x14 }
  - { offset: 0x98F41, size: 0x8, addend: 0x0, symName: __ZL18LLM_CHAT_TEMPLATES, symObjAddr: 0x873B0, symBinAddr: 0x35C090, symSize: 0x0 }
  - { offset: 0xA0D21, size: 0x8, addend: 0x0, symName: __ZNSt3__1eqB8ne200100IcNS_11char_traitsIcEENS_9allocatorIcEEEEbRKNS_12basic_stringIT_T0_T1_EEPKS6_, symObjAddr: 0x5F94, symBinAddr: 0x13F28, symSize: 0x88 }
  - { offset: 0xA0EC1, size: 0x8, addend: 0x0, symName: __ZNSt3__1neB8ne200100IcNS_11char_traitsIcEENS_9allocatorIcEEEEbRKNS_12basic_stringIT_T0_T1_EEPKS6_, symObjAddr: 0x61DC, symBinAddr: 0x14170, symSize: 0x88 }
  - { offset: 0xA31A3, size: 0x8, addend: 0x0, symName: __ZNSt3__13mapINS_12basic_stringIcNS_11char_traitsIcEENS_9allocatorIcEEEE17llm_chat_templateNS_4lessIS6_EENS4_INS_4pairIKS6_S7_EEEEED1B8ne200100Ev, symObjAddr: 0x0, symBinAddr: 0xE1CC, symSize: 0x28 }
  - { offset: 0xA3257, size: 0x8, addend: 0x0, symName: __ZNSt3__16__treeINS_12__value_typeINS_12basic_stringIcNS_11char_traitsIcEENS_9allocatorIcEEEE17llm_chat_templateEENS_19__map_value_compareIS7_S9_NS_4lessIS7_EELb1EEENS5_IS9_EEE7destroyEPNS_11__tree_nodeIS9_PvEE, symObjAddr: 0x6B98, symBinAddr: 0x147D8, symSize: 0x60 }
  - { offset: 0xA3705, size: 0x8, addend: 0x0, symName: __Z26llm_chat_template_from_strRKNSt3__112basic_stringIcNS_11char_traitsIcEENS_9allocatorIcEEEE, symObjAddr: 0x28, symBinAddr: 0xE1F4, symSize: 0xF0 }
  - { offset: 0xA3A38, size: 0x8, addend: 0x0, symName: __Z24llm_chat_detect_templateRKNSt3__112basic_stringIcNS_11char_traitsIcEENS_9allocatorIcEEEE, symObjAddr: 0x118, symBinAddr: 0xE2E4, symSize: 0x920 }
  - { offset: 0xA40E0, size: 0x8, addend: 0x0, symName: '__ZZ24llm_chat_detect_templateRKNSt3__112basic_stringIcNS_11char_traitsIcEENS_9allocatorIcEEEEENK3$_0clEPKc', symObjAddr: 0xA38, symBinAddr: 0xEC04, symSize: 0xD8 }
  - { offset: 0xA433D, size: 0x8, addend: 0x0, symName: __ZNKSt3__112basic_stringIcNS_11char_traitsIcEENS_9allocatorIcEEE4findB8ne200100EPKcm, symObjAddr: 0xB10, symBinAddr: 0xECDC, symSize: 0xEC }
  - { offset: 0xA4D2A, size: 0x8, addend: 0x0, symName: __Z23llm_chat_apply_template17llm_chat_templateRKNSt3__16vectorIPK18llama_chat_messageNS0_9allocatorIS4_EEEERNS0_12basic_stringIcNS0_11char_traitsIcEENS5_IcEEEEb, symObjAddr: 0xBFC, symBinAddr: 0xEDC8, symSize: 0x5160 }
  - { offset: 0xB6331, size: 0x8, addend: 0x0, symName: __ZL4trimRKNSt3__112basic_stringIcNS_11char_traitsIcEENS_9allocatorIcEEEE, symObjAddr: 0x601C, symBinAddr: 0x13FB0, symSize: 0x1C0 }
  - { offset: 0xB6761, size: 0x8, addend: 0x0, symName: __ZNSt3__1neB8ne200100IcNS_11char_traitsIcEENS_9allocatorIcEEEEbRKNS_12basic_stringIT_T0_T1_EEPKS6_, symObjAddr: 0x61DC, symBinAddr: 0x14170, symSize: 0x88 }
  - { offset: 0xB6A1F, size: 0x8, addend: 0x0, symName: __ZNSt3__1eqB8ne200100IcNS_11char_traitsIcEENS_9allocatorIcEEEEbRKNS_12basic_stringIT_T0_T1_EEPKS6_, symObjAddr: 0x5F94, symBinAddr: 0x13F28, symSize: 0x88 }
  - { offset: 0xB6FAA, size: 0x8, addend: 0x0, symName: _llama_chat_builtin_templates, symObjAddr: 0x62EC, symBinAddr: 0x141F8, symSize: 0x90 }
  - { offset: 0xB74B5, size: 0x8, addend: 0x0, symName: __ZNSt3__16__treeINS_12__value_typeINS_12basic_stringIcNS_11char_traitsIcEENS_9allocatorIcEEEE17llm_chat_templateEENS_19__map_value_compareIS7_S9_NS_4lessIS7_EELb1EEENS5_IS9_EEE30__emplace_hint_unique_key_argsIS7_JRKNS_4pairIKS7_S8_EEEEENSH_INS_15__tree_iteratorIS9_PNS_11__tree_nodeIS9_PvEElEEbEENS_21__tree_const_iteratorIS9_SQ_lEERKT_DpOT0_, symObjAddr: 0x649C, symBinAddr: 0x14288, symSize: 0xF8 }
  - { offset: 0xB7842, size: 0x8, addend: 0x0, symName: __ZNSt3__16__treeINS_12__value_typeINS_12basic_stringIcNS_11char_traitsIcEENS_9allocatorIcEEEE17llm_chat_templateEENS_19__map_value_compareIS7_S9_NS_4lessIS7_EELb1EEENS5_IS9_EEE12__find_equalIS7_EERPNS_16__tree_node_baseIPvEENS_21__tree_const_iteratorIS9_PNS_11__tree_nodeIS9_SI_EElEERPNS_15__tree_end_nodeISK_EESL_RKT_, symObjAddr: 0x6594, symBinAddr: 0x14380, symSize: 0x3F8 }
  - { offset: 0xB850A, size: 0x8, addend: 0x0, symName: __ZNSt3__110unique_ptrINS_11__tree_nodeINS_12__value_typeINS_12basic_stringIcNS_11char_traitsIcEENS_9allocatorIcEEEE17llm_chat_templateEEPvEENS_22__tree_node_destructorINS6_ISC_EEEEED1B8ne200100Ev, symObjAddr: 0x698C, symBinAddr: 0x14778, symSize: 0x60 }
  - { offset: 0xB960F, size: 0x8, addend: 0x0, symName: __GLOBAL__sub_I_llama_chat.cpp, symObjAddr: 0x7798, symBinAddr: 0x14838, symSize: 0x8A8 }
  - { offset: 0xEBD6F, size: 0x8, addend: 0x0, symName: __ZNSt3__119piecewise_constructE, symObjAddr: 0x13140, symBinAddr: 0x296B58, symSize: 0x0 }
  - { offset: 0xF2FDD, size: 0x8, addend: 0x0, symName: __ZNSt3__113__tree_removeB8ne200100IPNS_16__tree_node_baseIPvEEEEvT_S5_, symObjAddr: 0xE6CC, symBinAddr: 0x23310, symSize: 0x3B4 }
  - { offset: 0xFE3D6, size: 0x8, addend: 0x0, symName: __ZN13llama_contextC2ERK11llama_model20llama_context_params, symObjAddr: 0x0, symBinAddr: 0x150E0, symSize: 0x16D8 }
  - { offset: 0x10244C, size: 0x8, addend: 0x0, symName: __ZNK13llama_context12graph_get_cbEv, symObjAddr: 0x7AF4, symBinAddr: 0x1CB34, symSize: 0x14 }
  - { offset: 0x1024A7, size: 0x8, addend: 0x0, symName: __ZNK13llama_context12graph_get_cbEv, symObjAddr: 0x7AF4, symBinAddr: 0x1CB34, symSize: 0x14 }
  - { offset: 0x1024CA, size: 0x8, addend: 0x0, symName: __ZNK13llama_context12graph_get_cbEv, symObjAddr: 0x7AF4, symBinAddr: 0x1CB34, symSize: 0x14 }
  - { offset: 0x1024ED, size: 0x8, addend: 0x0, symName: __ZNK13llama_context12graph_get_cbEv, symObjAddr: 0x7AF4, symBinAddr: 0x1CB34, symSize: 0x14 }
  - { offset: 0x102509, size: 0x8, addend: 0x0, symName: __ZNK13llama_context12graph_get_cbEv, symObjAddr: 0x7AF4, symBinAddr: 0x1CB34, symSize: 0x14 }
  - { offset: 0x102525, size: 0x8, addend: 0x0, symName: __ZNK13llama_context12graph_get_cbEv, symObjAddr: 0x7AF4, symBinAddr: 0x1CB34, symSize: 0x14 }
  - { offset: 0x102541, size: 0x8, addend: 0x0, symName: __ZNK13llama_context12graph_get_cbEv, symObjAddr: 0x7AF4, symBinAddr: 0x1CB34, symSize: 0x14 }
  - { offset: 0x10255D, size: 0x8, addend: 0x0, symName: __ZNK13llama_context12graph_get_cbEv, symObjAddr: 0x7AF4, symBinAddr: 0x1CB34, symSize: 0x14 }
  - { offset: 0x1049E8, size: 0x8, addend: 0x0, symName: __ZN13llama_context11set_samplerEiP13llama_sampler, symObjAddr: 0x16D8, symBinAddr: 0x167B8, symSize: 0x360 }
  - { offset: 0x105551, size: 0x8, addend: 0x0, symName: __ZN13llama_context14output_reserveEi, symObjAddr: 0x1AE8, symBinAddr: 0x16BC8, symSize: 0x360 }
  - { offset: 0x105E0A, size: 0x8, addend: 0x0, symName: __ZN13llama_context13sched_reserveEv, symObjAddr: 0x1E48, symBinAddr: 0x16F28, symSize: 0x8BC }
  - { offset: 0x107151, size: 0x8, addend: 0x0, symName: __ZNSt3__16vectorINS_10unique_ptrI12ggml_backend20ggml_backend_deleterEENS_9allocatorIS4_EEE20__throw_length_errorB8ne200100Ev, symObjAddr: 0xE520, symBinAddr: 0x232C0, symSize: 0x14 }
  - { offset: 0x107169, size: 0x8, addend: 0x0, symName: __ZNSt3__16vectorINS_4pairIP12ggml_backendPFvS3_iEEENS_9allocatorIS6_EEE20__throw_length_errorB8ne200100Ev, symObjAddr: 0xE534, symBinAddr: 0x232D4, symSize: 0x14 }
  - { offset: 0x107174, size: 0x8, addend: 0x0, symName: __ZNSt3__16vectorIP12ggml_backendNS_9allocatorIS2_EEE20__throw_length_errorB8ne200100Ev, symObjAddr: 0xE55C, symBinAddr: 0x232E8, symSize: 0x14 }
  - { offset: 0x10718C, size: 0x8, addend: 0x0, symName: __ZNSt3__16vectorImNS_9allocatorImEEE20__throw_length_errorB8ne200100Ev, symObjAddr: 0xE570, symBinAddr: 0x232FC, symSize: 0x14 }
  - { offset: 0x107197, size: 0x8, addend: 0x0, symName: __ZNSt3__16vectorImNS_9allocatorImEEE20__throw_length_errorB8ne200100Ev, symObjAddr: 0xE570, symBinAddr: 0x232FC, symSize: 0x14 }
  - { offset: 0x1071C4, size: 0x8, addend: 0x0, symName: __ZNSt3__16vectorIP12ggml_backendNS_9allocatorIS2_EEE20__throw_length_errorB8ne200100Ev, symObjAddr: 0xE55C, symBinAddr: 0x232E8, symSize: 0x14 }
  - { offset: 0x1071CF, size: 0x8, addend: 0x0, symName: __ZNSt3__16vectorINS_4pairIP12ggml_backendPFvS3_iEEENS_9allocatorIS6_EEE20__throw_length_errorB8ne200100Ev, symObjAddr: 0xE534, symBinAddr: 0x232D4, symSize: 0x14 }
  - { offset: 0x107256, size: 0x8, addend: 0x0, symName: __ZNSt3__16vectorINS_10unique_ptrI12ggml_backend20ggml_backend_deleterEENS_9allocatorIS4_EEED1B8ne200100Ev, symObjAddr: 0x2738, symBinAddr: 0x177E4, symSize: 0x70 }
  - { offset: 0x107444, size: 0x8, addend: 0x0, symName: __ZNSt3__110unique_ptrI18ggml_backend_sched26ggml_backend_sched_deleterED1B8ne200100Ev, symObjAddr: 0x27A8, symBinAddr: 0x17854, symSize: 0x34 }
  - { offset: 0x1074D8, size: 0x8, addend: 0x0, symName: __ZNSt3__110unique_ptrI18llama_batch_allocrNS_14default_deleteIS1_EEED1B8ne200100Ev, symObjAddr: 0x27DC, symBinAddr: 0x17888, symSize: 0x3C }
  - { offset: 0x10759A, size: 0x8, addend: 0x0, symName: __ZNSt3__16__treeINS_12__value_typeIiNS_6vectorIfNS_9allocatorIfEEEEEENS_19__map_value_compareIiS6_NS_4lessIiEELb1EEENS3_IS6_EEE7destroyEPNS_11__tree_nodeIS6_PvEE, symObjAddr: 0xE4D0, symBinAddr: 0x23270, symSize: 0x50 }
  - { offset: 0x107850, size: 0x8, addend: 0x0, symName: __ZN13llama_context13sampling_infoD1Ev, symObjAddr: 0x2818, symBinAddr: 0x178C4, symSize: 0x6C }
  - { offset: 0x107DEA, size: 0x8, addend: 0x0, symName: __ZN11llama_crossD1Ev, symObjAddr: 0x2884, symBinAddr: 0x17930, symSize: 0x78 }
  - { offset: 0x108181, size: 0x8, addend: 0x0, symName: __ZNSt3__113unordered_mapIP18llama_adapter_lorafNS_4hashIS2_EENS_8equal_toIS2_EENS_9allocatorINS_4pairIKS2_fEEEEED1B8ne200100Ev, symObjAddr: 0x28FC, symBinAddr: 0x179A8, symSize: 0x48 }
  - { offset: 0x108415, size: 0x8, addend: 0x0, symName: __ZN18llama_adapter_cvecD2Ev, symObjAddr: 0xD990, symBinAddr: 0x2298C, symSize: 0xC8 }
  - { offset: 0x10902A, size: 0x8, addend: 0x0, symName: _llama_set_abort_callback, symObjAddr: 0x1A38, symBinAddr: 0x16B18, symSize: 0xB0 }
  - { offset: 0x109394, size: 0x8, addend: 0x0, symName: __ZN13llama_context11synchronizeEv, symObjAddr: 0x2C6C, symBinAddr: 0x17D08, symSize: 0xE4 }
  - { offset: 0x109459, size: 0x8, addend: 0x0, symName: __ZNSt3__16vectorIjNS_9allocatorIjEEE8__appendEm, symObjAddr: 0xF56C, symBinAddr: 0x23E44, symSize: 0x120 }
  - { offset: 0x109837, size: 0x8, addend: 0x0, symName: __ZNSt3__16vectorIjNS_9allocatorIjEEE20__throw_length_errorB8ne200100Ev, symObjAddr: 0xF68C, symBinAddr: 0x23F64, symSize: 0x14 }
  - { offset: 0x109D04, size: 0x8, addend: 0x0, symName: __ZN13llama_context13graph_reserveEjjjPK22llama_memory_context_ibPm, symObjAddr: 0x2DD8, symBinAddr: 0x17E74, symSize: 0x4A8 }
  - { offset: 0x10AA73, size: 0x8, addend: 0x0, symName: __ZNSt3__113__tree_removeB8ne200100IPNS_16__tree_node_baseIPvEEEEvT_S5_, symObjAddr: 0xE6CC, symBinAddr: 0x23310, symSize: 0x3B4 }
  - { offset: 0x10ACC3, size: 0x8, addend: 0x0, symName: __ZN18llama_batch_allocrD2Ev, symObjAddr: 0xDC2C, symBinAddr: 0x22A54, symSize: 0x174 }
  - { offset: 0x10C135, size: 0x8, addend: 0x0, symName: __ZNSt3__16__treeINS_12__value_typeIiP13llama_samplerEENS_19__map_value_compareIiS4_NS_4lessIiEELb1EEENS_9allocatorIS4_EEE7destroyEPNS_11__tree_nodeIS4_PvEE, symObjAddr: 0xE48C, symBinAddr: 0x2322C, symSize: 0x44 }
  - { offset: 0x10C823, size: 0x8, addend: 0x0, symName: __ZN13llama_contextC1ERK11llama_model20llama_context_params, symObjAddr: 0x2944, symBinAddr: 0x179F0, symSize: 0x4 }
  - { offset: 0x10C855, size: 0x8, addend: 0x0, symName: __ZN13llama_contextC1ERK11llama_model20llama_context_params, symObjAddr: 0x2944, symBinAddr: 0x179F0, symSize: 0x4 }
  - { offset: 0x10C931, size: 0x8, addend: 0x0, symName: __ZN13llama_contextD2Ev, symObjAddr: 0x2948, symBinAddr: 0x179F4, symSize: 0x310 }
  - { offset: 0x10E359, size: 0x8, addend: 0x0, symName: __ZN13llama_contextD1Ev, symObjAddr: 0x2C68, symBinAddr: 0x17D04, symSize: 0x4 }
  - { offset: 0x10E37C, size: 0x8, addend: 0x0, symName: __ZN13llama_contextD1Ev, symObjAddr: 0x2C68, symBinAddr: 0x17D04, symSize: 0x4 }
  - { offset: 0x10E3B3, size: 0x8, addend: 0x0, symName: __ZNK13llama_context15graph_max_nodesEj, symObjAddr: 0x2D50, symBinAddr: 0x17DEC, symSize: 0x88 }
  - { offset: 0x10EC26, size: 0x8, addend: 0x0, symName: __ZNSt3__13mapIiP13llama_samplerNS_4lessIiEENS_9allocatorINS_4pairIKiS2_EEEEE6insertB8ne200100INS_20__map_const_iteratorINS_21__tree_const_iteratorINS_12__value_typeIiS2_EEPNS_11__tree_nodeISF_PvEElEEEEEEvT_SM_, symObjAddr: 0xF6A0, symBinAddr: 0x23F78, symSize: 0xF4 }
  - { offset: 0x10EC6C, size: 0x8, addend: 0x0, symName: __ZNSt3__13mapIiP13llama_samplerNS_4lessIiEENS_9allocatorINS_4pairIKiS2_EEEEE6insertB8ne200100INS_20__map_const_iteratorINS_21__tree_const_iteratorINS_12__value_typeIiS2_EEPNS_11__tree_nodeISF_PvEElEEEEEEvT_SM_, symObjAddr: 0xF6A0, symBinAddr: 0x23F78, symSize: 0xF4 }
  - { offset: 0x10F051, size: 0x8, addend: 0x0, symName: __ZN16llm_graph_paramsD1Ev, symObjAddr: 0x5474, symBinAddr: 0x1A510, symSize: 0xA0 }
  - { offset: 0x10F203, size: 0x8, addend: 0x0, symName: __ZNK13llama_context9get_modelEv, symObjAddr: 0x3280, symBinAddr: 0x1831C, symSize: 0x8 }
  - { offset: 0x10F225, size: 0x8, addend: 0x0, symName: __ZNK13llama_context11get_cparamsEv, symObjAddr: 0x3288, symBinAddr: 0x18324, symSize: 0x8 }
  - { offset: 0x10F24F, size: 0x8, addend: 0x0, symName: __ZNK13llama_context9get_schedEv, symObjAddr: 0x3290, symBinAddr: 0x1832C, symSize: 0x8 }
  - { offset: 0x10F27B, size: 0x8, addend: 0x0, symName: __ZNK13llama_context9get_schedEv, symObjAddr: 0x3290, symBinAddr: 0x1832C, symSize: 0x8 }
  - { offset: 0x10F299, size: 0x8, addend: 0x0, symName: __ZNK13llama_context5n_ctxEv, symObjAddr: 0x3298, symBinAddr: 0x18334, symSize: 0x8 }
  - { offset: 0x10F2BB, size: 0x8, addend: 0x0, symName: __ZNK13llama_context9n_ctx_seqEv, symObjAddr: 0x32A0, symBinAddr: 0x1833C, symSize: 0x8 }
  - { offset: 0x10F2DD, size: 0x8, addend: 0x0, symName: __ZNK13llama_context7n_batchEv, symObjAddr: 0x32A8, symBinAddr: 0x18344, symSize: 0x8 }
  - { offset: 0x10F2FF, size: 0x8, addend: 0x0, symName: __ZNK13llama_context8n_ubatchEv, symObjAddr: 0x32B0, symBinAddr: 0x1834C, symSize: 0x8 }
  - { offset: 0x10F321, size: 0x8, addend: 0x0, symName: __ZNK13llama_context9n_seq_maxEv, symObjAddr: 0x32B8, symBinAddr: 0x18354, symSize: 0x8 }
  - { offset: 0x10F343, size: 0x8, addend: 0x0, symName: __ZNK13llama_context9n_threadsEv, symObjAddr: 0x32C0, symBinAddr: 0x1835C, symSize: 0x8 }
  - { offset: 0x10F365, size: 0x8, addend: 0x0, symName: __ZNK13llama_context15n_threads_batchEv, symObjAddr: 0x32C8, symBinAddr: 0x18364, symSize: 0x8 }
  - { offset: 0x10F39D, size: 0x8, addend: 0x0, symName: __ZNK13llama_context10get_memoryEv, symObjAddr: 0x32D0, symBinAddr: 0x1836C, symSize: 0x8 }
  - { offset: 0x10F3C1, size: 0x8, addend: 0x0, symName: __ZNK13llama_context10get_memoryEv, symObjAddr: 0x32D0, symBinAddr: 0x1836C, symSize: 0x8 }
  - { offset: 0x10F411, size: 0x8, addend: 0x0, symName: __ZN13llama_context13memory_updateEb, symObjAddr: 0x32D8, symBinAddr: 0x18374, symSize: 0x1F4 }
  - { offset: 0x10F7FF, size: 0x8, addend: 0x0, symName: __ZNK13llama_context12pooling_typeEv, symObjAddr: 0x34CC, symBinAddr: 0x18568, symSize: 0x8 }
  - { offset: 0x10F821, size: 0x8, addend: 0x0, symName: __ZN13llama_context10get_logitsEv, symObjAddr: 0x34D4, symBinAddr: 0x18570, symSize: 0x24 }
  - { offset: 0x10F858, size: 0x8, addend: 0x0, symName: __ZN13llama_context14output_reorderEv, symObjAddr: 0x34F8, symBinAddr: 0x18594, symSize: 0x524 }
  - { offset: 0x10FADB, size: 0x8, addend: 0x0, symName: __ZNK13llama_context18output_resolve_rowEi, symObjAddr: 0x3A1C, symBinAddr: 0x18AB8, symSize: 0x1DC }
  - { offset: 0x10FD4E, size: 0x8, addend: 0x0, symName: __ZN13llama_context14get_logits_ithEi, symObjAddr: 0x3BF8, symBinAddr: 0x18C94, symSize: 0x2C0 }
  - { offset: 0x110005, size: 0x8, addend: 0x0, symName: __ZN13llama_context14get_embeddingsEv, symObjAddr: 0x3EB8, symBinAddr: 0x18F54, symSize: 0x24 }
  - { offset: 0x11003C, size: 0x8, addend: 0x0, symName: __ZNK13llama_context18get_sampled_tokensEv, symObjAddr: 0x3EDC, symBinAddr: 0x18F78, symSize: 0x8 }
  - { offset: 0x110066, size: 0x8, addend: 0x0, symName: __ZN13llama_context18get_embeddings_ithEi, symObjAddr: 0x3EE4, symBinAddr: 0x18F80, symSize: 0x2C4 }
  - { offset: 0x110447, size: 0x8, addend: 0x0, symName: __ZN13llama_context18get_embeddings_seqEi, symObjAddr: 0x41A8, symBinAddr: 0x19244, symSize: 0x4C }
  - { offset: 0x11047B, size: 0x8, addend: 0x0, symName: __ZN13llama_context18get_embeddings_seqEi, symObjAddr: 0x41A8, symBinAddr: 0x19244, symSize: 0x4C }
  - { offset: 0x11049A, size: 0x8, addend: 0x0, symName: __ZN13llama_context18get_embeddings_seqEi, symObjAddr: 0x41A8, symBinAddr: 0x19244, symSize: 0x4C }
  - { offset: 0x1104C2, size: 0x8, addend: 0x0, symName: __ZN13llama_context18get_embeddings_seqEi, symObjAddr: 0x41A8, symBinAddr: 0x19244, symSize: 0x4C }
  - { offset: 0x1105AD, size: 0x8, addend: 0x0, symName: __ZN13llama_context21get_sampled_token_ithEi, symObjAddr: 0x41F4, symBinAddr: 0x19290, symSize: 0xFC }
  - { offset: 0x110670, size: 0x8, addend: 0x0, symName: __ZN13llama_context21get_sampled_probs_ithEi, symObjAddr: 0x42F0, symBinAddr: 0x1938C, symSize: 0xF4 }
  - { offset: 0x11073E, size: 0x8, addend: 0x0, symName: __ZN13llama_context22get_sampled_logits_ithEi, symObjAddr: 0x43E4, symBinAddr: 0x19480, symSize: 0xF4 }
  - { offset: 0x110822, size: 0x8, addend: 0x0, symName: __ZN13llama_context26get_sampled_candidates_ithEi, symObjAddr: 0x44D8, symBinAddr: 0x19574, symSize: 0xA0 }
  - { offset: 0x1108D1, size: 0x8, addend: 0x0, symName: __ZN13llama_context28get_sampled_candidates_countEi, symObjAddr: 0x4578, symBinAddr: 0x19614, symSize: 0xD4 }
  - { offset: 0x11099F, size: 0x8, addend: 0x0, symName: __ZN13llama_context24get_sampled_logits_countEi, symObjAddr: 0x464C, symBinAddr: 0x196E8, symSize: 0x104 }
  - { offset: 0x110A6D, size: 0x8, addend: 0x0, symName: __ZN13llama_context23get_sampled_probs_countEi, symObjAddr: 0x4750, symBinAddr: 0x197EC, symSize: 0xD4 }
  - { offset: 0x110B3B, size: 0x8, addend: 0x0, symName: __ZN13llama_context17attach_threadpoolEP15ggml_threadpoolS1_, symObjAddr: 0x4824, symBinAddr: 0x198C0, symSize: 0x60 }
  - { offset: 0x110B82, size: 0x8, addend: 0x0, symName: __ZN13llama_context17detach_threadpoolEv, symObjAddr: 0x4884, symBinAddr: 0x19920, symSize: 0x4C }
  - { offset: 0x110BB7, size: 0x8, addend: 0x0, symName: __ZN13llama_context13set_n_threadsEii, symObjAddr: 0x48D0, symBinAddr: 0x1996C, symSize: 0x58 }
  - { offset: 0x110BFE, size: 0x8, addend: 0x0, symName: __ZN13llama_context18set_abort_callbackEPFbPvES0_, symObjAddr: 0x4928, symBinAddr: 0x199C4, symSize: 0xB0 }
  - { offset: 0x110D72, size: 0x8, addend: 0x0, symName: __ZN13llama_context14set_embeddingsEb, symObjAddr: 0x49D8, symBinAddr: 0x19A74, symSize: 0x48 }
  - { offset: 0x110DAD, size: 0x8, addend: 0x0, symName: __ZN13llama_context15set_causal_attnEb, symObjAddr: 0x4A20, symBinAddr: 0x19ABC, symSize: 0x64 }
  - { offset: 0x110DEB, size: 0x8, addend: 0x0, symName: __ZN13llama_context10set_warmupEb, symObjAddr: 0x4A84, symBinAddr: 0x19B20, symSize: 0x54 }
  - { offset: 0x110E6F, size: 0x8, addend: 0x0, symName: __ZN13llama_context16set_adapter_loraEP18llama_adapter_loraf, symObjAddr: 0x4AD8, symBinAddr: 0x19B74, symSize: 0xC4 }
  - { offset: 0x110F3D, size: 0x8, addend: 0x0, symName: __ZNSt3__112__hash_tableINS_17__hash_value_typeIP18llama_adapter_lorafEENS_22__unordered_map_hasherIS3_S4_NS_4hashIS3_EENS_8equal_toIS3_EELb1EEENS_21__unordered_map_equalIS3_S4_S9_S7_Lb1EEENS_9allocatorIS4_EEE4findIS3_EENS_15__hash_iteratorIPNS_11__hash_nodeIS4_PvEEEERKT_, symObjAddr: 0xEA80, symBinAddr: 0x236C4, symSize: 0x110 }
  - { offset: 0x110F94, size: 0x8, addend: 0x0, symName: __ZNSt3__112__hash_tableINS_17__hash_value_typeIP18llama_adapter_lorafEENS_22__unordered_map_hasherIS3_S4_NS_4hashIS3_EENS_8equal_toIS3_EELb1EEENS_21__unordered_map_equalIS3_S4_S9_S7_Lb1EEENS_9allocatorIS4_EEE4findIS3_EENS_15__hash_iteratorIPNS_11__hash_nodeIS4_PvEEEERKT_, symObjAddr: 0xEA80, symBinAddr: 0x236C4, symSize: 0x110 }
  - { offset: 0x110FB0, size: 0x8, addend: 0x0, symName: __ZNSt3__112__hash_tableINS_17__hash_value_typeIP18llama_adapter_lorafEENS_22__unordered_map_hasherIS3_S4_NS_4hashIS3_EENS_8equal_toIS3_EELb1EEENS_21__unordered_map_equalIS3_S4_S9_S7_Lb1EEENS_9allocatorIS4_EEE4findIS3_EENS_15__hash_iteratorIPNS_11__hash_nodeIS4_PvEEEERKT_, symObjAddr: 0xEA80, symBinAddr: 0x236C4, symSize: 0x110 }
  - { offset: 0x1110AA, size: 0x8, addend: 0x0, symName: __ZNSt3__112__hash_tableINS_17__hash_value_typeIP18llama_adapter_lorafEENS_22__unordered_map_hasherIS3_S4_NS_4hashIS3_EENS_8equal_toIS3_EELb1EEENS_21__unordered_map_equalIS3_S4_S9_S7_Lb1EEENS_9allocatorIS4_EEE25__emplace_unique_key_argsIS3_JRKNS_21piecewise_construct_tENS_5tupleIJRKS3_EEENSK_IJEEEEEENS_4pairINS_15__hash_iteratorIPNS_11__hash_nodeIS4_PvEEEEbEERKT_DpOT0_, symObjAddr: 0xEB90, symBinAddr: 0x237D4, symSize: 0x360 }
  - { offset: 0x1119CE, size: 0x8, addend: 0x0, symName: __ZN13llama_context15rm_adapter_loraEP18llama_adapter_lora, symObjAddr: 0x4B9C, symBinAddr: 0x19C38, symSize: 0x88 }
  - { offset: 0x111C10, size: 0x8, addend: 0x0, symName: __ZNSt3__112__hash_tableINS_17__hash_value_typeIP18llama_adapter_lorafEENS_22__unordered_map_hasherIS3_S4_NS_4hashIS3_EENS_8equal_toIS3_EELb1EEENS_21__unordered_map_equalIS3_S4_S9_S7_Lb1EEENS_9allocatorIS4_EEE6removeENS_21__hash_const_iteratorIPNS_11__hash_nodeIS4_PvEEEE, symObjAddr: 0xF070, symBinAddr: 0x23CB4, symSize: 0x138 }
  - { offset: 0x111C86, size: 0x8, addend: 0x0, symName: __ZNSt3__112__hash_tableINS_17__hash_value_typeIP18llama_adapter_lorafEENS_22__unordered_map_hasherIS3_S4_NS_4hashIS3_EENS_8equal_toIS3_EELb1EEENS_21__unordered_map_equalIS3_S4_S9_S7_Lb1EEENS_9allocatorIS4_EEE6removeENS_21__hash_const_iteratorIPNS_11__hash_nodeIS4_PvEEEE, symObjAddr: 0xF070, symBinAddr: 0x23CB4, symSize: 0x138 }
  - { offset: 0x111CA2, size: 0x8, addend: 0x0, symName: __ZNSt3__112__hash_tableINS_17__hash_value_typeIP18llama_adapter_lorafEENS_22__unordered_map_hasherIS3_S4_NS_4hashIS3_EENS_8equal_toIS3_EELb1EEENS_21__unordered_map_equalIS3_S4_S9_S7_Lb1EEENS_9allocatorIS4_EEE6removeENS_21__hash_const_iteratorIPNS_11__hash_nodeIS4_PvEEEE, symObjAddr: 0xF070, symBinAddr: 0x23CB4, symSize: 0x138 }
  - { offset: 0x111F48, size: 0x8, addend: 0x0, symName: __ZN13llama_context18clear_adapter_loraEv, symObjAddr: 0x4C24, symBinAddr: 0x19CC0, symSize: 0x84 }
  - { offset: 0x112176, size: 0x8, addend: 0x0, symName: __ZN13llama_context18apply_adapter_cvecEPKfmiii, symObjAddr: 0x4CA8, symBinAddr: 0x19D44, symSize: 0x84 }
  - { offset: 0x1121F4, size: 0x8, addend: 0x0, symName: __ZN13llama_context14process_ubatchERK12llama_ubatch14llm_graph_typeP22llama_memory_context_iR11ggml_status, symObjAddr: 0x4D2C, symBinAddr: 0x19DC8, symSize: 0x4E4 }
  - { offset: 0x112C95, size: 0x8, addend: 0x0, symName: __ZN13llama_context13graph_computeEP11ggml_cgraphb, symObjAddr: 0x5390, symBinAddr: 0x1A42C, symSize: 0xE4 }
  - { offset: 0x112E6E, size: 0x8, addend: 0x0, symName: __ZNK13llama_context12graph_paramsEP16llm_graph_resultRK12llama_ubatchPK22llama_memory_context_i14llm_graph_type, symObjAddr: 0x5210, symBinAddr: 0x1A2AC, symSize: 0x180 }
  - { offset: 0x113B0B, size: 0x8, addend: 0x0, symName: __ZN13llama_context6encodeERK11llama_batch, symObjAddr: 0x5514, symBinAddr: 0x1A5B0, symSize: 0xB7C }
  - { offset: 0x1164F8, size: 0x8, addend: 0x0, symName: __ZN13llama_context6decodeERK11llama_batch, symObjAddr: 0x60EC, symBinAddr: 0x1B12C, symSize: 0x1774 }
  - { offset: 0x118FE0, size: 0x8, addend: 0x0, symName: __ZL24copy_tensor_async_floatsRKNSt3__13mapIiP11ggml_tensorNS_4lessIiEENS_9allocatorINS_4pairIKiS2_EEEEEEPfmRNS_6vectorIjNS5_IjEEEERKNS0_IijS4_NS5_INS6_IS7_jEEEEEEP18ggml_backend_sched, symObjAddr: 0x7860, symBinAddr: 0x1C8A0, symSize: 0x1A0 }
  - { offset: 0x11937E, size: 0x8, addend: 0x0, symName: __ZNSt3__16vectorIN13llama_context9swap_infoENS_9allocatorIS2_EEE9push_backB8ne200100EOS2_, symObjAddr: 0x7A00, symBinAddr: 0x1CA40, symSize: 0xEC }
  - { offset: 0x1193A4, size: 0x8, addend: 0x0, symName: __ZNSt3__16__treeINS_12__value_typeIijEENS_19__map_value_compareIiS2_NS_4lessIiEELb1EEENS_9allocatorIS2_EEE7destroyEPNS_11__tree_nodeIS2_PvEE, symObjAddr: 0xF514, symBinAddr: 0x23DEC, symSize: 0x44 }
  - { offset: 0x1194BB, size: 0x8, addend: 0x0, symName: __ZNSt3__16vectorIN13llama_context9swap_infoENS_9allocatorIS2_EEE9push_backB8ne200100EOS2_, symObjAddr: 0x7A00, symBinAddr: 0x1CA40, symSize: 0xEC }
  - { offset: 0x1198CC, size: 0x8, addend: 0x0, symName: __ZNK13llama_context18get_gf_res_reserveEv, symObjAddr: 0x7AEC, symBinAddr: 0x1CB2C, symSize: 0x8 }
  - { offset: 0x119B9E, size: 0x8, addend: 0x0, symName: __ZNSt3__16vectorIN13llama_context9swap_infoENS_9allocatorIS2_EEE20__throw_length_errorB8ne200100Ev, symObjAddr: 0xF558, symBinAddr: 0x23E30, symSize: 0x14 }
  - { offset: 0x119BB6, size: 0x8, addend: 0x0, symName: __ZNSt3__16vectorIjNS_9allocatorIjEEE8__appendEm, symObjAddr: 0xF56C, symBinAddr: 0x23E44, symSize: 0x120 }
  - { offset: 0x119BC1, size: 0x8, addend: 0x0, symName: __ZNK13llama_context18get_gf_res_reserveEv, symObjAddr: 0x7AEC, symBinAddr: 0x1CB2C, symSize: 0x8 }
  - { offset: 0x119BED, size: 0x8, addend: 0x0, symName: __ZNK13llama_context18get_gf_res_reserveEv, symObjAddr: 0x7AEC, symBinAddr: 0x1CB2C, symSize: 0x8 }
  - { offset: 0x119D04, size: 0x8, addend: 0x0, symName: __ZN13llama_context14state_get_sizeEv, symObjAddr: 0x7B08, symBinAddr: 0x1CB48, symSize: 0xA0 }
  - { offset: 0x119DC6, size: 0x8, addend: 0x0, symName: __ZN13llama_context16state_write_dataER16llama_io_write_i, symObjAddr: 0x7BA8, symBinAddr: 0x1CBE8, symSize: 0x354 }
  - { offset: 0x11A8E5, size: 0x8, addend: 0x0, symName: __ZN20llama_io_write_dummyD1Ev, symObjAddr: 0x7EFC, symBinAddr: 0x1CF3C, symSize: 0x4 }
  - { offset: 0x11AA5E, size: 0x8, addend: 0x0, symName: __ZN13llama_context14state_get_dataEPhm, symObjAddr: 0x7F00, symBinAddr: 0x1CF40, symSize: 0xA4 }
  - { offset: 0x11AB5C, size: 0x8, addend: 0x0, symName: __ZN21llama_io_write_bufferD1Ev, symObjAddr: 0x7FA4, symBinAddr: 0x1CFE4, symSize: 0x4 }
  - { offset: 0x11ACCF, size: 0x8, addend: 0x0, symName: __ZN13llama_context14state_set_dataEPKhm, symObjAddr: 0x7FA8, symBinAddr: 0x1CFE8, symSize: 0xA4 }
  - { offset: 0x11ADCD, size: 0x8, addend: 0x0, symName: __ZN13llama_context15state_read_dataER15llama_io_read_i, symObjAddr: 0x804C, symBinAddr: 0x1D08C, symSize: 0x544 }
  - { offset: 0x11BE58, size: 0x8, addend: 0x0, symName: __ZN20llama_io_read_bufferD1Ev, symObjAddr: 0x8590, symBinAddr: 0x1D5D0, symSize: 0x4 }
  - { offset: 0x11BEC1, size: 0x8, addend: 0x0, symName: __ZN13llama_context18state_seq_get_sizeEij, symObjAddr: 0x8594, symBinAddr: 0x1D5D4, symSize: 0xC8 }
  - { offset: 0x11BFF6, size: 0x8, addend: 0x0, symName: __ZN13llama_context20state_seq_write_dataER16llama_io_write_iij, symObjAddr: 0x865C, symBinAddr: 0x1D69C, symSize: 0x40 }
  - { offset: 0x11C072, size: 0x8, addend: 0x0, symName: __ZN13llama_context18state_seq_get_dataEiPhmj, symObjAddr: 0x869C, symBinAddr: 0x1D6DC, symSize: 0xD4 }
  - { offset: 0x11C220, size: 0x8, addend: 0x0, symName: __ZN13llama_context18state_seq_set_dataEiPKhmj, symObjAddr: 0x8770, symBinAddr: 0x1D7B0, symSize: 0xD4 }
  - { offset: 0x11C391, size: 0x8, addend: 0x0, symName: __ZN13llama_context19state_seq_read_dataER15llama_io_read_iij, symObjAddr: 0x8844, symBinAddr: 0x1D884, symSize: 0x40 }
  - { offset: 0x11C860, size: 0x8, addend: 0x0, symName: __ZN13llama_context15state_load_fileEPKcPimPm, symObjAddr: 0x8884, symBinAddr: 0x1D8C4, symSize: 0x1D0 }
  - { offset: 0x11CCF5, size: 0x8, addend: 0x0, symName: __ZN18llama_io_read_fileD1Ev, symObjAddr: 0x8A54, symBinAddr: 0x1DA94, symSize: 0x44 }
  - { offset: 0x11CD19, size: 0x8, addend: 0x0, symName: __ZN18llama_io_read_fileD1Ev, symObjAddr: 0x8A54, symBinAddr: 0x1DA94, symSize: 0x44 }
  - { offset: 0x11CFCA, size: 0x8, addend: 0x0, symName: __ZN13llama_context15state_save_fileEPKcPKim, symObjAddr: 0x8A98, symBinAddr: 0x1DAD8, symSize: 0x104 }
  - { offset: 0x11D3A3, size: 0x8, addend: 0x0, symName: __ZN19llama_io_write_fileD1Ev, symObjAddr: 0x8B9C, symBinAddr: 0x1DBDC, symSize: 0x44 }
  - { offset: 0x11D3C7, size: 0x8, addend: 0x0, symName: __ZN19llama_io_write_fileD1Ev, symObjAddr: 0x8B9C, symBinAddr: 0x1DBDC, symSize: 0x44 }
  - { offset: 0x11D50E, size: 0x8, addend: 0x0, symName: __ZN13llama_context19state_seq_load_fileEiPKcPimPm, symObjAddr: 0x8BE0, symBinAddr: 0x1DC20, symSize: 0x278 }
  - { offset: 0x11DA34, size: 0x8, addend: 0x0, symName: __ZN13llama_context19state_seq_save_fileEiPKcPKim, symObjAddr: 0x8E58, symBinAddr: 0x1DE98, symSize: 0x198 }
  - { offset: 0x11DECC, size: 0x8, addend: 0x0, symName: __ZN19llama_io_write_file7n_bytesEv, symObjAddr: 0x8FF0, symBinAddr: 0x1E030, symSize: 0x8 }
  - { offset: 0x11DEEE, size: 0x8, addend: 0x0, symName: __ZNK13llama_context13perf_get_dataEv, symObjAddr: 0x8FF8, symBinAddr: 0x1E038, symSize: 0x54 }
  - { offset: 0x11DFD2, size: 0x8, addend: 0x0, symName: __ZN13llama_context10perf_resetEv, symObjAddr: 0x904C, symBinAddr: 0x1E08C, symSize: 0x38 }
  - { offset: 0x11E752, size: 0x8, addend: 0x0, symName: __ZNK13llama_context16memory_breakdownEv, symObjAddr: 0x9084, symBinAddr: 0x1E0C4, symSize: 0x500 }
  - { offset: 0x11FB47, size: 0x8, addend: 0x0, symName: __ZNSt3__16__treeINS_12__value_typeIP24ggml_backend_buffer_typemEENS_19__map_value_compareIS3_S4_NS_4lessIS3_EELb1EEENS_9allocatorIS4_EEE7destroyEPNS_11__tree_nodeIS4_PvEE, symObjAddr: 0xFB78, symBinAddr: 0x24450, symSize: 0x44 }
  - { offset: 0x11FC76, size: 0x8, addend: 0x0, symName: __ZNSt3__16__treeINS_12__value_typeIP24ggml_backend_buffer_type27llama_memory_breakdown_dataEENS_19__map_value_compareIS3_S5_NS_4lessIS3_EELb1EEENS_9allocatorIS5_EEE7destroyEPNS_11__tree_nodeIS5_PvEE, symObjAddr: 0xFB34, symBinAddr: 0x2440C, symSize: 0x44 }
  - { offset: 0x11FE27, size: 0x8, addend: 0x0, symName: __ZN13llama_context8opt_initEP11llama_model16llama_opt_params, symObjAddr: 0x9584, symBinAddr: 0x1E5C4, symSize: 0x5E8 }
  - { offset: 0x120761, size: 0x8, addend: 0x0, symName: __ZN13llama_context14opt_epoch_iterEP16ggml_opt_datasetP15ggml_opt_resultRKNSt3__16vectorIiNS4_9allocatorIiEEEESA_R11llama_batchPFvbP16ggml_opt_contextS1_S3_xxxEbxxx, symObjAddr: 0x9B6C, symBinAddr: 0x1EBAC, symSize: 0x788 }
  - { offset: 0x120892, size: 0x8, addend: 0x0, symName: __ZN13llama_context14opt_epoch_iterEP16ggml_opt_datasetP15ggml_opt_resultRKNSt3__16vectorIiNS4_9allocatorIiEEEESA_R11llama_batchPFvbP16ggml_opt_contextS1_S3_xxxEbxxx, symObjAddr: 0x9B6C, symBinAddr: 0x1EBAC, symSize: 0x788 }
  - { offset: 0x1218D7, size: 0x8, addend: 0x0, symName: __ZN13llama_context9opt_epochEP16ggml_opt_datasetP15ggml_opt_resultS3_xPFvbP16ggml_opt_contextS1_S3_xxxES7_, symObjAddr: 0xA2F4, symBinAddr: 0x1F334, symSize: 0x2C4 }
  - { offset: 0x122421, size: 0x8, addend: 0x0, symName: _llama_context_default_params, symObjAddr: 0xA5B8, symBinAddr: 0x1F5F8, symSize: 0x34 }
  - { offset: 0x12247F, size: 0x8, addend: 0x0, symName: _llama_init_from_model, symObjAddr: 0xA5EC, symBinAddr: 0x1F62C, symSize: 0x2D4 }
  - { offset: 0x122643, size: 0x8, addend: 0x0, symName: _llama_new_context_with_model, symObjAddr: 0xA8C0, symBinAddr: 0x1F900, symSize: 0x48 }
  - { offset: 0x1226B7, size: 0x8, addend: 0x0, symName: _llama_free, symObjAddr: 0xA908, symBinAddr: 0x1F948, symSize: 0x1C }
  - { offset: 0x122708, size: 0x8, addend: 0x0, symName: _llama_n_ctx, symObjAddr: 0xA924, symBinAddr: 0x1F964, symSize: 0x8 }
  - { offset: 0x122736, size: 0x8, addend: 0x0, symName: _llama_n_ctx, symObjAddr: 0xA924, symBinAddr: 0x1F964, symSize: 0x8 }
  - { offset: 0x12276A, size: 0x8, addend: 0x0, symName: _llama_n_ctx_seq, symObjAddr: 0xA92C, symBinAddr: 0x1F96C, symSize: 0x8 }
  - { offset: 0x122798, size: 0x8, addend: 0x0, symName: _llama_n_ctx_seq, symObjAddr: 0xA92C, symBinAddr: 0x1F96C, symSize: 0x8 }
  - { offset: 0x1227B3, size: 0x8, addend: 0x0, symName: _llama_n_batch, symObjAddr: 0xA934, symBinAddr: 0x1F974, symSize: 0x8 }
  - { offset: 0x1227E1, size: 0x8, addend: 0x0, symName: _llama_n_batch, symObjAddr: 0xA934, symBinAddr: 0x1F974, symSize: 0x8 }
  - { offset: 0x122815, size: 0x8, addend: 0x0, symName: _llama_n_ubatch, symObjAddr: 0xA93C, symBinAddr: 0x1F97C, symSize: 0x8 }
  - { offset: 0x122843, size: 0x8, addend: 0x0, symName: _llama_n_ubatch, symObjAddr: 0xA93C, symBinAddr: 0x1F97C, symSize: 0x8 }
  - { offset: 0x12285E, size: 0x8, addend: 0x0, symName: _llama_n_seq_max, symObjAddr: 0xA944, symBinAddr: 0x1F984, symSize: 0x8 }
  - { offset: 0x12288C, size: 0x8, addend: 0x0, symName: _llama_n_seq_max, symObjAddr: 0xA944, symBinAddr: 0x1F984, symSize: 0x8 }
  - { offset: 0x1228C0, size: 0x8, addend: 0x0, symName: _llama_get_model, symObjAddr: 0xA94C, symBinAddr: 0x1F98C, symSize: 0x8 }
  - { offset: 0x1228EE, size: 0x8, addend: 0x0, symName: _llama_get_model, symObjAddr: 0xA94C, symBinAddr: 0x1F98C, symSize: 0x8 }
  - { offset: 0x122922, size: 0x8, addend: 0x0, symName: _llama_pooling_type, symObjAddr: 0xA954, symBinAddr: 0x1F994, symSize: 0x8 }
  - { offset: 0x122950, size: 0x8, addend: 0x0, symName: _llama_pooling_type, symObjAddr: 0xA954, symBinAddr: 0x1F994, symSize: 0x8 }
  - { offset: 0x12299C, size: 0x8, addend: 0x0, symName: _llama_attach_threadpool, symObjAddr: 0xA95C, symBinAddr: 0x1F99C, symSize: 0x60 }
  - { offset: 0x122A3B, size: 0x8, addend: 0x0, symName: _llama_detach_threadpool, symObjAddr: 0xA9BC, symBinAddr: 0x1F9FC, symSize: 0x4C }
  - { offset: 0x122AC4, size: 0x8, addend: 0x0, symName: _llama_set_n_threads, symObjAddr: 0xAA08, symBinAddr: 0x1FA48, symSize: 0x58 }
  - { offset: 0x122B63, size: 0x8, addend: 0x0, symName: _llama_n_threads, symObjAddr: 0xAA60, symBinAddr: 0x1FAA0, symSize: 0x8 }
  - { offset: 0x122B91, size: 0x8, addend: 0x0, symName: _llama_n_threads, symObjAddr: 0xAA60, symBinAddr: 0x1FAA0, symSize: 0x8 }
  - { offset: 0x122BC5, size: 0x8, addend: 0x0, symName: _llama_n_threads_batch, symObjAddr: 0xAA68, symBinAddr: 0x1FAA8, symSize: 0x8 }
  - { offset: 0x122BF3, size: 0x8, addend: 0x0, symName: _llama_n_threads_batch, symObjAddr: 0xAA68, symBinAddr: 0x1FAA8, symSize: 0x8 }
  - { offset: 0x122C33, size: 0x8, addend: 0x0, symName: _llama_set_embeddings, symObjAddr: 0xAA70, symBinAddr: 0x1FAB0, symSize: 0x48 }
  - { offset: 0x122CC0, size: 0x8, addend: 0x0, symName: _llama_set_causal_attn, symObjAddr: 0xAAB8, symBinAddr: 0x1FAF8, symSize: 0x64 }
  - { offset: 0x122D56, size: 0x8, addend: 0x0, symName: _llama_set_warmup, symObjAddr: 0xAB1C, symBinAddr: 0x1FB5C, symSize: 0x54 }
  - { offset: 0x122DC7, size: 0x8, addend: 0x0, symName: _llama_synchronize, symObjAddr: 0xAB70, symBinAddr: 0x1FBB0, symSize: 0x4 }
  - { offset: 0x122DF0, size: 0x8, addend: 0x0, symName: _llama_synchronize, symObjAddr: 0xAB70, symBinAddr: 0x1FBB0, symSize: 0x4 }
  - { offset: 0x122E1C, size: 0x8, addend: 0x0, symName: _llama_get_logits, symObjAddr: 0xAB74, symBinAddr: 0x1FBB4, symSize: 0x2C }
  - { offset: 0x122E8E, size: 0x8, addend: 0x0, symName: _llama_get_logits_ith, symObjAddr: 0xABA0, symBinAddr: 0x1FBE0, symSize: 0x48 }
  - { offset: 0x122F30, size: 0x8, addend: 0x0, symName: _llama_get_embeddings, symObjAddr: 0xABE8, symBinAddr: 0x1FC28, symSize: 0x2C }
  - { offset: 0x122FA2, size: 0x8, addend: 0x0, symName: _llama_get_embeddings_ith, symObjAddr: 0xAC14, symBinAddr: 0x1FC54, symSize: 0x2C }
  - { offset: 0x123032, size: 0x8, addend: 0x0, symName: _llama_get_embeddings_seq, symObjAddr: 0xAC40, symBinAddr: 0x1FC80, symSize: 0x74 }
  - { offset: 0x1231D7, size: 0x8, addend: 0x0, symName: _llama_set_sampler, symObjAddr: 0xACB4, symBinAddr: 0x1FCF4, symSize: 0x4 }
  - { offset: 0x123220, size: 0x8, addend: 0x0, symName: _llama_set_sampler, symObjAddr: 0xACB4, symBinAddr: 0x1FCF4, symSize: 0x4 }
  - { offset: 0x123241, size: 0x8, addend: 0x0, symName: _llama_get_sampled_token_ith, symObjAddr: 0xACB8, symBinAddr: 0x1FCF8, symSize: 0x2C }
  - { offset: 0x1232A0, size: 0x8, addend: 0x0, symName: _llama_get_sampled_probs_ith, symObjAddr: 0xACE4, symBinAddr: 0x1FD24, symSize: 0x2C }
  - { offset: 0x1232FF, size: 0x8, addend: 0x0, symName: _llama_get_sampled_logits_ith, symObjAddr: 0xAD10, symBinAddr: 0x1FD50, symSize: 0x2C }
  - { offset: 0x1233A2, size: 0x8, addend: 0x0, symName: _llama_get_sampled_candidates_ith, symObjAddr: 0xAD3C, symBinAddr: 0x1FD7C, symSize: 0xA8 }
  - { offset: 0x123490, size: 0x8, addend: 0x0, symName: _llama_get_sampled_candidates_count_ith, symObjAddr: 0xADE4, symBinAddr: 0x1FE24, symSize: 0x30 }
  - { offset: 0x1234FB, size: 0x8, addend: 0x0, symName: _llama_get_sampled_logits_count_ith, symObjAddr: 0xAE14, symBinAddr: 0x1FE54, symSize: 0x30 }
  - { offset: 0x123566, size: 0x8, addend: 0x0, symName: _llama_get_sampled_probs_count_ith, symObjAddr: 0xAE44, symBinAddr: 0x1FE84, symSize: 0x30 }
  - { offset: 0x123610, size: 0x8, addend: 0x0, symName: _llama_set_adapter_lora, symObjAddr: 0xAE74, symBinAddr: 0x1FEB4, symSize: 0xB0 }
  - { offset: 0x123755, size: 0x8, addend: 0x0, symName: _llama_rm_adapter_lora, symObjAddr: 0xAF24, symBinAddr: 0x1FF64, symSize: 0x88 }
  - { offset: 0x1239B6, size: 0x8, addend: 0x0, symName: _llama_clear_adapter_lora, symObjAddr: 0xAFAC, symBinAddr: 0x1FFEC, symSize: 0x84 }
  - { offset: 0x123C5C, size: 0x8, addend: 0x0, symName: _llama_apply_adapter_cvec, symObjAddr: 0xB030, symBinAddr: 0x20070, symSize: 0x8C }
  - { offset: 0x123D5C, size: 0x8, addend: 0x0, symName: _llama_get_memory, symObjAddr: 0xB0BC, symBinAddr: 0x200FC, symSize: 0x8 }
  - { offset: 0x123D8A, size: 0x8, addend: 0x0, symName: _llama_get_memory, symObjAddr: 0xB0BC, symBinAddr: 0x200FC, symSize: 0x8 }
  - { offset: 0x123DA6, size: 0x8, addend: 0x0, symName: _llama_get_memory, symObjAddr: 0xB0BC, symBinAddr: 0x200FC, symSize: 0x8 }
  - { offset: 0x123DC5, size: 0x8, addend: 0x0, symName: _llama_memory_clear, symObjAddr: 0xB0C4, symBinAddr: 0x20104, symSize: 0x14 }
  - { offset: 0x123E0A, size: 0x8, addend: 0x0, symName: _llama_memory_seq_rm, symObjAddr: 0xB0D8, symBinAddr: 0x20118, symSize: 0x18 }
  - { offset: 0x123E6C, size: 0x8, addend: 0x0, symName: _llama_memory_seq_cp, symObjAddr: 0xB0F0, symBinAddr: 0x20130, symSize: 0x14 }
  - { offset: 0x123ED6, size: 0x8, addend: 0x0, symName: _llama_memory_seq_keep, symObjAddr: 0xB104, symBinAddr: 0x20144, symSize: 0x14 }
  - { offset: 0x123F16, size: 0x8, addend: 0x0, symName: _llama_memory_seq_add, symObjAddr: 0xB118, symBinAddr: 0x20158, symSize: 0x14 }
  - { offset: 0x123F80, size: 0x8, addend: 0x0, symName: _llama_memory_seq_div, symObjAddr: 0xB12C, symBinAddr: 0x2016C, symSize: 0x14 }
  - { offset: 0x123FEA, size: 0x8, addend: 0x0, symName: _llama_memory_seq_pos_min, symObjAddr: 0xB140, symBinAddr: 0x20180, symSize: 0x18 }
  - { offset: 0x124030, size: 0x8, addend: 0x0, symName: _llama_memory_seq_pos_max, symObjAddr: 0xB158, symBinAddr: 0x20198, symSize: 0x18 }
  - { offset: 0x124076, size: 0x8, addend: 0x0, symName: _llama_memory_can_shift, symObjAddr: 0xB170, symBinAddr: 0x201B0, symSize: 0x14 }
  - { offset: 0x1240C7, size: 0x8, addend: 0x0, symName: _llama_get_state_size, symObjAddr: 0xB184, symBinAddr: 0x201C4, symSize: 0x4 }
  - { offset: 0x1240F3, size: 0x8, addend: 0x0, symName: _llama_get_state_size, symObjAddr: 0xB184, symBinAddr: 0x201C4, symSize: 0x4 }
  - { offset: 0x124111, size: 0x8, addend: 0x0, symName: _llama_get_state_size, symObjAddr: 0xB184, symBinAddr: 0x201C4, symSize: 0x4 }
  - { offset: 0x124124, size: 0x8, addend: 0x0, symName: _llama_state_get_size, symObjAddr: 0xB188, symBinAddr: 0x201C8, symSize: 0x4 }
  - { offset: 0x124143, size: 0x8, addend: 0x0, symName: _llama_state_get_size, symObjAddr: 0xB188, symBinAddr: 0x201C8, symSize: 0x4 }
  - { offset: 0x124189, size: 0x8, addend: 0x0, symName: _llama_copy_state_data, symObjAddr: 0xB18C, symBinAddr: 0x201CC, symSize: 0x30 }
  - { offset: 0x124220, size: 0x8, addend: 0x0, symName: _llama_state_get_data, symObjAddr: 0xB1BC, symBinAddr: 0x201FC, symSize: 0x3C }
  - { offset: 0x1242A6, size: 0x8, addend: 0x0, symName: _llama_set_state_data, symObjAddr: 0xB1F8, symBinAddr: 0x20238, symSize: 0x30 }
  - { offset: 0x12433D, size: 0x8, addend: 0x0, symName: _llama_state_set_data, symObjAddr: 0xB228, symBinAddr: 0x20268, symSize: 0x3C }
  - { offset: 0x124390, size: 0x8, addend: 0x0, symName: _llama_load_session_file, symObjAddr: 0xB264, symBinAddr: 0x202A4, symSize: 0x4 }
  - { offset: 0x1243F5, size: 0x8, addend: 0x0, symName: _llama_load_session_file, symObjAddr: 0xB264, symBinAddr: 0x202A4, symSize: 0x4 }
  - { offset: 0x124424, size: 0x8, addend: 0x0, symName: _llama_state_load_file, symObjAddr: 0xB268, symBinAddr: 0x202A8, symSize: 0xD0 }
  - { offset: 0x124500, size: 0x8, addend: 0x0, symName: _llama_save_session_file, symObjAddr: 0xB338, symBinAddr: 0x20378, symSize: 0x4 }
  - { offset: 0x124557, size: 0x8, addend: 0x0, symName: _llama_save_session_file, symObjAddr: 0xB338, symBinAddr: 0x20378, symSize: 0x4 }
  - { offset: 0x12457F, size: 0x8, addend: 0x0, symName: _llama_state_save_file, symObjAddr: 0xB33C, symBinAddr: 0x2037C, symSize: 0xC0 }
  - { offset: 0x124678, size: 0x8, addend: 0x0, symName: _llama_state_seq_get_size, symObjAddr: 0xB3FC, symBinAddr: 0x2043C, symSize: 0x8 }
  - { offset: 0x1246B2, size: 0x8, addend: 0x0, symName: _llama_state_seq_get_size, symObjAddr: 0xB3FC, symBinAddr: 0x2043C, symSize: 0x8 }
  - { offset: 0x1246FD, size: 0x8, addend: 0x0, symName: _llama_state_seq_get_size_ext, symObjAddr: 0xB404, symBinAddr: 0x20444, symSize: 0x4 }
  - { offset: 0x12472A, size: 0x8, addend: 0x0, symName: _llama_state_seq_get_size_ext, symObjAddr: 0xB404, symBinAddr: 0x20444, symSize: 0x4 }
  - { offset: 0x124796, size: 0x8, addend: 0x0, symName: _llama_state_seq_get_data, symObjAddr: 0xB408, symBinAddr: 0x20448, symSize: 0x48 }
  - { offset: 0x12485C, size: 0x8, addend: 0x0, symName: _llama_state_seq_get_data_ext, symObjAddr: 0xB450, symBinAddr: 0x20490, symSize: 0x54 }
  - { offset: 0x12490C, size: 0x8, addend: 0x0, symName: _llama_state_seq_set_data, symObjAddr: 0xB4A4, symBinAddr: 0x204E4, symSize: 0x48 }
  - { offset: 0x1249D2, size: 0x8, addend: 0x0, symName: _llama_state_seq_set_data_ext, symObjAddr: 0xB4EC, symBinAddr: 0x2052C, symSize: 0x54 }
  - { offset: 0x124A37, size: 0x8, addend: 0x0, symName: _llama_state_seq_save_file, symObjAddr: 0xB540, symBinAddr: 0x20580, symSize: 0xD0 }
  - { offset: 0x124B13, size: 0x8, addend: 0x0, symName: _llama_state_seq_load_file, symObjAddr: 0xB610, symBinAddr: 0x20650, symSize: 0xD8 }
  - { offset: 0x124C05, size: 0x8, addend: 0x0, symName: _llama_encode, symObjAddr: 0xB6E8, symBinAddr: 0x20728, symSize: 0x4C }
  - { offset: 0x124C80, size: 0x8, addend: 0x0, symName: _llama_decode, symObjAddr: 0xB734, symBinAddr: 0x20774, symSize: 0x50 }
  - { offset: 0x124D20, size: 0x8, addend: 0x0, symName: _llama_perf_context, symObjAddr: 0xB784, symBinAddr: 0x207C4, symSize: 0x60 }
  - { offset: 0x124E45, size: 0x8, addend: 0x0, symName: _llama_perf_context_print, symObjAddr: 0xB7E4, symBinAddr: 0x20824, symSize: 0x1A8 }
  - { offset: 0x12501B, size: 0x8, addend: 0x0, symName: _llama_perf_context_reset, symObjAddr: 0xB98C, symBinAddr: 0x209CC, symSize: 0x38 }
  - { offset: 0x1263E4, size: 0x8, addend: 0x0, symName: _llama_memory_breakdown_print, symObjAddr: 0xB9C4, symBinAddr: 0x20A04, symSize: 0x1E84 }
  - { offset: 0x12D5B0, size: 0x8, addend: 0x0, symName: __ZNSt3__128__exception_guard_exceptionsINS_6vectorINS_12basic_stringIcNS_11char_traitsIcEENS_9allocatorIcEEEENS5_IS7_EEE16__destroy_vectorEED1B8ne200100Ev, symObjAddr: 0xFC58, symBinAddr: 0x244A8, symSize: 0x80 }
  - { offset: 0x12D5BB, size: 0x8, addend: 0x0, symName: __ZNSt3__15arrayINS_12basic_stringIcNS_11char_traitsIcEENS_9allocatorIcEEEELm9EED2Ev, symObjAddr: 0xE38C, symBinAddr: 0x2312C, symSize: 0x100 }
  - { offset: 0x12D705, size: 0x8, addend: 0x0, symName: __ZNSt3__16__treeIP24ggml_backend_buffer_typeNS_4lessIS2_EENS_9allocatorIS2_EEE7destroyEPNS_11__tree_nodeIS2_PvEE, symObjAddr: 0xFCD8, symBinAddr: 0x24528, symSize: 0x44 }
  - { offset: 0x12D831, size: 0x8, addend: 0x0, symName: __ZNSt3__16vectorINS_5arrayINS_12basic_stringIcNS_11char_traitsIcEENS_9allocatorIcEEEELm9EEENS5_IS8_EEE20__throw_length_errorB8ne200100Ev, symObjAddr: 0xFBBC, symBinAddr: 0x24494, symSize: 0x14 }
  - { offset: 0x12D854, size: 0x8, addend: 0x0, symName: __ZNSt3__16vectorI27llama_memory_breakdown_dataNS_9allocatorIS1_EEE20__throw_length_errorB8ne200100Ev, symObjAddr: 0xFD1C, symBinAddr: 0x2456C, symSize: 0x14 }
  - { offset: 0x12D877, size: 0x8, addend: 0x0, symName: __ZNSt3__128__exception_guard_exceptionsINS_6vectorINS_12basic_stringIcNS_11char_traitsIcEENS_9allocatorIcEEEENS5_IS7_EEE16__destroy_vectorEED1B8ne200100Ev, symObjAddr: 0xFC58, symBinAddr: 0x244A8, symSize: 0x80 }
  - { offset: 0x12DAE5, size: 0x8, addend: 0x0, symName: __ZNSt3__16vectorINS_12basic_stringIcNS_11char_traitsIcEENS_9allocatorIcEEEENS4_IS6_EEED1B8ne200100Ev, symObjAddr: 0xD848, symBinAddr: 0x22888, symSize: 0x70 }
  - { offset: 0x12DD45, size: 0x8, addend: 0x0, symName: __ZNSt3__16vectorINS_5arrayINS_12basic_stringIcNS_11char_traitsIcEENS_9allocatorIcEEEELm9EEENS5_IS8_EEED1B8ne200100Ev, symObjAddr: 0xD8B8, symBinAddr: 0x228F8, symSize: 0x58 }
  - { offset: 0x12DEED, size: 0x8, addend: 0x0, symName: _llama_opt_param_filter_all, symObjAddr: 0xD910, symBinAddr: 0x22950, symSize: 0x8 }
  - { offset: 0x12DF27, size: 0x8, addend: 0x0, symName: _llama_opt_init, symObjAddr: 0xD918, symBinAddr: 0x22958, symSize: 0x30 }
  - { offset: 0x12DF91, size: 0x8, addend: 0x0, symName: _llama_opt_epoch, symObjAddr: 0xD948, symBinAddr: 0x22988, symSize: 0x4 }
  - { offset: 0x12E00E, size: 0x8, addend: 0x0, symName: _llama_opt_epoch, symObjAddr: 0xD948, symBinAddr: 0x22988, symSize: 0x4 }
  - { offset: 0x12ECCC, size: 0x8, addend: 0x0, symName: __ZN20llama_io_write_dummyD0Ev, symObjAddr: 0xDDA0, symBinAddr: 0x22BC8, symSize: 0x4 }
  - { offset: 0x12ECF8, size: 0x8, addend: 0x0, symName: __ZN20llama_io_write_dummy5writeEPKvm, symObjAddr: 0xDDA4, symBinAddr: 0x22BCC, symSize: 0x10 }
  - { offset: 0x12ED36, size: 0x8, addend: 0x0, symName: __ZN20llama_io_write_dummy12write_tensorEPK11ggml_tensormm, symObjAddr: 0xDDB4, symBinAddr: 0x22BDC, symSize: 0x10 }
  - { offset: 0x12ED7F, size: 0x8, addend: 0x0, symName: __ZN20llama_io_write_dummy7n_bytesEv, symObjAddr: 0xDDC4, symBinAddr: 0x22BEC, symSize: 0x8 }
  - { offset: 0x12EDA6, size: 0x8, addend: 0x0, symName: __ZN21llama_io_write_bufferD0Ev, symObjAddr: 0xDDCC, symBinAddr: 0x22BF4, symSize: 0x4 }
  - { offset: 0x12EDD2, size: 0x8, addend: 0x0, symName: __ZN21llama_io_write_buffer5writeEPKvm, symObjAddr: 0xDDD0, symBinAddr: 0x22BF8, symSize: 0x94 }
  - { offset: 0x12EE19, size: 0x8, addend: 0x0, symName: __ZN21llama_io_write_buffer12write_tensorEPK11ggml_tensormm, symObjAddr: 0xDE64, symBinAddr: 0x22C8C, symSize: 0x9C }
  - { offset: 0x12EE9A, size: 0x8, addend: 0x0, symName: __ZN21llama_io_write_buffer7n_bytesEv, symObjAddr: 0xDF00, symBinAddr: 0x22D28, symSize: 0x8 }
  - { offset: 0x12EEC1, size: 0x8, addend: 0x0, symName: __ZN20llama_io_read_bufferD0Ev, symObjAddr: 0xDF08, symBinAddr: 0x22D30, symSize: 0x4 }
  - { offset: 0x12EEED, size: 0x8, addend: 0x0, symName: __ZN20llama_io_read_buffer4readEm, symObjAddr: 0xDF0C, symBinAddr: 0x22D34, symSize: 0x84 }
  - { offset: 0x12EF34, size: 0x8, addend: 0x0, symName: __ZN20llama_io_read_buffer7read_toEPvm, symObjAddr: 0xDF90, symBinAddr: 0x22DB8, symSize: 0x3C }
  - { offset: 0x12EF96, size: 0x8, addend: 0x0, symName: __ZN20llama_io_read_buffer7n_bytesEv, symObjAddr: 0xDFCC, symBinAddr: 0x22DF4, symSize: 0x8 }
  - { offset: 0x12EFBD, size: 0x8, addend: 0x0, symName: __ZN18llama_io_read_fileD0Ev, symObjAddr: 0xDFD4, symBinAddr: 0x22DFC, symSize: 0x44 }
  - { offset: 0x12EFED, size: 0x8, addend: 0x0, symName: __ZN18llama_io_read_fileD0Ev, symObjAddr: 0xDFD4, symBinAddr: 0x22DFC, symSize: 0x44 }
  - { offset: 0x12F00B, size: 0x8, addend: 0x0, symName: __ZN18llama_io_read_fileD0Ev, symObjAddr: 0xDFD4, symBinAddr: 0x22DFC, symSize: 0x44 }
  - { offset: 0x12F589, size: 0x8, addend: 0x0, symName: __ZN18llama_io_read_file4readEm, symObjAddr: 0xE018, symBinAddr: 0x22E40, symSize: 0x108 }
  - { offset: 0x12FAD4, size: 0x8, addend: 0x0, symName: __ZN18llama_io_read_file7read_toEPvm, symObjAddr: 0xE120, symBinAddr: 0x22F48, symSize: 0x34 }
  - { offset: 0x12FAF4, size: 0x8, addend: 0x0, symName: __ZN18llama_io_read_file7read_toEPvm, symObjAddr: 0xE120, symBinAddr: 0x22F48, symSize: 0x34 }
  - { offset: 0x12FB3B, size: 0x8, addend: 0x0, symName: __ZN18llama_io_read_file7n_bytesEv, symObjAddr: 0xE154, symBinAddr: 0x22F7C, symSize: 0x8 }
  - { offset: 0x12FBC7, size: 0x8, addend: 0x0, symName: __ZN19llama_io_write_fileD0Ev, symObjAddr: 0xE1E4, symBinAddr: 0x22F84, symSize: 0x44 }
  - { offset: 0x12FBF7, size: 0x8, addend: 0x0, symName: __ZN19llama_io_write_fileD0Ev, symObjAddr: 0xE1E4, symBinAddr: 0x22F84, symSize: 0x44 }
  - { offset: 0x12FC15, size: 0x8, addend: 0x0, symName: __ZN19llama_io_write_fileD0Ev, symObjAddr: 0xE1E4, symBinAddr: 0x22F84, symSize: 0x44 }
  - { offset: 0x12FD5D, size: 0x8, addend: 0x0, symName: __ZN19llama_io_write_file5writeEPKvm, symObjAddr: 0xE228, symBinAddr: 0x22FC8, symSize: 0x34 }
  - { offset: 0x12FDA4, size: 0x8, addend: 0x0, symName: __ZN19llama_io_write_file12write_tensorEPK11ggml_tensormm, symObjAddr: 0xE25C, symBinAddr: 0x22FFC, symSize: 0x130 }
  - { offset: 0x13033D, size: 0x8, addend: 0x0, symName: __ZNSt3__15arrayINS_12basic_stringIcNS_11char_traitsIcEENS_9allocatorIcEEEELm9EED2Ev, symObjAddr: 0xE38C, symBinAddr: 0x2312C, symSize: 0x100 }
  - { offset: 0x130ACF, size: 0x8, addend: 0x0, symName: __ZNSt3__112__hash_tableINS_17__hash_value_typeIP18llama_adapter_lorafEENS_22__unordered_map_hasherIS3_S4_NS_4hashIS3_EENS_8equal_toIS3_EELb1EEENS_21__unordered_map_equalIS3_S4_S9_S7_Lb1EEENS_9allocatorIS4_EEE11__do_rehashILb1EEEvm, symObjAddr: 0xEEF0, symBinAddr: 0x23B34, symSize: 0x180 }
  - { offset: 0x130E5C, size: 0x8, addend: 0x0, symName: __ZNSt3__112__hash_tableINS_17__hash_value_typeIP18llama_adapter_lorafEENS_22__unordered_map_hasherIS3_S4_NS_4hashIS3_EENS_8equal_toIS3_EELb1EEENS_21__unordered_map_equalIS3_S4_S9_S7_Lb1EEENS_9allocatorIS4_EEE6removeENS_21__hash_const_iteratorIPNS_11__hash_nodeIS4_PvEEEE, symObjAddr: 0xF070, symBinAddr: 0x23CB4, symSize: 0x138 }
  - { offset: 0x13172D, size: 0x8, addend: 0x0, symName: __ZNSt3__16__treeINS_12__value_typeIijEENS_19__map_value_compareIiS2_NS_4lessIiEELb1EEENS_9allocatorIS2_EEE7destroyEPNS_11__tree_nodeIS2_PvEE, symObjAddr: 0xF514, symBinAddr: 0x23DEC, symSize: 0x44 }
  - { offset: 0x131A4B, size: 0x8, addend: 0x0, symName: __ZNSt3__16vectorIjNS_9allocatorIjEEE20__throw_length_errorB8ne200100Ev, symObjAddr: 0xF68C, symBinAddr: 0x23F64, symSize: 0x14 }
  - { offset: 0x131A63, size: 0x8, addend: 0x0, symName: __ZNSt3__13mapIiP13llama_samplerNS_4lessIiEENS_9allocatorINS_4pairIKiS2_EEEEE6insertB8ne200100INS_20__map_const_iteratorINS_21__tree_const_iteratorINS_12__value_typeIiS2_EEPNS_11__tree_nodeISF_PvEElEEEEEEvT_SM_, symObjAddr: 0xF6A0, symBinAddr: 0x23F78, symSize: 0xF4 }
  - { offset: 0x131CB3, size: 0x8, addend: 0x0, symName: __ZNSt3__16__treeINS_12__value_typeIiP13llama_samplerEENS_19__map_value_compareIiS4_NS_4lessIiEELb1EEENS_9allocatorIS4_EEE12__find_equalIiEERPNS_16__tree_node_baseIPvEENS_21__tree_const_iteratorIS4_PNS_11__tree_nodeIS4_SE_EElEERPNS_15__tree_end_nodeISG_EESH_RKT_, symObjAddr: 0xF794, symBinAddr: 0x2406C, symSize: 0x1B0 }
  - { offset: 0x131D16, size: 0x8, addend: 0x0, symName: __ZNSt3__16__treeINS_12__value_typeIiP13llama_samplerEENS_19__map_value_compareIiS4_NS_4lessIiEELb1EEENS_9allocatorIS4_EEE12__find_equalIiEERPNS_16__tree_node_baseIPvEENS_21__tree_const_iteratorIS4_PNS_11__tree_nodeIS4_SE_EElEERPNS_15__tree_end_nodeISG_EESH_RKT_, symObjAddr: 0xF794, symBinAddr: 0x2406C, symSize: 0x1B0 }
  - { offset: 0x131D32, size: 0x8, addend: 0x0, symName: __ZNSt3__16__treeINS_12__value_typeIiP13llama_samplerEENS_19__map_value_compareIiS4_NS_4lessIiEELb1EEENS_9allocatorIS4_EEE12__find_equalIiEERPNS_16__tree_node_baseIPvEENS_21__tree_const_iteratorIS4_PNS_11__tree_nodeIS4_SE_EElEERPNS_15__tree_end_nodeISG_EESH_RKT_, symObjAddr: 0xF794, symBinAddr: 0x2406C, symSize: 0x1B0 }
  - { offset: 0x1320C7, size: 0x8, addend: 0x0, symName: '__ZNSt3__110__function6__funcIZNK13llama_context12graph_get_cbEvE3$_0NS_9allocatorIS3_EEFvRK12llama_ubatchP11ggml_tensorPKciEED1Ev', symObjAddr: 0xF944, symBinAddr: 0x2421C, symSize: 0x4 }
  - { offset: 0x1320F3, size: 0x8, addend: 0x0, symName: '__ZNSt3__110__function6__funcIZNK13llama_context12graph_get_cbEvE3$_0NS_9allocatorIS3_EEFvRK12llama_ubatchP11ggml_tensorPKciEED0Ev', symObjAddr: 0xF948, symBinAddr: 0x24220, symSize: 0x4 }
  - { offset: 0x1321AA, size: 0x8, addend: 0x0, symName: '__ZNKSt3__110__function6__funcIZNK13llama_context12graph_get_cbEvE3$_0NS_9allocatorIS3_EEFvRK12llama_ubatchP11ggml_tensorPKciEE7__cloneEv', symObjAddr: 0xF94C, symBinAddr: 0x24224, symSize: 0x34 }
  - { offset: 0x1322FA, size: 0x8, addend: 0x0, symName: '__ZNKSt3__110__function6__funcIZNK13llama_context12graph_get_cbEvE3$_0NS_9allocatorIS3_EEFvRK12llama_ubatchP11ggml_tensorPKciEE7__cloneEPNS0_6__baseISD_EE', symObjAddr: 0xF980, symBinAddr: 0x24258, symSize: 0x14 }
  - { offset: 0x132367, size: 0x8, addend: 0x0, symName: '__ZNSt3__110__function6__funcIZNK13llama_context12graph_get_cbEvE3$_0NS_9allocatorIS3_EEFvRK12llama_ubatchP11ggml_tensorPKciEE7destroyEv', symObjAddr: 0xF994, symBinAddr: 0x2426C, symSize: 0x4 }
  - { offset: 0x1323BC, size: 0x8, addend: 0x0, symName: '__ZNSt3__110__function6__funcIZNK13llama_context12graph_get_cbEvE3$_0NS_9allocatorIS3_EEFvRK12llama_ubatchP11ggml_tensorPKciEE18destroy_deallocateEv', symObjAddr: 0xF998, symBinAddr: 0x24270, symSize: 0x4 }
  - { offset: 0x1323EF, size: 0x8, addend: 0x0, symName: '__ZNSt3__110__function6__funcIZNK13llama_context12graph_get_cbEvE3$_0NS_9allocatorIS3_EEFvRK12llama_ubatchP11ggml_tensorPKciEE18destroy_deallocateEv', symObjAddr: 0xF998, symBinAddr: 0x24270, symSize: 0x4 }
  - { offset: 0x132412, size: 0x8, addend: 0x0, symName: '__ZNSt3__110__function6__funcIZNK13llama_context12graph_get_cbEvE3$_0NS_9allocatorIS3_EEFvRK12llama_ubatchP11ggml_tensorPKciEE18destroy_deallocateEv', symObjAddr: 0xF998, symBinAddr: 0x24270, symSize: 0x4 }
  - { offset: 0x132445, size: 0x8, addend: 0x0, symName: '__ZNSt3__110__function6__funcIZNK13llama_context12graph_get_cbEvE3$_0NS_9allocatorIS3_EEFvRK12llama_ubatchP11ggml_tensorPKciEE18destroy_deallocateEv', symObjAddr: 0xF998, symBinAddr: 0x24270, symSize: 0x4 }
  - { offset: 0x1325B0, size: 0x8, addend: 0x0, symName: '__ZNSt3__110__function6__funcIZNK13llama_context12graph_get_cbEvE3$_0NS_9allocatorIS3_EEFvRK12llama_ubatchP11ggml_tensorPKciEEclES8_OSA_OSC_Oi', symObjAddr: 0xF99C, symBinAddr: 0x24274, symSize: 0x128 }
  - { offset: 0x1328AA, size: 0x8, addend: 0x0, symName: '__ZNKSt3__110__function6__funcIZNK13llama_context12graph_get_cbEvE3$_0NS_9allocatorIS3_EEFvRK12llama_ubatchP11ggml_tensorPKciEE6targetERKSt9type_info', symObjAddr: 0xFAC4, symBinAddr: 0x2439C, symSize: 0x64 }
  - { offset: 0x13295E, size: 0x8, addend: 0x0, symName: '__ZNKSt3__110__function6__funcIZNK13llama_context12graph_get_cbEvE3$_0NS_9allocatorIS3_EEFvRK12llama_ubatchP11ggml_tensorPKciEE11target_typeEv', symObjAddr: 0xFB28, symBinAddr: 0x24400, symSize: 0xC }
  - { offset: 0x134B12, size: 0x8, addend: 0x0, symName: _llama_max_parallel_sequences, symObjAddr: 0x0, symBinAddr: 0x24580, symSize: 0x8 }
  - { offset: 0x134B20, size: 0x8, addend: 0x0, symName: _llama_max_parallel_sequences, symObjAddr: 0x0, symBinAddr: 0x24580, symSize: 0x8 }
  - { offset: 0x134C76, size: 0x8, addend: 0x0, symName: __ZNK29llama_grammar_trigger_pattern4findERKNSt3__112basic_stringIcNS0_11char_traitsIcEENS0_9allocatorIcEEEE, symObjAddr: 0x0, symBinAddr: 0x24588, symSize: 0x394 }
  - { offset: 0x15A770, size: 0x8, addend: 0x0, symName: __ZNSt3__135__uninitialized_allocator_copy_implB8ne200100INS_9allocatorINS_6vectorI21llama_grammar_elementNS1_IS3_EEEEEEPS5_S7_S7_EET2_RT_T0_T1_S8_, symObjAddr: 0x16784, symBinAddr: 0x3A864, symSize: 0xF8 }
  - { offset: 0x15ACE2, size: 0x8, addend: 0x0, symName: __ZNSt3__135__uninitialized_allocator_copy_implB8ne200100INS_9allocatorINS_6vectorIPK21llama_grammar_elementNS1_IS5_EEEEEEPS7_S9_S9_EET2_RT_T0_T1_SA_, symObjAddr: 0x1696C, symBinAddr: 0x3AA4C, symSize: 0xF8 }
  - { offset: 0x15C202, size: 0x8, addend: 0x0, symName: __ZNSt3__119__throw_regex_errorB8ne200100ILNS_15regex_constants10error_typeE12EEEvv, symObjAddr: 0xC1BC, symBinAddr: 0x30568, symSize: 0x4C }
  - { offset: 0x15C228, size: 0x8, addend: 0x0, symName: __ZNSt3__119__throw_regex_errorB8ne200100ILNS_15regex_constants10error_typeE16EEEvv, symObjAddr: 0xC208, symBinAddr: 0x305B4, symSize: 0x4C }
  - { offset: 0x15DC3B, size: 0x8, addend: 0x0, symName: __ZNSt3__134__uninitialized_allocator_relocateB8ne200100INS_9allocatorI29llama_grammar_trigger_patternEEPS2_EEvRT_T0_S7_S7_, symObjAddr: 0xEB48, symBinAddr: 0x32D34, symSize: 0xFC }
  - { offset: 0x15DC96, size: 0x8, addend: 0x0, symName: __ZNSt3__134__uninitialized_allocator_relocateB8ne200100INS_9allocatorI29llama_grammar_trigger_patternEEPS2_EEvRT_T0_S7_S7_, symObjAddr: 0xEB48, symBinAddr: 0x32D34, symSize: 0xFC }
  - { offset: 0x15E132, size: 0x8, addend: 0x0, symName: __ZNSt3__119__throw_regex_errorB8ne200100ILNS_15regex_constants10error_typeE17EEEvv, symObjAddr: 0xEFD0, symBinAddr: 0x331BC, symSize: 0x4C }
  - { offset: 0x15E86D, size: 0x8, addend: 0x0, symName: __ZNSt3__119__throw_regex_errorB8ne200100ILNS_15regex_constants10error_typeE14EEEvv, symObjAddr: 0xF888, symBinAddr: 0x33A74, symSize: 0x4C }
  - { offset: 0x15EB56, size: 0x8, addend: 0x0, symName: __ZNSt3__119__throw_regex_errorB8ne200100ILNS_15regex_constants10error_typeE15EEEvv, symObjAddr: 0x15B64, symBinAddr: 0x39CCC, symSize: 0x4C }
  - { offset: 0x15EF52, size: 0x8, addend: 0x0, symName: __ZNSt3__119__throw_regex_errorB8ne200100ILNS_15regex_constants10error_typeE6EEEvv, symObjAddr: 0x104CC, symBinAddr: 0x346B8, symSize: 0x4C }
  - { offset: 0x15F101, size: 0x8, addend: 0x0, symName: __ZNSt3__119__throw_regex_errorB8ne200100ILNS_15regex_constants10error_typeE11EEEvv, symObjAddr: 0x10E38, symBinAddr: 0x35024, symSize: 0x4C }
  - { offset: 0x15F145, size: 0x8, addend: 0x0, symName: __ZNSt3__119__throw_regex_errorB8ne200100ILNS_15regex_constants10error_typeE8EEEvv, symObjAddr: 0x15524, symBinAddr: 0x3968C, symSize: 0x4C }
  - { offset: 0x15F16B, size: 0x8, addend: 0x0, symName: __ZNSt3__119__throw_regex_errorB8ne200100ILNS_15regex_constants10error_typeE7EEEvv, symObjAddr: 0x15570, symBinAddr: 0x396D8, symSize: 0x4C }
  - { offset: 0x15F29C, size: 0x8, addend: 0x0, symName: __ZNSt3__119__throw_regex_errorB8ne200100ILNS_15regex_constants10error_typeE4EEEvv, symObjAddr: 0x11708, symBinAddr: 0x358F4, symSize: 0x4C }
  - { offset: 0x15F2C2, size: 0x8, addend: 0x0, symName: __ZNSt3__119__throw_regex_errorB8ne200100ILNS_15regex_constants10error_typeE3EEEvv, symObjAddr: 0x10F90, symBinAddr: 0x3517C, symSize: 0x4C }
  - { offset: 0x15F2E8, size: 0x8, addend: 0x0, symName: __ZNSt3__119__throw_regex_errorB8ne200100ILNS_15regex_constants10error_typeE5EEEvv, symObjAddr: 0x132D4, symBinAddr: 0x3743C, symSize: 0x4C }
  - { offset: 0x15FEFC, size: 0x8, addend: 0x0, symName: __ZNSt3__119__throw_regex_errorB8ne200100ILNS_15regex_constants10error_typeE1EEEvv, symObjAddr: 0x1464C, symBinAddr: 0x387B4, symSize: 0x4C }
  - { offset: 0x15FF22, size: 0x8, addend: 0x0, symName: __ZNSt3__119__throw_regex_errorB8ne200100ILNS_15regex_constants10error_typeE2EEEvv, symObjAddr: 0x14C28, symBinAddr: 0x38D90, symSize: 0x4C }
  - { offset: 0x15FF84, size: 0x8, addend: 0x0, symName: __ZNSt3__119__throw_regex_errorB8ne200100ILNS_15regex_constants10error_typeE9EEEvv, symObjAddr: 0x151EC, symBinAddr: 0x39354, symSize: 0x4C }
  - { offset: 0x161DA4, size: 0x8, addend: 0x0, symName: __ZL11decode_utf8RKNSt3__112basic_stringIcNS_11char_traitsIcEENS_9allocatorIcEEEE18llama_partial_utf8, symObjAddr: 0x871C, symBinAddr: 0x2CC00, symSize: 0x498 }
  - { offset: 0x161DCE, size: 0x8, addend: 0x0, symName: __ZZL11decode_utf8RKNSt3__112basic_stringIcNS_11char_traitsIcEENS_9allocatorIcEEEE18llama_partial_utf8E6lookup, symObjAddr: 0x18460, symBinAddr: 0x296D18, symSize: 0x0 }
  - { offset: 0x16556E, size: 0x8, addend: 0x0, symName: __ZNK29llama_grammar_trigger_pattern4findERKNSt3__112basic_stringIcNS0_11char_traitsIcEENS0_9allocatorIcEEEE, symObjAddr: 0x0, symBinAddr: 0x24588, symSize: 0x394 }
  - { offset: 0x1668E1, size: 0x8, addend: 0x0, symName: __ZNKSt3__111basic_regexIcNS_12regex_traitsIcEEE8__searchINS_9allocatorINS_9sub_matchIPKcEEEEEEbS8_S8_RNS_13match_resultsIS8_T_EENS_15regex_constants15match_flag_typeE, symObjAddr: 0xA85C, symBinAddr: 0x2EC08, symSize: 0x308 }
  - { offset: 0x166E3C, size: 0x8, addend: 0x0, symName: __ZNSt3__113match_resultsINS_11__wrap_iterIPKcEENS_9allocatorINS_9sub_matchIS4_EEEEE8__assignB8ne200100IS3_NS5_INS6_IS3_EEEEEEvS4_S4_RKNS0_IT_T0_EEb, symObjAddr: 0xAB64, symBinAddr: 0x2EF10, symSize: 0x168 }
  - { offset: 0x167D95, size: 0x8, addend: 0x0, symName: __ZN20llama_grammar_parser13get_symbol_idEPKcm, symObjAddr: 0x394, symBinAddr: 0x2491C, symSize: 0x104 }
  - { offset: 0x168286, size: 0x8, addend: 0x0, symName: __ZNSt3__16__treeINS_12__value_typeINS_12basic_stringIcNS_11char_traitsIcEENS_9allocatorIcEEEEjEENS_19__map_value_compareIS7_S8_NS_4lessIS7_EELb1EEENS5_IS8_EEE25__emplace_unique_key_argsIS7_JS7_RjEEENS_4pairINS_15__tree_iteratorIS8_PNS_11__tree_nodeIS8_PvEElEEbEERKT_DpOT0_, symObjAddr: 0xDFC4, symBinAddr: 0x32370, symSize: 0x180 }
  - { offset: 0x168859, size: 0x8, addend: 0x0, symName: __ZNKSt3__111basic_regexIcNS_12regex_traitsIcEEE8__searchINS_9allocatorINS_9sub_matchIPKcEEEEEEbS8_S8_RNS_13match_resultsIS8_T_EENS_15regex_constants15match_flag_typeE, symObjAddr: 0xA85C, symBinAddr: 0x2EC08, symSize: 0x308 }
  - { offset: 0x168864, size: 0x8, addend: 0x0, symName: __ZNSt3__112basic_stringIcNS_11char_traitsIcEENS_9allocatorIcEEEC1B8ne200100EPKcm, symObjAddr: 0x498, symBinAddr: 0x24A20, symSize: 0xA8 }
  - { offset: 0x168A8E, size: 0x8, addend: 0x0, symName: __ZN20llama_grammar_parser18generate_symbol_idERKNSt3__112basic_stringIcNS0_11char_traitsIcEENS0_9allocatorIcEEEE, symObjAddr: 0x540, symBinAddr: 0x24AC8, symSize: 0x200 }
  - { offset: 0x168C07, size: 0x8, addend: 0x0, symName: __ZN20llama_grammar_parser18generate_symbol_idERKNSt3__112basic_stringIcNS0_11char_traitsIcEENS0_9allocatorIcEEEE, symObjAddr: 0x540, symBinAddr: 0x24AC8, symSize: 0x200 }
  - { offset: 0x169673, size: 0x8, addend: 0x0, symName: __ZNSt3__16__treeINS_12__value_typeINS_12basic_stringIcNS_11char_traitsIcEENS_9allocatorIcEEEEjEENS_19__map_value_compareIS7_S8_NS_4lessIS7_EELb1EEENS5_IS8_EEE25__emplace_unique_key_argsIS7_JRKNS_21piecewise_construct_tENS_5tupleIJOS7_EEENSJ_IJEEEEEENS_4pairINS_15__tree_iteratorIS8_PNS_11__tree_nodeIS8_PvEElEEbEERKT_DpOT0_, symObjAddr: 0xE2F0, symBinAddr: 0x324F0, symSize: 0x174 }
  - { offset: 0x169ED2, size: 0x8, addend: 0x0, symName: __ZN20llama_grammar_parser8add_ruleEjRKNSt3__16vectorI21llama_grammar_elementNS0_9allocatorIS2_EEEE, symObjAddr: 0x740, symBinAddr: 0x24CC8, symSize: 0xE4 }
  - { offset: 0x16A1D0, size: 0x8, addend: 0x0, symName: __ZNSt3__16vectorINS0_I21llama_grammar_elementNS_9allocatorIS1_EEEENS2_IS4_EEE8__appendEm, symObjAddr: 0xE464, symBinAddr: 0x32664, symSize: 0x180 }
  - { offset: 0x16A613, size: 0x8, addend: 0x0, symName: __ZNSt3__16vectorINS0_I21llama_grammar_elementNS_9allocatorIS1_EEEENS2_IS4_EEE20__throw_length_errorB8ne200100Ev, symObjAddr: 0xE5E4, symBinAddr: 0x327E4, symSize: 0x14 }
  - { offset: 0x16A61E, size: 0x8, addend: 0x0, symName: __ZNSt3__16vectorI21llama_grammar_elementNS_9allocatorIS1_EEE18__assign_with_sizeB8ne200100IPS1_S6_EEvT_T0_l, symObjAddr: 0xE5F8, symBinAddr: 0x327F8, symSize: 0x148 }
  - { offset: 0x16B008, size: 0x8, addend: 0x0, symName: __ZNSt3__16__treeINS_12__value_typeIjNS_12basic_stringIcNS_11char_traitsIcEENS_9allocatorIcEEEEEENS_19__map_value_compareIjS8_NS_4lessIjEELb1EEENS5_IS8_EEE7destroyEPNS_11__tree_nodeIS8_PvEE, symObjAddr: 0xE740, symBinAddr: 0x32940, symSize: 0x60 }
  - { offset: 0x16B3C2, size: 0x8, addend: 0x0, symName: __ZN20llama_grammar_parser16parse_alternatesEPKcRKNSt3__112basic_stringIcNS2_11char_traitsIcEENS2_9allocatorIcEEEEjb, symObjAddr: 0x824, symBinAddr: 0x24DAC, symSize: 0x34C }
  - { offset: 0x16C1F7, size: 0x8, addend: 0x0, symName: __ZN20llama_grammar_parser14parse_sequenceEPKcRKNSt3__112basic_stringIcNS2_11char_traitsIcEENS2_9allocatorIcEEEERNS2_6vectorI21llama_grammar_elementNS6_ISC_EEEEb, symObjAddr: 0xB70, symBinAddr: 0x250F8, symSize: 0x1E80 }
  - { offset: 0x16FAA0, size: 0x8, addend: 0x0, symName: __ZNSt3__16vectorI21llama_grammar_elementNS_9allocatorIS1_EEE20__throw_length_errorB8ne200100Ev, symObjAddr: 0x9E2C, symBinAddr: 0x2E310, symSize: 0x14 }
  - { offset: 0x16FC42, size: 0x8, addend: 0x0, symName: __ZL10parse_charPKc, symObjAddr: 0x29F0, symBinAddr: 0x26F78, symSize: 0x288 }
  - { offset: 0x16FF44, size: 0x8, addend: 0x0, symName: __ZL9parse_intPKc, symObjAddr: 0x35D0, symBinAddr: 0x27AB4, symSize: 0x124 }
  - { offset: 0x1701F2, size: 0x8, addend: 0x0, symName: __ZL10parse_namePKc, symObjAddr: 0x2C78, symBinAddr: 0x27200, symSize: 0x13C }
  - { offset: 0x1704BE, size: 0x8, addend: 0x0, symName: '__ZZN20llama_grammar_parser14parse_sequenceEPKcRKNSt3__112basic_stringIcNS2_11char_traitsIcEENS2_9allocatorIcEEEERNS2_6vectorI21llama_grammar_elementNS6_ISC_EEEEbENK3$_0clEyy', symObjAddr: 0x2E58, symBinAddr: 0x2733C, symSize: 0x778 }
  - { offset: 0x17258F, size: 0x8, addend: 0x0, symName: '__ZZN20llama_grammar_parser14parse_sequenceEPKcRKNSt3__112basic_stringIcNS2_11char_traitsIcEENS2_9allocatorIcEEEERNS2_6vectorI21llama_grammar_elementNS6_ISC_EEEEbENK3$_0clEyy', symObjAddr: 0x2E58, symBinAddr: 0x2733C, symSize: 0x778 }
  - { offset: 0x172604, size: 0x8, addend: 0x0, symName: __ZL9parse_hexPKci, symObjAddr: 0x9BEC, symBinAddr: 0x2E0D0, symSize: 0x240 }
  - { offset: 0x17312F, size: 0x8, addend: 0x0, symName: __ZNSt3__16vectorI21llama_grammar_elementNS_9allocatorIS1_EEE18__insert_with_sizeB8ne200100INS_11__wrap_iterIPS1_EES8_EES8_NS6_IPKS1_EET_T0_l, symObjAddr: 0x9FFC, symBinAddr: 0x2E444, symSize: 0x38C }
  - { offset: 0x173BFC, size: 0x8, addend: 0x0, symName: __ZNSt3__16vectorI21llama_grammar_elementNS_9allocatorIS1_EEE8__appendEm, symObjAddr: 0x9EDC, symBinAddr: 0x2E324, symSize: 0x120 }
  - { offset: 0x173FC5, size: 0x8, addend: 0x0, symName: __ZNSt3__16vectorI21llama_grammar_elementNS_9allocatorIS1_EEE18__insert_with_sizeB8ne200100INS_11__wrap_iterIPS1_EES8_EES8_NS6_IPKS1_EET_T0_l, symObjAddr: 0x9FFC, symBinAddr: 0x2E444, symSize: 0x38C }
  - { offset: 0x173FD0, size: 0x8, addend: 0x0, symName: __ZN20llama_grammar_parser10parse_ruleEPKc, symObjAddr: 0x36F4, symBinAddr: 0x27BD8, symSize: 0x440 }
  - { offset: 0x174B53, size: 0x8, addend: 0x0, symName: __ZN20llama_grammar_parser5parseEPKc, symObjAddr: 0x3B34, symBinAddr: 0x28018, symSize: 0x350 }
  - { offset: 0x1759EE, size: 0x8, addend: 0x0, symName: __ZN20llama_grammar_parser5printEP7__sFILE, symObjAddr: 0x3E84, symBinAddr: 0x28368, symSize: 0xA40 }
  - { offset: 0x1773E5, size: 0x8, addend: 0x0, symName: __ZNSt3__16__treeINS_12__value_typeIjNS_12basic_stringIcNS_11char_traitsIcEENS_9allocatorIcEEEEEENS_19__map_value_compareIjS8_NS_4lessIjEELb1EEENS5_IS8_EEE7destroyEPNS_11__tree_nodeIS8_PvEE, symObjAddr: 0xE740, symBinAddr: 0x32940, symSize: 0x60 }
  - { offset: 0x177ABE, size: 0x8, addend: 0x0, symName: __ZNK20llama_grammar_parser7c_rulesEv, symObjAddr: 0x48C4, symBinAddr: 0x28DA8, symSize: 0x1B8 }
  - { offset: 0x1781FD, size: 0x8, addend: 0x0, symName: __ZNSt3__16vectorIPK21llama_grammar_elementNS_9allocatorIS3_EEE20__throw_length_errorB8ne200100Ev, symObjAddr: 0xE7A0, symBinAddr: 0x329A0, symSize: 0x14 }
  - { offset: 0x178215, size: 0x8, addend: 0x0, symName: __ZNSt3__16vectorI23llama_grammar_candidateNS_9allocatorIS1_EEE20__throw_length_errorB8ne200100Ev, symObjAddr: 0xE7B4, symBinAddr: 0x329B4, symSize: 0x14 }
  - { offset: 0x178220, size: 0x8, addend: 0x0, symName: __Z23llama_grammar_get_rulesPK13llama_grammar, symObjAddr: 0x4A7C, symBinAddr: 0x28F60, symSize: 0x8 }
  - { offset: 0x178250, size: 0x8, addend: 0x0, symName: __Z24llama_grammar_get_stacksP13llama_grammar, symObjAddr: 0x4A84, symBinAddr: 0x28F68, symSize: 0x8 }
  - { offset: 0x17856E, size: 0x8, addend: 0x0, symName: __Z20llama_grammar_acceptP13llama_grammarj, symObjAddr: 0x4A8C, symBinAddr: 0x28F70, symSize: 0x144 }
  - { offset: 0x178B02, size: 0x8, addend: 0x0, symName: __ZL24llama_grammar_accept_chrR13llama_grammarRKNSt3__16vectorIPK21llama_grammar_elementNS1_9allocatorIS5_EEEEjRNS2_IS8_NS6_IS8_EEEE, symObjAddr: 0x4BD0, symBinAddr: 0x290B4, symSize: 0x300 }
  - { offset: 0x17952A, size: 0x8, addend: 0x0, symName: __ZNSt3__16vectorINS0_IPK21llama_grammar_elementNS_9allocatorIS3_EEEENS4_IS6_EEE20__throw_length_errorB8ne200100Ev, symObjAddr: 0xA5DC, symBinAddr: 0x2E9B0, symSize: 0x14 }
  - { offset: 0x179542, size: 0x8, addend: 0x0, symName: __ZNSt3__110shared_ptrINS_13__empty_stateIcEEED1B8ne200100Ev, symObjAddr: 0xA5F0, symBinAddr: 0x2E9C4, symSize: 0x5C }
  - { offset: 0x17954D, size: 0x8, addend: 0x0, symName: __ZNSt3__16vectorINS0_IPK21llama_grammar_elementNS_9allocatorIS3_EEEENS4_IS6_EEED1B8ne200100Ev, symObjAddr: 0x4ED0, symBinAddr: 0x293B4, symSize: 0x74 }
  - { offset: 0x179BA3, size: 0x8, addend: 0x0, symName: __ZL27llama_grammar_advance_stackRKNSt3__16vectorINS0_I21llama_grammar_elementNS_9allocatorIS1_EEEENS2_IS4_EEEERKNS0_IPKS1_NS2_ISA_EEEERNS0_ISC_NS2_ISC_EEEE, symObjAddr: 0x5EF8, symBinAddr: 0x2A3DC, symSize: 0x52C }
  - { offset: 0x17BD10, size: 0x8, addend: 0x0, symName: __Z41llama_grammar_reject_candidates_for_stackRKNSt3__16vectorINS0_I21llama_grammar_elementNS_9allocatorIS1_EEEENS2_IS4_EEEERKNS0_IPKS1_NS2_ISA_EEEERKNS0_I23llama_grammar_candidateNS2_ISF_EEEE, symObjAddr: 0x4F44, symBinAddr: 0x29428, symSize: 0xFB4 }
  - { offset: 0x17ED44, size: 0x8, addend: 0x0, symName: __ZL31llama_grammar_reject_candidatesRKNSt3__16vectorINS0_I21llama_grammar_elementNS_9allocatorIS1_EEEENS2_IS4_EEEERKNS0_INS0_IPKS1_NS2_ISA_EEEENS2_ISC_EEEERKNS0_I23llama_grammar_candidateNS2_ISH_EEEE, symObjAddr: 0x6424, symBinAddr: 0x2A908, symSize: 0x120 }
  - { offset: 0x17F104, size: 0x8, addend: 0x0, symName: __ZNSt3__16vectorI23llama_grammar_candidateNS_9allocatorIS1_EEE20__throw_length_errorB8ne200100Ev, symObjAddr: 0xE7B4, symBinAddr: 0x329B4, symSize: 0x14 }
  - { offset: 0x17F11C, size: 0x8, addend: 0x0, symName: __ZNSt3__128__exception_guard_exceptionsINS_6vectorINS1_I21llama_grammar_elementNS_9allocatorIS2_EEEENS3_IS5_EEE16__destroy_vectorEED1B8ne200100Ev, symObjAddr: 0xE7C8, symBinAddr: 0x329C8, symSize: 0x84 }
  - { offset: 0x17F43D, size: 0x8, addend: 0x0, symName: __ZNSt3__16vectorINS0_IPK21llama_grammar_elementNS_9allocatorIS3_EEEENS4_IS6_EEE24__emplace_back_slow_pathIJRKS6_EEEPS6_DpOT_, symObjAddr: 0xA3FC, symBinAddr: 0x2E7D0, symSize: 0x174 }
  - { offset: 0x18039F, size: 0x8, addend: 0x0, symName: __Z23llama_grammar_init_implPK11llama_vocabPPK21llama_grammar_elementmm, symObjAddr: 0x6544, symBinAddr: 0x2AA28, symSize: 0x688 }
  - { offset: 0x1824A2, size: 0x8, addend: 0x0, symName: __ZL35llama_grammar_detect_left_recursionRKNSt3__16vectorINS0_I21llama_grammar_elementNS_9allocatorIS1_EEEENS2_IS4_EEEEmPNS0_IbNS2_IbEEEESB_SB_, symObjAddr: 0x6BCC, symBinAddr: 0x2B0B0, symSize: 0x190 }
  - { offset: 0x182812, size: 0x8, addend: 0x0, symName: __ZNSt3__16vectorINS0_I21llama_grammar_elementNS_9allocatorIS1_EEEENS2_IS4_EEE20__throw_length_errorB8ne200100Ev, symObjAddr: 0xE5E4, symBinAddr: 0x327E4, symSize: 0x14 }
  - { offset: 0x18282A, size: 0x8, addend: 0x0, symName: __ZNSt3__16vectorI21llama_grammar_elementNS_9allocatorIS1_EEE18__assign_with_sizeB8ne200100IPS1_S6_EEvT_T0_l, symObjAddr: 0xE5F8, symBinAddr: 0x327F8, symSize: 0x148 }
  - { offset: 0x182835, size: 0x8, addend: 0x0, symName: __ZNSt3__16vectorINS0_I21llama_grammar_elementNS_9allocatorIS1_EEEENS2_IS4_EEED1B8ne200100Ev, symObjAddr: 0x6D5C, symBinAddr: 0x2B240, symSize: 0x74 }
  - { offset: 0x182AB4, size: 0x8, addend: 0x0, symName: __ZNSt3__128__exception_guard_exceptionsINS_6vectorINS1_I21llama_grammar_elementNS_9allocatorIS2_EEEENS3_IS5_EEE16__destroy_vectorEED1B8ne200100Ev, symObjAddr: 0xE7C8, symBinAddr: 0x329C8, symSize: 0x84 }
  - { offset: 0x183AE6, size: 0x8, addend: 0x0, symName: __Z23llama_grammar_init_implPK11llama_vocabPKcS3_bPS3_mPKim, symObjAddr: 0x6DD0, symBinAddr: 0x2B2B4, symSize: 0xD38 }
  - { offset: 0x187895, size: 0x8, addend: 0x0, symName: __ZNSt3__16__treeINS_12__value_typeINS_12basic_stringIcNS_11char_traitsIcEENS_9allocatorIcEEEEjEENS_19__map_value_compareIS7_S8_NS_4lessIS7_EELb1EEENS5_IS8_EEE7destroyEPNS_11__tree_nodeIS8_PvEE, symObjAddr: 0xA64C, symBinAddr: 0x2EA20, symSize: 0x60 }
  - { offset: 0x187AD9, size: 0x8, addend: 0x0, symName: __ZNSt3__16vectorI29llama_grammar_trigger_patternNS_9allocatorIS1_EEE24__emplace_back_slow_pathIJEEEPS1_DpOT_, symObjAddr: 0xE860, symBinAddr: 0x32A4C, symSize: 0x1B0 }
  - { offset: 0x188003, size: 0x8, addend: 0x0, symName: __ZNSt3__111basic_regexIcNS_12regex_traitsIcEEEC2B8ne200100INS_11char_traitsIcEENS_9allocatorIcEEEERKNS_12basic_stringIcT_T0_EENS_15regex_constants18syntax_option_typeE, symObjAddr: 0xECFC, symBinAddr: 0x32EE8, symSize: 0xD4 }
  - { offset: 0x1881D5, size: 0x8, addend: 0x0, symName: __ZNSt3__16vectorI29llama_grammar_trigger_patternNS_9allocatorIS1_EEE24__emplace_back_slow_pathIJEEEPS1_DpOT_, symObjAddr: 0xE860, symBinAddr: 0x32A4C, symSize: 0x1B0 }
  - { offset: 0x1881E0, size: 0x8, addend: 0x0, symName: __ZN20llama_grammar_parserD1Ev, symObjAddr: 0x7C24, symBinAddr: 0x2C108, symSize: 0x80 }
  - { offset: 0x1884FD, size: 0x8, addend: 0x0, symName: __ZNSt3__16vectorI29llama_grammar_trigger_patternNS_9allocatorIS1_EEED1B8ne200100Ev, symObjAddr: 0x7B64, symBinAddr: 0x2C048, symSize: 0xC0 }
  - { offset: 0x18888C, size: 0x8, addend: 0x0, symName: __ZNSt3__111basic_regexIcNS_12regex_traitsIcEEED1Ev, symObjAddr: 0x7B08, symBinAddr: 0x2BFEC, symSize: 0x5C }
  - { offset: 0x188BD2, size: 0x8, addend: 0x0, symName: __Z23llama_grammar_free_implP13llama_grammar, symObjAddr: 0x7CA4, symBinAddr: 0x2C188, symSize: 0x1C }
  - { offset: 0x188C27, size: 0x8, addend: 0x0, symName: __ZN13llama_grammarD2Ev, symObjAddr: 0xA6AC, symBinAddr: 0x2EA80, symSize: 0x188 }
  - { offset: 0x18A0F6, size: 0x8, addend: 0x0, symName: __Z24llama_grammar_clone_implRK13llama_grammar, symObjAddr: 0x7CC0, symBinAddr: 0x2C1A4, symSize: 0x4D8 }
  - { offset: 0x18B1B1, size: 0x8, addend: 0x0, symName: __ZNSt3__135__uninitialized_allocator_copy_implB8ne200100INS_9allocatorINS_6vectorI21llama_grammar_elementNS1_IS3_EEEEEEPS5_S7_S7_EET2_RT_T0_T1_S8_, symObjAddr: 0x16784, symBinAddr: 0x3A864, symSize: 0xF8 }
  - { offset: 0x18B1BC, size: 0x8, addend: 0x0, symName: __ZNSt3__16vectorI29llama_grammar_trigger_patternNS_9allocatorIS1_EEE18__construct_at_endIPS1_S6_EEvT_T0_m, symObjAddr: 0x16AE4, symBinAddr: 0x3ABC4, symSize: 0x10C }
  - { offset: 0x18B5C8, size: 0x8, addend: 0x0, symName: __ZNSt3__16vectorINS_4pairIiNS1_ImmEEEENS_9allocatorIS3_EEE20__throw_length_errorB8ne200100Ev, symObjAddr: 0x16AD0, symBinAddr: 0x3ABB0, symSize: 0x14 }
  - { offset: 0x18B5E0, size: 0x8, addend: 0x0, symName: __ZNSt3__16vectorI29llama_grammar_trigger_patternNS_9allocatorIS1_EEE18__construct_at_endIPS1_S6_EEvT_T0_m, symObjAddr: 0x16AE4, symBinAddr: 0x3ABC4, symSize: 0x10C }
  - { offset: 0x18B5EB, size: 0x8, addend: 0x0, symName: __ZNSt3__16vectorI29llama_grammar_trigger_patternNS_9allocatorIS1_EEE20__throw_length_errorB8ne200100Ev, symObjAddr: 0xEB34, symBinAddr: 0x32D20, symSize: 0x14 }
  - { offset: 0x18B603, size: 0x8, addend: 0x0, symName: __ZNSt3__134__uninitialized_allocator_relocateB8ne200100INS_9allocatorI29llama_grammar_trigger_patternEEPS2_EEvRT_T0_S7_S7_, symObjAddr: 0xEB48, symBinAddr: 0x32D34, symSize: 0xFC }
  - { offset: 0x18B60E, size: 0x8, addend: 0x0, symName: __ZNSt3__128__exception_guard_exceptionsINS_6vectorINS1_IPK21llama_grammar_elementNS_9allocatorIS4_EEEENS5_IS7_EEE16__destroy_vectorEED1B8ne200100Ev, symObjAddr: 0x168E8, symBinAddr: 0x3A9C8, symSize: 0x84 }
  - { offset: 0x18B89B, size: 0x8, addend: 0x0, symName: __ZNSt3__128__exception_guard_exceptionsINS_6vectorI29llama_grammar_trigger_patternNS_9allocatorIS2_EEE16__destroy_vectorEED1B8ne200100Ev, symObjAddr: 0x16BF0, symBinAddr: 0x3ACD0, symSize: 0xD0 }
  - { offset: 0x18B8C8, size: 0x8, addend: 0x0, symName: __ZNSt3__128__exception_guard_exceptionsINS_6vectorI29llama_grammar_trigger_patternNS_9allocatorIS2_EEE16__destroy_vectorEED1B8ne200100Ev, symObjAddr: 0x16BF0, symBinAddr: 0x3ACD0, symSize: 0xD0 }
  - { offset: 0x18C33B, size: 0x8, addend: 0x0, symName: __Z24llama_grammar_apply_implRK13llama_grammarP22llama_token_data_array, symObjAddr: 0x8198, symBinAddr: 0x2C67C, symSize: 0x584 }
  - { offset: 0x18D8D6, size: 0x8, addend: 0x0, symName: __ZNSt3__16vectorINS_4pairINS0_IjNS_9allocatorIjEEEE18llama_partial_utf8EENS2_IS6_EEE20__throw_length_errorB8ne200100Ev, symObjAddr: 0x16CC0, symBinAddr: 0x3ADA0, symSize: 0x14 }
  - { offset: 0x18D8EE, size: 0x8, addend: 0x0, symName: __ZNSt3__16vectorINS0_IPK21llama_grammar_elementNS_9allocatorIS3_EEEENS4_IS6_EEE24__emplace_back_slow_pathIJRS6_EEEPS6_DpOT_, symObjAddr: 0x16CD4, symBinAddr: 0x3ADB4, symSize: 0x174 }
  - { offset: 0x18D8F9, size: 0x8, addend: 0x0, symName: __ZNSt3__16vectorINS_4pairINS0_IjNS_9allocatorIjEEEE18llama_partial_utf8EENS2_IS6_EEED1B8ne200100Ev, symObjAddr: 0x8BB4, symBinAddr: 0x2D098, symSize: 0x74 }
  - { offset: 0x18E39E, size: 0x8, addend: 0x0, symName: __Z25llama_grammar_accept_implR13llama_grammari, symObjAddr: 0x8C28, symBinAddr: 0x2D10C, symSize: 0x4E0 }
  - { offset: 0x18F5BB, size: 0x8, addend: 0x0, symName: __Z26llama_grammar_accept_tokenR13llama_grammariRKNSt3__112basic_stringIcNS1_11char_traitsIcEENS1_9allocatorIcEEEE, symObjAddr: 0x9108, symBinAddr: 0x2D5EC, symSize: 0x870 }
  - { offset: 0x19246D, size: 0x8, addend: 0x0, symName: __ZNSt3__16vectorINS_4pairIiNS1_ImmEEEENS_9allocatorIS3_EEE9push_backB8ne200100EOS3_, symObjAddr: 0x9978, symBinAddr: 0x2DE5C, symSize: 0x134 }
  - { offset: 0x19284F, size: 0x8, addend: 0x0, symName: __Z24llama_grammar_accept_strR13llama_grammarRKNSt3__112basic_stringIcNS1_11char_traitsIcEENS1_9allocatorIcEEEE, symObjAddr: 0x9AAC, symBinAddr: 0x2DF90, symSize: 0x140 }
  - { offset: 0x192864, size: 0x8, addend: 0x0, symName: __ZNSt3__14pairINS_12basic_stringIcNS_11char_traitsIcEENS_9allocatorIcEEEES6_ED1Ev, symObjAddr: 0x12C30, symBinAddr: 0x36D98, symSize: 0x58 }
  - { offset: 0x192B6B, size: 0x8, addend: 0x0, symName: __ZNSt3__16vectorINS0_IPK21llama_grammar_elementNS_9allocatorIS3_EEEENS4_IS6_EEE24__emplace_back_slow_pathIJRS6_EEEPS6_DpOT_, symObjAddr: 0x16CD4, symBinAddr: 0x3ADB4, symSize: 0x174 }
  - { offset: 0x193330, size: 0x8, addend: 0x0, symName: __ZNSt3__128__exception_guard_exceptionsINS_29_AllocatorDestroyRangeReverseINS_9allocatorINS_6vectorIPK21llama_grammar_elementNS2_IS6_EEEEEEPS8_EEED1B8ne200100Ev, symObjAddr: 0x16A64, symBinAddr: 0x3AB44, symSize: 0x6C }
  - { offset: 0x1937D2, size: 0x8, addend: 0x0, symName: __Z24llama_grammar_accept_strR13llama_grammarRKNSt3__112basic_stringIcNS1_11char_traitsIcEENS1_9allocatorIcEEEE, symObjAddr: 0x9AAC, symBinAddr: 0x2DF90, symSize: 0x140 }
  - { offset: 0x194086, size: 0x8, addend: 0x0, symName: __ZNSt3__114__split_bufferINS_6vectorIPK21llama_grammar_elementNS_9allocatorIS4_EEEERNS5_IS7_EEED1Ev, symObjAddr: 0xA570, symBinAddr: 0x2E944, symSize: 0x6C }
  - { offset: 0x194315, size: 0x8, addend: 0x0, symName: __ZNSt3__110shared_ptrINS_13__empty_stateIcEEED1B8ne200100Ev, symObjAddr: 0xA5F0, symBinAddr: 0x2E9C4, symSize: 0x5C }
  - { offset: 0x194695, size: 0x8, addend: 0x0, symName: __ZNSt3__16vectorINS_9sub_matchIPKcEENS_9allocatorIS4_EEE6assignEmRKS4_, symObjAddr: 0xACCC, symBinAddr: 0x2F078, symSize: 0x1E0 }
  - { offset: 0x194BF4, size: 0x8, addend: 0x0, symName: __ZNKSt3__111basic_regexIcNS_12regex_traitsIcEEE21__match_at_start_ecmaINS_9allocatorINS_9sub_matchIPKcEEEEEEbS8_S8_RNS_13match_resultsIS8_T_EENS_15regex_constants15match_flag_typeEb, symObjAddr: 0xAEAC, symBinAddr: 0x2F258, symSize: 0x474 }
  - { offset: 0x194BFF, size: 0x8, addend: 0x0, symName: __ZNKSt3__111basic_regexIcNS_12regex_traitsIcEEE27__match_at_start_posix_subsINS_9allocatorINS_9sub_matchIPKcEEEEEEbS8_S8_RNS_13match_resultsIS8_T_EENS_15regex_constants15match_flag_typeEb, symObjAddr: 0xBBC0, symBinAddr: 0x2FF6C, symSize: 0x5BC }
  - { offset: 0x196899, size: 0x8, addend: 0x0, symName: __ZNKSt3__111basic_regexIcNS_12regex_traitsIcEEE21__match_at_start_ecmaINS_9allocatorINS_9sub_matchIPKcEEEEEEbS8_S8_RNS_13match_resultsIS8_T_EENS_15regex_constants15match_flag_typeEb, symObjAddr: 0xAEAC, symBinAddr: 0x2F258, symSize: 0x474 }
  - { offset: 0x197A0C, size: 0x8, addend: 0x0, symName: __ZNKSt3__111basic_regexIcNS_12regex_traitsIcEEE29__match_at_start_posix_nosubsINS_9allocatorINS_9sub_matchIPKcEEEEEEbS8_S8_RNS_13match_resultsIS8_T_EENS_15regex_constants15match_flag_typeEb, symObjAddr: 0xB320, symBinAddr: 0x2F6CC, symSize: 0x8A0 }
  - { offset: 0x1997DC, size: 0x8, addend: 0x0, symName: __ZNSt3__16vectorINS_9sub_matchINS_11__wrap_iterIPKcEEEENS_9allocatorIS6_EEE8__appendEm, symObjAddr: 0xDE10, symBinAddr: 0x321BC, symSize: 0x1A0 }
  - { offset: 0x199D1B, size: 0x8, addend: 0x0, symName: __ZNSt3__16vectorINS_9sub_matchINS_11__wrap_iterIPKcEEEENS_9allocatorIS6_EEE20__throw_length_errorB8ne200100Ev, symObjAddr: 0xDFB0, symBinAddr: 0x3235C, symSize: 0x14 }
  - { offset: 0x199F7A, size: 0x8, addend: 0x0, symName: __ZNSt3__16vectorINS_9sub_matchIPKcEENS_9allocatorIS4_EEE20__throw_length_errorB8ne200100Ev, symObjAddr: 0xC7AC, symBinAddr: 0x30B58, symSize: 0x14 }
  - { offset: 0x199F92, size: 0x8, addend: 0x0, symName: __ZNSt3__16vectorINS_4pairImPKcEENS_9allocatorIS4_EEE8__appendEm, symObjAddr: 0xC7C0, symBinAddr: 0x30B6C, symSize: 0x120 }
  - { offset: 0x19A6A9, size: 0x8, addend: 0x0, symName: __ZNSt3__16vectorINS_7__stateIcEENS_9allocatorIS2_EEE24__emplace_back_slow_pathIJS2_EEEPS2_DpOT_, symObjAddr: 0xC2D4, symBinAddr: 0x30680, symSize: 0x17C }
  - { offset: 0x19AD35, size: 0x8, addend: 0x0, symName: __ZNSt3__16vectorINS_9sub_matchIPKcEENS_9allocatorIS4_EEE8__appendEmRKS4_, symObjAddr: 0xC5FC, symBinAddr: 0x309A8, symSize: 0x1B0 }
  - { offset: 0x19B23C, size: 0x8, addend: 0x0, symName: __ZNSt3__16vectorINS_9sub_matchIPKcEENS_9allocatorIS4_EEE20__throw_length_errorB8ne200100Ev, symObjAddr: 0xC7AC, symBinAddr: 0x30B58, symSize: 0x14 }
  - { offset: 0x19B247, size: 0x8, addend: 0x0, symName: __ZNSt3__16vectorINS_4pairImPKcEENS_9allocatorIS4_EEE8__appendEm, symObjAddr: 0xC7C0, symBinAddr: 0x30B6C, symSize: 0x120 }
  - { offset: 0x19B67B, size: 0x8, addend: 0x0, symName: __ZNSt3__16vectorINS_4pairImPKcEENS_9allocatorIS4_EEE20__throw_length_errorB8ne200100Ev, symObjAddr: 0xC8E0, symBinAddr: 0x30C8C, symSize: 0x14 }
  - { offset: 0x19B686, size: 0x8, addend: 0x0, symName: __ZNSt3__17__stateIcEC2ERKS1_, symObjAddr: 0xC8F4, symBinAddr: 0x30CA0, symSize: 0x16C }
  - { offset: 0x19BCC8, size: 0x8, addend: 0x0, symName: __ZNSt3__16vectorINS_7__stateIcEENS_9allocatorIS2_EEED1B8ne200100Ev, symObjAddr: 0xC254, symBinAddr: 0x30600, symSize: 0x80 }
  - { offset: 0x19C0B7, size: 0x8, addend: 0x0, symName: __ZNSt3__17__stateIcED1Ev, symObjAddr: 0xC17C, symBinAddr: 0x30528, symSize: 0x40 }
  - { offset: 0x19C79C, size: 0x8, addend: 0x0, symName: __ZNSt3__15dequeINS_7__stateIcEENS_9allocatorIS2_EEE19__add_back_capacityEv, symObjAddr: 0xCC30, symBinAddr: 0x30FDC, symSize: 0x35C }
  - { offset: 0x19D3D3, size: 0x8, addend: 0x0, symName: __ZNSt3__15dequeINS_7__stateIcEENS_9allocatorIS2_EEE20__add_front_capacityEv, symObjAddr: 0xD40C, symBinAddr: 0x317B8, symSize: 0x380 }
  - { offset: 0x19E10E, size: 0x8, addend: 0x0, symName: __ZNSt3__15dequeINS_7__stateIcEENS_9allocatorIS2_EEED1B8ne200100Ev, symObjAddr: 0xCBBC, symBinAddr: 0x30F68, symSize: 0x74 }
  - { offset: 0x19E45A, size: 0x8, addend: 0x0, symName: __ZNSt3__16vectorINS_9sub_matchIPKcEENS_9allocatorIS4_EEE18__assign_with_sizeB8ne200100IPS4_S9_EEvT_T0_l, symObjAddr: 0xD914, symBinAddr: 0x31CC0, symSize: 0x200 }
  - { offset: 0x19EBE6, size: 0x8, addend: 0x0, symName: __ZNSt3__16vectorINS_4pairImPKcEENS_9allocatorIS4_EEE18__assign_with_sizeB8ne200100IPS4_S9_EEvT_T0_l, symObjAddr: 0xDB14, symBinAddr: 0x31EC0, symSize: 0x2FC }
  - { offset: 0x19EC03, size: 0x8, addend: 0x0, symName: __ZNSt3__16vectorINS_4pairImPKcEENS_9allocatorIS4_EEE18__assign_with_sizeB8ne200100IPS4_S9_EEvT_T0_l, symObjAddr: 0xDB14, symBinAddr: 0x31EC0, symSize: 0x2FC }
  - { offset: 0x19F34C, size: 0x8, addend: 0x0, symName: __ZNSt3__16vectorINS_9sub_matchINS_11__wrap_iterIPKcEEEENS_9allocatorIS6_EEE8__appendEm, symObjAddr: 0xDE10, symBinAddr: 0x321BC, symSize: 0x1A0 }
  - { offset: 0x19F4FC, size: 0x8, addend: 0x0, symName: __ZNSt3__16vectorINS_7__stateIcEENS_9allocatorIS2_EEE26__swap_out_circular_bufferERNS_14__split_bufferIS2_RS4_EE, symObjAddr: 0xC450, symBinAddr: 0x307FC, symSize: 0x124 }
  - { offset: 0x19FA69, size: 0x8, addend: 0x0, symName: __ZNSt3__16vectorINS_7__stateIcEENS_9allocatorIS2_EEE20__throw_length_errorB8ne200100Ev, symObjAddr: 0xC5E8, symBinAddr: 0x30994, symSize: 0x14 }
  - { offset: 0x19FA81, size: 0x8, addend: 0x0, symName: __ZNSt3__16vectorINS_9sub_matchIPKcEENS_9allocatorIS4_EEE8__appendEmRKS4_, symObjAddr: 0xC5FC, symBinAddr: 0x309A8, symSize: 0x1B0 }
  - { offset: 0x19FA8C, size: 0x8, addend: 0x0, symName: __ZNSt3__114__split_bufferINS_7__stateIcEERNS_9allocatorIS2_EEED1Ev, symObjAddr: 0xC574, symBinAddr: 0x30920, symSize: 0x74 }
  - { offset: 0x1A0370, size: 0x8, addend: 0x0, symName: __ZNSt3__16vectorINS_4pairImPKcEENS_9allocatorIS4_EEE20__throw_length_errorB8ne200100Ev, symObjAddr: 0xC8E0, symBinAddr: 0x30C8C, symSize: 0x14 }
  - { offset: 0x1A0388, size: 0x8, addend: 0x0, symName: __ZNSt3__17__stateIcEC2ERKS1_, symObjAddr: 0xC8F4, symBinAddr: 0x30CA0, symSize: 0x16C }
  - { offset: 0x1A078B, size: 0x8, addend: 0x0, symName: __ZNSt3__15dequeINS_7__stateIcEENS_9allocatorIS2_EEE5clearEv, symObjAddr: 0xCA60, symBinAddr: 0x30E0C, symSize: 0x15C }
  - { offset: 0x1A1126, size: 0x8, addend: 0x0, symName: __ZNSt3__114__split_bufferIPNS_7__stateIcEENS_9allocatorIS3_EEE12emplace_backIJRS3_EEEvDpOT_, symObjAddr: 0xCF8C, symBinAddr: 0x31338, symSize: 0x17C }
  - { offset: 0x1A1581, size: 0x8, addend: 0x0, symName: __ZNSt3__114__split_bufferIPNS_7__stateIcEENS_9allocatorIS3_EEE12emplace_backIJS3_EEEvDpOT_, symObjAddr: 0xD108, symBinAddr: 0x314B4, symSize: 0x17C }
  - { offset: 0x1A1597, size: 0x8, addend: 0x0, symName: __ZNSt3__114__split_bufferIPNS_7__stateIcEENS_9allocatorIS3_EEE12emplace_backIJS3_EEEvDpOT_, symObjAddr: 0xD108, symBinAddr: 0x314B4, symSize: 0x17C }
  - { offset: 0x1A19F2, size: 0x8, addend: 0x0, symName: __ZNSt3__114__split_bufferIPNS_7__stateIcEENS_9allocatorIS3_EEE13emplace_frontIJS3_EEEvDpOT_, symObjAddr: 0xD284, symBinAddr: 0x31630, symSize: 0x188 }
  - { offset: 0x1A1A08, size: 0x8, addend: 0x0, symName: __ZNSt3__114__split_bufferIPNS_7__stateIcEENS_9allocatorIS3_EEE13emplace_frontIJS3_EEEvDpOT_, symObjAddr: 0xD284, symBinAddr: 0x31630, symSize: 0x188 }
  - { offset: 0x1A1E85, size: 0x8, addend: 0x0, symName: __ZNSt3__15dequeINS_7__stateIcEENS_9allocatorIS2_EEE20__add_front_capacityEv, symObjAddr: 0xD40C, symBinAddr: 0x317B8, symSize: 0x380 }
  - { offset: 0x1A1F65, size: 0x8, addend: 0x0, symName: __ZNSt3__114__split_bufferIPNS_7__stateIcEENS_9allocatorIS3_EEE13emplace_frontIJRS3_EEEvDpOT_, symObjAddr: 0xD78C, symBinAddr: 0x31B38, symSize: 0x188 }
  - { offset: 0x1A23E2, size: 0x8, addend: 0x0, symName: __ZNSt3__16vectorINS_9sub_matchIPKcEENS_9allocatorIS4_EEE18__assign_with_sizeB8ne200100IPS4_S9_EEvT_T0_l, symObjAddr: 0xD914, symBinAddr: 0x31CC0, symSize: 0x200 }
  - { offset: 0x1A2876, size: 0x8, addend: 0x0, symName: __ZNSt3__16vectorINS_9sub_matchINS_11__wrap_iterIPKcEEEENS_9allocatorIS6_EEE20__throw_length_errorB8ne200100Ev, symObjAddr: 0xDFB0, symBinAddr: 0x3235C, symSize: 0x14 }
  - { offset: 0x1A288E, size: 0x8, addend: 0x0, symName: __ZNSt3__16__treeINS_12__value_typeINS_12basic_stringIcNS_11char_traitsIcEENS_9allocatorIcEEEEjEENS_19__map_value_compareIS7_S8_NS_4lessIS7_EELb1EEENS5_IS8_EEE25__emplace_unique_key_argsIS7_JS7_RjEEENS_4pairINS_15__tree_iteratorIS8_PNS_11__tree_nodeIS8_PvEElEEbEERKT_DpOT0_, symObjAddr: 0xDFC4, symBinAddr: 0x32370, symSize: 0x180 }
  - { offset: 0x1A3104, size: 0x8, addend: 0x0, symName: __ZNSt3__114__split_bufferI29llama_grammar_trigger_patternRNS_9allocatorIS1_EEED1Ev, symObjAddr: 0xEA7C, symBinAddr: 0x32C68, symSize: 0xB8 }
  - { offset: 0x1A3454, size: 0x8, addend: 0x0, symName: __ZNSt3__111basic_regexIcNS_12regex_traitsIcEEEC1B8ne200100Ev, symObjAddr: 0xEA10, symBinAddr: 0x32BFC, symSize: 0x6C }
  - { offset: 0x1A3705, size: 0x8, addend: 0x0, symName: __ZNSt3__128__exception_guard_exceptionsINS_29_AllocatorDestroyRangeReverseINS_9allocatorI29llama_grammar_trigger_patternEEPS3_EEED1B8ne200100Ev, symObjAddr: 0xEC44, symBinAddr: 0x32E30, symSize: 0xB8 }
  - { offset: 0x1A3A1E, size: 0x8, addend: 0x0, symName: __ZNSt3__111basic_regexIcNS_12regex_traitsIcEEE7__parseINS_11__wrap_iterIPKcEEEET_S9_S9_, symObjAddr: 0xEDD0, symBinAddr: 0x32FBC, symSize: 0x200 }
  - { offset: 0x1A43A1, size: 0x8, addend: 0x0, symName: __ZNSt3__111basic_regexIcNS_12regex_traitsIcEEE13__parse_egrepINS_11__wrap_iterIPKcEEEET_S9_S9_, symObjAddr: 0xF6E8, symBinAddr: 0x338D4, symSize: 0x1A0 }
  - { offset: 0x1A4926, size: 0x8, addend: 0x0, symName: __ZNSt3__111basic_regexIcNS_12regex_traitsIcEEE24__parse_extended_reg_expINS_11__wrap_iterIPKcEEEET_S9_S9_, symObjAddr: 0xF3E4, symBinAddr: 0x335D0, symSize: 0x164 }
  - { offset: 0x1A4C5B, size: 0x8, addend: 0x0, symName: __ZNSt3__111basic_regexIcNS_12regex_traitsIcEEE12__parse_grepINS_11__wrap_iterIPKcEEEET_S9_S9_, symObjAddr: 0xF548, symBinAddr: 0x33734, symSize: 0x1A0 }
  - { offset: 0x1A4C6F, size: 0x8, addend: 0x0, symName: __ZNSt3__111basic_regexIcNS_12regex_traitsIcEEE21__parse_basic_reg_expINS_11__wrap_iterIPKcEEEET_S9_S9_, symObjAddr: 0xF264, symBinAddr: 0x33450, symSize: 0x180 }
  - { offset: 0x1A4F90, size: 0x8, addend: 0x0, symName: __ZNSt3__111basic_regexIcNS_12regex_traitsIcEEE24__parse_extended_reg_expINS_11__wrap_iterIPKcEEEET_S9_S9_, symObjAddr: 0xF3E4, symBinAddr: 0x335D0, symSize: 0x164 }
  - { offset: 0x1A4FA4, size: 0x8, addend: 0x0, symName: __ZNSt3__111basic_regexIcNS_12regex_traitsIcEEE12__parse_grepINS_11__wrap_iterIPKcEEEET_S9_S9_, symObjAddr: 0xF548, symBinAddr: 0x33734, symSize: 0x1A0 }
  - { offset: 0x1A5529, size: 0x8, addend: 0x0, symName: __ZNSt3__111basic_regexIcNS_12regex_traitsIcEEE16__parse_ecma_expINS_11__wrap_iterIPKcEEEET_S9_S9_, symObjAddr: 0xF01C, symBinAddr: 0x33208, symSize: 0x248 }
  - { offset: 0x1A5CE2, size: 0x8, addend: 0x0, symName: __ZNSt3__111basic_regexIcNS_12regex_traitsIcEEE17__parse_assertionINS_11__wrap_iterIPKcEEEET_S9_S9_, symObjAddr: 0xFACC, symBinAddr: 0x33CB8, symSize: 0x30C }
  - { offset: 0x1A61FA, size: 0x8, addend: 0x0, symName: __ZNSt3__111basic_regexIcNS_12regex_traitsIcEEE12__parse_atomINS_11__wrap_iterIPKcEEEET_S9_S9_, symObjAddr: 0xFDD8, symBinAddr: 0x33FC4, symSize: 0x268 }
  - { offset: 0x1A6567, size: 0x8, addend: 0x0, symName: __ZNSt3__111basic_regexIcNS_12regex_traitsIcEEE23__parse_ERE_dupl_symbolINS_11__wrap_iterIPKcEEEET_S9_S9_PNS_16__owns_one_stateIcEEjj, symObjAddr: 0x10040, symBinAddr: 0x3422C, symSize: 0x378 }
  - { offset: 0x1A657B, size: 0x8, addend: 0x0, symName: __ZNSt3__111basic_regexIcNS_12regex_traitsIcEEE23__parse_ERE_dupl_symbolINS_11__wrap_iterIPKcEEEET_S9_S9_PNS_16__owns_one_stateIcEEjj, symObjAddr: 0x10040, symBinAddr: 0x3422C, symSize: 0x378 }
  - { offset: 0x1A6B97, size: 0x8, addend: 0x0, symName: __ZNSt3__111basic_regexIcNS_12regex_traitsIcEEE20__push_word_boundaryEb, symObjAddr: 0x103B8, symBinAddr: 0x345A4, symSize: 0x6C }
  - { offset: 0x1A6D95, size: 0x8, addend: 0x0, symName: __ZNSt3__111basic_regexIcNS_12regex_traitsIcEEE18__parse_nondupl_REINS_11__wrap_iterIPKcEEEET_S9_S9_, symObjAddr: 0x15BB0, symBinAddr: 0x39D18, symSize: 0x20C }
  - { offset: 0x1A7251, size: 0x8, addend: 0x0, symName: __ZNSt3__111basic_regexIcNS_12regex_traitsIcEEE22__parse_RE_dupl_symbolINS_11__wrap_iterIPKcEEEET_S9_S9_PNS_16__owns_one_stateIcEEjj, symObjAddr: 0x15DBC, symBinAddr: 0x39F24, symSize: 0x274 }
  - { offset: 0x1A7265, size: 0x8, addend: 0x0, symName: __ZNSt3__111basic_regexIcNS_12regex_traitsIcEEE22__parse_RE_dupl_symbolINS_11__wrap_iterIPKcEEEET_S9_S9_PNS_16__owns_one_stateIcEEjj, symObjAddr: 0x15DBC, symBinAddr: 0x39F24, symSize: 0x274 }
  - { offset: 0x1A7759, size: 0x8, addend: 0x0, symName: __ZNSt3__111basic_regexIcNS_12regex_traitsIcEEE32__parse_one_char_or_coll_elem_REINS_11__wrap_iterIPKcEEEET_S9_S9_, symObjAddr: 0x16030, symBinAddr: 0x3A198, symSize: 0x18C }
  - { offset: 0x1A77B0, size: 0x8, addend: 0x0, symName: __ZNSt3__111basic_regexIcNS_12regex_traitsIcEEE22__parse_ERE_expressionINS_11__wrap_iterIPKcEEEET_S9_S9_, symObjAddr: 0x162EC, symBinAddr: 0x3A454, symSize: 0x1F0 }
  - { offset: 0x1A7B59, size: 0x8, addend: 0x0, symName: __ZNSt3__111basic_regexIcNS_12regex_traitsIcEEE33__parse_one_char_or_coll_elem_EREINS_11__wrap_iterIPKcEEEET_S9_S9_, symObjAddr: 0x164DC, symBinAddr: 0x3A644, symSize: 0x158 }
  - { offset: 0x1A7B89, size: 0x8, addend: 0x0, symName: __ZNSt3__111__end_stateIcED1Ev, symObjAddr: 0xF8D4, symBinAddr: 0x33AC0, symSize: 0x4 }
  - { offset: 0x1A7BB5, size: 0x8, addend: 0x0, symName: __ZNSt3__111__end_stateIcED0Ev, symObjAddr: 0xF8D8, symBinAddr: 0x33AC4, symSize: 0x4 }
  - { offset: 0x1A7BD5, size: 0x8, addend: 0x0, symName: __ZNKSt3__111__end_stateIcE6__execERNS_7__stateIcEE, symObjAddr: 0xF8DC, symBinAddr: 0x33AC8, symSize: 0xC }
  - { offset: 0x1A7C08, size: 0x8, addend: 0x0, symName: __ZNKSt3__16__nodeIcE12__exec_splitEbRNS_7__stateIcEE, symObjAddr: 0xF8E8, symBinAddr: 0x33AD4, symSize: 0x4 }
  - { offset: 0x1A7C48, size: 0x8, addend: 0x0, symName: __ZNKSt3__16__nodeIcE6__execERNS_7__stateIcEE, symObjAddr: 0xF8EC, symBinAddr: 0x33AD8, symSize: 0x4 }
  - { offset: 0x1A7C94, size: 0x8, addend: 0x0, symName: __ZNSt3__120__shared_ptr_pointerIPNS_13__empty_stateIcEENS_10shared_ptrIS2_E27__shared_ptr_default_deleteIS2_S2_EENS_9allocatorIS2_EEED1Ev, symObjAddr: 0xF8F0, symBinAddr: 0x33ADC, symSize: 0x4 }
  - { offset: 0x1A7CB6, size: 0x8, addend: 0x0, symName: __ZNSt3__120__shared_ptr_pointerIPNS_13__empty_stateIcEENS_10shared_ptrIS2_E27__shared_ptr_default_deleteIS2_S2_EENS_9allocatorIS2_EEED1Ev, symObjAddr: 0xF8F0, symBinAddr: 0x33ADC, symSize: 0x4 }
  - { offset: 0x1A7CEC, size: 0x8, addend: 0x0, symName: __ZNSt3__120__shared_ptr_pointerIPNS_13__empty_stateIcEENS_10shared_ptrIS2_E27__shared_ptr_default_deleteIS2_S2_EENS_9allocatorIS2_EEED0Ev, symObjAddr: 0xF8F4, symBinAddr: 0x33AE0, symSize: 0x14 }
  - { offset: 0x1A7D4F, size: 0x8, addend: 0x0, symName: __ZNSt3__120__shared_ptr_pointerIPNS_13__empty_stateIcEENS_10shared_ptrIS2_E27__shared_ptr_default_deleteIS2_S2_EENS_9allocatorIS2_EEE16__on_zero_sharedEv, symObjAddr: 0xF908, symBinAddr: 0x33AF4, symSize: 0x18 }
  - { offset: 0x1A7DF7, size: 0x8, addend: 0x0, symName: __ZNKSt3__120__shared_ptr_pointerIPNS_13__empty_stateIcEENS_10shared_ptrIS2_E27__shared_ptr_default_deleteIS2_S2_EENS_9allocatorIS2_EEE13__get_deleterERKSt9type_info, symObjAddr: 0xF920, symBinAddr: 0x33B0C, symSize: 0x74 }
  - { offset: 0x1A7F1B, size: 0x8, addend: 0x0, symName: __ZNSt3__120__shared_ptr_pointerIPNS_13__empty_stateIcEENS_10shared_ptrIS2_E27__shared_ptr_default_deleteIS2_S2_EENS_9allocatorIS2_EEE21__on_zero_shared_weakEv, symObjAddr: 0xF994, symBinAddr: 0x33B80, symSize: 0x4 }
  - { offset: 0x1A7F4D, size: 0x8, addend: 0x0, symName: __ZNSt3__120__shared_ptr_pointerIPNS_13__empty_stateIcEENS_10shared_ptrIS2_E27__shared_ptr_default_deleteIS2_S2_EENS_9allocatorIS2_EEE21__on_zero_shared_weakEv, symObjAddr: 0xF994, symBinAddr: 0x33B80, symSize: 0x4 }
  - { offset: 0x1A7F6F, size: 0x8, addend: 0x0, symName: __ZNSt3__120__shared_ptr_pointerIPNS_13__empty_stateIcEENS_10shared_ptrIS2_E27__shared_ptr_default_deleteIS2_S2_EENS_9allocatorIS2_EEE21__on_zero_shared_weakEv, symObjAddr: 0xF994, symBinAddr: 0x33B80, symSize: 0x4 }
  - { offset: 0x1A7FA3, size: 0x8, addend: 0x0, symName: __ZNSt3__120__shared_ptr_pointerIPNS_13__empty_stateIcEENS_10shared_ptrIS2_E27__shared_ptr_default_deleteIS2_S2_EENS_9allocatorIS2_EEE21__on_zero_shared_weakEv, symObjAddr: 0xF994, symBinAddr: 0x33B80, symSize: 0x4 }
  - { offset: 0x1A7FCA, size: 0x8, addend: 0x0, symName: __ZNSt3__113__empty_stateIcED1Ev, symObjAddr: 0xF998, symBinAddr: 0x33B84, symSize: 0x48 }
  - { offset: 0x1A7FEE, size: 0x8, addend: 0x0, symName: __ZNSt3__113__empty_stateIcED1Ev, symObjAddr: 0xF998, symBinAddr: 0x33B84, symSize: 0x48 }
  - { offset: 0x1A800C, size: 0x8, addend: 0x0, symName: __ZNSt3__113__empty_stateIcED1Ev, symObjAddr: 0xF998, symBinAddr: 0x33B84, symSize: 0x48 }
  - { offset: 0x1A8036, size: 0x8, addend: 0x0, symName: __ZNSt3__113__empty_stateIcED0Ev, symObjAddr: 0xF9E0, symBinAddr: 0x33BCC, symSize: 0x48 }
  - { offset: 0x1A805A, size: 0x8, addend: 0x0, symName: __ZNSt3__113__empty_stateIcED0Ev, symObjAddr: 0xF9E0, symBinAddr: 0x33BCC, symSize: 0x48 }
  - { offset: 0x1A8078, size: 0x8, addend: 0x0, symName: __ZNSt3__113__empty_stateIcED0Ev, symObjAddr: 0xF9E0, symBinAddr: 0x33BCC, symSize: 0x48 }
  - { offset: 0x1A8096, size: 0x8, addend: 0x0, symName: __ZNSt3__113__empty_stateIcED0Ev, symObjAddr: 0xF9E0, symBinAddr: 0x33BCC, symSize: 0x48 }
  - { offset: 0x1A80DD, size: 0x8, addend: 0x0, symName: __ZNKSt3__113__empty_stateIcE6__execERNS_7__stateIcEE, symObjAddr: 0xFA28, symBinAddr: 0x33C14, symSize: 0x14 }
  - { offset: 0x1A812F, size: 0x8, addend: 0x0, symName: __ZNSt3__116__owns_one_stateIcED1Ev, symObjAddr: 0xFA3C, symBinAddr: 0x33C28, symSize: 0x48 }
  - { offset: 0x1A8153, size: 0x8, addend: 0x0, symName: __ZNSt3__116__owns_one_stateIcED1Ev, symObjAddr: 0xFA3C, symBinAddr: 0x33C28, symSize: 0x48 }
  - { offset: 0x1A8198, size: 0x8, addend: 0x0, symName: __ZNSt3__116__owns_one_stateIcED0Ev, symObjAddr: 0xFA84, symBinAddr: 0x33C70, symSize: 0x48 }
  - { offset: 0x1A81C7, size: 0x8, addend: 0x0, symName: __ZNSt3__116__owns_one_stateIcED0Ev, symObjAddr: 0xFA84, symBinAddr: 0x33C70, symSize: 0x48 }
  - { offset: 0x1A81E5, size: 0x8, addend: 0x0, symName: __ZNSt3__116__owns_one_stateIcED0Ev, symObjAddr: 0xFA84, symBinAddr: 0x33C70, symSize: 0x48 }
  - { offset: 0x1A8310, size: 0x8, addend: 0x0, symName: __ZNSt3__111basic_regexIcNS_12regex_traitsIcEEE16__push_lookaheadERKS3_bj, symObjAddr: 0x10424, symBinAddr: 0x34610, symSize: 0xA8 }
  - { offset: 0x1A8528, size: 0x8, addend: 0x0, symName: __ZNSt3__111basic_regexIcNS_12regex_traitsIcEEE20__push_word_boundaryEb, symObjAddr: 0x103B8, symBinAddr: 0x345A4, symSize: 0x6C }
  - { offset: 0x1A87FA, size: 0x8, addend: 0x0, symName: __ZNSt3__111basic_regexIcNS_12regex_traitsIcEEE26__parse_bracket_expressionINS_11__wrap_iterIPKcEEEET_S9_S9_, symObjAddr: 0x10CE0, symBinAddr: 0x34ECC, symSize: 0x158 }
  - { offset: 0x1A8A22, size: 0x8, addend: 0x0, symName: __ZNSt3__111basic_regexIcNS_12regex_traitsIcEEE19__parse_atom_escapeINS_11__wrap_iterIPKcEEEET_S9_S9_, symObjAddr: 0x10B94, symBinAddr: 0x34D80, symSize: 0x14C }
  - { offset: 0x1A8B8E, size: 0x8, addend: 0x0, symName: __ZNSt3__111basic_regexIcNS_12regex_traitsIcEEE26__parse_bracket_expressionINS_11__wrap_iterIPKcEEEET_S9_S9_, symObjAddr: 0x10CE0, symBinAddr: 0x34ECC, symSize: 0x158 }
  - { offset: 0x1A8BA2, size: 0x8, addend: 0x0, symName: __ZNSt3__111basic_regexIcNS_12regex_traitsIcEEE25__parse_pattern_characterINS_11__wrap_iterIPKcEEEET_S9_S9_, symObjAddr: 0x10E84, symBinAddr: 0x35070, symSize: 0x7C }
  - { offset: 0x1A8D76, size: 0x8, addend: 0x0, symName: __ZNSt3__111basic_regexIcNS_12regex_traitsIcEEE11__push_loopEmmPNS_16__owns_one_stateIcEEmmb, symObjAddr: 0x153E8, symBinAddr: 0x39550, symSize: 0x13C }
  - { offset: 0x1A9329, size: 0x8, addend: 0x0, symName: __ZNSt3__120__l_anchor_multilineIcED1Ev, symObjAddr: 0x10518, symBinAddr: 0x34704, symSize: 0x48 }
  - { offset: 0x1A934D, size: 0x8, addend: 0x0, symName: __ZNSt3__120__l_anchor_multilineIcED1Ev, symObjAddr: 0x10518, symBinAddr: 0x34704, symSize: 0x48 }
  - { offset: 0x1A936B, size: 0x8, addend: 0x0, symName: __ZNSt3__120__l_anchor_multilineIcED1Ev, symObjAddr: 0x10518, symBinAddr: 0x34704, symSize: 0x48 }
  - { offset: 0x1A93B2, size: 0x8, addend: 0x0, symName: __ZNSt3__120__l_anchor_multilineIcED0Ev, symObjAddr: 0x10560, symBinAddr: 0x3474C, symSize: 0x48 }
  - { offset: 0x1A93E2, size: 0x8, addend: 0x0, symName: __ZNSt3__120__l_anchor_multilineIcED0Ev, symObjAddr: 0x10560, symBinAddr: 0x3474C, symSize: 0x48 }
  - { offset: 0x1A9400, size: 0x8, addend: 0x0, symName: __ZNSt3__120__l_anchor_multilineIcED0Ev, symObjAddr: 0x10560, symBinAddr: 0x3474C, symSize: 0x48 }
  - { offset: 0x1A941E, size: 0x8, addend: 0x0, symName: __ZNSt3__120__l_anchor_multilineIcED0Ev, symObjAddr: 0x10560, symBinAddr: 0x3474C, symSize: 0x48 }
  - { offset: 0x1A9449, size: 0x8, addend: 0x0, symName: __ZNKSt3__120__l_anchor_multilineIcE6__execERNS_7__stateIcEE, symObjAddr: 0x105A8, symBinAddr: 0x34794, symSize: 0x68 }
  - { offset: 0x1A94AD, size: 0x8, addend: 0x0, symName: __ZNSt3__120__r_anchor_multilineIcED1Ev, symObjAddr: 0x10610, symBinAddr: 0x347FC, symSize: 0x48 }
  - { offset: 0x1A94D1, size: 0x8, addend: 0x0, symName: __ZNSt3__120__r_anchor_multilineIcED1Ev, symObjAddr: 0x10610, symBinAddr: 0x347FC, symSize: 0x48 }
  - { offset: 0x1A94EF, size: 0x8, addend: 0x0, symName: __ZNSt3__120__r_anchor_multilineIcED1Ev, symObjAddr: 0x10610, symBinAddr: 0x347FC, symSize: 0x48 }
  - { offset: 0x1A9536, size: 0x8, addend: 0x0, symName: __ZNSt3__120__r_anchor_multilineIcED0Ev, symObjAddr: 0x10658, symBinAddr: 0x34844, symSize: 0x48 }
  - { offset: 0x1A9566, size: 0x8, addend: 0x0, symName: __ZNSt3__120__r_anchor_multilineIcED0Ev, symObjAddr: 0x10658, symBinAddr: 0x34844, symSize: 0x48 }
  - { offset: 0x1A9584, size: 0x8, addend: 0x0, symName: __ZNSt3__120__r_anchor_multilineIcED0Ev, symObjAddr: 0x10658, symBinAddr: 0x34844, symSize: 0x48 }
  - { offset: 0x1A95A2, size: 0x8, addend: 0x0, symName: __ZNSt3__120__r_anchor_multilineIcED0Ev, symObjAddr: 0x10658, symBinAddr: 0x34844, symSize: 0x48 }
  - { offset: 0x1A95CD, size: 0x8, addend: 0x0, symName: __ZNKSt3__120__r_anchor_multilineIcE6__execERNS_7__stateIcEE, symObjAddr: 0x106A0, symBinAddr: 0x3488C, symSize: 0x54 }
  - { offset: 0x1A9631, size: 0x8, addend: 0x0, symName: __ZNSt3__115__word_boundaryIcNS_12regex_traitsIcEEED1Ev, symObjAddr: 0x106F4, symBinAddr: 0x348E0, symSize: 0x58 }
  - { offset: 0x1A96E1, size: 0x8, addend: 0x0, symName: __ZNSt3__115__word_boundaryIcNS_12regex_traitsIcEEED0Ev, symObjAddr: 0x1074C, symBinAddr: 0x34938, symSize: 0x58 }
  - { offset: 0x1A97FB, size: 0x8, addend: 0x0, symName: __ZNKSt3__115__word_boundaryIcNS_12regex_traitsIcEEE6__execERNS_7__stateIcEE, symObjAddr: 0x107A4, symBinAddr: 0x34990, symSize: 0x154 }
  - { offset: 0x1A99B9, size: 0x8, addend: 0x0, symName: __ZNSt3__111__lookaheadIcNS_12regex_traitsIcEEED1Ev, symObjAddr: 0x108F8, symBinAddr: 0x34AE4, symSize: 0x8C }
  - { offset: 0x1A9B19, size: 0x8, addend: 0x0, symName: __ZNSt3__111__lookaheadIcNS_12regex_traitsIcEEED0Ev, symObjAddr: 0x10984, symBinAddr: 0x34B70, symSize: 0x8C }
  - { offset: 0x1A9C85, size: 0x8, addend: 0x0, symName: __ZNKSt3__111__lookaheadIcNS_12regex_traitsIcEEE6__execERNS_7__stateIcEE, symObjAddr: 0x10A10, symBinAddr: 0x34BFC, symSize: 0x184 }
  - { offset: 0x1AA233, size: 0x8, addend: 0x0, symName: __ZNSt3__111basic_regexIcNS_12regex_traitsIcEEE11__push_charEc, symObjAddr: 0x115C4, symBinAddr: 0x357B0, symSize: 0x144 }
  - { offset: 0x1AA59E, size: 0x8, addend: 0x0, symName: __ZNSt3__111basic_regexIcNS_12regex_traitsIcEEE15__push_back_refEi, symObjAddr: 0x11754, symBinAddr: 0x35940, symSize: 0xD4 }
  - { offset: 0x1AA752, size: 0x8, addend: 0x0, symName: __ZNSt3__111basic_regexIcNS_12regex_traitsIcEEE30__parse_character_class_escapeINS_11__wrap_iterIPKcEEEET_S9_S9_, symObjAddr: 0x10FDC, symBinAddr: 0x351C8, symSize: 0x25C }
  - { offset: 0x1AABC1, size: 0x8, addend: 0x0, symName: __ZNSt3__111basic_regexIcNS_12regex_traitsIcEEE24__parse_character_escapeINS_11__wrap_iterIPKcEEEET_S9_S9_PNS_12basic_stringIcNS_11char_traitsIcEENS_9allocatorIcEEEE, symObjAddr: 0x11238, symBinAddr: 0x35424, symSize: 0x38C }
  - { offset: 0x1AAF87, size: 0x8, addend: 0x0, symName: __ZNSt3__111basic_regexIcNS_12regex_traitsIcEEE11__push_charEc, symObjAddr: 0x115C4, symBinAddr: 0x357B0, symSize: 0x144 }
  - { offset: 0x1AB072, size: 0x8, addend: 0x0, symName: __ZNSt3__120__bracket_expressionIcNS_12regex_traitsIcEEEC2B8ne200100ERKS2_PNS_6__nodeIcEEbbb, symObjAddr: 0x12100, symBinAddr: 0x362EC, symSize: 0x19C }
  - { offset: 0x1AB6A4, size: 0x8, addend: 0x0, symName: __ZNSt3__120__bracket_expressionIcNS_12regex_traitsIcEEE10__add_charB8ne200100Ec, symObjAddr: 0x11F74, symBinAddr: 0x36160, symSize: 0x18C }
  - { offset: 0x1AB9CC, size: 0x8, addend: 0x0, symName: __ZNSt3__120__bracket_expressionIcNS_12regex_traitsIcEEEC2B8ne200100ERKS2_PNS_6__nodeIcEEbbb, symObjAddr: 0x12100, symBinAddr: 0x362EC, symSize: 0x19C }
  - { offset: 0x1AB9D7, size: 0x8, addend: 0x0, symName: __ZNSt3__111basic_regexIcNS_12regex_traitsIcEEE23__parse_expression_termINS_11__wrap_iterIPKcEEEET_S9_S9_PNS_20__bracket_expressionIcS2_EE, symObjAddr: 0x13320, symBinAddr: 0x37488, symSize: 0x454 }
  - { offset: 0x1AC655, size: 0x8, addend: 0x0, symName: __ZNSt3__123__match_any_but_newlineIcED1Ev, symObjAddr: 0x10F00, symBinAddr: 0x350EC, symSize: 0x48 }
  - { offset: 0x1AC679, size: 0x8, addend: 0x0, symName: __ZNSt3__123__match_any_but_newlineIcED1Ev, symObjAddr: 0x10F00, symBinAddr: 0x350EC, symSize: 0x48 }
  - { offset: 0x1AC697, size: 0x8, addend: 0x0, symName: __ZNSt3__123__match_any_but_newlineIcED1Ev, symObjAddr: 0x10F00, symBinAddr: 0x350EC, symSize: 0x48 }
  - { offset: 0x1AC6DE, size: 0x8, addend: 0x0, symName: __ZNSt3__123__match_any_but_newlineIcED0Ev, symObjAddr: 0x10F48, symBinAddr: 0x35134, symSize: 0x48 }
  - { offset: 0x1AC70E, size: 0x8, addend: 0x0, symName: __ZNSt3__123__match_any_but_newlineIcED0Ev, symObjAddr: 0x10F48, symBinAddr: 0x35134, symSize: 0x48 }
  - { offset: 0x1AC72C, size: 0x8, addend: 0x0, symName: __ZNSt3__123__match_any_but_newlineIcED0Ev, symObjAddr: 0x10F48, symBinAddr: 0x35134, symSize: 0x48 }
  - { offset: 0x1AC74A, size: 0x8, addend: 0x0, symName: __ZNSt3__123__match_any_but_newlineIcED0Ev, symObjAddr: 0x10F48, symBinAddr: 0x35134, symSize: 0x48 }
  - { offset: 0x1ACB9A, size: 0x8, addend: 0x0, symName: __ZNSt3__118__match_char_icaseIcNS_12regex_traitsIcEEED1Ev, symObjAddr: 0x11828, symBinAddr: 0x35A14, symSize: 0x58 }
  - { offset: 0x1ACC4A, size: 0x8, addend: 0x0, symName: __ZNSt3__118__match_char_icaseIcNS_12regex_traitsIcEEED0Ev, symObjAddr: 0x11880, symBinAddr: 0x35A6C, symSize: 0x58 }
  - { offset: 0x1ACD06, size: 0x8, addend: 0x0, symName: __ZNKSt3__118__match_char_icaseIcNS_12regex_traitsIcEEE6__execERNS_7__stateIcEE, symObjAddr: 0x118D8, symBinAddr: 0x35AC4, symSize: 0x84 }
  - { offset: 0x1ACDBF, size: 0x8, addend: 0x0, symName: __ZNSt3__120__match_char_collateIcNS_12regex_traitsIcEEED1Ev, symObjAddr: 0x1195C, symBinAddr: 0x35B48, symSize: 0x58 }
  - { offset: 0x1ACE6F, size: 0x8, addend: 0x0, symName: __ZNSt3__120__match_char_collateIcNS_12regex_traitsIcEEED0Ev, symObjAddr: 0x119B4, symBinAddr: 0x35BA0, symSize: 0x58 }
  - { offset: 0x1ACF2B, size: 0x8, addend: 0x0, symName: __ZNKSt3__120__match_char_collateIcNS_12regex_traitsIcEEE6__execERNS_7__stateIcEE, symObjAddr: 0x11A0C, symBinAddr: 0x35BF8, symSize: 0x48 }
  - { offset: 0x1ACF98, size: 0x8, addend: 0x0, symName: __ZNSt3__112__match_charIcED1Ev, symObjAddr: 0x11A54, symBinAddr: 0x35C40, symSize: 0x48 }
  - { offset: 0x1ACFBC, size: 0x8, addend: 0x0, symName: __ZNSt3__112__match_charIcED1Ev, symObjAddr: 0x11A54, symBinAddr: 0x35C40, symSize: 0x48 }
  - { offset: 0x1ACFDA, size: 0x8, addend: 0x0, symName: __ZNSt3__112__match_charIcED1Ev, symObjAddr: 0x11A54, symBinAddr: 0x35C40, symSize: 0x48 }
  - { offset: 0x1AD021, size: 0x8, addend: 0x0, symName: __ZNSt3__112__match_charIcED0Ev, symObjAddr: 0x11A9C, symBinAddr: 0x35C88, symSize: 0x48 }
  - { offset: 0x1AD051, size: 0x8, addend: 0x0, symName: __ZNSt3__112__match_charIcED0Ev, symObjAddr: 0x11A9C, symBinAddr: 0x35C88, symSize: 0x48 }
  - { offset: 0x1AD06F, size: 0x8, addend: 0x0, symName: __ZNSt3__112__match_charIcED0Ev, symObjAddr: 0x11A9C, symBinAddr: 0x35C88, symSize: 0x48 }
  - { offset: 0x1AD08D, size: 0x8, addend: 0x0, symName: __ZNSt3__112__match_charIcED0Ev, symObjAddr: 0x11A9C, symBinAddr: 0x35C88, symSize: 0x48 }
  - { offset: 0x1AD0B8, size: 0x8, addend: 0x0, symName: __ZNKSt3__112__match_charIcE6__execERNS_7__stateIcEE, symObjAddr: 0x11AE4, symBinAddr: 0x35CD0, symSize: 0x48 }
  - { offset: 0x1AD125, size: 0x8, addend: 0x0, symName: __ZNSt3__116__back_ref_icaseIcNS_12regex_traitsIcEEED1Ev, symObjAddr: 0x11B2C, symBinAddr: 0x35D18, symSize: 0x58 }
  - { offset: 0x1AD1D5, size: 0x8, addend: 0x0, symName: __ZNSt3__116__back_ref_icaseIcNS_12regex_traitsIcEEED0Ev, symObjAddr: 0x11B84, symBinAddr: 0x35D70, symSize: 0x58 }
  - { offset: 0x1AD291, size: 0x8, addend: 0x0, symName: __ZNKSt3__116__back_ref_icaseIcNS_12regex_traitsIcEEE6__execERNS_7__stateIcEE, symObjAddr: 0x11BDC, symBinAddr: 0x35DC8, symSize: 0xFC }
  - { offset: 0x1AD3F8, size: 0x8, addend: 0x0, symName: __ZNSt3__118__back_ref_collateIcNS_12regex_traitsIcEEED1Ev, symObjAddr: 0x11CD8, symBinAddr: 0x35EC4, symSize: 0x58 }
  - { offset: 0x1AD4A8, size: 0x8, addend: 0x0, symName: __ZNSt3__118__back_ref_collateIcNS_12regex_traitsIcEEED0Ev, symObjAddr: 0x11D30, symBinAddr: 0x35F1C, symSize: 0x58 }
  - { offset: 0x1AD564, size: 0x8, addend: 0x0, symName: __ZNKSt3__118__back_ref_collateIcNS_12regex_traitsIcEEE6__execERNS_7__stateIcEE, symObjAddr: 0x11D88, symBinAddr: 0x35F74, symSize: 0x8C }
  - { offset: 0x1AD635, size: 0x8, addend: 0x0, symName: __ZNSt3__110__back_refIcED1Ev, symObjAddr: 0x11E14, symBinAddr: 0x36000, symSize: 0x48 }
  - { offset: 0x1AD659, size: 0x8, addend: 0x0, symName: __ZNSt3__110__back_refIcED1Ev, symObjAddr: 0x11E14, symBinAddr: 0x36000, symSize: 0x48 }
  - { offset: 0x1AD677, size: 0x8, addend: 0x0, symName: __ZNSt3__110__back_refIcED1Ev, symObjAddr: 0x11E14, symBinAddr: 0x36000, symSize: 0x48 }
  - { offset: 0x1AD6BE, size: 0x8, addend: 0x0, symName: __ZNSt3__110__back_refIcED0Ev, symObjAddr: 0x11E5C, symBinAddr: 0x36048, symSize: 0x48 }
  - { offset: 0x1AD6EE, size: 0x8, addend: 0x0, symName: __ZNSt3__110__back_refIcED0Ev, symObjAddr: 0x11E5C, symBinAddr: 0x36048, symSize: 0x48 }
  - { offset: 0x1AD70C, size: 0x8, addend: 0x0, symName: __ZNSt3__110__back_refIcED0Ev, symObjAddr: 0x11E5C, symBinAddr: 0x36048, symSize: 0x48 }
  - { offset: 0x1AD72A, size: 0x8, addend: 0x0, symName: __ZNSt3__110__back_refIcED0Ev, symObjAddr: 0x11E5C, symBinAddr: 0x36048, symSize: 0x48 }
  - { offset: 0x1AD755, size: 0x8, addend: 0x0, symName: __ZNKSt3__110__back_refIcE6__execERNS_7__stateIcEE, symObjAddr: 0x11EA4, symBinAddr: 0x36090, symSize: 0xD0 }
  - { offset: 0x1AD8CD, size: 0x8, addend: 0x0, symName: __ZNSt3__120__bracket_expressionIcNS_12regex_traitsIcEEE10__add_charB8ne200100Ec, symObjAddr: 0x11F74, symBinAddr: 0x36160, symSize: 0x18C }
  - { offset: 0x1ADB54, size: 0x8, addend: 0x0, symName: __ZNSt3__16vectorIcNS_9allocatorIcEEE20__throw_length_errorB8ne200100Ev, symObjAddr: 0x132C0, symBinAddr: 0x37428, symSize: 0x14 }
  - { offset: 0x1ADB6C, size: 0x8, addend: 0x0, symName: __ZNSt3__119__throw_regex_errorB8ne200100ILNS_15regex_constants10error_typeE5EEEvv, symObjAddr: 0x132D4, symBinAddr: 0x3743C, symSize: 0x4C }
  - { offset: 0x1ADF4F, size: 0x8, addend: 0x0, symName: __ZNSt3__16vectorINS_4pairINS_12basic_stringIcNS_11char_traitsIcEENS_9allocatorIcEEEES7_EENS5_IS8_EEED1B8ne200100Ev, symObjAddr: 0x1230C, symBinAddr: 0x36488, symSize: 0x94 }
  - { offset: 0x1AE5B9, size: 0x8, addend: 0x0, symName: __ZNSt3__120__bracket_expressionIcNS_12regex_traitsIcEEED1Ev, symObjAddr: 0x123A0, symBinAddr: 0x3651C, symSize: 0x4 }
  - { offset: 0x1AE5DC, size: 0x8, addend: 0x0, symName: __ZNSt3__120__bracket_expressionIcNS_12regex_traitsIcEEED1Ev, symObjAddr: 0x123A0, symBinAddr: 0x3651C, symSize: 0x4 }
  - { offset: 0x1AE5EF, size: 0x8, addend: 0x0, symName: __ZNSt3__120__bracket_expressionIcNS_12regex_traitsIcEEED2Ev, symObjAddr: 0x12C88, symBinAddr: 0x36DF0, symSize: 0x148 }
  - { offset: 0x1AEFF4, size: 0x8, addend: 0x0, symName: __ZNSt3__120__bracket_expressionIcNS_12regex_traitsIcEEED0Ev, symObjAddr: 0x123A4, symBinAddr: 0x36520, symSize: 0x14 }
  - { offset: 0x1AF432, size: 0x8, addend: 0x0, symName: __ZNKSt3__120__bracket_expressionIcNS_12regex_traitsIcEEE6__execERNS_7__stateIcEE, symObjAddr: 0x123B8, symBinAddr: 0x36534, symSize: 0x864 }
  - { offset: 0x1B0C7F, size: 0x8, addend: 0x0, symName: __ZNKSt3__112regex_traitsIcE20__lookup_collatenameIPcEENS_12basic_stringIcNS_11char_traitsIcEENS_9allocatorIcEEEET_SA_c, symObjAddr: 0x12EFC, symBinAddr: 0x37064, symSize: 0x234 }
  - { offset: 0x1B177A, size: 0x8, addend: 0x0, symName: __ZNKSt3__112regex_traitsIcE9transformIPcEENS_12basic_stringIcNS_11char_traitsIcEENS_9allocatorIcEEEET_SA_, symObjAddr: 0x12DD0, symBinAddr: 0x36F38, symSize: 0x12C }
  - { offset: 0x1B1D37, size: 0x8, addend: 0x0, symName: __ZNKSt3__112regex_traitsIcE19__transform_primaryIPcEENS_12basic_stringIcNS_11char_traitsIcEENS_9allocatorIcEEEET_SA_c, symObjAddr: 0x13130, symBinAddr: 0x37298, symSize: 0x190 }
  - { offset: 0x1B2477, size: 0x8, addend: 0x0, symName: __ZNSt3__14pairINS_12basic_stringIcNS_11char_traitsIcEENS_9allocatorIcEEEES6_ED1Ev, symObjAddr: 0x12C30, symBinAddr: 0x36D98, symSize: 0x58 }
  - { offset: 0x1B2776, size: 0x8, addend: 0x0, symName: __ZNSt3__111basic_regexIcNS_12regex_traitsIcEEE25__parse_equivalence_classINS_11__wrap_iterIPKcEEEET_S9_S9_PNS_20__bracket_expressionIcS2_EE, symObjAddr: 0x13774, symBinAddr: 0x378DC, symSize: 0x274 }
  - { offset: 0x1B31AB, size: 0x8, addend: 0x0, symName: __ZNSt3__111basic_regexIcNS_12regex_traitsIcEEE18__parse_awk_escapeINS_11__wrap_iterIPKcEEEET_S9_S9_PNS_12basic_stringIcNS_11char_traitsIcEENS_9allocatorIcEEEE, symObjAddr: 0x13CFC, symBinAddr: 0x37E64, symSize: 0x2F8 }
  - { offset: 0x1B3388, size: 0x8, addend: 0x0, symName: __ZNSt3__120__bracket_expressionIcNS_12regex_traitsIcEEE11__add_rangeB8ne200100ENS_12basic_stringIcNS_11char_traitsIcEENS_9allocatorIcEEEES9_, symObjAddr: 0x13FF4, symBinAddr: 0x3815C, symSize: 0x438 }
  - { offset: 0x1B339C, size: 0x8, addend: 0x0, symName: __ZNSt3__111basic_regexIcNS_12regex_traitsIcEEE24__parse_collating_symbolINS_11__wrap_iterIPKcEEEET_S9_S9_RNS_12basic_stringIcNS_11char_traitsIcEENS_9allocatorIcEEEE, symObjAddr: 0x13A94, symBinAddr: 0x37BFC, symSize: 0xE0 }
  - { offset: 0x1B36E3, size: 0x8, addend: 0x0, symName: __ZNSt3__111basic_regexIcNS_12regex_traitsIcEEE20__parse_class_escapeINS_11__wrap_iterIPKcEEEET_S9_S9_RNS_12basic_stringIcNS_11char_traitsIcEENS_9allocatorIcEEEEPNS_20__bracket_expressionIcS2_EE, symObjAddr: 0x13B74, symBinAddr: 0x37CDC, symSize: 0x188 }
  - { offset: 0x1B36F7, size: 0x8, addend: 0x0, symName: __ZNSt3__111basic_regexIcNS_12regex_traitsIcEEE23__parse_character_classINS_11__wrap_iterIPKcEEEET_S9_S9_PNS_20__bracket_expressionIcS2_EE, symObjAddr: 0x139E8, symBinAddr: 0x37B50, symSize: 0xAC }
  - { offset: 0x1B3949, size: 0x8, addend: 0x0, symName: __ZNSt3__111basic_regexIcNS_12regex_traitsIcEEE24__parse_collating_symbolINS_11__wrap_iterIPKcEEEET_S9_S9_RNS_12basic_stringIcNS_11char_traitsIcEENS_9allocatorIcEEEE, symObjAddr: 0x13A94, symBinAddr: 0x37BFC, symSize: 0xE0 }
  - { offset: 0x1B3969, size: 0x8, addend: 0x0, symName: __ZNSt3__120__bracket_expressionIcNS_12regex_traitsIcEEE13__add_digraphB8ne200100Ecc, symObjAddr: 0x1442C, symBinAddr: 0x38594, symSize: 0x220 }
  - { offset: 0x1B4406, size: 0x8, addend: 0x0, symName: __ZNSt3__119__throw_regex_errorB8ne200100ILNS_15regex_constants10error_typeE1EEEvv, symObjAddr: 0x1464C, symBinAddr: 0x387B4, symSize: 0x4C }
  - { offset: 0x1B4411, size: 0x8, addend: 0x0, symName: __ZNSt3__111basic_regexIcNS_12regex_traitsIcEEE20__parse_class_escapeINS_11__wrap_iterIPKcEEEET_S9_S9_RNS_12basic_stringIcNS_11char_traitsIcEENS_9allocatorIcEEEEPNS_20__bracket_expressionIcS2_EE, symObjAddr: 0x13B74, symBinAddr: 0x37CDC, symSize: 0x188 }
  - { offset: 0x1B45E5, size: 0x8, addend: 0x0, symName: __ZNSt3__111basic_regexIcNS_12regex_traitsIcEEE18__parse_awk_escapeINS_11__wrap_iterIPKcEEEET_S9_S9_PNS_12basic_stringIcNS_11char_traitsIcEENS_9allocatorIcEEEE, symObjAddr: 0x13CFC, symBinAddr: 0x37E64, symSize: 0x2F8 }
  - { offset: 0x1B45F9, size: 0x8, addend: 0x0, symName: __ZNSt3__120__bracket_expressionIcNS_12regex_traitsIcEEE11__add_rangeB8ne200100ENS_12basic_stringIcNS_11char_traitsIcEENS_9allocatorIcEEEES9_, symObjAddr: 0x13FF4, symBinAddr: 0x3815C, symSize: 0x438 }
  - { offset: 0x1B59F7, size: 0x8, addend: 0x0, symName: __ZNKSt3__112regex_traitsIcE20__lookup_collatenameINS_11__wrap_iterIPKcEEEENS_12basic_stringIcNS_11char_traitsIcEENS_9allocatorIcEEEET_SD_c, symObjAddr: 0x14698, symBinAddr: 0x38800, symSize: 0x234 }
  - { offset: 0x1B6507, size: 0x8, addend: 0x0, symName: __ZNKSt3__112regex_traitsIcE19__transform_primaryINS_11__wrap_iterIPcEEEENS_12basic_stringIcNS_11char_traitsIcEENS_9allocatorIcEEEET_SC_c, symObjAddr: 0x148CC, symBinAddr: 0x38A34, symSize: 0x190 }
  - { offset: 0x1B6C5C, size: 0x8, addend: 0x0, symName: __ZNSt3__16vectorINS_12basic_stringIcNS_11char_traitsIcEENS_9allocatorIcEEEENS4_IS6_EEE24__emplace_back_slow_pathIJRKS6_EEEPS6_DpOT_, symObjAddr: 0x14A5C, symBinAddr: 0x38BC4, symSize: 0x154 }
  - { offset: 0x1B70CE, size: 0x8, addend: 0x0, symName: __ZNKSt3__112regex_traitsIcE18__lookup_classnameINS_11__wrap_iterIPKcEEEEjT_S7_bc, symObjAddr: 0x14C74, symBinAddr: 0x38DDC, symSize: 0x14C }
  - { offset: 0x1B779B, size: 0x8, addend: 0x0, symName: __ZNSt3__120__bracket_expressionIcNS_12regex_traitsIcEEE14__add_neg_charB8ne200100Ec, symObjAddr: 0x14DC0, symBinAddr: 0x38F28, symSize: 0x18C }
  - { offset: 0x1B7ACD, size: 0x8, addend: 0x0, symName: __ZNSt3__16vectorINS_4pairINS_12basic_stringIcNS_11char_traitsIcEENS_9allocatorIcEEEES7_EENS5_IS8_EEE9push_backB8ne200100EOS8_, symObjAddr: 0x14F4C, symBinAddr: 0x390B4, symSize: 0x174 }
  - { offset: 0x1B7B90, size: 0x8, addend: 0x0, symName: __ZNKSt3__112regex_traitsIcE9transformINS_11__wrap_iterIPcEEEENS_12basic_stringIcNS_11char_traitsIcEENS_9allocatorIcEEEET_SC_, symObjAddr: 0x150C0, symBinAddr: 0x39228, symSize: 0x12C }
  - { offset: 0x1B8186, size: 0x8, addend: 0x0, symName: __ZNSt3__16vectorINS_4pairINS_12basic_stringIcNS_11char_traitsIcEENS_9allocatorIcEEEES7_EENS5_IS8_EEE9push_backB8ne200100EOS8_, symObjAddr: 0x14F4C, symBinAddr: 0x390B4, symSize: 0x174 }
  - { offset: 0x1B8719, size: 0x8, addend: 0x0, symName: __ZNKSt3__112regex_traitsIcE9transformINS_11__wrap_iterIPcEEEENS_12basic_stringIcNS_11char_traitsIcEENS_9allocatorIcEEEET_SC_, symObjAddr: 0x150C0, symBinAddr: 0x39228, symSize: 0x12C }
  - { offset: 0x1B8A23, size: 0x8, addend: 0x0, symName: __ZNSt3__16vectorINS_4pairIccEENS_9allocatorIS2_EEE20__throw_length_errorB8ne200100Ev, symObjAddr: 0x1524C, symBinAddr: 0x393B4, symSize: 0x14 }
  - { offset: 0x1B8A3B, size: 0x8, addend: 0x0, symName: __ZNSt3__128__begin_marked_subexpressionIcED1Ev, symObjAddr: 0x15260, symBinAddr: 0x393C8, symSize: 0x48 }
  - { offset: 0x1B8EBA, size: 0x8, addend: 0x0, symName: __ZNSt3__16vectorINS_12basic_stringIcNS_11char_traitsIcEENS_9allocatorIcEEEENS4_IS6_EEE20__throw_length_errorB8ne200100Ev, symObjAddr: 0x14C14, symBinAddr: 0x38D7C, symSize: 0x14 }
  - { offset: 0x1B8ED2, size: 0x8, addend: 0x0, symName: __ZNSt3__119__throw_regex_errorB8ne200100ILNS_15regex_constants10error_typeE2EEEvv, symObjAddr: 0x14C28, symBinAddr: 0x38D90, symSize: 0x4C }
  - { offset: 0x1B8EDD, size: 0x8, addend: 0x0, symName: __ZNSt3__114__split_bufferINS_12basic_stringIcNS_11char_traitsIcEENS_9allocatorIcEEEERNS4_IS6_EEED1Ev, symObjAddr: 0x14BB0, symBinAddr: 0x38D18, symSize: 0x64 }
  - { offset: 0x1B9478, size: 0x8, addend: 0x0, symName: __ZNSt3__16vectorINS_4pairINS_12basic_stringIcNS_11char_traitsIcEENS_9allocatorIcEEEES7_EENS5_IS8_EEE20__throw_length_errorB8ne200100Ev, symObjAddr: 0x15238, symBinAddr: 0x393A0, symSize: 0x14 }
  - { offset: 0x1B9490, size: 0x8, addend: 0x0, symName: __ZNSt3__16vectorINS_4pairIccEENS_9allocatorIS2_EEE20__throw_length_errorB8ne200100Ev, symObjAddr: 0x1524C, symBinAddr: 0x393B4, symSize: 0x14 }
  - { offset: 0x1B94B8, size: 0x8, addend: 0x0, symName: __ZNSt3__128__begin_marked_subexpressionIcED1Ev, symObjAddr: 0x15260, symBinAddr: 0x393C8, symSize: 0x48 }
  - { offset: 0x1B94DC, size: 0x8, addend: 0x0, symName: __ZNSt3__128__begin_marked_subexpressionIcED1Ev, symObjAddr: 0x15260, symBinAddr: 0x393C8, symSize: 0x48 }
  - { offset: 0x1B94FA, size: 0x8, addend: 0x0, symName: __ZNSt3__128__begin_marked_subexpressionIcED1Ev, symObjAddr: 0x15260, symBinAddr: 0x393C8, symSize: 0x48 }
  - { offset: 0x1B9541, size: 0x8, addend: 0x0, symName: __ZNSt3__128__begin_marked_subexpressionIcED0Ev, symObjAddr: 0x152A8, symBinAddr: 0x39410, symSize: 0x48 }
  - { offset: 0x1B9571, size: 0x8, addend: 0x0, symName: __ZNSt3__128__begin_marked_subexpressionIcED0Ev, symObjAddr: 0x152A8, symBinAddr: 0x39410, symSize: 0x48 }
  - { offset: 0x1B958F, size: 0x8, addend: 0x0, symName: __ZNSt3__128__begin_marked_subexpressionIcED0Ev, symObjAddr: 0x152A8, symBinAddr: 0x39410, symSize: 0x48 }
  - { offset: 0x1B95AD, size: 0x8, addend: 0x0, symName: __ZNSt3__128__begin_marked_subexpressionIcED0Ev, symObjAddr: 0x152A8, symBinAddr: 0x39410, symSize: 0x48 }
  - { offset: 0x1B95D8, size: 0x8, addend: 0x0, symName: __ZNKSt3__128__begin_marked_subexpressionIcE6__execERNS_7__stateIcEE, symObjAddr: 0x152F0, symBinAddr: 0x39458, symSize: 0x30 }
  - { offset: 0x1B9664, size: 0x8, addend: 0x0, symName: __ZNSt3__126__end_marked_subexpressionIcED1Ev, symObjAddr: 0x15320, symBinAddr: 0x39488, symSize: 0x48 }
  - { offset: 0x1B9688, size: 0x8, addend: 0x0, symName: __ZNSt3__126__end_marked_subexpressionIcED1Ev, symObjAddr: 0x15320, symBinAddr: 0x39488, symSize: 0x48 }
  - { offset: 0x1B96A6, size: 0x8, addend: 0x0, symName: __ZNSt3__126__end_marked_subexpressionIcED1Ev, symObjAddr: 0x15320, symBinAddr: 0x39488, symSize: 0x48 }
  - { offset: 0x1B96ED, size: 0x8, addend: 0x0, symName: __ZNSt3__126__end_marked_subexpressionIcED0Ev, symObjAddr: 0x15368, symBinAddr: 0x394D0, symSize: 0x48 }
  - { offset: 0x1B971D, size: 0x8, addend: 0x0, symName: __ZNSt3__126__end_marked_subexpressionIcED0Ev, symObjAddr: 0x15368, symBinAddr: 0x394D0, symSize: 0x48 }
  - { offset: 0x1B973B, size: 0x8, addend: 0x0, symName: __ZNSt3__126__end_marked_subexpressionIcED0Ev, symObjAddr: 0x15368, symBinAddr: 0x394D0, symSize: 0x48 }
  - { offset: 0x1B9759, size: 0x8, addend: 0x0, symName: __ZNSt3__126__end_marked_subexpressionIcED0Ev, symObjAddr: 0x15368, symBinAddr: 0x394D0, symSize: 0x48 }
  - { offset: 0x1B9784, size: 0x8, addend: 0x0, symName: __ZNKSt3__126__end_marked_subexpressionIcE6__execERNS_7__stateIcEE, symObjAddr: 0x153B0, symBinAddr: 0x39518, symSize: 0x38 }
  - { offset: 0x1B9A41, size: 0x8, addend: 0x0, symName: __ZNSt3__16__loopIcED0Ev, symObjAddr: 0x15624, symBinAddr: 0x3978C, symSize: 0x68 }
  - { offset: 0x1B9B32, size: 0x8, addend: 0x0, symName: __ZNSt3__16__loopIcED1Ev, symObjAddr: 0x155BC, symBinAddr: 0x39724, symSize: 0x68 }
  - { offset: 0x1B9C54, size: 0x8, addend: 0x0, symName: __ZNKSt3__16__loopIcE6__execERNS_7__stateIcEE, symObjAddr: 0x1568C, symBinAddr: 0x397F4, symSize: 0x1F8 }
  - { offset: 0x1B9D87, size: 0x8, addend: 0x0, symName: __ZNKSt3__16__loopIcE12__exec_splitEbRNS_7__stateIcEE, symObjAddr: 0x15884, symBinAddr: 0x399EC, symSize: 0xD8 }
  - { offset: 0x1B9E58, size: 0x8, addend: 0x0, symName: __ZNSt3__117__owns_two_statesIcED1Ev, symObjAddr: 0x1595C, symBinAddr: 0x39AC4, symSize: 0x68 }
  - { offset: 0x1B9EE6, size: 0x8, addend: 0x0, symName: __ZNSt3__117__owns_two_statesIcED0Ev, symObjAddr: 0x159C4, symBinAddr: 0x39B2C, symSize: 0x68 }
  - { offset: 0x1B9F80, size: 0x8, addend: 0x0, symName: __ZNSt3__117__repeat_one_loopIcED1Ev, symObjAddr: 0x15A2C, symBinAddr: 0x39B94, symSize: 0x4 }
  - { offset: 0x1B9FAC, size: 0x8, addend: 0x0, symName: __ZNSt3__117__repeat_one_loopIcED0Ev, symObjAddr: 0x15A30, symBinAddr: 0x39B98, symSize: 0x4 }
  - { offset: 0x1B9FD8, size: 0x8, addend: 0x0, symName: __ZNKSt3__117__repeat_one_loopIcE6__execERNS_7__stateIcEE, symObjAddr: 0x15A34, symBinAddr: 0x39B9C, symSize: 0x14 }
  - { offset: 0x1BA045, size: 0x8, addend: 0x0, symName: __ZNSt3__111__alternateIcED1Ev, symObjAddr: 0x15A48, symBinAddr: 0x39BB0, symSize: 0x68 }
  - { offset: 0x1BA0F3, size: 0x8, addend: 0x0, symName: __ZNSt3__111__alternateIcED0Ev, symObjAddr: 0x15AB0, symBinAddr: 0x39C18, symSize: 0x68 }
  - { offset: 0x1BA1AD, size: 0x8, addend: 0x0, symName: __ZNKSt3__111__alternateIcE6__execERNS_7__stateIcEE, symObjAddr: 0x15B18, symBinAddr: 0x39C80, symSize: 0xC }
  - { offset: 0x1BA1E0, size: 0x8, addend: 0x0, symName: __ZNKSt3__111__alternateIcE12__exec_splitEbRNS_7__stateIcEE, symObjAddr: 0x15B24, symBinAddr: 0x39C8C, symSize: 0x24 }
  - { offset: 0x1BA226, size: 0x8, addend: 0x0, symName: __ZNSt3__121__empty_non_own_stateIcED1Ev, symObjAddr: 0x15B48, symBinAddr: 0x39CB0, symSize: 0x4 }
  - { offset: 0x1BA252, size: 0x8, addend: 0x0, symName: __ZNSt3__121__empty_non_own_stateIcED0Ev, symObjAddr: 0x15B4C, symBinAddr: 0x39CB4, symSize: 0x4 }
  - { offset: 0x1BA27E, size: 0x8, addend: 0x0, symName: __ZNKSt3__121__empty_non_own_stateIcE6__execERNS_7__stateIcEE, symObjAddr: 0x15B50, symBinAddr: 0x39CB8, symSize: 0x14 }
  - { offset: 0x1BA3CD, size: 0x8, addend: 0x0, symName: __ZNSt3__111basic_regexIcNS_12regex_traitsIcEEE32__parse_one_char_or_coll_elem_REINS_11__wrap_iterIPKcEEEET_S9_S9_, symObjAddr: 0x16030, symBinAddr: 0x3A198, symSize: 0x18C }
  - { offset: 0x1BA75C, size: 0x8, addend: 0x0, symName: __ZNSt3__111__match_anyIcED1Ev, symObjAddr: 0x161BC, symBinAddr: 0x3A324, symSize: 0x48 }
  - { offset: 0x1BA780, size: 0x8, addend: 0x0, symName: __ZNSt3__111__match_anyIcED1Ev, symObjAddr: 0x161BC, symBinAddr: 0x3A324, symSize: 0x48 }
  - { offset: 0x1BA79E, size: 0x8, addend: 0x0, symName: __ZNSt3__111__match_anyIcED1Ev, symObjAddr: 0x161BC, symBinAddr: 0x3A324, symSize: 0x48 }
  - { offset: 0x1BA7E5, size: 0x8, addend: 0x0, symName: __ZNSt3__111__match_anyIcED0Ev, symObjAddr: 0x16204, symBinAddr: 0x3A36C, symSize: 0x48 }
  - { offset: 0x1BA815, size: 0x8, addend: 0x0, symName: __ZNSt3__111__match_anyIcED0Ev, symObjAddr: 0x16204, symBinAddr: 0x3A36C, symSize: 0x48 }
  - { offset: 0x1BA833, size: 0x8, addend: 0x0, symName: __ZNSt3__111__match_anyIcED0Ev, symObjAddr: 0x16204, symBinAddr: 0x3A36C, symSize: 0x48 }
  - { offset: 0x1BA851, size: 0x8, addend: 0x0, symName: __ZNSt3__111__match_anyIcED0Ev, symObjAddr: 0x16204, symBinAddr: 0x3A36C, symSize: 0x48 }
  - { offset: 0x1BA87C, size: 0x8, addend: 0x0, symName: __ZNKSt3__111__match_anyIcE6__execERNS_7__stateIcEE, symObjAddr: 0x1624C, symBinAddr: 0x3A3B4, symSize: 0x40 }
  - { offset: 0x1BA8CC, size: 0x8, addend: 0x0, symName: __ZNSt3__111basic_regexIcNS_12regex_traitsIcEEE15__test_back_refEc, symObjAddr: 0x1628C, symBinAddr: 0x3A3F4, symSize: 0x60 }
  - { offset: 0x1BA9C5, size: 0x8, addend: 0x0, symName: __ZNSt3__111basic_regexIcNS_12regex_traitsIcEEE22__parse_ERE_expressionINS_11__wrap_iterIPKcEEEET_S9_S9_, symObjAddr: 0x162EC, symBinAddr: 0x3A454, symSize: 0x1F0 }
  - { offset: 0x1BA9D0, size: 0x8, addend: 0x0, symName: __ZNSt3__111basic_regexIcNS_12regex_traitsIcEEE33__parse_one_char_or_coll_elem_EREINS_11__wrap_iterIPKcEEEET_S9_S9_, symObjAddr: 0x164DC, symBinAddr: 0x3A644, symSize: 0x158 }
  - { offset: 0x1BABEC, size: 0x8, addend: 0x0, symName: __ZNSt3__111basic_regexIcNS_12regex_traitsIcEEE23__parse_QUOTED_CHAR_EREINS_11__wrap_iterIPKcEEEET_S9_S9_, symObjAddr: 0x16634, symBinAddr: 0x3A79C, symSize: 0xC8 }
  - { offset: 0x1BADCC, size: 0x8, addend: 0x0, symName: __ZNSt3__128__exception_guard_exceptionsINS_29_AllocatorDestroyRangeReverseINS_9allocatorINS_6vectorI21llama_grammar_elementNS2_IS4_EEEEEEPS6_EEED1B8ne200100Ev, symObjAddr: 0x1687C, symBinAddr: 0x3A95C, symSize: 0x6C }
  - { offset: 0x1E8CD1, size: 0x8, addend: 0x0, symName: __ZNSt3__125__throw_bad_function_callB8ne200100Ev, symObjAddr: 0xB418, symBinAddr: 0x45D10, symSize: 0x34 }
  - { offset: 0x1E90C9, size: 0x8, addend: 0x0, symName: __ZNSt3__111make_uniqueB8ne200100I24llm_graph_input_samplingJRKNS_3mapIiP13llama_samplerNS_4lessIiEENS_9allocatorINS_4pairIKiS4_EEEEEEELi0EEENS_10unique_ptrIT_NS_14default_deleteISG_EEEEDpOT0_, symObjAddr: 0xA0DC, symBinAddr: 0x44F30, symSize: 0xF4 }
  - { offset: 0x1F3000, size: 0x8, addend: 0x0, symName: __ZN20llm_graph_input_embd9set_inputEPK12llama_ubatch, symObjAddr: 0x0, symBinAddr: 0x3AF28, symSize: 0xD8 }
  - { offset: 0x1F30CA, size: 0x8, addend: 0x0, symName: __ZN20llm_graph_input_embd9can_reuseERK16llm_graph_params, symObjAddr: 0xD8, symBinAddr: 0x3B000, symSize: 0x68 }
  - { offset: 0x1F312F, size: 0x8, addend: 0x0, symName: __ZN20llm_graph_input_embd9can_reuseERK16llm_graph_params, symObjAddr: 0xD8, symBinAddr: 0x3B000, symSize: 0x68 }
  - { offset: 0x1F33C0, size: 0x8, addend: 0x0, symName: __ZN19llm_graph_input_pos9set_inputEPK12llama_ubatch, symObjAddr: 0x140, symBinAddr: 0x3B068, symSize: 0x270 }
  - { offset: 0x1F376E, size: 0x8, addend: 0x0, symName: __ZN19llm_graph_input_pos9can_reuseERK16llm_graph_params, symObjAddr: 0x3B0, symBinAddr: 0x3B2D8, symSize: 0x24 }
  - { offset: 0x1F3A29, size: 0x8, addend: 0x0, symName: __ZN25llm_graph_input_attn_temp9set_inputEPK12llama_ubatch, symObjAddr: 0x3D4, symBinAddr: 0x3B2FC, symSize: 0x274 }
  - { offset: 0x1F3E80, size: 0x8, addend: 0x0, symName: __ZN26llm_graph_input_pos_bucket9set_inputEPK12llama_ubatch, symObjAddr: 0x648, symBinAddr: 0x3B570, symSize: 0x3E0 }
  - { offset: 0x1F3FBA, size: 0x8, addend: 0x0, symName: __Z30llama_relative_position_bucketiiyb, symObjAddr: 0xA28, symBinAddr: 0x3B950, symSize: 0xAC }
  - { offset: 0x1F3FE9, size: 0x8, addend: 0x0, symName: __Z30llama_relative_position_bucketiiyb, symObjAddr: 0xA28, symBinAddr: 0x3B950, symSize: 0xAC }
  - { offset: 0x1F404B, size: 0x8, addend: 0x0, symName: __ZN29llm_graph_input_pos_bucket_kv9set_inputEPK12llama_ubatch, symObjAddr: 0xAD4, symBinAddr: 0x3B9FC, symSize: 0x18 }
  - { offset: 0x1F4083, size: 0x8, addend: 0x0, symName: __ZN23llm_graph_input_out_ids9set_inputEPK12llama_ubatch, symObjAddr: 0xAEC, symBinAddr: 0x3BA14, symSize: 0x2A4 }
  - { offset: 0x1F414A, size: 0x8, addend: 0x0, symName: __ZN23llm_graph_input_out_ids9can_reuseERK16llm_graph_params, symObjAddr: 0xD90, symBinAddr: 0x3BCB8, symSize: 0x1C }
  - { offset: 0x1F415D, size: 0x8, addend: 0x0, symName: __ZN23llm_graph_input_out_ids9can_reuseERK16llm_graph_params, symObjAddr: 0xD90, symBinAddr: 0x3BCB8, symSize: 0x1C }
  - { offset: 0x1F4418, size: 0x8, addend: 0x0, symName: __ZN20llm_graph_input_mean9set_inputEPK12llama_ubatch, symObjAddr: 0xDAC, symBinAddr: 0x3BCD4, symSize: 0x590 }
  - { offset: 0x1F4C15, size: 0x8, addend: 0x0, symName: __ZN19llm_graph_input_cls9set_inputEPK12llama_ubatch, symObjAddr: 0x133C, symBinAddr: 0x3C264, symSize: 0x370 }
  - { offset: 0x1F522F, size: 0x8, addend: 0x0, symName: __ZN18llm_graph_input_rs9set_inputEPK12llama_ubatch, symObjAddr: 0x16AC, symBinAddr: 0x3C5D4, symSize: 0xA0 }
  - { offset: 0x1F52AF, size: 0x8, addend: 0x0, symName: __ZN18llm_graph_input_rs9can_reuseERK16llm_graph_params, symObjAddr: 0x174C, symBinAddr: 0x3C674, symSize: 0xB4 }
  - { offset: 0x1F52C2, size: 0x8, addend: 0x0, symName: __ZN18llm_graph_input_rs9can_reuseERK16llm_graph_params, symObjAddr: 0x174C, symBinAddr: 0x3C674, symSize: 0xB4 }
  - { offset: 0x1F5338, size: 0x8, addend: 0x0, symName: __ZN26llm_graph_input_cross_embd9set_inputEPK12llama_ubatch, symObjAddr: 0x1800, symBinAddr: 0x3C728, symSize: 0x54 }
  - { offset: 0x1F53C8, size: 0x8, addend: 0x0, symName: __ZN29llm_graph_input_attn_no_cache9set_inputEPK12llama_ubatch, symObjAddr: 0x1854, symBinAddr: 0x3C77C, symSize: 0x5F0 }
  - { offset: 0x1F57E5, size: 0x8, addend: 0x0, symName: __ZL10print_maskPKfxxx14llama_swa_type, symObjAddr: 0x1E44, symBinAddr: 0x3CD6C, symSize: 0x20C }
  - { offset: 0x1F5931, size: 0x8, addend: 0x0, symName: __ZL10print_maskPKfxxx14llama_swa_type, symObjAddr: 0x1E44, symBinAddr: 0x3CD6C, symSize: 0x20C }
  - { offset: 0x1F5B38, size: 0x8, addend: 0x0, symName: __ZN23llm_graph_input_attn_kv9set_inputEPK12llama_ubatch, symObjAddr: 0x2050, symBinAddr: 0x3CF78, symSize: 0x54 }
  - { offset: 0x1F5B72, size: 0x8, addend: 0x0, symName: __ZN23llm_graph_input_attn_kv9can_reuseERK16llm_graph_params, symObjAddr: 0x20A4, symBinAddr: 0x3CFCC, symSize: 0x74 }
  - { offset: 0x1F5BCC, size: 0x8, addend: 0x0, symName: __ZN22llm_graph_input_attn_k9set_inputEPK12llama_ubatch, symObjAddr: 0x2118, symBinAddr: 0x3D040, symSize: 0x44 }
  - { offset: 0x1F5C06, size: 0x8, addend: 0x0, symName: __ZN22llm_graph_input_attn_k9can_reuseERK16llm_graph_params, symObjAddr: 0x215C, symBinAddr: 0x3D084, symSize: 0x70 }
  - { offset: 0x1F5C60, size: 0x8, addend: 0x0, symName: __ZN28llm_graph_input_attn_kv_iswa9set_inputEPK12llama_ubatch, symObjAddr: 0x21CC, symBinAddr: 0x3D0F4, symSize: 0xA8 }
  - { offset: 0x1F5C9A, size: 0x8, addend: 0x0, symName: __ZN28llm_graph_input_attn_kv_iswa9can_reuseERK16llm_graph_params, symObjAddr: 0x2274, symBinAddr: 0x3D19C, symSize: 0xE0 }
  - { offset: 0x1F5DCA, size: 0x8, addend: 0x0, symName: __ZN26llm_graph_input_attn_cross9set_inputEPK12llama_ubatch, symObjAddr: 0x2354, symBinAddr: 0x3D27C, symSize: 0x1E4 }
  - { offset: 0x1F5FE7, size: 0x8, addend: 0x0, symName: __ZN26llm_graph_input_mem_hybrid9set_inputEPK12llama_ubatch, symObjAddr: 0x2538, symBinAddr: 0x3D460, symSize: 0x100 }
  - { offset: 0x1F6032, size: 0x8, addend: 0x0, symName: __ZN26llm_graph_input_mem_hybrid9set_inputEPK12llama_ubatch, symObjAddr: 0x2538, symBinAddr: 0x3D460, symSize: 0x100 }
  - { offset: 0x1F6134, size: 0x8, addend: 0x0, symName: __ZN26llm_graph_input_mem_hybrid9can_reuseERK16llm_graph_params, symObjAddr: 0x2638, symBinAddr: 0x3D560, symSize: 0x13C }
  - { offset: 0x1F6147, size: 0x8, addend: 0x0, symName: __ZN26llm_graph_input_mem_hybrid9can_reuseERK16llm_graph_params, symObjAddr: 0x2638, symBinAddr: 0x3D560, symSize: 0x13C }
  - { offset: 0x1F6258, size: 0x8, addend: 0x0, symName: __ZN31llm_graph_input_mem_hybrid_iswa9set_inputEPK12llama_ubatch, symObjAddr: 0x2774, symBinAddr: 0x3D69C, symSize: 0x180 }
  - { offset: 0x1F63FB, size: 0x8, addend: 0x0, symName: __ZN31llm_graph_input_mem_hybrid_iswa9can_reuseERK16llm_graph_params, symObjAddr: 0x28F4, symBinAddr: 0x3D81C, symSize: 0x190 }
  - { offset: 0x1F640E, size: 0x8, addend: 0x0, symName: __ZN31llm_graph_input_mem_hybrid_iswa9can_reuseERK16llm_graph_params, symObjAddr: 0x28F4, symBinAddr: 0x3D81C, symSize: 0x190 }
  - { offset: 0x1F6E78, size: 0x8, addend: 0x0, symName: __ZN24llm_graph_input_sampling9set_inputEPK12llama_ubatch, symObjAddr: 0x2A84, symBinAddr: 0x3D9AC, symSize: 0x1FC }
  - { offset: 0x1F7728, size: 0x8, addend: 0x0, symName: __ZNSt3__112__hash_tableIiNS_4hashIiEENS_8equal_toIiEENS_9allocatorIiEEE25__emplace_unique_key_argsIiJRKiEEENS_4pairINS_15__hash_iteratorIPNS_11__hash_nodeIiPvEEEEbEERKT_DpOT0_, symObjAddr: 0xAC68, symBinAddr: 0x45818, symSize: 0x320 }
  - { offset: 0x1F7DA1, size: 0x8, addend: 0x0, symName: __ZNSt3__113unordered_setIiNS_4hashIiEENS_8equal_toIiEENS_9allocatorIiEEED1B8ne200100Ev, symObjAddr: 0x2C80, symBinAddr: 0x3DBA8, symSize: 0x48 }
  - { offset: 0x1F80F6, size: 0x8, addend: 0x0, symName: __ZN24llm_graph_input_sampling9can_reuseERK16llm_graph_params, symObjAddr: 0x2CC8, symBinAddr: 0x3DBF0, symSize: 0x150 }
  - { offset: 0x1F8132, size: 0x8, addend: 0x0, symName: __ZN24llm_graph_input_sampling9can_reuseERK16llm_graph_params, symObjAddr: 0x2CC8, symBinAddr: 0x3DBF0, symSize: 0x150 }
  - { offset: 0x1F8A18, size: 0x8, addend: 0x0, symName: __ZN16llm_graph_resultC2Ex, symObjAddr: 0x2E18, symBinAddr: 0x3DD40, symSize: 0x268 }
  - { offset: 0x1F91F8, size: 0x8, addend: 0x0, symName: __ZN16llm_graph_result5resetEv, symObjAddr: 0x3080, symBinAddr: 0x3DFA8, symSize: 0x59C }
  - { offset: 0x1FA077, size: 0x8, addend: 0x0, symName: __ZNSt3__16vectorINS_10unique_ptrI17llm_graph_input_iNS_14default_deleteIS2_EEEENS_9allocatorIS5_EEED1B8ne200100Ev, symObjAddr: 0x36F0, symBinAddr: 0x3E544, symSize: 0x74 }
  - { offset: 0x1FA297, size: 0x8, addend: 0x0, symName: __ZNSt3__16__treeINS_12__value_typeIiP11ggml_tensorEENS_19__map_value_compareIiS4_NS_4lessIiEELb1EEENS_9allocatorIS4_EEE7destroyEPNS_11__tree_nodeIS4_PvEE, symObjAddr: 0xB108, symBinAddr: 0x45CB8, symSize: 0x44 }
  - { offset: 0x1FAE7A, size: 0x8, addend: 0x0, symName: __ZNSt3__16vectorINS_10unique_ptrI17llm_graph_input_iNS_14default_deleteIS2_EEEENS_9allocatorIS5_EEE20__throw_length_errorB8ne200100Ev, symObjAddr: 0xB160, symBinAddr: 0x45CFC, symSize: 0x14 }
  - { offset: 0x1FAF33, size: 0x8, addend: 0x0, symName: __ZN16llm_graph_resultC1Ex, symObjAddr: 0x3764, symBinAddr: 0x3E5B8, symSize: 0x4 }
  - { offset: 0x1FAF70, size: 0x8, addend: 0x0, symName: __ZN16llm_graph_resultC1Ex, symObjAddr: 0x3764, symBinAddr: 0x3E5B8, symSize: 0x4 }
  - { offset: 0x1FAF8A, size: 0x8, addend: 0x0, symName: __ZNK16llm_graph_result13get_max_nodesEv, symObjAddr: 0x3768, symBinAddr: 0x3E5BC, symSize: 0x8 }
  - { offset: 0x1FAFE0, size: 0x8, addend: 0x0, symName: __ZN16llm_graph_result10set_inputsEPK12llama_ubatch, symObjAddr: 0x3770, symBinAddr: 0x3E5C4, symSize: 0x4C }
  - { offset: 0x1FB168, size: 0x8, addend: 0x0, symName: __ZN16llm_graph_result11set_outputsEv, symObjAddr: 0x37BC, symBinAddr: 0x3E610, symSize: 0x1A8 }
  - { offset: 0x1FB801, size: 0x8, addend: 0x0, symName: __ZN16llm_graph_result9can_reuseERK16llm_graph_params, symObjAddr: 0x3964, symBinAddr: 0x3E7B8, symSize: 0x150 }
  - { offset: 0x1FB999, size: 0x8, addend: 0x0, symName: __ZNK16llm_graph_params11allow_reuseERKS_, symObjAddr: 0x3AB4, symBinAddr: 0x3E908, symSize: 0x3A8 }
  - { offset: 0x1FC2C3, size: 0x8, addend: 0x0, symName: __ZN16llm_graph_result9add_inputENSt3__110unique_ptrI17llm_graph_input_iNS0_14default_deleteIS2_EEEE, symObjAddr: 0x3E5C, symBinAddr: 0x3ECB0, symSize: 0xF8 }
  - { offset: 0x1FC7C9, size: 0x8, addend: 0x0, symName: __ZN16llm_graph_result10set_paramsERK16llm_graph_params, symObjAddr: 0x3F54, symBinAddr: 0x3EDA8, symSize: 0x8 }
  - { offset: 0x1FC7D4, size: 0x8, addend: 0x0, symName: __ZNSt3__16vectorINS_10unique_ptrI17llm_graph_input_iNS_14default_deleteIS2_EEEENS_9allocatorIS5_EEE20__throw_length_errorB8ne200100Ev, symObjAddr: 0xB160, symBinAddr: 0x45CFC, symSize: 0x14 }
  - { offset: 0x1FC7F7, size: 0x8, addend: 0x0, symName: __ZN16llm_graph_result10set_paramsERK16llm_graph_params, symObjAddr: 0x3F54, symBinAddr: 0x3EDA8, symSize: 0x8 }
  - { offset: 0x1FC836, size: 0x8, addend: 0x0, symName: __ZN16llm_graph_paramsaSERKS_, symObjAddr: 0x3F5C, symBinAddr: 0x3EDB0, symSize: 0x1C8 }
  - { offset: 0x1FCE5C, size: 0x8, addend: 0x0, symName: __ZNSt3__16__treeINS_12__value_typeIiP13llama_samplerEENS_19__map_value_compareIiS4_NS_4lessIiEELb1EEENS_9allocatorIS4_EEE14__assign_multiINS_21__tree_const_iteratorIS4_PNS_11__tree_nodeIS4_PvEElEEEEvT_SJ_, symObjAddr: 0xA514, symBinAddr: 0x45314, symSize: 0x328 }
  - { offset: 0x1FD4E4, size: 0x8, addend: 0x0, symName: __ZNSt3__110__function12__value_funcIFvRK12llama_ubatchP11ggml_tensorPKciEE4swapB8ne200100ERSA_, symObjAddr: 0xAA10, symBinAddr: 0x4563C, symSize: 0x198 }
  - { offset: 0x1FE078, size: 0x8, addend: 0x0, symName: __ZN17llm_graph_contextC2ERK16llm_graph_params, symObjAddr: 0x4124, symBinAddr: 0x3EF78, symSize: 0x1DC }
  - { offset: 0x1FE50A, size: 0x8, addend: 0x0, symName: __ZN17llm_graph_contextC1ERK16llm_graph_params, symObjAddr: 0x4300, symBinAddr: 0x3F154, symSize: 0x4 }
  - { offset: 0x1FE547, size: 0x8, addend: 0x0, symName: __ZN17llm_graph_contextC1ERK16llm_graph_params, symObjAddr: 0x4300, symBinAddr: 0x3F154, symSize: 0x4 }
  - { offset: 0x1FE627, size: 0x8, addend: 0x0, symName: __ZNK17llm_graph_context2cbEP11ggml_tensorPKci, symObjAddr: 0x4304, symBinAddr: 0x3F158, symSize: 0x54 }
  - { offset: 0x1FE72E, size: 0x8, addend: 0x0, symName: __ZNK17llm_graph_context10build_cvecEP11ggml_tensori, symObjAddr: 0x4358, symBinAddr: 0x3F1AC, symSize: 0x18 }
  - { offset: 0x1FE7C0, size: 0x8, addend: 0x0, symName: __ZNK17llm_graph_context13build_lora_mmEP11ggml_tensorS1_, symObjAddr: 0x4370, symBinAddr: 0x3F1C4, symSize: 0xEC }
  - { offset: 0x1FE9A7, size: 0x8, addend: 0x0, symName: __ZNK17llm_graph_context16build_lora_mm_idEP11ggml_tensorS1_S1_, symObjAddr: 0x445C, symBinAddr: 0x3F2B0, symSize: 0x100 }
  - { offset: 0x1FEB97, size: 0x8, addend: 0x0, symName: __ZNK17llm_graph_context10build_normEP11ggml_tensorS1_S1_13llm_norm_typei, symObjAddr: 0x455C, symBinAddr: 0x3F3B0, symSize: 0x180 }
  - { offset: 0x1FEF46, size: 0x8, addend: 0x0, symName: __ZNK17llm_graph_context9build_ffnEP11ggml_tensorS1_S1_S1_S1_S1_S1_S1_S1_S1_S1_15llm_ffn_op_type17llm_ffn_gate_typei, symObjAddr: 0x46DC, symBinAddr: 0x3F530, symSize: 0x6BC }
  - { offset: 0x200072, size: 0x8, addend: 0x0, symName: __ZNK17llm_graph_context13build_moe_ffnEP11ggml_tensorS1_S1_S1_S1_S1_xx15llm_ffn_op_typebbf29llama_expert_gating_func_typeiS1_, symObjAddr: 0x4D98, symBinAddr: 0x3FBEC, symSize: 0x6C }
  - { offset: 0x2001B4, size: 0x8, addend: 0x0, symName: __ZNK17llm_graph_context13build_moe_ffnEP11ggml_tensorS1_S1_S1_S1_S1_xx15llm_ffn_op_typebbf29llama_expert_gating_func_typeiS1_, symObjAddr: 0x4D98, symBinAddr: 0x3FBEC, symSize: 0x6C }
  - { offset: 0x200312, size: 0x8, addend: 0x0, symName: __ZNK17llm_graph_context13build_moe_ffnEP11ggml_tensorS1_S1_S1_S1_S1_S1_S1_S1_S1_xx15llm_ffn_op_typebbf29llama_expert_gating_func_typeiS1_, symObjAddr: 0x4E04, symBinAddr: 0x3FC58, symSize: 0xE1C }
  - { offset: 0x2026CE, size: 0x8, addend: 0x0, symName: __ZNK17llm_graph_context14build_inp_embdEP11ggml_tensor, symObjAddr: 0x5C20, symBinAddr: 0x40A74, symSize: 0x40C }
  - { offset: 0x20297A, size: 0x8, addend: 0x0, symName: __ZNK17llm_graph_context14build_inp_embdEP11ggml_tensor, symObjAddr: 0x5C20, symBinAddr: 0x40A74, symSize: 0x40C }
  - { offset: 0x2034E7, size: 0x8, addend: 0x0, symName: __ZNK17llm_graph_context13build_inp_posEv, symObjAddr: 0x602C, symBinAddr: 0x40E80, symSize: 0x17C }
  - { offset: 0x203AC0, size: 0x8, addend: 0x0, symName: __ZNK17llm_graph_context20build_inp_attn_scaleEv, symObjAddr: 0x61A8, symBinAddr: 0x40FFC, symSize: 0x180 }
  - { offset: 0x2040E5, size: 0x8, addend: 0x0, symName: __ZNK17llm_graph_context17build_inp_out_idsEv, symObjAddr: 0x6328, symBinAddr: 0x4117C, symSize: 0x19C }
  - { offset: 0x2046A0, size: 0x8, addend: 0x0, symName: __ZNK17llm_graph_context14build_inp_meanEv, symObjAddr: 0x64C4, symBinAddr: 0x41318, symSize: 0x188 }
  - { offset: 0x204C4B, size: 0x8, addend: 0x0, symName: __ZNK17llm_graph_context13build_inp_clsEv, symObjAddr: 0x664C, symBinAddr: 0x414A0, symSize: 0x18C }
  - { offset: 0x2051F5, size: 0x8, addend: 0x0, symName: __ZNK17llm_graph_context20build_inp_cross_embdEv, symObjAddr: 0x67D8, symBinAddr: 0x4162C, symSize: 0x1A0 }
  - { offset: 0x2057E9, size: 0x8, addend: 0x0, symName: __ZNK17llm_graph_context24build_inp_pos_bucket_encEv, symObjAddr: 0x6978, symBinAddr: 0x417CC, symSize: 0x170 }
  - { offset: 0x205DA5, size: 0x8, addend: 0x0, symName: __ZNK17llm_graph_context24build_inp_pos_bucket_decEv, symObjAddr: 0x6AE8, symBinAddr: 0x4193C, symSize: 0x1A4 }
  - { offset: 0x20633C, size: 0x8, addend: 0x0, symName: __ZNK17llm_graph_context14build_pos_biasEP11ggml_tensorS1_, symObjAddr: 0x6C8C, symBinAddr: 0x41AE0, symSize: 0x118 }
  - { offset: 0x206646, size: 0x8, addend: 0x0, symName: __ZNK17llm_graph_context14build_attn_mhaEP11ggml_tensorS1_S1_S1_S1_S1_S1_fi, symObjAddr: 0x6DA4, symBinAddr: 0x41BF8, symSize: 0x6FC }
  - { offset: 0x2078B8, size: 0x8, addend: 0x0, symName: __ZNK17llm_graph_context23build_attn_inp_no_cacheEv, symObjAddr: 0x74A0, symBinAddr: 0x422F4, symSize: 0x254 }
  - { offset: 0x207EA6, size: 0x8, addend: 0x0, symName: __ZNK17llm_graph_context10build_attnEP29llm_graph_input_attn_no_cacheP11ggml_tensorS3_S3_S3_S3_S3_S3_S3_fi, symObjAddr: 0x76F4, symBinAddr: 0x42548, symSize: 0x150 }
  - { offset: 0x20820D, size: 0x8, addend: 0x0, symName: __ZNK17llm_graph_context17build_attn_inp_kvEv, symObjAddr: 0x7844, symBinAddr: 0x42698, symSize: 0x130 }
  - { offset: 0x208797, size: 0x8, addend: 0x0, symName: __ZL22build_attn_inp_kv_implP12ggml_contextRK12llama_ubatchRK13llama_hparamsRK13llama_cparamsPK22llama_kv_cache_context, symObjAddr: 0x7974, symBinAddr: 0x427C8, symSize: 0x1C0 }
  - { offset: 0x208BC7, size: 0x8, addend: 0x0, symName: __ZNK17llm_graph_context10build_attnEP23llm_graph_input_attn_kvP11ggml_tensorS3_S3_S3_S3_S3_S3_S3_fi, symObjAddr: 0x7B34, symBinAddr: 0x42988, symSize: 0x1EC }
  - { offset: 0x208F2C, size: 0x8, addend: 0x0, symName: __ZNK17llm_graph_context16build_attn_inp_kEv, symObjAddr: 0x7D20, symBinAddr: 0x42B74, symSize: 0x25C }
  - { offset: 0x20903C, size: 0x8, addend: 0x0, symName: __ZNK17llm_graph_context16build_attn_inp_kEv, symObjAddr: 0x7D20, symBinAddr: 0x42B74, symSize: 0x25C }
  - { offset: 0x209685, size: 0x8, addend: 0x0, symName: __ZNK17llm_graph_context10build_attnEP22llm_graph_input_attn_kP11ggml_tensorS3_S3_S3_S3_S3_S3_S3_fi, symObjAddr: 0x7F7C, symBinAddr: 0x42DD0, symSize: 0x1B0 }
  - { offset: 0x2099E4, size: 0x8, addend: 0x0, symName: __ZNK17llm_graph_context10build_attnEP28llm_graph_input_attn_kv_iswaP11ggml_tensorS3_S3_S3_S3_S3_S3_S3_fi, symObjAddr: 0x812C, symBinAddr: 0x42F80, symSize: 0x274 }
  - { offset: 0x209D6A, size: 0x8, addend: 0x0, symName: __ZNK17llm_graph_context20build_attn_inp_crossEv, symObjAddr: 0x83A0, symBinAddr: 0x431F4, symSize: 0x1C8 }
  - { offset: 0x20A34A, size: 0x8, addend: 0x0, symName: __ZNK17llm_graph_context10build_attnEP26llm_graph_input_attn_crossP11ggml_tensorS3_S3_S3_S3_S3_S3_S3_fi, symObjAddr: 0x8568, symBinAddr: 0x433BC, symSize: 0x134 }
  - { offset: 0x20A6A6, size: 0x8, addend: 0x0, symName: __ZNK17llm_graph_context22build_attn_inp_kv_iswaEv, symObjAddr: 0x869C, symBinAddr: 0x434F0, symSize: 0x350 }
  - { offset: 0x20ADB7, size: 0x8, addend: 0x0, symName: __ZNK17llm_graph_context8build_rsEP11ggml_tensorS1_S1_iijjjiRKNSt3__18functionIFS1_P12ggml_contextS1_S1_EEE, symObjAddr: 0x89EC, symBinAddr: 0x43840, symSize: 0x168 }
  - { offset: 0x20B01F, size: 0x8, addend: 0x0, symName: __ZNK17llm_graph_context12build_rs_inpEv, symObjAddr: 0x8B54, symBinAddr: 0x439A8, symSize: 0x12C }
  - { offset: 0x20B120, size: 0x8, addend: 0x0, symName: __ZNK17llm_graph_context12build_rs_inpEv, symObjAddr: 0x8B54, symBinAddr: 0x439A8, symSize: 0x12C }
  - { offset: 0x20B6AA, size: 0x8, addend: 0x0, symName: __ZL17build_rs_inp_implP12ggml_contextRK12llama_ubatchPK30llama_memory_recurrent_context, symObjAddr: 0x8C80, symBinAddr: 0x43AD4, symSize: 0x108 }
  - { offset: 0x20BA3E, size: 0x8, addend: 0x0, symName: __ZNK17llm_graph_context8build_rsEP18llm_graph_input_rsP11ggml_tensoriiRKNSt3__18functionIFS3_P12ggml_contextS3_S3_EEE, symObjAddr: 0x8D88, symBinAddr: 0x43BDC, symSize: 0xB4 }
  - { offset: 0x20BDD9, size: 0x8, addend: 0x0, symName: __ZNK17llm_graph_context27build_rwkv_token_shift_loadEP18llm_graph_input_rsRK12llama_ubatchi, symObjAddr: 0x8E3C, symBinAddr: 0x43C90, symSize: 0x1C8 }
  - { offset: 0x20C155, size: 0x8, addend: 0x0, symName: __ZNK17llm_graph_context28build_rwkv_token_shift_storeEP11ggml_tensorRK12llama_ubatchi, symObjAddr: 0x9004, symBinAddr: 0x43E58, symSize: 0xE0 }
  - { offset: 0x20C380, size: 0x8, addend: 0x0, symName: __ZNK17llm_graph_context20build_inp_mem_hybridEv, symObjAddr: 0x90E4, symBinAddr: 0x43F38, symSize: 0x214 }
  - { offset: 0x20CD41, size: 0x8, addend: 0x0, symName: __ZNK17llm_graph_context25build_inp_mem_hybrid_iswaEv, symObjAddr: 0x92F8, symBinAddr: 0x4414C, symSize: 0x3A8 }
  - { offset: 0x20D6B6, size: 0x8, addend: 0x0, symName: __ZNK17llm_graph_context15build_dense_outEP11ggml_tensorS1_, symObjAddr: 0x96A0, symBinAddr: 0x444F4, symSize: 0x114 }
  - { offset: 0x20D83F, size: 0x8, addend: 0x0, symName: __ZNK17llm_graph_context13build_poolingEP11ggml_tensorS1_S1_S1_, symObjAddr: 0x97B4, symBinAddr: 0x44608, symSize: 0x210 }
  - { offset: 0x20D852, size: 0x8, addend: 0x0, symName: __ZNK17llm_graph_context13build_poolingEP11ggml_tensorS1_S1_S1_, symObjAddr: 0x97B4, symBinAddr: 0x44608, symSize: 0x210 }
  - { offset: 0x20DB85, size: 0x8, addend: 0x0, symName: __ZNK17llm_graph_context14build_samplingEv, symObjAddr: 0x99C4, symBinAddr: 0x44818, symSize: 0x718 }
  - { offset: 0x20E6F7, size: 0x8, addend: 0x0, symName: __ZNK17llm_graph_context14build_samplingEv, symObjAddr: 0x99C4, symBinAddr: 0x44818, symSize: 0x718 }
  - { offset: 0x21027E, size: 0x8, addend: 0x0, symName: __ZNSt3__16__treeINS_12__value_typeIiiEENS_19__map_value_compareIiS2_NS_4lessIiEELb1EEENS_9allocatorIS2_EEE7destroyEPNS_11__tree_nodeIS2_PvEE, symObjAddr: 0xABB0, symBinAddr: 0x457D4, symSize: 0x44 }
  - { offset: 0x2104DD, size: 0x8, addend: 0x0, symName: __ZN20llm_graph_input_embdD1Ev, symObjAddr: 0xA1D0, symBinAddr: 0x45024, symSize: 0x4 }
  - { offset: 0x210506, size: 0x8, addend: 0x0, symName: __ZN20llm_graph_input_embdD0Ev, symObjAddr: 0xA1D4, symBinAddr: 0x45028, symSize: 0x4 }
  - { offset: 0x21052F, size: 0x8, addend: 0x0, symName: __ZN19llm_graph_input_posD1Ev, symObjAddr: 0xA1D8, symBinAddr: 0x4502C, symSize: 0x4 }
  - { offset: 0x210558, size: 0x8, addend: 0x0, symName: __ZN19llm_graph_input_posD0Ev, symObjAddr: 0xA1DC, symBinAddr: 0x45030, symSize: 0x4 }
  - { offset: 0x210581, size: 0x8, addend: 0x0, symName: __ZN25llm_graph_input_attn_tempD1Ev, symObjAddr: 0xA1E0, symBinAddr: 0x45034, symSize: 0x4 }
  - { offset: 0x2105AA, size: 0x8, addend: 0x0, symName: __ZN25llm_graph_input_attn_tempD0Ev, symObjAddr: 0xA1E4, symBinAddr: 0x45038, symSize: 0x4 }
  - { offset: 0x2105D3, size: 0x8, addend: 0x0, symName: __ZN17llm_graph_input_i9can_reuseERK16llm_graph_params, symObjAddr: 0xA1E8, symBinAddr: 0x4503C, symSize: 0x8 }
  - { offset: 0x210608, size: 0x8, addend: 0x0, symName: __ZN26llm_graph_input_pos_bucketD1Ev, symObjAddr: 0xA1F0, symBinAddr: 0x45044, symSize: 0x4 }
  - { offset: 0x210631, size: 0x8, addend: 0x0, symName: __ZN26llm_graph_input_pos_bucketD0Ev, symObjAddr: 0xA1F4, symBinAddr: 0x45048, symSize: 0x4 }
  - { offset: 0x21065A, size: 0x8, addend: 0x0, symName: __ZN29llm_graph_input_pos_bucket_kvD1Ev, symObjAddr: 0xA1F8, symBinAddr: 0x4504C, symSize: 0x4 }
  - { offset: 0x210683, size: 0x8, addend: 0x0, symName: __ZN29llm_graph_input_pos_bucket_kvD0Ev, symObjAddr: 0xA1FC, symBinAddr: 0x45050, symSize: 0x4 }
  - { offset: 0x2106AC, size: 0x8, addend: 0x0, symName: __ZN23llm_graph_input_out_idsD1Ev, symObjAddr: 0xA200, symBinAddr: 0x45054, symSize: 0x4 }
  - { offset: 0x2106D5, size: 0x8, addend: 0x0, symName: __ZN23llm_graph_input_out_idsD0Ev, symObjAddr: 0xA204, symBinAddr: 0x45058, symSize: 0x4 }
  - { offset: 0x2106FE, size: 0x8, addend: 0x0, symName: __ZN20llm_graph_input_meanD1Ev, symObjAddr: 0xA208, symBinAddr: 0x4505C, symSize: 0x4 }
  - { offset: 0x210727, size: 0x8, addend: 0x0, symName: __ZN20llm_graph_input_meanD0Ev, symObjAddr: 0xA20C, symBinAddr: 0x45060, symSize: 0x4 }
  - { offset: 0x210750, size: 0x8, addend: 0x0, symName: __ZN19llm_graph_input_clsD1Ev, symObjAddr: 0xA210, symBinAddr: 0x45064, symSize: 0x4 }
  - { offset: 0x210779, size: 0x8, addend: 0x0, symName: __ZN19llm_graph_input_clsD0Ev, symObjAddr: 0xA214, symBinAddr: 0x45068, symSize: 0x4 }
  - { offset: 0x2107A2, size: 0x8, addend: 0x0, symName: __ZN18llm_graph_input_rsD1Ev, symObjAddr: 0xA218, symBinAddr: 0x4506C, symSize: 0x4 }
  - { offset: 0x2107CB, size: 0x8, addend: 0x0, symName: __ZN18llm_graph_input_rsD0Ev, symObjAddr: 0xA21C, symBinAddr: 0x45070, symSize: 0x4 }
  - { offset: 0x2107F4, size: 0x8, addend: 0x0, symName: __ZN26llm_graph_input_cross_embdD1Ev, symObjAddr: 0xA220, symBinAddr: 0x45074, symSize: 0x4 }
  - { offset: 0x21081D, size: 0x8, addend: 0x0, symName: __ZN26llm_graph_input_cross_embdD0Ev, symObjAddr: 0xA224, symBinAddr: 0x45078, symSize: 0x4 }
  - { offset: 0x210846, size: 0x8, addend: 0x0, symName: __ZN29llm_graph_input_attn_no_cacheD1Ev, symObjAddr: 0xA228, symBinAddr: 0x4507C, symSize: 0x4 }
  - { offset: 0x21086F, size: 0x8, addend: 0x0, symName: __ZN29llm_graph_input_attn_no_cacheD0Ev, symObjAddr: 0xA22C, symBinAddr: 0x45080, symSize: 0x4 }
  - { offset: 0x210898, size: 0x8, addend: 0x0, symName: __ZN23llm_graph_input_attn_kvD1Ev, symObjAddr: 0xA230, symBinAddr: 0x45084, symSize: 0x4 }
  - { offset: 0x2108C1, size: 0x8, addend: 0x0, symName: __ZN23llm_graph_input_attn_kvD0Ev, symObjAddr: 0xA234, symBinAddr: 0x45088, symSize: 0x4 }
  - { offset: 0x2108EA, size: 0x8, addend: 0x0, symName: __ZN22llm_graph_input_attn_kD1Ev, symObjAddr: 0xA238, symBinAddr: 0x4508C, symSize: 0x4 }
  - { offset: 0x210913, size: 0x8, addend: 0x0, symName: __ZN22llm_graph_input_attn_kD0Ev, symObjAddr: 0xA23C, symBinAddr: 0x45090, symSize: 0x4 }
  - { offset: 0x21093C, size: 0x8, addend: 0x0, symName: __ZN28llm_graph_input_attn_kv_iswaD1Ev, symObjAddr: 0xA240, symBinAddr: 0x45094, symSize: 0x4 }
  - { offset: 0x210965, size: 0x8, addend: 0x0, symName: __ZN28llm_graph_input_attn_kv_iswaD0Ev, symObjAddr: 0xA244, symBinAddr: 0x45098, symSize: 0x4 }
  - { offset: 0x21098E, size: 0x8, addend: 0x0, symName: __ZN26llm_graph_input_attn_crossD1Ev, symObjAddr: 0xA248, symBinAddr: 0x4509C, symSize: 0x4 }
  - { offset: 0x2109B7, size: 0x8, addend: 0x0, symName: __ZN26llm_graph_input_attn_crossD0Ev, symObjAddr: 0xA24C, symBinAddr: 0x450A0, symSize: 0x4 }
  - { offset: 0x2109FA, size: 0x8, addend: 0x0, symName: __ZN26llm_graph_input_mem_hybridD1Ev, symObjAddr: 0xA250, symBinAddr: 0x450A4, symSize: 0x5C }
  - { offset: 0x210B91, size: 0x8, addend: 0x0, symName: __ZN26llm_graph_input_mem_hybridD0Ev, symObjAddr: 0xA2AC, symBinAddr: 0x45100, symSize: 0x5C }
  - { offset: 0x210D4E, size: 0x8, addend: 0x0, symName: __ZN31llm_graph_input_mem_hybrid_iswaD1Ev, symObjAddr: 0xA308, symBinAddr: 0x4515C, symSize: 0x5C }
  - { offset: 0x210EE5, size: 0x8, addend: 0x0, symName: __ZN31llm_graph_input_mem_hybrid_iswaD0Ev, symObjAddr: 0xA364, symBinAddr: 0x451B8, symSize: 0x5C }
  - { offset: 0x2110A2, size: 0x8, addend: 0x0, symName: __ZN24llm_graph_input_samplingD1Ev, symObjAddr: 0xA3C0, symBinAddr: 0x45214, symSize: 0x38 }
  - { offset: 0x211156, size: 0x8, addend: 0x0, symName: __ZN24llm_graph_input_samplingD0Ev, symObjAddr: 0xA3F8, symBinAddr: 0x4524C, symSize: 0x38 }
  - { offset: 0x211216, size: 0x8, addend: 0x0, symName: __ZN16llm_graph_resultD1Ev, symObjAddr: 0xA430, symBinAddr: 0x45284, symSize: 0x4 }
  - { offset: 0x211239, size: 0x8, addend: 0x0, symName: __ZN16llm_graph_resultD1Ev, symObjAddr: 0xA430, symBinAddr: 0x45284, symSize: 0x4 }
  - { offset: 0x21124C, size: 0x8, addend: 0x0, symName: __ZN16llm_graph_resultD2Ev, symObjAddr: 0xB558, symBinAddr: 0x45E50, symSize: 0x148 }
  - { offset: 0x2119E7, size: 0x8, addend: 0x0, symName: __ZN16llm_graph_resultD0Ev, symObjAddr: 0xA434, symBinAddr: 0x45288, symSize: 0x14 }
  - { offset: 0x211A62, size: 0x8, addend: 0x0, symName: __ZN17llm_graph_contextD1Ev, symObjAddr: 0xA448, symBinAddr: 0x4529C, symSize: 0x3C }
  - { offset: 0x211B16, size: 0x8, addend: 0x0, symName: __ZN17llm_graph_contextD0Ev, symObjAddr: 0xA484, symBinAddr: 0x452D8, symSize: 0x3C }
  - { offset: 0x211F85, size: 0x8, addend: 0x0, symName: __ZN17llm_graph_input_iD1Ev, symObjAddr: 0xABA8, symBinAddr: 0x25DB9C, symSize: 0x4 }
  - { offset: 0x211FAE, size: 0x8, addend: 0x0, symName: __ZN17llm_graph_input_iD0Ev, symObjAddr: 0xABAC, symBinAddr: 0x25DBA0, symSize: 0x4 }
  - { offset: 0x2123DA, size: 0x8, addend: 0x0, symName: __ZNSt3__112__hash_tableIiNS_4hashIiEENS_8equal_toIiEENS_9allocatorIiEEE11__do_rehashILb1EEEvm, symObjAddr: 0xAF88, symBinAddr: 0x45B38, symSize: 0x180 }
  - { offset: 0x212767, size: 0x8, addend: 0x0, symName: __ZNSt3__16__treeINS_12__value_typeIiP11ggml_tensorEENS_19__map_value_compareIiS4_NS_4lessIiEELb1EEENS_9allocatorIS4_EEE7destroyEPNS_11__tree_nodeIS4_PvEE, symObjAddr: 0xB108, symBinAddr: 0x45CB8, symSize: 0x44 }
  - { offset: 0x212CA2, size: 0x8, addend: 0x0, symName: __ZNSt3__117bad_function_callD1Ev, symObjAddr: 0xB44C, symBinAddr: 0x45D44, symSize: 0x4 }
  - { offset: 0x212CC4, size: 0x8, addend: 0x0, symName: __ZNSt3__117bad_function_callD1Ev, symObjAddr: 0xB44C, symBinAddr: 0x45D44, symSize: 0x4 }
  - { offset: 0x212CF8, size: 0x8, addend: 0x0, symName: __ZNSt3__117bad_function_callD0Ev, symObjAddr: 0xB450, symBinAddr: 0x45D48, symSize: 0x14 }
  - { offset: 0x212D59, size: 0x8, addend: 0x0, symName: __ZNSt3__110__function6__funcIPFP11ggml_tensorP12ggml_contextS3_S3_ENS_9allocatorIS7_EES6_ED1Ev, symObjAddr: 0xB464, symBinAddr: 0x45D5C, symSize: 0x4 }
  - { offset: 0x212D85, size: 0x8, addend: 0x0, symName: __ZNSt3__110__function6__funcIPFP11ggml_tensorP12ggml_contextS3_S3_ENS_9allocatorIS7_EES6_ED0Ev, symObjAddr: 0xB468, symBinAddr: 0x45D60, symSize: 0x4 }
  - { offset: 0x212E9C, size: 0x8, addend: 0x0, symName: __ZNKSt3__110__function6__funcIPFP11ggml_tensorP12ggml_contextS3_S3_ENS_9allocatorIS7_EES6_E7__cloneEv, symObjAddr: 0xB46C, symBinAddr: 0x45D64, symSize: 0x38 }
  - { offset: 0x21309B, size: 0x8, addend: 0x0, symName: __ZNKSt3__110__function6__funcIPFP11ggml_tensorP12ggml_contextS3_S3_ENS_9allocatorIS7_EES6_E7__cloneEPNS0_6__baseIS6_EE, symObjAddr: 0xB4A4, symBinAddr: 0x45D9C, symSize: 0x18 }
  - { offset: 0x2130D0, size: 0x8, addend: 0x0, symName: __ZNKSt3__110__function6__funcIPFP11ggml_tensorP12ggml_contextS3_S3_ENS_9allocatorIS7_EES6_E7__cloneEPNS0_6__baseIS6_EE, symObjAddr: 0xB4A4, symBinAddr: 0x45D9C, symSize: 0x18 }
  - { offset: 0x2130FE, size: 0x8, addend: 0x0, symName: __ZNKSt3__110__function6__funcIPFP11ggml_tensorP12ggml_contextS3_S3_ENS_9allocatorIS7_EES6_E7__cloneEPNS0_6__baseIS6_EE, symObjAddr: 0xB4A4, symBinAddr: 0x45D9C, symSize: 0x18 }
  - { offset: 0x213157, size: 0x8, addend: 0x0, symName: __ZNSt3__110__function6__funcIPFP11ggml_tensorP12ggml_contextS3_S3_ENS_9allocatorIS7_EES6_E7destroyEv, symObjAddr: 0xB4BC, symBinAddr: 0x45DB4, symSize: 0x4 }
  - { offset: 0x2131AE, size: 0x8, addend: 0x0, symName: __ZNSt3__110__function6__funcIPFP11ggml_tensorP12ggml_contextS3_S3_ENS_9allocatorIS7_EES6_E18destroy_deallocateEv, symObjAddr: 0xB4C0, symBinAddr: 0x45DB8, symSize: 0x4 }
  - { offset: 0x2131E1, size: 0x8, addend: 0x0, symName: __ZNSt3__110__function6__funcIPFP11ggml_tensorP12ggml_contextS3_S3_ENS_9allocatorIS7_EES6_E18destroy_deallocateEv, symObjAddr: 0xB4C0, symBinAddr: 0x45DB8, symSize: 0x4 }
  - { offset: 0x213204, size: 0x8, addend: 0x0, symName: __ZNSt3__110__function6__funcIPFP11ggml_tensorP12ggml_contextS3_S3_ENS_9allocatorIS7_EES6_E18destroy_deallocateEv, symObjAddr: 0xB4C0, symBinAddr: 0x45DB8, symSize: 0x4 }
  - { offset: 0x213237, size: 0x8, addend: 0x0, symName: __ZNSt3__110__function6__funcIPFP11ggml_tensorP12ggml_contextS3_S3_ENS_9allocatorIS7_EES6_E18destroy_deallocateEv, symObjAddr: 0xB4C0, symBinAddr: 0x45DB8, symSize: 0x4 }
  - { offset: 0x2132E4, size: 0x8, addend: 0x0, symName: __ZNSt3__110__function6__funcIPFP11ggml_tensorP12ggml_contextS3_S3_ENS_9allocatorIS7_EES6_EclEOS5_OS3_SC_, symObjAddr: 0xB4C4, symBinAddr: 0x45DBC, symSize: 0x14 }
  - { offset: 0x21333B, size: 0x8, addend: 0x0, symName: __ZNSt3__110__function6__funcIPFP11ggml_tensorP12ggml_contextS3_S3_ENS_9allocatorIS7_EES6_EclEOS5_OS3_SC_, symObjAddr: 0xB4C4, symBinAddr: 0x45DBC, symSize: 0x14 }
  - { offset: 0x213372, size: 0x8, addend: 0x0, symName: __ZNSt3__110__function6__funcIPFP11ggml_tensorP12ggml_contextS3_S3_ENS_9allocatorIS7_EES6_EclEOS5_OS3_SC_, symObjAddr: 0xB4C4, symBinAddr: 0x45DBC, symSize: 0x14 }
  - { offset: 0x2133A8, size: 0x8, addend: 0x0, symName: __ZNSt3__110__function6__funcIPFP11ggml_tensorP12ggml_contextS3_S3_ENS_9allocatorIS7_EES6_EclEOS5_OS3_SC_, symObjAddr: 0xB4C4, symBinAddr: 0x45DBC, symSize: 0x14 }
  - { offset: 0x2133DF, size: 0x8, addend: 0x0, symName: __ZNSt3__110__function6__funcIPFP11ggml_tensorP12ggml_contextS3_S3_ENS_9allocatorIS7_EES6_EclEOS5_OS3_SC_, symObjAddr: 0xB4C4, symBinAddr: 0x45DBC, symSize: 0x14 }
  - { offset: 0x21347C, size: 0x8, addend: 0x0, symName: __ZNKSt3__110__function6__funcIPFP11ggml_tensorP12ggml_contextS3_S3_ENS_9allocatorIS7_EES6_E6targetERKSt9type_info, symObjAddr: 0xB4D8, symBinAddr: 0x45DD0, symSize: 0x74 }
  - { offset: 0x213541, size: 0x8, addend: 0x0, symName: __ZNKSt3__110__function6__funcIPFP11ggml_tensorP12ggml_contextS3_S3_ENS_9allocatorIS7_EES6_E11target_typeEv, symObjAddr: 0xB54C, symBinAddr: 0x45E44, symSize: 0xC }
  - { offset: 0x2154FF, size: 0x8, addend: 0x0, symName: __ZN13llama_hparams15set_swa_patternEjb, symObjAddr: 0x0, symBinAddr: 0x45F98, symSize: 0x1C8 }
  - { offset: 0x2176A4, size: 0x8, addend: 0x0, symName: __ZN13llama_hparams15set_swa_patternEjb, symObjAddr: 0x0, symBinAddr: 0x45F98, symSize: 0x1C8 }
  - { offset: 0x217717, size: 0x8, addend: 0x0, symName: __ZNK13llama_hparams10is_swa_anyEv, symObjAddr: 0x1C8, symBinAddr: 0x46160, symSize: 0x50 }
  - { offset: 0x217756, size: 0x8, addend: 0x0, symName: __ZNK13llama_hparams6n_headEj, symObjAddr: 0x218, symBinAddr: 0x461B0, symSize: 0x38 }
  - { offset: 0x217783, size: 0x8, addend: 0x0, symName: __ZNK13llama_hparams9n_head_kvEj, symObjAddr: 0x250, symBinAddr: 0x461E8, symSize: 0x38 }
  - { offset: 0x2177B5, size: 0x8, addend: 0x0, symName: __ZNK13llama_hparams9n_head_kvEj, symObjAddr: 0x250, symBinAddr: 0x461E8, symSize: 0x38 }
  - { offset: 0x2177E2, size: 0x8, addend: 0x0, symName: __ZNK13llama_hparams4n_ffEj, symObjAddr: 0x288, symBinAddr: 0x46220, symSize: 0x38 }
  - { offset: 0x2177F4, size: 0x8, addend: 0x0, symName: __ZNK13llama_hparams4n_ffEj, symObjAddr: 0x288, symBinAddr: 0x46220, symSize: 0x38 }
  - { offset: 0x21782E, size: 0x8, addend: 0x0, symName: __ZNK13llama_hparams5n_gqaEj, symObjAddr: 0x2C0, symBinAddr: 0x46258, symSize: 0x54 }
  - { offset: 0x21788C, size: 0x8, addend: 0x0, symName: __ZNK13llama_hparams5n_gqaEj, symObjAddr: 0x2C0, symBinAddr: 0x46258, symSize: 0x54 }
  - { offset: 0x217928, size: 0x8, addend: 0x0, symName: __ZNK13llama_hparams10n_embd_inpEv, symObjAddr: 0x314, symBinAddr: 0x462AC, symSize: 0x14 }
  - { offset: 0x21793A, size: 0x8, addend: 0x0, symName: __ZNK13llama_hparams10n_embd_inpEv, symObjAddr: 0x314, symBinAddr: 0x462AC, symSize: 0x14 }
  - { offset: 0x217973, size: 0x8, addend: 0x0, symName: __ZNK13llama_hparams10n_embd_outEv, symObjAddr: 0x328, symBinAddr: 0x462C0, symSize: 0x18 }
  - { offset: 0x21799C, size: 0x8, addend: 0x0, symName: __ZNK13llama_hparams12n_embd_k_gqaEj, symObjAddr: 0x340, symBinAddr: 0x462D8, symSize: 0x40 }
  - { offset: 0x2179F1, size: 0x8, addend: 0x0, symName: __ZNK13llama_hparams12n_embd_v_gqaEj, symObjAddr: 0x380, symBinAddr: 0x46318, symSize: 0x40 }
  - { offset: 0x217A03, size: 0x8, addend: 0x0, symName: __ZNK13llama_hparams12n_embd_v_gqaEj, symObjAddr: 0x380, symBinAddr: 0x46318, symSize: 0x40 }
  - { offset: 0x217A58, size: 0x8, addend: 0x0, symName: __ZNK13llama_hparams24is_n_embd_k_gqa_variableEv, symObjAddr: 0x3C0, symBinAddr: 0x46358, symSize: 0x6C }
  - { offset: 0x217A9D, size: 0x8, addend: 0x0, symName: __ZNK13llama_hparams24is_n_embd_k_gqa_variableEv, symObjAddr: 0x3C0, symBinAddr: 0x46358, symSize: 0x6C }
  - { offset: 0x217B7F, size: 0x8, addend: 0x0, symName: __ZNK13llama_hparams24is_n_embd_v_gqa_variableEv, symObjAddr: 0x42C, symBinAddr: 0x463C4, symSize: 0x6C }
  - { offset: 0x217BBF, size: 0x8, addend: 0x0, symName: __ZNK13llama_hparams24is_n_embd_v_gqa_variableEv, symObjAddr: 0x42C, symBinAddr: 0x463C4, symSize: 0x6C }
  - { offset: 0x217CA1, size: 0x8, addend: 0x0, symName: __ZNK13llama_hparams16n_embd_k_gqa_maxEv, symObjAddr: 0x498, symBinAddr: 0x46430, symSize: 0x138 }
  - { offset: 0x217CB3, size: 0x8, addend: 0x0, symName: __ZNK13llama_hparams16n_embd_k_gqa_maxEv, symObjAddr: 0x498, symBinAddr: 0x46430, symSize: 0x138 }
  - { offset: 0x217D77, size: 0x8, addend: 0x0, symName: __ZNK13llama_hparams16n_embd_v_gqa_maxEv, symObjAddr: 0x5D0, symBinAddr: 0x46568, symSize: 0x138 }
  - { offset: 0x217D89, size: 0x8, addend: 0x0, symName: __ZNK13llama_hparams16n_embd_v_gqa_maxEv, symObjAddr: 0x5D0, symBinAddr: 0x46568, symSize: 0x138 }
  - { offset: 0x217E4D, size: 0x8, addend: 0x0, symName: __ZNK13llama_hparams8n_embd_rEv, symObjAddr: 0x708, symBinAddr: 0x466A0, symSize: 0x58 }
  - { offset: 0x217E5F, size: 0x8, addend: 0x0, symName: __ZNK13llama_hparams8n_embd_rEv, symObjAddr: 0x708, symBinAddr: 0x466A0, symSize: 0x58 }
  - { offset: 0x217E88, size: 0x8, addend: 0x0, symName: __ZNK13llama_hparams8n_embd_sEv, symObjAddr: 0x760, symBinAddr: 0x466F8, symSize: 0x2C }
  - { offset: 0x217EB1, size: 0x8, addend: 0x0, symName: __ZNK13llama_hparams12is_recurrentEj, symObjAddr: 0x78C, symBinAddr: 0x46724, symSize: 0x50 }
  - { offset: 0x217EEB, size: 0x8, addend: 0x0, symName: __ZNK13llama_hparams14n_pos_per_embdEv, symObjAddr: 0x7DC, symBinAddr: 0x46774, symSize: 0x1C }
  - { offset: 0x217EFE, size: 0x8, addend: 0x0, symName: __ZNK13llama_hparams14n_pos_per_embdEv, symObjAddr: 0x7DC, symBinAddr: 0x46774, symSize: 0x1C }
  - { offset: 0x217F27, size: 0x8, addend: 0x0, symName: __ZNK13llama_hparams6is_swaEj, symObjAddr: 0x7F8, symBinAddr: 0x46790, symSize: 0x40 }
  - { offset: 0x217F61, size: 0x8, addend: 0x0, symName: __ZNK13llama_hparams6is_mlaEv, symObjAddr: 0x838, symBinAddr: 0x467D0, symSize: 0x20 }
  - { offset: 0x217F74, size: 0x8, addend: 0x0, symName: __ZNK13llama_hparams6is_mlaEv, symObjAddr: 0x838, symBinAddr: 0x467D0, symSize: 0x20 }
  - { offset: 0x217FAE, size: 0x8, addend: 0x0, symName: __ZNK13llama_hparams17n_embd_head_k_mlaEv, symObjAddr: 0x858, symBinAddr: 0x467F0, symSize: 0x30 }
  - { offset: 0x217FD9, size: 0x8, addend: 0x0, symName: __ZNK13llama_hparams17n_embd_head_k_mlaEv, symObjAddr: 0x858, symBinAddr: 0x467F0, symSize: 0x30 }
  - { offset: 0x217FF3, size: 0x8, addend: 0x0, symName: __ZNK13llama_hparams17n_embd_head_v_mlaEv, symObjAddr: 0x888, symBinAddr: 0x46820, symSize: 0x30 }
  - { offset: 0x21801E, size: 0x8, addend: 0x0, symName: __ZNK13llama_hparams17n_embd_head_v_mlaEv, symObjAddr: 0x888, symBinAddr: 0x46820, symSize: 0x30 }
  - { offset: 0x218038, size: 0x8, addend: 0x0, symName: __ZNK13llama_hparams6has_kvEj, symObjAddr: 0x8B8, symBinAddr: 0x46850, symSize: 0x14 }
  - { offset: 0x218084, size: 0x8, addend: 0x0, symName: __ZNK13llama_hparams10n_layer_kvEv, symObjAddr: 0x8CC, symBinAddr: 0x46864, symSize: 0x19C }
  - { offset: 0x2180E9, size: 0x8, addend: 0x0, symName: __ZNK13llama_hparams9use_mropeEv, symObjAddr: 0xA68, symBinAddr: 0x46A00, symSize: 0x24 }
  - { offset: 0x21A03F, size: 0x8, addend: 0x0, symName: __ZL14g_logger_state.0, symObjAddr: 0x17D8, symBinAddr: 0x2D02A8, symSize: 0x0 }
  - { offset: 0x21A04A, size: 0x8, addend: 0x0, symName: __ZL14g_logger_state.1, symObjAddr: 0x2DF38, symBinAddr: 0x35C0A8, symSize: 0x0 }
  - { offset: 0x221233, size: 0x8, addend: 0x0, symName: __ZN9time_measC2ERxb, symObjAddr: 0x0, symBinAddr: 0x46A24, symSize: 0x48 }
  - { offset: 0x2212BA, size: 0x8, addend: 0x0, symName: __ZN9time_measC1ERxb, symObjAddr: 0x48, symBinAddr: 0x46A6C, symSize: 0x48 }
  - { offset: 0x22133B, size: 0x8, addend: 0x0, symName: __ZN9time_measD2Ev, symObjAddr: 0x90, symBinAddr: 0x46AB4, symSize: 0x44 }
  - { offset: 0x221387, size: 0x8, addend: 0x0, symName: __ZN9time_measD1Ev, symObjAddr: 0xE4, symBinAddr: 0x46AF8, symSize: 0x44 }
  - { offset: 0x2213D8, size: 0x8, addend: 0x0, symName: _llama_log_get, symObjAddr: 0x128, symBinAddr: 0x46B3C, symSize: 0x4 }
  - { offset: 0x22140E, size: 0x8, addend: 0x0, symName: _llama_log_get, symObjAddr: 0x128, symBinAddr: 0x46B3C, symSize: 0x4 }
  - { offset: 0x221441, size: 0x8, addend: 0x0, symName: _llama_log_set, symObjAddr: 0x12C, symBinAddr: 0x46B40, symSize: 0x44 }
  - { offset: 0x2214A5, size: 0x8, addend: 0x0, symName: __Z26llama_log_callback_default14ggml_log_levelPKcPv, symObjAddr: 0x170, symBinAddr: 0x46B84, symSize: 0x30 }
  - { offset: 0x22173D, size: 0x8, addend: 0x0, symName: __Z18llama_log_internal14ggml_log_levelPKcz, symObjAddr: 0x1A0, symBinAddr: 0x46BB4, symSize: 0xF8 }
  - { offset: 0x221AF9, size: 0x8, addend: 0x0, symName: __Z11replace_allRNSt3__112basic_stringIcNS_11char_traitsIcEENS_9allocatorIcEEEERKS5_S8_, symObjAddr: 0x298, symBinAddr: 0x46CAC, symSize: 0x1F8 }
  - { offset: 0x22246A, size: 0x8, addend: 0x0, symName: __Z6formatPKcz, symObjAddr: 0x490, symBinAddr: 0x46EA4, symSize: 0x154 }
  - { offset: 0x222B24, size: 0x8, addend: 0x0, symName: __Z25llama_format_tensor_shapeRKNSt3__16vectorIxNS_9allocatorIxEEEE, symObjAddr: 0x5E4, symBinAddr: 0x46FF8, symSize: 0x15C }
  - { offset: 0x222EC6, size: 0x8, addend: 0x0, symName: __ZNSt3__16vectorIxNS_9allocatorIxEEE20__throw_out_of_rangeB8ne200100Ev, symObjAddr: 0x12F0, symBinAddr: 0x47A60, symSize: 0x14 }
  - { offset: 0x222EFE, size: 0x8, addend: 0x0, symName: __Z25llama_format_tensor_shapePK11ggml_tensor, symObjAddr: 0x740, symBinAddr: 0x47154, symSize: 0x15C }
  - { offset: 0x2233E0, size: 0x8, addend: 0x0, symName: __Z14gguf_kv_to_strPK12gguf_contexti, symObjAddr: 0x89C, symBinAddr: 0x472B0, symSize: 0x5B4 }
  - { offset: 0x22495F, size: 0x8, addend: 0x0, symName: __ZL16gguf_data_to_str9gguf_typePKvi, symObjAddr: 0xFE4, symBinAddr: 0x47864, symSize: 0x1FC }
  - { offset: 0x2273E8, size: 0x8, addend: 0x0, symName: __ZN16llama_io_write_i12write_stringERKNSt3__112basic_stringIcNS0_11char_traitsIcEENS0_9allocatorIcEEEE, symObjAddr: 0x0, symBinAddr: 0x47A74, symSize: 0x78 }
  - { offset: 0x229EC5, size: 0x8, addend: 0x0, symName: __ZN16llama_io_write_i12write_stringERKNSt3__112basic_stringIcNS0_11char_traitsIcEENS0_9allocatorIcEEEE, symObjAddr: 0x0, symBinAddr: 0x47A74, symSize: 0x78 }
  - { offset: 0x229FD6, size: 0x8, addend: 0x0, symName: __ZN15llama_io_read_i11read_stringERNSt3__112basic_stringIcNS0_11char_traitsIcEENS0_9allocatorIcEEEE, symObjAddr: 0x78, symBinAddr: 0x47AEC, symSize: 0x60 }
  - { offset: 0x22BF4E, size: 0x8, addend: 0x0, symName: __ZN19llama_kv_cache_iswaC2ERK11llama_model9ggml_typeS3_bbbbjjjjRKNSt3__18functionIFbiEEERKNS5_IFiiEEE, symObjAddr: 0x0, symBinAddr: 0x47B4C, symSize: 0x348 }
  - { offset: 0x2509F3, size: 0x8, addend: 0x0, symName: __ZNSt3__111make_uniqueB8ne200100I27llama_kv_cache_iswa_contextJP19llama_kv_cache_iswaNS_6vectorIN14llama_kv_cache9slot_infoENS_9allocatorIS6_EEEES9_NS4_I12llama_ubatchNS7_ISA_EEEEELi0EEENS_10unique_ptrIT_NS_14default_deleteISE_EEEEDpOT0_, symObjAddr: 0xEE8, symBinAddr: 0x489D8, symSize: 0x25C }
  - { offset: 0x259DEF, size: 0x8, addend: 0x0, symName: __ZN19llama_kv_cache_iswaC1ERK11llama_model9ggml_typeS3_bbbbjjjjRKNSt3__18functionIFbiEEERKNS5_IFiiEEE, symObjAddr: 0x348, symBinAddr: 0x47E94, symSize: 0x20 }
  - { offset: 0x25A8CD, size: 0x8, addend: 0x0, symName: __ZN19llama_kv_cache_iswaC2ERK11llama_model9ggml_typeS3_bbbbjjjjRKNSt3__18functionIFbiEEERKNS5_IFiiEEE, symObjAddr: 0x0, symBinAddr: 0x47B4C, symSize: 0x348 }
  - { offset: 0x25B136, size: 0x8, addend: 0x0, symName: __ZN19llama_kv_cache_iswa5clearEb, symObjAddr: 0x368, symBinAddr: 0x47EB4, symSize: 0x40 }
  - { offset: 0x25B1CA, size: 0x8, addend: 0x0, symName: __ZN19llama_kv_cache_iswa6seq_rmEiii, symObjAddr: 0x3A8, symBinAddr: 0x47EF4, symSize: 0x6C }
  - { offset: 0x25B2AD, size: 0x8, addend: 0x0, symName: __ZN19llama_kv_cache_iswa6seq_cpEiiii, symObjAddr: 0x414, symBinAddr: 0x47F60, symSize: 0x68 }
  - { offset: 0x25B383, size: 0x8, addend: 0x0, symName: __ZN19llama_kv_cache_iswa8seq_keepEi, symObjAddr: 0x47C, symBinAddr: 0x47FC8, symSize: 0x40 }
  - { offset: 0x25B417, size: 0x8, addend: 0x0, symName: __ZN19llama_kv_cache_iswa7seq_addEiiii, symObjAddr: 0x4BC, symBinAddr: 0x48008, symSize: 0x68 }
  - { offset: 0x25B4ED, size: 0x8, addend: 0x0, symName: __ZN19llama_kv_cache_iswa7seq_divEiiii, symObjAddr: 0x524, symBinAddr: 0x48070, symSize: 0x68 }
  - { offset: 0x25B5C3, size: 0x8, addend: 0x0, symName: __ZNK19llama_kv_cache_iswa11seq_pos_minEi, symObjAddr: 0x58C, symBinAddr: 0x480D8, symSize: 0x10 }
  - { offset: 0x25B5FC, size: 0x8, addend: 0x0, symName: __ZNK19llama_kv_cache_iswa11seq_pos_minEi, symObjAddr: 0x58C, symBinAddr: 0x480D8, symSize: 0x10 }
  - { offset: 0x25B62C, size: 0x8, addend: 0x0, symName: __ZNK19llama_kv_cache_iswa11seq_pos_maxEi, symObjAddr: 0x59C, symBinAddr: 0x480E8, symSize: 0x10 }
  - { offset: 0x25B665, size: 0x8, addend: 0x0, symName: __ZNK19llama_kv_cache_iswa11seq_pos_maxEi, symObjAddr: 0x59C, symBinAddr: 0x480E8, symSize: 0x10 }
  - { offset: 0x25BC3C, size: 0x8, addend: 0x0, symName: __ZNK19llama_kv_cache_iswa16memory_breakdownEv, symObjAddr: 0x5AC, symBinAddr: 0x480F8, symSize: 0x1C0 }
  - { offset: 0x25CDEA, size: 0x8, addend: 0x0, symName: __ZN19llama_kv_cache_iswa10init_batchER18llama_batch_allocrjb, symObjAddr: 0x76C, symBinAddr: 0x482B8, symSize: 0x720 }
  - { offset: 0x25F162, size: 0x8, addend: 0x0, symName: __ZNSt3__16vectorI12llama_ubatchNS_9allocatorIS1_EEE24__emplace_back_slow_pathIJS1_EEEPS1_DpOT_, symObjAddr: 0x254C, symBinAddr: 0x49E24, symSize: 0x1C0 }
  - { offset: 0x25F779, size: 0x8, addend: 0x0, symName: __ZNSt3__16vectorI12llama_ubatchNS_9allocatorIS1_EEE20__throw_length_errorB8ne200100Ev, symObjAddr: 0x270C, symBinAddr: 0x49FE4, symSize: 0x14 }
  - { offset: 0x25F78F, size: 0x8, addend: 0x0, symName: __ZNSt3__16vectorIN14llama_kv_cache9slot_infoENS_9allocatorIS2_EEED1B8ne200100Ev, symObjAddr: 0x1144, symBinAddr: 0x48C34, symSize: 0xC4 }
  - { offset: 0x25FCD5, size: 0x8, addend: 0x0, symName: __ZNSt3__16vectorI12llama_ubatchNS_9allocatorIS1_EEED1B8ne200100Ev, symObjAddr: 0x1208, symBinAddr: 0x48CF8, symSize: 0x98 }
  - { offset: 0x2600D4, size: 0x8, addend: 0x0, symName: __ZN27llama_kv_cache_iswa_contextC2EP19llama_kv_cache_iswaNSt3__16vectorIN14llama_kv_cache9slot_infoENS2_9allocatorIS5_EEEES8_NS3_I12llama_ubatchNS6_IS9_EEEE, symObjAddr: 0x1710, symBinAddr: 0x49200, symSize: 0x5B4 }
  - { offset: 0x261CC6, size: 0x8, addend: 0x0, symName: __ZN19llama_kv_cache_iswa9init_fullEv, symObjAddr: 0x12A0, symBinAddr: 0x48D90, symSize: 0x54 }
  - { offset: 0x261D6C, size: 0x8, addend: 0x0, symName: __ZN27llama_kv_cache_iswa_contextC2EP19llama_kv_cache_iswa, symObjAddr: 0x14A8, symBinAddr: 0x48F98, symSize: 0x120 }
  - { offset: 0x262023, size: 0x8, addend: 0x0, symName: __ZN19llama_kv_cache_iswa11init_updateEP13llama_contextb, symObjAddr: 0x12F4, symBinAddr: 0x48DE4, symSize: 0x6C }
  - { offset: 0x262106, size: 0x8, addend: 0x0, symName: __ZN27llama_kv_cache_iswa_contextC2EP19llama_kv_cache_iswaP13llama_contextb, symObjAddr: 0x15CC, symBinAddr: 0x490BC, symSize: 0x140 }
  - { offset: 0x2623B3, size: 0x8, addend: 0x0, symName: __ZNK19llama_kv_cache_iswa13get_can_shiftEv, symObjAddr: 0x1360, symBinAddr: 0x48E50, symSize: 0x38 }
  - { offset: 0x262418, size: 0x8, addend: 0x0, symName: __ZNK19llama_kv_cache_iswa11state_writeER16llama_io_write_iij, symObjAddr: 0x1398, symBinAddr: 0x48E88, symSize: 0x5C }
  - { offset: 0x2624C2, size: 0x8, addend: 0x0, symName: __ZN19llama_kv_cache_iswa10state_readER15llama_io_read_iij, symObjAddr: 0x13F4, symBinAddr: 0x48EE4, symSize: 0x5C }
  - { offset: 0x262582, size: 0x8, addend: 0x0, symName: __ZNK19llama_kv_cache_iswa8get_baseEv, symObjAddr: 0x1450, symBinAddr: 0x48F40, symSize: 0x8 }
  - { offset: 0x2625A6, size: 0x8, addend: 0x0, symName: __ZNK19llama_kv_cache_iswa8get_baseEv, symObjAddr: 0x1450, symBinAddr: 0x48F40, symSize: 0x8 }
  - { offset: 0x2625C2, size: 0x8, addend: 0x0, symName: __ZNK19llama_kv_cache_iswa7get_swaEv, symObjAddr: 0x1458, symBinAddr: 0x48F48, symSize: 0x8 }
  - { offset: 0x2625E6, size: 0x8, addend: 0x0, symName: __ZNK19llama_kv_cache_iswa7get_swaEv, symObjAddr: 0x1458, symBinAddr: 0x48F48, symSize: 0x8 }
  - { offset: 0x262602, size: 0x8, addend: 0x0, symName: __ZN27llama_kv_cache_iswa_contextC2E19llama_memory_status, symObjAddr: 0x1460, symBinAddr: 0x48F50, symSize: 0x24 }
  - { offset: 0x262665, size: 0x8, addend: 0x0, symName: __ZN27llama_kv_cache_iswa_contextC1E19llama_memory_status, symObjAddr: 0x1484, symBinAddr: 0x48F74, symSize: 0x24 }
  - { offset: 0x26268E, size: 0x8, addend: 0x0, symName: __ZN27llama_kv_cache_iswa_contextC1E19llama_memory_status, symObjAddr: 0x1484, symBinAddr: 0x48F74, symSize: 0x24 }
  - { offset: 0x2627E0, size: 0x8, addend: 0x0, symName: __ZN27llama_kv_cache_iswa_contextC1EP19llama_kv_cache_iswa, symObjAddr: 0x15C8, symBinAddr: 0x490B8, symSize: 0x4 }
  - { offset: 0x26280A, size: 0x8, addend: 0x0, symName: __ZN27llama_kv_cache_iswa_contextC1EP19llama_kv_cache_iswa, symObjAddr: 0x15C8, symBinAddr: 0x490B8, symSize: 0x4 }
  - { offset: 0x262824, size: 0x8, addend: 0x0, symName: __ZN27llama_kv_cache_iswa_contextC1EP19llama_kv_cache_iswaP13llama_contextb, symObjAddr: 0x170C, symBinAddr: 0x491FC, symSize: 0x4 }
  - { offset: 0x262861, size: 0x8, addend: 0x0, symName: __ZN27llama_kv_cache_iswa_contextC1EP19llama_kv_cache_iswaP13llama_contextb, symObjAddr: 0x170C, symBinAddr: 0x491FC, symSize: 0x4 }
  - { offset: 0x262C1B, size: 0x8, addend: 0x0, symName: __ZNSt3__16vectorI12llama_ubatchNS_9allocatorIS1_EEE20__throw_length_errorB8ne200100Ev, symObjAddr: 0x270C, symBinAddr: 0x49FE4, symSize: 0x14 }
  - { offset: 0x262C3E, size: 0x8, addend: 0x0, symName: __ZNSt3__128__exception_guard_exceptionsINS_6vectorI12llama_ubatchNS_9allocatorIS2_EEE16__destroy_vectorEED1B8ne200100Ev, symObjAddr: 0x2794, symBinAddr: 0x49FF8, symSize: 0xA8 }
  - { offset: 0x262E79, size: 0x8, addend: 0x0, symName: __ZN27llama_kv_cache_iswa_contextC1EP19llama_kv_cache_iswaNSt3__16vectorIN14llama_kv_cache9slot_infoENS2_9allocatorIS5_EEEES8_NS3_I12llama_ubatchNS6_IS9_EEEE, symObjAddr: 0x1CC4, symBinAddr: 0x497B4, symSize: 0x4 }
  - { offset: 0x262EBB, size: 0x8, addend: 0x0, symName: __ZN27llama_kv_cache_iswa_contextC1EP19llama_kv_cache_iswaNSt3__16vectorIN14llama_kv_cache9slot_infoENS2_9allocatorIS5_EEEES8_NS3_I12llama_ubatchNS6_IS9_EEEE, symObjAddr: 0x1CC4, symBinAddr: 0x497B4, symSize: 0x4 }
  - { offset: 0x262EEA, size: 0x8, addend: 0x0, symName: __ZN27llama_kv_cache_iswa_contextD2Ev, symObjAddr: 0x1CC8, symBinAddr: 0x497B8, symSize: 0xD4 }
  - { offset: 0x263299, size: 0x8, addend: 0x0, symName: __ZN27llama_kv_cache_iswa_contextD1Ev, symObjAddr: 0x1D9C, symBinAddr: 0x4988C, symSize: 0xD4 }
  - { offset: 0x263665, size: 0x8, addend: 0x0, symName: __ZN27llama_kv_cache_iswa_contextD0Ev, symObjAddr: 0x1E70, symBinAddr: 0x49960, symSize: 0xD4 }
  - { offset: 0x263A3D, size: 0x8, addend: 0x0, symName: __ZN27llama_kv_cache_iswa_context4nextEv, symObjAddr: 0x1F44, symBinAddr: 0x49A34, symSize: 0x70 }
  - { offset: 0x263ADC, size: 0x8, addend: 0x0, symName: __ZN27llama_kv_cache_iswa_context5applyEv, symObjAddr: 0x1FB4, symBinAddr: 0x49AA4, symSize: 0x44 }
  - { offset: 0x263B6C, size: 0x8, addend: 0x0, symName: __ZNK27llama_kv_cache_iswa_context10get_statusEv, symObjAddr: 0x1FF8, symBinAddr: 0x49AE8, symSize: 0x8 }
  - { offset: 0x263BB8, size: 0x8, addend: 0x0, symName: __ZNK27llama_kv_cache_iswa_context10get_ubatchEv, symObjAddr: 0x2000, symBinAddr: 0x49AF0, symSize: 0x10 }
  - { offset: 0x263C1E, size: 0x8, addend: 0x0, symName: __ZNK27llama_kv_cache_iswa_context8get_baseEv, symObjAddr: 0x2010, symBinAddr: 0x49B00, symSize: 0x8 }
  - { offset: 0x263C4A, size: 0x8, addend: 0x0, symName: __ZNK27llama_kv_cache_iswa_context8get_baseEv, symObjAddr: 0x2010, symBinAddr: 0x49B00, symSize: 0x8 }
  - { offset: 0x263C67, size: 0x8, addend: 0x0, symName: __ZNK27llama_kv_cache_iswa_context7get_swaEv, symObjAddr: 0x2018, symBinAddr: 0x49B08, symSize: 0x8 }
  - { offset: 0x263C93, size: 0x8, addend: 0x0, symName: __ZNK27llama_kv_cache_iswa_context7get_swaEv, symObjAddr: 0x2018, symBinAddr: 0x49B08, symSize: 0x8 }
  - { offset: 0x263CCA, size: 0x8, addend: 0x0, symName: __ZN19llama_kv_cache_iswaD1Ev, symObjAddr: 0x2020, symBinAddr: 0x49B10, symSize: 0x5C }
  - { offset: 0x263E5E, size: 0x8, addend: 0x0, symName: __ZN19llama_kv_cache_iswaD0Ev, symObjAddr: 0x207C, symBinAddr: 0x49B6C, symSize: 0x5C }
  - { offset: 0x263FFD, size: 0x8, addend: 0x0, symName: '__ZNSt3__110__function6__funcIZN19llama_kv_cache_iswaC1ERK11llama_model9ggml_typeS6_bbbbjjjjRKNS_8functionIFbiEEERKNS7_IFiiEEEE3$_0NS_9allocatorISG_EES8_ED1Ev', symObjAddr: 0x20D8, symBinAddr: 0x49BC8, symSize: 0x4 }
  - { offset: 0x264029, size: 0x8, addend: 0x0, symName: '__ZNSt3__110__function6__funcIZN19llama_kv_cache_iswaC1ERK11llama_model9ggml_typeS6_bbbbjjjjRKNS_8functionIFbiEEERKNS7_IFiiEEEE3$_0NS_9allocatorISG_EES8_ED0Ev', symObjAddr: 0x20DC, symBinAddr: 0x49BCC, symSize: 0x4 }
  - { offset: 0x264140, size: 0x8, addend: 0x0, symName: '__ZNKSt3__110__function6__funcIZN19llama_kv_cache_iswaC1ERK11llama_model9ggml_typeS6_bbbbjjjjRKNS_8functionIFbiEEERKNS7_IFiiEEEE3$_0NS_9allocatorISG_EES8_E7__cloneEv', symObjAddr: 0x20E0, symBinAddr: 0x49BD0, symSize: 0x38 }
  - { offset: 0x264351, size: 0x8, addend: 0x0, symName: '__ZNKSt3__110__function6__funcIZN19llama_kv_cache_iswaC1ERK11llama_model9ggml_typeS6_bbbbjjjjRKNS_8functionIFbiEEERKNS7_IFiiEEEE3$_0NS_9allocatorISG_EES8_E7__cloneEPNS0_6__baseIS8_EE', symObjAddr: 0x2118, symBinAddr: 0x49C08, symSize: 0x18 }
  - { offset: 0x264386, size: 0x8, addend: 0x0, symName: '__ZNKSt3__110__function6__funcIZN19llama_kv_cache_iswaC1ERK11llama_model9ggml_typeS6_bbbbjjjjRKNS_8functionIFbiEEERKNS7_IFiiEEEE3$_0NS_9allocatorISG_EES8_E7__cloneEPNS0_6__baseIS8_EE', symObjAddr: 0x2118, symBinAddr: 0x49C08, symSize: 0x18 }
  - { offset: 0x2643AB, size: 0x8, addend: 0x0, symName: '__ZNKSt3__110__function6__funcIZN19llama_kv_cache_iswaC1ERK11llama_model9ggml_typeS6_bbbbjjjjRKNS_8functionIFbiEEERKNS7_IFiiEEEE3$_0NS_9allocatorISG_EES8_E7__cloneEPNS0_6__baseIS8_EE', symObjAddr: 0x2118, symBinAddr: 0x49C08, symSize: 0x18 }
  - { offset: 0x26441F, size: 0x8, addend: 0x0, symName: '__ZNSt3__110__function6__funcIZN19llama_kv_cache_iswaC1ERK11llama_model9ggml_typeS6_bbbbjjjjRKNS_8functionIFbiEEERKNS7_IFiiEEEE3$_0NS_9allocatorISG_EES8_E7destroyEv', symObjAddr: 0x2130, symBinAddr: 0x49C20, symSize: 0x4 }
  - { offset: 0x264474, size: 0x8, addend: 0x0, symName: '__ZNSt3__110__function6__funcIZN19llama_kv_cache_iswaC1ERK11llama_model9ggml_typeS6_bbbbjjjjRKNS_8functionIFbiEEERKNS7_IFiiEEEE3$_0NS_9allocatorISG_EES8_E18destroy_deallocateEv', symObjAddr: 0x2134, symBinAddr: 0x49C24, symSize: 0x4 }
  - { offset: 0x2644A7, size: 0x8, addend: 0x0, symName: '__ZNSt3__110__function6__funcIZN19llama_kv_cache_iswaC1ERK11llama_model9ggml_typeS6_bbbbjjjjRKNS_8functionIFbiEEERKNS7_IFiiEEEE3$_0NS_9allocatorISG_EES8_E18destroy_deallocateEv', symObjAddr: 0x2134, symBinAddr: 0x49C24, symSize: 0x4 }
  - { offset: 0x2644CA, size: 0x8, addend: 0x0, symName: '__ZNSt3__110__function6__funcIZN19llama_kv_cache_iswaC1ERK11llama_model9ggml_typeS6_bbbbjjjjRKNS_8functionIFbiEEERKNS7_IFiiEEEE3$_0NS_9allocatorISG_EES8_E18destroy_deallocateEv', symObjAddr: 0x2134, symBinAddr: 0x49C24, symSize: 0x4 }
  - { offset: 0x2644FD, size: 0x8, addend: 0x0, symName: '__ZNSt3__110__function6__funcIZN19llama_kv_cache_iswaC1ERK11llama_model9ggml_typeS6_bbbbjjjjRKNS_8functionIFbiEEERKNS7_IFiiEEEE3$_0NS_9allocatorISG_EES8_E18destroy_deallocateEv', symObjAddr: 0x2134, symBinAddr: 0x49C24, symSize: 0x4 }
  - { offset: 0x26461D, size: 0x8, addend: 0x0, symName: '__ZNSt3__110__function6__funcIZN19llama_kv_cache_iswaC1ERK11llama_model9ggml_typeS6_bbbbjjjjRKNS_8functionIFbiEEERKNS7_IFiiEEEE3$_0NS_9allocatorISG_EES8_EclEOi', symObjAddr: 0x2138, symBinAddr: 0x49C28, symSize: 0x60 }
  - { offset: 0x2647D4, size: 0x8, addend: 0x0, symName: '__ZNKSt3__110__function6__funcIZN19llama_kv_cache_iswaC1ERK11llama_model9ggml_typeS6_bbbbjjjjRKNS_8functionIFbiEEERKNS7_IFiiEEEE3$_0NS_9allocatorISG_EES8_E6targetERKSt9type_info', symObjAddr: 0x2198, symBinAddr: 0x49C88, symSize: 0x64 }
  - { offset: 0x26489F, size: 0x8, addend: 0x0, symName: '__ZNKSt3__110__function6__funcIZN19llama_kv_cache_iswaC1ERK11llama_model9ggml_typeS6_bbbbjjjjRKNS_8functionIFbiEEERKNS7_IFiiEEEE3$_0NS_9allocatorISG_EES8_E11target_typeEv', symObjAddr: 0x21FC, symBinAddr: 0x49CEC, symSize: 0xC }
  - { offset: 0x2648C2, size: 0x8, addend: 0x0, symName: '__ZNSt3__110__function6__funcIZN19llama_kv_cache_iswaC1ERK11llama_model9ggml_typeS6_bbbbjjjjRKNS_8functionIFbiEEERKNS7_IFiiEEEE3$_1NS_9allocatorISG_EES8_ED1Ev', symObjAddr: 0x2230, symBinAddr: 0x49CF8, symSize: 0x4 }
  - { offset: 0x2648EE, size: 0x8, addend: 0x0, symName: '__ZNSt3__110__function6__funcIZN19llama_kv_cache_iswaC1ERK11llama_model9ggml_typeS6_bbbbjjjjRKNS_8functionIFbiEEERKNS7_IFiiEEEE3$_1NS_9allocatorISG_EES8_ED0Ev', symObjAddr: 0x2234, symBinAddr: 0x49CFC, symSize: 0x4 }
  - { offset: 0x264A05, size: 0x8, addend: 0x0, symName: '__ZNKSt3__110__function6__funcIZN19llama_kv_cache_iswaC1ERK11llama_model9ggml_typeS6_bbbbjjjjRKNS_8functionIFbiEEERKNS7_IFiiEEEE3$_1NS_9allocatorISG_EES8_E7__cloneEv', symObjAddr: 0x2238, symBinAddr: 0x49D00, symSize: 0x38 }
  - { offset: 0x264C16, size: 0x8, addend: 0x0, symName: '__ZNKSt3__110__function6__funcIZN19llama_kv_cache_iswaC1ERK11llama_model9ggml_typeS6_bbbbjjjjRKNS_8functionIFbiEEERKNS7_IFiiEEEE3$_1NS_9allocatorISG_EES8_E7__cloneEPNS0_6__baseIS8_EE', symObjAddr: 0x2270, symBinAddr: 0x49D38, symSize: 0x18 }
  - { offset: 0x264C4B, size: 0x8, addend: 0x0, symName: '__ZNKSt3__110__function6__funcIZN19llama_kv_cache_iswaC1ERK11llama_model9ggml_typeS6_bbbbjjjjRKNS_8functionIFbiEEERKNS7_IFiiEEEE3$_1NS_9allocatorISG_EES8_E7__cloneEPNS0_6__baseIS8_EE', symObjAddr: 0x2270, symBinAddr: 0x49D38, symSize: 0x18 }
  - { offset: 0x264C70, size: 0x8, addend: 0x0, symName: '__ZNKSt3__110__function6__funcIZN19llama_kv_cache_iswaC1ERK11llama_model9ggml_typeS6_bbbbjjjjRKNS_8functionIFbiEEERKNS7_IFiiEEEE3$_1NS_9allocatorISG_EES8_E7__cloneEPNS0_6__baseIS8_EE', symObjAddr: 0x2270, symBinAddr: 0x49D38, symSize: 0x18 }
  - { offset: 0x264CE4, size: 0x8, addend: 0x0, symName: '__ZNSt3__110__function6__funcIZN19llama_kv_cache_iswaC1ERK11llama_model9ggml_typeS6_bbbbjjjjRKNS_8functionIFbiEEERKNS7_IFiiEEEE3$_1NS_9allocatorISG_EES8_E7destroyEv', symObjAddr: 0x2288, symBinAddr: 0x49D50, symSize: 0x4 }
  - { offset: 0x264D39, size: 0x8, addend: 0x0, symName: '__ZNSt3__110__function6__funcIZN19llama_kv_cache_iswaC1ERK11llama_model9ggml_typeS6_bbbbjjjjRKNS_8functionIFbiEEERKNS7_IFiiEEEE3$_1NS_9allocatorISG_EES8_E18destroy_deallocateEv', symObjAddr: 0x228C, symBinAddr: 0x49D54, symSize: 0x4 }
  - { offset: 0x264D6C, size: 0x8, addend: 0x0, symName: '__ZNSt3__110__function6__funcIZN19llama_kv_cache_iswaC1ERK11llama_model9ggml_typeS6_bbbbjjjjRKNS_8functionIFbiEEERKNS7_IFiiEEEE3$_1NS_9allocatorISG_EES8_E18destroy_deallocateEv', symObjAddr: 0x228C, symBinAddr: 0x49D54, symSize: 0x4 }
  - { offset: 0x264D8F, size: 0x8, addend: 0x0, symName: '__ZNSt3__110__function6__funcIZN19llama_kv_cache_iswaC1ERK11llama_model9ggml_typeS6_bbbbjjjjRKNS_8functionIFbiEEERKNS7_IFiiEEEE3$_1NS_9allocatorISG_EES8_E18destroy_deallocateEv', symObjAddr: 0x228C, symBinAddr: 0x49D54, symSize: 0x4 }
  - { offset: 0x264DC2, size: 0x8, addend: 0x0, symName: '__ZNSt3__110__function6__funcIZN19llama_kv_cache_iswaC1ERK11llama_model9ggml_typeS6_bbbbjjjjRKNS_8functionIFbiEEERKNS7_IFiiEEEE3$_1NS_9allocatorISG_EES8_E18destroy_deallocateEv', symObjAddr: 0x228C, symBinAddr: 0x49D54, symSize: 0x4 }
  - { offset: 0x264E64, size: 0x8, addend: 0x0, symName: '__ZNSt3__110__function6__funcIZN19llama_kv_cache_iswaC1ERK11llama_model9ggml_typeS6_bbbbjjjjRKNS_8functionIFbiEEERKNS7_IFiiEEEE3$_1NS_9allocatorISG_EES8_EclEOi', symObjAddr: 0x2290, symBinAddr: 0x49D58, symSize: 0x5C }
  - { offset: 0x264FC2, size: 0x8, addend: 0x0, symName: '__ZNKSt3__110__function6__funcIZN19llama_kv_cache_iswaC1ERK11llama_model9ggml_typeS6_bbbbjjjjRKNS_8functionIFbiEEERKNS7_IFiiEEEE3$_1NS_9allocatorISG_EES8_E6targetERKSt9type_info', symObjAddr: 0x22EC, symBinAddr: 0x49DB4, symSize: 0x64 }
  - { offset: 0x265076, size: 0x8, addend: 0x0, symName: '__ZNKSt3__110__function6__funcIZN19llama_kv_cache_iswaC1ERK11llama_model9ggml_typeS6_bbbbjjjjRKNS_8functionIFbiEEERKNS7_IFiiEEEE3$_1NS_9allocatorISG_EES8_E11target_typeEv', symObjAddr: 0x2350, symBinAddr: 0x49E18, symSize: 0xC }
  - { offset: 0x2A3E55, size: 0x8, addend: 0x0, symName: __ZNSt3__135__uninitialized_allocator_copy_implB8ne200100INS_9allocatorINS_6vectorIjNS1_IjEEEEEEPS4_S6_S6_EET2_RT_T0_T1_S7_, symObjAddr: 0x10480, symBinAddr: 0x59B54, symSize: 0xF8 }
  - { offset: 0x2A50B4, size: 0x8, addend: 0x0, symName: __ZNSt3__134__uninitialized_allocator_relocateB8ne200100INS_9allocatorIN14llama_kv_cache9slot_infoEEEPS3_EEvRT_T0_S8_S8_, symObjAddr: 0x12028, symBinAddr: 0x5B198, symSize: 0xF8 }
  - { offset: 0x2A510F, size: 0x8, addend: 0x0, symName: __ZNSt3__134__uninitialized_allocator_relocateB8ne200100INS_9allocatorIN14llama_kv_cache9slot_infoEEEPS3_EEvRT_T0_S8_S8_, symObjAddr: 0x12028, symBinAddr: 0x5B198, symSize: 0xF8 }
  - { offset: 0x2AE3D9, size: 0x8, addend: 0x0, symName: __ZN14llama_kv_cacheC2ERK11llama_model9ggml_typeS3_bbbjjjj14llama_swa_typeRKNSt3__18functionIFbiEEERKNS6_IFiiEEE, symObjAddr: 0x0, symBinAddr: 0x4A0A0, symSize: 0x1210 }
  - { offset: 0x2B1CB7, size: 0x8, addend: 0x0, symName: __ZN14llama_kv_cache7prepareERKNSt3__16vectorI12llama_ubatchNS0_9allocatorIS2_EEEE, symObjAddr: 0x350C, symBinAddr: 0x4D550, symSize: 0xF30 }
  - { offset: 0x2B8464, size: 0x8, addend: 0x0, symName: __ZNSt3__16vectorI14llama_kv_cellsNS_9allocatorIS1_EEE8__appendEm, symObjAddr: 0x10CC4, symBinAddr: 0x5A0AC, symSize: 0x25C }
  - { offset: 0x2B8BC9, size: 0x8, addend: 0x0, symName: __ZNSt3__16vectorI14llama_kv_cellsNS_9allocatorIS1_EEE20__throw_length_errorB8ne200100Ev, symObjAddr: 0x10F20, symBinAddr: 0x5A308, symSize: 0x14 }
  - { offset: 0x2B8BD4, size: 0x8, addend: 0x0, symName: __ZNSt3__19allocatorI14llama_kv_cellsE7destroyB8ne200100EPS1_, symObjAddr: 0x10AAC, symBinAddr: 0x59FC8, symSize: 0x90 }
  - { offset: 0x2B9238, size: 0x8, addend: 0x0, symName: __ZN14llama_kv_cells6resizeEj, symObjAddr: 0x1210, symBinAddr: 0x4B2B0, symSize: 0x178 }
  - { offset: 0x2B96CC, size: 0x8, addend: 0x0, symName: __ZNSt3__16vectorIjNS_9allocatorIjEEE8__appendEmRKj, symObjAddr: 0x11058, symBinAddr: 0x5A440, symSize: 0x234 }
  - { offset: 0x2B9C30, size: 0x8, addend: 0x0, symName: __ZNSt3__112__hash_tableINS_17__hash_value_typeIiiEENS_22__unordered_map_hasherIiS2_NS_4hashIiEENS_8equal_toIiEELb1EEENS_21__unordered_map_equalIiS2_S7_S5_Lb1EEENS_9allocatorIS2_EEE25__emplace_unique_key_argsIiJRKNS_21piecewise_construct_tENS_5tupleIJOiEEENSI_IJEEEEEENS_4pairINS_15__hash_iteratorIPNS_11__hash_nodeIS2_PvEEEEbEERKT_DpOT0_, symObjAddr: 0x112EC, symBinAddr: 0x5A674, symSize: 0x324 }
  - { offset: 0x2BA37D, size: 0x8, addend: 0x0, symName: __ZNSt3__16vectorIN14llama_kv_cache8kv_layerENS_9allocatorIS2_EEE24__emplace_back_slow_pathIJS2_EEEPS2_DpOT_, symObjAddr: 0x11790, symBinAddr: 0x5AB18, symSize: 0x1D4 }
  - { offset: 0x2BABC7, size: 0x8, addend: 0x0, symName: __ZNSt3__16vectorIN14llama_kv_cache8kv_layerENS_9allocatorIS2_EEE20__throw_length_errorB8ne200100Ev, symObjAddr: 0x11964, symBinAddr: 0x5ACEC, symSize: 0x14 }
  - { offset: 0x2BABDD, size: 0x8, addend: 0x0, symName: __ZNSt3__112__hash_tableINS_17__hash_value_typeIiiEENS_22__unordered_map_hasherIiS2_NS_4hashIiEENS_8equal_toIiEELb1EEENS_21__unordered_map_equalIiS2_S7_S5_Lb1EEENS_9allocatorIS2_EEE25__emplace_unique_key_argsIiJRKNS_21piecewise_construct_tENS_5tupleIJRKiEEENSI_IJEEEEEENS_4pairINS_15__hash_iteratorIPNS_11__hash_nodeIS2_PvEEEEbEERKT_DpOT0_, symObjAddr: 0x11978, symBinAddr: 0x5AD00, symSize: 0x324 }
  - { offset: 0x2BB419, size: 0x8, addend: 0x0, symName: __ZNSt3__16__treeINS_12__value_typeIP24ggml_backend_buffer_typeNS_10unique_ptrI12ggml_context20ggml_context_deleterEEEENS_19__map_value_compareIS3_S8_ZN14llama_kv_cacheC1ERK11llama_model9ggml_typeSE_bbbjjjj14llama_swa_typeRKNS_8functionIFbiEEERKNSG_IFiiEEEE28ggml_backend_buft_comparatorLb1EEENS_9allocatorIS8_EEE7destroyEPNS_11__tree_nodeIS8_PvEE, symObjAddr: 0x10B3C, symBinAddr: 0x5A058, symSize: 0x54 }
  - { offset: 0x2BB625, size: 0x8, addend: 0x0, symName: __ZNSt3__112__hash_tableINS_17__hash_value_typeIiiEENS_22__unordered_map_hasherIiS2_NS_4hashIiEENS_8equal_toIiEELb1EEENS_21__unordered_map_equalIiS2_S7_S5_Lb1EEENS_9allocatorIS2_EEE25__emplace_unique_key_argsIiJRKNS_21piecewise_construct_tENS_5tupleIJOiEEENSI_IJEEEEEENS_4pairINS_15__hash_iteratorIPNS_11__hash_nodeIS2_PvEEEEbEERKT_DpOT0_, symObjAddr: 0x112EC, symBinAddr: 0x5A674, symSize: 0x324 }
  - { offset: 0x2BB630, size: 0x8, addend: 0x0, symName: __ZNSt3__16vectorINS_4pairINS_10unique_ptrI12ggml_context20ggml_context_deleterEENS2_I19ggml_backend_buffer27ggml_backend_buffer_deleterEEEENS_9allocatorIS9_EEE20__throw_length_errorB8ne200100Ev, symObjAddr: 0x11C9C, symBinAddr: 0x5B024, symSize: 0x14 }
  - { offset: 0x2BB653, size: 0x8, addend: 0x0, symName: __ZN14llama_kv_cache8kv_layerD1Ev, symObjAddr: 0x1388, symBinAddr: 0x4B428, symSize: 0x40 }
  - { offset: 0x2BB8DB, size: 0x8, addend: 0x0, symName: __ZNSt3__113unordered_mapIiiNS_4hashIiEENS_8equal_toIiEENS_9allocatorINS_4pairIKiiEEEEED1B8ne200100Ev, symObjAddr: 0x1488, symBinAddr: 0x4B528, symSize: 0x48 }
  - { offset: 0x2BBB6E, size: 0x8, addend: 0x0, symName: __ZNSt3__16vectorIN14llama_kv_cache8kv_layerENS_9allocatorIS2_EEED1B8ne200100Ev, symObjAddr: 0x14D0, symBinAddr: 0x4B570, symSize: 0x80 }
  - { offset: 0x2BBF60, size: 0x8, addend: 0x0, symName: __ZN14llama_kv_cache16stream_copy_infoD1Ev, symObjAddr: 0x1550, symBinAddr: 0x4B5F0, symSize: 0x40 }
  - { offset: 0x2BC1DC, size: 0x8, addend: 0x0, symName: __ZNSt3__16vectorI14llama_kv_cellsNS_9allocatorIS1_EEED1B8ne200100Ev, symObjAddr: 0x1590, symBinAddr: 0x4B630, symSize: 0x68 }
  - { offset: 0x2BC345, size: 0x8, addend: 0x0, symName: __ZNSt3__16vectorINS_4pairINS_10unique_ptrI12ggml_context20ggml_context_deleterEENS2_I19ggml_backend_buffer27ggml_backend_buffer_deleterEEEENS_9allocatorIS9_EEED1B8ne200100Ev, symObjAddr: 0x15F8, symBinAddr: 0x4B698, symSize: 0x84 }
  - { offset: 0x2BCBB4, size: 0x8, addend: 0x0, symName: __ZNSt3__16vectorI17llama_kv_cell_extNS_9allocatorIS1_EEE8__appendEm, symObjAddr: 0xF798, symBinAddr: 0x59498, symSize: 0x120 }
  - { offset: 0x2BCFE8, size: 0x8, addend: 0x0, symName: __ZNSt3__16vectorI17llama_kv_cell_extNS_9allocatorIS1_EEE20__throw_length_errorB8ne200100Ev, symObjAddr: 0xF8B8, symBinAddr: 0x595B8, symSize: 0x14 }
  - { offset: 0x2BCFF3, size: 0x8, addend: 0x0, symName: __ZNSt3__16vectorINS_6bitsetILm256EEENS_9allocatorIS2_EEE8__appendEm, symObjAddr: 0xF8CC, symBinAddr: 0x595CC, symSize: 0x120 }
  - { offset: 0x2BD45E, size: 0x8, addend: 0x0, symName: __ZNSt3__16__treeIjNS_4lessIjEENS_9allocatorIjEEE7destroyEPNS_11__tree_nodeIjPvEE, symObjAddr: 0xFBAC, symBinAddr: 0x596EC, symSize: 0x44 }
  - { offset: 0x2BD62B, size: 0x8, addend: 0x0, symName: __ZNK14llama_kv_cache12size_k_bytesEv, symObjAddr: 0x13C8, symBinAddr: 0x4B468, symSize: 0x64 }
  - { offset: 0x2BD6D9, size: 0x8, addend: 0x0, symName: __ZNK14llama_kv_cache12size_v_bytesEv, symObjAddr: 0x142C, symBinAddr: 0x4B4CC, symSize: 0x5C }
  - { offset: 0x2BDDBE, size: 0x8, addend: 0x0, symName: __ZN14llama_kv_cacheC1ERK11llama_model9ggml_typeS3_bbbjjjj14llama_swa_typeRKNSt3__18functionIFbiEEERKNS6_IFiiEEE, symObjAddr: 0x167C, symBinAddr: 0x4B71C, symSize: 0x20 }
  - { offset: 0x2BDF65, size: 0x8, addend: 0x0, symName: __ZN14llama_kv_cache5clearEb, symObjAddr: 0x169C, symBinAddr: 0x4B73C, symSize: 0x148 }
  - { offset: 0x2BE8FA, size: 0x8, addend: 0x0, symName: __ZN14llama_kv_cache6seq_rmEiii, symObjAddr: 0x17E4, symBinAddr: 0x4B884, symSize: 0x444 }
  - { offset: 0x2BF49B, size: 0x8, addend: 0x0, symName: __ZN14llama_kv_cells6seq_rmEji, symObjAddr: 0x1C28, symBinAddr: 0x4BCC8, symSize: 0x288 }
  - { offset: 0x2BF4AE, size: 0x8, addend: 0x0, symName: __ZN14llama_kv_cells6seq_rmEji, symObjAddr: 0x1C28, symBinAddr: 0x4BCC8, symSize: 0x288 }
  - { offset: 0x2BFBAC, size: 0x8, addend: 0x0, symName: __ZN14llama_kv_cache6seq_cpEiiii, symObjAddr: 0x1EB0, symBinAddr: 0x4BF50, symSize: 0x638 }
  - { offset: 0x2C0342, size: 0x8, addend: 0x0, symName: __ZN14llama_kv_cache6seq_cpEiiii, symObjAddr: 0x1EB0, symBinAddr: 0x4BF50, symSize: 0x638 }
  - { offset: 0x2C1823, size: 0x8, addend: 0x0, symName: __ZN14llama_kv_cells7seq_addEji, symObjAddr: 0x24E8, symBinAddr: 0x4C588, symSize: 0x110 }
  - { offset: 0x2C182E, size: 0x8, addend: 0x0, symName: __ZN14llama_kv_cells7seq_addEji, symObjAddr: 0x24E8, symBinAddr: 0x4C588, symSize: 0x110 }
  - { offset: 0x2C1BEB, size: 0x8, addend: 0x0, symName: __ZNK14llama_kv_cache8get_sizeEv, symObjAddr: 0x25F8, symBinAddr: 0x4C698, symSize: 0x24 }
  - { offset: 0x2C1BF6, size: 0x8, addend: 0x0, symName: __ZN14llama_kv_cells7pos_addEji, symObjAddr: 0x261C, symBinAddr: 0x4C6BC, symSize: 0x144 }
  - { offset: 0x2C201D, size: 0x8, addend: 0x0, symName: __ZNSt3__16vectorI14llama_kv_cellsNS_9allocatorIS1_EEE8__appendEm, symObjAddr: 0x10CC4, symBinAddr: 0x5A0AC, symSize: 0x25C }
  - { offset: 0x2C2490, size: 0x8, addend: 0x0, symName: __ZNK14llama_kv_cache8get_sizeEv, symObjAddr: 0x25F8, symBinAddr: 0x4C698, symSize: 0x24 }
  - { offset: 0x2C24BD, size: 0x8, addend: 0x0, symName: __ZNK14llama_kv_cache8get_sizeEv, symObjAddr: 0x25F8, symBinAddr: 0x4C698, symSize: 0x24 }
  - { offset: 0x2C2546, size: 0x8, addend: 0x0, symName: __ZN14llama_kv_cells10seq_pos_rmEj, symObjAddr: 0x1005C, symBinAddr: 0x59730, symSize: 0x128 }
  - { offset: 0x2C291C, size: 0x8, addend: 0x0, symName: __ZN14llama_kv_cells11seq_pos_addEj, symObjAddr: 0x10184, symBinAddr: 0x59858, symSize: 0x11C }
  - { offset: 0x2C2D0E, size: 0x8, addend: 0x0, symName: __ZN14llama_kv_cache8seq_keepEi, symObjAddr: 0x2760, symBinAddr: 0x4C800, symSize: 0xE4 }
  - { offset: 0x2C2EA0, size: 0x8, addend: 0x0, symName: __ZN14llama_kv_cells8seq_keepEji, symObjAddr: 0x2844, symBinAddr: 0x4C8E4, symSize: 0x25C }
  - { offset: 0x2C2EB3, size: 0x8, addend: 0x0, symName: __ZN14llama_kv_cells8seq_keepEji, symObjAddr: 0x2844, symBinAddr: 0x4C8E4, symSize: 0x25C }
  - { offset: 0x2C37CE, size: 0x8, addend: 0x0, symName: __ZN14llama_kv_cache7seq_addEiiii, symObjAddr: 0x2AA0, symBinAddr: 0x4CB40, symSize: 0x1F0 }
  - { offset: 0x2C37D9, size: 0x8, addend: 0x0, symName: __ZN14llama_kv_cache7seq_addEiiii, symObjAddr: 0x2AA0, symBinAddr: 0x4CB40, symSize: 0x1F0 }
  - { offset: 0x2C39FD, size: 0x8, addend: 0x0, symName: __ZN14llama_kv_cache7seq_divEiiii, symObjAddr: 0x2C90, symBinAddr: 0x4CD30, symSize: 0x1F0 }
  - { offset: 0x2C3A4F, size: 0x8, addend: 0x0, symName: __ZN14llama_kv_cache7seq_divEiiii, symObjAddr: 0x2C90, symBinAddr: 0x4CD30, symSize: 0x1F0 }
  - { offset: 0x2C3C99, size: 0x8, addend: 0x0, symName: __ZNK14llama_kv_cache11seq_pos_minEi, symObjAddr: 0x2E80, symBinAddr: 0x4CF20, symSize: 0x7C }
  - { offset: 0x2C3D16, size: 0x8, addend: 0x0, symName: __ZNK14llama_kv_cache11seq_pos_minEi, symObjAddr: 0x2E80, symBinAddr: 0x4CF20, symSize: 0x7C }
  - { offset: 0x2C3E08, size: 0x8, addend: 0x0, symName: __ZNK14llama_kv_cache11seq_pos_maxEi, symObjAddr: 0x2EFC, symBinAddr: 0x4CF9C, symSize: 0xB8 }
  - { offset: 0x2C3EB2, size: 0x8, addend: 0x0, symName: __ZNK14llama_kv_cache11seq_pos_maxEi, symObjAddr: 0x2EFC, symBinAddr: 0x4CF9C, symSize: 0xB8 }
  - { offset: 0x2C4038, size: 0x8, addend: 0x0, symName: __ZNK14llama_kv_cache16memory_breakdownEv, symObjAddr: 0x2FB4, symBinAddr: 0x4D054, symSize: 0x1F8 }
  - { offset: 0x2C45EB, size: 0x8, addend: 0x0, symName: __ZNK14llama_kv_cache16memory_breakdownEv, symObjAddr: 0x2FB4, symBinAddr: 0x4D054, symSize: 0x1F8 }
  - { offset: 0x2C5488, size: 0x8, addend: 0x0, symName: __ZN14llama_kv_cache10init_batchER18llama_batch_allocrjb, symObjAddr: 0x31AC, symBinAddr: 0x4D24C, symSize: 0x304 }
  - { offset: 0x2C7FC5, size: 0x8, addend: 0x0, symName: __ZNK14llama_kv_cache9find_slotERK12llama_ubatchb, symObjAddr: 0x480C, symBinAddr: 0x4E6F4, symSize: 0xC18 }
  - { offset: 0x2CA4E6, size: 0x8, addend: 0x0, symName: __ZN14llama_kv_cache9slot_infoC2ERKS0_, symObjAddr: 0x102A0, symBinAddr: 0x59974, symSize: 0x148 }
  - { offset: 0x2CAB25, size: 0x8, addend: 0x0, symName: __ZNSt3__16vectorIN14llama_kv_cache9slot_infoENS_9allocatorIS2_EEE24__emplace_back_slow_pathIJRKS2_EEEPS2_DpOT_, symObjAddr: 0x11EC8, symBinAddr: 0x5B038, symSize: 0x14C }
  - { offset: 0x2CAF05, size: 0x8, addend: 0x0, symName: __ZZN14llama_kv_cache7prepareERKNSt3__16vectorI12llama_ubatchNS0_9allocatorIS2_EEEEEN7state_tD1Ev, symObjAddr: 0x5540, symBinAddr: 0x4F428, symSize: 0xD4 }
  - { offset: 0x2CB5B5, size: 0x8, addend: 0x0, symName: __ZN14llama_kv_cache12apply_ubatchERKNS_9slot_infoERK12llama_ubatch, symObjAddr: 0x5614, symBinAddr: 0x4F4FC, symSize: 0xA2C }
  - { offset: 0x2CCF57, size: 0x8, addend: 0x0, symName: __ZN14llama_kv_cells3setERKNSt3__16vectorIjNS0_9allocatorIjEEEERKS_, symObjAddr: 0x6040, symBinAddr: 0x4FF28, symSize: 0x250 }
  - { offset: 0x2CCF9B, size: 0x8, addend: 0x0, symName: __ZN14llama_kv_cells3setERKNSt3__16vectorIjNS0_9allocatorIjEEEERKS_, symObjAddr: 0x6040, symBinAddr: 0x4FF28, symSize: 0x250 }
  - { offset: 0x2CD686, size: 0x8, addend: 0x0, symName: __ZNSt3__16vectorI14llama_kv_cellsNS_9allocatorIS1_EEE20__throw_length_errorB8ne200100Ev, symObjAddr: 0x10F20, symBinAddr: 0x5A308, symSize: 0x14 }
  - { offset: 0x2CD69E, size: 0x8, addend: 0x0, symName: __ZNSt3__19allocatorI14llama_kv_cellsE9constructB8ne200100IS1_JS1_EEEvPT_DpOT0_, symObjAddr: 0x10F34, symBinAddr: 0x5A31C, symSize: 0x124 }
  - { offset: 0x2CD6A9, size: 0x8, addend: 0x0, symName: __ZNSt3__16vectorIZN14llama_kv_cache7prepareERKNS0_I12llama_ubatchNS_9allocatorIS2_EEEEE7state_tNS3_IS8_EEE20__throw_length_errorB8ne200100Ev, symObjAddr: 0x121D8, symBinAddr: 0x5B348, symSize: 0x14 }
  - { offset: 0x2CD6C1, size: 0x8, addend: 0x0, symName: __ZNSt3__113unordered_mapIiNS_6vectorIjNS_9allocatorIjEEEENS_4hashIiEENS_8equal_toIiEENS2_INS_4pairIKiS4_EEEEED1B8ne200100Ev, symObjAddr: 0x121EC, symBinAddr: 0x5B35C, symSize: 0x68 }
  - { offset: 0x2CD6CC, size: 0x8, addend: 0x0, symName: __ZN14llama_kv_cache9slot_infoD1Ev, symObjAddr: 0x5424, symBinAddr: 0x4F30C, symSize: 0x84 }
  - { offset: 0x2CDAAE, size: 0x8, addend: 0x0, symName: __ZN14llama_kv_cellsD1Ev, symObjAddr: 0x54A8, symBinAddr: 0x4F390, symSize: 0x98 }
  - { offset: 0x2CE0EF, size: 0x8, addend: 0x0, symName: __ZNSt3__16vectorIZN14llama_kv_cache7prepareERKNS0_I12llama_ubatchNS_9allocatorIS2_EEEEE7state_tNS3_IS8_EEED1B8ne200100Ev, symObjAddr: 0x6290, symBinAddr: 0x50178, symSize: 0x58 }
  - { offset: 0x2CE275, size: 0x8, addend: 0x0, symName: __ZN14llama_kv_cache9init_fullEv, symObjAddr: 0x4598, symBinAddr: 0x4E480, symSize: 0x54 }
  - { offset: 0x2CE31E, size: 0x8, addend: 0x0, symName: __ZN22llama_kv_cache_contextC2EP14llama_kv_cache, symObjAddr: 0xE8F0, symBinAddr: 0x587D8, symSize: 0x290 }
  - { offset: 0x2CECD5, size: 0x8, addend: 0x0, symName: __ZN14llama_kv_cache11init_updateEP13llama_contextb, symObjAddr: 0x45EC, symBinAddr: 0x4E4D4, symSize: 0x160 }
  - { offset: 0x2CEFDA, size: 0x8, addend: 0x0, symName: __ZNK14llama_kv_cache13get_has_shiftEv, symObjAddr: 0x474C, symBinAddr: 0x4E634, symSize: 0xC0 }
  - { offset: 0x2CF6D9, size: 0x8, addend: 0x0, symName: __ZNSt3__16vectorINS0_IjNS_9allocatorIjEEEENS1_IS3_EEE8__appendEm, symObjAddr: 0x1092C, symBinAddr: 0x59E48, symSize: 0x180 }
  - { offset: 0x2CFB1C, size: 0x8, addend: 0x0, symName: __ZNSt3__19allocatorI14llama_kv_cellsE7destroyB8ne200100EPS1_, symObjAddr: 0x10AAC, symBinAddr: 0x59FC8, symSize: 0x90 }
  - { offset: 0x2CFCC2, size: 0x8, addend: 0x0, symName: __ZN14llama_kv_cache6updateEP13llama_contextbRKNS_16stream_copy_infoE, symObjAddr: 0x62E8, symBinAddr: 0x501D0, symSize: 0x338 }
  - { offset: 0x2D0090, size: 0x8, addend: 0x0, symName: __ZNK14llama_kv_cache17build_graph_shiftEP16llm_graph_resultP13llama_context, symObjAddr: 0x6620, symBinAddr: 0x50508, symSize: 0x2D0 }
  - { offset: 0x2D00D1, size: 0x8, addend: 0x0, symName: __ZNK14llama_kv_cache17build_graph_shiftEP16llm_graph_resultP13llama_context, symObjAddr: 0x6620, symBinAddr: 0x50508, symSize: 0x2D0 }
  - { offset: 0x2D091F, size: 0x8, addend: 0x0, symName: __ZNK14llama_kv_cache16build_rope_shiftERK13llama_cparamsP12ggml_contextP11ggml_tensorS6_S6_ff, symObjAddr: 0xC5FC, symBinAddr: 0x564E4, symSize: 0x110 }
  - { offset: 0x2D0AB7, size: 0x8, addend: 0x0, symName: __ZNK14llama_kv_cache13get_can_shiftEv, symObjAddr: 0x68F0, symBinAddr: 0x507D8, symSize: 0x8 }
  - { offset: 0x2D0ADD, size: 0x8, addend: 0x0, symName: __ZNK14llama_kv_cache12get_n_streamEv, symObjAddr: 0x68F8, symBinAddr: 0x507E0, symSize: 0x8 }
  - { offset: 0x2D0AFF, size: 0x8, addend: 0x0, symName: __ZNK14llama_kv_cache8get_n_kvERKNS_9slot_infoE, symObjAddr: 0x6900, symBinAddr: 0x507E8, symSize: 0xCC }
  - { offset: 0x2D0B3E, size: 0x8, addend: 0x0, symName: __ZNK14llama_kv_cache8get_n_kvERKNS_9slot_infoE, symObjAddr: 0x6900, symBinAddr: 0x507E8, symSize: 0xCC }
  - { offset: 0x2D0B5C, size: 0x8, addend: 0x0, symName: __ZNK14llama_kv_cache8get_n_kvERKNS_9slot_infoE, symObjAddr: 0x6900, symBinAddr: 0x507E8, symSize: 0xCC }
  - { offset: 0x2D0B79, size: 0x8, addend: 0x0, symName: __ZNK14llama_kv_cache8get_n_kvERKNS_9slot_infoE, symObjAddr: 0x6900, symBinAddr: 0x507E8, symSize: 0xCC }
  - { offset: 0x2D0DF1, size: 0x8, addend: 0x0, symName: __ZNK14llama_kv_cache5get_kEP12ggml_contextijRKNS_9slot_infoE, symObjAddr: 0x69CC, symBinAddr: 0x508B4, symSize: 0x200 }
  - { offset: 0x2D117D, size: 0x8, addend: 0x0, symName: __ZNK14llama_kv_cache5get_vEP12ggml_contextijRKNS_9slot_infoE, symObjAddr: 0x6BCC, symBinAddr: 0x50AB4, symSize: 0x294 }
  - { offset: 0x2D11C8, size: 0x8, addend: 0x0, symName: __ZNK14llama_kv_cache5get_vEP12ggml_contextijRKNS_9slot_infoE, symObjAddr: 0x6BCC, symBinAddr: 0x50AB4, symSize: 0x294 }
  - { offset: 0x2D156C, size: 0x8, addend: 0x0, symName: __ZNK14llama_kv_cache5cpy_kEP12ggml_contextP11ggml_tensorS3_iRKNS_9slot_infoE, symObjAddr: 0x6E60, symBinAddr: 0x50D48, symSize: 0x1F8 }
  - { offset: 0x2D1577, size: 0x8, addend: 0x0, symName: __ZNK14llama_kv_cache5cpy_kEP12ggml_contextP11ggml_tensorS3_iRKNS_9slot_infoE, symObjAddr: 0x6E60, symBinAddr: 0x50D48, symSize: 0x1F8 }
  - { offset: 0x2D193E, size: 0x8, addend: 0x0, symName: __ZNK14llama_kv_cache5cpy_vEP12ggml_contextP11ggml_tensorS3_iRKNS_9slot_infoE, symObjAddr: 0x7058, symBinAddr: 0x50F40, symSize: 0x2D0 }
  - { offset: 0x2D1995, size: 0x8, addend: 0x0, symName: __ZNK14llama_kv_cache5cpy_vEP12ggml_contextP11ggml_tensorS3_iRKNS_9slot_infoE, symObjAddr: 0x7058, symBinAddr: 0x50F40, symSize: 0x2D0 }
  - { offset: 0x2D1E5B, size: 0x8, addend: 0x0, symName: __ZNK14llama_kv_cache18build_input_k_idxsEP12ggml_contextRK12llama_ubatch, symObjAddr: 0x7328, symBinAddr: 0x51210, symSize: 0x34 }
  - { offset: 0x2D1ECF, size: 0x8, addend: 0x0, symName: __ZNK14llama_kv_cache18build_input_k_idxsEP12ggml_contextRK12llama_ubatch, symObjAddr: 0x7328, symBinAddr: 0x51210, symSize: 0x34 }
  - { offset: 0x2D1F3A, size: 0x8, addend: 0x0, symName: __ZNK14llama_kv_cache18build_input_v_idxsEP12ggml_contextRK12llama_ubatch, symObjAddr: 0x735C, symBinAddr: 0x51244, symSize: 0x54 }
  - { offset: 0x2D1FAD, size: 0x8, addend: 0x0, symName: __ZNK14llama_kv_cache16set_input_k_idxsEP11ggml_tensorPK12llama_ubatchRKNS_9slot_infoE, symObjAddr: 0x73B0, symBinAddr: 0x51298, symSize: 0x3F8 }
  - { offset: 0x2D214A, size: 0x8, addend: 0x0, symName: __ZNK14llama_kv_cache16set_input_v_idxsEP11ggml_tensorPK12llama_ubatchRKNS_9slot_infoE, symObjAddr: 0x77A8, symBinAddr: 0x51690, symSize: 0x5A4 }
  - { offset: 0x2D216F, size: 0x8, addend: 0x0, symName: __ZNK14llama_kv_cache16set_input_v_idxsEP11ggml_tensorPK12llama_ubatchRKNS_9slot_infoE, symObjAddr: 0x77A8, symBinAddr: 0x51690, symSize: 0x5A4 }
  - { offset: 0x2D244E, size: 0x8, addend: 0x0, symName: __ZNK14llama_kv_cache17set_input_k_shiftEP11ggml_tensor, symObjAddr: 0x7D4C, symBinAddr: 0x51C34, symSize: 0x310 }
  - { offset: 0x2D2461, size: 0x8, addend: 0x0, symName: __ZNK14llama_kv_cache17set_input_k_shiftEP11ggml_tensor, symObjAddr: 0x7D4C, symBinAddr: 0x51C34, symSize: 0x310 }
  - { offset: 0x2D2574, size: 0x8, addend: 0x0, symName: __ZNK14llama_kv_cache17set_input_kq_maskEP11ggml_tensorPK12llama_ubatchb, symObjAddr: 0x805C, symBinAddr: 0x51F44, symSize: 0x43F8 }
  - { offset: 0x2D4F4D, size: 0x8, addend: 0x0, symName: __ZNK14llama_kv_cache17set_input_kq_maskEP11ggml_tensorPK12llama_ubatchb, symObjAddr: 0x805C, symBinAddr: 0x51F44, symSize: 0x43F8 }
  - { offset: 0x2E4CFC, size: 0x8, addend: 0x0, symName: __ZNSt3__112__hash_tableINS_17__hash_value_typeIiNS_6vectorIjNS_9allocatorIjEEEEEENS_22__unordered_map_hasherIiS6_NS_4hashIiEENS_8equal_toIiEELb1EEENS_21__unordered_map_equalIiS6_SB_S9_Lb1EEENS3_IS6_EEE25__emplace_unique_key_argsIiJRKNS_21piecewise_construct_tENS_5tupleIJRKiEEENSL_IJEEEEEENS_4pairINS_15__hash_iteratorIPNS_11__hash_nodeIS6_PvEEEEbEERKT_DpOT0_, symObjAddr: 0x122B0, symBinAddr: 0x5B420, symSize: 0x334 }
  - { offset: 0x2E5434, size: 0x8, addend: 0x0, symName: __ZNSt3__112__hash_tableINS_17__hash_value_typeIijEENS_22__unordered_map_hasherIiS2_NS_4hashIiEENS_8equal_toIiEELb1EEENS_21__unordered_map_equalIiS2_S7_S5_Lb1EEENS_9allocatorIS2_EEE25__emplace_unique_key_argsIiJRKNS_21piecewise_construct_tENS_5tupleIJRKiEEENSI_IJEEEEEENS_4pairINS_15__hash_iteratorIPNS_11__hash_nodeIS2_PvEEEEbEERKT_DpOT0_, symObjAddr: 0x127C4, symBinAddr: 0x5B934, symSize: 0x324 }
  - { offset: 0x2E5B81, size: 0x8, addend: 0x0, symName: __ZNSt3__16vectorI14llama_kv_cellsNS_9allocatorIS1_EEE20__throw_out_of_rangeB8ne200100Ev, symObjAddr: 0x1229C, symBinAddr: 0x5B40C, symSize: 0x14 }
  - { offset: 0x2E5B99, size: 0x8, addend: 0x0, symName: __ZNSt3__112__hash_tableINS_17__hash_value_typeIiNS_6vectorIjNS_9allocatorIjEEEEEENS_22__unordered_map_hasherIiS6_NS_4hashIiEENS_8equal_toIiEELb1EEENS_21__unordered_map_equalIiS6_SB_S9_Lb1EEENS3_IS6_EEE25__emplace_unique_key_argsIiJRKNS_21piecewise_construct_tENS_5tupleIJRKiEEENSL_IJEEEEEENS_4pairINS_15__hash_iteratorIPNS_11__hash_nodeIS6_PvEEEEbEERKT_DpOT0_, symObjAddr: 0x122B0, symBinAddr: 0x5B420, symSize: 0x334 }
  - { offset: 0x2E5BA4, size: 0x8, addend: 0x0, symName: __ZNSt3__113unordered_mapIiNS_6vectorIjNS_9allocatorIjEEEENS_4hashIiEENS_8equal_toIiEENS2_INS_4pairIKiS4_EEEEED1B8ne200100Ev, symObjAddr: 0x121EC, symBinAddr: 0x5B35C, symSize: 0x68 }
  - { offset: 0x2E5FBF, size: 0x8, addend: 0x0, symName: __ZNSt3__113unordered_mapIijNS_4hashIiEENS_8equal_toIiEENS_9allocatorINS_4pairIKijEEEEED1B8ne200100Ev, symObjAddr: 0x12254, symBinAddr: 0x5B3C4, symSize: 0x48 }
  - { offset: 0x2E6268, size: 0x8, addend: 0x0, symName: __ZNK14llama_kv_cache20set_input_pos_bucketEP11ggml_tensorPK12llama_ubatch, symObjAddr: 0xC454, symBinAddr: 0x5633C, symSize: 0x144 }
  - { offset: 0x2E642D, size: 0x8, addend: 0x0, symName: __ZNK14llama_kv_cache10total_sizeEv, symObjAddr: 0xC598, symBinAddr: 0x56480, symSize: 0x64 }
  - { offset: 0x2E6465, size: 0x8, addend: 0x0, symName: __ZNK14llama_kv_cache10total_sizeEv, symObjAddr: 0xC598, symBinAddr: 0x56480, symSize: 0x64 }
  - { offset: 0x2E66A6, size: 0x8, addend: 0x0, symName: __ZN23llm_graph_input_k_shift9set_inputEPK12llama_ubatch, symObjAddr: 0xC70C, symBinAddr: 0x565F4, symSize: 0x314 }
  - { offset: 0x2E67E3, size: 0x8, addend: 0x0, symName: __ZNK14llama_kv_cache11state_writeER16llama_io_write_iij, symObjAddr: 0xCA20, symBinAddr: 0x56908, symSize: 0x53C }
  - { offset: 0x2E6F6C, size: 0x8, addend: 0x0, symName: __ZNK14llama_kv_cache11state_writeER16llama_io_write_iij, symObjAddr: 0xCA20, symBinAddr: 0x56908, symSize: 0x53C }
  - { offset: 0x2E7C48, size: 0x8, addend: 0x0, symName: __ZNK14llama_kv_cache16state_write_metaER16llama_io_write_iRKNS_13cell_ranges_tEi, symObjAddr: 0xCF5C, symBinAddr: 0x56E44, symSize: 0x27C }
  - { offset: 0x2E83F1, size: 0x8, addend: 0x0, symName: __ZNK14llama_kv_cache16state_write_dataER16llama_io_write_iRKNS_13cell_ranges_tE, symObjAddr: 0xD1D8, symBinAddr: 0x570C0, symSize: 0x384 }
  - { offset: 0x2E8C12, size: 0x8, addend: 0x0, symName: __ZNSt3__16vectorINS_4pairIjjEENS_9allocatorIS2_EEE20__throw_length_errorB8ne200100Ev, symObjAddr: 0x12C68, symBinAddr: 0x5BDD8, symSize: 0x14 }
  - { offset: 0x2E8C2A, size: 0x8, addend: 0x0, symName: __ZNSt3__16vectorIN14llama_kv_cache9slot_infoENS_9allocatorIS2_EEE8__appendEm, symObjAddr: 0x12C7C, symBinAddr: 0x5BDEC, symSize: 0x1D8 }
  - { offset: 0x2E8F1B, size: 0x8, addend: 0x0, symName: __ZN14llama_kv_cache10state_readER15llama_io_read_iij, symObjAddr: 0xD55C, symBinAddr: 0x57444, symSize: 0x2A0 }
  - { offset: 0x2E9561, size: 0x8, addend: 0x0, symName: __ZN14llama_kv_cache15state_read_metaER15llama_io_read_ijjRNS_9slot_infoEi, symObjAddr: 0xD7FC, symBinAddr: 0x576E4, symSize: 0x7D0 }
  - { offset: 0x2EA729, size: 0x8, addend: 0x0, symName: __ZN14llama_kv_cache15state_read_dataER15llama_io_read_ijjRKNS_9slot_infoE, symObjAddr: 0xDFCC, symBinAddr: 0x57EB4, symSize: 0x8B4 }
  - { offset: 0x2EB396, size: 0x8, addend: 0x0, symName: __ZN22llama_kv_cache_contextC2E19llama_memory_status, symObjAddr: 0xE880, symBinAddr: 0x58768, symSize: 0x38 }
  - { offset: 0x2EC06A, size: 0x8, addend: 0x0, symName: __ZN22llama_kv_cache_contextC2E19llama_memory_status, symObjAddr: 0xE880, symBinAddr: 0x58768, symSize: 0x38 }
  - { offset: 0x2EC10E, size: 0x8, addend: 0x0, symName: __ZN22llama_kv_cache_contextC1E19llama_memory_status, symObjAddr: 0xE8B8, symBinAddr: 0x587A0, symSize: 0x38 }
  - { offset: 0x2EC137, size: 0x8, addend: 0x0, symName: __ZN22llama_kv_cache_contextC1E19llama_memory_status, symObjAddr: 0xE8B8, symBinAddr: 0x587A0, symSize: 0x38 }
  - { offset: 0x2EC364, size: 0x8, addend: 0x0, symName: __ZNSt3__16vectorIN14llama_kv_cache9slot_infoENS_9allocatorIS2_EEE6resizeEm, symObjAddr: 0xEB80, symBinAddr: 0x58A68, symSize: 0xF0 }
  - { offset: 0x2EC86B, size: 0x8, addend: 0x0, symName: __ZNSt3__16vectorIN14llama_kv_cache9slot_infoENS_9allocatorIS2_EEE8__appendEm, symObjAddr: 0x12C7C, symBinAddr: 0x5BDEC, symSize: 0x1D8 }
  - { offset: 0x2ECDB2, size: 0x8, addend: 0x0, symName: __ZN22llama_kv_cache_contextC1EP14llama_kv_cache, symObjAddr: 0xEC70, symBinAddr: 0x58B58, symSize: 0x4 }
  - { offset: 0x2ECDDC, size: 0x8, addend: 0x0, symName: __ZN22llama_kv_cache_contextC1EP14llama_kv_cache, symObjAddr: 0xEC70, symBinAddr: 0x58B58, symSize: 0x4 }
  - { offset: 0x2ECDF6, size: 0x8, addend: 0x0, symName: __ZN22llama_kv_cache_contextC2EP14llama_kv_cacheP13llama_contextbNS0_16stream_copy_infoE, symObjAddr: 0xEC74, symBinAddr: 0x58B5C, symSize: 0x8C }
  - { offset: 0x2ECF95, size: 0x8, addend: 0x0, symName: __ZN22llama_kv_cache_contextC1EP14llama_kv_cacheP13llama_contextbNS0_16stream_copy_infoE, symObjAddr: 0xED00, symBinAddr: 0x58BE8, symSize: 0x8C }
  - { offset: 0x2ED16C, size: 0x8, addend: 0x0, symName: __ZN22llama_kv_cache_contextC2EP14llama_kv_cacheNSt3__16vectorINS0_9slot_infoENS2_9allocatorIS4_EEEENS3_I12llama_ubatchNS5_IS8_EEEE, symObjAddr: 0xED8C, symBinAddr: 0x58C74, symSize: 0x6C }
  - { offset: 0x2ED2BC, size: 0x8, addend: 0x0, symName: __ZN22llama_kv_cache_contextC1EP14llama_kv_cacheNSt3__16vectorINS0_9slot_infoENS2_9allocatorIS4_EEEENS3_I12llama_ubatchNS5_IS8_EEEE, symObjAddr: 0xEDF8, symBinAddr: 0x58CE0, symSize: 0x6C }
  - { offset: 0x2ED2F5, size: 0x8, addend: 0x0, symName: __ZN22llama_kv_cache_contextC1EP14llama_kv_cacheNSt3__16vectorINS0_9slot_infoENS2_9allocatorIS4_EEEENS3_I12llama_ubatchNS5_IS8_EEEE, symObjAddr: 0xEDF8, symBinAddr: 0x58CE0, symSize: 0x6C }
  - { offset: 0x2ED45C, size: 0x8, addend: 0x0, symName: __ZN22llama_kv_cache_contextD2Ev, symObjAddr: 0xEE64, symBinAddr: 0x58D4C, symSize: 0x158 }
  - { offset: 0x2EDE9A, size: 0x8, addend: 0x0, symName: __ZN22llama_kv_cache_contextD1Ev, symObjAddr: 0xEFBC, symBinAddr: 0x58EA4, symSize: 0x4 }
  - { offset: 0x2EDEBD, size: 0x8, addend: 0x0, symName: __ZN22llama_kv_cache_contextD1Ev, symObjAddr: 0xEFBC, symBinAddr: 0x58EA4, symSize: 0x4 }
  - { offset: 0x2EDEED, size: 0x8, addend: 0x0, symName: __ZN22llama_kv_cache_contextD0Ev, symObjAddr: 0xEFC0, symBinAddr: 0x58EA8, symSize: 0x14 }
  - { offset: 0x2EDF4B, size: 0x8, addend: 0x0, symName: __ZN22llama_kv_cache_context4nextEv, symObjAddr: 0xEFD4, symBinAddr: 0x58EBC, symSize: 0x38 }
  - { offset: 0x2EE026, size: 0x8, addend: 0x0, symName: __ZN22llama_kv_cache_context5applyEv, symObjAddr: 0xF00C, symBinAddr: 0x58EF4, symSize: 0x13C }
  - { offset: 0x2EE31F, size: 0x8, addend: 0x0, symName: __ZNK22llama_kv_cache_context10get_statusEv, symObjAddr: 0xF148, symBinAddr: 0x59030, symSize: 0x8 }
  - { offset: 0x2EE36B, size: 0x8, addend: 0x0, symName: __ZNK22llama_kv_cache_context10get_ubatchEv, symObjAddr: 0xF150, symBinAddr: 0x59038, symSize: 0x14 }
  - { offset: 0x2EE3BC, size: 0x8, addend: 0x0, symName: __ZNK22llama_kv_cache_context8get_n_kvEv, symObjAddr: 0xF164, symBinAddr: 0x5904C, symSize: 0x8 }
  - { offset: 0x2EE408, size: 0x8, addend: 0x0, symName: __ZNK22llama_kv_cache_context5get_kEP12ggml_contexti, symObjAddr: 0xF16C, symBinAddr: 0x59054, symSize: 0x1C }
  - { offset: 0x2EE492, size: 0x8, addend: 0x0, symName: __ZNK22llama_kv_cache_context5get_vEP12ggml_contexti, symObjAddr: 0xF188, symBinAddr: 0x59070, symSize: 0x1C }
  - { offset: 0x2EE51C, size: 0x8, addend: 0x0, symName: __ZNK22llama_kv_cache_context5cpy_kEP12ggml_contextP11ggml_tensorS3_i, symObjAddr: 0xF1A4, symBinAddr: 0x5908C, symSize: 0x8 }
  - { offset: 0x2EE5A9, size: 0x8, addend: 0x0, symName: __ZNK22llama_kv_cache_context5cpy_vEP12ggml_contextP11ggml_tensorS3_i, symObjAddr: 0xF1AC, symBinAddr: 0x59094, symSize: 0x8 }
  - { offset: 0x2EE67F, size: 0x8, addend: 0x0, symName: __ZNK22llama_kv_cache_context18build_input_k_idxsEP12ggml_contextRK12llama_ubatch, symObjAddr: 0xF1B4, symBinAddr: 0x5909C, symSize: 0x34 }
  - { offset: 0x2EE76B, size: 0x8, addend: 0x0, symName: __ZNK22llama_kv_cache_context18build_input_v_idxsEP12ggml_contextRK12llama_ubatch, symObjAddr: 0xF1E8, symBinAddr: 0x590D0, symSize: 0x58 }
  - { offset: 0x2EE81C, size: 0x8, addend: 0x0, symName: __ZNK22llama_kv_cache_context17set_input_k_shiftEP11ggml_tensor, symObjAddr: 0xF240, symBinAddr: 0x59128, symSize: 0x310 }
  - { offset: 0x2EE95E, size: 0x8, addend: 0x0, symName: __ZNK22llama_kv_cache_context16set_input_k_idxsEP11ggml_tensorPK12llama_ubatch, symObjAddr: 0xF550, symBinAddr: 0x59438, symSize: 0x18 }
  - { offset: 0x2EE971, size: 0x8, addend: 0x0, symName: __ZNK22llama_kv_cache_context16set_input_k_idxsEP11ggml_tensorPK12llama_ubatch, symObjAddr: 0xF550, symBinAddr: 0x59438, symSize: 0x18 }
  - { offset: 0x2EE9FB, size: 0x8, addend: 0x0, symName: __ZNK22llama_kv_cache_context16set_input_v_idxsEP11ggml_tensorPK12llama_ubatch, symObjAddr: 0xF568, symBinAddr: 0x59450, symSize: 0x18 }
  - { offset: 0x2EEA85, size: 0x8, addend: 0x0, symName: __ZNK22llama_kv_cache_context17set_input_kq_maskEP11ggml_tensorPK12llama_ubatchb, symObjAddr: 0xF580, symBinAddr: 0x59468, symSize: 0x8 }
  - { offset: 0x2EEB02, size: 0x8, addend: 0x0, symName: __ZNK22llama_kv_cache_context20set_input_pos_bucketEP11ggml_tensorPK12llama_ubatch, symObjAddr: 0xF588, symBinAddr: 0x59470, symSize: 0x8 }
  - { offset: 0x2EEB65, size: 0x8, addend: 0x0, symName: __ZN14llama_kv_cacheD1Ev, symObjAddr: 0xF590, symBinAddr: 0x59478, symSize: 0x4 }
  - { offset: 0x2EEB88, size: 0x8, addend: 0x0, symName: __ZN14llama_kv_cacheD1Ev, symObjAddr: 0xF590, symBinAddr: 0x59478, symSize: 0x4 }
  - { offset: 0x2EEB9B, size: 0x8, addend: 0x0, symName: __ZN14llama_kv_cacheD2Ev, symObjAddr: 0x1079C, symBinAddr: 0x59CB8, symSize: 0x190 }
  - { offset: 0x2EFB6D, size: 0x8, addend: 0x0, symName: __ZN14llama_kv_cacheD0Ev, symObjAddr: 0xF594, symBinAddr: 0x5947C, symSize: 0x14 }
  - { offset: 0x2EFBC7, size: 0x8, addend: 0x0, symName: __ZN23llm_graph_input_k_shiftD1Ev, symObjAddr: 0xF5A8, symBinAddr: 0x59490, symSize: 0x4 }
  - { offset: 0x2EFBF0, size: 0x8, addend: 0x0, symName: __ZN23llm_graph_input_k_shiftD0Ev, symObjAddr: 0xF5AC, symBinAddr: 0x59494, symSize: 0x4 }
  - { offset: 0x2EFFEF, size: 0x8, addend: 0x0, symName: __ZNSt3__16vectorI17llama_kv_cell_extNS_9allocatorIS1_EEE20__throw_length_errorB8ne200100Ev, symObjAddr: 0xF8B8, symBinAddr: 0x595B8, symSize: 0x14 }
  - { offset: 0x2F0007, size: 0x8, addend: 0x0, symName: __ZNSt3__16vectorINS_6bitsetILm256EEENS_9allocatorIS2_EEE8__appendEm, symObjAddr: 0xF8CC, symBinAddr: 0x595CC, symSize: 0x120 }
  - { offset: 0x2F0717, size: 0x8, addend: 0x0, symName: __ZNSt3__16vectorINS0_IjNS_9allocatorIjEEEENS1_IS3_EEE20__throw_length_errorB8ne200100Ev, symObjAddr: 0x1046C, symBinAddr: 0x59B40, symSize: 0x14 }
  - { offset: 0x2F072F, size: 0x8, addend: 0x0, symName: __ZNSt3__135__uninitialized_allocator_copy_implB8ne200100INS_9allocatorINS_6vectorIjNS1_IjEEEEEEPS4_S6_S6_EET2_RT_T0_T1_S7_, symObjAddr: 0x10480, symBinAddr: 0x59B54, symSize: 0xF8 }
  - { offset: 0x2F073A, size: 0x8, addend: 0x0, symName: __ZNSt3__128__exception_guard_exceptionsINS_6vectorINS1_IjNS_9allocatorIjEEEENS2_IS4_EEE16__destroy_vectorEED1B8ne200100Ev, symObjAddr: 0x103E8, symBinAddr: 0x59ABC, symSize: 0x84 }
  - { offset: 0x2F0AB7, size: 0x8, addend: 0x0, symName: __ZNSt3__128__exception_guard_exceptionsINS_29_AllocatorDestroyRangeReverseINS_9allocatorINS_6vectorIjNS2_IjEEEEEEPS5_EEED1B8ne200100Ev, symObjAddr: 0x10578, symBinAddr: 0x59C4C, symSize: 0x6C }
  - { offset: 0x2F1C4B, size: 0x8, addend: 0x0, symName: __ZNSt3__19allocatorI14llama_kv_cellsE9constructB8ne200100IS1_JS1_EEEvPT_DpOT0_, symObjAddr: 0x10F34, symBinAddr: 0x5A31C, symSize: 0x124 }
  - { offset: 0x2F1C7B, size: 0x8, addend: 0x0, symName: __ZNSt3__19allocatorI14llama_kv_cellsE9constructB8ne200100IS1_JS1_EEEvPT_DpOT0_, symObjAddr: 0x10F34, symBinAddr: 0x5A31C, symSize: 0x124 }
  - { offset: 0x2F1C9D, size: 0x8, addend: 0x0, symName: __ZNSt3__19allocatorI14llama_kv_cellsE9constructB8ne200100IS1_JS1_EEEvPT_DpOT0_, symObjAddr: 0x10F34, symBinAddr: 0x5A31C, symSize: 0x124 }
  - { offset: 0x2F246B, size: 0x8, addend: 0x0, symName: __ZNSt3__112__hash_tableINS_17__hash_value_typeIiiEENS_22__unordered_map_hasherIiS2_NS_4hashIiEENS_8equal_toIiEELb1EEENS_21__unordered_map_equalIiS2_S7_S5_Lb1EEENS_9allocatorIS2_EEE11__do_rehashILb1EEEvm, symObjAddr: 0x11610, symBinAddr: 0x5A998, symSize: 0x180 }
  - { offset: 0x2F27F8, size: 0x8, addend: 0x0, symName: __ZNSt3__16vectorIN14llama_kv_cache8kv_layerENS_9allocatorIS2_EEE24__emplace_back_slow_pathIJS2_EEEPS2_DpOT_, symObjAddr: 0x11790, symBinAddr: 0x5AB18, symSize: 0x1D4 }
  - { offset: 0x2F29F9, size: 0x8, addend: 0x0, symName: __ZNSt3__16vectorIN14llama_kv_cache8kv_layerENS_9allocatorIS2_EEE20__throw_length_errorB8ne200100Ev, symObjAddr: 0x11964, symBinAddr: 0x5ACEC, symSize: 0x14 }
  - { offset: 0x2F2A11, size: 0x8, addend: 0x0, symName: __ZNSt3__112__hash_tableINS_17__hash_value_typeIiiEENS_22__unordered_map_hasherIiS2_NS_4hashIiEENS_8equal_toIiEELb1EEENS_21__unordered_map_equalIiS2_S7_S5_Lb1EEENS_9allocatorIS2_EEE25__emplace_unique_key_argsIiJRKNS_21piecewise_construct_tENS_5tupleIJRKiEEENSI_IJEEEEEENS_4pairINS_15__hash_iteratorIPNS_11__hash_nodeIS2_PvEEEEbEERKT_DpOT0_, symObjAddr: 0x11978, symBinAddr: 0x5AD00, symSize: 0x324 }
  - { offset: 0x2F2D31, size: 0x8, addend: 0x0, symName: __ZNSt3__16vectorIN14llama_kv_cache9slot_infoENS_9allocatorIS2_EEE24__emplace_back_slow_pathIJRKS2_EEEPS2_DpOT_, symObjAddr: 0x11EC8, symBinAddr: 0x5B038, symSize: 0x14C }
  - { offset: 0x2F2EAA, size: 0x8, addend: 0x0, symName: __ZNSt3__16vectorIN14llama_kv_cache9slot_infoENS_9allocatorIS2_EEE20__throw_length_errorB8ne200100Ev, symObjAddr: 0x12014, symBinAddr: 0x5B184, symSize: 0x14 }
  - { offset: 0x2F2EC2, size: 0x8, addend: 0x0, symName: __ZNSt3__134__uninitialized_allocator_relocateB8ne200100INS_9allocatorIN14llama_kv_cache9slot_infoEEEPS3_EEvRT_T0_S8_S8_, symObjAddr: 0x12028, symBinAddr: 0x5B198, symSize: 0xF8 }
  - { offset: 0x2F2ECD, size: 0x8, addend: 0x0, symName: __ZNSt3__114__split_bufferIN14llama_kv_cache9slot_infoERNS_9allocatorIS2_EEED2Ev, symObjAddr: 0x12120, symBinAddr: 0x5B290, symSize: 0xB8 }
  - { offset: 0x2F39D8, size: 0x8, addend: 0x0, symName: __ZNSt3__112__hash_tableINS_17__hash_value_typeIiNS_6vectorIjNS_9allocatorIjEEEEEENS_22__unordered_map_hasherIiS6_NS_4hashIiEENS_8equal_toIiEELb1EEENS_21__unordered_map_equalIiS6_SB_S9_Lb1EEENS3_IS6_EEE11__do_rehashILb1EEEvm, symObjAddr: 0x12644, symBinAddr: 0x5B7B4, symSize: 0x180 }
  - { offset: 0x2F3D65, size: 0x8, addend: 0x0, symName: __ZNSt3__112__hash_tableINS_17__hash_value_typeIijEENS_22__unordered_map_hasherIiS2_NS_4hashIiEENS_8equal_toIiEELb1EEENS_21__unordered_map_equalIiS2_S7_S5_Lb1EEENS_9allocatorIS2_EEE25__emplace_unique_key_argsIiJRKNS_21piecewise_construct_tENS_5tupleIJRKiEEENSI_IJEEEEEENS_4pairINS_15__hash_iteratorIPNS_11__hash_nodeIS2_PvEEEEbEERKT_DpOT0_, symObjAddr: 0x127C4, symBinAddr: 0x5B934, symSize: 0x324 }
  - { offset: 0x2F3D7A, size: 0x8, addend: 0x0, symName: __ZNSt3__110unique_ptrINS_11__hash_nodeINS_17__hash_value_typeIiNS_6vectorIjNS_9allocatorIjEEEEEEPvEENS_22__hash_node_destructorINS4_IS9_EEEEED1B8ne200100Ev, symObjAddr: 0x125E4, symBinAddr: 0x5B754, symSize: 0x60 }
  - { offset: 0x2F458F, size: 0x8, addend: 0x0, symName: __ZNSt3__112__hash_tableINS_17__hash_value_typeIijEENS_22__unordered_map_hasherIiS2_NS_4hashIiEENS_8equal_toIiEELb1EEENS_21__unordered_map_equalIiS2_S7_S5_Lb1EEENS_9allocatorIS2_EEE11__do_rehashILb1EEEvm, symObjAddr: 0x12AE8, symBinAddr: 0x5BC58, symSize: 0x180 }
  - { offset: 0x2F491C, size: 0x8, addend: 0x0, symName: __ZNSt3__16vectorINS_4pairIjjEENS_9allocatorIS2_EEE20__throw_length_errorB8ne200100Ev, symObjAddr: 0x12C68, symBinAddr: 0x5BDD8, symSize: 0x14 }
  - { offset: 0x2F69A8, size: 0x8, addend: 0x0, symName: __ZN24llama_memory_hybrid_iswaC2ERK11llama_model9ggml_typeS3_bbjjjS3_S3_jjbbRKNSt3__18functionIFbiEEES9_, symObjAddr: 0x0, symBinAddr: 0x5BFC4, symSize: 0x340 }
  - { offset: 0x3222E6, size: 0x8, addend: 0x0, symName: __ZNSt3__111make_uniqueB8ne200100I32llama_memory_hybrid_iswa_contextJP24llama_memory_hybrid_iswaNS_6vectorIN14llama_kv_cache9slot_infoENS_9allocatorIS6_EEEES9_NS4_I12llama_ubatchNS7_ISA_EEEEELi0EEENS_10unique_ptrIT_NS_14default_deleteISE_EEEEDpOT0_, symObjAddr: 0x968, symBinAddr: 0x5C8D0, symSize: 0x25C }
  - { offset: 0x32D09E, size: 0x8, addend: 0x0, symName: __ZN24llama_memory_hybrid_iswaC1ERK11llama_model9ggml_typeS3_bbjjjS3_S3_jjbbRKNSt3__18functionIFbiEEES9_, symObjAddr: 0x340, symBinAddr: 0x5C304, symSize: 0x34 }
  - { offset: 0x32DCC1, size: 0x8, addend: 0x0, symName: __ZN24llama_memory_hybrid_iswaC2ERK11llama_model9ggml_typeS3_bbjjjS3_S3_jjbbRKNSt3__18functionIFbiEEES9_, symObjAddr: 0x0, symBinAddr: 0x5BFC4, symSize: 0x340 }
  - { offset: 0x32F1EE, size: 0x8, addend: 0x0, symName: __ZN24llama_memory_hybrid_iswa10init_batchER18llama_batch_allocrjb, symObjAddr: 0x374, symBinAddr: 0x5C338, symSize: 0x598 }
  - { offset: 0x331344, size: 0x8, addend: 0x0, symName: __ZN32llama_memory_hybrid_iswa_contextC2EP24llama_memory_hybrid_iswaNSt3__16vectorIN14llama_kv_cache9slot_infoENS2_9allocatorIS5_EEEES8_NS3_I12llama_ubatchNS6_IS9_EEEE, symObjAddr: 0x15F4, symBinAddr: 0x5D400, symSize: 0x5A4 }
  - { offset: 0x332F02, size: 0x8, addend: 0x0, symName: __ZN24llama_memory_hybrid_iswa9init_fullEv, symObjAddr: 0xD20, symBinAddr: 0x5CB2C, symSize: 0x54 }
  - { offset: 0x332FA8, size: 0x8, addend: 0x0, symName: __ZN32llama_memory_hybrid_iswa_contextC2EP24llama_memory_hybrid_iswa, symObjAddr: 0x138C, symBinAddr: 0x5D198, symSize: 0x120 }
  - { offset: 0x333257, size: 0x8, addend: 0x0, symName: __ZN24llama_memory_hybrid_iswa11init_updateEP13llama_contextb, symObjAddr: 0xD74, symBinAddr: 0x5CB80, symSize: 0x6C }
  - { offset: 0x33333A, size: 0x8, addend: 0x0, symName: __ZN32llama_memory_hybrid_iswa_contextC2EP24llama_memory_hybrid_iswaP13llama_contextb, symObjAddr: 0x14B0, symBinAddr: 0x5D2BC, symSize: 0x140 }
  - { offset: 0x3335DE, size: 0x8, addend: 0x0, symName: __ZNK24llama_memory_hybrid_iswa13get_can_shiftEv, symObjAddr: 0xDE0, symBinAddr: 0x5CBEC, symSize: 0x10 }
  - { offset: 0x333609, size: 0x8, addend: 0x0, symName: __ZNK24llama_memory_hybrid_iswa13get_can_shiftEv, symObjAddr: 0xDE0, symBinAddr: 0x5CBEC, symSize: 0x10 }
  - { offset: 0x333631, size: 0x8, addend: 0x0, symName: __ZN24llama_memory_hybrid_iswa5clearEb, symObjAddr: 0xDF0, symBinAddr: 0x5CBFC, symSize: 0x40 }
  - { offset: 0x3336C5, size: 0x8, addend: 0x0, symName: __ZN24llama_memory_hybrid_iswa6seq_rmEiii, symObjAddr: 0xE30, symBinAddr: 0x5CC3C, symSize: 0x6C }
  - { offset: 0x333785, size: 0x8, addend: 0x0, symName: __ZN24llama_memory_hybrid_iswa6seq_cpEiiii, symObjAddr: 0xE9C, symBinAddr: 0x5CCA8, symSize: 0x68 }
  - { offset: 0x33385B, size: 0x8, addend: 0x0, symName: __ZN24llama_memory_hybrid_iswa8seq_keepEi, symObjAddr: 0xF04, symBinAddr: 0x5CD10, symSize: 0x40 }
  - { offset: 0x3338EF, size: 0x8, addend: 0x0, symName: __ZN24llama_memory_hybrid_iswa7seq_addEiiii, symObjAddr: 0xF44, symBinAddr: 0x5CD50, symSize: 0x68 }
  - { offset: 0x3339C5, size: 0x8, addend: 0x0, symName: __ZN24llama_memory_hybrid_iswa7seq_divEiiii, symObjAddr: 0xFAC, symBinAddr: 0x5CDB8, symSize: 0x68 }
  - { offset: 0x333A9B, size: 0x8, addend: 0x0, symName: __ZNK24llama_memory_hybrid_iswa11seq_pos_minEi, symObjAddr: 0x1014, symBinAddr: 0x5CE20, symSize: 0x58 }
  - { offset: 0x333B36, size: 0x8, addend: 0x0, symName: __ZNK24llama_memory_hybrid_iswa11seq_pos_maxEi, symObjAddr: 0x106C, symBinAddr: 0x5CE78, symSize: 0x58 }
  - { offset: 0x334173, size: 0x8, addend: 0x0, symName: __ZNK24llama_memory_hybrid_iswa16memory_breakdownEv, symObjAddr: 0x10C4, symBinAddr: 0x5CED0, symSize: 0x1C0 }
  - { offset: 0x3348C7, size: 0x8, addend: 0x0, symName: __ZNK24llama_memory_hybrid_iswa11state_writeER16llama_io_write_iij, symObjAddr: 0x1284, symBinAddr: 0x5D090, symSize: 0x58 }
  - { offset: 0x334987, size: 0x8, addend: 0x0, symName: __ZN24llama_memory_hybrid_iswa10state_readER15llama_io_read_iij, symObjAddr: 0x12DC, symBinAddr: 0x5D0E8, symSize: 0x58 }
  - { offset: 0x334A5D, size: 0x8, addend: 0x0, symName: __ZNK24llama_memory_hybrid_iswa12get_mem_attnEv, symObjAddr: 0x1334, symBinAddr: 0x5D140, symSize: 0x8 }
  - { offset: 0x334A81, size: 0x8, addend: 0x0, symName: __ZNK24llama_memory_hybrid_iswa12get_mem_attnEv, symObjAddr: 0x1334, symBinAddr: 0x5D140, symSize: 0x8 }
  - { offset: 0x334AB3, size: 0x8, addend: 0x0, symName: __ZNK24llama_memory_hybrid_iswa12get_mem_recrEv, symObjAddr: 0x133C, symBinAddr: 0x5D148, symSize: 0x8 }
  - { offset: 0x334AD7, size: 0x8, addend: 0x0, symName: __ZNK24llama_memory_hybrid_iswa12get_mem_recrEv, symObjAddr: 0x133C, symBinAddr: 0x5D148, symSize: 0x8 }
  - { offset: 0x334AF3, size: 0x8, addend: 0x0, symName: __ZN32llama_memory_hybrid_iswa_contextC2E19llama_memory_status, symObjAddr: 0x1344, symBinAddr: 0x5D150, symSize: 0x24 }
  - { offset: 0x334B56, size: 0x8, addend: 0x0, symName: __ZN32llama_memory_hybrid_iswa_contextC1E19llama_memory_status, symObjAddr: 0x1368, symBinAddr: 0x5D174, symSize: 0x24 }
  - { offset: 0x334B7F, size: 0x8, addend: 0x0, symName: __ZN32llama_memory_hybrid_iswa_contextC1E19llama_memory_status, symObjAddr: 0x1368, symBinAddr: 0x5D174, symSize: 0x24 }
  - { offset: 0x334CD1, size: 0x8, addend: 0x0, symName: __ZN32llama_memory_hybrid_iswa_contextC1EP24llama_memory_hybrid_iswa, symObjAddr: 0x14AC, symBinAddr: 0x5D2B8, symSize: 0x4 }
  - { offset: 0x334CFB, size: 0x8, addend: 0x0, symName: __ZN32llama_memory_hybrid_iswa_contextC1EP24llama_memory_hybrid_iswa, symObjAddr: 0x14AC, symBinAddr: 0x5D2B8, symSize: 0x4 }
  - { offset: 0x334D15, size: 0x8, addend: 0x0, symName: __ZN32llama_memory_hybrid_iswa_contextC1EP24llama_memory_hybrid_iswaP13llama_contextb, symObjAddr: 0x15F0, symBinAddr: 0x5D3FC, symSize: 0x4 }
  - { offset: 0x334D52, size: 0x8, addend: 0x0, symName: __ZN32llama_memory_hybrid_iswa_contextC1EP24llama_memory_hybrid_iswaP13llama_contextb, symObjAddr: 0x15F0, symBinAddr: 0x5D3FC, symSize: 0x4 }
  - { offset: 0x335274, size: 0x8, addend: 0x0, symName: __ZN32llama_memory_hybrid_iswa_contextC1EP24llama_memory_hybrid_iswaNSt3__16vectorIN14llama_kv_cache9slot_infoENS2_9allocatorIS5_EEEES8_NS3_I12llama_ubatchNS6_IS9_EEEE, symObjAddr: 0x1B98, symBinAddr: 0x5D9A4, symSize: 0x4 }
  - { offset: 0x3352B6, size: 0x8, addend: 0x0, symName: __ZN32llama_memory_hybrid_iswa_contextC1EP24llama_memory_hybrid_iswaNSt3__16vectorIN14llama_kv_cache9slot_infoENS2_9allocatorIS5_EEEES8_NS3_I12llama_ubatchNS6_IS9_EEEE, symObjAddr: 0x1B98, symBinAddr: 0x5D9A4, symSize: 0x4 }
  - { offset: 0x3352E5, size: 0x8, addend: 0x0, symName: __ZN32llama_memory_hybrid_iswa_context4nextEv, symObjAddr: 0x1B9C, symBinAddr: 0x5D9A8, symSize: 0x70 }
  - { offset: 0x335380, size: 0x8, addend: 0x0, symName: __ZN32llama_memory_hybrid_iswa_context5applyEv, symObjAddr: 0x1C0C, symBinAddr: 0x5DA18, symSize: 0x44 }
  - { offset: 0x33540D, size: 0x8, addend: 0x0, symName: __ZNK32llama_memory_hybrid_iswa_context10get_statusEv, symObjAddr: 0x1C50, symBinAddr: 0x5DA5C, symSize: 0x8 }
  - { offset: 0x335459, size: 0x8, addend: 0x0, symName: __ZNK32llama_memory_hybrid_iswa_context10get_ubatchEv, symObjAddr: 0x1C58, symBinAddr: 0x5DA64, symSize: 0x10 }
  - { offset: 0x3354BF, size: 0x8, addend: 0x0, symName: __ZNK32llama_memory_hybrid_iswa_context8get_attnEv, symObjAddr: 0x1C68, symBinAddr: 0x5DA74, symSize: 0x8 }
  - { offset: 0x3354EB, size: 0x8, addend: 0x0, symName: __ZNK32llama_memory_hybrid_iswa_context8get_attnEv, symObjAddr: 0x1C68, symBinAddr: 0x5DA74, symSize: 0x8 }
  - { offset: 0x335508, size: 0x8, addend: 0x0, symName: __ZNK32llama_memory_hybrid_iswa_context8get_recrEv, symObjAddr: 0x1C70, symBinAddr: 0x5DA7C, symSize: 0x8 }
  - { offset: 0x335534, size: 0x8, addend: 0x0, symName: __ZNK32llama_memory_hybrid_iswa_context8get_recrEv, symObjAddr: 0x1C70, symBinAddr: 0x5DA7C, symSize: 0x8 }
  - { offset: 0x3355F4, size: 0x8, addend: 0x0, symName: __ZN24llama_memory_hybrid_iswaD1Ev, symObjAddr: 0x1C78, symBinAddr: 0x5DA84, symSize: 0x5C }
  - { offset: 0x335788, size: 0x8, addend: 0x0, symName: __ZN24llama_memory_hybrid_iswaD0Ev, symObjAddr: 0x1CD4, symBinAddr: 0x5DAE0, symSize: 0x5C }
  - { offset: 0x335941, size: 0x8, addend: 0x0, symName: __ZN32llama_memory_hybrid_iswa_contextD1Ev, symObjAddr: 0x1D30, symBinAddr: 0x5DB3C, symSize: 0xD4 }
  - { offset: 0x335D06, size: 0x8, addend: 0x0, symName: __ZN32llama_memory_hybrid_iswa_contextD0Ev, symObjAddr: 0x1E04, symBinAddr: 0x5DC10, symSize: 0xD4 }
  - { offset: 0x3360D6, size: 0x8, addend: 0x0, symName: '__ZNSt3__110__function6__funcIZN24llama_memory_hybrid_iswaC1ERK11llama_model9ggml_typeS6_bbjjjS6_S6_jjbbRKNS_8functionIFbiEEESB_E3$_0NS_9allocatorISC_EES8_ED1Ev', symObjAddr: 0x1ED8, symBinAddr: 0x5DCE4, symSize: 0x4 }
  - { offset: 0x336102, size: 0x8, addend: 0x0, symName: '__ZNSt3__110__function6__funcIZN24llama_memory_hybrid_iswaC1ERK11llama_model9ggml_typeS6_bbjjjS6_S6_jjbbRKNS_8functionIFbiEEESB_E3$_0NS_9allocatorISC_EES8_ED0Ev', symObjAddr: 0x1EDC, symBinAddr: 0x5DCE8, symSize: 0x4 }
  - { offset: 0x3361B9, size: 0x8, addend: 0x0, symName: '__ZNKSt3__110__function6__funcIZN24llama_memory_hybrid_iswaC1ERK11llama_model9ggml_typeS6_bbjjjS6_S6_jjbbRKNS_8functionIFbiEEESB_E3$_0NS_9allocatorISC_EES8_E7__cloneEv', symObjAddr: 0x1EE0, symBinAddr: 0x5DCEC, symSize: 0x34 }
  - { offset: 0x336309, size: 0x8, addend: 0x0, symName: '__ZNKSt3__110__function6__funcIZN24llama_memory_hybrid_iswaC1ERK11llama_model9ggml_typeS6_bbjjjS6_S6_jjbbRKNS_8functionIFbiEEESB_E3$_0NS_9allocatorISC_EES8_E7__cloneEPNS0_6__baseIS8_EE', symObjAddr: 0x1F14, symBinAddr: 0x5DD20, symSize: 0x14 }
  - { offset: 0x336376, size: 0x8, addend: 0x0, symName: '__ZNSt3__110__function6__funcIZN24llama_memory_hybrid_iswaC1ERK11llama_model9ggml_typeS6_bbjjjS6_S6_jjbbRKNS_8functionIFbiEEESB_E3$_0NS_9allocatorISC_EES8_E7destroyEv', symObjAddr: 0x1F28, symBinAddr: 0x5DD34, symSize: 0x4 }
  - { offset: 0x3363CB, size: 0x8, addend: 0x0, symName: '__ZNSt3__110__function6__funcIZN24llama_memory_hybrid_iswaC1ERK11llama_model9ggml_typeS6_bbjjjS6_S6_jjbbRKNS_8functionIFbiEEESB_E3$_0NS_9allocatorISC_EES8_E18destroy_deallocateEv', symObjAddr: 0x1F2C, symBinAddr: 0x5DD38, symSize: 0x4 }
  - { offset: 0x3363FE, size: 0x8, addend: 0x0, symName: '__ZNSt3__110__function6__funcIZN24llama_memory_hybrid_iswaC1ERK11llama_model9ggml_typeS6_bbjjjS6_S6_jjbbRKNS_8functionIFbiEEESB_E3$_0NS_9allocatorISC_EES8_E18destroy_deallocateEv', symObjAddr: 0x1F2C, symBinAddr: 0x5DD38, symSize: 0x4 }
  - { offset: 0x336421, size: 0x8, addend: 0x0, symName: '__ZNSt3__110__function6__funcIZN24llama_memory_hybrid_iswaC1ERK11llama_model9ggml_typeS6_bbjjjS6_S6_jjbbRKNS_8functionIFbiEEESB_E3$_0NS_9allocatorISC_EES8_E18destroy_deallocateEv', symObjAddr: 0x1F2C, symBinAddr: 0x5DD38, symSize: 0x4 }
  - { offset: 0x336454, size: 0x8, addend: 0x0, symName: '__ZNSt3__110__function6__funcIZN24llama_memory_hybrid_iswaC1ERK11llama_model9ggml_typeS6_bbjjjS6_S6_jjbbRKNS_8functionIFbiEEESB_E3$_0NS_9allocatorISC_EES8_E18destroy_deallocateEv', symObjAddr: 0x1F2C, symBinAddr: 0x5DD38, symSize: 0x4 }
  - { offset: 0x3364F6, size: 0x8, addend: 0x0, symName: '__ZNSt3__110__function6__funcIZN24llama_memory_hybrid_iswaC1ERK11llama_model9ggml_typeS6_bbjjjS6_S6_jjbbRKNS_8functionIFbiEEESB_E3$_0NS_9allocatorISC_EES8_EclEOi', symObjAddr: 0x1F30, symBinAddr: 0x5DD3C, symSize: 0x24 }
  - { offset: 0x3365FA, size: 0x8, addend: 0x0, symName: '__ZNKSt3__110__function6__funcIZN24llama_memory_hybrid_iswaC1ERK11llama_model9ggml_typeS6_bbjjjS6_S6_jjbbRKNS_8functionIFbiEEESB_E3$_0NS_9allocatorISC_EES8_E6targetERKSt9type_info', symObjAddr: 0x1F54, symBinAddr: 0x5DD60, symSize: 0x64 }
  - { offset: 0x3366C5, size: 0x8, addend: 0x0, symName: '__ZNKSt3__110__function6__funcIZN24llama_memory_hybrid_iswaC1ERK11llama_model9ggml_typeS6_bbjjjS6_S6_jjbbRKNS_8functionIFbiEEESB_E3$_0NS_9allocatorISC_EES8_E11target_typeEv', symObjAddr: 0x1FB8, symBinAddr: 0x5DDC4, symSize: 0xC }
  - { offset: 0x3366E8, size: 0x8, addend: 0x0, symName: '__ZNSt3__110__function6__funcIZN24llama_memory_hybrid_iswaC1ERK11llama_model9ggml_typeS6_bbjjjS6_S6_jjbbRKNS_8functionIFbiEEESB_E3$_1NS_9allocatorISC_EES8_ED1Ev', symObjAddr: 0x1FEC, symBinAddr: 0x5DDD0, symSize: 0x4 }
  - { offset: 0x336714, size: 0x8, addend: 0x0, symName: '__ZNSt3__110__function6__funcIZN24llama_memory_hybrid_iswaC1ERK11llama_model9ggml_typeS6_bbjjjS6_S6_jjbbRKNS_8functionIFbiEEESB_E3$_1NS_9allocatorISC_EES8_ED0Ev', symObjAddr: 0x1FF0, symBinAddr: 0x5DDD4, symSize: 0x4 }
  - { offset: 0x3367CB, size: 0x8, addend: 0x0, symName: '__ZNKSt3__110__function6__funcIZN24llama_memory_hybrid_iswaC1ERK11llama_model9ggml_typeS6_bbjjjS6_S6_jjbbRKNS_8functionIFbiEEESB_E3$_1NS_9allocatorISC_EES8_E7__cloneEv', symObjAddr: 0x1FF4, symBinAddr: 0x5DDD8, symSize: 0x34 }
  - { offset: 0x33691B, size: 0x8, addend: 0x0, symName: '__ZNKSt3__110__function6__funcIZN24llama_memory_hybrid_iswaC1ERK11llama_model9ggml_typeS6_bbjjjS6_S6_jjbbRKNS_8functionIFbiEEESB_E3$_1NS_9allocatorISC_EES8_E7__cloneEPNS0_6__baseIS8_EE', symObjAddr: 0x2028, symBinAddr: 0x5DE0C, symSize: 0x14 }
  - { offset: 0x336988, size: 0x8, addend: 0x0, symName: '__ZNSt3__110__function6__funcIZN24llama_memory_hybrid_iswaC1ERK11llama_model9ggml_typeS6_bbjjjS6_S6_jjbbRKNS_8functionIFbiEEESB_E3$_1NS_9allocatorISC_EES8_E7destroyEv', symObjAddr: 0x203C, symBinAddr: 0x5DE20, symSize: 0x4 }
  - { offset: 0x3369DD, size: 0x8, addend: 0x0, symName: '__ZNSt3__110__function6__funcIZN24llama_memory_hybrid_iswaC1ERK11llama_model9ggml_typeS6_bbjjjS6_S6_jjbbRKNS_8functionIFbiEEESB_E3$_1NS_9allocatorISC_EES8_E18destroy_deallocateEv', symObjAddr: 0x2040, symBinAddr: 0x5DE24, symSize: 0x4 }
  - { offset: 0x336A10, size: 0x8, addend: 0x0, symName: '__ZNSt3__110__function6__funcIZN24llama_memory_hybrid_iswaC1ERK11llama_model9ggml_typeS6_bbjjjS6_S6_jjbbRKNS_8functionIFbiEEESB_E3$_1NS_9allocatorISC_EES8_E18destroy_deallocateEv', symObjAddr: 0x2040, symBinAddr: 0x5DE24, symSize: 0x4 }
  - { offset: 0x336A33, size: 0x8, addend: 0x0, symName: '__ZNSt3__110__function6__funcIZN24llama_memory_hybrid_iswaC1ERK11llama_model9ggml_typeS6_bbjjjS6_S6_jjbbRKNS_8functionIFbiEEESB_E3$_1NS_9allocatorISC_EES8_E18destroy_deallocateEv', symObjAddr: 0x2040, symBinAddr: 0x5DE24, symSize: 0x4 }
  - { offset: 0x336A66, size: 0x8, addend: 0x0, symName: '__ZNSt3__110__function6__funcIZN24llama_memory_hybrid_iswaC1ERK11llama_model9ggml_typeS6_bbjjjS6_S6_jjbbRKNS_8functionIFbiEEESB_E3$_1NS_9allocatorISC_EES8_E18destroy_deallocateEv', symObjAddr: 0x2040, symBinAddr: 0x5DE24, symSize: 0x4 }
  - { offset: 0x336B08, size: 0x8, addend: 0x0, symName: '__ZNSt3__110__function6__funcIZN24llama_memory_hybrid_iswaC1ERK11llama_model9ggml_typeS6_bbjjjS6_S6_jjbbRKNS_8functionIFbiEEESB_E3$_1NS_9allocatorISC_EES8_EclEOi', symObjAddr: 0x2044, symBinAddr: 0x5DE28, symSize: 0x10 }
  - { offset: 0x336BB1, size: 0x8, addend: 0x0, symName: '__ZNKSt3__110__function6__funcIZN24llama_memory_hybrid_iswaC1ERK11llama_model9ggml_typeS6_bbjjjS6_S6_jjbbRKNS_8functionIFbiEEESB_E3$_1NS_9allocatorISC_EES8_E6targetERKSt9type_info', symObjAddr: 0x2054, symBinAddr: 0x5DE38, symSize: 0x64 }
  - { offset: 0x336C65, size: 0x8, addend: 0x0, symName: '__ZNKSt3__110__function6__funcIZN24llama_memory_hybrid_iswaC1ERK11llama_model9ggml_typeS6_bbjjjS6_S6_jjbbRKNS_8functionIFbiEEESB_E3$_1NS_9allocatorISC_EES8_E11target_typeEv', symObjAddr: 0x20B8, symBinAddr: 0x5DE9C, symSize: 0xC }
  - { offset: 0x338E59, size: 0x8, addend: 0x0, symName: __ZN19llama_memory_hybridC2ERK11llama_model9ggml_typeS3_bjjj14llama_swa_typeS3_S3_jjbbRKNSt3__18functionIFbiEEESA_, symObjAddr: 0x0, symBinAddr: 0x5DEA8, symSize: 0x340 }
  - { offset: 0x364606, size: 0x8, addend: 0x0, symName: __ZNSt3__111make_uniqueB8ne200100I27llama_memory_hybrid_contextJP19llama_memory_hybridNS_6vectorIN14llama_kv_cache9slot_infoENS_9allocatorIS6_EEEENS4_I12llama_ubatchNS7_ISA_EEEEELi0EEENS_10unique_ptrIT_NS_14default_deleteISE_EEEEDpOT0_, symObjAddr: 0x96C, symBinAddr: 0x5E7B8, symSize: 0x1B0 }
  - { offset: 0x36E8DC, size: 0x8, addend: 0x0, symName: __ZN19llama_memory_hybridC1ERK11llama_model9ggml_typeS3_bjjj14llama_swa_typeS3_S3_jjbbRKNSt3__18functionIFbiEEESA_, symObjAddr: 0x340, symBinAddr: 0x5E1E8, symSize: 0x34 }
  - { offset: 0x36F4FA, size: 0x8, addend: 0x0, symName: __ZN19llama_memory_hybridC2ERK11llama_model9ggml_typeS3_bjjj14llama_swa_typeS3_S3_jjbbRKNSt3__18functionIFbiEEESA_, symObjAddr: 0x0, symBinAddr: 0x5DEA8, symSize: 0x340 }
  - { offset: 0x370A27, size: 0x8, addend: 0x0, symName: __ZN19llama_memory_hybrid10init_batchER18llama_batch_allocrjb, symObjAddr: 0x374, symBinAddr: 0x5E21C, symSize: 0x59C }
  - { offset: 0x3726A5, size: 0x8, addend: 0x0, symName: __ZN27llama_memory_hybrid_contextC2EP19llama_memory_hybridNSt3__16vectorIN14llama_kv_cache9slot_infoENS2_9allocatorIS5_EEEENS3_I12llama_ubatchNS6_IS9_EEEE, symObjAddr: 0x1554, symBinAddr: 0x5F244, symSize: 0x4E8 }
  - { offset: 0x373CAF, size: 0x8, addend: 0x0, symName: __ZN19llama_memory_hybrid9init_fullEv, symObjAddr: 0xC78, symBinAddr: 0x5E968, symSize: 0x54 }
  - { offset: 0x373D55, size: 0x8, addend: 0x0, symName: __ZN27llama_memory_hybrid_contextC2EP19llama_memory_hybrid, symObjAddr: 0x12EC, symBinAddr: 0x5EFDC, symSize: 0x120 }
  - { offset: 0x374004, size: 0x8, addend: 0x0, symName: __ZN19llama_memory_hybrid11init_updateEP13llama_contextb, symObjAddr: 0xCCC, symBinAddr: 0x5E9BC, symSize: 0x6C }
  - { offset: 0x3740E7, size: 0x8, addend: 0x0, symName: __ZN27llama_memory_hybrid_contextC2EP19llama_memory_hybridP13llama_contextb, symObjAddr: 0x1410, symBinAddr: 0x5F100, symSize: 0x140 }
  - { offset: 0x37438B, size: 0x8, addend: 0x0, symName: __ZNK19llama_memory_hybrid13get_can_shiftEv, symObjAddr: 0xD38, symBinAddr: 0x5EA28, symSize: 0x10 }
  - { offset: 0x3743B6, size: 0x8, addend: 0x0, symName: __ZNK19llama_memory_hybrid13get_can_shiftEv, symObjAddr: 0xD38, symBinAddr: 0x5EA28, symSize: 0x10 }
  - { offset: 0x3743DE, size: 0x8, addend: 0x0, symName: __ZN19llama_memory_hybrid5clearEb, symObjAddr: 0xD48, symBinAddr: 0x5EA38, symSize: 0x40 }
  - { offset: 0x374472, size: 0x8, addend: 0x0, symName: __ZN19llama_memory_hybrid6seq_rmEiii, symObjAddr: 0xD88, symBinAddr: 0x5EA78, symSize: 0x6C }
  - { offset: 0x374532, size: 0x8, addend: 0x0, symName: __ZN19llama_memory_hybrid6seq_cpEiiii, symObjAddr: 0xDF4, symBinAddr: 0x5EAE4, symSize: 0x68 }
  - { offset: 0x374608, size: 0x8, addend: 0x0, symName: __ZN19llama_memory_hybrid8seq_keepEi, symObjAddr: 0xE5C, symBinAddr: 0x5EB4C, symSize: 0x40 }
  - { offset: 0x37469C, size: 0x8, addend: 0x0, symName: __ZN19llama_memory_hybrid7seq_addEiiii, symObjAddr: 0xE9C, symBinAddr: 0x5EB8C, symSize: 0x68 }
  - { offset: 0x374772, size: 0x8, addend: 0x0, symName: __ZN19llama_memory_hybrid7seq_divEiiii, symObjAddr: 0xF04, symBinAddr: 0x5EBF4, symSize: 0x68 }
  - { offset: 0x374848, size: 0x8, addend: 0x0, symName: __ZNK19llama_memory_hybrid11seq_pos_minEi, symObjAddr: 0xF6C, symBinAddr: 0x5EC5C, symSize: 0x58 }
  - { offset: 0x3748E3, size: 0x8, addend: 0x0, symName: __ZNK19llama_memory_hybrid11seq_pos_maxEi, symObjAddr: 0xFC4, symBinAddr: 0x5ECB4, symSize: 0x58 }
  - { offset: 0x374F20, size: 0x8, addend: 0x0, symName: __ZNK19llama_memory_hybrid16memory_breakdownEv, symObjAddr: 0x101C, symBinAddr: 0x5ED0C, symSize: 0x1C0 }
  - { offset: 0x375674, size: 0x8, addend: 0x0, symName: __ZNK19llama_memory_hybrid11state_writeER16llama_io_write_iij, symObjAddr: 0x11DC, symBinAddr: 0x5EECC, symSize: 0x5C }
  - { offset: 0x37571E, size: 0x8, addend: 0x0, symName: __ZN19llama_memory_hybrid10state_readER15llama_io_read_iij, symObjAddr: 0x1238, symBinAddr: 0x5EF28, symSize: 0x5C }
  - { offset: 0x3757DE, size: 0x8, addend: 0x0, symName: __ZNK19llama_memory_hybrid12get_mem_attnEv, symObjAddr: 0x1294, symBinAddr: 0x5EF84, symSize: 0x8 }
  - { offset: 0x375802, size: 0x8, addend: 0x0, symName: __ZNK19llama_memory_hybrid12get_mem_attnEv, symObjAddr: 0x1294, symBinAddr: 0x5EF84, symSize: 0x8 }
  - { offset: 0x375834, size: 0x8, addend: 0x0, symName: __ZNK19llama_memory_hybrid12get_mem_recrEv, symObjAddr: 0x129C, symBinAddr: 0x5EF8C, symSize: 0x8 }
  - { offset: 0x375858, size: 0x8, addend: 0x0, symName: __ZNK19llama_memory_hybrid12get_mem_recrEv, symObjAddr: 0x129C, symBinAddr: 0x5EF8C, symSize: 0x8 }
  - { offset: 0x375874, size: 0x8, addend: 0x0, symName: __ZN27llama_memory_hybrid_contextC2E19llama_memory_status, symObjAddr: 0x12A4, symBinAddr: 0x5EF94, symSize: 0x24 }
  - { offset: 0x3758D7, size: 0x8, addend: 0x0, symName: __ZN27llama_memory_hybrid_contextC1E19llama_memory_status, symObjAddr: 0x12C8, symBinAddr: 0x5EFB8, symSize: 0x24 }
  - { offset: 0x375900, size: 0x8, addend: 0x0, symName: __ZN27llama_memory_hybrid_contextC1E19llama_memory_status, symObjAddr: 0x12C8, symBinAddr: 0x5EFB8, symSize: 0x24 }
  - { offset: 0x375A52, size: 0x8, addend: 0x0, symName: __ZN27llama_memory_hybrid_contextC1EP19llama_memory_hybrid, symObjAddr: 0x140C, symBinAddr: 0x5F0FC, symSize: 0x4 }
  - { offset: 0x375A7C, size: 0x8, addend: 0x0, symName: __ZN27llama_memory_hybrid_contextC1EP19llama_memory_hybrid, symObjAddr: 0x140C, symBinAddr: 0x5F0FC, symSize: 0x4 }
  - { offset: 0x375A96, size: 0x8, addend: 0x0, symName: __ZN27llama_memory_hybrid_contextC1EP19llama_memory_hybridP13llama_contextb, symObjAddr: 0x1550, symBinAddr: 0x5F240, symSize: 0x4 }
  - { offset: 0x375AD3, size: 0x8, addend: 0x0, symName: __ZN27llama_memory_hybrid_contextC1EP19llama_memory_hybridP13llama_contextb, symObjAddr: 0x1550, symBinAddr: 0x5F240, symSize: 0x4 }
  - { offset: 0x375FF5, size: 0x8, addend: 0x0, symName: __ZN27llama_memory_hybrid_contextC1EP19llama_memory_hybridNSt3__16vectorIN14llama_kv_cache9slot_infoENS2_9allocatorIS5_EEEENS3_I12llama_ubatchNS6_IS9_EEEE, symObjAddr: 0x1A3C, symBinAddr: 0x5F72C, symSize: 0x4 }
  - { offset: 0x37602F, size: 0x8, addend: 0x0, symName: __ZN27llama_memory_hybrid_contextC1EP19llama_memory_hybridNSt3__16vectorIN14llama_kv_cache9slot_infoENS2_9allocatorIS5_EEEENS3_I12llama_ubatchNS6_IS9_EEEE, symObjAddr: 0x1A3C, symBinAddr: 0x5F72C, symSize: 0x4 }
  - { offset: 0x376057, size: 0x8, addend: 0x0, symName: __ZN27llama_memory_hybrid_context4nextEv, symObjAddr: 0x1A40, symBinAddr: 0x5F730, symSize: 0x70 }
  - { offset: 0x3760F2, size: 0x8, addend: 0x0, symName: __ZN27llama_memory_hybrid_context5applyEv, symObjAddr: 0x1AB0, symBinAddr: 0x5F7A0, symSize: 0x44 }
  - { offset: 0x37617F, size: 0x8, addend: 0x0, symName: __ZNK27llama_memory_hybrid_context10get_statusEv, symObjAddr: 0x1AF4, symBinAddr: 0x5F7E4, symSize: 0x8 }
  - { offset: 0x3761CA, size: 0x8, addend: 0x0, symName: __ZNK27llama_memory_hybrid_context10get_ubatchEv, symObjAddr: 0x1AFC, symBinAddr: 0x5F7EC, symSize: 0x10 }
  - { offset: 0x376230, size: 0x8, addend: 0x0, symName: __ZNK27llama_memory_hybrid_context8get_attnEv, symObjAddr: 0x1B0C, symBinAddr: 0x5F7FC, symSize: 0x8 }
  - { offset: 0x37625C, size: 0x8, addend: 0x0, symName: __ZNK27llama_memory_hybrid_context8get_attnEv, symObjAddr: 0x1B0C, symBinAddr: 0x5F7FC, symSize: 0x8 }
  - { offset: 0x376279, size: 0x8, addend: 0x0, symName: __ZNK27llama_memory_hybrid_context8get_recrEv, symObjAddr: 0x1B14, symBinAddr: 0x5F804, symSize: 0x8 }
  - { offset: 0x3762A5, size: 0x8, addend: 0x0, symName: __ZNK27llama_memory_hybrid_context8get_recrEv, symObjAddr: 0x1B14, symBinAddr: 0x5F804, symSize: 0x8 }
  - { offset: 0x376365, size: 0x8, addend: 0x0, symName: __ZN19llama_memory_hybridD1Ev, symObjAddr: 0x1B1C, symBinAddr: 0x5F80C, symSize: 0x5C }
  - { offset: 0x3764F9, size: 0x8, addend: 0x0, symName: __ZN19llama_memory_hybridD0Ev, symObjAddr: 0x1B78, symBinAddr: 0x5F868, symSize: 0x5C }
  - { offset: 0x3766B2, size: 0x8, addend: 0x0, symName: __ZN27llama_memory_hybrid_contextD1Ev, symObjAddr: 0x1BD4, symBinAddr: 0x5F8C4, symSize: 0xD4 }
  - { offset: 0x376A77, size: 0x8, addend: 0x0, symName: __ZN27llama_memory_hybrid_contextD0Ev, symObjAddr: 0x1CA8, symBinAddr: 0x5F998, symSize: 0xD4 }
  - { offset: 0x376E47, size: 0x8, addend: 0x0, symName: '__ZNSt3__110__function6__funcIZN19llama_memory_hybridC1ERK11llama_model9ggml_typeS6_bjjj14llama_swa_typeS6_S6_jjbbRKNS_8functionIFbiEEESC_E3$_0NS_9allocatorISD_EES9_ED1Ev', symObjAddr: 0x1D7C, symBinAddr: 0x5FA6C, symSize: 0x4 }
  - { offset: 0x376E73, size: 0x8, addend: 0x0, symName: '__ZNSt3__110__function6__funcIZN19llama_memory_hybridC1ERK11llama_model9ggml_typeS6_bjjj14llama_swa_typeS6_S6_jjbbRKNS_8functionIFbiEEESC_E3$_0NS_9allocatorISD_EES9_ED0Ev', symObjAddr: 0x1D80, symBinAddr: 0x5FA70, symSize: 0x4 }
  - { offset: 0x376F2A, size: 0x8, addend: 0x0, symName: '__ZNKSt3__110__function6__funcIZN19llama_memory_hybridC1ERK11llama_model9ggml_typeS6_bjjj14llama_swa_typeS6_S6_jjbbRKNS_8functionIFbiEEESC_E3$_0NS_9allocatorISD_EES9_E7__cloneEv', symObjAddr: 0x1D84, symBinAddr: 0x5FA74, symSize: 0x34 }
  - { offset: 0x37707A, size: 0x8, addend: 0x0, symName: '__ZNKSt3__110__function6__funcIZN19llama_memory_hybridC1ERK11llama_model9ggml_typeS6_bjjj14llama_swa_typeS6_S6_jjbbRKNS_8functionIFbiEEESC_E3$_0NS_9allocatorISD_EES9_E7__cloneEPNS0_6__baseIS9_EE', symObjAddr: 0x1DB8, symBinAddr: 0x5FAA8, symSize: 0x14 }
  - { offset: 0x3770E7, size: 0x8, addend: 0x0, symName: '__ZNSt3__110__function6__funcIZN19llama_memory_hybridC1ERK11llama_model9ggml_typeS6_bjjj14llama_swa_typeS6_S6_jjbbRKNS_8functionIFbiEEESC_E3$_0NS_9allocatorISD_EES9_E7destroyEv', symObjAddr: 0x1DCC, symBinAddr: 0x5FABC, symSize: 0x4 }
  - { offset: 0x37713C, size: 0x8, addend: 0x0, symName: '__ZNSt3__110__function6__funcIZN19llama_memory_hybridC1ERK11llama_model9ggml_typeS6_bjjj14llama_swa_typeS6_S6_jjbbRKNS_8functionIFbiEEESC_E3$_0NS_9allocatorISD_EES9_E18destroy_deallocateEv', symObjAddr: 0x1DD0, symBinAddr: 0x5FAC0, symSize: 0x4 }
  - { offset: 0x37716F, size: 0x8, addend: 0x0, symName: '__ZNSt3__110__function6__funcIZN19llama_memory_hybridC1ERK11llama_model9ggml_typeS6_bjjj14llama_swa_typeS6_S6_jjbbRKNS_8functionIFbiEEESC_E3$_0NS_9allocatorISD_EES9_E18destroy_deallocateEv', symObjAddr: 0x1DD0, symBinAddr: 0x5FAC0, symSize: 0x4 }
  - { offset: 0x377192, size: 0x8, addend: 0x0, symName: '__ZNSt3__110__function6__funcIZN19llama_memory_hybridC1ERK11llama_model9ggml_typeS6_bjjj14llama_swa_typeS6_S6_jjbbRKNS_8functionIFbiEEESC_E3$_0NS_9allocatorISD_EES9_E18destroy_deallocateEv', symObjAddr: 0x1DD0, symBinAddr: 0x5FAC0, symSize: 0x4 }
  - { offset: 0x3771C5, size: 0x8, addend: 0x0, symName: '__ZNSt3__110__function6__funcIZN19llama_memory_hybridC1ERK11llama_model9ggml_typeS6_bjjj14llama_swa_typeS6_S6_jjbbRKNS_8functionIFbiEEESC_E3$_0NS_9allocatorISD_EES9_E18destroy_deallocateEv', symObjAddr: 0x1DD0, symBinAddr: 0x5FAC0, symSize: 0x4 }
  - { offset: 0x377267, size: 0x8, addend: 0x0, symName: '__ZNSt3__110__function6__funcIZN19llama_memory_hybridC1ERK11llama_model9ggml_typeS6_bjjj14llama_swa_typeS6_S6_jjbbRKNS_8functionIFbiEEESC_E3$_0NS_9allocatorISD_EES9_EclEOi', symObjAddr: 0x1DD4, symBinAddr: 0x5FAC4, symSize: 0x24 }
  - { offset: 0x37736B, size: 0x8, addend: 0x0, symName: '__ZNKSt3__110__function6__funcIZN19llama_memory_hybridC1ERK11llama_model9ggml_typeS6_bjjj14llama_swa_typeS6_S6_jjbbRKNS_8functionIFbiEEESC_E3$_0NS_9allocatorISD_EES9_E6targetERKSt9type_info', symObjAddr: 0x1DF8, symBinAddr: 0x5FAE8, symSize: 0x64 }
  - { offset: 0x377436, size: 0x8, addend: 0x0, symName: '__ZNKSt3__110__function6__funcIZN19llama_memory_hybridC1ERK11llama_model9ggml_typeS6_bjjj14llama_swa_typeS6_S6_jjbbRKNS_8functionIFbiEEESC_E3$_0NS_9allocatorISD_EES9_E11target_typeEv', symObjAddr: 0x1E5C, symBinAddr: 0x5FB4C, symSize: 0xC }
  - { offset: 0x377459, size: 0x8, addend: 0x0, symName: '__ZNSt3__110__function6__funcIZN19llama_memory_hybridC1ERK11llama_model9ggml_typeS6_bjjj14llama_swa_typeS6_S6_jjbbRKNS_8functionIFbiEEESC_E3$_1NS_9allocatorISD_EES9_ED1Ev', symObjAddr: 0x1E90, symBinAddr: 0x5FB58, symSize: 0x4 }
  - { offset: 0x377485, size: 0x8, addend: 0x0, symName: '__ZNSt3__110__function6__funcIZN19llama_memory_hybridC1ERK11llama_model9ggml_typeS6_bjjj14llama_swa_typeS6_S6_jjbbRKNS_8functionIFbiEEESC_E3$_1NS_9allocatorISD_EES9_ED0Ev', symObjAddr: 0x1E94, symBinAddr: 0x5FB5C, symSize: 0x4 }
  - { offset: 0x37753C, size: 0x8, addend: 0x0, symName: '__ZNKSt3__110__function6__funcIZN19llama_memory_hybridC1ERK11llama_model9ggml_typeS6_bjjj14llama_swa_typeS6_S6_jjbbRKNS_8functionIFbiEEESC_E3$_1NS_9allocatorISD_EES9_E7__cloneEv', symObjAddr: 0x1E98, symBinAddr: 0x5FB60, symSize: 0x34 }
  - { offset: 0x37768C, size: 0x8, addend: 0x0, symName: '__ZNKSt3__110__function6__funcIZN19llama_memory_hybridC1ERK11llama_model9ggml_typeS6_bjjj14llama_swa_typeS6_S6_jjbbRKNS_8functionIFbiEEESC_E3$_1NS_9allocatorISD_EES9_E7__cloneEPNS0_6__baseIS9_EE', symObjAddr: 0x1ECC, symBinAddr: 0x5FB94, symSize: 0x14 }
  - { offset: 0x3776F9, size: 0x8, addend: 0x0, symName: '__ZNSt3__110__function6__funcIZN19llama_memory_hybridC1ERK11llama_model9ggml_typeS6_bjjj14llama_swa_typeS6_S6_jjbbRKNS_8functionIFbiEEESC_E3$_1NS_9allocatorISD_EES9_E7destroyEv', symObjAddr: 0x1EE0, symBinAddr: 0x5FBA8, symSize: 0x4 }
  - { offset: 0x37774E, size: 0x8, addend: 0x0, symName: '__ZNSt3__110__function6__funcIZN19llama_memory_hybridC1ERK11llama_model9ggml_typeS6_bjjj14llama_swa_typeS6_S6_jjbbRKNS_8functionIFbiEEESC_E3$_1NS_9allocatorISD_EES9_E18destroy_deallocateEv', symObjAddr: 0x1EE4, symBinAddr: 0x5FBAC, symSize: 0x4 }
  - { offset: 0x377781, size: 0x8, addend: 0x0, symName: '__ZNSt3__110__function6__funcIZN19llama_memory_hybridC1ERK11llama_model9ggml_typeS6_bjjj14llama_swa_typeS6_S6_jjbbRKNS_8functionIFbiEEESC_E3$_1NS_9allocatorISD_EES9_E18destroy_deallocateEv', symObjAddr: 0x1EE4, symBinAddr: 0x5FBAC, symSize: 0x4 }
  - { offset: 0x3777A4, size: 0x8, addend: 0x0, symName: '__ZNSt3__110__function6__funcIZN19llama_memory_hybridC1ERK11llama_model9ggml_typeS6_bjjj14llama_swa_typeS6_S6_jjbbRKNS_8functionIFbiEEESC_E3$_1NS_9allocatorISD_EES9_E18destroy_deallocateEv', symObjAddr: 0x1EE4, symBinAddr: 0x5FBAC, symSize: 0x4 }
  - { offset: 0x3777D7, size: 0x8, addend: 0x0, symName: '__ZNSt3__110__function6__funcIZN19llama_memory_hybridC1ERK11llama_model9ggml_typeS6_bjjj14llama_swa_typeS6_S6_jjbbRKNS_8functionIFbiEEESC_E3$_1NS_9allocatorISD_EES9_E18destroy_deallocateEv', symObjAddr: 0x1EE4, symBinAddr: 0x5FBAC, symSize: 0x4 }
  - { offset: 0x377879, size: 0x8, addend: 0x0, symName: '__ZNSt3__110__function6__funcIZN19llama_memory_hybridC1ERK11llama_model9ggml_typeS6_bjjj14llama_swa_typeS6_S6_jjbbRKNS_8functionIFbiEEESC_E3$_1NS_9allocatorISD_EES9_EclEOi', symObjAddr: 0x1EE8, symBinAddr: 0x5FBB0, symSize: 0x10 }
  - { offset: 0x377922, size: 0x8, addend: 0x0, symName: '__ZNKSt3__110__function6__funcIZN19llama_memory_hybridC1ERK11llama_model9ggml_typeS6_bjjj14llama_swa_typeS6_S6_jjbbRKNS_8functionIFbiEEESC_E3$_1NS_9allocatorISD_EES9_E6targetERKSt9type_info', symObjAddr: 0x1EF8, symBinAddr: 0x5FBC0, symSize: 0x64 }
  - { offset: 0x3779D6, size: 0x8, addend: 0x0, symName: '__ZNKSt3__110__function6__funcIZN19llama_memory_hybridC1ERK11llama_model9ggml_typeS6_bjjj14llama_swa_typeS6_S6_jjbbRKNS_8functionIFbiEEESC_E3$_1NS_9allocatorISD_EES9_E11target_typeEv', symObjAddr: 0x1F5C, symBinAddr: 0x5FC24, symSize: 0xC }
  - { offset: 0x3A247F, size: 0x8, addend: 0x0, symName: __ZN22llama_memory_recurrentC2ERK11llama_model9ggml_typeS3_bjjRKNSt3__18functionIFbiEEE, symObjAddr: 0x0, symBinAddr: 0x5FC30, symSize: 0x77C }
  - { offset: 0x3A4F92, size: 0x8, addend: 0x0, symName: __ZNSt3__16vectorIN22llama_memory_recurrent8mem_cellENS_9allocatorIS2_EEE8__appendEm, symObjAddr: 0x4650, symBinAddr: 0x63D6C, symSize: 0x220 }
  - { offset: 0x3A578E, size: 0x8, addend: 0x0, symName: __ZNSt3__16vectorIN22llama_memory_recurrent8mem_cellENS_9allocatorIS2_EEE20__throw_length_errorB8ne200100Ev, symObjAddr: 0x4870, symBinAddr: 0x63F8C, symSize: 0x14 }
  - { offset: 0x3A5799, size: 0x8, addend: 0x0, symName: __ZNSt3__16vectorIP11ggml_tensorNS_9allocatorIS2_EEE8__appendEm, symObjAddr: 0x49AC, symBinAddr: 0x64054, symSize: 0x120 }
  - { offset: 0x3A5CC7, size: 0x8, addend: 0x0, symName: __ZNSt3__16__treeINS_12__value_typeIP24ggml_backend_buffer_typeNS_10unique_ptrI12ggml_context20ggml_context_deleterEEEENS_19__map_value_compareIS3_S8_ZN22llama_memory_recurrentC1ERK11llama_model9ggml_typeSE_bjjRKNS_8functionIFbiEEEE28ggml_backend_buft_comparatorLb1EEENS_9allocatorIS8_EEE7destroyEPNS_11__tree_nodeIS8_PvEE, symObjAddr: 0x4958, symBinAddr: 0x64000, symSize: 0x54 }
  - { offset: 0x3A6091, size: 0x8, addend: 0x0, symName: __ZNSt3__16vectorIN22llama_memory_recurrent8mem_cellENS_9allocatorIS2_EEED1B8ne200100Ev, symObjAddr: 0x8B8, symBinAddr: 0x60464, symSize: 0x68 }
  - { offset: 0x3A62F5, size: 0x8, addend: 0x0, symName: __ZNK22llama_memory_recurrent12size_r_bytesEv, symObjAddr: 0x77C, symBinAddr: 0x603AC, symSize: 0x5C }
  - { offset: 0x3A63A2, size: 0x8, addend: 0x0, symName: __ZNK22llama_memory_recurrent12size_s_bytesEv, symObjAddr: 0x7D8, symBinAddr: 0x60408, symSize: 0x5C }
  - { offset: 0x3A6913, size: 0x8, addend: 0x0, symName: __ZN22llama_memory_recurrentC1ERK11llama_model9ggml_typeS3_bjjRKNSt3__18functionIFbiEEE, symObjAddr: 0x920, symBinAddr: 0x604CC, symSize: 0x4 }
  - { offset: 0x3A69A7, size: 0x8, addend: 0x0, symName: __ZN22llama_memory_recurrentC1ERK11llama_model9ggml_typeS3_bjjRKNSt3__18functionIFbiEEE, symObjAddr: 0x920, symBinAddr: 0x604CC, symSize: 0x4 }
  - { offset: 0x3A6A99, size: 0x8, addend: 0x0, symName: __ZN22llama_memory_recurrent5clearEb, symObjAddr: 0x924, symBinAddr: 0x604D0, symSize: 0xCC }
  - { offset: 0x3A6F57, size: 0x8, addend: 0x0, symName: __ZN22llama_memory_recurrent6seq_rmEiii, symObjAddr: 0x9F0, symBinAddr: 0x6059C, symSize: 0x2F0 }
  - { offset: 0x3A7711, size: 0x8, addend: 0x0, symName: __ZN22llama_memory_recurrent6seq_cpEiiii, symObjAddr: 0xCE0, symBinAddr: 0x6088C, symSize: 0x1E8 }
  - { offset: 0x3A7D0A, size: 0x8, addend: 0x0, symName: __ZN22llama_memory_recurrent8seq_keepEi, symObjAddr: 0xEC8, symBinAddr: 0x60A74, symSize: 0x1B8 }
  - { offset: 0x3A8156, size: 0x8, addend: 0x0, symName: __ZN22llama_memory_recurrent7seq_addEiiii, symObjAddr: 0x1080, symBinAddr: 0x60C2C, symSize: 0xA0 }
  - { offset: 0x3A8331, size: 0x8, addend: 0x0, symName: __ZN22llama_memory_recurrent7seq_divEiiii, symObjAddr: 0x1120, symBinAddr: 0x60CCC, symSize: 0xA8 }
  - { offset: 0x3A8577, size: 0x8, addend: 0x0, symName: __ZNK22llama_memory_recurrent11seq_pos_minEi, symObjAddr: 0x11C8, symBinAddr: 0x60D74, symSize: 0x8C }
  - { offset: 0x3A874F, size: 0x8, addend: 0x0, symName: __ZNK22llama_memory_recurrent11seq_pos_maxEi, symObjAddr: 0x1254, symBinAddr: 0x60E00, symSize: 0x80 }
  - { offset: 0x3A8EDB, size: 0x8, addend: 0x0, symName: __ZNK22llama_memory_recurrent16memory_breakdownEv, symObjAddr: 0x12D4, symBinAddr: 0x60E80, symSize: 0x160 }
  - { offset: 0x3A9B12, size: 0x8, addend: 0x0, symName: __ZN22llama_memory_recurrent10init_batchER18llama_batch_allocrjb, symObjAddr: 0x1434, symBinAddr: 0x60FE0, symSize: 0x454 }
  - { offset: 0x3AAA75, size: 0x8, addend: 0x0, symName: __ZN22llama_memory_recurrent7prepareERKNSt3__16vectorI12llama_ubatchNS0_9allocatorIS2_EEEE, symObjAddr: 0x18E4, symBinAddr: 0x61434, symSize: 0x128 }
  - { offset: 0x3AB139, size: 0x8, addend: 0x0, symName: __ZNSt3__16vectorIN22llama_memory_recurrent8mem_cellENS_9allocatorIS2_EEE16__init_with_sizeB8ne200100IPS2_S7_EEvT_T0_m, symObjAddr: 0x50C0, symBinAddr: 0x64174, symSize: 0x150 }
  - { offset: 0x3AB67C, size: 0x8, addend: 0x0, symName: __ZN22llama_memory_recurrent9find_slotERK12llama_ubatch, symObjAddr: 0x1B44, symBinAddr: 0x615FC, symSize: 0xDD0 }
  - { offset: 0x3ACFE7, size: 0x8, addend: 0x0, symName: __ZN22llama_memory_recurrent9init_fullEv, symObjAddr: 0x1AA4, symBinAddr: 0x6155C, symSize: 0x54 }
  - { offset: 0x3AD0E5, size: 0x8, addend: 0x0, symName: __ZN22llama_memory_recurrent11init_updateEP13llama_contextb, symObjAddr: 0x1AF8, symBinAddr: 0x615B0, symSize: 0x4C }
  - { offset: 0x3AD5B0, size: 0x8, addend: 0x0, symName: __ZNK22llama_memory_recurrent13get_can_shiftEv, symObjAddr: 0x2914, symBinAddr: 0x623CC, symSize: 0x8 }
  - { offset: 0x3AD5D6, size: 0x8, addend: 0x0, symName: __ZNK22llama_memory_recurrent10total_sizeEv, symObjAddr: 0x291C, symBinAddr: 0x623D4, symSize: 0x64 }
  - { offset: 0x3ADDF2, size: 0x8, addend: 0x0, symName: __ZNK22llama_memory_recurrent11state_writeER16llama_io_write_iij, symObjAddr: 0x2980, symBinAddr: 0x62438, symSize: 0x4AC }
  - { offset: 0x3AEBAF, size: 0x8, addend: 0x0, symName: __ZNK22llama_memory_recurrent16state_write_metaER16llama_io_write_iRKNSt3__16vectorINS2_4pairIjjEENS2_9allocatorIS5_EEEEi, symObjAddr: 0x2E2C, symBinAddr: 0x628E4, symSize: 0x15C }
  - { offset: 0x3AEED3, size: 0x8, addend: 0x0, symName: __ZNK22llama_memory_recurrent16state_write_dataER16llama_io_write_iRKNSt3__16vectorINS2_4pairIjjEENS2_9allocatorIS5_EEEE, symObjAddr: 0x2F88, symBinAddr: 0x62A40, symSize: 0x22C }
  - { offset: 0x3AF433, size: 0x8, addend: 0x0, symName: __ZN22llama_memory_recurrent10state_readER15llama_io_read_iij, symObjAddr: 0x31B4, symBinAddr: 0x62C6C, symSize: 0xF4 }
  - { offset: 0x3AF532, size: 0x8, addend: 0x0, symName: __ZN22llama_memory_recurrent15state_read_metaER15llama_io_read_iji, symObjAddr: 0x32A8, symBinAddr: 0x62D60, symSize: 0x590 }
  - { offset: 0x3AFE7B, size: 0x8, addend: 0x0, symName: __ZN22llama_memory_recurrent15state_read_dataER15llama_io_read_ij, symObjAddr: 0x3838, symBinAddr: 0x632F0, symSize: 0x540 }
  - { offset: 0x3B0FAD, size: 0x8, addend: 0x0, symName: __ZN30llama_memory_recurrent_contextC2E19llama_memory_status, symObjAddr: 0x3D78, symBinAddr: 0x63830, symSize: 0x24 }
  - { offset: 0x3B1011, size: 0x8, addend: 0x0, symName: __ZN30llama_memory_recurrent_contextC1E19llama_memory_status, symObjAddr: 0x3D9C, symBinAddr: 0x63854, symSize: 0x24 }
  - { offset: 0x3B103A, size: 0x8, addend: 0x0, symName: __ZN30llama_memory_recurrent_contextC1E19llama_memory_status, symObjAddr: 0x3D9C, symBinAddr: 0x63854, symSize: 0x24 }
  - { offset: 0x3B1099, size: 0x8, addend: 0x0, symName: __ZN30llama_memory_recurrent_contextC2EP22llama_memory_recurrent, symObjAddr: 0x3DC0, symBinAddr: 0x63878, symSize: 0x2C }
  - { offset: 0x3B10FD, size: 0x8, addend: 0x0, symName: __ZN30llama_memory_recurrent_contextC1EP22llama_memory_recurrent, symObjAddr: 0x3DEC, symBinAddr: 0x638A4, symSize: 0x2C }
  - { offset: 0x3B1126, size: 0x8, addend: 0x0, symName: __ZN30llama_memory_recurrent_contextC1EP22llama_memory_recurrent, symObjAddr: 0x3DEC, symBinAddr: 0x638A4, symSize: 0x2C }
  - { offset: 0x3B1185, size: 0x8, addend: 0x0, symName: __ZN30llama_memory_recurrent_contextC2EP22llama_memory_recurrentNSt3__16vectorI12llama_ubatchNS2_9allocatorIS4_EEEE, symObjAddr: 0x3E18, symBinAddr: 0x638D0, symSize: 0x40 }
  - { offset: 0x3B1200, size: 0x8, addend: 0x0, symName: __ZN30llama_memory_recurrent_contextC1EP22llama_memory_recurrentNSt3__16vectorI12llama_ubatchNS2_9allocatorIS4_EEEE, symObjAddr: 0x3E58, symBinAddr: 0x63910, symSize: 0x40 }
  - { offset: 0x3B1231, size: 0x8, addend: 0x0, symName: __ZN30llama_memory_recurrent_contextC1EP22llama_memory_recurrentNSt3__16vectorI12llama_ubatchNS2_9allocatorIS4_EEEE, symObjAddr: 0x3E58, symBinAddr: 0x63910, symSize: 0x40 }
  - { offset: 0x3B12A7, size: 0x8, addend: 0x0, symName: __ZN30llama_memory_recurrent_contextD2Ev, symObjAddr: 0x3E98, symBinAddr: 0x63950, symSize: 0xA4 }
  - { offset: 0x3B1518, size: 0x8, addend: 0x0, symName: __ZN30llama_memory_recurrent_contextD1Ev, symObjAddr: 0x3F3C, symBinAddr: 0x639F4, symSize: 0xA4 }
  - { offset: 0x3B17A6, size: 0x8, addend: 0x0, symName: __ZN30llama_memory_recurrent_contextD0Ev, symObjAddr: 0x3FE0, symBinAddr: 0x63A98, symSize: 0xA4 }
  - { offset: 0x3B1A40, size: 0x8, addend: 0x0, symName: __ZN30llama_memory_recurrent_context4nextEv, symObjAddr: 0x4084, symBinAddr: 0x63B3C, symSize: 0x38 }
  - { offset: 0x3B1AC1, size: 0x8, addend: 0x0, symName: __ZN30llama_memory_recurrent_context5applyEv, symObjAddr: 0x40BC, symBinAddr: 0x63B74, symSize: 0x34 }
  - { offset: 0x3B1AED, size: 0x8, addend: 0x0, symName: __ZN30llama_memory_recurrent_context5applyEv, symObjAddr: 0x40BC, symBinAddr: 0x63B74, symSize: 0x34 }
  - { offset: 0x3B1B35, size: 0x8, addend: 0x0, symName: __ZNK30llama_memory_recurrent_context10get_statusEv, symObjAddr: 0x40F0, symBinAddr: 0x63BA8, symSize: 0x8 }
  - { offset: 0x3B1B81, size: 0x8, addend: 0x0, symName: __ZNK30llama_memory_recurrent_context10get_ubatchEv, symObjAddr: 0x40F8, symBinAddr: 0x63BB0, symSize: 0x10 }
  - { offset: 0x3B1BD1, size: 0x8, addend: 0x0, symName: __ZNK30llama_memory_recurrent_context8get_n_rsEv, symObjAddr: 0x4108, symBinAddr: 0x63BC0, symSize: 0x20 }
  - { offset: 0x3B1BFB, size: 0x8, addend: 0x0, symName: __ZNK30llama_memory_recurrent_context8get_headEv, symObjAddr: 0x4128, symBinAddr: 0x63BE0, symSize: 0x1C }
  - { offset: 0x3B1C25, size: 0x8, addend: 0x0, symName: __ZNK30llama_memory_recurrent_context8get_rs_zEv, symObjAddr: 0x4144, symBinAddr: 0x63BFC, symSize: 0x1C }
  - { offset: 0x3B1C4F, size: 0x8, addend: 0x0, symName: __ZNK30llama_memory_recurrent_context8get_sizeEv, symObjAddr: 0x4160, symBinAddr: 0x63C18, symSize: 0xC }
  - { offset: 0x3B1C79, size: 0x8, addend: 0x0, symName: __ZNK30llama_memory_recurrent_context7get_r_lEi, symObjAddr: 0x416C, symBinAddr: 0x63C24, symSize: 0x10 }
  - { offset: 0x3B1CD0, size: 0x8, addend: 0x0, symName: __ZNK30llama_memory_recurrent_context7get_s_lEi, symObjAddr: 0x417C, symBinAddr: 0x63C34, symSize: 0x10 }
  - { offset: 0x3B1D28, size: 0x8, addend: 0x0, symName: __ZNK30llama_memory_recurrent_context6s_copyEi, symObjAddr: 0x418C, symBinAddr: 0x63C44, symSize: 0x20 }
  - { offset: 0x3B1D7F, size: 0x8, addend: 0x0, symName: __ZN22llama_memory_recurrentD1Ev, symObjAddr: 0x41AC, symBinAddr: 0x63C64, symSize: 0x4 }
  - { offset: 0x3B1DA2, size: 0x8, addend: 0x0, symName: __ZN22llama_memory_recurrentD1Ev, symObjAddr: 0x41AC, symBinAddr: 0x63C64, symSize: 0x4 }
  - { offset: 0x3B1DB5, size: 0x8, addend: 0x0, symName: __ZN22llama_memory_recurrentD2Ev, symObjAddr: 0x4560, symBinAddr: 0x63C7C, symSize: 0xF0 }
  - { offset: 0x3B254D, size: 0x8, addend: 0x0, symName: __ZN22llama_memory_recurrentD0Ev, symObjAddr: 0x41B0, symBinAddr: 0x63C68, symSize: 0x14 }
  - { offset: 0x3B34A6, size: 0x8, addend: 0x0, symName: __ZNSt3__16vectorIN22llama_memory_recurrent8mem_cellENS_9allocatorIS2_EEE20__throw_length_errorB8ne200100Ev, symObjAddr: 0x4870, symBinAddr: 0x63F8C, symSize: 0x14 }
  - { offset: 0x3B35C0, size: 0x8, addend: 0x0, symName: __ZNSt3__128__exception_guard_exceptionsINS_29_AllocatorDestroyRangeReverseINS_9allocatorIN22llama_memory_recurrent8mem_cellEEEPS4_EEED1B8ne200100Ev, symObjAddr: 0x48F8, symBinAddr: 0x63FA0, symSize: 0x60 }
  - { offset: 0x3B3D2C, size: 0x8, addend: 0x0, symName: __ZNSt3__16vectorIN22llama_memory_recurrent8mem_cellENS_9allocatorIS2_EEE16__init_with_sizeB8ne200100IPS2_S7_EEvT_T0_m, symObjAddr: 0x50C0, symBinAddr: 0x64174, symSize: 0x150 }
  - { offset: 0x3B400C, size: 0x8, addend: 0x0, symName: __ZNSt3__13setIiNS_4lessIiEENS_9allocatorIiEEE6insertB8ne200100INS_21__tree_const_iteratorIiPNS_11__tree_nodeIiPvEElEEEEvT_SD_, symObjAddr: 0x5288, symBinAddr: 0x6433C, symSize: 0xF4 }
  - { offset: 0x3B4052, size: 0x8, addend: 0x0, symName: __ZNSt3__13setIiNS_4lessIiEENS_9allocatorIiEEE6insertB8ne200100INS_21__tree_const_iteratorIiPNS_11__tree_nodeIiPvEElEEEEvT_SD_, symObjAddr: 0x5288, symBinAddr: 0x6433C, symSize: 0xF4 }
  - { offset: 0x3B4334, size: 0x8, addend: 0x0, symName: __ZNSt3__128__exception_guard_exceptionsINS_6vectorIN22llama_memory_recurrent8mem_cellENS_9allocatorIS3_EEE16__destroy_vectorEED1B8ne200100Ev, symObjAddr: 0x5210, symBinAddr: 0x642C4, symSize: 0x78 }
  - { offset: 0x3B4361, size: 0x8, addend: 0x0, symName: __ZNSt3__128__exception_guard_exceptionsINS_6vectorIN22llama_memory_recurrent8mem_cellENS_9allocatorIS3_EEE16__destroy_vectorEED1B8ne200100Ev, symObjAddr: 0x5210, symBinAddr: 0x642C4, symSize: 0x78 }
  - { offset: 0x3B46C4, size: 0x8, addend: 0x0, symName: __ZNSt3__16__treeIiNS_4lessIiEENS_9allocatorIiEEE12__find_equalIiEERPNS_16__tree_node_baseIPvEENS_21__tree_const_iteratorIiPNS_11__tree_nodeIiS8_EElEERPNS_15__tree_end_nodeISA_EESB_RKT_, symObjAddr: 0x537C, symBinAddr: 0x64430, symSize: 0x1B0 }
  - { offset: 0x3B4727, size: 0x8, addend: 0x0, symName: __ZNSt3__16__treeIiNS_4lessIiEENS_9allocatorIiEEE12__find_equalIiEERPNS_16__tree_node_baseIPvEENS_21__tree_const_iteratorIiPNS_11__tree_nodeIiS8_EElEERPNS_15__tree_end_nodeISA_EESB_RKT_, symObjAddr: 0x537C, symBinAddr: 0x64430, symSize: 0x1B0 }
  - { offset: 0x3B4743, size: 0x8, addend: 0x0, symName: __ZNSt3__16__treeIiNS_4lessIiEENS_9allocatorIiEEE12__find_equalIiEERPNS_16__tree_node_baseIPvEENS_21__tree_const_iteratorIiPNS_11__tree_nodeIiS8_EElEERPNS_15__tree_end_nodeISA_EESB_RKT_, symObjAddr: 0x537C, symBinAddr: 0x64430, symSize: 0x1B0 }
  - { offset: 0x3B6902, size: 0x8, addend: 0x0, symName: __Z27llama_memory_status_combine19llama_memory_statusS_, symObjAddr: 0x0, symBinAddr: 0x645E0, symSize: 0x38 }
  - { offset: 0x3B6917, size: 0x8, addend: 0x0, symName: __Z27llama_memory_status_combine19llama_memory_statusS_, symObjAddr: 0x0, symBinAddr: 0x645E0, symSize: 0x38 }
  - { offset: 0x3B6963, size: 0x8, addend: 0x0, symName: __Z27llama_memory_status_is_fail19llama_memory_status, symObjAddr: 0x38, symBinAddr: 0x64618, symSize: 0x10 }
  - { offset: 0x3B94F2, size: 0x8, addend: 0x0, symName: __ZN10llama_mmap9SUPPORTEDE, symObjAddr: 0x1B20, symBinAddr: 0x297AAA, symSize: 0x0 }
  - { offset: 0x3BEC03, size: 0x8, addend: 0x0, symName: __ZN11llama_mlock9SUPPORTEDE, symObjAddr: 0x1B21, symBinAddr: 0x297AAB, symSize: 0x0 }
  - { offset: 0x3BEE4B, size: 0x8, addend: 0x0, symName: __ZN10llama_fileC2EPKcS1_b, symObjAddr: 0x0, symBinAddr: 0x64628, symSize: 0x70 }
  - { offset: 0x3BEF34, size: 0x8, addend: 0x0, symName: __ZN10llama_file4implC2EPKcS2_b, symObjAddr: 0x1508, symBinAddr: 0x65A84, symSize: 0xF0 }
  - { offset: 0x3BF343, size: 0x8, addend: 0x0, symName: __ZN10llama_fileC1EPKcS1_b, symObjAddr: 0x70, symBinAddr: 0x64698, symSize: 0x70 }
  - { offset: 0x3BF611, size: 0x8, addend: 0x0, symName: __ZN10llama_fileD2Ev, symObjAddr: 0xE0, symBinAddr: 0x64708, symSize: 0x6C }
  - { offset: 0x3BF82F, size: 0x8, addend: 0x0, symName: __ZN10llama_fileD1Ev, symObjAddr: 0x14C, symBinAddr: 0x64774, symSize: 0x6C }
  - { offset: 0x3BFA47, size: 0x8, addend: 0x0, symName: __ZNK10llama_file4tellEv, symObjAddr: 0x1B8, symBinAddr: 0x647E0, symSize: 0x8 }
  - { offset: 0x3BFA73, size: 0x8, addend: 0x0, symName: __ZNK10llama_file4tellEv, symObjAddr: 0x1B8, symBinAddr: 0x647E0, symSize: 0x8 }
  - { offset: 0x3BFA9C, size: 0x8, addend: 0x0, symName: __ZNK10llama_file4impl4tellEv, symObjAddr: 0x1C0, symBinAddr: 0x647E8, symSize: 0x158 }
  - { offset: 0x3BFD34, size: 0x8, addend: 0x0, symName: __ZNK10llama_file4sizeEv, symObjAddr: 0x318, symBinAddr: 0x64940, symSize: 0xC }
  - { offset: 0x3BFD58, size: 0x8, addend: 0x0, symName: __ZNK10llama_file4sizeEv, symObjAddr: 0x318, symBinAddr: 0x64940, symSize: 0xC }
  - { offset: 0x3BFD8F, size: 0x8, addend: 0x0, symName: __ZNK10llama_file14read_alignmentEv, symObjAddr: 0x324, symBinAddr: 0x6494C, symSize: 0xC }
  - { offset: 0x3BFDBB, size: 0x8, addend: 0x0, symName: __ZNK10llama_file14read_alignmentEv, symObjAddr: 0x324, symBinAddr: 0x6494C, symSize: 0xC }
  - { offset: 0x3BFE09, size: 0x8, addend: 0x0, symName: __ZNK10llama_file13has_direct_ioEv, symObjAddr: 0x330, symBinAddr: 0x64958, symSize: 0x28 }
  - { offset: 0x3BFE35, size: 0x8, addend: 0x0, symName: __ZNK10llama_file13has_direct_ioEv, symObjAddr: 0x330, symBinAddr: 0x64958, symSize: 0x28 }
  - { offset: 0x3BFE6F, size: 0x8, addend: 0x0, symName: __ZNK10llama_file7file_idEv, symObjAddr: 0x358, symBinAddr: 0x64980, symSize: 0x1C }
  - { offset: 0x3BFE93, size: 0x8, addend: 0x0, symName: __ZNK10llama_file7file_idEv, symObjAddr: 0x358, symBinAddr: 0x64980, symSize: 0x1C }
  - { offset: 0x3BFECF, size: 0x8, addend: 0x0, symName: __ZNK10llama_file4seekEmi, symObjAddr: 0x374, symBinAddr: 0x6499C, symSize: 0x8 }
  - { offset: 0x3BFF17, size: 0x8, addend: 0x0, symName: __ZNK10llama_file4seekEmi, symObjAddr: 0x374, symBinAddr: 0x6499C, symSize: 0x8 }
  - { offset: 0x3BFF4F, size: 0x8, addend: 0x0, symName: __ZNK10llama_file4impl4seekEmi, symObjAddr: 0x37C, symBinAddr: 0x649A4, symSize: 0xEC }
  - { offset: 0x3C0140, size: 0x8, addend: 0x0, symName: __ZN10llama_file8read_rawEPvm, symObjAddr: 0x468, symBinAddr: 0x64A90, symSize: 0x24 }
  - { offset: 0x3C0188, size: 0x8, addend: 0x0, symName: __ZN10llama_file8read_rawEPvm, symObjAddr: 0x468, symBinAddr: 0x64A90, symSize: 0x24 }
  - { offset: 0x3C01F9, size: 0x8, addend: 0x0, symName: __ZN10llama_file4impl18read_aligned_chunkEPvm, symObjAddr: 0x11D4, symBinAddr: 0x657FC, symSize: 0x15C }
  - { offset: 0x3C0555, size: 0x8, addend: 0x0, symName: __ZN10llama_file4impl15read_raw_unsafeEPvm, symObjAddr: 0x494, symBinAddr: 0x64ABC, symSize: 0x378 }
  - { offset: 0x3C092D, size: 0x8, addend: 0x0, symName: __ZN10llama_file15read_raw_unsafeEPvm, symObjAddr: 0x48C, symBinAddr: 0x64AB4, symSize: 0x8 }
  - { offset: 0x3C0975, size: 0x8, addend: 0x0, symName: __ZN10llama_file15read_raw_unsafeEPvm, symObjAddr: 0x48C, symBinAddr: 0x64AB4, symSize: 0x8 }
  - { offset: 0x3C09C4, size: 0x8, addend: 0x0, symName: __ZN10llama_file4impl7init_fpEPKc, symObjAddr: 0x1340, symBinAddr: 0x65958, symSize: 0x118 }
  - { offset: 0x3C0D34, size: 0x8, addend: 0x0, symName: __ZN10llama_file8read_u32Ev, symObjAddr: 0x80C, symBinAddr: 0x64E34, symSize: 0x60 }
  - { offset: 0x3C0E11, size: 0x8, addend: 0x0, symName: __ZNK10llama_file9write_rawEPKvm, symObjAddr: 0x86C, symBinAddr: 0x64E94, symSize: 0x8 }
  - { offset: 0x3C0E59, size: 0x8, addend: 0x0, symName: __ZNK10llama_file9write_rawEPKvm, symObjAddr: 0x86C, symBinAddr: 0x64E94, symSize: 0x8 }
  - { offset: 0x3C0E91, size: 0x8, addend: 0x0, symName: __ZNK10llama_file4impl9write_rawEPKvm, symObjAddr: 0x874, symBinAddr: 0x64E9C, symSize: 0xF0 }
  - { offset: 0x3C1092, size: 0x8, addend: 0x0, symName: __ZNK10llama_file9write_u32Ej, symObjAddr: 0x964, symBinAddr: 0x64F8C, symSize: 0x2C }
  - { offset: 0x3C11DF, size: 0x8, addend: 0x0, symName: __ZN10llama_mmapC2EP10llama_filemb, symObjAddr: 0x990, symBinAddr: 0x64FB8, symSize: 0x70 }
  - { offset: 0x3C12C8, size: 0x8, addend: 0x0, symName: __ZN10llama_mmap4implC2EP10llama_filemb, symObjAddr: 0x160C, symBinAddr: 0x65B74, symSize: 0x298 }
  - { offset: 0x3C1BF4, size: 0x8, addend: 0x0, symName: __ZN10llama_mmapC1EP10llama_filemb, symObjAddr: 0xA00, symBinAddr: 0x65028, symSize: 0x70 }
  - { offset: 0x3C1DD3, size: 0x8, addend: 0x0, symName: __ZN10llama_mmapD2Ev, symObjAddr: 0xA70, symBinAddr: 0x65098, symSize: 0x3C }
  - { offset: 0x3C1EB4, size: 0x8, addend: 0x0, symName: __ZN10llama_mmap4implD2Ev, symObjAddr: 0x18A4, symBinAddr: 0x65E0C, symSize: 0xA4 }
  - { offset: 0x3C20D5, size: 0x8, addend: 0x0, symName: __ZN10llama_mmapD1Ev, symObjAddr: 0xAAC, symBinAddr: 0x650D4, symSize: 0x3C }
  - { offset: 0x3C21FD, size: 0x8, addend: 0x0, symName: __ZNK10llama_mmap4sizeEv, symObjAddr: 0xAE8, symBinAddr: 0x65110, symSize: 0xC }
  - { offset: 0x3C2229, size: 0x8, addend: 0x0, symName: __ZNK10llama_mmap4sizeEv, symObjAddr: 0xAE8, symBinAddr: 0x65110, symSize: 0xC }
  - { offset: 0x3C2244, size: 0x8, addend: 0x0, symName: __ZNK10llama_mmap4addrEv, symObjAddr: 0xAF4, symBinAddr: 0x6511C, symSize: 0xC }
  - { offset: 0x3C2270, size: 0x8, addend: 0x0, symName: __ZNK10llama_mmap4addrEv, symObjAddr: 0xAF4, symBinAddr: 0x6511C, symSize: 0xC }
  - { offset: 0x3C228B, size: 0x8, addend: 0x0, symName: __ZN10llama_mmap14unmap_fragmentEmm, symObjAddr: 0xB00, symBinAddr: 0x65128, symSize: 0x8 }
  - { offset: 0x3C22D3, size: 0x8, addend: 0x0, symName: __ZN10llama_mmap14unmap_fragmentEmm, symObjAddr: 0xB00, symBinAddr: 0x65128, symSize: 0x8 }
  - { offset: 0x3C230B, size: 0x8, addend: 0x0, symName: __ZN10llama_mmap4impl14unmap_fragmentEmm, symObjAddr: 0xB08, symBinAddr: 0x65130, symSize: 0x4AC }
  - { offset: 0x3C3C06, size: 0x8, addend: 0x0, symName: __ZNSt3__16vectorINS_4pairImmEENS_9allocatorIS2_EEE20__throw_length_errorB8ne200100Ev, symObjAddr: 0x1458, symBinAddr: 0x65A70, symSize: 0x14 }
  - { offset: 0x3C3CDD, size: 0x8, addend: 0x0, symName: __ZN11llama_mlockC2Ev, symObjAddr: 0xFB4, symBinAddr: 0x655DC, symSize: 0x34 }
  - { offset: 0x3C3DB9, size: 0x8, addend: 0x0, symName: __ZN11llama_mlockC1Ev, symObjAddr: 0xFE8, symBinAddr: 0x65610, symSize: 0x34 }
  - { offset: 0x3C3F24, size: 0x8, addend: 0x0, symName: __ZN11llama_mlockD2Ev, symObjAddr: 0x101C, symBinAddr: 0x65644, symSize: 0x34 }
  - { offset: 0x3C3F48, size: 0x8, addend: 0x0, symName: __ZN11llama_mlockD2Ev, symObjAddr: 0x101C, symBinAddr: 0x65644, symSize: 0x34 }
  - { offset: 0x3C3F66, size: 0x8, addend: 0x0, symName: __ZN11llama_mlockD2Ev, symObjAddr: 0x101C, symBinAddr: 0x65644, symSize: 0x34 }
  - { offset: 0x3C3F84, size: 0x8, addend: 0x0, symName: __ZN11llama_mlockD2Ev, symObjAddr: 0x101C, symBinAddr: 0x65644, symSize: 0x34 }
  - { offset: 0x3C3FF8, size: 0x8, addend: 0x0, symName: __ZN11llama_mlockD1Ev, symObjAddr: 0x1050, symBinAddr: 0x65678, symSize: 0x34 }
  - { offset: 0x3C4028, size: 0x8, addend: 0x0, symName: __ZN11llama_mlockD1Ev, symObjAddr: 0x1050, symBinAddr: 0x65678, symSize: 0x34 }
  - { offset: 0x3C4046, size: 0x8, addend: 0x0, symName: __ZN11llama_mlockD1Ev, symObjAddr: 0x1050, symBinAddr: 0x65678, symSize: 0x34 }
  - { offset: 0x3C4064, size: 0x8, addend: 0x0, symName: __ZN11llama_mlockD1Ev, symObjAddr: 0x1050, symBinAddr: 0x65678, symSize: 0x34 }
  - { offset: 0x3C4082, size: 0x8, addend: 0x0, symName: __ZN11llama_mlockD1Ev, symObjAddr: 0x1050, symBinAddr: 0x65678, symSize: 0x34 }
  - { offset: 0x3C4118, size: 0x8, addend: 0x0, symName: __ZN11llama_mlock4initEPv, symObjAddr: 0x1084, symBinAddr: 0x656AC, symSize: 0x4C }
  - { offset: 0x3C4154, size: 0x8, addend: 0x0, symName: __ZN11llama_mlock4initEPv, symObjAddr: 0x1084, symBinAddr: 0x656AC, symSize: 0x4C }
  - { offset: 0x3C4188, size: 0x8, addend: 0x0, symName: __ZN11llama_mlock7grow_toEm, symObjAddr: 0x10D0, symBinAddr: 0x656F8, symSize: 0x8 }
  - { offset: 0x3C419B, size: 0x8, addend: 0x0, symName: __ZN11llama_mlock7grow_toEm, symObjAddr: 0x10D0, symBinAddr: 0x656F8, symSize: 0x8 }
  - { offset: 0x3C41D5, size: 0x8, addend: 0x0, symName: __ZN11llama_mlock7grow_toEm, symObjAddr: 0x10D0, symBinAddr: 0x656F8, symSize: 0x8 }
  - { offset: 0x3C4206, size: 0x8, addend: 0x0, symName: __ZN11llama_mlock4impl7grow_toEm, symObjAddr: 0x10D8, symBinAddr: 0x65700, symSize: 0xF4 }
  - { offset: 0x3C42FE, size: 0x8, addend: 0x0, symName: __Z14llama_path_maxv, symObjAddr: 0x11CC, symBinAddr: 0x657F4, symSize: 0x8 }
  - { offset: 0x3C437B, size: 0x8, addend: 0x0, symName: __Z14llama_path_maxv, symObjAddr: 0x11CC, symBinAddr: 0x657F4, symSize: 0x8 }
  - { offset: 0x3C4742, size: 0x8, addend: 0x0, symName: __ZN10llama_mmap4implC2EP10llama_filemb, symObjAddr: 0x160C, symBinAddr: 0x65B74, symSize: 0x298 }
  - { offset: 0x3E689B, size: 0x8, addend: 0x0, symName: __ZNSt3__120__throw_future_errorB8ne200100ENS_11future_errcE, symObjAddr: 0xBBF8, symBinAddr: 0x70FA4, symSize: 0x5C }
  - { offset: 0x3E79A0, size: 0x8, addend: 0x0, symName: '__ZNSt3__114__thread_proxyB8ne200100INS_5tupleIJNS_10unique_ptrINS_15__thread_structENS_14default_deleteIS3_EEEEMNS_19__async_assoc_stateINS_4pairIP11ggml_tensorbEENS_12__async_funcIZN18llama_model_loader13load_all_dataEP12ggml_contextRNS_13unordered_mapIjP19ggml_backend_bufferNS_4hashIjEENS_8equal_toIjEENS_9allocatorINS8_IKjSI_EEEEEEPNS_6vectorINS2_I11llama_mlockNS4_ISU_EEEENSN_ISW_EEEEPFbfPvES10_E3$_0JEEEEEFvvEPS15_EEEEES10_S10_', symObjAddr: 0xBC54, symBinAddr: 0x71000, symSize: 0x8C }
  - { offset: 0x3E7D6C, size: 0x8, addend: 0x0, symName: '__ZNSt3__114__thread_proxyB8ne200100INS_5tupleIJNS_10unique_ptrINS_15__thread_structENS_14default_deleteIS3_EEEEMNS_19__async_assoc_stateINS_4pairIP11ggml_tensorbEENS_12__async_funcIZN18llama_model_loader13load_all_dataEP12ggml_contextRNS_13unordered_mapIjP19ggml_backend_bufferNS_4hashIjEENS_8equal_toIjEENS_9allocatorINS8_IKjSI_EEEEEEPNS_6vectorINS2_I11llama_mlockNS4_ISU_EEEENSN_ISW_EEEEPFbfPvES10_E3$_1JEEEEEFvvEPS15_EEEEES10_S10_', symObjAddr: 0xBF60, symBinAddr: 0x7130C, symSize: 0x8C }
  - { offset: 0x3ECA0F, size: 0x8, addend: 0x0, symName: __ZN18llama_model_loader13load_all_dataEP12ggml_contextRNSt3__113unordered_mapIjP19ggml_backend_bufferNS2_4hashIjEENS2_8equal_toIjEENS2_9allocatorINS2_4pairIKjS5_EEEEEEPNS2_6vectorINS2_10unique_ptrI11llama_mlockNS2_14default_deleteISJ_EEEENSA_ISM_EEEEPFbfPvESQ_, symObjAddr: 0x5E48, symBinAddr: 0x6BBB0, symSize: 0x1A38 }
  - { offset: 0x3F1138, size: 0x8, addend: 0x0, symName: __Z23llama_file_version_name10llama_fver, symObjAddr: 0x0, symBinAddr: 0x65EB0, symSize: 0x28 }
  - { offset: 0x3F1225, size: 0x8, addend: 0x0, symName: __ZN18llama_model_loader9get_arr_nIjEENSt3__19enable_ifIXsr3std11is_integralIT_EE5valueEbE4typeE6llm_kvRS3_b, symObjAddr: 0x28, symBinAddr: 0x65ED8, symSize: 0xA0 }
  - { offset: 0x3F14B1, size: 0x8, addend: 0x0, symName: __ZN18llama_model_loader9get_arr_nIjEENSt3__19enable_ifIXsr3std11is_integralIT_EE5valueEbE4typeERKNS1_12basic_stringIcNS1_11char_traitsIcEENS1_9allocatorIcEEEERS3_b, symObjAddr: 0xC8, symBinAddr: 0x65F78, symSize: 0x120 }
  - { offset: 0x3F1822, size: 0x8, addend: 0x0, symName: __ZN8GGUFMeta3GKVINS_9ArrayInfoEE6get_kvEPK12gguf_contexti, symObjAddr: 0x8278, symBinAddr: 0x6DE94, symSize: 0x150 }
  - { offset: 0x3F1A5E, size: 0x8, addend: 0x0, symName: __ZN18llama_model_loader7get_arrINSt3__16vectorINS1_12basic_stringIcNS1_11char_traitsIcEENS1_9allocatorIcEEEENS6_IS8_EEEEEEb6llm_kvRT_b, symObjAddr: 0x1E8, symBinAddr: 0x66098, symSize: 0xA0 }
  - { offset: 0x3F1CEA, size: 0x8, addend: 0x0, symName: __ZN18llama_model_loader7get_arrINSt3__112basic_stringIcNS1_11char_traitsIcEENS1_9allocatorIcEEEEEEbRKS7_RNS1_6vectorIT_NS5_ISB_EEEEb, symObjAddr: 0x288, symBinAddr: 0x66138, symSize: 0x3A0 }
  - { offset: 0x3F3215, size: 0x8, addend: 0x0, symName: __ZNSt3__112__hash_tableINS_17__hash_value_typeINS_12basic_stringIcNS_11char_traitsIcEENS_9allocatorIcEEEE23llama_model_kv_overrideEENS_22__unordered_map_hasherIS7_S9_NS_4hashIS7_EENS_8equal_toIS7_EELb1EEENS_21__unordered_map_equalIS7_S9_SE_SC_Lb1EEENS5_IS9_EEE4findIS7_EENS_15__hash_iteratorIPNS_11__hash_nodeIS9_PvEEEERKT_, symObjAddr: 0x85A4, symBinAddr: 0x6DFE4, symSize: 0x1B4 }
  - { offset: 0x3F3255, size: 0x8, addend: 0x0, symName: __ZN18llama_model_loader7get_keyIbEEb6llm_kvRT_b, symObjAddr: 0x628, symBinAddr: 0x664D8, symSize: 0xA0 }
  - { offset: 0x3F34E1, size: 0x8, addend: 0x0, symName: __ZN18llama_model_loader7get_keyIbEEbRKNSt3__112basic_stringIcNS1_11char_traitsIcEENS1_9allocatorIcEEEERT_b, symObjAddr: 0x6C8, symBinAddr: 0x66578, symSize: 0x15C }
  - { offset: 0x3F39A2, size: 0x8, addend: 0x0, symName: __ZNSt3__112__hash_tableINS_17__hash_value_typeINS_12basic_stringIcNS_11char_traitsIcEENS_9allocatorIcEEEE23llama_model_kv_overrideEENS_22__unordered_map_hasherIS7_S9_NS_4hashIS7_EENS_8equal_toIS7_EELb1EEENS_21__unordered_map_equalIS7_S9_SE_SC_Lb1EEENS5_IS9_EEE4findIS7_EENS_15__hash_iteratorIPNS_11__hash_nodeIS9_PvEEEERKT_, symObjAddr: 0x85A4, symBinAddr: 0x6DFE4, symSize: 0x1B4 }
  - { offset: 0x3F3CAB, size: 0x8, addend: 0x0, symName: __ZN8GGUFMeta3GKVIbE17validate_overrideE28llama_model_kv_override_typePK23llama_model_kv_override, symObjAddr: 0x8CA4, symBinAddr: 0x6E298, symSize: 0x240 }
  - { offset: 0x3F3E8D, size: 0x8, addend: 0x0, symName: __ZN8GGUFMeta3GKVIbE6get_kvEPK12gguf_contexti, symObjAddr: 0x8BA4, symBinAddr: 0x6E198, symSize: 0x100 }
  - { offset: 0x3F405E, size: 0x8, addend: 0x0, symName: __ZN18llama_model_loader7get_keyIfEEb6llm_kvRT_b, symObjAddr: 0x824, symBinAddr: 0x666D4, symSize: 0xA0 }
  - { offset: 0x3F42EA, size: 0x8, addend: 0x0, symName: __ZN18llama_model_loader7get_keyIfEEbRKNSt3__112basic_stringIcNS1_11char_traitsIcEENS1_9allocatorIcEEEERT_b, symObjAddr: 0x8C4, symBinAddr: 0x66774, symSize: 0x160 }
  - { offset: 0x3F4783, size: 0x8, addend: 0x0, symName: __ZN8GGUFMeta3GKVIfE17validate_overrideE28llama_model_kv_override_typePK23llama_model_kv_override, symObjAddr: 0x8FE4, symBinAddr: 0x6E5D8, symSize: 0x240 }
  - { offset: 0x3F4965, size: 0x8, addend: 0x0, symName: __ZN8GGUFMeta3GKVIfE6get_kvEPK12gguf_contexti, symObjAddr: 0x8EE4, symBinAddr: 0x6E4D8, symSize: 0x100 }
  - { offset: 0x3F4B36, size: 0x8, addend: 0x0, symName: __ZN18llama_model_loader7get_keyIjEEb6llm_kvRT_b, symObjAddr: 0xA24, symBinAddr: 0x668D4, symSize: 0xA0 }
  - { offset: 0x3F4D9F, size: 0x8, addend: 0x0, symName: __ZN18llama_model_loader7get_keyIjEEbRKNSt3__112basic_stringIcNS1_11char_traitsIcEENS1_9allocatorIcEEEERT_b, symObjAddr: 0xAC4, symBinAddr: 0x66974, symSize: 0x15C }
  - { offset: 0x3F5238, size: 0x8, addend: 0x0, symName: __ZN8GGUFMeta3GKVIjE17validate_overrideE28llama_model_kv_override_typePK23llama_model_kv_override, symObjAddr: 0x9324, symBinAddr: 0x6E918, symSize: 0x240 }
  - { offset: 0x3F541A, size: 0x8, addend: 0x0, symName: __ZN8GGUFMeta3GKVIjE6get_kvEPK12gguf_contexti, symObjAddr: 0x9224, symBinAddr: 0x6E818, symSize: 0x100 }
  - { offset: 0x3F55EB, size: 0x8, addend: 0x0, symName: __ZN18llama_model_loader7get_keyINSt3__112basic_stringIcNS1_11char_traitsIcEENS1_9allocatorIcEEEEEEb6llm_kvRT_b, symObjAddr: 0xC20, symBinAddr: 0x66AD0, symSize: 0xA0 }
  - { offset: 0x3F5877, size: 0x8, addend: 0x0, symName: __ZN18llama_model_loader7get_keyINSt3__112basic_stringIcNS1_11char_traitsIcEENS1_9allocatorIcEEEEEEbRKS7_RT_b, symObjAddr: 0xCC0, symBinAddr: 0x66B70, symSize: 0x184 }
  - { offset: 0x3F5EC7, size: 0x8, addend: 0x0, symName: __ZN8GGUFMeta3GKVINSt3__112basic_stringIcNS1_11char_traitsIcEENS1_9allocatorIcEEEEE17validate_overrideE28llama_model_kv_override_typePK23llama_model_kv_override, symObjAddr: 0x96E8, symBinAddr: 0x6ECDC, symSize: 0x240 }
  - { offset: 0x3F60A9, size: 0x8, addend: 0x0, symName: __ZN8GGUFMeta3GKVINSt3__112basic_stringIcNS1_11char_traitsIcEENS1_9allocatorIcEEEEE6get_kvEPK12gguf_contexti, symObjAddr: 0x9564, symBinAddr: 0x6EB58, symSize: 0x184 }
  - { offset: 0x3F653F, size: 0x8, addend: 0x0, symName: __ZN18llama_model_loader7get_keyI18llama_pooling_typeEEb6llm_kvRT_b, symObjAddr: 0xE44, symBinAddr: 0x66CF4, symSize: 0x9C }
  - { offset: 0x3F682D, size: 0x8, addend: 0x0, symName: __ZN18llama_model_loader14get_key_or_arrE6llm_kvRjb, symObjAddr: 0xEE0, symBinAddr: 0x66D90, symSize: 0x1F4 }
  - { offset: 0x3F6E1B, size: 0x8, addend: 0x0, symName: __ZN18llama_model_loader14get_key_or_arrINSt3__15arrayIiLm4EEEEEb6llm_kvRT_jb, symObjAddr: 0x10D4, symBinAddr: 0x66F84, symSize: 0xA8 }
  - { offset: 0x3F70BD, size: 0x8, addend: 0x0, symName: __ZN18llama_model_loader14get_key_or_arrIiLm4EEEbRKNSt3__112basic_stringIcNS1_11char_traitsIcEENS1_9allocatorIcEEEERNS1_5arrayIT_XT0_EEEjb, symObjAddr: 0x117C, symBinAddr: 0x6702C, symSize: 0x320 }
  - { offset: 0x3F778D, size: 0x8, addend: 0x0, symName: __ZN18llama_model_loader7get_arrIiLm4EEEbRKNSt3__112basic_stringIcNS1_11char_traitsIcEENS1_9allocatorIcEEEERNS1_5arrayIT_XT0_EEEb, symObjAddr: 0x9928, symBinAddr: 0x6EF1C, symSize: 0x318 }
  - { offset: 0x3F7E25, size: 0x8, addend: 0x0, symName: __ZN18llama_model_loader7get_keyIiEEbRKNSt3__112basic_stringIcNS1_11char_traitsIcEENS1_9allocatorIcEEEERT_b, symObjAddr: 0x4740, symBinAddr: 0x6A4A8, symSize: 0x15C }
  - { offset: 0x3F81F1, size: 0x8, addend: 0x0, symName: __ZN18llama_model_loader14get_key_or_arrINSt3__15arrayIjLm512EEEEEb6llm_kvRT_jb, symObjAddr: 0x149C, symBinAddr: 0x6734C, symSize: 0xA8 }
  - { offset: 0x3F8493, size: 0x8, addend: 0x0, symName: __ZN18llama_model_loader14get_key_or_arrIjLm512EEEbRKNSt3__112basic_stringIcNS1_11char_traitsIcEENS1_9allocatorIcEEEERNS1_5arrayIT_XT0_EEEjb, symObjAddr: 0x1544, symBinAddr: 0x673F4, symSize: 0x340 }
  - { offset: 0x3F8B64, size: 0x8, addend: 0x0, symName: __ZN18llama_model_loader7get_arrIjLm512EEEbRKNSt3__112basic_stringIcNS1_11char_traitsIcEENS1_9allocatorIcEEEERNS1_5arrayIT_XT0_EEEb, symObjAddr: 0x9C40, symBinAddr: 0x6F234, symSize: 0x878 }
  - { offset: 0x3F91F7, size: 0x8, addend: 0x0, symName: __ZN18llama_model_loader14get_key_or_arrINSt3__15arrayIfLm512EEEEEb6llm_kvRT_jb, symObjAddr: 0x1884, symBinAddr: 0x67734, symSize: 0xA8 }
  - { offset: 0x3F9499, size: 0x8, addend: 0x0, symName: __ZN18llama_model_loader14get_key_or_arrIfLm512EEEbRKNSt3__112basic_stringIcNS1_11char_traitsIcEENS1_9allocatorIcEEEERNS1_5arrayIT_XT0_EEEjb, symObjAddr: 0x192C, symBinAddr: 0x677DC, symSize: 0x344 }
  - { offset: 0x3F9B6A, size: 0x8, addend: 0x0, symName: __ZN18llama_model_loader7get_arrIfLm512EEEbRKNSt3__112basic_stringIcNS1_11char_traitsIcEENS1_9allocatorIcEEEERNS1_5arrayIT_XT0_EEEb, symObjAddr: 0xA4B8, symBinAddr: 0x6FAAC, symSize: 0x2D0 }
  - { offset: 0x3FC751, size: 0x8, addend: 0x0, symName: __ZN18llama_model_loaderC2ERKNSt3__112basic_stringIcNS0_11char_traitsIcEENS0_9allocatorIcEEEERNS0_6vectorIS6_NS4_IS6_EEEEbbbbPK23llama_model_kv_overridePK32llama_model_tensor_buft_override, symObjAddr: 0x1C70, symBinAddr: 0x67B20, symSize: 0x282C }
  - { offset: 0x405A8D, size: 0x8, addend: 0x0, symName: __ZNSt3__112__hash_tableINS_17__hash_value_typeINS_12basic_stringIcNS_11char_traitsIcEENS_9allocatorIcEEEE23llama_model_kv_overrideEENS_22__unordered_map_hasherIS7_S9_NS_4hashIS7_EENS_8equal_toIS7_EELb1EEENS_21__unordered_map_equalIS7_S9_SE_SC_Lb1EEENS5_IS9_EEE25__emplace_unique_key_argsIS7_JNS_4pairIKS7_S8_EEEEENSL_INS_15__hash_iteratorIPNS_11__hash_nodeIS9_PvEEEEbEERKT_DpOT0_, symObjAddr: 0xA7E8, symBinAddr: 0x6FDDC, symSize: 0x42C }
  - { offset: 0x406409, size: 0x8, addend: 0x0, symName: __ZNK18llama_model_loader20weight_name_comparerclERKNSt3__112basic_stringIcNS1_11char_traitsIcEENS1_9allocatorIcEEEES9_, symObjAddr: 0xAE1C, symBinAddr: 0x703FC, symSize: 0xF4 }
  - { offset: 0x4066C6, size: 0x8, addend: 0x0, symName: __ZN18llama_model_loader19llama_tensor_weightC2EPK10llama_filetPK12gguf_contextP11ggml_tensor, symObjAddr: 0x7E58, symBinAddr: 0x6DBB0, symSize: 0x1B8 }
  - { offset: 0x40694E, size: 0x8, addend: 0x0, symName: __ZNSt3__16__treeINS_12__value_typeINS_12basic_stringIcNS_11char_traitsIcEENS_9allocatorIcEEEEN18llama_model_loader19llama_tensor_weightEEENS_19__map_value_compareIS7_SA_NS8_20weight_name_comparerELb1EEENS5_ISA_EEE25__emplace_unique_key_argsIS7_JRS7_S9_EEENS_4pairINS_15__tree_iteratorISA_PNS_11__tree_nodeISA_PvEElEEbEERKT_DpOT0_, symObjAddr: 0xAF10, symBinAddr: 0x704F0, symSize: 0x158 }
  - { offset: 0x406D00, size: 0x8, addend: 0x0, symName: __ZN8GGUFMeta3GKVItE17validate_overrideE28llama_model_kv_override_typePK23llama_model_kv_override, symObjAddr: 0xB374, symBinAddr: 0x707A8, symSize: 0x240 }
  - { offset: 0x406EE2, size: 0x8, addend: 0x0, symName: __ZN8GGUFMeta3GKVItE6get_kvEPK12gguf_contexti, symObjAddr: 0xB274, symBinAddr: 0x706A8, symSize: 0x100 }
  - { offset: 0x4070C1, size: 0x8, addend: 0x0, symName: __ZN18llama_model_loader7get_keyItEEbRKNSt3__112basic_stringIcNS1_11char_traitsIcEENS1_9allocatorIcEEEERT_b, symObjAddr: 0x4540, symBinAddr: 0x6A34C, symSize: 0x15C }
  - { offset: 0x40759E, size: 0x8, addend: 0x0, symName: __ZNSt3__16__treeINS_12__value_typeI9ggml_typejEENS_19__map_value_compareIS2_S3_NS_4lessIS2_EELb1EEENS_9allocatorIS3_EEE7destroyEPNS_11__tree_nodeIS3_PvEE, symObjAddr: 0xB8F4, symBinAddr: 0x70D28, symSize: 0x44 }
  - { offset: 0x4076BF, size: 0x8, addend: 0x0, symName: __ZNK18llama_model_loader20weight_name_comparerclERKNSt3__112basic_stringIcNS1_11char_traitsIcEENS1_9allocatorIcEEEES9_, symObjAddr: 0xAE1C, symBinAddr: 0x703FC, symSize: 0xF4 }
  - { offset: 0x4076CA, size: 0x8, addend: 0x0, symName: __ZNSt3__16vectorINS_10unique_ptrI10llama_fileNS_14default_deleteIS2_EEEENS_9allocatorIS5_EEE20__throw_length_errorB8ne200100Ev, symObjAddr: 0xADF4, symBinAddr: 0x703E8, symSize: 0x14 }
  - { offset: 0x4076F7, size: 0x8, addend: 0x0, symName: __ZNSt3__16vectorIP18ggml_backend_eventNS_9allocatorIS2_EEE12emplace_backIJRS2_EEES7_DpOT_, symObjAddr: 0x814C, symBinAddr: 0x6DD68, symSize: 0xF0 }
  - { offset: 0x407897, size: 0x8, addend: 0x0, symName: __ZNSt3__110unique_ptrINS_11__tree_nodeINS_12__value_typeINS_12basic_stringIcNS_11char_traitsIcEENS_9allocatorIcEEEEN18llama_model_loader19llama_tensor_weightEEEPvEENS_22__tree_node_destructorINS6_ISD_EEEEED1B8ne200100Ev, symObjAddr: 0xB068, symBinAddr: 0x70648, symSize: 0x60 }
  - { offset: 0x407BC5, size: 0x8, addend: 0x0, symName: __ZNSt3__16vectorINS_10unique_ptrI12ggml_context20ggml_context_deleterEENS_9allocatorIS4_EEED1B8ne200100Ev, symObjAddr: 0x489C, symBinAddr: 0x6A604, symSize: 0x70 }
  - { offset: 0x407DBC, size: 0x8, addend: 0x0, symName: __ZNSt3__113unordered_mapINS_12basic_stringIcNS_11char_traitsIcEENS_9allocatorIcEEEE23llama_model_kv_overrideNS_4hashIS6_EENS_8equal_toIS6_EENS4_INS_4pairIKS6_S7_EEEEED1B8ne200100Ev, symObjAddr: 0x490C, symBinAddr: 0x6A674, symSize: 0x68 }
  - { offset: 0x4081C2, size: 0x8, addend: 0x0, symName: __ZNSt3__16__treeINS_12__value_typeINS_12basic_stringIcNS_11char_traitsIcEENS_9allocatorIcEEEEN18llama_model_loader19llama_tensor_weightEEENS_19__map_value_compareIS7_SA_NS8_20weight_name_comparerELb1EEENS5_ISA_EEE7destroyEPNS_11__tree_nodeISA_PvEE, symObjAddr: 0xA788, symBinAddr: 0x6FD7C, symSize: 0x60 }
  - { offset: 0x408406, size: 0x8, addend: 0x0, symName: __ZNSt3__16vectorINS_10unique_ptrI10llama_mmapNS_14default_deleteIS2_EEEENS_9allocatorIS5_EEED1B8ne200100Ev, symObjAddr: 0x4974, symBinAddr: 0x6A6DC, symSize: 0x70 }
  - { offset: 0x408623, size: 0x8, addend: 0x0, symName: __ZNSt3__16vectorINS_10unique_ptrI10llama_fileNS_14default_deleteIS2_EEEENS_9allocatorIS5_EEED1B8ne200100Ev, symObjAddr: 0x49E4, symBinAddr: 0x6A74C, symSize: 0x70 }
  - { offset: 0x4089C5, size: 0x8, addend: 0x0, symName: __ZN18llama_model_loader7get_keyItEEbRKNSt3__112basic_stringIcNS1_11char_traitsIcEENS1_9allocatorIcEEEERT_b, symObjAddr: 0x4540, symBinAddr: 0x6A34C, symSize: 0x15C }
  - { offset: 0x408AD3, size: 0x8, addend: 0x0, symName: __ZN8GGUFMeta3GKVIiE17validate_overrideE28llama_model_kv_override_typePK23llama_model_kv_override, symObjAddr: 0xB6B4, symBinAddr: 0x70AE8, symSize: 0x240 }
  - { offset: 0x408CB5, size: 0x8, addend: 0x0, symName: __ZN8GGUFMeta3GKVIiE6get_kvEPK12gguf_contexti, symObjAddr: 0xB5B4, symBinAddr: 0x709E8, symSize: 0x100 }
  - { offset: 0x409448, size: 0x8, addend: 0x0, symName: __ZN18llama_model_loaderC1ERKNSt3__112basic_stringIcNS0_11char_traitsIcEENS0_9allocatorIcEEEERNS0_6vectorIS6_NS4_IS6_EEEEbbbbPK23llama_model_kv_overridePK32llama_model_tensor_buft_override, symObjAddr: 0x4A54, symBinAddr: 0x6A7BC, symSize: 0xC }
  - { offset: 0x409540, size: 0x8, addend: 0x0, symName: __ZNK18llama_model_loader13get_arch_nameEv, symObjAddr: 0x4A60, symBinAddr: 0x6A7C8, symSize: 0x28 }
  - { offset: 0x409586, size: 0x8, addend: 0x0, symName: __ZNK18llama_model_loader13get_arch_nameEv, symObjAddr: 0x4A60, symBinAddr: 0x6A7C8, symSize: 0x28 }
  - { offset: 0x4095BE, size: 0x8, addend: 0x0, symName: __ZNK18llama_model_loader8get_archEv, symObjAddr: 0x4A88, symBinAddr: 0x6A7F0, symSize: 0x8 }
  - { offset: 0x4096A0, size: 0x8, addend: 0x0, symName: __ZNK18llama_model_loader10get_weightEPKc, symObjAddr: 0x4A90, symBinAddr: 0x6A7F8, symSize: 0x14C }
  - { offset: 0x409C74, size: 0x8, addend: 0x0, symName: __ZNK18llama_model_loader14require_weightEPKc, symObjAddr: 0x4BDC, symBinAddr: 0x6A944, symSize: 0xC4 }
  - { offset: 0x409DF5, size: 0x8, addend: 0x0, symName: __ZNK18llama_model_loader15get_tensor_metaEPKc, symObjAddr: 0x4CA0, symBinAddr: 0x6AA08, symSize: 0x1C }
  - { offset: 0x409E7C, size: 0x8, addend: 0x0, symName: __ZNK18llama_model_loader19require_tensor_metaERKNSt3__112basic_stringIcNS0_11char_traitsIcEENS0_9allocatorIcEEEE, symObjAddr: 0x4CBC, symBinAddr: 0x6AA24, symSize: 0xEC }
  - { offset: 0x40A10F, size: 0x8, addend: 0x0, symName: __ZNK18llama_model_loader17check_tensor_dimsERKNSt3__112basic_stringIcNS0_11char_traitsIcEENS0_9allocatorIcEEEERKNS0_6vectorIxNS4_IxEEEEb, symObjAddr: 0x4DA8, symBinAddr: 0x6AB10, symSize: 0x2E0 }
  - { offset: 0x40ABD1, size: 0x8, addend: 0x0, symName: __ZN18llama_model_loader13create_tensorEP12ggml_contextRKNSt3__112basic_stringIcNS2_11char_traitsIcEENS2_9allocatorIcEEEERKSt16initializer_listIxEi, symObjAddr: 0x5088, symBinAddr: 0x6ADF0, symSize: 0x174 }
  - { offset: 0x40B260, size: 0x8, addend: 0x0, symName: __ZNSt3__16vectorIxNS_9allocatorIxEEE20__throw_length_errorB8ne200100Ev, symObjAddr: 0xB9AC, symBinAddr: 0x70D6C, symSize: 0x14 }
  - { offset: 0x40B278, size: 0x8, addend: 0x0, symName: __ZNSt3__16vectorINS_10unique_ptrI10llama_mmapNS_14default_deleteIS2_EEEENS_9allocatorIS5_EEE20__throw_length_errorB8ne200100Ev, symObjAddr: 0xB9C0, symBinAddr: 0x70D80, symSize: 0x14 }
  - { offset: 0x40B283, size: 0x8, addend: 0x0, symName: __ZN18llama_model_loader21create_tensor_as_viewEP12ggml_contextP11ggml_tensorRKNSt3__112basic_stringIcNS4_11char_traitsIcEENS4_9allocatorIcEEEERKSt16initializer_listIxEmb, symObjAddr: 0x51FC, symBinAddr: 0x6AF64, symSize: 0x28C }
  - { offset: 0x40BACE, size: 0x8, addend: 0x0, symName: __ZNK18llama_model_loader20done_getting_tensorsEv, symObjAddr: 0x5488, symBinAddr: 0x6B1F0, symSize: 0xD0 }
  - { offset: 0x40C814, size: 0x8, addend: 0x0, symName: __ZN18llama_model_loader13init_mappingsEbPNSt3__16vectorINS0_10unique_ptrI11llama_mlockNS0_14default_deleteIS3_EEEENS0_9allocatorIS6_EEEE, symObjAddr: 0x5558, symBinAddr: 0x6B2C0, symSize: 0x528 }
  - { offset: 0x40DF7E, size: 0x8, addend: 0x0, symName: __ZNSt3__16vectorINS_10unique_ptrI10llama_mmapNS_14default_deleteIS2_EEEENS_9allocatorIS5_EEE20__throw_length_errorB8ne200100Ev, symObjAddr: 0xB9C0, symBinAddr: 0x70D80, symSize: 0x14 }
  - { offset: 0x40DFAB, size: 0x8, addend: 0x0, symName: __ZNSt3__16vectorINS_10unique_ptrI11llama_mlockNS_14default_deleteIS2_EEEENS_9allocatorIS5_EEE20__throw_length_errorB8ne200100Ev, symObjAddr: 0xB9E8, symBinAddr: 0x70D94, symSize: 0x14 }
  - { offset: 0x40DFB6, size: 0x8, addend: 0x0, symName: __ZNSt3__16vectorINS_10unique_ptrI11llama_mlockNS_14default_deleteIS2_EEEENS_9allocatorIS5_EEE20__throw_length_errorB8ne200100Ev, symObjAddr: 0xB9E8, symBinAddr: 0x70D94, symSize: 0x14 }
  - { offset: 0x40DFCE, size: 0x8, addend: 0x0, symName: __ZNSt3__16vectorINS_10unique_ptrI10llama_mmapNS_14default_deleteIS2_EEEENS_9allocatorIS5_EEE20__throw_out_of_rangeB8ne200100Ev, symObjAddr: 0xB9FC, symBinAddr: 0x70DA8, symSize: 0x14 }
  - { offset: 0x40DFD9, size: 0x8, addend: 0x0, symName: __ZNSt3__110unique_ptrI10llama_mmapNS_14default_deleteIS1_EEED1B8ne200100Ev, symObjAddr: 0x5ABC, symBinAddr: 0x6B824, symSize: 0x3C }
  - { offset: 0x40E071, size: 0x8, addend: 0x0, symName: __ZNSt3__110unique_ptrI11llama_mlockNS_14default_deleteIS1_EEED1B8ne200100Ev, symObjAddr: 0x5A80, symBinAddr: 0x6B7E8, symSize: 0x3C }
  - { offset: 0x40E224, size: 0x8, addend: 0x0, symName: __ZNK18llama_model_loader17get_mapping_rangeEPmS0_PPviP12ggml_context, symObjAddr: 0x5AF8, symBinAddr: 0x6B860, symSize: 0x134 }
  - { offset: 0x40E4A4, size: 0x8, addend: 0x0, symName: __ZNK18llama_model_loader13load_data_forEP11ggml_tensor, symObjAddr: 0x5C2C, symBinAddr: 0x6B994, symSize: 0x21C }
  - { offset: 0x40E4AF, size: 0x8, addend: 0x0, symName: __ZNSt3__16vectorINS_10unique_ptrI10llama_mmapNS_14default_deleteIS2_EEEENS_9allocatorIS5_EEE20__throw_out_of_rangeB8ne200100Ev, symObjAddr: 0xB9FC, symBinAddr: 0x70DA8, symSize: 0x14 }
  - { offset: 0x40E4C7, size: 0x8, addend: 0x0, symName: __ZNSt3__16vectorINS_10unique_ptrI10llama_fileNS_14default_deleteIS2_EEEENS_9allocatorIS5_EEE20__throw_out_of_rangeB8ne200100Ev, symObjAddr: 0xBA10, symBinAddr: 0x70DBC, symSize: 0x14 }
  - { offset: 0x40E4D2, size: 0x8, addend: 0x0, symName: __ZNK18llama_model_loader13load_data_forEP11ggml_tensor, symObjAddr: 0x5C2C, symBinAddr: 0x6B994, symSize: 0x21C }
  - { offset: 0x410F24, size: 0x8, addend: 0x0, symName: __ZNSt3__113__assoc_stateINS_4pairIP11ggml_tensorbEEE4moveEv, symObjAddr: 0xC048, symBinAddr: 0x713F4, symSize: 0xCC }
  - { offset: 0x411123, size: 0x8, addend: 0x0, symName: __ZNSt3__16vectorIP18ggml_backend_eventNS_9allocatorIS2_EEE12emplace_backIJRS2_EEES7_DpOT_, symObjAddr: 0x814C, symBinAddr: 0x6DD68, symSize: 0xF0 }
  - { offset: 0x41151B, size: 0x8, addend: 0x0, symName: __ZNSt3__16vectorIP19ggml_backend_bufferNS_9allocatorIS2_EEE20__throw_length_errorB8ne200100Ev, symObjAddr: 0x823C, symBinAddr: 0x6DE58, symSize: 0x14 }
  - { offset: 0x41156C, size: 0x8, addend: 0x0, symName: __ZNSt3__16vectorINS_10unique_ptrI10llama_fileNS_14default_deleteIS2_EEEENS_9allocatorIS5_EEE20__throw_out_of_rangeB8ne200100Ev, symObjAddr: 0xBA10, symBinAddr: 0x70DBC, symSize: 0x14 }
  - { offset: 0x411584, size: 0x8, addend: 0x0, symName: '__ZNSt3__119__async_assoc_stateINS_4pairIP11ggml_tensorbEENS_12__async_funcIZN18llama_model_loader13load_all_dataEP12ggml_contextRNS_13unordered_mapIjP19ggml_backend_bufferNS_4hashIjEENS_8equal_toIjEENS_9allocatorINS1_IKjSB_EEEEEEPNS_6vectorINS_10unique_ptrI11llama_mlockNS_14default_deleteISO_EEEENSG_ISR_EEEEPFbfPvESV_E3$_0JEEEED1Ev', symObjAddr: 0xBA24, symBinAddr: 0x70DD0, symSize: 0x4C }
  - { offset: 0x41158F, size: 0x8, addend: 0x0, symName: __ZNSt3__16vectorINS_4pairImmEENS_9allocatorIS2_EEE20__throw_out_of_rangeB8ne200100Ev, symObjAddr: 0xC114, symBinAddr: 0x714C0, symSize: 0x14 }
  - { offset: 0x4115B2, size: 0x8, addend: 0x0, symName: __ZNSt3__16vectorINS_6futureINS_4pairIP11ggml_tensorbEEEENS_9allocatorIS6_EEE20__throw_length_errorB8ne200100Ev, symObjAddr: 0xBD64, symBinAddr: 0x71110, symSize: 0x14 }
  - { offset: 0x4115CA, size: 0x8, addend: 0x0, symName: __ZNSt3__16vectorINS_10unique_ptrI11llama_mlockNS_14default_deleteIS2_EEEENS_9allocatorIS5_EEE20__throw_out_of_rangeB8ne200100Ev, symObjAddr: 0xBD78, symBinAddr: 0x71124, symSize: 0x14 }
  - { offset: 0x4115D5, size: 0x8, addend: 0x0, symName: __ZNSt3__16vectorINS_10unique_ptrI11llama_mlockNS_14default_deleteIS2_EEEENS_9allocatorIS5_EEE20__throw_out_of_rangeB8ne200100Ev, symObjAddr: 0xBD78, symBinAddr: 0x71124, symSize: 0x14 }
  - { offset: 0x4115ED, size: 0x8, addend: 0x0, symName: '__ZNSt3__119__async_assoc_stateINS_4pairIP11ggml_tensorbEENS_12__async_funcIZN18llama_model_loader13load_all_dataEP12ggml_contextRNS_13unordered_mapIjP19ggml_backend_bufferNS_4hashIjEENS_8equal_toIjEENS_9allocatorINS1_IKjSB_EEEEEEPNS_6vectorINS_10unique_ptrI11llama_mlockNS_14default_deleteISO_EEEENSG_ISR_EEEEPFbfPvESV_E3$_1JEEEED1Ev', symObjAddr: 0xBD8C, symBinAddr: 0x71138, symSize: 0x4C }
  - { offset: 0x4115F8, size: 0x8, addend: 0x0, symName: __ZNSt3__16vectorI7no_initIhENS_9allocatorIS2_EEE20__throw_length_errorB8ne200100Ev, symObjAddr: 0xC034, symBinAddr: 0x713E0, symSize: 0x14 }
  - { offset: 0x411610, size: 0x8, addend: 0x0, symName: __ZNSt3__113__assoc_stateINS_4pairIP11ggml_tensorbEEE4moveEv, symObjAddr: 0xC048, symBinAddr: 0x713F4, symSize: 0xCC }
  - { offset: 0x41161B, size: 0x8, addend: 0x0, symName: __ZNSt3__16vectorIP19ggml_backend_bufferNS_9allocatorIS2_EEE20__throw_length_errorB8ne200100Ev, symObjAddr: 0x823C, symBinAddr: 0x6DE58, symSize: 0x14 }
  - { offset: 0x411633, size: 0x8, addend: 0x0, symName: __ZNSt3__16vectorIPvNS_9allocatorIS1_EEE20__throw_length_errorB8ne200100Ev, symObjAddr: 0x8250, symBinAddr: 0x6DE6C, symSize: 0x14 }
  - { offset: 0x41163E, size: 0x8, addend: 0x0, symName: __ZNSt3__16vectorIPvNS_9allocatorIS1_EEE20__throw_length_errorB8ne200100Ev, symObjAddr: 0x8250, symBinAddr: 0x6DE6C, symSize: 0x14 }
  - { offset: 0x411656, size: 0x8, addend: 0x0, symName: __ZNSt3__16vectorIP18ggml_backend_eventNS_9allocatorIS2_EEE20__throw_length_errorB8ne200100Ev, symObjAddr: 0x8264, symBinAddr: 0x6DE80, symSize: 0x14 }
  - { offset: 0x411661, size: 0x8, addend: 0x0, symName: '__ZNSt3__110unique_ptrINS_5tupleIJNS0_INS_15__thread_structENS_14default_deleteIS2_EEEEMNS_19__async_assoc_stateINS_4pairIP11ggml_tensorbEENS_12__async_funcIZN18llama_model_loader13load_all_dataEP12ggml_contextRNS_13unordered_mapIjP19ggml_backend_bufferNS_4hashIjEENS_8equal_toIjEENS_9allocatorINS7_IKjSH_EEEEEEPNS_6vectorINS0_I11llama_mlockNS3_IST_EEEENSM_ISV_EEEEPFbfPvESZ_E3$_1JEEEEEFvvEPS14_EEENS3_IS18_EEED1B8ne200100Ev', symObjAddr: 0xBFEC, symBinAddr: 0x71398, symSize: 0x48 }
  - { offset: 0x411809, size: 0x8, addend: 0x0, symName: __ZNSt3__110unique_ptrINS_15__thread_structENS_14default_deleteIS1_EEED1B8ne200100Ev, symObjAddr: 0xBD28, symBinAddr: 0x710D4, symSize: 0x3C }
  - { offset: 0x4118A1, size: 0x8, addend: 0x0, symName: '__ZNSt3__110unique_ptrINS_5tupleIJNS0_INS_15__thread_structENS_14default_deleteIS2_EEEEMNS_19__async_assoc_stateINS_4pairIP11ggml_tensorbEENS_12__async_funcIZN18llama_model_loader13load_all_dataEP12ggml_contextRNS_13unordered_mapIjP19ggml_backend_bufferNS_4hashIjEENS_8equal_toIjEENS_9allocatorINS7_IKjSH_EEEEEEPNS_6vectorINS0_I11llama_mlockNS3_IST_EEEENSM_ISV_EEEEPFbfPvESZ_E3$_0JEEEEEFvvEPS14_EEENS3_IS18_EEED1B8ne200100Ev', symObjAddr: 0xBCE0, symBinAddr: 0x7108C, symSize: 0x48 }
  - { offset: 0x411A49, size: 0x8, addend: 0x0, symName: __ZNSt3__16vectorINS_6futureINS_4pairIP11ggml_tensorbEEEENS_9allocatorIS6_EEED1B8ne200100Ev, symObjAddr: 0x7880, symBinAddr: 0x6D5E8, symSize: 0x80 }
  - { offset: 0x411C4F, size: 0x8, addend: 0x0, symName: __ZNK18llama_model_loader10ftype_nameEv, symObjAddr: 0x7900, symBinAddr: 0x6D668, symSize: 0xC }
  - { offset: 0x411C8F, size: 0x8, addend: 0x0, symName: __ZL22llama_model_ftype_name11llama_ftype, symObjAddr: 0x790C, symBinAddr: 0x6D674, symSize: 0x3EC }
  - { offset: 0x412118, size: 0x8, addend: 0x0, symName: __ZNK18llama_model_loader10print_infoEv, symObjAddr: 0x7CF8, symBinAddr: 0x6DA60, symSize: 0x150 }
  - { offset: 0x412919, size: 0x8, addend: 0x0, symName: __ZNSt3__16vectorIP18ggml_backend_eventNS_9allocatorIS2_EEE20__throw_length_errorB8ne200100Ev, symObjAddr: 0x8264, symBinAddr: 0x6DE80, symSize: 0x14 }
  - { offset: 0x412931, size: 0x8, addend: 0x0, symName: __ZN8GGUFMeta3GKVINS_9ArrayInfoEE6get_kvEPK12gguf_contexti, symObjAddr: 0x8278, symBinAddr: 0x6DE94, symSize: 0x150 }
  - { offset: 0x4139AD, size: 0x8, addend: 0x0, symName: __ZNSt3__112__hash_tableINS_17__hash_value_typeINS_12basic_stringIcNS_11char_traitsIcEENS_9allocatorIcEEEE23llama_model_kv_overrideEENS_22__unordered_map_hasherIS7_S9_NS_4hashIS7_EENS_8equal_toIS7_EELb1EEENS_21__unordered_map_equalIS7_S9_SE_SC_Lb1EEENS5_IS9_EEE11__do_rehashILb1EEEvm, symObjAddr: 0xAC74, symBinAddr: 0x70268, symSize: 0x180 }
  - { offset: 0x413D3A, size: 0x8, addend: 0x0, symName: __ZNSt3__16vectorINS_10unique_ptrI10llama_fileNS_14default_deleteIS2_EEEENS_9allocatorIS5_EEE20__throw_length_errorB8ne200100Ev, symObjAddr: 0xADF4, symBinAddr: 0x703E8, symSize: 0x14 }
  - { offset: 0x413D4F, size: 0x8, addend: 0x0, symName: __ZNSt3__110unique_ptrINS_11__hash_nodeINS_17__hash_value_typeINS_12basic_stringIcNS_11char_traitsIcEENS_9allocatorIcEEEE23llama_model_kv_overrideEEPvEENS_22__hash_node_destructorINS6_ISC_EEEEED1B8ne200100Ev, symObjAddr: 0xAC14, symBinAddr: 0x70208, symSize: 0x60 }
  - { offset: 0x4142F4, size: 0x8, addend: 0x0, symName: '__ZNSt3__119__async_assoc_stateINS_4pairIP11ggml_tensorbEENS_12__async_funcIZN18llama_model_loader13load_all_dataEP12ggml_contextRNS_13unordered_mapIjP19ggml_backend_bufferNS_4hashIjEENS_8equal_toIjEENS_9allocatorINS1_IKjSB_EEEEEEPNS_6vectorINS_10unique_ptrI11llama_mlockNS_14default_deleteISO_EEEENSG_ISR_EEEEPFbfPvESV_E3$_0JEEEED1Ev', symObjAddr: 0xBA24, symBinAddr: 0x70DD0, symSize: 0x4C }
  - { offset: 0x414390, size: 0x8, addend: 0x0, symName: '__ZNSt3__119__async_assoc_stateINS_4pairIP11ggml_tensorbEENS_12__async_funcIZN18llama_model_loader13load_all_dataEP12ggml_contextRNS_13unordered_mapIjP19ggml_backend_bufferNS_4hashIjEENS_8equal_toIjEENS_9allocatorINS1_IKjSB_EEEEEEPNS_6vectorINS_10unique_ptrI11llama_mlockNS_14default_deleteISO_EEEENSG_ISR_EEEEPFbfPvESV_E3$_0JEEEED0Ev', symObjAddr: 0xBA70, symBinAddr: 0x70E1C, symSize: 0x50 }
  - { offset: 0x41444A, size: 0x8, addend: 0x0, symName: '__ZNSt3__119__async_assoc_stateINS_4pairIP11ggml_tensorbEENS_12__async_funcIZN18llama_model_loader13load_all_dataEP12ggml_contextRNS_13unordered_mapIjP19ggml_backend_bufferNS_4hashIjEENS_8equal_toIjEENS_9allocatorINS1_IKjSB_EEEEEEPNS_6vectorINS_10unique_ptrI11llama_mlockNS_14default_deleteISO_EEEENSG_ISR_EEEEPFbfPvESV_E3$_0JEEEE16__on_zero_sharedEv', symObjAddr: 0xBAC0, symBinAddr: 0x70E6C, symSize: 0x30 }
  - { offset: 0x4146B6, size: 0x8, addend: 0x0, symName: '__ZNSt3__119__async_assoc_stateINS_4pairIP11ggml_tensorbEENS_12__async_funcIZN18llama_model_loader13load_all_dataEP12ggml_contextRNS_13unordered_mapIjP19ggml_backend_bufferNS_4hashIjEENS_8equal_toIjEENS_9allocatorINS1_IKjSB_EEEEEEPNS_6vectorINS_10unique_ptrI11llama_mlockNS_14default_deleteISO_EEEENSG_ISR_EEEEPFbfPvESV_E3$_0JEEEE9__executeEv', symObjAddr: 0xBAF0, symBinAddr: 0x70E9C, symSize: 0x108 }
  - { offset: 0x414B7A, size: 0x8, addend: 0x0, symName: '__ZNSt3__119__async_assoc_stateINS_4pairIP11ggml_tensorbEENS_12__async_funcIZN18llama_model_loader13load_all_dataEP12ggml_contextRNS_13unordered_mapIjP19ggml_backend_bufferNS_4hashIjEENS_8equal_toIjEENS_9allocatorINS1_IKjSB_EEEEEEPNS_6vectorINS_10unique_ptrI11llama_mlockNS_14default_deleteISO_EEEENSG_ISR_EEEEPFbfPvESV_E3$_1JEEEED1Ev', symObjAddr: 0xBD8C, symBinAddr: 0x71138, symSize: 0x4C }
  - { offset: 0x414C16, size: 0x8, addend: 0x0, symName: '__ZNSt3__119__async_assoc_stateINS_4pairIP11ggml_tensorbEENS_12__async_funcIZN18llama_model_loader13load_all_dataEP12ggml_contextRNS_13unordered_mapIjP19ggml_backend_bufferNS_4hashIjEENS_8equal_toIjEENS_9allocatorINS1_IKjSB_EEEEEEPNS_6vectorINS_10unique_ptrI11llama_mlockNS_14default_deleteISO_EEEENSG_ISR_EEEEPFbfPvESV_E3$_1JEEEED0Ev', symObjAddr: 0xBDD8, symBinAddr: 0x71184, symSize: 0x50 }
  - { offset: 0x414CB8, size: 0x8, addend: 0x0, symName: '__ZNSt3__119__async_assoc_stateINS_4pairIP11ggml_tensorbEENS_12__async_funcIZN18llama_model_loader13load_all_dataEP12ggml_contextRNS_13unordered_mapIjP19ggml_backend_bufferNS_4hashIjEENS_8equal_toIjEENS_9allocatorINS1_IKjSB_EEEEEEPNS_6vectorINS_10unique_ptrI11llama_mlockNS_14default_deleteISO_EEEENSG_ISR_EEEEPFbfPvESV_E3$_1JEEEE16__on_zero_sharedEv', symObjAddr: 0xBE28, symBinAddr: 0x711D4, symSize: 0x30 }
  - { offset: 0x414D6A, size: 0x8, addend: 0x0, symName: '__ZNSt3__119__async_assoc_stateINS_4pairIP11ggml_tensorbEENS_12__async_funcIZN18llama_model_loader13load_all_dataEP12ggml_contextRNS_13unordered_mapIjP19ggml_backend_bufferNS_4hashIjEENS_8equal_toIjEENS_9allocatorINS1_IKjSB_EEEEEEPNS_6vectorINS_10unique_ptrI11llama_mlockNS_14default_deleteISO_EEEENSG_ISR_EEEEPFbfPvESV_E3$_1JEEEE9__executeEv', symObjAddr: 0xBE58, symBinAddr: 0x71204, symSize: 0x108 }
  - { offset: 0x430B90, size: 0x8, addend: 0x0, symName: __ZN17llama_model_saverC2ERK11llama_model, symObjAddr: 0x0, symBinAddr: 0x714D4, symSize: 0x38 }
  - { offset: 0x430C02, size: 0x8, addend: 0x0, symName: __ZN17llama_model_saverC1ERK11llama_model, symObjAddr: 0x38, symBinAddr: 0x7150C, symSize: 0x38 }
  - { offset: 0x430C71, size: 0x8, addend: 0x0, symName: __ZN17llama_model_saverD2Ev, symObjAddr: 0x70, symBinAddr: 0x71544, symSize: 0x2C }
  - { offset: 0x430CCA, size: 0x8, addend: 0x0, symName: __ZN17llama_model_saverD1Ev, symObjAddr: 0xAC, symBinAddr: 0x71570, symSize: 0x2C }
  - { offset: 0x430E26, size: 0x8, addend: 0x0, symName: __ZN17llama_model_saver6add_kvE6llm_kvj, symObjAddr: 0xD8, symBinAddr: 0x7159C, symSize: 0x98 }
  - { offset: 0x431102, size: 0x8, addend: 0x0, symName: __ZN17llama_model_saver6add_kvE6llm_kvi, symObjAddr: 0x170, symBinAddr: 0x71634, symSize: 0x98 }
  - { offset: 0x4313DE, size: 0x8, addend: 0x0, symName: __ZN17llama_model_saver6add_kvE6llm_kvf, symObjAddr: 0x208, symBinAddr: 0x716CC, symSize: 0x98 }
  - { offset: 0x4316B4, size: 0x8, addend: 0x0, symName: __ZN17llama_model_saver6add_kvE6llm_kvb, symObjAddr: 0x2A0, symBinAddr: 0x71764, symSize: 0x98 }
  - { offset: 0x431990, size: 0x8, addend: 0x0, symName: __ZN17llama_model_saver6add_kvE6llm_kvPKc, symObjAddr: 0x338, symBinAddr: 0x717FC, symSize: 0x98 }
  - { offset: 0x431C7F, size: 0x8, addend: 0x0, symName: __ZN17llama_model_saver6add_kvE6llm_kvc, symObjAddr: 0x3D0, symBinAddr: 0x71894, symSize: 0x20 }
  - { offset: 0x431CBC, size: 0x8, addend: 0x0, symName: __ZN17llama_model_saver6add_kvE6llm_kvRKNSt3__16vectorINS1_12basic_stringIcNS1_11char_traitsIcEENS1_9allocatorIcEEEENS6_IS8_EEEE, symObjAddr: 0x3F0, symBinAddr: 0x718B4, symSize: 0x2D4 }
  - { offset: 0x431F65, size: 0x8, addend: 0x0, symName: __ZN17llama_model_saver6add_kvE6llm_kvRKNSt3__16vectorINS1_12basic_stringIcNS1_11char_traitsIcEENS1_9allocatorIcEEEENS6_IS8_EEEE, symObjAddr: 0x3F0, symBinAddr: 0x718B4, symSize: 0x2D4 }
  - { offset: 0x4325BA, size: 0x8, addend: 0x0, symName: __ZNSt3__16vectorIPKcNS_9allocatorIS2_EEE20__throw_length_errorB8ne200100Ev, symObjAddr: 0x2CC8, symBinAddr: 0x7411C, symSize: 0x14 }
  - { offset: 0x432859, size: 0x8, addend: 0x0, symName: __ZN17llama_model_saver10add_tensorEPK11ggml_tensor, symObjAddr: 0x6C4, symBinAddr: 0x71B88, symSize: 0x1A0 }
  - { offset: 0x432C2A, size: 0x8, addend: 0x0, symName: __ZN17llama_model_saver17add_kv_from_modelEv, symObjAddr: 0x864, symBinAddr: 0x71D28, symSize: 0x1E68 }
  - { offset: 0x433794, size: 0x8, addend: 0x0, symName: __ZN17llama_model_saver17add_kv_from_modelEv, symObjAddr: 0x864, symBinAddr: 0x71D28, symSize: 0x1E68 }
  - { offset: 0x43E219, size: 0x8, addend: 0x0, symName: __ZN17llama_model_saver6add_kvINSt3__112basic_stringIcNS1_11char_traitsIcEENS1_9allocatorIcEEEEEEv6llm_kvRKT_b, symObjAddr: 0x26CC, symBinAddr: 0x73B90, symSize: 0x148 }
  - { offset: 0x43E650, size: 0x8, addend: 0x0, symName: __ZN17llama_model_saver6add_kvINSt3__15arrayIjLm512EEEEEv6llm_kvRKT_b, symObjAddr: 0x2814, symBinAddr: 0x73CD8, symSize: 0x13C }
  - { offset: 0x43EC02, size: 0x8, addend: 0x0, symName: __ZN17llama_model_saver22add_tensors_from_modelEv, symObjAddr: 0x29C0, symBinAddr: 0x73E14, symSize: 0x2EC }
  - { offset: 0x43F6E5, size: 0x8, addend: 0x0, symName: __ZN17llama_model_saver4saveERKNSt3__112basic_stringIcNS0_11char_traitsIcEENS0_9allocatorIcEEEE, symObjAddr: 0x2CAC, symBinAddr: 0x74100, symSize: 0x1C }
  - { offset: 0x441746, size: 0x8, addend: 0x0, symName: __ZL24LLAMA_ROPE_SCALING_TYPES, symObjAddr: 0x510B10, symBinAddr: 0x35C0B0, symSize: 0x0 }
  - { offset: 0x49F4C5, size: 0x8, addend: 0x0, symName: __ZNSt3__111make_uniqueB8ne200100I20llm_build_nemotron_hJRK11llama_modelRK16llm_graph_paramsELi0EEENS_10unique_ptrIT_NS_14default_deleteIS9_EEEEDpOT0_, symObjAddr: 0x3E5A8, symBinAddr: 0xB2658, symSize: 0x5C }
  - { offset: 0x49F56B, size: 0x8, addend: 0x0, symName: __ZNSt3__111make_uniqueB8ne200100I14llm_build_phi3ILb1EEJRK11llama_modelRK16llm_graph_paramsELi0EEENS_10unique_ptrIT_NS_14default_deleteISA_EEEEDpOT0_, symObjAddr: 0x3D6EC, symBinAddr: 0xB179C, symSize: 0x5C }
  - { offset: 0x49F611, size: 0x8, addend: 0x0, symName: __ZNSt3__111make_uniqueB8ne200100I15llm_build_mambaJRK11llama_modelRK16llm_graph_paramsELi0EEENS_10unique_ptrIT_NS_14default_deleteIS9_EEEEDpOT0_, symObjAddr: 0x3DD64, symBinAddr: 0xB1E14, symSize: 0x5C }
  - { offset: 0x49F6B7, size: 0x8, addend: 0x0, symName: __ZNSt3__111make_uniqueB8ne200100I14llm_build_lfm2JRK11llama_modelRK16llm_graph_paramsELi0EEENS_10unique_ptrIT_NS_14default_deleteIS9_EEEEDpOT0_, symObjAddr: 0x3EF00, symBinAddr: 0xB2FB0, symSize: 0x5C }
  - { offset: 0x49F75D, size: 0x8, addend: 0x0, symName: __ZNSt3__111make_uniqueB8ne200100I20llm_build_mimo2_iswaJRK11llama_modelRK16llm_graph_paramsELi0EEENS_10unique_ptrIT_NS_14default_deleteIS9_EEEEDpOT0_, symObjAddr: 0x3F298, symBinAddr: 0xB3348, symSize: 0x5C }
  - { offset: 0x49F803, size: 0x8, addend: 0x0, symName: __ZNSt3__111make_uniqueB8ne200100I14llm_build_rnd1JRK11llama_modelRK16llm_graph_paramsELi0EEENS_10unique_ptrIT_NS_14default_deleteIS9_EEEEDpOT0_, symObjAddr: 0x3D40C, symBinAddr: 0xB14BC, symSize: 0x5C }
  - { offset: 0x49F8A9, size: 0x8, addend: 0x0, symName: __ZNSt3__111make_uniqueB8ne200100I16llm_build_cogvlmJRK11llama_modelRK16llm_graph_paramsELi0EEENS_10unique_ptrIT_NS_14default_deleteIS9_EEEEDpOT0_, symObjAddr: 0x3F128, symBinAddr: 0xB31D8, symSize: 0x5C }
  - { offset: 0x49F94F, size: 0x8, addend: 0x0, symName: __ZNSt3__111make_uniqueB8ne200100I17llm_build_smollm3JRK11llama_modelRK16llm_graph_paramsELi0EEENS_10unique_ptrIT_NS_14default_deleteIS9_EEEEDpOT0_, symObjAddr: 0x3EDEC, symBinAddr: 0xB2E9C, symSize: 0x5C }
  - { offset: 0x49F9F5, size: 0x8, addend: 0x0, symName: __ZNSt3__111make_uniqueB8ne200100I15llm_build_afmoeJRK11llama_modelRK16llm_graph_paramsELi0EEENS_10unique_ptrIT_NS_14default_deleteIS9_EEEEDpOT0_, symObjAddr: 0x3EC20, symBinAddr: 0xB2CD0, symSize: 0x5C }
  - { offset: 0x49FA9B, size: 0x8, addend: 0x0, symName: __ZNSt3__111make_uniqueB8ne200100I16llm_build_bitnetJRK11llama_modelRK16llm_graph_paramsELi0EEENS_10unique_ptrIT_NS_14default_deleteIS9_EEEEDpOT0_, symObjAddr: 0x3E3DC, symBinAddr: 0xB248C, symSize: 0x5C }
  - { offset: 0x49FB41, size: 0x8, addend: 0x0, symName: __ZNSt3__111make_uniqueB8ne200100I20llm_build_exaone_moeJRK11llama_modelRK16llm_graph_paramsELi0EEENS_10unique_ptrIT_NS_14default_deleteIS9_EEEEDpOT0_, symObjAddr: 0x3E718, symBinAddr: 0xB27C8, symSize: 0x5C }
  - { offset: 0x49FBE7, size: 0x8, addend: 0x0, symName: __ZNSt3__111make_uniqueB8ne200100I24llm_build_granite_hybridJRK11llama_modelRK16llm_graph_paramsELi0EEENS_10unique_ptrIT_NS_14default_deleteIS9_EEEEDpOT0_, symObjAddr: 0x3E8E4, symBinAddr: 0xB2994, symSize: 0x5C }
  - { offset: 0x49FC8D, size: 0x8, addend: 0x0, symName: __ZNSt3__111make_uniqueB8ne200100I18llm_build_grovemoeJRK11llama_modelRK16llm_graph_paramsELi0EEENS_10unique_ptrIT_NS_14default_deleteIS9_EEEEDpOT0_, symObjAddr: 0x3F014, symBinAddr: 0xB30C4, symSize: 0x5C }
  - { offset: 0x49FD33, size: 0x8, addend: 0x0, symName: __ZNSt3__111make_uniqueB8ne200100I14llm_build_jaisJRK11llama_modelRK16llm_graph_paramsELi0EEENS_10unique_ptrIT_NS_14default_deleteIS9_EEEEDpOT0_, symObjAddr: 0x3E4F0, symBinAddr: 0xB25A0, symSize: 0x5C }
  - { offset: 0x49FDD9, size: 0x8, addend: 0x0, symName: __ZNSt3__111make_uniqueB8ne200100I18llm_build_mistral3JRK11llama_modelRK16llm_graph_paramsELi0EEENS_10unique_ptrIT_NS_14default_deleteIS9_EEEEDpOT0_, symObjAddr: 0x3F23C, symBinAddr: 0xB32EC, symSize: 0x5C }
  - { offset: 0x49FE7F, size: 0x8, addend: 0x0, symName: __ZNSt3__111make_uniqueB8ne200100I24llm_build_pangu_embeddedJRK11llama_modelRK16llm_graph_paramsELi0EEENS_10unique_ptrIT_NS_14default_deleteIS9_EEEEDpOT0_, symObjAddr: 0x3F184, symBinAddr: 0xB3234, symSize: 0x5C }
  - { offset: 0x49FF25, size: 0x8, addend: 0x0, symName: __ZNSt3__111make_uniqueB8ne200100I15llm_build_olmoeJRK11llama_modelRK16llm_graph_paramsELi0EEENS_10unique_ptrIT_NS_14default_deleteIS9_EEEEDpOT0_, symObjAddr: 0x3E0A0, symBinAddr: 0xB2150, symSize: 0x5C }
  - { offset: 0x49FFCB, size: 0x8, addend: 0x0, symName: __ZNSt3__111make_uniqueB8ne200100I16llm_build_arcticJRK11llama_modelRK16llm_graph_paramsELi0EEENS_10unique_ptrIT_NS_14default_deleteIS9_EEEEDpOT0_, symObjAddr: 0x3E1B4, symBinAddr: 0xB2264, symSize: 0x5C }
  - { offset: 0x4A0071, size: 0x8, addend: 0x0, symName: __ZNSt3__111make_uniqueB8ne200100I14llm_build_glm4JRK11llama_modelRK16llm_graph_paramsELi0EEENS_10unique_ptrIT_NS_14default_deleteIS9_EEEEDpOT0_, symObjAddr: 0x3E324, symBinAddr: 0xB23D4, symSize: 0x5C }
  - { offset: 0x4A0117, size: 0x8, addend: 0x0, symName: __ZNSt3__111make_uniqueB8ne200100I26llm_build_wavtokenizer_decJRK11llama_modelRK16llm_graph_paramsELi0EEENS_10unique_ptrIT_NS_14default_deleteIS9_EEEEDpOT0_, symObjAddr: 0x3E99C, symBinAddr: 0xB2A4C, symSize: 0x5C }
  - { offset: 0x4A01BD, size: 0x8, addend: 0x0, symName: __ZNSt3__111make_uniqueB8ne200100I17llm_build_chatglmJRK11llama_modelRK16llm_graph_paramsELi0EEENS_10unique_ptrIT_NS_14default_deleteIS9_EEEEDpOT0_, symObjAddr: 0x3E2C8, symBinAddr: 0xB2378, symSize: 0x5C }
  - { offset: 0x4A0263, size: 0x8, addend: 0x0, symName: __ZNSt3__111make_uniqueB8ne200100I22llm_build_gemma3n_iswaJRK11llama_modelRK16llm_graph_paramsELi0EEENS_10unique_ptrIT_NS_14default_deleteIS9_EEEEDpOT0_, symObjAddr: 0x3DC50, symBinAddr: 0xB1D00, symSize: 0x5C }
  - { offset: 0x4A0309, size: 0x8, addend: 0x0, symName: __ZNSt3__111make_uniqueB8ne200100I19llm_build_chameleonJRK11llama_modelRK16llm_graph_paramsELi0EEENS_10unique_ptrIT_NS_14default_deleteIS9_EEEEDpOT0_, symObjAddr: 0x3E940, symBinAddr: 0xB29F0, symSize: 0x5C }
  - { offset: 0x4A03AF, size: 0x8, addend: 0x0, symName: __ZNSt3__111make_uniqueB8ne200100I15llm_build_gemmaJRK11llama_modelRK16llm_graph_paramsELi0EEENS_10unique_ptrIT_NS_14default_deleteIS9_EEEEDpOT0_, symObjAddr: 0x3DAE0, symBinAddr: 0xB1B90, symSize: 0x5C }
  - { offset: 0x4A0455, size: 0x8, addend: 0x0, symName: __ZNSt3__111make_uniqueB8ne200100I18llm_build_deepseekJRK11llama_modelRK16llm_graph_paramsELi0EEENS_10unique_ptrIT_NS_14default_deleteIS9_EEEEDpOT0_, symObjAddr: 0x3E210, symBinAddr: 0xB22C0, symSize: 0x5C }
  - { offset: 0x4A04FB, size: 0x8, addend: 0x0, symName: __ZNSt3__111make_uniqueB8ne200100I18llm_build_glm4_moeJRK11llama_modelRK16llm_graph_paramsELi0EEENS_10unique_ptrIT_NS_14default_deleteIS9_EEEEDpOT0_, symObjAddr: 0x3E380, symBinAddr: 0xB2430, symSize: 0x5C }
  - { offset: 0x4A05A1, size: 0x8, addend: 0x0, symName: __ZNSt3__111make_uniqueB8ne200100I19llm_build_deepseek2JRK11llama_modelRK16llm_graph_paramsELi0EEENS_10unique_ptrIT_NS_14default_deleteIS9_EEEEDpOT0_, symObjAddr: 0x3E26C, symBinAddr: 0xB231C, symSize: 0x5C }
  - { offset: 0x4A0647, size: 0x8, addend: 0x0, symName: __ZNSt3__111make_uniqueB8ne200100I15llm_build_rwkv6JRK11llama_modelRK16llm_graph_paramsELi0EEENS_10unique_ptrIT_NS_14default_deleteIS9_EEEEDpOT0_, symObjAddr: 0x3E774, symBinAddr: 0xB2824, symSize: 0x5C }
  - { offset: 0x4A06ED, size: 0x8, addend: 0x0, symName: __ZNSt3__111make_uniqueB8ne200100I17llm_build_qwen2vlJRK11llama_modelRK16llm_graph_paramsELi0EEENS_10unique_ptrIT_NS_14default_deleteIS9_EEEEDpOT0_, symObjAddr: 0x3D468, symBinAddr: 0xB1518, symSize: 0x5C }
  - { offset: 0x4A0793, size: 0x8, addend: 0x0, symName: __ZNSt3__111make_uniqueB8ne200100I23llm_build_hunyuan_denseJRK11llama_modelRK16llm_graph_paramsELi0EEENS_10unique_ptrIT_NS_14default_deleteIS9_EEEEDpOT0_, symObjAddr: 0x3ED90, symBinAddr: 0xB2E40, symSize: 0x5C }
  - { offset: 0x4A0839, size: 0x8, addend: 0x0, symName: __ZNSt3__111make_uniqueB8ne200100I15llm_build_olmo2ILb1EEJRK11llama_modelRK16llm_graph_paramsELi0EEENS_10unique_ptrIT_NS_14default_deleteISA_EEEEDpOT0_, symObjAddr: 0x3DFE8, symBinAddr: 0xB2098, symSize: 0x5C }
  - { offset: 0x4A08DF, size: 0x8, addend: 0x0, symName: __ZNSt3__111make_uniqueB8ne200100I22llm_build_smallthinkerILb1EEJRK11llama_modelRK16llm_graph_paramsELi0EEENS_10unique_ptrIT_NS_14default_deleteISA_EEEEDpOT0_, symObjAddr: 0x3EF5C, symBinAddr: 0xB300C, symSize: 0x5C }
  - { offset: 0x4A0985, size: 0x8, addend: 0x0, symName: __ZNSt3__111make_uniqueB8ne200100I17llm_build_openelmJRK11llama_modelRK16llm_graph_paramsELi0EEENS_10unique_ptrIT_NS_14default_deleteIS9_EEEEDpOT0_, symObjAddr: 0x3E0FC, symBinAddr: 0xB21AC, symSize: 0x5C }
  - { offset: 0x4A0A2B, size: 0x8, addend: 0x0, symName: __ZNSt3__111make_uniqueB8ne200100I25llm_build_openai_moe_iswaJRK11llama_modelRK16llm_graph_paramsELi0EEENS_10unique_ptrIT_NS_14default_deleteIS9_EEEEDpOT0_, symObjAddr: 0x3EE48, symBinAddr: 0xB2EF8, symSize: 0x5C }
  - { offset: 0x4A0AD1, size: 0x8, addend: 0x0, symName: __ZNSt3__111make_uniqueB8ne200100I19llm_build_codeshellJRK11llama_modelRK16llm_graph_paramsELi0EEENS_10unique_ptrIT_NS_14default_deleteIS9_EEEEDpOT0_, symObjAddr: 0x3D970, symBinAddr: 0xB1A20, symSize: 0x5C }
  - { offset: 0x4A0B77, size: 0x8, addend: 0x0, symName: __ZNSt3__111make_uniqueB8ne200100I16llm_build_plamo3ILb1EEJRK11llama_modelRK16llm_graph_paramsELi0EEENS_10unique_ptrIT_NS_14default_deleteISA_EEEEDpOT0_, symObjAddr: 0x3D85C, symBinAddr: 0xB190C, symSize: 0x5C }
  - { offset: 0x4A0C1D, size: 0x8, addend: 0x0, symName: __ZNSt3__111make_uniqueB8ne200100I15llm_build_orionJRK11llama_modelRK16llm_graph_paramsELi0EEENS_10unique_ptrIT_NS_14default_deleteIS9_EEEEDpOT0_, symObjAddr: 0x3D9CC, symBinAddr: 0xB1A7C, symSize: 0x5C }
  - { offset: 0x4A0CC3, size: 0x8, addend: 0x0, symName: __ZNSt3__111make_uniqueB8ne200100I14llm_build_qwenJRK11llama_modelRK16llm_graph_paramsELi0EEENS_10unique_ptrIT_NS_14default_deleteIS9_EEEEDpOT0_, symObjAddr: 0x3D240, symBinAddr: 0xB12F0, symSize: 0x5C }
  - { offset: 0x4A0D69, size: 0x8, addend: 0x0, symName: __ZNSt3__111make_uniqueB8ne200100I19llm_build_internlm2JRK11llama_modelRK16llm_graph_paramsELi0EEENS_10unique_ptrIT_NS_14default_deleteIS9_EEEEDpOT0_, symObjAddr: 0x3DA28, symBinAddr: 0xB1AD8, symSize: 0x5C }
  - { offset: 0x4A0E0F, size: 0x8, addend: 0x0, symName: __ZNSt3__111make_uniqueB8ne200100I22llm_build_cohere2_iswaJRK11llama_modelRK16llm_graph_paramsELi0EEENS_10unique_ptrIT_NS_14default_deleteIS9_EEEEDpOT0_, symObjAddr: 0x3DED4, symBinAddr: 0xB1F84, symSize: 0x5C }
  - { offset: 0x4A0EB5, size: 0x8, addend: 0x0, symName: __ZNSt3__111make_uniqueB8ne200100I21llm_build_bailingmoe2JRK11llama_modelRK16llm_graph_paramsELi0EEENS_10unique_ptrIT_NS_14default_deleteIS9_EEEEDpOT0_, symObjAddr: 0x3EAB0, symBinAddr: 0xB2B60, symSize: 0x5C }
  - { offset: 0x4A0F5B, size: 0x8, addend: 0x0, symName: __ZNSt3__111make_uniqueB8ne200100I15llm_build_dots1JRK11llama_modelRK16llm_graph_paramsELi0EEENS_10unique_ptrIT_NS_14default_deleteIS9_EEEEDpOT0_, symObjAddr: 0x3EB68, symBinAddr: 0xB2C18, symSize: 0x5C }
  - { offset: 0x4A1001, size: 0x8, addend: 0x0, symName: __ZNSt3__111make_uniqueB8ne200100I19llm_build_starcoderJRK11llama_modelRK16llm_graph_paramsELi0EEENS_10unique_ptrIT_NS_14default_deleteIS9_EEEEDpOT0_, symObjAddr: 0x3CFBC, symBinAddr: 0xB106C, symSize: 0x5C }
  - { offset: 0x4A10A7, size: 0x8, addend: 0x0, symName: __ZNSt3__111make_uniqueB8ne200100I16llm_build_plamo2JRK11llama_modelRK16llm_graph_paramsELi0EEENS_10unique_ptrIT_NS_14default_deleteIS9_EEEEDpOT0_, symObjAddr: 0x3D800, symBinAddr: 0xB18B0, symSize: 0x5C }
  - { offset: 0x4A114D, size: 0x8, addend: 0x0, symName: __ZNSt3__111make_uniqueB8ne200100I18llm_build_stablelmJRK11llama_modelRK16llm_graph_paramsELi0EEENS_10unique_ptrIT_NS_14default_deleteIS9_EEEEDpOT0_, symObjAddr: 0x3D1E4, symBinAddr: 0xB1294, symSize: 0x5C }
  - { offset: 0x4A11F3, size: 0x8, addend: 0x0, symName: __ZNSt3__111make_uniqueB8ne200100I16llm_build_refactJRK11llama_modelRK16llm_graph_paramsELi0EEENS_10unique_ptrIT_NS_14default_deleteIS9_EEEEDpOT0_, symObjAddr: 0x3D018, symBinAddr: 0xB10C8, symSize: 0x5C }
  - { offset: 0x4A1299, size: 0x8, addend: 0x0, symName: __ZNSt3__111make_uniqueB8ne200100I14llm_build_gpt2JRK11llama_modelRK16llm_graph_paramsELi0EEENS_10unique_ptrIT_NS_14default_deleteIS9_EEEEDpOT0_, symObjAddr: 0x3D914, symBinAddr: 0xB19C4, symSize: 0x5C }
  - { offset: 0x4A133F, size: 0x8, addend: 0x0, symName: __ZNSt3__111make_uniqueB8ne200100I13llm_build_mptJRK11llama_modelRK16llm_graph_paramsELi0EEENS_10unique_ptrIT_NS_14default_deleteIS9_EEEEDpOT0_, symObjAddr: 0x3D188, symBinAddr: 0xB1238, symSize: 0x5C }
  - { offset: 0x4A13E5, size: 0x8, addend: 0x0, symName: __ZNSt3__111make_uniqueB8ne200100I14llm_build_deciJRK11llama_modelRK16llm_graph_paramsELi0EEENS_10unique_ptrIT_NS_14default_deleteIS9_EEEEDpOT0_, symObjAddr: 0x3CE4C, symBinAddr: 0xB0EFC, symSize: 0x5C }
  - { offset: 0x4A148B, size: 0x8, addend: 0x0, symName: __ZNSt3__111make_uniqueB8ne200100I16llm_build_falconJRK11llama_modelRK16llm_graph_paramsELi0EEENS_10unique_ptrIT_NS_14default_deleteIS9_EEEEDpOT0_, symObjAddr: 0x3CF04, symBinAddr: 0xB0FB4, symSize: 0x5C }
  - { offset: 0x4A1531, size: 0x8, addend: 0x0, symName: __ZNSt3__111make_uniqueB8ne200100I14llm_build_dbrxJRK11llama_modelRK16llm_graph_paramsELi0EEENS_10unique_ptrIT_NS_14default_deleteIS9_EEEEDpOT0_, symObjAddr: 0x3DF30, symBinAddr: 0xB1FE0, symSize: 0x5C }
  - { offset: 0x4A15D7, size: 0x8, addend: 0x0, symName: __ZNSt3__111make_uniqueB8ne200100I18llm_build_neo_bertJRK11llama_modelRK16llm_graph_paramsELi0EEENS_10unique_ptrIT_NS_14default_deleteIS9_EEEEDpOT0_, symObjAddr: 0x3D0D0, symBinAddr: 0xB1180, symSize: 0x5C }
  - { offset: 0x4A167D, size: 0x8, addend: 0x0, symName: __ZNSt3__111make_uniqueB8ne200100I20llm_build_llama_iswaJRK11llama_modelRK16llm_graph_paramsELi0EEENS_10unique_ptrIT_NS_14default_deleteIS9_EEEEDpOT0_, symObjAddr: 0x3CD38, symBinAddr: 0xB0DE8, symSize: 0x5C }
  - { offset: 0x4A1723, size: 0x8, addend: 0x0, symName: __ZNSt3__111make_uniqueB8ne200100I15llm_build_llamaILb0EEJRK11llama_modelRK16llm_graph_paramsELi0EEENS_10unique_ptrIT_NS_14default_deleteISA_EEEEDpOT0_, symObjAddr: 0x3CCDC, symBinAddr: 0xB0D8C, symSize: 0x5C }
  - { offset: 0x4A17C9, size: 0x8, addend: 0x0, symName: __ZNSt3__111make_uniqueB8ne200100I15llm_build_qwen2JRK11llama_modelRK16llm_graph_paramsELi0EEENS_10unique_ptrIT_NS_14default_deleteIS9_EEEEDpOT0_, symObjAddr: 0x3D29C, symBinAddr: 0xB134C, symSize: 0x5C }
  - { offset: 0x4A186F, size: 0x8, addend: 0x0, symName: __ZNSt3__111make_uniqueB8ne200100I25llm_build_gemma_embeddingJRK11llama_modelRK16llm_graph_paramsELi0EEENS_10unique_ptrIT_NS_14default_deleteIS9_EEEEDpOT0_, symObjAddr: 0x3DCAC, symBinAddr: 0xB1D5C, symSize: 0x5C }
  - { offset: 0x4A1915, size: 0x8, addend: 0x0, symName: __ZNSt3__111make_uniqueB8ne200100I21llm_build_modern_bertJRK11llama_modelRK16llm_graph_paramsELi0EEENS_10unique_ptrIT_NS_14default_deleteIS9_EEEEDpOT0_, symObjAddr: 0x3D074, symBinAddr: 0xB1124, symSize: 0x5C }
  - { offset: 0x4A19BB, size: 0x8, addend: 0x0, symName: __ZNSt3__111make_uniqueB8ne200100I18llm_build_baichuanJRK11llama_modelRK16llm_graph_paramsELi0EEENS_10unique_ptrIT_NS_14default_deleteIS9_EEEEDpOT0_, symObjAddr: 0x3CEA8, symBinAddr: 0xB0F58, symSize: 0x5C }
  - { offset: 0x4A1A61, size: 0x8, addend: 0x0, symName: __ZNSt3__111make_uniqueB8ne200100I19llm_build_qwen3nextJRK11llama_modelRK16llm_graph_paramsELi0EEENS_10unique_ptrIT_NS_14default_deleteIS9_EEEEDpOT0_, symObjAddr: 0x3F1E0, symBinAddr: 0xB3290, symSize: 0x5C }
  - { offset: 0x4A1B07, size: 0x8, addend: 0x0, symName: __ZNSt3__111make_uniqueB8ne200100I21llm_build_gemma2_iswaJRK11llama_modelRK16llm_graph_paramsELi0EEENS_10unique_ptrIT_NS_14default_deleteIS9_EEEEDpOT0_, symObjAddr: 0x3DB3C, symBinAddr: 0xB1BEC, symSize: 0x5C }
  - { offset: 0x4A1BAD, size: 0x8, addend: 0x0, symName: __ZNSt3__111make_uniqueB8ne200100I17llm_build_gptneoxJRK11llama_modelRK16llm_graph_paramsELi0EEENS_10unique_ptrIT_NS_14default_deleteIS9_EEEEDpOT0_, symObjAddr: 0x3E158, symBinAddr: 0xB2208, symSize: 0x5C }
  - { offset: 0x4A1C53, size: 0x8, addend: 0x0, symName: __ZNSt3__111make_uniqueB8ne200100I14llm_build_grokJRK11llama_modelRK16llm_graph_paramsELi0EEENS_10unique_ptrIT_NS_14default_deleteIS9_EEEEDpOT0_, symObjAddr: 0x3CF60, symBinAddr: 0xB1010, symSize: 0x5C }
  - { offset: 0x4A1CF9, size: 0x8, addend: 0x0, symName: __ZNSt3__111make_uniqueB8ne200100I20llm_build_qwen3vlmoeJRK11llama_modelRK16llm_graph_paramsELi0EEENS_10unique_ptrIT_NS_14default_deleteIS9_EEEEDpOT0_, symObjAddr: 0x3D634, symBinAddr: 0xB16E4, symSize: 0x5C }
  - { offset: 0x4A1D9F, size: 0x8, addend: 0x0, symName: __ZNSt3__111make_uniqueB8ne200100I16llm_build_xverseJRK11llama_modelRK16llm_graph_paramsELi0EEENS_10unique_ptrIT_NS_14default_deleteIS9_EEEEDpOT0_, symObjAddr: 0x3DE1C, symBinAddr: 0xB1ECC, symSize: 0x5C }
  - { offset: 0x4A1E45, size: 0x8, addend: 0x0, symName: __ZNSt3__111make_uniqueB8ne200100I14llm_build_phi2JRK11llama_modelRK16llm_graph_paramsELi0EEENS_10unique_ptrIT_NS_14default_deleteIS9_EEEEDpOT0_, symObjAddr: 0x3D690, symBinAddr: 0xB1740, symSize: 0x5C }
  - { offset: 0x4A1EEB, size: 0x8, addend: 0x0, symName: __ZNSt3__111make_uniqueB8ne200100I15llm_build_plamoJRK11llama_modelRK16llm_graph_paramsELi0EEENS_10unique_ptrIT_NS_14default_deleteIS9_EEEEDpOT0_, symObjAddr: 0x3D7A4, symBinAddr: 0xB1854, symSize: 0x5C }
  - { offset: 0x4A1F91, size: 0x8, addend: 0x0, symName: __ZNSt3__111make_uniqueB8ne200100I19llm_build_falcon_h1JRK11llama_modelRK16llm_graph_paramsELi0EEENS_10unique_ptrIT_NS_14default_deleteIS9_EEEEDpOT0_, symObjAddr: 0x3EEA4, symBinAddr: 0xB2F54, symSize: 0x5C }
  - { offset: 0x4A2037, size: 0x8, addend: 0x0, symName: __ZNSt3__111make_uniqueB8ne200100I19llm_build_maincoderJRK11llama_modelRK16llm_graph_paramsELi0EEENS_10unique_ptrIT_NS_14default_deleteIS9_EEEEDpOT0_, symObjAddr: 0x3CDF0, symBinAddr: 0xB0EA0, symSize: 0x5C }
  - { offset: 0x4A20DD, size: 0x8, addend: 0x0, symName: __ZNSt3__111make_uniqueB8ne200100I15llm_build_bloomJRK11llama_modelRK16llm_graph_paramsELi0EEENS_10unique_ptrIT_NS_14default_deleteIS9_EEEEDpOT0_, symObjAddr: 0x3D12C, symBinAddr: 0xB11DC, symSize: 0x5C }
  - { offset: 0x4A2183, size: 0x8, addend: 0x0, symName: __ZNSt3__111make_uniqueB8ne200100I15llm_build_jambaJRK11llama_modelRK16llm_graph_paramsELi0EEENS_10unique_ptrIT_NS_14default_deleteIS9_EEEEDpOT0_, symObjAddr: 0x3DDC0, symBinAddr: 0xB1E70, symSize: 0x5C }
  - { offset: 0x4A2229, size: 0x8, addend: 0x0, symName: __ZNSt3__111make_uniqueB8ne200100I16llm_build_exaoneJRK11llama_modelRK16llm_graph_paramsELi0EEENS_10unique_ptrIT_NS_14default_deleteIS9_EEEEDpOT0_, symObjAddr: 0x3E604, symBinAddr: 0xB26B4, symSize: 0x5C }
  - { offset: 0x4A22CF, size: 0x8, addend: 0x0, symName: __ZNSt3__111make_uniqueB8ne200100I15llm_build_qwen3JRK11llama_modelRK16llm_graph_paramsELi0EEENS_10unique_ptrIT_NS_14default_deleteIS9_EEEEDpOT0_, symObjAddr: 0x3D520, symBinAddr: 0xB15D0, symSize: 0x5C }
  - { offset: 0x4A2375, size: 0x8, addend: 0x0, symName: __ZNSt3__111make_uniqueB8ne200100I18llm_build_qwen2moeJRK11llama_modelRK16llm_graph_paramsELi0EEENS_10unique_ptrIT_NS_14default_deleteIS9_EEEEDpOT0_, symObjAddr: 0x3D4C4, symBinAddr: 0xB1574, symSize: 0x5C }
  - { offset: 0x4A241B, size: 0x8, addend: 0x0, symName: __ZNSt3__111make_uniqueB8ne200100I17llm_build_qwen3vlJRK11llama_modelRK16llm_graph_paramsELi0EEENS_10unique_ptrIT_NS_14default_deleteIS9_EEEEDpOT0_, symObjAddr: 0x3D5D8, symBinAddr: 0xB1688, symSize: 0x5C }
  - { offset: 0x4A24C1, size: 0x8, addend: 0x0, symName: __ZNSt3__111make_uniqueB8ne200100I17llm_build_exaone4ILb1EEJRK11llama_modelRK16llm_graph_paramsELi0EEENS_10unique_ptrIT_NS_14default_deleteISA_EEEEDpOT0_, symObjAddr: 0x3E660, symBinAddr: 0xB2710, symSize: 0x5C }
  - { offset: 0x4A2567, size: 0x8, addend: 0x0, symName: __ZNSt3__111make_uniqueB8ne200100I18llm_build_qwen3moeJRK11llama_modelRK16llm_graph_paramsELi0EEENS_10unique_ptrIT_NS_14default_deleteIS9_EEEEDpOT0_, symObjAddr: 0x3D57C, symBinAddr: 0xB162C, symSize: 0x5C }
  - { offset: 0x4A260D, size: 0x8, addend: 0x0, symName: __ZNSt3__111make_uniqueB8ne200100I15llm_build_rwkv7JRK11llama_modelRK16llm_graph_paramsELi0EEENS_10unique_ptrIT_NS_14default_deleteIS9_EEEEDpOT0_, symObjAddr: 0x3E82C, symBinAddr: 0xB28DC, symSize: 0x5C }
  - { offset: 0x4A26B3, size: 0x8, addend: 0x0, symName: __ZNSt3__111make_uniqueB8ne200100I20llm_build_starcoder2JRK11llama_modelRK16llm_graph_paramsELi0EEENS_10unique_ptrIT_NS_14default_deleteIS9_EEEEDpOT0_, symObjAddr: 0x3DD08, symBinAddr: 0xB1DB8, symSize: 0x5C }
  - { offset: 0x4A2759, size: 0x8, addend: 0x0, symName: __ZNSt3__111make_uniqueB8ne200100I15llm_build_arceeJRK11llama_modelRK16llm_graph_paramsELi0EEENS_10unique_ptrIT_NS_14default_deleteIS9_EEEEDpOT0_, symObjAddr: 0x3EBC4, symBinAddr: 0xB2C74, symSize: 0x5C }
  - { offset: 0x4A27FF, size: 0x8, addend: 0x0, symName: __ZNSt3__111make_uniqueB8ne200100I16llm_build_t5_decJRK11llama_modelRK16llm_graph_paramsELi0EEENS_10unique_ptrIT_NS_14default_deleteIS9_EEEEDpOT0_, symObjAddr: 0x3E494, symBinAddr: 0xB2544, symSize: 0x5C }
  - { offset: 0x4A28A5, size: 0x8, addend: 0x0, symName: __ZNSt3__111make_uniqueB8ne200100I20llm_build_minimax_m2JRK11llama_modelRK16llm_graph_paramsELi0EEENS_10unique_ptrIT_NS_14default_deleteIS9_EEEEDpOT0_, symObjAddr: 0x3F0CC, symBinAddr: 0xB317C, symSize: 0x5C }
  - { offset: 0x4A294B, size: 0x8, addend: 0x0, symName: __ZNSt3__111make_uniqueB8ne200100I17llm_build_apertusJRK11llama_modelRK16llm_graph_paramsELi0EEENS_10unique_ptrIT_NS_14default_deleteIS9_EEEEDpOT0_, symObjAddr: 0x3F070, symBinAddr: 0xB3120, symSize: 0x5C }
  - { offset: 0x4A29F1, size: 0x8, addend: 0x0, symName: __ZNSt3__111make_uniqueB8ne200100I16llm_build_gemma3ILb1EEJRK11llama_modelRK16llm_graph_paramsELi0EEENS_10unique_ptrIT_NS_14default_deleteISA_EEEEDpOT0_, symObjAddr: 0x3DB98, symBinAddr: 0xB1C48, symSize: 0x5C }
  - { offset: 0x4A2A97, size: 0x8, addend: 0x0, symName: __ZNSt3__111make_uniqueB8ne200100I18llm_build_seed_ossJRK11llama_modelRK16llm_graph_paramsELi0EEENS_10unique_ptrIT_NS_14default_deleteIS9_EEEEDpOT0_, symObjAddr: 0x3EB0C, symBinAddr: 0xB2BBC, symSize: 0x5C }
  - { offset: 0x4A2B3D, size: 0x8, addend: 0x0, symName: __ZNSt3__111make_uniqueB8ne200100I19llm_build_command_rJRK11llama_modelRK16llm_graph_paramsELi0EEENS_10unique_ptrIT_NS_14default_deleteIS9_EEEEDpOT0_, symObjAddr: 0x3DE78, symBinAddr: 0xB1F28, symSize: 0x5C }
  - { offset: 0x4A2BE3, size: 0x8, addend: 0x0, symName: __ZNSt3__111make_uniqueB8ne200100I18llm_build_minicpm3JRK11llama_modelRK16llm_graph_paramsELi0EEENS_10unique_ptrIT_NS_14default_deleteIS9_EEEEDpOT0_, symObjAddr: 0x3DA84, symBinAddr: 0xB1B34, symSize: 0x5C }
  - { offset: 0x4A2C89, size: 0x8, addend: 0x0, symName: __ZNSt3__111make_uniqueB8ne200100I18llm_build_nemotronJRK11llama_modelRK16llm_graph_paramsELi0EEENS_10unique_ptrIT_NS_14default_deleteIS9_EEEEDpOT0_, symObjAddr: 0x3E54C, symBinAddr: 0xB25FC, symSize: 0x5C }
  - { offset: 0x4A2D2F, size: 0x8, addend: 0x0, symName: __ZNSt3__111make_uniqueB8ne200100I19llm_build_llada_moeJRK11llama_modelRK16llm_graph_paramsELi0EEENS_10unique_ptrIT_NS_14default_deleteIS9_EEEEDpOT0_, symObjAddr: 0x3D3B0, symBinAddr: 0xB1460, symSize: 0x5C }
  - { offset: 0x4A2DD5, size: 0x8, addend: 0x0, symName: __ZNSt3__111make_uniqueB8ne200100I14llm_build_olmoJRK11llama_modelRK16llm_graph_paramsELi0EEENS_10unique_ptrIT_NS_14default_deleteIS9_EEEEDpOT0_, symObjAddr: 0x3DF8C, symBinAddr: 0xB203C, symSize: 0x5C }
  - { offset: 0x4A2E7B, size: 0x8, addend: 0x0, symName: __ZNSt3__111make_uniqueB8ne200100I22llm_build_ernie4_5_moeJRK11llama_modelRK16llm_graph_paramsELi0EEENS_10unique_ptrIT_NS_14default_deleteIS9_EEEEDpOT0_, symObjAddr: 0x3ECD8, symBinAddr: 0xB2D88, symSize: 0x5C }
  - { offset: 0x4A2F21, size: 0x8, addend: 0x0, symName: __ZNSt3__111make_uniqueB8ne200100I18llm_build_ernie4_5JRK11llama_modelRK16llm_graph_paramsELi0EEENS_10unique_ptrIT_NS_14default_deleteIS9_EEEEDpOT0_, symObjAddr: 0x3EC7C, symBinAddr: 0xB2D2C, symSize: 0x5C }
  - { offset: 0x4A2FC7, size: 0x8, addend: 0x0, symName: __ZNSt3__111make_uniqueB8ne200100I20llm_build_bailingmoeJRK11llama_modelRK16llm_graph_paramsELi0EEENS_10unique_ptrIT_NS_14default_deleteIS9_EEEEDpOT0_, symObjAddr: 0x3EA54, symBinAddr: 0xB2B04, symSize: 0x5C }
  - { offset: 0x4A306D, size: 0x8, addend: 0x0, symName: __ZNSt3__111make_uniqueB8ne200100I13llm_build_plmJRK11llama_modelRK16llm_graph_paramsELi0EEENS_10unique_ptrIT_NS_14default_deleteIS9_EEEEDpOT0_, symObjAddr: 0x3E9F8, symBinAddr: 0xB2AA8, symSize: 0x5C }
  - { offset: 0x4A3113, size: 0x8, addend: 0x0, symName: __ZNSt3__111make_uniqueB8ne200100I15llm_build_dreamJRK11llama_modelRK16llm_graph_paramsELi0EEENS_10unique_ptrIT_NS_14default_deleteIS9_EEEEDpOT0_, symObjAddr: 0x3D2F8, symBinAddr: 0xB13A8, symSize: 0x5C }
  - { offset: 0x4A31B9, size: 0x8, addend: 0x0, symName: __ZNSt3__111make_uniqueB8ne200100I16llm_build_arwkv7JRK11llama_modelRK16llm_graph_paramsELi0EEENS_10unique_ptrIT_NS_14default_deleteIS9_EEEEDpOT0_, symObjAddr: 0x3E888, symBinAddr: 0xB2938, symSize: 0x5C }
  - { offset: 0x4A325F, size: 0x8, addend: 0x0, symName: __ZNSt3__111make_uniqueB8ne200100I20llm_build_rwkv6qwen2JRK11llama_modelRK16llm_graph_paramsELi0EEENS_10unique_ptrIT_NS_14default_deleteIS9_EEEEDpOT0_, symObjAddr: 0x3E7D0, symBinAddr: 0xB2880, symSize: 0x5C }
  - { offset: 0x4A3305, size: 0x8, addend: 0x0, symName: __ZNSt3__111make_uniqueB8ne200100I15llm_build_lladaJRK11llama_modelRK16llm_graph_paramsELi0EEENS_10unique_ptrIT_NS_14default_deleteIS9_EEEEDpOT0_, symObjAddr: 0x3D354, symBinAddr: 0xB1404, symSize: 0x5C }
  - { offset: 0x4A33AB, size: 0x8, addend: 0x0, symName: __ZNSt3__111make_uniqueB8ne200100I21llm_build_hunyuan_moeJRK11llama_modelRK16llm_graph_paramsELi0EEENS_10unique_ptrIT_NS_14default_deleteIS9_EEEEDpOT0_, symObjAddr: 0x3ED34, symBinAddr: 0xB2DE4, symSize: 0x5C }
  - { offset: 0x4A3451, size: 0x8, addend: 0x0, symName: __ZNSt3__111make_uniqueB8ne200100I15llm_build_llamaILb1EEJRK11llama_modelRK16llm_graph_paramsELi0EEENS_10unique_ptrIT_NS_14default_deleteISA_EEEEDpOT0_, symObjAddr: 0x3CD94, symBinAddr: 0xB0E44, symSize: 0x5C }
  - { offset: 0x4A34F7, size: 0x8, addend: 0x0, symName: __ZNSt3__111make_uniqueB8ne200100I14llm_build_phi3ILb0EEJRK11llama_modelRK16llm_graph_paramsELi0EEENS_10unique_ptrIT_NS_14default_deleteISA_EEEEDpOT0_, symObjAddr: 0x3D748, symBinAddr: 0xB17F8, symSize: 0x5C }
  - { offset: 0x4A359D, size: 0x8, addend: 0x0, symName: __ZNSt3__111make_uniqueB8ne200100I15llm_build_olmo2ILb0EEJRK11llama_modelRK16llm_graph_paramsELi0EEENS_10unique_ptrIT_NS_14default_deleteISA_EEEEDpOT0_, symObjAddr: 0x3E044, symBinAddr: 0xB20F4, symSize: 0x5C }
  - { offset: 0x4A3643, size: 0x8, addend: 0x0, symName: __ZNSt3__111make_uniqueB8ne200100I22llm_build_smallthinkerILb0EEJRK11llama_modelRK16llm_graph_paramsELi0EEENS_10unique_ptrIT_NS_14default_deleteISA_EEEEDpOT0_, symObjAddr: 0x3EFB8, symBinAddr: 0xB3068, symSize: 0x5C }
  - { offset: 0x4A36E9, size: 0x8, addend: 0x0, symName: __ZNSt3__111make_uniqueB8ne200100I17llm_build_exaone4ILb0EEJRK11llama_modelRK16llm_graph_paramsELi0EEENS_10unique_ptrIT_NS_14default_deleteISA_EEEEDpOT0_, symObjAddr: 0x3E6BC, symBinAddr: 0xB276C, symSize: 0x5C }
  - { offset: 0x4A378F, size: 0x8, addend: 0x0, symName: __ZNSt3__111make_uniqueB8ne200100I16llm_build_gemma3ILb0EEJRK11llama_modelRK16llm_graph_paramsELi0EEENS_10unique_ptrIT_NS_14default_deleteISA_EEEEDpOT0_, symObjAddr: 0x3DBF4, symBinAddr: 0xB1CA4, symSize: 0x5C }
  - { offset: 0x4A3835, size: 0x8, addend: 0x0, symName: __ZNSt3__111make_uniqueB8ne200100I16llm_build_plamo3ILb0EEJRK11llama_modelRK16llm_graph_paramsELi0EEENS_10unique_ptrIT_NS_14default_deleteISA_EEEEDpOT0_, symObjAddr: 0x3D8B8, symBinAddr: 0xB1968, symSize: 0x5C }
  - { offset: 0x4A38DB, size: 0x8, addend: 0x0, symName: __ZNSt3__111make_uniqueB8ne200100I16llm_build_t5_encJRK11llama_modelRK16llm_graph_paramsELi0EEENS_10unique_ptrIT_NS_14default_deleteIS9_EEEEDpOT0_, symObjAddr: 0x3E438, symBinAddr: 0xB24E8, symSize: 0x5C }
  - { offset: 0x4B3894, size: 0x8, addend: 0x0, symName: __ZN11llama_model12load_tensorsER18llama_model_loader, symObjAddr: 0x5A3C, symBinAddr: 0x79AEC, symSize: 0x33318 }
  - { offset: 0x5444EC, size: 0x8, addend: 0x0, symName: __ZNK11llama_model10print_infoEv, symObjAddr: 0x3A1C8, symBinAddr: 0xAE278, symSize: 0x12A0 }
  - { offset: 0x54780A, size: 0x8, addend: 0x0, symName: __ZNK11llama_model13create_memoryERK19llama_memory_paramsRK13llama_cparams, symObjAddr: 0x3BBC4, symBinAddr: 0xAFC74, symSize: 0x5A0 }
  - { offset: 0x5501FB, size: 0x8, addend: 0x0, symName: __Z13llm_type_name8llm_type, symObjAddr: 0x0, symBinAddr: 0x74130, symSize: 0x28 }
  - { offset: 0x55029D, size: 0x8, addend: 0x0, symName: __ZNSt3__13mapI23llama_rope_scaling_typePKcNS_4lessIS1_EENS_9allocatorINS_4pairIKS1_S3_EEEEED1B8ne200100Ev, symObjAddr: 0x28, symBinAddr: 0x74158, symSize: 0x28 }
  - { offset: 0x550351, size: 0x8, addend: 0x0, symName: __ZNSt3__16__treeINS_12__value_typeI23llama_rope_scaling_typePKcEENS_19__map_value_compareIS2_S5_NS_4lessIS2_EELb1EEENS_9allocatorIS5_EEE7destroyEPNS_11__tree_nodeIS5_PvEE, symObjAddr: 0x4BDC8, symBinAddr: 0xB7D50, symSize: 0x44 }
  - { offset: 0x550758, size: 0x8, addend: 0x0, symName: __Z28llama_rope_scaling_type_name23llama_rope_scaling_type, symObjAddr: 0x50, symBinAddr: 0x74180, symSize: 0xE0 }
  - { offset: 0x550A7A, size: 0x8, addend: 0x0, symName: __ZN11llama_modelC2ERK18llama_model_params, symObjAddr: 0x130, symBinAddr: 0x74260, symSize: 0x2EC }
  - { offset: 0x550FD2, size: 0x8, addend: 0x0, symName: __ZN11llama_modelC2ERK18llama_model_params, symObjAddr: 0x130, symBinAddr: 0x74260, symSize: 0x2EC }
  - { offset: 0x551695, size: 0x8, addend: 0x0, symName: __ZNSt3__113unordered_setIP18llama_adapter_loraNS_4hashIS2_EENS_8equal_toIS2_EENS_9allocatorIS2_EEED1B8ne200100Ev, symObjAddr: 0x41C, symBinAddr: 0x7454C, symSize: 0x48 }
  - { offset: 0x551928, size: 0x8, addend: 0x0, symName: __ZNSt3__16vectorINS_4pairINS_12basic_stringIcNS_11char_traitsIcEENS_9allocatorIcEEEEP11ggml_tensorEENS5_ISA_EEED1B8ne200100Ev, symObjAddr: 0x464, symBinAddr: 0x74594, symSize: 0x70 }
  - { offset: 0x551BB4, size: 0x8, addend: 0x0, symName: __ZNSt3__113unordered_mapINS_12basic_stringIcNS_11char_traitsIcEENS_9allocatorIcEEEES6_NS_4hashIS6_EENS_8equal_toIS6_EENS4_INS_4pairIKS6_S6_EEEEED1B8ne200100Ev, symObjAddr: 0x4D4, symBinAddr: 0x74604, symSize: 0x84 }
  - { offset: 0x55293D, size: 0x8, addend: 0x0, symName: __ZN11llama_modelC1ERK18llama_model_params, symObjAddr: 0x5C8, symBinAddr: 0x74688, symSize: 0x4 }
  - { offset: 0x55297A, size: 0x8, addend: 0x0, symName: __ZN11llama_modelC1ERK18llama_model_params, symObjAddr: 0x5C8, symBinAddr: 0x74688, symSize: 0x4 }
  - { offset: 0x552AB9, size: 0x8, addend: 0x0, symName: __ZN11llama_modelD2Ev, symObjAddr: 0x5CC, symBinAddr: 0x7468C, symSize: 0x1C4 }
  - { offset: 0x553BE4, size: 0x8, addend: 0x0, symName: __ZN11llama_model4implD2Ev, symObjAddr: 0x4BE0C, symBinAddr: 0xB7D94, symSize: 0x16C }
  - { offset: 0x554FCF, size: 0x8, addend: 0x0, symName: __ZN11llama_modelD1Ev, symObjAddr: 0x7A0, symBinAddr: 0x74850, symSize: 0x4 }
  - { offset: 0x554FF2, size: 0x8, addend: 0x0, symName: __ZN11llama_modelD1Ev, symObjAddr: 0x7A0, symBinAddr: 0x74850, symSize: 0x4 }
  - { offset: 0x555021, size: 0x8, addend: 0x0, symName: __ZN11llama_model10load_statsER18llama_model_loader, symObjAddr: 0x7A4, symBinAddr: 0x74854, symSize: 0x10 }
  - { offset: 0x555059, size: 0x8, addend: 0x0, symName: __ZN11llama_model10load_statsER18llama_model_loader, symObjAddr: 0x7A4, symBinAddr: 0x74854, symSize: 0x10 }
  - { offset: 0x5550CA, size: 0x8, addend: 0x0, symName: __ZN11llama_model9load_archER18llama_model_loader, symObjAddr: 0x7B4, symBinAddr: 0x74864, symSize: 0x174 }
  - { offset: 0x55579D, size: 0x8, addend: 0x0, symName: __ZN11llama_model12load_hparamsER18llama_model_loader, symObjAddr: 0x928, symBinAddr: 0x749D8, symSize: 0x4EBC }
  - { offset: 0x55822C, size: 0x8, addend: 0x0, symName: _llama_model_rope_type, symObjAddr: 0x5934, symBinAddr: 0x799E4, symSize: 0xBC }
  - { offset: 0x55825A, size: 0x8, addend: 0x0, symName: __ZN11llama_model10load_vocabER18llama_model_loader, symObjAddr: 0x59F0, symBinAddr: 0x79AA0, symSize: 0x4C }
  - { offset: 0x558282, size: 0x8, addend: 0x0, symName: __ZNK11llama_model9arch_nameEv, symObjAddr: 0x57E4, symBinAddr: 0x79894, symSize: 0xA8 }
  - { offset: 0x5584EB, size: 0x8, addend: 0x0, symName: __ZNK11llama_model9type_nameEv, symObjAddr: 0x588C, symBinAddr: 0x7993C, symSize: 0xA8 }
  - { offset: 0x5584F6, size: 0x8, addend: 0x0, symName: __ZNK11llama_model9type_nameEv, symObjAddr: 0x588C, symBinAddr: 0x7993C, symSize: 0xA8 }
  - { offset: 0x55875F, size: 0x8, addend: 0x0, symName: _llama_model_rope_type, symObjAddr: 0x5934, symBinAddr: 0x799E4, symSize: 0xBC }
  - { offset: 0x55876A, size: 0x8, addend: 0x0, symName: __ZN11llama_model10load_vocabER18llama_model_loader, symObjAddr: 0x59F0, symBinAddr: 0x79AA0, symSize: 0x4C }
  - { offset: 0x55BE9A, size: 0x8, addend: 0x0, symName: __ZNSt3__16vectorINS_4pairIP19ggml_backend_deviceP24ggml_backend_buffer_typeEENS_9allocatorIS6_EEE18__insert_with_sizeB8ne200100INS_11__wrap_iterIPS6_EESD_EESD_NSB_IPKS6_EET_T0_l, symObjAddr: 0x4CD94, symBinAddr: 0xB7FF8, symSize: 0x540 }
  - { offset: 0x55CA04, size: 0x8, addend: 0x0, symName: __ZNSt3__16vectorIN11llama_model4impl9layer_devENS_9allocatorIS3_EEE8__appendEm, symObjAddr: 0x4D2E8, symBinAddr: 0xB8538, symSize: 0x120 }
  - { offset: 0x55CDE2, size: 0x8, addend: 0x0, symName: __ZNSt3__16vectorIN11llama_model4impl9layer_devENS_9allocatorIS3_EEE20__throw_length_errorB8ne200100Ev, symObjAddr: 0x4D408, symBinAddr: 0xB8658, symSize: 0x14 }
  - { offset: 0x55CDFE, size: 0x8, addend: 0x0, symName: '__ZZN11llama_model12load_tensorsER18llama_model_loaderENK3$_1clEi', symObjAddr: 0x38D88, symBinAddr: 0xACE38, symSize: 0x1B8 }
  - { offset: 0x55D145, size: 0x8, addend: 0x0, symName: __ZNSt3__16vectorI11llama_layerNS_9allocatorIS1_EEE6resizeEm, symObjAddr: 0x38F40, symBinAddr: 0xACFF0, symSize: 0x44 }
  - { offset: 0x55D15D, size: 0x8, addend: 0x0, symName: __ZNSt3__16vectorI11llama_layerNS_9allocatorIS1_EEE8__appendEm, symObjAddr: 0x4D484, symBinAddr: 0xB86D4, symSize: 0x1AC }
  - { offset: 0x55D572, size: 0x8, addend: 0x0, symName: __ZNSt3__16vectorI11llama_layerNS_9allocatorIS1_EEE20__throw_length_errorB8ne200100Ev, symObjAddr: 0x4D630, symBinAddr: 0xB8880, symSize: 0x14 }
  - { offset: 0x55D5B0, size: 0x8, addend: 0x0, symName: '__ZZN11llama_model12load_tensorsER18llama_model_loaderENK3$_3clERK11LLM_TN_IMPLRKSt16initializer_listIxEi', symObjAddr: 0x38F84, symBinAddr: 0xAD034, symSize: 0xAF0 }
  - { offset: 0x55F76B, size: 0x8, addend: 0x0, symName: __ZNSt3__16vectorI11llama_layerNS_9allocatorIS1_EEE6resizeEm, symObjAddr: 0x38F40, symBinAddr: 0xACFF0, symSize: 0x44 }
  - { offset: 0x55F79F, size: 0x8, addend: 0x0, symName: __ZNSt3__16vectorI11llama_layerNS_9allocatorIS1_EEE6resizeEm, symObjAddr: 0x38F40, symBinAddr: 0xACFF0, symSize: 0x44 }
  - { offset: 0x55F835, size: 0x8, addend: 0x0, symName: __ZNSt3__16vectorINS_4pairIP12ggml_contextNS_13unordered_mapIjP19ggml_backend_bufferNS_4hashIjEENS_8equal_toIjEENS_9allocatorINS1_IKjS6_EEEEEEEENSB_ISG_EEE7reserveEm, symObjAddr: 0x39A74, symBinAddr: 0xADB24, symSize: 0x108 }
  - { offset: 0x55FDFE, size: 0x8, addend: 0x0, symName: __ZNSt3__114__split_bufferINS_4pairINS_10unique_ptrI12ggml_context20ggml_context_deleterEENS_6vectorINS2_I19ggml_backend_buffer27ggml_backend_buffer_deleterEENS_9allocatorIS9_EEEEEERNSA_ISD_EEE17__destruct_at_endB8ne200100EPSD_, symObjAddr: 0x4D83C, symBinAddr: 0xB8A78, symSize: 0xB4 }
  - { offset: 0x560132, size: 0x8, addend: 0x0, symName: __ZNSt3__112__hash_tableINS_17__hash_value_typeIjP19ggml_backend_bufferEENS_22__unordered_map_hasherIjS4_NS_4hashIjEENS_8equal_toIjEELb1EEENS_21__unordered_map_equalIjS4_S9_S7_Lb1EEENS_9allocatorIS4_EEE11__do_rehashILb1EEEvm, symObjAddr: 0x4D938, symBinAddr: 0xB8B74, symSize: 0x180 }
  - { offset: 0x5604FE, size: 0x8, addend: 0x0, symName: __ZNSt3__112__hash_tableINS_17__hash_value_typeIjP19ggml_backend_bufferEENS_22__unordered_map_hasherIjS4_NS_4hashIjEENS_8equal_toIjEELb1EEENS_21__unordered_map_equalIjS4_S9_S7_Lb1EEENS_9allocatorIS4_EEE25__emplace_unique_key_argsIjJRjRS3_EEENS_4pairINS_15__hash_iteratorIPNS_11__hash_nodeIS4_PvEEEEbEERKT_DpOT0_, symObjAddr: 0x4DACC, symBinAddr: 0xB8CF4, symSize: 0x300 }
  - { offset: 0x560D03, size: 0x8, addend: 0x0, symName: __ZNSt3__16vectorINS_4pairINS_10unique_ptrI12ggml_context20ggml_context_deleterEENS0_INS2_I19ggml_backend_buffer27ggml_backend_buffer_deleterEENS_9allocatorIS8_EEEEEENS9_ISC_EEE24__emplace_back_slow_pathIJS5_SB_EEEPSC_DpOT_, symObjAddr: 0x4DDE0, symBinAddr: 0xB8FF4, symSize: 0x11C }
  - { offset: 0x5611E1, size: 0x8, addend: 0x0, symName: __ZNSt3__16vectorINS_4pairIP12ggml_contextNS_13unordered_mapIjP19ggml_backend_bufferNS_4hashIjEENS_8equal_toIjEENS_9allocatorINS1_IKjS6_EEEEEEEENSB_ISG_EEE24__emplace_back_slow_pathIJRS3_RSF_EEEPSG_DpOT_, symObjAddr: 0x4DEFC, symBinAddr: 0xB9110, symSize: 0x170 }
  - { offset: 0x56120E, size: 0x8, addend: 0x0, symName: __ZNSt3__113unordered_mapIjP19ggml_backend_bufferNS_4hashIjEENS_8equal_toIjEENS_9allocatorINS_4pairIKjS2_EEEEEC2ERKSC_, symObjAddr: 0x4E06C, symBinAddr: 0xB9280, symSize: 0x140 }
  - { offset: 0x5615A6, size: 0x8, addend: 0x0, symName: __ZNSt3__16vectorINS_4pairIP12ggml_contextNS_13unordered_mapIjP19ggml_backend_bufferNS_4hashIjEENS_8equal_toIjEENS_9allocatorINS1_IKjS6_EEEEEEEENSB_ISG_EEE24__emplace_back_slow_pathIJRS3_RSF_EEEPSG_DpOT_, symObjAddr: 0x4DEFC, symBinAddr: 0xB9110, symSize: 0x170 }
  - { offset: 0x561D02, size: 0x8, addend: 0x0, symName: __ZNSt3__16__treeINS_12__value_typeIP24ggml_backend_buffer_typeNS_10unique_ptrI12ggml_context20ggml_context_deleterEEEENS_19__map_value_compareIS3_S8_ZN11llama_model12load_tensorsER18llama_model_loaderE28ggml_backend_buft_comparatorLb1EEENS_9allocatorIS8_EEE7destroyEPNS_11__tree_nodeIS8_PvEE, symObjAddr: 0x4D41C, symBinAddr: 0xB866C, symSize: 0x54 }
  - { offset: 0x561EEA, size: 0x8, addend: 0x0, symName: __ZNSt3__16vectorINS_4pairINS_12basic_stringIcNS_11char_traitsIcEENS_9allocatorIcEEEEP11ggml_tensorEENS5_ISA_EEE20__throw_length_errorB8ne200100Ev, symObjAddr: 0x4E510, symBinAddr: 0xB9724, symSize: 0x14 }
  - { offset: 0x561F1F, size: 0x8, addend: 0x0, symName: __ZNSt3__16vectorINS_4pairIP19ggml_backend_deviceP24ggml_backend_buffer_typeEENS_9allocatorIS6_EEE20__throw_length_errorB8ne200100Ev, symObjAddr: 0x3FB14, symBinAddr: 0xB399C, symSize: 0x14 }
  - { offset: 0x561F4C, size: 0x8, addend: 0x0, symName: __ZNSt3__112__hash_tableINS_17__hash_value_typeIjP19ggml_backend_bufferEENS_22__unordered_map_hasherIjS4_NS_4hashIjEENS_8equal_toIjEELb1EEENS_21__unordered_map_equalIjS4_S9_S7_Lb1EEENS_9allocatorIS4_EEE25__emplace_unique_key_argsIjJRjRS3_EEENS_4pairINS_15__hash_iteratorIPNS_11__hash_nodeIS4_PvEEEEbEERKT_DpOT0_, symObjAddr: 0x4DACC, symBinAddr: 0xB8CF4, symSize: 0x300 }
  - { offset: 0x561F61, size: 0x8, addend: 0x0, symName: __ZNSt3__16vectorINS_4pairIP12ggml_contextNS_13unordered_mapIjP19ggml_backend_bufferNS_4hashIjEENS_8equal_toIjEENS_9allocatorINS1_IKjS6_EEEEEEEENSB_ISG_EEE20__throw_length_errorB8ne200100Ev, symObjAddr: 0x4D658, symBinAddr: 0xB8894, symSize: 0x14 }
  - { offset: 0x561F76, size: 0x8, addend: 0x0, symName: __ZNSt3__16vectorINS_4pairINS_10unique_ptrI12ggml_context20ggml_context_deleterEENS0_INS2_I19ggml_backend_buffer27ggml_backend_buffer_deleterEENS_9allocatorIS8_EEEEEENS9_ISC_EEE24__emplace_back_slow_pathIJS5_SB_EEEPSC_DpOT_, symObjAddr: 0x4DDE0, symBinAddr: 0xB8FF4, symSize: 0x11C }
  - { offset: 0x561F81, size: 0x8, addend: 0x0, symName: __ZNSt3__16vectorINS_4pairINS_10unique_ptrI12ggml_context20ggml_context_deleterEENS0_INS2_I19ggml_backend_buffer27ggml_backend_buffer_deleterEENS_9allocatorIS8_EEEEEENS9_ISC_EEE20__throw_length_errorB8ne200100Ev, symObjAddr: 0x4D828, symBinAddr: 0xB8A64, symSize: 0x14 }
  - { offset: 0x561F99, size: 0x8, addend: 0x0, symName: __ZNSt3__114__split_bufferINS_4pairINS_10unique_ptrI12ggml_context20ggml_context_deleterEENS_6vectorINS2_I19ggml_backend_buffer27ggml_backend_buffer_deleterEENS_9allocatorIS9_EEEEEERNSA_ISD_EEE17__destruct_at_endB8ne200100EPSD_, symObjAddr: 0x4D83C, symBinAddr: 0xB8A78, symSize: 0xB4 }
  - { offset: 0x561FAE, size: 0x8, addend: 0x0, symName: __ZNSt3__16vectorIN11llama_model4impl9layer_devENS_9allocatorIS3_EEE8__appendEm, symObjAddr: 0x4D2E8, symBinAddr: 0xB8538, symSize: 0x120 }
  - { offset: 0x561FB9, size: 0x8, addend: 0x0, symName: __ZNSt3__16vectorINS_10unique_ptrI19ggml_backend_buffer27ggml_backend_buffer_deleterEENS_9allocatorIS4_EEED1B8ne200100Ev, symObjAddr: 0x39B7C, symBinAddr: 0xADC2C, symSize: 0x70 }
  - { offset: 0x5621A7, size: 0x8, addend: 0x0, symName: __ZNSt3__113unordered_mapIjP19ggml_backend_bufferNS_4hashIjEENS_8equal_toIjEENS_9allocatorINS_4pairIKjS2_EEEEED1B8ne200100Ev, symObjAddr: 0x39BEC, symBinAddr: 0xADC9C, symSize: 0x48 }
  - { offset: 0x56243B, size: 0x8, addend: 0x0, symName: __ZNSt3__114__split_bufferINS_4pairINS_12basic_stringIcNS_11char_traitsIcEENS_9allocatorIcEEEEP11ggml_tensorEERNS5_ISA_EEED1Ev, symObjAddr: 0x4E4AC, symBinAddr: 0xB96C0, symSize: 0x64 }
  - { offset: 0x56266E, size: 0x8, addend: 0x0, symName: __ZNSt3__16vectorINS_4pairIP12ggml_contextNS_13unordered_mapIjP19ggml_backend_bufferNS_4hashIjEENS_8equal_toIjEENS_9allocatorINS1_IKjS6_EEEEEEEENSB_ISG_EEED1B8ne200100Ev, symObjAddr: 0x39C34, symBinAddr: 0xADCE4, symSize: 0x88 }
  - { offset: 0x562ABC, size: 0x8, addend: 0x0, symName: __ZNK11llama_model12n_gpu_layersEv, symObjAddr: 0x38D54, symBinAddr: 0xACE04, symSize: 0x20 }
  - { offset: 0x562ADE, size: 0x8, addend: 0x0, symName: __ZNK11llama_model9n_devicesEv, symObjAddr: 0x38D74, symBinAddr: 0xACE24, symSize: 0x14 }
  - { offset: 0x562B02, size: 0x8, addend: 0x0, symName: __ZNK11llama_model9n_devicesEv, symObjAddr: 0x38D74, symBinAddr: 0xACE24, symSize: 0x14 }
  - { offset: 0x562C29, size: 0x8, addend: 0x0, symName: __ZNSt3__16vectorIP19ggml_backend_deviceNS_9allocatorIS2_EEE20__throw_out_of_rangeB8ne200100Ev, symObjAddr: 0x3FBC4, symBinAddr: 0xB39B0, symSize: 0x14 }
  - { offset: 0x562C41, size: 0x8, addend: 0x0, symName: __ZL18select_weight_buftRK13llama_hparamsP11ggml_tensor7ggml_opRKNSt3__16vectorINS5_4pairIP19ggml_backend_deviceP24ggml_backend_buffer_typeEENS5_9allocatorISC_EEEE, symObjAddr: 0x3FBD8, symBinAddr: 0xB39C4, symSize: 0x6C8 }
  - { offset: 0x56356F, size: 0x8, addend: 0x0, symName: __ZNSt3__111basic_regexIcNS_12regex_traitsIcEEEC2B8ne200100EPKcNS_15regex_constants18syntax_option_typeE, symObjAddr: 0x402FC, symBinAddr: 0xB408C, symSize: 0xC8 }
  - { offset: 0x563B0E, size: 0x8, addend: 0x0, symName: __ZL18select_weight_buftRK13llama_hparamsP11ggml_tensor7ggml_opRKNSt3__16vectorINS5_4pairIP19ggml_backend_deviceP24ggml_backend_buffer_typeEENS5_9allocatorISC_EEEE, symObjAddr: 0x3FBD8, symBinAddr: 0xB39C4, symSize: 0x6C8 }
  - { offset: 0x5646B5, size: 0x8, addend: 0x0, symName: __ZNSt3__16vectorIN11llama_model4impl9layer_devENS_9allocatorIS3_EEE20__throw_out_of_rangeB8ne200100Ev, symObjAddr: 0x4D470, symBinAddr: 0xB86C0, symSize: 0x14 }
  - { offset: 0x5646CD, size: 0x8, addend: 0x0, symName: __ZNSt3__16vectorI11llama_layerNS_9allocatorIS1_EEE8__appendEm, symObjAddr: 0x4D484, symBinAddr: 0xB86D4, symSize: 0x1AC }
  - { offset: 0x5648DF, size: 0x8, addend: 0x0, symName: __ZNSt3__16vectorINS_4pairIP12ggml_contextNS_13unordered_mapIjP19ggml_backend_bufferNS_4hashIjEENS_8equal_toIjEENS_9allocatorINS1_IKjS6_EEEEEEEENSB_ISG_EEE26__swap_out_circular_bufferERNS_14__split_bufferISG_RSH_EE, symObjAddr: 0x4D66C, symBinAddr: 0xB88A8, symSize: 0x140 }
  - { offset: 0x564F03, size: 0x8, addend: 0x0, symName: __ZNSt3__16vectorINS_4pairIP12ggml_contextNS_13unordered_mapIjP19ggml_backend_bufferNS_4hashIjEENS_8equal_toIjEENS_9allocatorINS1_IKjS6_EEEEEEEENSB_ISG_EEE20__throw_length_errorB8ne200100Ev, symObjAddr: 0x4D658, symBinAddr: 0xB8894, symSize: 0x14 }
  - { offset: 0x564F1B, size: 0x8, addend: 0x0, symName: __ZNSt3__16vectorINS_4pairIP12ggml_contextNS_13unordered_mapIjP19ggml_backend_bufferNS_4hashIjEENS_8equal_toIjEENS_9allocatorINS1_IKjS6_EEEEEEEENSB_ISG_EEE26__swap_out_circular_bufferERNS_14__split_bufferISG_RSH_EE, symObjAddr: 0x4D66C, symBinAddr: 0xB88A8, symSize: 0x140 }
  - { offset: 0x564F26, size: 0x8, addend: 0x0, symName: __ZNSt3__114__split_bufferINS_4pairIP12ggml_contextNS_13unordered_mapIjP19ggml_backend_bufferNS_4hashIjEENS_8equal_toIjEENS_9allocatorINS1_IKjS6_EEEEEEEERNSB_ISG_EEED1Ev, symObjAddr: 0x4D7AC, symBinAddr: 0xB89E8, symSize: 0x7C }
  - { offset: 0x56538C, size: 0x8, addend: 0x0, symName: __ZNK11llama_model4descEv, symObjAddr: 0x39CBC, symBinAddr: 0xADD6C, symSize: 0x2C }
  - { offset: 0x5653B0, size: 0x8, addend: 0x0, symName: __ZNK11llama_model4descEv, symObjAddr: 0x39CBC, symBinAddr: 0xADD6C, symSize: 0x2C }
  - { offset: 0x565546, size: 0x8, addend: 0x0, symName: __ZNSt3__16vectorINS_4pairIP19ggml_backend_deviceP24ggml_backend_buffer_typeEENS_9allocatorIS6_EEE18__insert_with_sizeB8ne200100INS_11__wrap_iterIPS6_EESD_EESD_NSB_IPKS6_EET_T0_l, symObjAddr: 0x4CD94, symBinAddr: 0xB7FF8, symSize: 0x540 }
  - { offset: 0x565551, size: 0x8, addend: 0x0, symName: __ZNK11llama_model4sizeEv, symObjAddr: 0x39CE8, symBinAddr: 0xADD98, symSize: 0xC }
  - { offset: 0x565575, size: 0x8, addend: 0x0, symName: __ZNK11llama_model4sizeEv, symObjAddr: 0x39CE8, symBinAddr: 0xADD98, symSize: 0xC }
  - { offset: 0x565594, size: 0x8, addend: 0x0, symName: __ZNK11llama_model9n_tensorsEv, symObjAddr: 0x39CF4, symBinAddr: 0xADDA4, symSize: 0x14 }
  - { offset: 0x5655C0, size: 0x8, addend: 0x0, symName: __ZNK11llama_model9n_tensorsEv, symObjAddr: 0x39CF4, symBinAddr: 0xADDA4, symSize: 0x14 }
  - { offset: 0x5655DF, size: 0x8, addend: 0x0, symName: __ZNK11llama_model10split_modeEv, symObjAddr: 0x39D08, symBinAddr: 0xADDB8, symSize: 0xC }
  - { offset: 0x565F15, size: 0x8, addend: 0x0, symName: __ZNK11llama_model16memory_breakdownEv, symObjAddr: 0x39D14, symBinAddr: 0xADDC4, symSize: 0x4A8 }
  - { offset: 0x566C22, size: 0x8, addend: 0x0, symName: __ZNK11llama_model10n_elementsEv, symObjAddr: 0x3A1BC, symBinAddr: 0xAE26C, symSize: 0xC }
  - { offset: 0x566C46, size: 0x8, addend: 0x0, symName: __ZNK11llama_model10n_elementsEv, symObjAddr: 0x3A1BC, symBinAddr: 0xAE26C, symSize: 0xC }
  - { offset: 0x567924, size: 0x8, addend: 0x0, symName: '__ZZNK11llama_model10print_infoEvENK3$_6clERKNSt3__18functionIFjjEEEj', symObjAddr: 0x3B468, symBinAddr: 0xAF518, symSize: 0x2B8 }
  - { offset: 0x5688C4, size: 0x8, addend: 0x0, symName: __ZNK11llama_model9dev_layerEi, symObjAddr: 0x3B720, symBinAddr: 0xAF7D0, symSize: 0x30 }
  - { offset: 0x568900, size: 0x8, addend: 0x0, symName: __ZNK11llama_model9dev_layerEi, symObjAddr: 0x3B720, symBinAddr: 0xAF7D0, symSize: 0x30 }
  - { offset: 0x568961, size: 0x8, addend: 0x0, symName: __ZNK11llama_model10dev_outputEv, symObjAddr: 0x3B750, symBinAddr: 0xAF800, symSize: 0xC }
  - { offset: 0x56896C, size: 0x8, addend: 0x0, symName: __ZNK11llama_model10dev_outputEv, symObjAddr: 0x3B750, symBinAddr: 0xAF800, symSize: 0xC }
  - { offset: 0x568998, size: 0x8, addend: 0x0, symName: __ZNK11llama_model10dev_outputEv, symObjAddr: 0x3B750, symBinAddr: 0xAF800, symSize: 0xC }
  - { offset: 0x568A33, size: 0x8, addend: 0x0, symName: __ZNK11llama_model11select_buftEi, symObjAddr: 0x3B75C, symBinAddr: 0xAF80C, symSize: 0x2D4 }
  - { offset: 0x5693A8, size: 0x8, addend: 0x0, symName: __ZNK11llama_model20has_tensor_overridesEv, symObjAddr: 0x3BA30, symBinAddr: 0xAFAE0, symSize: 0xC }
  - { offset: 0x5693D4, size: 0x8, addend: 0x0, symName: __ZNK11llama_model20has_tensor_overridesEv, symObjAddr: 0x3BA30, symBinAddr: 0xAFAE0, symSize: 0xC }
  - { offset: 0x56941F, size: 0x8, addend: 0x0, symName: __ZNK11llama_model10get_tensorEPKc, symObjAddr: 0x3BA3C, symBinAddr: 0xAFAEC, symSize: 0xC0 }
  - { offset: 0x5696DD, size: 0x8, addend: 0x0, symName: __ZNK11llama_model18get_rope_freq_baseERK13llama_cparamsi, symObjAddr: 0x3BAFC, symBinAddr: 0xAFBAC, symSize: 0x44 }
  - { offset: 0x569727, size: 0x8, addend: 0x0, symName: __ZNK11llama_model19get_rope_freq_scaleERK13llama_cparamsi, symObjAddr: 0x3BB40, symBinAddr: 0xAFBF0, symSize: 0x44 }
  - { offset: 0x569793, size: 0x8, addend: 0x0, symName: __ZNK11llama_model16get_rope_factorsERK13llama_cparamsi, symObjAddr: 0x3BB84, symBinAddr: 0xAFC34, symSize: 0x40 }
  - { offset: 0x5697EB, size: 0x8, addend: 0x0, symName: __ZNK11llama_model16get_rope_factorsERK13llama_cparamsi, symObjAddr: 0x3BB84, symBinAddr: 0xAFC34, symSize: 0x40 }
  - { offset: 0x569A42, size: 0x8, addend: 0x0, symName: '__ZNSt3__18functionIFbiEEaSIZNK11llama_model13create_memoryERK19llama_memory_paramsRK13llama_cparamsE3$_2vEERS2_OT_', symObjAddr: 0x3C29C, symBinAddr: 0xB034C, symSize: 0x9C }
  - { offset: 0x569C2E, size: 0x8, addend: 0x0, symName: '__ZNSt3__18functionIFbiEEaSIZNK11llama_model13create_memoryERK19llama_memory_paramsRK13llama_cparamsE3$_3vEERS2_OT_', symObjAddr: 0x3C338, symBinAddr: 0xB03E8, symSize: 0x9C }
  - { offset: 0x569E1A, size: 0x8, addend: 0x0, symName: '__ZNSt3__18functionIFiiEEaSIZNK11llama_model13create_memoryERK19llama_memory_paramsRK13llama_cparamsE3$_4vEERS2_OT_', symObjAddr: 0x3C3D4, symBinAddr: 0xB0484, symSize: 0x9C }
  - { offset: 0x56A006, size: 0x8, addend: 0x0, symName: '__ZNSt3__18functionIFbiEEaSIZNK11llama_model13create_memoryERK19llama_memory_paramsRK13llama_cparamsE3$_0vEERS2_OT_', symObjAddr: 0x3C164, symBinAddr: 0xB0214, symSize: 0x9C }
  - { offset: 0x56A1E4, size: 0x8, addend: 0x0, symName: '__ZNSt3__18functionIFbiEEaSIZNK11llama_model13create_memoryERK19llama_memory_paramsRK13llama_cparamsE3$_1vEERS2_OT_', symObjAddr: 0x3C200, symBinAddr: 0xB02B0, symSize: 0x9C }
  - { offset: 0x56A5B0, size: 0x8, addend: 0x0, symName: __ZNSt3__110__function12__value_funcIFbiEE4swapB8ne200100ERS3_, symObjAddr: 0x4EB34, symBinAddr: 0xB9D04, symSize: 0x198 }
  - { offset: 0x56AE30, size: 0x8, addend: 0x0, symName: __ZNSt3__110__function12__value_funcIFiiEE4swapB8ne200100ERS3_, symObjAddr: 0x4F0CC, symBinAddr: 0xBA29C, symSize: 0x198 }
  - { offset: 0x56B05A, size: 0x8, addend: 0x0, symName: __ZNK11llama_model11build_graphERK16llm_graph_params, symObjAddr: 0x3C470, symBinAddr: 0xB0520, symSize: 0x86C }
  - { offset: 0x56E73B, size: 0x8, addend: 0x0, symName: _llama_model_default_params, symObjAddr: 0x3F2F4, symBinAddr: 0xB33A4, symSize: 0x2C }
  - { offset: 0x56E767, size: 0x8, addend: 0x0, symName: _llama_model_get_vocab, symObjAddr: 0x3F320, symBinAddr: 0xB33D0, symSize: 0xC }
  - { offset: 0x56E7C7, size: 0x8, addend: 0x0, symName: _llama_free_model, symObjAddr: 0x3F32C, symBinAddr: 0xB33DC, symSize: 0x1C }
  - { offset: 0x56E7EF, size: 0x8, addend: 0x0, symName: _llama_free_model, symObjAddr: 0x3F32C, symBinAddr: 0xB33DC, symSize: 0x1C }
  - { offset: 0x56E835, size: 0x8, addend: 0x0, symName: _llama_model_free, symObjAddr: 0x3F348, symBinAddr: 0xB33F8, symSize: 0x1C }
  - { offset: 0x56E87C, size: 0x8, addend: 0x0, symName: _llama_model_n_ctx_train, symObjAddr: 0x3F364, symBinAddr: 0xB3414, symSize: 0x8 }
  - { offset: 0x56E89A, size: 0x8, addend: 0x0, symName: _llama_model_n_embd, symObjAddr: 0x3F36C, symBinAddr: 0xB341C, symSize: 0x8 }
  - { offset: 0x56E8B8, size: 0x8, addend: 0x0, symName: _llama_model_n_embd_inp, symObjAddr: 0x3F374, symBinAddr: 0xB3424, symSize: 0x8 }
  - { offset: 0x56E8E4, size: 0x8, addend: 0x0, symName: _llama_model_n_embd_out, symObjAddr: 0x3F37C, symBinAddr: 0xB342C, symSize: 0x8 }
  - { offset: 0x56E910, size: 0x8, addend: 0x0, symName: _llama_model_n_layer, symObjAddr: 0x3F384, symBinAddr: 0xB3434, symSize: 0x8 }
  - { offset: 0x56E92E, size: 0x8, addend: 0x0, symName: _llama_model_n_head, symObjAddr: 0x3F38C, symBinAddr: 0xB343C, symSize: 0xC }
  - { offset: 0x56E94C, size: 0x8, addend: 0x0, symName: _llama_model_n_head_kv, symObjAddr: 0x3F398, symBinAddr: 0xB3448, symSize: 0xC }
  - { offset: 0x56E978, size: 0x8, addend: 0x0, symName: _llama_model_n_swa, symObjAddr: 0x3F3A4, symBinAddr: 0xB3454, symSize: 0x8 }
  - { offset: 0x56E9A4, size: 0x8, addend: 0x0, symName: _llama_model_n_cls_out, symObjAddr: 0x3F3AC, symBinAddr: 0xB345C, symSize: 0x8 }
  - { offset: 0x56E9F2, size: 0x8, addend: 0x0, symName: _llama_model_cls_label, symObjAddr: 0x3F3B4, symBinAddr: 0xB3464, symSize: 0x4C }
  - { offset: 0x56EB04, size: 0x8, addend: 0x0, symName: _llama_n_ctx_train, symObjAddr: 0x3F400, symBinAddr: 0xB34B0, symSize: 0x8 }
  - { offset: 0x56EB32, size: 0x8, addend: 0x0, symName: _llama_n_ctx_train, symObjAddr: 0x3F400, symBinAddr: 0xB34B0, symSize: 0x8 }
  - { offset: 0x56EB68, size: 0x8, addend: 0x0, symName: _llama_n_embd, symObjAddr: 0x3F408, symBinAddr: 0xB34B8, symSize: 0x8 }
  - { offset: 0x56EB96, size: 0x8, addend: 0x0, symName: _llama_n_embd, symObjAddr: 0x3F408, symBinAddr: 0xB34B8, symSize: 0x8 }
  - { offset: 0x56EBCC, size: 0x8, addend: 0x0, symName: _llama_n_layer, symObjAddr: 0x3F410, symBinAddr: 0xB34C0, symSize: 0x8 }
  - { offset: 0x56EBFA, size: 0x8, addend: 0x0, symName: _llama_n_layer, symObjAddr: 0x3F410, symBinAddr: 0xB34C0, symSize: 0x8 }
  - { offset: 0x56EC30, size: 0x8, addend: 0x0, symName: _llama_n_head, symObjAddr: 0x3F418, symBinAddr: 0xB34C8, symSize: 0xC }
  - { offset: 0x56EC5E, size: 0x8, addend: 0x0, symName: _llama_n_head, symObjAddr: 0x3F418, symBinAddr: 0xB34C8, symSize: 0xC }
  - { offset: 0x56EC7B, size: 0x8, addend: 0x0, symName: _llama_model_rope_freq_scale_train, symObjAddr: 0x3F424, symBinAddr: 0xB34D4, symSize: 0x8 }
  - { offset: 0x56ECCD, size: 0x8, addend: 0x0, symName: _llama_model_meta_val_str, symObjAddr: 0x3F42C, symBinAddr: 0xB34DC, symSize: 0x140 }
  - { offset: 0x56F4F3, size: 0x8, addend: 0x0, symName: _llama_model_meta_count, symObjAddr: 0x3F56C, symBinAddr: 0xB361C, symSize: 0xC }
  - { offset: 0x56F561, size: 0x8, addend: 0x0, symName: _llama_model_meta_key_str, symObjAddr: 0x3F578, symBinAddr: 0xB3628, symSize: 0x20 }
  - { offset: 0x56F641, size: 0x8, addend: 0x0, symName: _llama_model_meta_key_by_index, symObjAddr: 0x3F598, symBinAddr: 0xB3648, symSize: 0x88 }
  - { offset: 0x56F87F, size: 0x8, addend: 0x0, symName: _llama_model_meta_val_str_by_index, symObjAddr: 0x3F620, symBinAddr: 0xB36D0, symSize: 0x88 }
  - { offset: 0x56FA8D, size: 0x8, addend: 0x0, symName: _llama_model_desc, symObjAddr: 0x3F6A8, symBinAddr: 0xB3758, symSize: 0xAC }
  - { offset: 0x56FD43, size: 0x8, addend: 0x0, symName: _llama_model_size, symObjAddr: 0x3F754, symBinAddr: 0xB3804, symSize: 0xC }
  - { offset: 0x56FD71, size: 0x8, addend: 0x0, symName: _llama_model_size, symObjAddr: 0x3F754, symBinAddr: 0xB3804, symSize: 0xC }
  - { offset: 0x56FD8D, size: 0x8, addend: 0x0, symName: _llama_model_size, symObjAddr: 0x3F754, symBinAddr: 0xB3804, symSize: 0xC }
  - { offset: 0x56FDAD, size: 0x8, addend: 0x0, symName: _llama_model_chat_template, symObjAddr: 0x3F760, symBinAddr: 0xB3810, symSize: 0x12C }
  - { offset: 0x570106, size: 0x8, addend: 0x0, symName: _llama_model_n_params, symObjAddr: 0x3F88C, symBinAddr: 0xB393C, symSize: 0xC }
  - { offset: 0x570134, size: 0x8, addend: 0x0, symName: _llama_model_n_params, symObjAddr: 0x3F88C, symBinAddr: 0xB393C, symSize: 0xC }
  - { offset: 0x570150, size: 0x8, addend: 0x0, symName: _llama_model_n_params, symObjAddr: 0x3F88C, symBinAddr: 0xB393C, symSize: 0xC }
  - { offset: 0x570170, size: 0x8, addend: 0x0, symName: _llama_model_has_encoder, symObjAddr: 0x3F898, symBinAddr: 0xB3948, symSize: 0x14 }
  - { offset: 0x57019C, size: 0x8, addend: 0x0, symName: _llama_model_has_decoder, symObjAddr: 0x3F8AC, symBinAddr: 0xB395C, symSize: 0x10 }
  - { offset: 0x5701C8, size: 0x8, addend: 0x0, symName: _llama_model_decoder_start_token, symObjAddr: 0x3F8BC, symBinAddr: 0xB396C, symSize: 0xC }
  - { offset: 0x5701F4, size: 0x8, addend: 0x0, symName: _llama_model_is_recurrent, symObjAddr: 0x3F8C8, symBinAddr: 0xB3978, symSize: 0x8 }
  - { offset: 0x57022E, size: 0x8, addend: 0x0, symName: _llama_model_is_hybrid, symObjAddr: 0x3F8D0, symBinAddr: 0xB3980, symSize: 0x8 }
  - { offset: 0x570268, size: 0x8, addend: 0x0, symName: _llama_model_is_diffusion, symObjAddr: 0x3F8D8, symBinAddr: 0xB3988, symSize: 0x8 }
  - { offset: 0x5702B8, size: 0x8, addend: 0x0, symName: __Z29llama_internal_get_tensor_mapPK11llama_model, symObjAddr: 0x3F8E0, symBinAddr: 0xB3990, symSize: 0xC }
  - { offset: 0x570E55, size: 0x8, addend: 0x0, symName: __ZNSt3__111basic_regexIcNS_12regex_traitsIcEEE7__parseIPKcEET_S7_S7_, symObjAddr: 0x40420, symBinAddr: 0xB4154, symSize: 0x340 }
  - { offset: 0x571DB6, size: 0x8, addend: 0x0, symName: __ZNSt3__111basic_regexIcNS_12regex_traitsIcEEE13__parse_egrepIPKcEET_S7_S7_, symObjAddr: 0x40DCC, symBinAddr: 0xB4AB4, symSize: 0x1A0 }
  - { offset: 0x5722F5, size: 0x8, addend: 0x0, symName: __ZNSt3__111basic_regexIcNS_12regex_traitsIcEEE24__parse_extended_reg_expIPKcEET_S7_S7_, symObjAddr: 0x40AD0, symBinAddr: 0xB47B8, symSize: 0x15C }
  - { offset: 0x572615, size: 0x8, addend: 0x0, symName: __ZNSt3__111basic_regexIcNS_12regex_traitsIcEEE12__parse_grepIPKcEET_S7_S7_, symObjAddr: 0x40C2C, symBinAddr: 0xB4914, symSize: 0x1A0 }
  - { offset: 0x572629, size: 0x8, addend: 0x0, symName: __ZNSt3__111basic_regexIcNS_12regex_traitsIcEEE21__parse_basic_reg_expIPKcEET_S7_S7_, symObjAddr: 0x40958, symBinAddr: 0xB4640, symSize: 0x178 }
  - { offset: 0x572985, size: 0x8, addend: 0x0, symName: __ZNSt3__111basic_regexIcNS_12regex_traitsIcEEE24__parse_extended_reg_expIPKcEET_S7_S7_, symObjAddr: 0x40AD0, symBinAddr: 0xB47B8, symSize: 0x15C }
  - { offset: 0x572999, size: 0x8, addend: 0x0, symName: __ZNSt3__111basic_regexIcNS_12regex_traitsIcEEE12__parse_grepIPKcEET_S7_S7_, symObjAddr: 0x40C2C, symBinAddr: 0xB4914, symSize: 0x1A0 }
  - { offset: 0x572ED8, size: 0x8, addend: 0x0, symName: __ZNSt3__111basic_regexIcNS_12regex_traitsIcEEE19__parse_alternativeIPKcEET_S7_S7_, symObjAddr: 0x411B0, symBinAddr: 0xB4C54, symSize: 0xA0 }
  - { offset: 0x57301D, size: 0x8, addend: 0x0, symName: __ZNSt3__111basic_regexIcNS_12regex_traitsIcEEE16__parse_ecma_expIPKcEET_S7_S7_, symObjAddr: 0x407AC, symBinAddr: 0xB4494, symSize: 0x1AC }
  - { offset: 0x57340F, size: 0x8, addend: 0x0, symName: __ZNSt3__111basic_regexIcNS_12regex_traitsIcEEE12__parse_termIPKcEET_S7_S7_, symObjAddr: 0x41250, symBinAddr: 0xB4CF4, symSize: 0x94 }
  - { offset: 0x5736AA, size: 0x8, addend: 0x0, symName: __ZNSt3__111basic_regexIcNS_12regex_traitsIcEEE18__parse_nondupl_REIPKcEET_S7_S7_, symObjAddr: 0x483E8, symBinAddr: 0xB7128, symSize: 0x2F8 }
  - { offset: 0x573D36, size: 0x8, addend: 0x0, symName: __ZNSt3__111basic_regexIcNS_12regex_traitsIcEEE22__parse_RE_dupl_symbolIPKcEET_S7_S7_PNS_16__owns_one_stateIcEEjj, symObjAddr: 0x486E0, symBinAddr: 0xB7420, symSize: 0x274 }
  - { offset: 0x573D4A, size: 0x8, addend: 0x0, symName: __ZNSt3__111basic_regexIcNS_12regex_traitsIcEEE22__parse_RE_dupl_symbolIPKcEET_S7_S7_PNS_16__owns_one_stateIcEEjj, symObjAddr: 0x486E0, symBinAddr: 0xB7420, symSize: 0x274 }
  - { offset: 0x5742F9, size: 0x8, addend: 0x0, symName: __ZNSt3__111basic_regexIcNS_12regex_traitsIcEEE22__parse_ERE_expressionIPKcEET_S7_S7_, symObjAddr: 0x48A84, symBinAddr: 0xB7694, symSize: 0x1F0 }
  - { offset: 0x574681, size: 0x8, addend: 0x0, symName: __ZNSt3__111basic_regexIcNS_12regex_traitsIcEEE33__parse_one_char_or_coll_elem_EREIPKcEET_S7_S7_, symObjAddr: 0x48C74, symBinAddr: 0xB7884, symSize: 0x158 }
  - { offset: 0x574767, size: 0x8, addend: 0x0, symName: __ZNSt3__111basic_regexIcNS_12regex_traitsIcEEE23__parse_ERE_dupl_symbolIPKcEET_S7_S7_PNS_16__owns_one_stateIcEEjj, symObjAddr: 0x41880, symBinAddr: 0xB5324, symSize: 0x3E4 }
  - { offset: 0x574D06, size: 0x8, addend: 0x0, symName: __ZNSt3__111basic_regexIcNS_12regex_traitsIcEEE17__parse_assertionIPKcEET_S7_S7_, symObjAddr: 0x412E4, symBinAddr: 0xB4D88, symSize: 0x364 }
  - { offset: 0x57531C, size: 0x8, addend: 0x0, symName: __ZNSt3__111basic_regexIcNS_12regex_traitsIcEEE12__parse_atomIPKcEET_S7_S7_, symObjAddr: 0x41648, symBinAddr: 0xB50EC, symSize: 0x238 }
  - { offset: 0x57567D, size: 0x8, addend: 0x0, symName: __ZNSt3__111basic_regexIcNS_12regex_traitsIcEEE23__parse_ERE_dupl_symbolIPKcEET_S7_S7_PNS_16__owns_one_stateIcEEjj, symObjAddr: 0x41880, symBinAddr: 0xB5324, symSize: 0x3E4 }
  - { offset: 0x575B0C, size: 0x8, addend: 0x0, symName: __ZNSt3__111basic_regexIcNS_12regex_traitsIcEEE26__parse_bracket_expressionIPKcEET_S7_S7_, symObjAddr: 0x434F8, symBinAddr: 0xB5888, symSize: 0x160 }
  - { offset: 0x575CE0, size: 0x8, addend: 0x0, symName: __ZNSt3__111basic_regexIcNS_12regex_traitsIcEEE19__parse_atom_escapeIPKcEET_S7_S7_, symObjAddr: 0x43378, symBinAddr: 0xB5708, symSize: 0x180 }
  - { offset: 0x575E6C, size: 0x8, addend: 0x0, symName: __ZNSt3__111basic_regexIcNS_12regex_traitsIcEEE26__parse_bracket_expressionIPKcEET_S7_S7_, symObjAddr: 0x434F8, symBinAddr: 0xB5888, symSize: 0x160 }
  - { offset: 0x575E80, size: 0x8, addend: 0x0, symName: __ZNSt3__111basic_regexIcNS_12regex_traitsIcEEE25__parse_pattern_characterIPKcEET_S7_S7_, symObjAddr: 0x436A4, symBinAddr: 0xB59E8, symSize: 0x7C }
  - { offset: 0x57A1ED, size: 0x8, addend: 0x0, symName: __ZNSt3__111basic_regexIcNS_12regex_traitsIcEEE30__parse_character_class_escapeIPKcEET_S7_S7_, symObjAddr: 0x437FC, symBinAddr: 0xB5A64, symSize: 0x25C }
  - { offset: 0x57A648, size: 0x8, addend: 0x0, symName: __ZNSt3__111basic_regexIcNS_12regex_traitsIcEEE24__parse_character_escapeIPKcEET_S7_S7_PNS_12basic_stringIcNS_11char_traitsIcEENS_9allocatorIcEEEE, symObjAddr: 0x43A58, symBinAddr: 0xB5CC0, symSize: 0x40C }
  - { offset: 0x57B156, size: 0x8, addend: 0x0, symName: __ZNSt3__111basic_regexIcNS_12regex_traitsIcEEE23__parse_expression_termIPKcEET_S7_S7_PNS_20__bracket_expressionIcS2_EE, symObjAddr: 0x45B50, symBinAddr: 0xB60CC, symSize: 0x54C }
  - { offset: 0x57D4BD, size: 0x8, addend: 0x0, symName: __ZNSt3__111basic_regexIcNS_12regex_traitsIcEEE25__parse_equivalence_classIPKcEET_S7_S7_PNS_20__bracket_expressionIcS2_EE, symObjAddr: 0x4609C, symBinAddr: 0xB6618, symSize: 0x258 }
  - { offset: 0x57DF31, size: 0x8, addend: 0x0, symName: __ZNSt3__111basic_regexIcNS_12regex_traitsIcEEE18__parse_awk_escapeIPKcEET_S7_S7_PNS_12basic_stringIcNS_11char_traitsIcEENS_9allocatorIcEEEE, symObjAddr: 0x46548, symBinAddr: 0xB6AC4, symSize: 0x2E4 }
  - { offset: 0x57E056, size: 0x8, addend: 0x0, symName: __ZNSt3__111basic_regexIcNS_12regex_traitsIcEEE24__parse_collating_symbolIPKcEET_S7_S7_RNS_12basic_stringIcNS_11char_traitsIcEENS_9allocatorIcEEEE, symObjAddr: 0x462F4, symBinAddr: 0xB6870, symSize: 0xD0 }
  - { offset: 0x57E3CC, size: 0x8, addend: 0x0, symName: __ZNSt3__111basic_regexIcNS_12regex_traitsIcEEE20__parse_class_escapeIPKcEET_S7_S7_RNS_12basic_stringIcNS_11char_traitsIcEENS_9allocatorIcEEEEPNS_20__bracket_expressionIcS2_EE, symObjAddr: 0x463C4, symBinAddr: 0xB6940, symSize: 0x184 }
  - { offset: 0x57E3D7, size: 0x8, addend: 0x0, symName: __ZNKSt3__112regex_traitsIcE20__lookup_collatenameIPKcEENS_12basic_stringIcNS_11char_traitsIcEENS_9allocatorIcEEEET_SB_c, symObjAddr: 0x46ED0, symBinAddr: 0xB6DA8, symSize: 0x234 }
  - { offset: 0x57EED2, size: 0x8, addend: 0x0, symName: __ZNKSt3__112regex_traitsIcE18__lookup_classnameIPKcEEjT_S5_bc, symObjAddr: 0x474AC, symBinAddr: 0xB6FDC, symSize: 0x14C }
  - { offset: 0x57FBC1, size: 0x8, addend: 0x0, symName: __ZNSt3__111basic_regexIcNS_12regex_traitsIcEEE20__parse_class_escapeIPKcEET_S7_S7_RNS_12basic_stringIcNS_11char_traitsIcEENS_9allocatorIcEEEEPNS_20__bracket_expressionIcS2_EE, symObjAddr: 0x463C4, symBinAddr: 0xB6940, symSize: 0x184 }
  - { offset: 0x57FD59, size: 0x8, addend: 0x0, symName: __ZNSt3__111basic_regexIcNS_12regex_traitsIcEEE18__parse_awk_escapeIPKcEET_S7_S7_PNS_12basic_stringIcNS_11char_traitsIcEENS_9allocatorIcEEEE, symObjAddr: 0x46548, symBinAddr: 0xB6AC4, symSize: 0x2E4 }
  - { offset: 0x582EBC, size: 0x8, addend: 0x0, symName: __ZNSt3__111basic_regexIcNS_12regex_traitsIcEEE22__parse_ERE_expressionIPKcEET_S7_S7_, symObjAddr: 0x48A84, symBinAddr: 0xB7694, symSize: 0x1F0 }
  - { offset: 0x582EC7, size: 0x8, addend: 0x0, symName: __ZNSt3__111basic_regexIcNS_12regex_traitsIcEEE33__parse_one_char_or_coll_elem_EREIPKcEET_S7_S7_, symObjAddr: 0x48C74, symBinAddr: 0xB7884, symSize: 0x158 }
  - { offset: 0x5830B0, size: 0x8, addend: 0x0, symName: __ZNSt3__111basic_regexIcNS_12regex_traitsIcEEE23__parse_QUOTED_CHAR_EREIPKcEET_S7_S7_, symObjAddr: 0x48DCC, symBinAddr: 0xB79DC, symSize: 0xD8 }
  - { offset: 0x58920D, size: 0x8, addend: 0x0, symName: __ZNSt3__13mapI23llama_rope_scaling_typePKcNS_4lessIS1_EENS_9allocatorINS_4pairIKS1_S3_EEEEEC2B8ne200100ESt16initializer_listIS9_ERKS5_, symObjAddr: 0x4BB2C, symBinAddr: 0xB7AB4, symSize: 0xEC }
  - { offset: 0x589598, size: 0x8, addend: 0x0, symName: __ZNSt3__16__treeINS_12__value_typeI23llama_rope_scaling_typePKcEENS_19__map_value_compareIS2_S5_NS_4lessIS2_EELb1EEENS_9allocatorIS5_EEE12__find_equalIS2_EERPNS_16__tree_node_baseIPvEENS_21__tree_const_iteratorIS5_PNS_11__tree_nodeIS5_SF_EElEERPNS_15__tree_end_nodeISH_EESI_RKT_, symObjAddr: 0x4BC18, symBinAddr: 0xB7BA0, symSize: 0x1B0 }
  - { offset: 0x5895FB, size: 0x8, addend: 0x0, symName: __ZNSt3__16__treeINS_12__value_typeI23llama_rope_scaling_typePKcEENS_19__map_value_compareIS2_S5_NS_4lessIS2_EELb1EEENS_9allocatorIS5_EEE12__find_equalIS2_EERPNS_16__tree_node_baseIPvEENS_21__tree_const_iteratorIS5_PNS_11__tree_nodeIS5_SF_EElEERPNS_15__tree_end_nodeISH_EESI_RKT_, symObjAddr: 0x4BC18, symBinAddr: 0xB7BA0, symSize: 0x1B0 }
  - { offset: 0x589617, size: 0x8, addend: 0x0, symName: __ZNSt3__16__treeINS_12__value_typeI23llama_rope_scaling_typePKcEENS_19__map_value_compareIS2_S5_NS_4lessIS2_EELb1EEENS_9allocatorIS5_EEE12__find_equalIS2_EERPNS_16__tree_node_baseIPvEENS_21__tree_const_iteratorIS5_PNS_11__tree_nodeIS5_SF_EElEERPNS_15__tree_end_nodeISH_EESI_RKT_, symObjAddr: 0x4BC18, symBinAddr: 0xB7BA0, symSize: 0x1B0 }
  - { offset: 0x589EDE, size: 0x8, addend: 0x0, symName: __ZNSt3__16__treeINS_12__value_typeIP19ggml_backend_deviceNS_6vectorINS_4pairIS3_P24ggml_backend_buffer_typeEENS_9allocatorIS8_EEEEEENS_19__map_value_compareIS3_SC_NS_4lessIS3_EELb1EEENS9_ISC_EEE7destroyEPNS_11__tree_nodeISC_PvEE, symObjAddr: 0x4BF78, symBinAddr: 0xB7F00, symSize: 0x50 }
  - { offset: 0x58A194, size: 0x8, addend: 0x0, symName: __ZNSt3__16vectorINS_4pairINS_10unique_ptrI12ggml_context20ggml_context_deleterEENS0_INS2_I19ggml_backend_buffer27ggml_backend_buffer_deleterEENS_9allocatorIS8_EEEEEENS9_ISC_EEE22__base_destruct_at_endB8ne200100EPSC_, symObjAddr: 0x4BFC8, symBinAddr: 0xB7F50, symSize: 0xA8 }
  - { offset: 0x58C679, size: 0x8, addend: 0x0, symName: __ZNSt3__16vectorIN11llama_model4impl9layer_devENS_9allocatorIS3_EEE20__throw_length_errorB8ne200100Ev, symObjAddr: 0x4D408, symBinAddr: 0xB8658, symSize: 0x14 }
  - { offset: 0x58C691, size: 0x8, addend: 0x0, symName: __ZNSt3__16__treeINS_12__value_typeIP24ggml_backend_buffer_typeNS_10unique_ptrI12ggml_context20ggml_context_deleterEEEENS_19__map_value_compareIS3_S8_ZN11llama_model12load_tensorsER18llama_model_loaderE28ggml_backend_buft_comparatorLb1EEENS_9allocatorIS8_EEE7destroyEPNS_11__tree_nodeIS8_PvEE, symObjAddr: 0x4D41C, symBinAddr: 0xB866C, symSize: 0x54 }
  - { offset: 0x58CA52, size: 0x8, addend: 0x0, symName: __ZNSt3__16vectorI11llama_layerNS_9allocatorIS1_EEE20__throw_length_errorB8ne200100Ev, symObjAddr: 0x4D630, symBinAddr: 0xB8880, symSize: 0x14 }
  - { offset: 0x58CCDD, size: 0x8, addend: 0x0, symName: __ZNSt3__112__hash_tableINS_17__hash_value_typeIjP19ggml_backend_bufferEENS_22__unordered_map_hasherIjS4_NS_4hashIjEENS_8equal_toIjEELb1EEENS_21__unordered_map_equalIjS4_S9_S7_Lb1EEENS_9allocatorIS4_EEED1Ev, symObjAddr: 0x4D8F0, symBinAddr: 0xB8B2C, symSize: 0x48 }
  - { offset: 0x58D5CF, size: 0x8, addend: 0x0, symName: __ZNSt3__112__hash_tableINS_17__hash_value_typeIjP19ggml_backend_bufferEENS_22__unordered_map_hasherIjS4_NS_4hashIjEENS_8equal_toIjEELb1EEENS_21__unordered_map_equalIjS4_S9_S7_Lb1EEENS_9allocatorIS4_EEE25__emplace_unique_key_argsIjJRKNS_4pairIKjS3_EEEEENSH_INS_15__hash_iteratorIPNS_11__hash_nodeIS4_PvEEEEbEERKT_DpOT0_, symObjAddr: 0x4E1AC, symBinAddr: 0xB93C0, symSize: 0x300 }
  - { offset: 0x58DE30, size: 0x8, addend: 0x0, symName: '__ZNSt3__110__function6__funcIZNK11llama_model10print_infoEvE3$_0NS_9allocatorIS3_EEFjjEED1Ev', symObjAddr: 0x4E568, symBinAddr: 0xB9738, symSize: 0x4 }
  - { offset: 0x58DE5C, size: 0x8, addend: 0x0, symName: '__ZNSt3__110__function6__funcIZNK11llama_model10print_infoEvE3$_0NS_9allocatorIS3_EEFjjEED0Ev', symObjAddr: 0x4E56C, symBinAddr: 0xB973C, symSize: 0x4 }
  - { offset: 0x58DF13, size: 0x8, addend: 0x0, symName: '__ZNKSt3__110__function6__funcIZNK11llama_model10print_infoEvE3$_0NS_9allocatorIS3_EEFjjEE7__cloneEv', symObjAddr: 0x4E570, symBinAddr: 0xB9740, symSize: 0x34 }
  - { offset: 0x58E063, size: 0x8, addend: 0x0, symName: '__ZNKSt3__110__function6__funcIZNK11llama_model10print_infoEvE3$_0NS_9allocatorIS3_EEFjjEE7__cloneEPNS0_6__baseIS6_EE', symObjAddr: 0x4E5A4, symBinAddr: 0xB9774, symSize: 0x14 }
  - { offset: 0x58E0D0, size: 0x8, addend: 0x0, symName: '__ZNSt3__110__function6__funcIZNK11llama_model10print_infoEvE3$_0NS_9allocatorIS3_EEFjjEE7destroyEv', symObjAddr: 0x4E5B8, symBinAddr: 0xB9788, symSize: 0x4 }
  - { offset: 0x58E125, size: 0x8, addend: 0x0, symName: '__ZNSt3__110__function6__funcIZNK11llama_model10print_infoEvE3$_0NS_9allocatorIS3_EEFjjEE18destroy_deallocateEv', symObjAddr: 0x4E5BC, symBinAddr: 0xB978C, symSize: 0x4 }
  - { offset: 0x58E158, size: 0x8, addend: 0x0, symName: '__ZNSt3__110__function6__funcIZNK11llama_model10print_infoEvE3$_0NS_9allocatorIS3_EEFjjEE18destroy_deallocateEv', symObjAddr: 0x4E5BC, symBinAddr: 0xB978C, symSize: 0x4 }
  - { offset: 0x58E17B, size: 0x8, addend: 0x0, symName: '__ZNSt3__110__function6__funcIZNK11llama_model10print_infoEvE3$_0NS_9allocatorIS3_EEFjjEE18destroy_deallocateEv', symObjAddr: 0x4E5BC, symBinAddr: 0xB978C, symSize: 0x4 }
  - { offset: 0x58E1AE, size: 0x8, addend: 0x0, symName: '__ZNSt3__110__function6__funcIZNK11llama_model10print_infoEvE3$_0NS_9allocatorIS3_EEFjjEE18destroy_deallocateEv', symObjAddr: 0x4E5BC, symBinAddr: 0xB978C, symSize: 0x4 }
  - { offset: 0x58E251, size: 0x8, addend: 0x0, symName: '__ZNSt3__110__function6__funcIZNK11llama_model10print_infoEvE3$_0NS_9allocatorIS3_EEFjjEEclEOj', symObjAddr: 0x4E5C0, symBinAddr: 0xB9790, symSize: 0x10 }
  - { offset: 0x58E2FA, size: 0x8, addend: 0x0, symName: '__ZNKSt3__110__function6__funcIZNK11llama_model10print_infoEvE3$_0NS_9allocatorIS3_EEFjjEE6targetERKSt9type_info', symObjAddr: 0x4E5D0, symBinAddr: 0xB97A0, symSize: 0x64 }
  - { offset: 0x58E3AE, size: 0x8, addend: 0x0, symName: '__ZNKSt3__110__function6__funcIZNK11llama_model10print_infoEvE3$_0NS_9allocatorIS3_EEFjjEE11target_typeEv', symObjAddr: 0x4E634, symBinAddr: 0xB9804, symSize: 0xC }
  - { offset: 0x58E3D1, size: 0x8, addend: 0x0, symName: '__ZNSt3__110__function6__funcIZNK11llama_model10print_infoEvE3$_1NS_9allocatorIS3_EEFjjEED1Ev', symObjAddr: 0x4E640, symBinAddr: 0xB9810, symSize: 0x4 }
  - { offset: 0x58E3FD, size: 0x8, addend: 0x0, symName: '__ZNSt3__110__function6__funcIZNK11llama_model10print_infoEvE3$_1NS_9allocatorIS3_EEFjjEED0Ev', symObjAddr: 0x4E644, symBinAddr: 0xB9814, symSize: 0x4 }
  - { offset: 0x58E4B4, size: 0x8, addend: 0x0, symName: '__ZNKSt3__110__function6__funcIZNK11llama_model10print_infoEvE3$_1NS_9allocatorIS3_EEFjjEE7__cloneEv', symObjAddr: 0x4E648, symBinAddr: 0xB9818, symSize: 0x34 }
  - { offset: 0x58E604, size: 0x8, addend: 0x0, symName: '__ZNKSt3__110__function6__funcIZNK11llama_model10print_infoEvE3$_1NS_9allocatorIS3_EEFjjEE7__cloneEPNS0_6__baseIS6_EE', symObjAddr: 0x4E67C, symBinAddr: 0xB984C, symSize: 0x14 }
  - { offset: 0x58E671, size: 0x8, addend: 0x0, symName: '__ZNSt3__110__function6__funcIZNK11llama_model10print_infoEvE3$_1NS_9allocatorIS3_EEFjjEE7destroyEv', symObjAddr: 0x4E690, symBinAddr: 0xB9860, symSize: 0x4 }
  - { offset: 0x58E6C6, size: 0x8, addend: 0x0, symName: '__ZNSt3__110__function6__funcIZNK11llama_model10print_infoEvE3$_1NS_9allocatorIS3_EEFjjEE18destroy_deallocateEv', symObjAddr: 0x4E694, symBinAddr: 0xB9864, symSize: 0x4 }
  - { offset: 0x58E6F9, size: 0x8, addend: 0x0, symName: '__ZNSt3__110__function6__funcIZNK11llama_model10print_infoEvE3$_1NS_9allocatorIS3_EEFjjEE18destroy_deallocateEv', symObjAddr: 0x4E694, symBinAddr: 0xB9864, symSize: 0x4 }
  - { offset: 0x58E71C, size: 0x8, addend: 0x0, symName: '__ZNSt3__110__function6__funcIZNK11llama_model10print_infoEvE3$_1NS_9allocatorIS3_EEFjjEE18destroy_deallocateEv', symObjAddr: 0x4E694, symBinAddr: 0xB9864, symSize: 0x4 }
  - { offset: 0x58E74F, size: 0x8, addend: 0x0, symName: '__ZNSt3__110__function6__funcIZNK11llama_model10print_infoEvE3$_1NS_9allocatorIS3_EEFjjEE18destroy_deallocateEv', symObjAddr: 0x4E694, symBinAddr: 0xB9864, symSize: 0x4 }
  - { offset: 0x58E7F2, size: 0x8, addend: 0x0, symName: '__ZNSt3__110__function6__funcIZNK11llama_model10print_infoEvE3$_1NS_9allocatorIS3_EEFjjEEclEOj', symObjAddr: 0x4E698, symBinAddr: 0xB9868, symSize: 0x10 }
  - { offset: 0x58E89B, size: 0x8, addend: 0x0, symName: '__ZNKSt3__110__function6__funcIZNK11llama_model10print_infoEvE3$_1NS_9allocatorIS3_EEFjjEE6targetERKSt9type_info', symObjAddr: 0x4E6A8, symBinAddr: 0xB9878, symSize: 0x64 }
  - { offset: 0x58E94F, size: 0x8, addend: 0x0, symName: '__ZNKSt3__110__function6__funcIZNK11llama_model10print_infoEvE3$_1NS_9allocatorIS3_EEFjjEE11target_typeEv', symObjAddr: 0x4E70C, symBinAddr: 0xB98DC, symSize: 0xC }
  - { offset: 0x58E972, size: 0x8, addend: 0x0, symName: '__ZNSt3__110__function6__funcIZNK11llama_model10print_infoEvE3$_2NS_9allocatorIS3_EEFjjEED1Ev', symObjAddr: 0x4E718, symBinAddr: 0xB98E8, symSize: 0x4 }
  - { offset: 0x58E99E, size: 0x8, addend: 0x0, symName: '__ZNSt3__110__function6__funcIZNK11llama_model10print_infoEvE3$_2NS_9allocatorIS3_EEFjjEED0Ev', symObjAddr: 0x4E71C, symBinAddr: 0xB98EC, symSize: 0x4 }
  - { offset: 0x58EA55, size: 0x8, addend: 0x0, symName: '__ZNKSt3__110__function6__funcIZNK11llama_model10print_infoEvE3$_2NS_9allocatorIS3_EEFjjEE7__cloneEv', symObjAddr: 0x4E720, symBinAddr: 0xB98F0, symSize: 0x34 }
  - { offset: 0x58EBA5, size: 0x8, addend: 0x0, symName: '__ZNKSt3__110__function6__funcIZNK11llama_model10print_infoEvE3$_2NS_9allocatorIS3_EEFjjEE7__cloneEPNS0_6__baseIS6_EE', symObjAddr: 0x4E754, symBinAddr: 0xB9924, symSize: 0x14 }
  - { offset: 0x58EC12, size: 0x8, addend: 0x0, symName: '__ZNSt3__110__function6__funcIZNK11llama_model10print_infoEvE3$_2NS_9allocatorIS3_EEFjjEE7destroyEv', symObjAddr: 0x4E768, symBinAddr: 0xB9938, symSize: 0x4 }
  - { offset: 0x58EC67, size: 0x8, addend: 0x0, symName: '__ZNSt3__110__function6__funcIZNK11llama_model10print_infoEvE3$_2NS_9allocatorIS3_EEFjjEE18destroy_deallocateEv', symObjAddr: 0x4E76C, symBinAddr: 0xB993C, symSize: 0x4 }
  - { offset: 0x58EC9A, size: 0x8, addend: 0x0, symName: '__ZNSt3__110__function6__funcIZNK11llama_model10print_infoEvE3$_2NS_9allocatorIS3_EEFjjEE18destroy_deallocateEv', symObjAddr: 0x4E76C, symBinAddr: 0xB993C, symSize: 0x4 }
  - { offset: 0x58ECBD, size: 0x8, addend: 0x0, symName: '__ZNSt3__110__function6__funcIZNK11llama_model10print_infoEvE3$_2NS_9allocatorIS3_EEFjjEE18destroy_deallocateEv', symObjAddr: 0x4E76C, symBinAddr: 0xB993C, symSize: 0x4 }
  - { offset: 0x58ECF0, size: 0x8, addend: 0x0, symName: '__ZNSt3__110__function6__funcIZNK11llama_model10print_infoEvE3$_2NS_9allocatorIS3_EEFjjEE18destroy_deallocateEv', symObjAddr: 0x4E76C, symBinAddr: 0xB993C, symSize: 0x4 }
  - { offset: 0x58ED93, size: 0x8, addend: 0x0, symName: '__ZNSt3__110__function6__funcIZNK11llama_model10print_infoEvE3$_2NS_9allocatorIS3_EEFjjEEclEOj', symObjAddr: 0x4E770, symBinAddr: 0xB9940, symSize: 0x10 }
  - { offset: 0x58EE3C, size: 0x8, addend: 0x0, symName: '__ZNKSt3__110__function6__funcIZNK11llama_model10print_infoEvE3$_2NS_9allocatorIS3_EEFjjEE6targetERKSt9type_info', symObjAddr: 0x4E780, symBinAddr: 0xB9950, symSize: 0x64 }
  - { offset: 0x58EEF0, size: 0x8, addend: 0x0, symName: '__ZNKSt3__110__function6__funcIZNK11llama_model10print_infoEvE3$_2NS_9allocatorIS3_EEFjjEE11target_typeEv', symObjAddr: 0x4E7E4, symBinAddr: 0xB99B4, symSize: 0xC }
  - { offset: 0x58EF13, size: 0x8, addend: 0x0, symName: '__ZNSt3__110__function6__funcIZNK11llama_model10print_infoEvE3$_3NS_9allocatorIS3_EEFjjEED1Ev', symObjAddr: 0x4E7F0, symBinAddr: 0xB99C0, symSize: 0x4 }
  - { offset: 0x58EF3F, size: 0x8, addend: 0x0, symName: '__ZNSt3__110__function6__funcIZNK11llama_model10print_infoEvE3$_3NS_9allocatorIS3_EEFjjEED0Ev', symObjAddr: 0x4E7F4, symBinAddr: 0xB99C4, symSize: 0x4 }
  - { offset: 0x58EFF6, size: 0x8, addend: 0x0, symName: '__ZNKSt3__110__function6__funcIZNK11llama_model10print_infoEvE3$_3NS_9allocatorIS3_EEFjjEE7__cloneEv', symObjAddr: 0x4E7F8, symBinAddr: 0xB99C8, symSize: 0x34 }
  - { offset: 0x58F146, size: 0x8, addend: 0x0, symName: '__ZNKSt3__110__function6__funcIZNK11llama_model10print_infoEvE3$_3NS_9allocatorIS3_EEFjjEE7__cloneEPNS0_6__baseIS6_EE', symObjAddr: 0x4E82C, symBinAddr: 0xB99FC, symSize: 0x14 }
  - { offset: 0x58F1B3, size: 0x8, addend: 0x0, symName: '__ZNSt3__110__function6__funcIZNK11llama_model10print_infoEvE3$_3NS_9allocatorIS3_EEFjjEE7destroyEv', symObjAddr: 0x4E840, symBinAddr: 0xB9A10, symSize: 0x4 }
  - { offset: 0x58F208, size: 0x8, addend: 0x0, symName: '__ZNSt3__110__function6__funcIZNK11llama_model10print_infoEvE3$_3NS_9allocatorIS3_EEFjjEE18destroy_deallocateEv', symObjAddr: 0x4E844, symBinAddr: 0xB9A14, symSize: 0x4 }
  - { offset: 0x58F23B, size: 0x8, addend: 0x0, symName: '__ZNSt3__110__function6__funcIZNK11llama_model10print_infoEvE3$_3NS_9allocatorIS3_EEFjjEE18destroy_deallocateEv', symObjAddr: 0x4E844, symBinAddr: 0xB9A14, symSize: 0x4 }
  - { offset: 0x58F25E, size: 0x8, addend: 0x0, symName: '__ZNSt3__110__function6__funcIZNK11llama_model10print_infoEvE3$_3NS_9allocatorIS3_EEFjjEE18destroy_deallocateEv', symObjAddr: 0x4E844, symBinAddr: 0xB9A14, symSize: 0x4 }
  - { offset: 0x58F291, size: 0x8, addend: 0x0, symName: '__ZNSt3__110__function6__funcIZNK11llama_model10print_infoEvE3$_3NS_9allocatorIS3_EEFjjEE18destroy_deallocateEv', symObjAddr: 0x4E844, symBinAddr: 0xB9A14, symSize: 0x4 }
  - { offset: 0x58F334, size: 0x8, addend: 0x0, symName: '__ZNSt3__110__function6__funcIZNK11llama_model10print_infoEvE3$_3NS_9allocatorIS3_EEFjjEEclEOj', symObjAddr: 0x4E848, symBinAddr: 0xB9A18, symSize: 0x10 }
  - { offset: 0x58F3DD, size: 0x8, addend: 0x0, symName: '__ZNKSt3__110__function6__funcIZNK11llama_model10print_infoEvE3$_3NS_9allocatorIS3_EEFjjEE6targetERKSt9type_info', symObjAddr: 0x4E858, symBinAddr: 0xB9A28, symSize: 0x64 }
  - { offset: 0x58F491, size: 0x8, addend: 0x0, symName: '__ZNKSt3__110__function6__funcIZNK11llama_model10print_infoEvE3$_3NS_9allocatorIS3_EEFjjEE11target_typeEv', symObjAddr: 0x4E8BC, symBinAddr: 0xB9A8C, symSize: 0xC }
  - { offset: 0x58F4B4, size: 0x8, addend: 0x0, symName: '__ZNSt3__110__function6__funcIZNK11llama_model10print_infoEvE3$_4NS_9allocatorIS3_EEFjjEED1Ev', symObjAddr: 0x4E8C8, symBinAddr: 0xB9A98, symSize: 0x4 }
  - { offset: 0x58F4E0, size: 0x8, addend: 0x0, symName: '__ZNSt3__110__function6__funcIZNK11llama_model10print_infoEvE3$_4NS_9allocatorIS3_EEFjjEED0Ev', symObjAddr: 0x4E8CC, symBinAddr: 0xB9A9C, symSize: 0x4 }
  - { offset: 0x58F597, size: 0x8, addend: 0x0, symName: '__ZNKSt3__110__function6__funcIZNK11llama_model10print_infoEvE3$_4NS_9allocatorIS3_EEFjjEE7__cloneEv', symObjAddr: 0x4E8D0, symBinAddr: 0xB9AA0, symSize: 0x34 }
  - { offset: 0x58F6E7, size: 0x8, addend: 0x0, symName: '__ZNKSt3__110__function6__funcIZNK11llama_model10print_infoEvE3$_4NS_9allocatorIS3_EEFjjEE7__cloneEPNS0_6__baseIS6_EE', symObjAddr: 0x4E904, symBinAddr: 0xB9AD4, symSize: 0x14 }
  - { offset: 0x58F754, size: 0x8, addend: 0x0, symName: '__ZNSt3__110__function6__funcIZNK11llama_model10print_infoEvE3$_4NS_9allocatorIS3_EEFjjEE7destroyEv', symObjAddr: 0x4E918, symBinAddr: 0xB9AE8, symSize: 0x4 }
  - { offset: 0x58F7A9, size: 0x8, addend: 0x0, symName: '__ZNSt3__110__function6__funcIZNK11llama_model10print_infoEvE3$_4NS_9allocatorIS3_EEFjjEE18destroy_deallocateEv', symObjAddr: 0x4E91C, symBinAddr: 0xB9AEC, symSize: 0x4 }
  - { offset: 0x58F7DC, size: 0x8, addend: 0x0, symName: '__ZNSt3__110__function6__funcIZNK11llama_model10print_infoEvE3$_4NS_9allocatorIS3_EEFjjEE18destroy_deallocateEv', symObjAddr: 0x4E91C, symBinAddr: 0xB9AEC, symSize: 0x4 }
  - { offset: 0x58F7FF, size: 0x8, addend: 0x0, symName: '__ZNSt3__110__function6__funcIZNK11llama_model10print_infoEvE3$_4NS_9allocatorIS3_EEFjjEE18destroy_deallocateEv', symObjAddr: 0x4E91C, symBinAddr: 0xB9AEC, symSize: 0x4 }
  - { offset: 0x58F832, size: 0x8, addend: 0x0, symName: '__ZNSt3__110__function6__funcIZNK11llama_model10print_infoEvE3$_4NS_9allocatorIS3_EEFjjEE18destroy_deallocateEv', symObjAddr: 0x4E91C, symBinAddr: 0xB9AEC, symSize: 0x4 }
  - { offset: 0x58F8D5, size: 0x8, addend: 0x0, symName: '__ZNSt3__110__function6__funcIZNK11llama_model10print_infoEvE3$_4NS_9allocatorIS3_EEFjjEEclEOj', symObjAddr: 0x4E920, symBinAddr: 0xB9AF0, symSize: 0x10 }
  - { offset: 0x58F97E, size: 0x8, addend: 0x0, symName: '__ZNKSt3__110__function6__funcIZNK11llama_model10print_infoEvE3$_4NS_9allocatorIS3_EEFjjEE6targetERKSt9type_info', symObjAddr: 0x4E930, symBinAddr: 0xB9B00, symSize: 0x64 }
  - { offset: 0x58FA32, size: 0x8, addend: 0x0, symName: '__ZNKSt3__110__function6__funcIZNK11llama_model10print_infoEvE3$_4NS_9allocatorIS3_EEFjjEE11target_typeEv', symObjAddr: 0x4E994, symBinAddr: 0xB9B64, symSize: 0xC }
  - { offset: 0x58FA55, size: 0x8, addend: 0x0, symName: '__ZNSt3__110__function6__funcIZNK11llama_model10print_infoEvE3$_5NS_9allocatorIS3_EEFjjEED1Ev', symObjAddr: 0x4E9A0, symBinAddr: 0xB9B70, symSize: 0x4 }
  - { offset: 0x58FA81, size: 0x8, addend: 0x0, symName: '__ZNSt3__110__function6__funcIZNK11llama_model10print_infoEvE3$_5NS_9allocatorIS3_EEFjjEED0Ev', symObjAddr: 0x4E9A4, symBinAddr: 0xB9B74, symSize: 0x4 }
  - { offset: 0x58FB38, size: 0x8, addend: 0x0, symName: '__ZNKSt3__110__function6__funcIZNK11llama_model10print_infoEvE3$_5NS_9allocatorIS3_EEFjjEE7__cloneEv', symObjAddr: 0x4E9A8, symBinAddr: 0xB9B78, symSize: 0x34 }
  - { offset: 0x58FC88, size: 0x8, addend: 0x0, symName: '__ZNKSt3__110__function6__funcIZNK11llama_model10print_infoEvE3$_5NS_9allocatorIS3_EEFjjEE7__cloneEPNS0_6__baseIS6_EE', symObjAddr: 0x4E9DC, symBinAddr: 0xB9BAC, symSize: 0x14 }
  - { offset: 0x58FCF5, size: 0x8, addend: 0x0, symName: '__ZNSt3__110__function6__funcIZNK11llama_model10print_infoEvE3$_5NS_9allocatorIS3_EEFjjEE7destroyEv', symObjAddr: 0x4E9F0, symBinAddr: 0xB9BC0, symSize: 0x4 }
  - { offset: 0x58FD4A, size: 0x8, addend: 0x0, symName: '__ZNSt3__110__function6__funcIZNK11llama_model10print_infoEvE3$_5NS_9allocatorIS3_EEFjjEE18destroy_deallocateEv', symObjAddr: 0x4E9F4, symBinAddr: 0xB9BC4, symSize: 0x4 }
  - { offset: 0x58FD7D, size: 0x8, addend: 0x0, symName: '__ZNSt3__110__function6__funcIZNK11llama_model10print_infoEvE3$_5NS_9allocatorIS3_EEFjjEE18destroy_deallocateEv', symObjAddr: 0x4E9F4, symBinAddr: 0xB9BC4, symSize: 0x4 }
  - { offset: 0x58FDA0, size: 0x8, addend: 0x0, symName: '__ZNSt3__110__function6__funcIZNK11llama_model10print_infoEvE3$_5NS_9allocatorIS3_EEFjjEE18destroy_deallocateEv', symObjAddr: 0x4E9F4, symBinAddr: 0xB9BC4, symSize: 0x4 }
  - { offset: 0x58FDD3, size: 0x8, addend: 0x0, symName: '__ZNSt3__110__function6__funcIZNK11llama_model10print_infoEvE3$_5NS_9allocatorIS3_EEFjjEE18destroy_deallocateEv', symObjAddr: 0x4E9F4, symBinAddr: 0xB9BC4, symSize: 0x4 }
  - { offset: 0x58FE76, size: 0x8, addend: 0x0, symName: '__ZNSt3__110__function6__funcIZNK11llama_model10print_infoEvE3$_5NS_9allocatorIS3_EEFjjEEclEOj', symObjAddr: 0x4E9F8, symBinAddr: 0xB9BC8, symSize: 0x10 }
  - { offset: 0x58FF1F, size: 0x8, addend: 0x0, symName: '__ZNKSt3__110__function6__funcIZNK11llama_model10print_infoEvE3$_5NS_9allocatorIS3_EEFjjEE6targetERKSt9type_info', symObjAddr: 0x4EA08, symBinAddr: 0xB9BD8, symSize: 0x64 }
  - { offset: 0x58FFD3, size: 0x8, addend: 0x0, symName: '__ZNKSt3__110__function6__funcIZNK11llama_model10print_infoEvE3$_5NS_9allocatorIS3_EEFjjEE11target_typeEv', symObjAddr: 0x4EA6C, symBinAddr: 0xB9C3C, symSize: 0xC }
  - { offset: 0x58FFF6, size: 0x8, addend: 0x0, symName: '__ZNSt3__110__function6__funcIZNK11llama_model13create_memoryERK19llama_memory_paramsRK13llama_cparamsE3$_0NS_9allocatorIS9_EEFbiEED1Ev', symObjAddr: 0x4EA78, symBinAddr: 0xB9C48, symSize: 0x4 }
  - { offset: 0x590022, size: 0x8, addend: 0x0, symName: '__ZNSt3__110__function6__funcIZNK11llama_model13create_memoryERK19llama_memory_paramsRK13llama_cparamsE3$_0NS_9allocatorIS9_EEFbiEED0Ev', symObjAddr: 0x4EA7C, symBinAddr: 0xB9C4C, symSize: 0x4 }
  - { offset: 0x5900D9, size: 0x8, addend: 0x0, symName: '__ZNKSt3__110__function6__funcIZNK11llama_model13create_memoryERK19llama_memory_paramsRK13llama_cparamsE3$_0NS_9allocatorIS9_EEFbiEE7__cloneEv', symObjAddr: 0x4EA80, symBinAddr: 0xB9C50, symSize: 0x24 }
  - { offset: 0x590225, size: 0x8, addend: 0x0, symName: '__ZNKSt3__110__function6__funcIZNK11llama_model13create_memoryERK19llama_memory_paramsRK13llama_cparamsE3$_0NS_9allocatorIS9_EEFbiEE7__cloneEPNS0_6__baseISC_EE', symObjAddr: 0x4EAA4, symBinAddr: 0xB9C74, symSize: 0x10 }
  - { offset: 0x590258, size: 0x8, addend: 0x0, symName: '__ZNKSt3__110__function6__funcIZNK11llama_model13create_memoryERK19llama_memory_paramsRK13llama_cparamsE3$_0NS_9allocatorIS9_EEFbiEE7__cloneEPNS0_6__baseISC_EE', symObjAddr: 0x4EAA4, symBinAddr: 0xB9C74, symSize: 0x10 }
  - { offset: 0x590274, size: 0x8, addend: 0x0, symName: '__ZNKSt3__110__function6__funcIZNK11llama_model13create_memoryERK19llama_memory_paramsRK13llama_cparamsE3$_0NS_9allocatorIS9_EEFbiEE7__cloneEPNS0_6__baseISC_EE', symObjAddr: 0x4EAA4, symBinAddr: 0xB9C74, symSize: 0x10 }
  - { offset: 0x590290, size: 0x8, addend: 0x0, symName: '__ZNSt3__110__function6__funcIZNK11llama_model13create_memoryERK19llama_memory_paramsRK13llama_cparamsE3$_0NS_9allocatorIS9_EEFbiEE7destroyEv', symObjAddr: 0x4EAB4, symBinAddr: 0xB9C84, symSize: 0x4 }
  - { offset: 0x5902E5, size: 0x8, addend: 0x0, symName: '__ZNSt3__110__function6__funcIZNK11llama_model13create_memoryERK19llama_memory_paramsRK13llama_cparamsE3$_0NS_9allocatorIS9_EEFbiEE18destroy_deallocateEv', symObjAddr: 0x4EAB8, symBinAddr: 0xB9C88, symSize: 0x4 }
  - { offset: 0x590318, size: 0x8, addend: 0x0, symName: '__ZNSt3__110__function6__funcIZNK11llama_model13create_memoryERK19llama_memory_paramsRK13llama_cparamsE3$_0NS_9allocatorIS9_EEFbiEE18destroy_deallocateEv', symObjAddr: 0x4EAB8, symBinAddr: 0xB9C88, symSize: 0x4 }
  - { offset: 0x59033B, size: 0x8, addend: 0x0, symName: '__ZNSt3__110__function6__funcIZNK11llama_model13create_memoryERK19llama_memory_paramsRK13llama_cparamsE3$_0NS_9allocatorIS9_EEFbiEE18destroy_deallocateEv', symObjAddr: 0x4EAB8, symBinAddr: 0xB9C88, symSize: 0x4 }
  - { offset: 0x59036E, size: 0x8, addend: 0x0, symName: '__ZNSt3__110__function6__funcIZNK11llama_model13create_memoryERK19llama_memory_paramsRK13llama_cparamsE3$_0NS_9allocatorIS9_EEFbiEE18destroy_deallocateEv', symObjAddr: 0x4EAB8, symBinAddr: 0xB9C88, symSize: 0x4 }
  - { offset: 0x590396, size: 0x8, addend: 0x0, symName: '__ZNSt3__110__function6__funcIZNK11llama_model13create_memoryERK19llama_memory_paramsRK13llama_cparamsE3$_0NS_9allocatorIS9_EEFbiEEclEOi', symObjAddr: 0x4EABC, symBinAddr: 0xB9C8C, symSize: 0x8 }
  - { offset: 0x5903C5, size: 0x8, addend: 0x0, symName: '__ZNKSt3__110__function6__funcIZNK11llama_model13create_memoryERK19llama_memory_paramsRK13llama_cparamsE3$_0NS_9allocatorIS9_EEFbiEE6targetERKSt9type_info', symObjAddr: 0x4EAC4, symBinAddr: 0xB9C94, symSize: 0x64 }
  - { offset: 0x590479, size: 0x8, addend: 0x0, symName: '__ZNKSt3__110__function6__funcIZNK11llama_model13create_memoryERK19llama_memory_paramsRK13llama_cparamsE3$_0NS_9allocatorIS9_EEFbiEE11target_typeEv', symObjAddr: 0x4EB28, symBinAddr: 0xB9CF8, symSize: 0xC }
  - { offset: 0x5904A2, size: 0x8, addend: 0x0, symName: '__ZNSt3__110__function6__funcIZNK11llama_model13create_memoryERK19llama_memory_paramsRK13llama_cparamsE3$_1NS_9allocatorIS9_EEFbiEED1Ev', symObjAddr: 0x4ECCC, symBinAddr: 0xB9E9C, symSize: 0x4 }
  - { offset: 0x5904CE, size: 0x8, addend: 0x0, symName: '__ZNSt3__110__function6__funcIZNK11llama_model13create_memoryERK19llama_memory_paramsRK13llama_cparamsE3$_1NS_9allocatorIS9_EEFbiEED0Ev', symObjAddr: 0x4ECD0, symBinAddr: 0xB9EA0, symSize: 0x4 }
  - { offset: 0x590585, size: 0x8, addend: 0x0, symName: '__ZNKSt3__110__function6__funcIZNK11llama_model13create_memoryERK19llama_memory_paramsRK13llama_cparamsE3$_1NS_9allocatorIS9_EEFbiEE7__cloneEv', symObjAddr: 0x4ECD4, symBinAddr: 0xB9EA4, symSize: 0x24 }
  - { offset: 0x5906D1, size: 0x8, addend: 0x0, symName: '__ZNKSt3__110__function6__funcIZNK11llama_model13create_memoryERK19llama_memory_paramsRK13llama_cparamsE3$_1NS_9allocatorIS9_EEFbiEE7__cloneEPNS0_6__baseISC_EE', symObjAddr: 0x4ECF8, symBinAddr: 0xB9EC8, symSize: 0x10 }
  - { offset: 0x590704, size: 0x8, addend: 0x0, symName: '__ZNKSt3__110__function6__funcIZNK11llama_model13create_memoryERK19llama_memory_paramsRK13llama_cparamsE3$_1NS_9allocatorIS9_EEFbiEE7__cloneEPNS0_6__baseISC_EE', symObjAddr: 0x4ECF8, symBinAddr: 0xB9EC8, symSize: 0x10 }
  - { offset: 0x590720, size: 0x8, addend: 0x0, symName: '__ZNKSt3__110__function6__funcIZNK11llama_model13create_memoryERK19llama_memory_paramsRK13llama_cparamsE3$_1NS_9allocatorIS9_EEFbiEE7__cloneEPNS0_6__baseISC_EE', symObjAddr: 0x4ECF8, symBinAddr: 0xB9EC8, symSize: 0x10 }
  - { offset: 0x59073C, size: 0x8, addend: 0x0, symName: '__ZNSt3__110__function6__funcIZNK11llama_model13create_memoryERK19llama_memory_paramsRK13llama_cparamsE3$_1NS_9allocatorIS9_EEFbiEE7destroyEv', symObjAddr: 0x4ED08, symBinAddr: 0xB9ED8, symSize: 0x4 }
  - { offset: 0x590791, size: 0x8, addend: 0x0, symName: '__ZNSt3__110__function6__funcIZNK11llama_model13create_memoryERK19llama_memory_paramsRK13llama_cparamsE3$_1NS_9allocatorIS9_EEFbiEE18destroy_deallocateEv', symObjAddr: 0x4ED0C, symBinAddr: 0xB9EDC, symSize: 0x4 }
  - { offset: 0x5907C4, size: 0x8, addend: 0x0, symName: '__ZNSt3__110__function6__funcIZNK11llama_model13create_memoryERK19llama_memory_paramsRK13llama_cparamsE3$_1NS_9allocatorIS9_EEFbiEE18destroy_deallocateEv', symObjAddr: 0x4ED0C, symBinAddr: 0xB9EDC, symSize: 0x4 }
  - { offset: 0x5907E7, size: 0x8, addend: 0x0, symName: '__ZNSt3__110__function6__funcIZNK11llama_model13create_memoryERK19llama_memory_paramsRK13llama_cparamsE3$_1NS_9allocatorIS9_EEFbiEE18destroy_deallocateEv', symObjAddr: 0x4ED0C, symBinAddr: 0xB9EDC, symSize: 0x4 }
  - { offset: 0x59081A, size: 0x8, addend: 0x0, symName: '__ZNSt3__110__function6__funcIZNK11llama_model13create_memoryERK19llama_memory_paramsRK13llama_cparamsE3$_1NS_9allocatorIS9_EEFbiEE18destroy_deallocateEv', symObjAddr: 0x4ED0C, symBinAddr: 0xB9EDC, symSize: 0x4 }
  - { offset: 0x590842, size: 0x8, addend: 0x0, symName: '__ZNSt3__110__function6__funcIZNK11llama_model13create_memoryERK19llama_memory_paramsRK13llama_cparamsE3$_1NS_9allocatorIS9_EEFbiEEclEOi', symObjAddr: 0x4ED10, symBinAddr: 0xB9EE0, symSize: 0x8 }
  - { offset: 0x590871, size: 0x8, addend: 0x0, symName: '__ZNKSt3__110__function6__funcIZNK11llama_model13create_memoryERK19llama_memory_paramsRK13llama_cparamsE3$_1NS_9allocatorIS9_EEFbiEE6targetERKSt9type_info', symObjAddr: 0x4ED18, symBinAddr: 0xB9EE8, symSize: 0x64 }
  - { offset: 0x590925, size: 0x8, addend: 0x0, symName: '__ZNKSt3__110__function6__funcIZNK11llama_model13create_memoryERK19llama_memory_paramsRK13llama_cparamsE3$_1NS_9allocatorIS9_EEFbiEE11target_typeEv', symObjAddr: 0x4ED7C, symBinAddr: 0xB9F4C, symSize: 0xC }
  - { offset: 0x590948, size: 0x8, addend: 0x0, symName: '__ZNSt3__110__function6__funcIZNK11llama_model13create_memoryERK19llama_memory_paramsRK13llama_cparamsE3$_2NS_9allocatorIS9_EEFbiEED1Ev', symObjAddr: 0x4ED88, symBinAddr: 0xB9F58, symSize: 0x4 }
  - { offset: 0x590974, size: 0x8, addend: 0x0, symName: '__ZNSt3__110__function6__funcIZNK11llama_model13create_memoryERK19llama_memory_paramsRK13llama_cparamsE3$_2NS_9allocatorIS9_EEFbiEED0Ev', symObjAddr: 0x4ED8C, symBinAddr: 0xB9F5C, symSize: 0x4 }
  - { offset: 0x590A2B, size: 0x8, addend: 0x0, symName: '__ZNKSt3__110__function6__funcIZNK11llama_model13create_memoryERK19llama_memory_paramsRK13llama_cparamsE3$_2NS_9allocatorIS9_EEFbiEE7__cloneEv', symObjAddr: 0x4ED90, symBinAddr: 0xB9F60, symSize: 0x34 }
  - { offset: 0x590B7B, size: 0x8, addend: 0x0, symName: '__ZNKSt3__110__function6__funcIZNK11llama_model13create_memoryERK19llama_memory_paramsRK13llama_cparamsE3$_2NS_9allocatorIS9_EEFbiEE7__cloneEPNS0_6__baseISC_EE', symObjAddr: 0x4EDC4, symBinAddr: 0xB9F94, symSize: 0x14 }
  - { offset: 0x590BE8, size: 0x8, addend: 0x0, symName: '__ZNSt3__110__function6__funcIZNK11llama_model13create_memoryERK19llama_memory_paramsRK13llama_cparamsE3$_2NS_9allocatorIS9_EEFbiEE7destroyEv', symObjAddr: 0x4EDD8, symBinAddr: 0xB9FA8, symSize: 0x4 }
  - { offset: 0x590C3D, size: 0x8, addend: 0x0, symName: '__ZNSt3__110__function6__funcIZNK11llama_model13create_memoryERK19llama_memory_paramsRK13llama_cparamsE3$_2NS_9allocatorIS9_EEFbiEE18destroy_deallocateEv', symObjAddr: 0x4EDDC, symBinAddr: 0xB9FAC, symSize: 0x4 }
  - { offset: 0x590C70, size: 0x8, addend: 0x0, symName: '__ZNSt3__110__function6__funcIZNK11llama_model13create_memoryERK19llama_memory_paramsRK13llama_cparamsE3$_2NS_9allocatorIS9_EEFbiEE18destroy_deallocateEv', symObjAddr: 0x4EDDC, symBinAddr: 0xB9FAC, symSize: 0x4 }
  - { offset: 0x590C93, size: 0x8, addend: 0x0, symName: '__ZNSt3__110__function6__funcIZNK11llama_model13create_memoryERK19llama_memory_paramsRK13llama_cparamsE3$_2NS_9allocatorIS9_EEFbiEE18destroy_deallocateEv', symObjAddr: 0x4EDDC, symBinAddr: 0xB9FAC, symSize: 0x4 }
  - { offset: 0x590CC6, size: 0x8, addend: 0x0, symName: '__ZNSt3__110__function6__funcIZNK11llama_model13create_memoryERK19llama_memory_paramsRK13llama_cparamsE3$_2NS_9allocatorIS9_EEFbiEE18destroy_deallocateEv', symObjAddr: 0x4EDDC, symBinAddr: 0xB9FAC, symSize: 0x4 }
  - { offset: 0x590D69, size: 0x8, addend: 0x0, symName: '__ZNSt3__110__function6__funcIZNK11llama_model13create_memoryERK19llama_memory_paramsRK13llama_cparamsE3$_2NS_9allocatorIS9_EEFbiEEclEOi', symObjAddr: 0x4EDE0, symBinAddr: 0xB9FB0, symSize: 0x54 }
  - { offset: 0x590DEC, size: 0x8, addend: 0x0, symName: '__ZNKSt3__110__function6__funcIZNK11llama_model13create_memoryERK19llama_memory_paramsRK13llama_cparamsE3$_2NS_9allocatorIS9_EEFbiEE6targetERKSt9type_info', symObjAddr: 0x4EE34, symBinAddr: 0xBA004, symSize: 0x64 }
  - { offset: 0x590EA0, size: 0x8, addend: 0x0, symName: '__ZNKSt3__110__function6__funcIZNK11llama_model13create_memoryERK19llama_memory_paramsRK13llama_cparamsE3$_2NS_9allocatorIS9_EEFbiEE11target_typeEv', symObjAddr: 0x4EE98, symBinAddr: 0xBA068, symSize: 0xC }
  - { offset: 0x590EC3, size: 0x8, addend: 0x0, symName: '__ZNSt3__110__function6__funcIZNK11llama_model13create_memoryERK19llama_memory_paramsRK13llama_cparamsE3$_3NS_9allocatorIS9_EEFbiEED1Ev', symObjAddr: 0x4EEA4, symBinAddr: 0xBA074, symSize: 0x4 }
  - { offset: 0x590EEF, size: 0x8, addend: 0x0, symName: '__ZNSt3__110__function6__funcIZNK11llama_model13create_memoryERK19llama_memory_paramsRK13llama_cparamsE3$_3NS_9allocatorIS9_EEFbiEED0Ev', symObjAddr: 0x4EEA8, symBinAddr: 0xBA078, symSize: 0x4 }
  - { offset: 0x590FA6, size: 0x8, addend: 0x0, symName: '__ZNKSt3__110__function6__funcIZNK11llama_model13create_memoryERK19llama_memory_paramsRK13llama_cparamsE3$_3NS_9allocatorIS9_EEFbiEE7__cloneEv', symObjAddr: 0x4EEAC, symBinAddr: 0xBA07C, symSize: 0x34 }
  - { offset: 0x5910F6, size: 0x8, addend: 0x0, symName: '__ZNKSt3__110__function6__funcIZNK11llama_model13create_memoryERK19llama_memory_paramsRK13llama_cparamsE3$_3NS_9allocatorIS9_EEFbiEE7__cloneEPNS0_6__baseISC_EE', symObjAddr: 0x4EEE0, symBinAddr: 0xBA0B0, symSize: 0x14 }
  - { offset: 0x591163, size: 0x8, addend: 0x0, symName: '__ZNSt3__110__function6__funcIZNK11llama_model13create_memoryERK19llama_memory_paramsRK13llama_cparamsE3$_3NS_9allocatorIS9_EEFbiEE7destroyEv', symObjAddr: 0x4EEF4, symBinAddr: 0xBA0C4, symSize: 0x4 }
  - { offset: 0x5911B8, size: 0x8, addend: 0x0, symName: '__ZNSt3__110__function6__funcIZNK11llama_model13create_memoryERK19llama_memory_paramsRK13llama_cparamsE3$_3NS_9allocatorIS9_EEFbiEE18destroy_deallocateEv', symObjAddr: 0x4EEF8, symBinAddr: 0xBA0C8, symSize: 0x4 }
  - { offset: 0x5911EB, size: 0x8, addend: 0x0, symName: '__ZNSt3__110__function6__funcIZNK11llama_model13create_memoryERK19llama_memory_paramsRK13llama_cparamsE3$_3NS_9allocatorIS9_EEFbiEE18destroy_deallocateEv', symObjAddr: 0x4EEF8, symBinAddr: 0xBA0C8, symSize: 0x4 }
  - { offset: 0x59120E, size: 0x8, addend: 0x0, symName: '__ZNSt3__110__function6__funcIZNK11llama_model13create_memoryERK19llama_memory_paramsRK13llama_cparamsE3$_3NS_9allocatorIS9_EEFbiEE18destroy_deallocateEv', symObjAddr: 0x4EEF8, symBinAddr: 0xBA0C8, symSize: 0x4 }
  - { offset: 0x591241, size: 0x8, addend: 0x0, symName: '__ZNSt3__110__function6__funcIZNK11llama_model13create_memoryERK19llama_memory_paramsRK13llama_cparamsE3$_3NS_9allocatorIS9_EEFbiEE18destroy_deallocateEv', symObjAddr: 0x4EEF8, symBinAddr: 0xBA0C8, symSize: 0x4 }
  - { offset: 0x5912E4, size: 0x8, addend: 0x0, symName: '__ZNSt3__110__function6__funcIZNK11llama_model13create_memoryERK19llama_memory_paramsRK13llama_cparamsE3$_3NS_9allocatorIS9_EEFbiEEclEOi', symObjAddr: 0x4EEFC, symBinAddr: 0xBA0CC, symSize: 0x44 }
  - { offset: 0x59138D, size: 0x8, addend: 0x0, symName: '__ZNKSt3__110__function6__funcIZNK11llama_model13create_memoryERK19llama_memory_paramsRK13llama_cparamsE3$_3NS_9allocatorIS9_EEFbiEE6targetERKSt9type_info', symObjAddr: 0x4EF40, symBinAddr: 0xBA110, symSize: 0x64 }
  - { offset: 0x591441, size: 0x8, addend: 0x0, symName: '__ZNKSt3__110__function6__funcIZNK11llama_model13create_memoryERK19llama_memory_paramsRK13llama_cparamsE3$_3NS_9allocatorIS9_EEFbiEE11target_typeEv', symObjAddr: 0x4EFA4, symBinAddr: 0xBA174, symSize: 0xC }
  - { offset: 0x591464, size: 0x8, addend: 0x0, symName: '__ZNSt3__110__function6__funcIZNK11llama_model13create_memoryERK19llama_memory_paramsRK13llama_cparamsE3$_4NS_9allocatorIS9_EEFiiEED1Ev', symObjAddr: 0x4EFB0, symBinAddr: 0xBA180, symSize: 0x4 }
  - { offset: 0x591490, size: 0x8, addend: 0x0, symName: '__ZNSt3__110__function6__funcIZNK11llama_model13create_memoryERK19llama_memory_paramsRK13llama_cparamsE3$_4NS_9allocatorIS9_EEFiiEED0Ev', symObjAddr: 0x4EFB4, symBinAddr: 0xBA184, symSize: 0x4 }
  - { offset: 0x591547, size: 0x8, addend: 0x0, symName: '__ZNKSt3__110__function6__funcIZNK11llama_model13create_memoryERK19llama_memory_paramsRK13llama_cparamsE3$_4NS_9allocatorIS9_EEFiiEE7__cloneEv', symObjAddr: 0x4EFB8, symBinAddr: 0xBA188, symSize: 0x34 }
  - { offset: 0x591697, size: 0x8, addend: 0x0, symName: '__ZNKSt3__110__function6__funcIZNK11llama_model13create_memoryERK19llama_memory_paramsRK13llama_cparamsE3$_4NS_9allocatorIS9_EEFiiEE7__cloneEPNS0_6__baseISC_EE', symObjAddr: 0x4EFEC, symBinAddr: 0xBA1BC, symSize: 0x14 }
  - { offset: 0x591704, size: 0x8, addend: 0x0, symName: '__ZNSt3__110__function6__funcIZNK11llama_model13create_memoryERK19llama_memory_paramsRK13llama_cparamsE3$_4NS_9allocatorIS9_EEFiiEE7destroyEv', symObjAddr: 0x4F000, symBinAddr: 0xBA1D0, symSize: 0x4 }
  - { offset: 0x591759, size: 0x8, addend: 0x0, symName: '__ZNSt3__110__function6__funcIZNK11llama_model13create_memoryERK19llama_memory_paramsRK13llama_cparamsE3$_4NS_9allocatorIS9_EEFiiEE18destroy_deallocateEv', symObjAddr: 0x4F004, symBinAddr: 0xBA1D4, symSize: 0x4 }
  - { offset: 0x59178C, size: 0x8, addend: 0x0, symName: '__ZNSt3__110__function6__funcIZNK11llama_model13create_memoryERK19llama_memory_paramsRK13llama_cparamsE3$_4NS_9allocatorIS9_EEFiiEE18destroy_deallocateEv', symObjAddr: 0x4F004, symBinAddr: 0xBA1D4, symSize: 0x4 }
  - { offset: 0x5917AF, size: 0x8, addend: 0x0, symName: '__ZNSt3__110__function6__funcIZNK11llama_model13create_memoryERK19llama_memory_paramsRK13llama_cparamsE3$_4NS_9allocatorIS9_EEFiiEE18destroy_deallocateEv', symObjAddr: 0x4F004, symBinAddr: 0xBA1D4, symSize: 0x4 }
  - { offset: 0x5917E2, size: 0x8, addend: 0x0, symName: '__ZNSt3__110__function6__funcIZNK11llama_model13create_memoryERK19llama_memory_paramsRK13llama_cparamsE3$_4NS_9allocatorIS9_EEFiiEE18destroy_deallocateEv', symObjAddr: 0x4F004, symBinAddr: 0xBA1D4, symSize: 0x4 }
  - { offset: 0x591885, size: 0x8, addend: 0x0, symName: '__ZNSt3__110__function6__funcIZNK11llama_model13create_memoryERK19llama_memory_paramsRK13llama_cparamsE3$_4NS_9allocatorIS9_EEFiiEEclEOi', symObjAddr: 0x4F008, symBinAddr: 0xBA1D8, symSize: 0x54 }
  - { offset: 0x591908, size: 0x8, addend: 0x0, symName: '__ZNKSt3__110__function6__funcIZNK11llama_model13create_memoryERK19llama_memory_paramsRK13llama_cparamsE3$_4NS_9allocatorIS9_EEFiiEE6targetERKSt9type_info', symObjAddr: 0x4F05C, symBinAddr: 0xBA22C, symSize: 0x64 }
  - { offset: 0x5919BC, size: 0x8, addend: 0x0, symName: '__ZNKSt3__110__function6__funcIZNK11llama_model13create_memoryERK19llama_memory_paramsRK13llama_cparamsE3$_4NS_9allocatorIS9_EEFiiEE11target_typeEv', symObjAddr: 0x4F0C0, symBinAddr: 0xBA290, symSize: 0xC }
  - { offset: 0x591A6E, size: 0x8, addend: 0x0, symName: __GLOBAL__sub_I_llama_model.cpp, symObjAddr: 0x59440, symBinAddr: 0xBA434, symSize: 0x98 }
  - { offset: 0x593CB9, size: 0x8, addend: 0x0, symName: __ZL25llama_model_quantize_implRKNSt3__112basic_stringIcNS_11char_traitsIcEENS_9allocatorIcEEEES7_PK27llama_model_quantize_params, symObjAddr: 0x254, symBinAddr: 0xBA720, symSize: 0x5F58 }
  - { offset: 0x5CBB2C, size: 0x8, addend: 0x0, symName: '__ZNSt3__111__introsortINS_17_ClassicAlgPolicyERZL25llama_model_quantize_implRKNS_12basic_stringIcNS_11char_traitsIcEENS_9allocatorIcEEEES9_PK27llama_model_quantize_paramsE3$_0PPKN18llama_model_loader19llama_tensor_weightELb0EEEvT1_SK_T0_NS_15iterator_traitsISK_E15difference_typeEb', symObjAddr: 0x122C4, symBinAddr: 0xC0E6C, symSize: 0xEA8 }
  - { offset: 0x5CD89F, size: 0x8, addend: 0x0, symName: '__ZNSt3__127__insertion_sort_incompleteB8ne200100INS_17_ClassicAlgPolicyERZL25llama_model_quantize_implRKNS_12basic_stringIcNS_11char_traitsIcEENS_9allocatorIcEEEES9_PK27llama_model_quantize_paramsE3$_0PPKN18llama_model_loader19llama_tensor_weightEEEbT1_SK_T0_', symObjAddr: 0x132E0, symBinAddr: 0xC1E88, symSize: 0x41C }
  - { offset: 0x5E9C04, size: 0x8, addend: 0x0, symName: '__ZNSt3__17__sort4B8ne200100INS_17_ClassicAlgPolicyERZL25llama_model_quantize_implRKNS_12basic_stringIcNS_11char_traitsIcEENS_9allocatorIcEEEES9_PK27llama_model_quantize_paramsE3$_0PPKN18llama_model_loader19llama_tensor_weightELi0EEEvT1_SK_SK_SK_T0_', symObjAddr: 0x1316C, symBinAddr: 0xC1D14, symSize: 0x174 }
  - { offset: 0x5EA6D7, size: 0x8, addend: 0x0, symName: '__ZNSt3__114__thread_proxyB8ne200100INS_5tupleIJNS_10unique_ptrINS_15__thread_structENS_14default_deleteIS3_EEEEZL28llama_tensor_dequantize_implP11ggml_tensorRNS_6vectorI7no_initIfENS_9allocatorISB_EEEERNS9_INS_6threadENSC_ISG_EEEEmiE3$_09ggml_typePhPfmEEEEEPvSP_', symObjAddr: 0x17888, symBinAddr: 0xC27D4, symSize: 0xB4 }
  - { offset: 0x5EAAC2, size: 0x8, addend: 0x0, symName: '__ZNSt3__114__thread_proxyB8ne200100INS_5tupleIJNS_10unique_ptrINS_15__thread_structENS_14default_deleteIS3_EEEEZL26llama_tensor_quantize_impl9ggml_typePKfPvxxxS9_RNS_6vectorINS_6threadENS_9allocatorISC_EEEEiE3$_0EEEEESA_SA_', symObjAddr: 0x17AC0, symBinAddr: 0xC29D0, symSize: 0x78 }
  - { offset: 0x5EF92A, size: 0x8, addend: 0x0, symName: _llama_model_quantize_default_params, symObjAddr: 0x0, symBinAddr: 0xBA4CC, symSize: 0x30 }
  - { offset: 0x5EFBD2, size: 0x8, addend: 0x0, symName: _llama_model_quantize, symObjAddr: 0x30, symBinAddr: 0xBA4FC, symSize: 0x224 }
  - { offset: 0x5F8578, size: 0x8, addend: 0x0, symName: __ZNSt3__16vectorIiNS_9allocatorIiEEE18__assign_with_sizeB8ne200100IPiS5_EEvT_T0_l, symObjAddr: 0x6A40, symBinAddr: 0xC0D10, symSize: 0x148 }
  - { offset: 0x5F9942, size: 0x8, addend: 0x0, symName: '__ZZL25llama_model_quantize_implRKNSt3__112basic_stringIcNS_11char_traitsIcEENS_9allocatorIcEEEES7_PK27llama_model_quantize_paramsENK3$_2clEi', symObjAddr: 0x62A8, symBinAddr: 0xC0678, symSize: 0x38C }
  - { offset: 0x5FA5C0, size: 0x8, addend: 0x0, symName: '__ZZL25llama_model_quantize_implRKNSt3__112basic_stringIcNS_11char_traitsIcEENS_9allocatorIcEEEES7_PK27llama_model_quantize_paramsENK3$_1clEv', symObjAddr: 0x6634, symBinAddr: 0xC0A04, symSize: 0x1EC }
  - { offset: 0x5FAE7D, size: 0x8, addend: 0x0, symName: '__ZZL21llama_tensor_get_typeR19quantize_state_impl9ggml_typePK11ggml_tensor11llama_ftypeENK3$_1clEiiPKc', symObjAddr: 0x17110, symBinAddr: 0xC24A8, symSize: 0x164 }
  - { offset: 0x5FB086, size: 0x8, addend: 0x0, symName: __ZNKSt3__112__hash_tableINS_17__hash_value_typeINS_12basic_stringIcNS_11char_traitsIcEENS_9allocatorIcEEEENS_6vectorIfNS5_IfEEEEEENS_22__unordered_map_hasherIS7_SB_NS_4hashIS7_EENS_8equal_toIS7_EELb1EEENS_21__unordered_map_equalIS7_SB_SG_SE_Lb1EEENS5_ISB_EEE4findIS7_EENS_21__hash_const_iteratorIPNS_11__hash_nodeISB_PvEEEERKT_, symObjAddr: 0x17274, symBinAddr: 0xC260C, symSize: 0x1B4 }
  - { offset: 0x5FB502, size: 0x8, addend: 0x0, symName: __ZNSt3__16__treeINS_12__value_typeIiNS_12basic_stringIcNS_11char_traitsIcEENS_9allocatorIcEEEEEENS_19__map_value_compareIiS8_NS_4lessIiEELb1EEENS5_IS8_EEE7destroyEPNS_11__tree_nodeIS8_PvEE, symObjAddr: 0x17B80, symBinAddr: 0xC2A90, symSize: 0x60 }
  - { offset: 0x5FB744, size: 0x8, addend: 0x0, symName: __ZN18llama_model_loaderD2Ev, symObjAddr: 0x17BE0, symBinAddr: 0xC2AF0, symSize: 0x1AC }
  - { offset: 0x5FC46C, size: 0x8, addend: 0x0, symName: __ZNSt3__16vectorINS_6threadENS_9allocatorIS1_EEE20__throw_length_errorB8ne200100Ev, symObjAddr: 0x13740, symBinAddr: 0xC22A4, symSize: 0x14 }
  - { offset: 0x5FC484, size: 0x8, addend: 0x0, symName: __ZNSt3__114__split_bufferINS_6threadERNS_9allocatorIS1_EEED1Ev, symObjAddr: 0x13754, symBinAddr: 0xC22B8, symSize: 0x50 }
  - { offset: 0x5FC4BF, size: 0x8, addend: 0x0, symName: __ZNSt3__16vectorIPKN18llama_model_loader19llama_tensor_weightENS_9allocatorIS4_EEE20__throw_length_errorB8ne200100Ev, symObjAddr: 0x6C38, symBinAddr: 0xC0E58, symSize: 0x14 }
  - { offset: 0x5FC4F7, size: 0x8, addend: 0x0, symName: __ZNSt3__16vectorI7no_initIfENS_9allocatorIS2_EEE20__throw_length_errorB8ne200100Ev, symObjAddr: 0x17874, symBinAddr: 0xC27C0, symSize: 0x14 }
  - { offset: 0x5FC50F, size: 0x8, addend: 0x0, symName: '__ZNSt3__114__thread_proxyB8ne200100INS_5tupleIJNS_10unique_ptrINS_15__thread_structENS_14default_deleteIS3_EEEEZL28llama_tensor_dequantize_implP11ggml_tensorRNS_6vectorI7no_initIfENS_9allocatorISB_EEEERNS9_INS_6threadENSC_ISG_EEEEmiE3$_09ggml_typePhPfmEEEEEPvSP_', symObjAddr: 0x17888, symBinAddr: 0xC27D4, symSize: 0xB4 }
  - { offset: 0x5FC51A, size: 0x8, addend: 0x0, symName: __ZNSt3__128__exception_guard_exceptionsINS_6vectorINS_10unique_ptrI12gguf_context20gguf_context_deleterEENS_9allocatorIS5_EEE16__destroy_vectorEED1B8ne200100Ev, symObjAddr: 0x137A4, symBinAddr: 0xC2308, symSize: 0x80 }
  - { offset: 0x5FC718, size: 0x8, addend: 0x0, symName: '__ZNSt3__110unique_ptrINS_5tupleIJNS0_INS_15__thread_structENS_14default_deleteIS2_EEEEZL28llama_tensor_dequantize_implP11ggml_tensorRNS_6vectorI7no_initIfENS_9allocatorISA_EEEERNS8_INS_6threadENSB_ISF_EEEEmiE3$_09ggml_typePhPfmEEENS3_ISN_EEED1B8ne200100Ev', symObjAddr: 0x1793C, symBinAddr: 0xC2888, symSize: 0x48 }
  - { offset: 0x5FC917, size: 0x8, addend: 0x0, symName: __ZNSt3__114__split_bufferINS_6threadERNS_9allocatorIS1_EEED1Ev, symObjAddr: 0x13754, symBinAddr: 0xC22B8, symSize: 0x50 }
  - { offset: 0x5FCA6C, size: 0x8, addend: 0x0, symName: __ZNSt3__16vectorINS_10unique_ptrI12gguf_context20gguf_context_deleterEENS_9allocatorIS4_EEED1B8ne200100Ev, symObjAddr: 0x68D4, symBinAddr: 0xC0C48, symSize: 0x70 }
  - { offset: 0x5FCC5A, size: 0x8, addend: 0x0, symName: __ZNSt3__114basic_ofstreamIcNS_11char_traitsIcEEED1Ev, symObjAddr: 0x687C, symBinAddr: 0xC0BF0, symSize: 0x58 }
  - { offset: 0x5FCD4B, size: 0x8, addend: 0x0, symName: '__ZNSt3__110unique_ptrINS_5tupleIJNS0_INS_15__thread_structENS_14default_deleteIS2_EEEEZL26llama_tensor_quantize_impl9ggml_typePKfPvxxxS8_RNS_6vectorINS_6threadENS_9allocatorISB_EEEEiE3$_0EEENS3_ISH_EEED1B8ne200100Ev', symObjAddr: 0x17B38, symBinAddr: 0xC2A48, symSize: 0x48 }
  - { offset: 0x5FCEF3, size: 0x8, addend: 0x0, symName: __ZNSt3__16vectorINS_6threadENS_9allocatorIS1_EEED1B8ne200100Ev, symObjAddr: 0x6944, symBinAddr: 0xC0CB8, symSize: 0x58 }
  - { offset: 0x5FD57A, size: 0x8, addend: 0x0, symName: __ZNSt3__114basic_ofstreamIcNS_11char_traitsIcEEEC1ERKNS_12basic_stringIcS2_NS_9allocatorIcEEEEj, symObjAddr: 0x13824, symBinAddr: 0xC2388, symSize: 0x120 }
  - { offset: 0x61997A, size: 0x8, addend: 0x0, symName: '__ZZL26llama_tensor_quantize_impl9ggml_typePKfPvxxxS1_RNSt3__16vectorINS3_6threadENS3_9allocatorIS5_EEEEiENK3$_0clEv', symObjAddr: 0x179C0, symBinAddr: 0xC28D0, symSize: 0x100 }
  - { offset: 0x61C6DA, size: 0x8, addend: 0x0, symName: __MergedGlobals, symObjAddr: 0x1DB28, symBinAddr: 0x2D03F0, symSize: 0x0 }
  - { offset: 0x61C8E9, size: 0x8, addend: 0x0, symName: __ZL22llama_sampler_greedy_i, symObjAddr: 0x1D9E8, symBinAddr: 0x2D02B0, symSize: 0x0 }
  - { offset: 0x61C8F7, size: 0x8, addend: 0x0, symName: __ZL12get_rng_seedj, symObjAddr: 0xADC, symBinAddr: 0xC3778, symSize: 0x15C }
  - { offset: 0x61C923, size: 0x8, addend: 0x0, symName: __MergedGlobals.177, symObjAddr: 0x1FB8F8, symBinAddr: 0x35C158, symSize: 0x0 }
  - { offset: 0x61CCBE, size: 0x8, addend: 0x0, symName: __MergedGlobals, symObjAddr: 0x1DB28, symBinAddr: 0x2D03F0, symSize: 0x0 }
  - { offset: 0x61CCDB, size: 0x8, addend: 0x0, symName: __MergedGlobals, symObjAddr: 0x1DB28, symBinAddr: 0x2D03F0, symSize: 0x0 }
  - { offset: 0x61CCF9, size: 0x8, addend: 0x0, symName: __MergedGlobals, symObjAddr: 0x1DB28, symBinAddr: 0x2D03F0, symSize: 0x0 }
  - { offset: 0x61CD0A, size: 0x8, addend: 0x0, symName: __ZL43llama_token_data_array_partial_sort_inplaceP22llama_token_data_arrayi, symObjAddr: 0x48F0, symBinAddr: 0xC7500, symSize: 0x4BC }
  - { offset: 0x61D3FD, size: 0x8, addend: 0x0, symName: __ZL35llama_token_data_array_partial_sortRK22llama_token_data_arrayiRNSt3__16vectorI16llama_token_dataNS2_9allocatorIS4_EEEE, symObjAddr: 0x4DAC, symBinAddr: 0xC79BC, symSize: 0x5B8 }
  - { offset: 0x632D1A, size: 0x8, addend: 0x0, symName: '__ZNSt3__111__introsortINS_17_ClassicAlgPolicyERZL35llama_token_data_array_partial_sortRK22llama_token_data_arrayiRNS_6vectorI16llama_token_dataNS_9allocatorIS6_EEEEE3$_0PS6_Lb0EEEvT1_SE_T0_NS_15iterator_traitsISE_E15difference_typeEb', symObjAddr: 0x5428, symBinAddr: 0xC7F88, symSize: 0xDA4 }
  - { offset: 0x63418C, size: 0x8, addend: 0x0, symName: '__ZNSt3__127__insertion_sort_incompleteB8ne200100INS_17_ClassicAlgPolicyERZL35llama_token_data_array_partial_sortRK22llama_token_data_arrayiRNS_6vectorI16llama_token_dataNS_9allocatorIS6_EEEEE3$_0PS6_EEbT1_SE_T0_', symObjAddr: 0x640C, symBinAddr: 0xC8F6C, symSize: 0x4B4 }
  - { offset: 0x6362EF, size: 0x8, addend: 0x0, symName: '__ZNSt3__111__introsortINS_17_ClassicAlgPolicyERZL27llama_sampler_typical_applyP13llama_samplerP22llama_token_data_arrayE3$_0PmLb0EEEvT1_S9_T0_NS_15iterator_traitsIS9_E15difference_typeEb', symObjAddr: 0x8404, symBinAddr: 0xCAF3C, symSize: 0xAD8 }
  - { offset: 0x637F07, size: 0x8, addend: 0x0, symName: '__ZNSt3__127__insertion_sort_incompleteB8ne200100INS_17_ClassicAlgPolicyERZL27llama_sampler_typical_applyP13llama_samplerP22llama_token_data_arrayE3$_0PmEEbT1_S9_T0_', symObjAddr: 0x9078, symBinAddr: 0xCBBB0, symSize: 0x358 }
  - { offset: 0x64320E, size: 0x8, addend: 0x0, symName: __ZNSt3__113regex_replaceB8ne200100INS_20back_insert_iteratorINS_12basic_stringIcNS_11char_traitsIcEENS_9allocatorIcEEEEEEPKcNS_12regex_traitsIcEEcEET_SD_T0_SE_RKNS_11basic_regexIT2_T1_EEPKSG_NS_15regex_constants15match_flag_typeE, symObjAddr: 0x148B0, symBinAddr: 0xCE664, symSize: 0x26C }
  - { offset: 0x645C91, size: 0x8, addend: 0x0, symName: '__ZNSt3__119__partial_sort_implB8ne200100INS_17_ClassicAlgPolicyERZL35llama_token_data_array_partial_sortRK22llama_token_data_arrayiRNS_6vectorI16llama_token_dataNS_9allocatorIS6_EEEEE3$_0PS6_SD_EET1_SE_SE_T2_OT0_', symObjAddr: 0x68C0, symBinAddr: 0xC9420, symSize: 0x40C }
  - { offset: 0x6463A0, size: 0x8, addend: 0x0, symName: '__ZNSt3__17__sort5B8ne200100INS_17_ClassicAlgPolicyERZL35llama_token_data_array_partial_sortRK22llama_token_data_arrayiRNS_6vectorI16llama_token_dataNS_9allocatorIS6_EEEEE3$_0PS6_Li0EEEvT1_SE_SE_SE_SE_T0_', symObjAddr: 0x61CC, symBinAddr: 0xC8D2C, symSize: 0x240 }
  - { offset: 0x647AD8, size: 0x8, addend: 0x0, symName: '__ZNSt3__17__sort5B8ne200100INS_17_ClassicAlgPolicyERZL27llama_sampler_typical_applyP13llama_samplerP22llama_token_data_arrayE3$_0PmLi0EEEvT1_S9_S9_S9_S9_T0_', symObjAddr: 0x8EDC, symBinAddr: 0xCBA14, symSize: 0x19C }
  - { offset: 0x647B46, size: 0x8, addend: 0x0, symName: '__ZNSt3__17__sort5B8ne200100INS_17_ClassicAlgPolicyERZL27llama_sampler_typical_applyP13llama_samplerP22llama_token_data_arrayE3$_0PmLi0EEEvT1_S9_S9_S9_S9_T0_', symObjAddr: 0x8EDC, symBinAddr: 0xCBA14, symSize: 0x19C }
  - { offset: 0x64E4AD, size: 0x8, addend: 0x0, symName: __MergedGlobals, symObjAddr: 0x1DB28, symBinAddr: 0x2D03F0, symSize: 0x0 }
  - { offset: 0x64E4CB, size: 0x8, addend: 0x0, symName: __MergedGlobals, symObjAddr: 0x1DB28, symBinAddr: 0x2D03F0, symSize: 0x0 }
  - { offset: 0x64E4E9, size: 0x8, addend: 0x0, symName: __MergedGlobals, symObjAddr: 0x1DB28, symBinAddr: 0x2D03F0, symSize: 0x0 }
  - { offset: 0x64E507, size: 0x8, addend: 0x0, symName: __MergedGlobals, symObjAddr: 0x1DB28, symBinAddr: 0x2D03F0, symSize: 0x0 }
  - { offset: 0x64E525, size: 0x8, addend: 0x0, symName: __MergedGlobals, symObjAddr: 0x1DB28, symBinAddr: 0x2D03F0, symSize: 0x0 }
  - { offset: 0x64E543, size: 0x8, addend: 0x0, symName: __MergedGlobals, symObjAddr: 0x1DB28, symBinAddr: 0x2D03F0, symSize: 0x0 }
  - { offset: 0x64E561, size: 0x8, addend: 0x0, symName: __MergedGlobals, symObjAddr: 0x1DB28, symBinAddr: 0x2D03F0, symSize: 0x0 }
  - { offset: 0x64E57F, size: 0x8, addend: 0x0, symName: __MergedGlobals, symObjAddr: 0x1DB28, symBinAddr: 0x2D03F0, symSize: 0x0 }
  - { offset: 0x64E590, size: 0x8, addend: 0x0, symName: __ZL31llama_sampler_init_grammar_implPK11llama_vocabPKcS3_bPS3_mPKimS4_m, symObjAddr: 0x12C8, symBinAddr: 0xC3F64, symSize: 0x600 }
  - { offset: 0x64E5B1, size: 0x8, addend: 0x0, symName: __MergedGlobals.177, symObjAddr: 0x1FB8F8, symBinAddr: 0x35C158, symSize: 0x0 }
  - { offset: 0x64FF44, size: 0x8, addend: 0x0, symName: __ZL23llama_sampler_grammar_i, symObjAddr: 0x1DAD8, symBinAddr: 0x2D03A0, symSize: 0x0 }
  - { offset: 0x64FF5F, size: 0x8, addend: 0x0, symName: __MergedGlobals, symObjAddr: 0x1DB28, symBinAddr: 0x2D03F0, symSize: 0x0 }
  - { offset: 0x64FF82, size: 0x8, addend: 0x0, symName: __MergedGlobals, symObjAddr: 0x1DB28, symBinAddr: 0x2D03F0, symSize: 0x0 }
  - { offset: 0x64FFA0, size: 0x8, addend: 0x0, symName: __MergedGlobals, symObjAddr: 0x1DB28, symBinAddr: 0x2D03F0, symSize: 0x0 }
  - { offset: 0x64FFBE, size: 0x8, addend: 0x0, symName: __ZL26llama_sampler_adaptive_p_i, symObjAddr: 0x1DA38, symBinAddr: 0x2D0300, symSize: 0x0 }
  - { offset: 0x650014, size: 0x8, addend: 0x0, symName: __MergedGlobals, symObjAddr: 0x1DB28, symBinAddr: 0x2D03F0, symSize: 0x0 }
  - { offset: 0x650032, size: 0x8, addend: 0x0, symName: __ZL22llama_sampler_infill_i, symObjAddr: 0x1DA88, symBinAddr: 0x2D0350, symSize: 0x0 }
  - { offset: 0x65153F, size: 0x8, addend: 0x0, symName: __ZL17llama_sample_distP22llama_token_data_arrayRNSt3__123mersenne_twister_engineIjLm32ELm624ELm397ELm31ELj2567483615ELm11ELj4294967295ELm7ELj2636928640ELm15ELj4022730752ELm18ELj1812433253EEE, symObjAddr: 0xAEC8, symBinAddr: 0xCDA00, symSize: 0x1D0 }
  - { offset: 0x65318E, size: 0x8, addend: 0x0, symName: _llama_sampler_init, symObjAddr: 0x0, symBinAddr: 0xC2C9C, symSize: 0x2C }
  - { offset: 0x6531B5, size: 0x8, addend: 0x0, symName: _llama_sampler_name, symObjAddr: 0x2C, symBinAddr: 0xC2CC8, symSize: 0x1C }
  - { offset: 0x6531ED, size: 0x8, addend: 0x0, symName: _llama_sampler_accept, symObjAddr: 0x48, symBinAddr: 0xC2CE4, symSize: 0x18 }
  - { offset: 0x65321C, size: 0x8, addend: 0x0, symName: _llama_sampler_apply, symObjAddr: 0x60, symBinAddr: 0xC2CFC, symSize: 0x48 }
  - { offset: 0x653251, size: 0x8, addend: 0x0, symName: _llama_sampler_reset, symObjAddr: 0xA8, symBinAddr: 0xC2D44, symSize: 0x18 }
  - { offset: 0x65327E, size: 0x8, addend: 0x0, symName: _llama_sampler_reset, symObjAddr: 0xA8, symBinAddr: 0xC2D44, symSize: 0x18 }
  - { offset: 0x6532CD, size: 0x8, addend: 0x0, symName: _llama_sampler_clone, symObjAddr: 0xC0, symBinAddr: 0xC2D5C, symSize: 0x60 }
  - { offset: 0x65331D, size: 0x8, addend: 0x0, symName: _llama_sampler_free, symObjAddr: 0x120, symBinAddr: 0xC2DBC, symSize: 0x38 }
  - { offset: 0x653330, size: 0x8, addend: 0x0, symName: _llama_sampler_free, symObjAddr: 0x120, symBinAddr: 0xC2DBC, symSize: 0x38 }
  - { offset: 0x653394, size: 0x8, addend: 0x0, symName: _llama_sampler_chain_init, symObjAddr: 0x158, symBinAddr: 0xC2DF4, symSize: 0x58 }
  - { offset: 0x653631, size: 0x8, addend: 0x0, symName: _llama_sampler_sample, symObjAddr: 0x1B0, symBinAddr: 0xC2E4C, symSize: 0x63C }
  - { offset: 0x653F0C, size: 0x8, addend: 0x0, symName: __ZNSt3__16vectorI16llama_token_dataNS_9allocatorIS1_EEE8__appendEm, symObjAddr: 0x1C1B0, symBinAddr: 0xD3330, symSize: 0x180 }
  - { offset: 0x6542CB, size: 0x8, addend: 0x0, symName: __ZNSt3__16vectorIN19llama_sampler_chain4infoENS_9allocatorIS2_EEE20__throw_length_errorB8ne200100Ev, symObjAddr: 0x1C330, symBinAddr: 0xD34B0, symSize: 0x14 }
  - { offset: 0x65466F, size: 0x8, addend: 0x0, symName: _llama_sampler_chain_add, symObjAddr: 0x7EC, symBinAddr: 0xC3488, symSize: 0xF4 }
  - { offset: 0x654A76, size: 0x8, addend: 0x0, symName: _llama_sampler_chain_get, symObjAddr: 0x8E0, symBinAddr: 0xC357C, symSize: 0x50 }
  - { offset: 0x654A81, size: 0x8, addend: 0x0, symName: __ZNSt3__16vectorIN19llama_sampler_chain4infoENS_9allocatorIS2_EEE20__throw_length_errorB8ne200100Ev, symObjAddr: 0x1C330, symBinAddr: 0xD34B0, symSize: 0x14 }
  - { offset: 0x654AA4, size: 0x8, addend: 0x0, symName: _llama_sampler_chain_get, symObjAddr: 0x8E0, symBinAddr: 0xC357C, symSize: 0x50 }
  - { offset: 0x654C22, size: 0x8, addend: 0x0, symName: _llama_sampler_chain_remove, symObjAddr: 0x930, symBinAddr: 0xC35CC, symSize: 0x88 }
  - { offset: 0x654E45, size: 0x8, addend: 0x0, symName: _llama_sampler_chain_n, symObjAddr: 0x9B8, symBinAddr: 0xC3654, symSize: 0x14 }
  - { offset: 0x654ECC, size: 0x8, addend: 0x0, symName: _llama_sampler_init_greedy, symObjAddr: 0x9CC, symBinAddr: 0xC3668, symSize: 0x58 }
  - { offset: 0x654F3B, size: 0x8, addend: 0x0, symName: __ZN21llama_sampler_backendC2EPKc, symObjAddr: 0x3970, symBinAddr: 0xC6580, symSize: 0x138 }
  - { offset: 0x655594, size: 0x8, addend: 0x0, symName: _llama_sampler_init_dist, symObjAddr: 0xA24, symBinAddr: 0xC36C0, symSize: 0xB8 }
  - { offset: 0x6558CA, size: 0x8, addend: 0x0, symName: __ZNSt3__113random_deviceC1B8ne200100Ev, symObjAddr: 0x3AA8, symBinAddr: 0xC66B8, symSize: 0x98 }
  - { offset: 0x655C2B, size: 0x8, addend: 0x0, symName: __ZN21llama_sampler_backendD1Ev, symObjAddr: 0xC38, symBinAddr: 0xC38D4, symSize: 0x58 }
  - { offset: 0x655E6F, size: 0x8, addend: 0x0, symName: _llama_sampler_init_top_k, symObjAddr: 0xC90, symBinAddr: 0xC392C, symSize: 0xA0 }
  - { offset: 0x655EE6, size: 0x8, addend: 0x0, symName: _llama_sampler_init_top_p, symObjAddr: 0xD30, symBinAddr: 0xC39CC, symSize: 0xA4 }
  - { offset: 0x655FA5, size: 0x8, addend: 0x0, symName: _llama_sampler_init_min_p, symObjAddr: 0xDD4, symBinAddr: 0xC3A70, symSize: 0x9C }
  - { offset: 0x656025, size: 0x8, addend: 0x0, symName: _llama_sampler_init_typical, symObjAddr: 0xE70, symBinAddr: 0xC3B0C, symSize: 0x80 }
  - { offset: 0x656071, size: 0x8, addend: 0x0, symName: _llama_sampler_init_temp, symObjAddr: 0xEF0, symBinAddr: 0xC3B8C, symSize: 0x98 }
  - { offset: 0x6560E8, size: 0x8, addend: 0x0, symName: _llama_sampler_init_temp_ext, symObjAddr: 0xF88, symBinAddr: 0xC3C24, symSize: 0xB4 }
  - { offset: 0x65617A, size: 0x8, addend: 0x0, symName: _llama_sampler_init_xtc, symObjAddr: 0x103C, symBinAddr: 0xC3CD8, symSize: 0xE4 }
  - { offset: 0x65627B, size: 0x8, addend: 0x0, symName: _llama_sampler_init_mirostat, symObjAddr: 0x1120, symBinAddr: 0xC3DBC, symSize: 0xC8 }
  - { offset: 0x65638D, size: 0x8, addend: 0x0, symName: _llama_sampler_init_mirostat_v2, symObjAddr: 0x11E8, symBinAddr: 0xC3E84, symSize: 0xAC }
  - { offset: 0x65648D, size: 0x8, addend: 0x0, symName: _llama_sampler_init_grammar, symObjAddr: 0x1294, symBinAddr: 0xC3F30, symSize: 0x34 }
  - { offset: 0x656985, size: 0x8, addend: 0x0, symName: _llama_sampler_init_grammar_lazy, symObjAddr: 0x18C8, symBinAddr: 0xC4564, symSize: 0x34 }
  - { offset: 0x656A55, size: 0x8, addend: 0x0, symName: _llama_sampler_init_grammar_lazy_patterns, symObjAddr: 0x18FC, symBinAddr: 0xC4598, symSize: 0x34 }
  - { offset: 0x656DCC, size: 0x8, addend: 0x0, symName: _llama_sampler_init_penalties, symObjAddr: 0x1930, symBinAddr: 0xC45CC, symSize: 0x11C }
  - { offset: 0x6570E6, size: 0x8, addend: 0x0, symName: _llama_sampler_init_top_n_sigma, symObjAddr: 0x1A4C, symBinAddr: 0xC46E8, symSize: 0x74 }
  - { offset: 0x658653, size: 0x8, addend: 0x0, symName: _llama_sampler_init_dry, symObjAddr: 0x1AC0, symBinAddr: 0xC475C, symSize: 0xB54 }
  - { offset: 0x65B830, size: 0x8, addend: 0x0, symName: __ZNSt3__112__hash_tableINS_17__hash_value_typeIiNS_6vectorIiNS_9allocatorIiEEEEEENS_22__unordered_map_hasherIiS6_NS_4hashIiEENS_8equal_toIiEELb1EEENS_21__unordered_map_equalIiS6_SB_S9_Lb1EEENS3_IS6_EEE27__node_insert_multi_prepareEmRS6_, symObjAddr: 0x1899C, symBinAddr: 0xCFC3C, symSize: 0x27C }
  - { offset: 0x65BAEF, size: 0x8, addend: 0x0, symName: __ZNSt3__112__hash_tableINS_17__hash_value_typeIiNS_6vectorIiNS_9allocatorIiEEEEEENS_22__unordered_map_hasherIiS6_NS_4hashIiEENS_8equal_toIiEELb1EEENS_21__unordered_map_equalIiS6_SB_S9_Lb1EEENS3_IS6_EEE19__node_insert_multiEPNS_11__hash_nodeIS6_PvEE, symObjAddr: 0x18810, symBinAddr: 0xCFAB0, symSize: 0x12C }
  - { offset: 0x65BEA4, size: 0x8, addend: 0x0, symName: __ZNSt3__118unordered_multimapIiNS_6vectorIiNS_9allocatorIiEEEENS_4hashIiEENS_8equal_toIiEENS2_INS_4pairIKiS4_EEEEED1B8ne200100Ev, symObjAddr: 0x265C, symBinAddr: 0xC52B0, symSize: 0x68 }
  - { offset: 0x65C2BF, size: 0x8, addend: 0x0, symName: __ZNSt3__110unique_ptrINS_11__hash_nodeINS_17__hash_value_typeIiNS_6vectorIiNS_9allocatorIiEEEEEEPvEENS_22__hash_node_destructorINS4_IS9_EEEEED1B8ne200100Ev, symObjAddr: 0x1893C, symBinAddr: 0xCFBDC, symSize: 0x60 }
  - { offset: 0x65C9A4, size: 0x8, addend: 0x0, symName: __Z30llama_sampler_init_dry_testingiffiiRKNSt3__16vectorINS0_IiNS_9allocatorIiEEEENS1_IS3_EEEE, symObjAddr: 0x26C4, symBinAddr: 0xC5318, symSize: 0x2B0 }
  - { offset: 0x65D472, size: 0x8, addend: 0x0, symName: _llama_sampler_init_adaptive_p, symObjAddr: 0x2974, symBinAddr: 0xC55C8, symSize: 0x108 }
  - { offset: 0x65D82B, size: 0x8, addend: 0x0, symName: _llama_sampler_init_logit_bias, symObjAddr: 0x2A7C, symBinAddr: 0xC56D0, symSize: 0xF4 }
  - { offset: 0x65DD86, size: 0x8, addend: 0x0, symName: _llama_sampler_init_infill, symObjAddr: 0x2B70, symBinAddr: 0xC57C4, symSize: 0x138 }
  - { offset: 0x65E279, size: 0x8, addend: 0x0, symName: _llama_sampler_get_seed, symObjAddr: 0x2CA8, symBinAddr: 0xC58FC, symSize: 0xD8 }
  - { offset: 0x65E3E6, size: 0x8, addend: 0x0, symName: _llama_perf_sampler, symObjAddr: 0x2D80, symBinAddr: 0xC59D4, symSize: 0x7C }
  - { offset: 0x65E476, size: 0x8, addend: 0x0, symName: _llama_perf_sampler_print, symObjAddr: 0x2DFC, symBinAddr: 0xC5A50, symSize: 0xA4 }
  - { offset: 0x65E4E1, size: 0x8, addend: 0x0, symName: _llama_perf_sampler_print, symObjAddr: 0x2DFC, symBinAddr: 0xC5A50, symSize: 0xA4 }
  - { offset: 0x65E5B5, size: 0x8, addend: 0x0, symName: _llama_perf_sampler_reset, symObjAddr: 0x2EA0, symBinAddr: 0xC5AF4, symSize: 0x58 }
  - { offset: 0x65E5C8, size: 0x8, addend: 0x0, symName: _llama_perf_sampler_reset, symObjAddr: 0x2EA0, symBinAddr: 0xC5AF4, symSize: 0x58 }
  - { offset: 0x65E602, size: 0x8, addend: 0x0, symName: __ZL24llama_sampler_chain_namePK13llama_sampler, symObjAddr: 0x2EF8, symBinAddr: 0xC5B4C, symSize: 0xC }
  - { offset: 0x65E615, size: 0x8, addend: 0x0, symName: __ZL24llama_sampler_chain_namePK13llama_sampler, symObjAddr: 0x2EF8, symBinAddr: 0xC5B4C, symSize: 0xC }
  - { offset: 0x65E670, size: 0x8, addend: 0x0, symName: __ZL26llama_sampler_chain_acceptP13llama_sampleri, symObjAddr: 0x2F04, symBinAddr: 0xC5B58, symSize: 0x9C }
  - { offset: 0x65E790, size: 0x8, addend: 0x0, symName: __ZL25llama_sampler_chain_applyP13llama_samplerP22llama_token_data_array, symObjAddr: 0x2FA0, symBinAddr: 0xC5BF4, symSize: 0xAC }
  - { offset: 0x65E8CC, size: 0x8, addend: 0x0, symName: __ZL25llama_sampler_chain_resetP13llama_sampler, symObjAddr: 0x304C, symBinAddr: 0xC5CA0, symSize: 0x4C }
  - { offset: 0x65EA20, size: 0x8, addend: 0x0, symName: __ZL25llama_sampler_chain_clonePK13llama_sampler, symObjAddr: 0x3098, symBinAddr: 0xC5CEC, symSize: 0xE0 }
  - { offset: 0x65EBC9, size: 0x8, addend: 0x0, symName: __ZL24llama_sampler_chain_freeP13llama_sampler, symObjAddr: 0x3178, symBinAddr: 0xC5DCC, symSize: 0xA0 }
  - { offset: 0x65ECA3, size: 0x8, addend: 0x0, symName: __ZL24llama_sampler_chain_freeP13llama_sampler, symObjAddr: 0x3178, symBinAddr: 0xC5DCC, symSize: 0xA0 }
  - { offset: 0x65F00F, size: 0x8, addend: 0x0, symName: __ZL32llama_sampler_chain_backend_initP13llama_samplerP24ggml_backend_buffer_type, symObjAddr: 0x3218, symBinAddr: 0xC5E6C, symSize: 0xB4 }
  - { offset: 0x65F108, size: 0x8, addend: 0x0, symName: __ZL34llama_sampler_chain_backend_acceptP13llama_samplerP12ggml_contextP11ggml_cgraphP11ggml_tensor, symObjAddr: 0x32CC, symBinAddr: 0xC5F20, symSize: 0x84 }
  - { offset: 0x65F11B, size: 0x8, addend: 0x0, symName: __ZL34llama_sampler_chain_backend_acceptP13llama_samplerP12ggml_contextP11ggml_cgraphP11ggml_tensor, symObjAddr: 0x32CC, symBinAddr: 0xC5F20, symSize: 0x84 }
  - { offset: 0x65F231, size: 0x8, addend: 0x0, symName: __ZL33llama_sampler_chain_backend_applyP13llama_samplerP12ggml_contextP11ggml_cgraphP18llama_sampler_data, symObjAddr: 0x3350, symBinAddr: 0xC5FA4, symSize: 0xB8 }
  - { offset: 0x65F349, size: 0x8, addend: 0x0, symName: __ZL37llama_sampler_chain_backend_set_inputP13llama_sampler, symObjAddr: 0x3408, symBinAddr: 0xC605C, symSize: 0x54 }
  - { offset: 0x65F35C, size: 0x8, addend: 0x0, symName: __ZL37llama_sampler_chain_backend_set_inputP13llama_sampler, symObjAddr: 0x3408, symBinAddr: 0xC605C, symSize: 0x54 }
  - { offset: 0x65F445, size: 0x8, addend: 0x0, symName: __ZL25llama_sampler_greedy_namePK13llama_sampler, symObjAddr: 0x346C, symBinAddr: 0xC60B0, symSize: 0xC0 }
  - { offset: 0x65F6AA, size: 0x8, addend: 0x0, symName: __ZL26llama_sampler_greedy_applyP13llama_samplerP22llama_token_data_array, symObjAddr: 0x352C, symBinAddr: 0xC6170, symSize: 0x5C }
  - { offset: 0x65F6FC, size: 0x8, addend: 0x0, symName: __ZL26llama_sampler_greedy_resetP13llama_sampler, symObjAddr: 0x3588, symBinAddr: 0xC61CC, symSize: 0x4 }
  - { offset: 0x65F73E, size: 0x8, addend: 0x0, symName: __ZL26llama_sampler_greedy_clonePK13llama_sampler, symObjAddr: 0x358C, symBinAddr: 0xC61D0, symSize: 0x58 }
  - { offset: 0x65F82E, size: 0x8, addend: 0x0, symName: __ZL25llama_sampler_greedy_freeP13llama_sampler, symObjAddr: 0x35E4, symBinAddr: 0xC6228, symSize: 0x68 }
  - { offset: 0x65FAA1, size: 0x8, addend: 0x0, symName: __ZL33llama_sampler_greedy_backend_initP13llama_samplerP24ggml_backend_buffer_type, symObjAddr: 0x364C, symBinAddr: 0xC6290, symSize: 0x60 }
  - { offset: 0x65FB32, size: 0x8, addend: 0x0, symName: __ZL34llama_sampler_greedy_backend_applyP13llama_samplerP12ggml_contextP11ggml_cgraphP18llama_sampler_data, symObjAddr: 0x36AC, symBinAddr: 0xC62F0, symSize: 0x3C }
  - { offset: 0x65FB45, size: 0x8, addend: 0x0, symName: __ZL29llama_sampler_backend_supportP13llama_samplerP24ggml_backend_buffer_type, symObjAddr: 0x36E8, symBinAddr: 0xC632C, symSize: 0x254 }
  - { offset: 0x65FFE8, size: 0x8, addend: 0x0, symName: __ZL34llama_sampler_greedy_backend_applyP13llama_samplerP12ggml_contextP11ggml_cgraphP18llama_sampler_data, symObjAddr: 0x36AC, symBinAddr: 0xC62F0, symSize: 0x3C }
  - { offset: 0x660320, size: 0x8, addend: 0x0, symName: __ZL23llama_sampler_dist_namePK13llama_sampler, symObjAddr: 0x3B40, symBinAddr: 0xC6750, symSize: 0xC0 }
  - { offset: 0x6606AA, size: 0x8, addend: 0x0, symName: __ZL24llama_sampler_dist_applyP13llama_samplerP22llama_token_data_array, symObjAddr: 0x3C00, symBinAddr: 0xC6810, symSize: 0x324 }
  - { offset: 0x660917, size: 0x8, addend: 0x0, symName: __ZL24llama_sampler_dist_resetP13llama_sampler, symObjAddr: 0x3F24, symBinAddr: 0xC6B34, symSize: 0x68 }
  - { offset: 0x6609C7, size: 0x8, addend: 0x0, symName: __ZL24llama_sampler_dist_clonePK13llama_sampler, symObjAddr: 0x3F8C, symBinAddr: 0xC6B9C, symSize: 0xE4 }
  - { offset: 0x660C03, size: 0x8, addend: 0x0, symName: __ZL23llama_sampler_dist_freeP13llama_sampler, symObjAddr: 0x4070, symBinAddr: 0xC6C80, symSize: 0x90 }
  - { offset: 0x660FB1, size: 0x8, addend: 0x0, symName: __ZL31llama_sampler_dist_backend_initP13llama_samplerP24ggml_backend_buffer_type, symObjAddr: 0x4100, symBinAddr: 0xC6D10, symSize: 0x134 }
  - { offset: 0x6612E0, size: 0x8, addend: 0x0, symName: __ZL32llama_sampler_dist_backend_applyP13llama_samplerP12ggml_contextP11ggml_cgraphP18llama_sampler_data, symObjAddr: 0x4234, symBinAddr: 0xC6E44, symSize: 0x144 }
  - { offset: 0x66164F, size: 0x8, addend: 0x0, symName: __ZL36llama_sampler_dist_backend_set_inputP13llama_sampler, symObjAddr: 0x4378, symBinAddr: 0xC6F88, symSize: 0x18C }
  - { offset: 0x6617CE, size: 0x8, addend: 0x0, symName: __ZL24llama_sampler_empty_namePK13llama_sampler, symObjAddr: 0x4504, symBinAddr: 0xC7114, symSize: 0xC }
  - { offset: 0x6617FD, size: 0x8, addend: 0x0, symName: __ZL24llama_sampler_empty_namePK13llama_sampler, symObjAddr: 0x4504, symBinAddr: 0xC7114, symSize: 0xC }
  - { offset: 0x66183D, size: 0x8, addend: 0x0, symName: __ZL26llama_sampler_empty_acceptP13llama_sampleri, symObjAddr: 0x4510, symBinAddr: 0xC7120, symSize: 0x4 }
  - { offset: 0x661871, size: 0x8, addend: 0x0, symName: __ZL25llama_sampler_empty_applyP13llama_samplerP22llama_token_data_array, symObjAddr: 0x4514, symBinAddr: 0xC7124, symSize: 0x4 }
  - { offset: 0x6618A5, size: 0x8, addend: 0x0, symName: __ZL25llama_sampler_empty_resetP13llama_sampler, symObjAddr: 0x4518, symBinAddr: 0xC7128, symSize: 0x4 }
  - { offset: 0x6618CD, size: 0x8, addend: 0x0, symName: __ZL25llama_sampler_empty_clonePK13llama_sampler, symObjAddr: 0x451C, symBinAddr: 0xC712C, symSize: 0x44 }
  - { offset: 0x661950, size: 0x8, addend: 0x0, symName: __ZL24llama_sampler_empty_freeP13llama_sampler, symObjAddr: 0x4560, symBinAddr: 0xC7170, symSize: 0x10 }
  - { offset: 0x66197C, size: 0x8, addend: 0x0, symName: __ZL32llama_sampler_empty_backend_initP13llama_samplerP24ggml_backend_buffer_type, symObjAddr: 0x4570, symBinAddr: 0xC7180, symSize: 0x8 }
  - { offset: 0x6619B4, size: 0x8, addend: 0x0, symName: __ZL34llama_sampler_empty_backend_acceptP13llama_samplerP12ggml_contextP11ggml_cgraphP11ggml_tensor, symObjAddr: 0x4578, symBinAddr: 0xC7188, symSize: 0x4 }
  - { offset: 0x661A00, size: 0x8, addend: 0x0, symName: __ZL33llama_sampler_empty_backend_applyP13llama_samplerP12ggml_contextP11ggml_cgraphP18llama_sampler_data, symObjAddr: 0x457C, symBinAddr: 0xC718C, symSize: 0x4 }
  - { offset: 0x661A4C, size: 0x8, addend: 0x0, symName: __ZL37llama_sampler_empty_backend_set_inputP13llama_sampler, symObjAddr: 0x4580, symBinAddr: 0xC7190, symSize: 0x4 }
  - { offset: 0x661A74, size: 0x8, addend: 0x0, symName: __ZL24llama_sampler_top_k_namePK13llama_sampler, symObjAddr: 0x4584, symBinAddr: 0xC7194, symSize: 0xC0 }
  - { offset: 0x661D00, size: 0x8, addend: 0x0, symName: __ZL25llama_sampler_top_k_applyP13llama_samplerP22llama_token_data_array, symObjAddr: 0x4644, symBinAddr: 0xC7254, symSize: 0x58 }
  - { offset: 0x661DA6, size: 0x8, addend: 0x0, symName: __ZL25llama_sampler_top_k_clonePK13llama_sampler, symObjAddr: 0x469C, symBinAddr: 0xC72AC, symSize: 0xA4 }
  - { offset: 0x661E90, size: 0x8, addend: 0x0, symName: __ZL24llama_sampler_top_k_freeP13llama_sampler, symObjAddr: 0x4740, symBinAddr: 0xC7350, symSize: 0x68 }
  - { offset: 0x6620E1, size: 0x8, addend: 0x0, symName: __ZL32llama_sampler_top_k_backend_initP13llama_samplerP24ggml_backend_buffer_type, symObjAddr: 0x47A8, symBinAddr: 0xC73B8, symSize: 0x60 }
  - { offset: 0x662172, size: 0x8, addend: 0x0, symName: __ZL33llama_sampler_top_k_backend_applyP13llama_samplerP12ggml_contextP11ggml_cgraphP18llama_sampler_data, symObjAddr: 0x4808, symBinAddr: 0xC7418, symSize: 0xE8 }
  - { offset: 0x662185, size: 0x8, addend: 0x0, symName: __ZL33llama_sampler_top_k_backend_applyP13llama_samplerP12ggml_contextP11ggml_cgraphP18llama_sampler_data, symObjAddr: 0x4808, symBinAddr: 0xC7418, symSize: 0xE8 }
  - { offset: 0x662A0E, size: 0x8, addend: 0x0, symName: __ZNSt3__16vectorIP16llama_token_dataNS_9allocatorIS2_EEE20__throw_length_errorB8ne200100Ev, symObjAddr: 0x5414, symBinAddr: 0xC7F74, symSize: 0x14 }
  - { offset: 0x662A26, size: 0x8, addend: 0x0, symName: '__ZNSt3__111__introsortINS_17_ClassicAlgPolicyERZL35llama_token_data_array_partial_sortRK22llama_token_data_arrayiRNS_6vectorI16llama_token_dataNS_9allocatorIS6_EEEEE3$_0PS6_Lb0EEEvT1_SE_T0_NS_15iterator_traitsISE_E15difference_typeEb', symObjAddr: 0x5428, symBinAddr: 0xC7F88, symSize: 0xDA4 }
  - { offset: 0x662AE9, size: 0x8, addend: 0x0, symName: __ZL24llama_sampler_top_p_namePK13llama_sampler, symObjAddr: 0x6CCC, symBinAddr: 0xC982C, symSize: 0xC0 }
  - { offset: 0x662DC5, size: 0x8, addend: 0x0, symName: __ZL25llama_sampler_top_p_applyP13llama_samplerP22llama_token_data_array, symObjAddr: 0x6D8C, symBinAddr: 0xC98EC, symSize: 0x348 }
  - { offset: 0x66311E, size: 0x8, addend: 0x0, symName: __ZL25llama_sampler_top_p_clonePK13llama_sampler, symObjAddr: 0x70D4, symBinAddr: 0xC9C34, symSize: 0xA8 }
  - { offset: 0x663164, size: 0x8, addend: 0x0, symName: __ZL25llama_sampler_top_p_clonePK13llama_sampler, symObjAddr: 0x70D4, symBinAddr: 0xC9C34, symSize: 0xA8 }
  - { offset: 0x663296, size: 0x8, addend: 0x0, symName: __ZL24llama_sampler_top_p_freeP13llama_sampler, symObjAddr: 0x717C, symBinAddr: 0xC9CDC, symSize: 0x78 }
  - { offset: 0x663613, size: 0x8, addend: 0x0, symName: __ZL32llama_sampler_top_p_backend_initP13llama_samplerP24ggml_backend_buffer_type, symObjAddr: 0x71F4, symBinAddr: 0xC9D54, symSize: 0x60 }
  - { offset: 0x6636A4, size: 0x8, addend: 0x0, symName: __ZL33llama_sampler_top_p_backend_applyP13llama_samplerP12ggml_contextP11ggml_cgraphP18llama_sampler_data, symObjAddr: 0x7254, symBinAddr: 0xC9DB4, symSize: 0x2A0 }
  - { offset: 0x6636B7, size: 0x8, addend: 0x0, symName: __ZL33llama_sampler_top_p_backend_applyP13llama_samplerP12ggml_contextP11ggml_cgraphP18llama_sampler_data, symObjAddr: 0x7254, symBinAddr: 0xC9DB4, symSize: 0x2A0 }
  - { offset: 0x663B5B, size: 0x8, addend: 0x0, symName: __ZL24llama_sampler_min_p_namePK13llama_sampler, symObjAddr: 0x74F4, symBinAddr: 0xCA054, symSize: 0xC0 }
  - { offset: 0x663C72, size: 0x8, addend: 0x0, symName: __ZL24llama_sampler_min_p_namePK13llama_sampler, symObjAddr: 0x74F4, symBinAddr: 0xCA054, symSize: 0xC0 }
  - { offset: 0x6641D1, size: 0x8, addend: 0x0, symName: __ZL25llama_sampler_min_p_applyP13llama_samplerP22llama_token_data_array, symObjAddr: 0x75B4, symBinAddr: 0xCA114, symSize: 0x2DC }
  - { offset: 0x664946, size: 0x8, addend: 0x0, symName: __ZNSt3__16vectorI16llama_token_dataNS_9allocatorIS1_EEE20__throw_length_errorB8ne200100Ev, symObjAddr: 0x7B1C, symBinAddr: 0xCA67C, symSize: 0x14 }
  - { offset: 0x66495E, size: 0x8, addend: 0x0, symName: __ZL26llama_sampler_typical_namePK13llama_sampler, symObjAddr: 0x7B30, symBinAddr: 0xCA690, symSize: 0xC }
  - { offset: 0x66499C, size: 0x8, addend: 0x0, symName: __ZL25llama_sampler_min_p_clonePK13llama_sampler, symObjAddr: 0x7890, symBinAddr: 0xCA3F0, symSize: 0xA0 }
  - { offset: 0x664A8F, size: 0x8, addend: 0x0, symName: __ZL24llama_sampler_min_p_freeP13llama_sampler, symObjAddr: 0x7930, symBinAddr: 0xCA490, symSize: 0x68 }
  - { offset: 0x664CE0, size: 0x8, addend: 0x0, symName: __ZL32llama_sampler_min_p_backend_initP13llama_samplerP24ggml_backend_buffer_type, symObjAddr: 0x7998, symBinAddr: 0xCA4F8, symSize: 0x60 }
  - { offset: 0x664D71, size: 0x8, addend: 0x0, symName: __ZL33llama_sampler_min_p_backend_applyP13llama_samplerP12ggml_contextP11ggml_cgraphP18llama_sampler_data, symObjAddr: 0x79F8, symBinAddr: 0xCA558, symSize: 0x124 }
  - { offset: 0x664D84, size: 0x8, addend: 0x0, symName: __ZL33llama_sampler_min_p_backend_applyP13llama_samplerP12ggml_contextP11ggml_cgraphP18llama_sampler_data, symObjAddr: 0x79F8, symBinAddr: 0xCA558, symSize: 0x124 }
  - { offset: 0x664F87, size: 0x8, addend: 0x0, symName: __ZL26llama_sampler_typical_namePK13llama_sampler, symObjAddr: 0x7B30, symBinAddr: 0xCA690, symSize: 0xC }
  - { offset: 0x665492, size: 0x8, addend: 0x0, symName: __ZL27llama_sampler_typical_applyP13llama_samplerP22llama_token_data_array, symObjAddr: 0x7B3C, symBinAddr: 0xCA69C, symSize: 0x80C }
  - { offset: 0x66681C, size: 0x8, addend: 0x0, symName: '__ZNSt3__111__introsortINS_17_ClassicAlgPolicyERZL27llama_sampler_typical_applyP13llama_samplerP22llama_token_data_arrayE3$_0PmLb0EEEvT1_S9_T0_NS_15iterator_traitsIS9_E15difference_typeEb', symObjAddr: 0x8404, symBinAddr: 0xCAF3C, symSize: 0xAD8 }
  - { offset: 0x66685A, size: 0x8, addend: 0x0, symName: __ZL27llama_sampler_typical_clonePK13llama_sampler, symObjAddr: 0x8348, symBinAddr: 0xCAEA8, symSize: 0x84 }
  - { offset: 0x6668D8, size: 0x8, addend: 0x0, symName: __ZL26llama_sampler_typical_freeP13llama_sampler, symObjAddr: 0x83CC, symBinAddr: 0xCAF2C, symSize: 0x10 }
  - { offset: 0x6669D5, size: 0x8, addend: 0x0, symName: __ZL23llama_sampler_temp_namePK13llama_sampler, symObjAddr: 0x93D0, symBinAddr: 0xCBF08, symSize: 0xC0 }
  - { offset: 0x666C97, size: 0x8, addend: 0x0, symName: __ZL24llama_sampler_temp_applyP13llama_samplerP22llama_token_data_array, symObjAddr: 0x9490, symBinAddr: 0xCBFC8, symSize: 0x138 }
