---
triple:          'arm64-apple-darwin'
binary-path:     '/opt/UnitySrc/personal/ocs-test/llama_dart/src/native/llama_cpp/build-macos/framework/llama.framework/Versions/A/llama'
relocations:
  - { offset: 0x25B1E, size: 0x8, addend: 0x0, symName: __ZNSt3__127__tree_balance_after_insertB8ne200100IPNS_16__tree_node_baseIPvEEEEvT_S5_, symObjAddr: 0x307C, symBinAddr: 0x3BF4, symSize: 0x1AC }
  - { offset: 0x26C72, size: 0x8, addend: 0x0, symName: __ZNSt3__120__throw_length_errorB8ne200100EPKc, symObjAddr: 0x323C, symBinAddr: 0x3DB4, symSize: 0x50 }
  - { offset: 0x271E9, size: 0x8, addend: 0x0, symName: __ZNSt3__120__throw_out_of_rangeB8ne200100EPKc, symObjAddr: 0x4148, symBinAddr: 0x4CC0, symSize: 0x50 }
  - { offset: 0x28D16, size: 0x8, addend: 0x0, symName: __ZSt28__throw_bad_array_new_lengthB8ne200100v, symObjAddr: 0x3054, symBinAddr: 0x3BCC, symSize: 0x28 }
  - { offset: 0x30203, size: 0x8, addend: 0x0, symName: __ZNK18llama_adapter_cvec10tensor_forEi, symObjAddr: 0x0, symBinAddr: 0xB78, symSize: 0x40 }
  - { offset: 0x3026D, size: 0x8, addend: 0x0, symName: __ZNK18llama_adapter_cvec8apply_toEP12ggml_contextP11ggml_tensori, symObjAddr: 0x40, symBinAddr: 0xBB8, symSize: 0x50 }
  - { offset: 0x302D4, size: 0x8, addend: 0x0, symName: __ZNK18llama_adapter_cvec8apply_toEP12ggml_contextP11ggml_tensori, symObjAddr: 0x40, symBinAddr: 0xBB8, symSize: 0x50 }
  - { offset: 0x3092F, size: 0x8, addend: 0x0, symName: __ZN18llama_adapter_cvec4initERK11llama_model, symObjAddr: 0x90, symBinAddr: 0xC08, symSize: 0x72C }
  - { offset: 0x33662, size: 0x8, addend: 0x0, symName: __ZNSt3__16__treeINS_12__value_typeIP24ggml_backend_buffer_typeP12ggml_contextEENS_19__map_value_compareIS3_S6_NS_4lessIS3_EELb1EEENS_9allocatorIS6_EEE7destroyEPNS_11__tree_nodeIS6_PvEE, symObjAddr: 0x5280, symBinAddr: 0x5DF8, symSize: 0x44 }
  - { offset: 0x33779, size: 0x8, addend: 0x0, symName: __ZNSt3__16vectorINS_10unique_ptrI19ggml_backend_buffer27ggml_backend_buffer_deleterEENS_9allocatorIS4_EEE20__throw_length_errorB8ne200100Ev, symObjAddr: 0x4BB4, symBinAddr: 0x572C, symSize: 0x14 }
  - { offset: 0x33791, size: 0x8, addend: 0x0, symName: __ZNSt3__16vectorIhNS_9allocatorIhEEE20__throw_length_errorB8ne200100Ev, symObjAddr: 0x4BC8, symBinAddr: 0x5740, symSize: 0x14 }
  - { offset: 0x3379C, size: 0x8, addend: 0x0, symName: __ZNSt3__16vectorIP11ggml_tensorNS_9allocatorIS2_EEE20__throw_length_errorB8ne200100Ev, symObjAddr: 0x52C4, symBinAddr: 0x5E3C, symSize: 0x14 }
  - { offset: 0x337B4, size: 0x8, addend: 0x0, symName: __ZNSt3__112__hash_tableINS_17__hash_value_typeINS_12basic_stringIcNS_11char_traitsIcEENS_9allocatorIcEEEE25llama_adapter_lora_weightEENS_22__unordered_map_hasherIS7_S9_NS_4hashIS7_EENS_8equal_toIS7_EELb1EEENS_21__unordered_map_equalIS7_S9_SE_SC_Lb1EEENS5_IS9_EEE4findIS7_EENS_15__hash_iteratorIPNS_11__hash_nodeIS9_PvEEEERKT_, symObjAddr: 0x52D8, symBinAddr: 0x5E50, symSize: 0x1B4 }
  - { offset: 0x337BF, size: 0x8, addend: 0x0, symName: __ZNSt3__16vectorINS_10unique_ptrI12ggml_context20ggml_context_deleterEENS_9allocatorIS4_EEE20__throw_length_errorB8ne200100Ev, symObjAddr: 0x3228, symBinAddr: 0x3DA0, symSize: 0x14 }
  - { offset: 0x337D7, size: 0x8, addend: 0x0, symName: __ZNSt3__120__throw_length_errorB8ne200100EPKc, symObjAddr: 0x323C, symBinAddr: 0x3DB4, symSize: 0x50 }
  - { offset: 0x3381E, size: 0x8, addend: 0x0, symName: __ZN18llama_adapter_cvec5applyERK11llama_modelPKfmiii, symObjAddr: 0x7BC, symBinAddr: 0x1334, symSize: 0x12C }
  - { offset: 0x33C63, size: 0x8, addend: 0x0, symName: __ZN18llama_adapter_lora10get_weightEP11ggml_tensor, symObjAddr: 0x8E8, symBinAddr: 0x1460, symSize: 0xF8 }
  - { offset: 0x34155, size: 0x8, addend: 0x0, symName: __ZNSt3__112__hash_tableINS_17__hash_value_typeINS_12basic_stringIcNS_11char_traitsIcEENS_9allocatorIcEEEE25llama_adapter_lora_weightEENS_22__unordered_map_hasherIS7_S9_NS_4hashIS7_EENS_8equal_toIS7_EELb1EEENS_21__unordered_map_equalIS7_S9_SE_SC_Lb1EEENS5_IS9_EEE4findIS7_EENS_15__hash_iteratorIPNS_11__hash_nodeIS9_PvEEEERKT_, symObjAddr: 0x52D8, symBinAddr: 0x5E50, symSize: 0x1B4 }
  - { offset: 0x3445E, size: 0x8, addend: 0x0, symName: __ZNSt3__112basic_stringIcNS_11char_traitsIcEENS_9allocatorIcEEE20__throw_length_errorB8ne200100Ev, symObjAddr: 0x41BC, symBinAddr: 0x4D34, symSize: 0x14 }
  - { offset: 0x34476, size: 0x8, addend: 0x0, symName: __ZNSt3__112basic_stringIcNS_11char_traitsIcEENS_9allocatorIcEEE25__init_copy_ctor_externalEPKcm, symObjAddr: 0x41D0, symBinAddr: 0x4D48, symSize: 0x88 }
  - { offset: 0x34481, size: 0x8, addend: 0x0, symName: __ZNSt3__112basic_stringIcNS_11char_traitsIcEENS_9allocatorIcEEEC1B8ne200100ILi0EEEPKc, symObjAddr: 0x9E0, symBinAddr: 0x1558, symSize: 0xA4 }
  - { offset: 0x346E9, size: 0x8, addend: 0x0, symName: _llama_adapter_lora_init, symObjAddr: 0xA84, symBinAddr: 0x15FC, symSize: 0x100 }
  - { offset: 0x348CE, size: 0x8, addend: 0x0, symName: _llama_adapter_lora_init, symObjAddr: 0xA84, symBinAddr: 0x15FC, symSize: 0x100 }
  - { offset: 0x34B4E, size: 0x8, addend: 0x0, symName: __ZL28llama_adapter_lora_init_implR11llama_modelPKcR18llama_adapter_lora, symObjAddr: 0xB84, symBinAddr: 0x16FC, symSize: 0x2220 }
  - { offset: 0x3D420, size: 0x8, addend: 0x0, symName: __ZN18llama_adapter_loraD2Ev, symObjAddr: 0x5114, symBinAddr: 0x5C8C, symSize: 0x16C }
  - { offset: 0x3F666, size: 0x8, addend: 0x0, symName: __ZNSt3__112__hash_tableINS_17__hash_value_typeINS_12basic_stringIcNS_11char_traitsIcEENS_9allocatorIcEEEES7_EENS_22__unordered_map_hasherIS7_S8_NS_4hashIS7_EENS_8equal_toIS7_EELb1EEENS_21__unordered_map_equalIS7_S8_SD_SB_Lb1EEENS5_IS8_EEE21__emplace_unique_implIJRPKcRKS7_EEENS_4pairINS_15__hash_iteratorIPNS_11__hash_nodeIS8_PvEEEEbEEDpOT_, symObjAddr: 0x34CC, symBinAddr: 0x4044, symSize: 0x140 }
  - { offset: 0x3FE69, size: 0x8, addend: 0x0, symName: __ZNSt3__112basic_stringIcNS_11char_traitsIcEENS_9allocatorIcEEE25__init_copy_ctor_externalEPKcm, symObjAddr: 0x41D0, symBinAddr: 0x4D48, symSize: 0x88 }
  - { offset: 0x40029, size: 0x8, addend: 0x0, symName: __ZNSt3__16vectorIiNS_9allocatorIiEEE8__appendEm, symObjAddr: 0x4258, symBinAddr: 0x4DD0, symSize: 0x120 }
  - { offset: 0x400C7, size: 0x8, addend: 0x0, symName: __ZNSt3__16vectorIiNS_9allocatorIiEEE8__appendEm, symObjAddr: 0x4258, symBinAddr: 0x4DD0, symSize: 0x120 }
  - { offset: 0x404A5, size: 0x8, addend: 0x0, symName: __ZNSt3__16vectorIiNS_9allocatorIiEEE20__throw_length_errorB8ne200100Ev, symObjAddr: 0x4378, symBinAddr: 0x4EF0, symSize: 0x14 }
  - { offset: 0x40514, size: 0x8, addend: 0x0, symName: __ZNSt3__16__treeINS_12__value_typeINS_12basic_stringIcNS_11char_traitsIcEENS_9allocatorIcEEEE25llama_adapter_lora_weightEENS_19__map_value_compareIS7_S9_NS_4lessIS7_EELb1EEENS5_IS9_EEE25__emplace_unique_key_argsIS7_JRKNS_21piecewise_construct_tENS_5tupleIJRKS7_EEENSK_IJEEEEEENS_4pairINS_15__tree_iteratorIS9_PNS_11__tree_nodeIS9_PvEElEEbEERKT_DpOT0_, symObjAddr: 0x438C, symBinAddr: 0x4F04, symSize: 0x1B0 }
  - { offset: 0x40C2C, size: 0x8, addend: 0x0, symName: __ZNSt3__112__hash_tableINS_17__hash_value_typeINS_12basic_stringIcNS_11char_traitsIcEENS_9allocatorIcEEEE25llama_adapter_lora_weightEENS_22__unordered_map_hasherIS7_S9_NS_4hashIS7_EENS_8equal_toIS7_EELb1EEENS_21__unordered_map_equalIS7_S9_SE_SC_Lb1EEENS5_IS9_EEE25__emplace_unique_key_argsIS7_JRKNS_21piecewise_construct_tENS_5tupleIJRKS7_EEENSO_IJEEEEEENS_4pairINS_15__hash_iteratorIPNS_11__hash_nodeIS9_PvEEEEbEERKT_DpOT0_, symObjAddr: 0x45B0, symBinAddr: 0x5128, symSize: 0x424 }
  - { offset: 0x4173F, size: 0x8, addend: 0x0, symName: '__ZZL28llama_adapter_lora_init_implR11llama_modelPKcR18llama_adapter_loraENK3$_4clEP11ggml_tensorS7_', symObjAddr: 0x3318, symBinAddr: 0x3E90, symSize: 0x180 }
  - { offset: 0x41D2E, size: 0x8, addend: 0x0, symName: __ZNSt3__110unique_ptrI12gguf_context20gguf_context_deleterED1B8ne200100Ev, symObjAddr: 0x3498, symBinAddr: 0x4010, symSize: 0x34 }
  - { offset: 0x41D3F, size: 0x8, addend: 0x0, symName: __ZNSt3__112__hash_tableIP18llama_adapter_loraNS_4hashIS2_EENS_8equal_toIS2_EENS_9allocatorIS2_EEE25__emplace_unique_key_argsIS2_JS2_EEENS_4pairINS_15__hash_iteratorIPNS_11__hash_nodeIS2_PvEEEEbEERKT_DpOT0_, symObjAddr: 0x4BDC, symBinAddr: 0x5754, symSize: 0x358 }
  - { offset: 0x42494, size: 0x8, addend: 0x0, symName: __ZNSt3__16__treeINS_12__value_typeINS_12basic_stringIcNS_11char_traitsIcEENS_9allocatorIcEEEE25llama_adapter_lora_weightEENS_19__map_value_compareIS7_S9_NS_4lessIS7_EELb1EEENS5_IS9_EEE7destroyEPNS_11__tree_nodeIS9_PvEE, symObjAddr: 0x50B4, symBinAddr: 0x5C2C, symSize: 0x60 }
  - { offset: 0x426F1, size: 0x8, addend: 0x0, symName: __ZNSt3__112basic_stringIcNS_11char_traitsIcEENS_9allocatorIcEEE20__throw_out_of_rangeB8ne200100Ev, symObjAddr: 0x4134, symBinAddr: 0x4CAC, symSize: 0x14 }
  - { offset: 0x42709, size: 0x8, addend: 0x0, symName: __ZNSt3__120__throw_out_of_rangeB8ne200100EPKc, symObjAddr: 0x4148, symBinAddr: 0x4CC0, symSize: 0x50 }
  - { offset: 0x42714, size: 0x8, addend: 0x0, symName: __ZNSt3__16vectorIP24ggml_backend_buffer_typeNS_9allocatorIS2_EEE20__throw_length_errorB8ne200100Ev, symObjAddr: 0x459C, symBinAddr: 0x5114, symSize: 0x14 }
  - { offset: 0x4272C, size: 0x8, addend: 0x0, symName: __ZNSt3__112__hash_tableINS_17__hash_value_typeINS_12basic_stringIcNS_11char_traitsIcEENS_9allocatorIcEEEE25llama_adapter_lora_weightEENS_22__unordered_map_hasherIS7_S9_NS_4hashIS7_EENS_8equal_toIS7_EELb1EEENS_21__unordered_map_equalIS7_S9_SE_SC_Lb1EEENS5_IS9_EEE25__emplace_unique_key_argsIS7_JRKNS_21piecewise_construct_tENS_5tupleIJRKS7_EEENSO_IJEEEEEENS_4pairINS_15__hash_iteratorIPNS_11__hash_nodeIS9_PvEEEEbEERKT_DpOT0_, symObjAddr: 0x45B0, symBinAddr: 0x5128, symSize: 0x424 }
  - { offset: 0x42737, size: 0x8, addend: 0x0, symName: __ZNSt3__110unique_ptrI12gguf_context20gguf_context_deleterED1B8ne200100Ev, symObjAddr: 0x3498, symBinAddr: 0x4010, symSize: 0x34 }
  - { offset: 0x427CB, size: 0x8, addend: 0x0, symName: __ZNSt3__110unique_ptrI19ggml_backend_buffer27ggml_backend_buffer_deleterED1B8ne200100Ev, symObjAddr: 0x32E4, symBinAddr: 0x3E5C, symSize: 0x34 }
  - { offset: 0x4285F, size: 0x8, addend: 0x0, symName: __ZNSt3__110unique_ptrI12ggml_context20ggml_context_deleterED1B8ne200100Ev, symObjAddr: 0x32B0, symBinAddr: 0x3E28, symSize: 0x34 }
  - { offset: 0x4291B, size: 0x8, addend: 0x0, symName: _llama_adapter_meta_val_str, symObjAddr: 0x2DB4, symBinAddr: 0x392C, symSize: 0x13C }
  - { offset: 0x42EE7, size: 0x8, addend: 0x0, symName: __ZNKSt3__112__hash_tableINS_17__hash_value_typeINS_12basic_stringIcNS_11char_traitsIcEENS_9allocatorIcEEEES7_EENS_22__unordered_map_hasherIS7_S8_NS_4hashIS7_EENS_8equal_toIS7_EELb1EEENS_21__unordered_map_equalIS7_S8_SD_SB_Lb1EEENS5_IS8_EEE4findIS7_EENS_21__hash_const_iteratorIPNS_11__hash_nodeIS8_PvEEEERKT_, symObjAddr: 0x548C, symBinAddr: 0x6004, symSize: 0x1B4 }
  - { offset: 0x43240, size: 0x8, addend: 0x0, symName: _llama_adapter_meta_count, symObjAddr: 0x2EF0, symBinAddr: 0x3A68, symSize: 0x8 }
  - { offset: 0x4326E, size: 0x8, addend: 0x0, symName: _llama_adapter_meta_count, symObjAddr: 0x2EF0, symBinAddr: 0x3A68, symSize: 0x8 }
  - { offset: 0x4328D, size: 0x8, addend: 0x0, symName: _llama_adapter_meta_count, symObjAddr: 0x2EF0, symBinAddr: 0x3A68, symSize: 0x8 }
  - { offset: 0x43360, size: 0x8, addend: 0x0, symName: _llama_adapter_meta_key_by_index, symObjAddr: 0x2EF8, symBinAddr: 0x3A70, symSize: 0x84 }
  - { offset: 0x4359A, size: 0x8, addend: 0x0, symName: _llama_adapter_meta_val_str_by_index, symObjAddr: 0x2F7C, symBinAddr: 0x3AF4, symSize: 0x84 }
  - { offset: 0x4378B, size: 0x8, addend: 0x0, symName: _llama_adapter_lora_free, symObjAddr: 0x3000, symBinAddr: 0x3B78, symSize: 0x4 }
  - { offset: 0x437AE, size: 0x8, addend: 0x0, symName: _llama_adapter_get_alora_n_invocation_tokens, symObjAddr: 0x3004, symBinAddr: 0x3B7C, symSize: 0x14 }
  - { offset: 0x43810, size: 0x8, addend: 0x0, symName: _llama_adapter_get_alora_invocation_tokens, symObjAddr: 0x3018, symBinAddr: 0x3B90, symSize: 0x3C }
  - { offset: 0x4385E, size: 0x8, addend: 0x0, symName: __ZSt28__throw_bad_array_new_lengthB8ne200100v, symObjAddr: 0x3054, symBinAddr: 0x3BCC, symSize: 0x28 }
  - { offset: 0x438AF, size: 0x8, addend: 0x0, symName: __ZNSt12length_errorC1B8ne200100EPKc, symObjAddr: 0x328C, symBinAddr: 0x3E04, symSize: 0x24 }
  - { offset: 0x43E47, size: 0x8, addend: 0x0, symName: __ZNSt3__16vectorIhNS_9allocatorIhEEE20__throw_length_errorB8ne200100Ev, symObjAddr: 0x4BC8, symBinAddr: 0x5740, symSize: 0x14 }
  - { offset: 0x43E5F, size: 0x8, addend: 0x0, symName: __ZNSt3__112__hash_tableIP18llama_adapter_loraNS_4hashIS2_EENS_8equal_toIS2_EENS_9allocatorIS2_EEE25__emplace_unique_key_argsIS2_JS2_EEENS_4pairINS_15__hash_iteratorIPNS_11__hash_nodeIS2_PvEEEEbEERKT_DpOT0_, symObjAddr: 0x4BDC, symBinAddr: 0x5754, symSize: 0x358 }
  - { offset: 0x442F1, size: 0x8, addend: 0x0, symName: __ZNSt3__14pairIKNS_12basic_stringIcNS_11char_traitsIcEENS_9allocatorIcEEEES6_EC2B8ne200100IRPKcRS7_Li0EEEOT_OT0_, symObjAddr: 0x37BC, symBinAddr: 0x4334, symSize: 0x108 }
  - { offset: 0x446FC, size: 0x8, addend: 0x0, symName: __ZNKSt3__121__murmur2_or_cityhashImLm64EEclB8ne200100EPKvm, symObjAddr: 0x38C4, symBinAddr: 0x443C, symSize: 0x44C }
  - { offset: 0x450A0, size: 0x8, addend: 0x0, symName: __ZNSt3__112__hash_tableINS_17__hash_value_typeINS_12basic_stringIcNS_11char_traitsIcEENS_9allocatorIcEEEES7_EENS_22__unordered_map_hasherIS7_S8_NS_4hashIS7_EENS_8equal_toIS7_EELb1EEENS_21__unordered_map_equalIS7_S8_SD_SB_Lb1EEENS5_IS8_EEE20__node_insert_uniqueEPNS_11__hash_nodeIS8_PvEE, symObjAddr: 0x360C, symBinAddr: 0x4184, symSize: 0x144 }
  - { offset: 0x45313, size: 0x8, addend: 0x0, symName: __ZNSt3__110unique_ptrINS_11__hash_nodeINS_17__hash_value_typeINS_12basic_stringIcNS_11char_traitsIcEENS_9allocatorIcEEEES8_EEPvEENS_22__hash_node_destructorINS6_ISB_EEEEED1B8ne200100Ev, symObjAddr: 0x3750, symBinAddr: 0x42C8, symSize: 0x6C }
  - { offset: 0x45732, size: 0x8, addend: 0x0, symName: __ZNSt3__112__hash_tableINS_17__hash_value_typeINS_12basic_stringIcNS_11char_traitsIcEENS_9allocatorIcEEEES7_EENS_22__unordered_map_hasherIS7_S8_NS_4hashIS7_EENS_8equal_toIS7_EELb1EEENS_21__unordered_map_equalIS7_S8_SD_SB_Lb1EEENS5_IS8_EEE28__node_insert_unique_prepareB8ne200100EmRS8_, symObjAddr: 0x3D10, symBinAddr: 0x4888, symSize: 0x2A4 }
  - { offset: 0x45DA0, size: 0x8, addend: 0x0, symName: __ZNSt3__112__hash_tableINS_17__hash_value_typeINS_12basic_stringIcNS_11char_traitsIcEENS_9allocatorIcEEEES7_EENS_22__unordered_map_hasherIS7_S8_NS_4hashIS7_EENS_8equal_toIS7_EELb1EEENS_21__unordered_map_equalIS7_S8_SD_SB_Lb1EEENS5_IS8_EEE11__do_rehashILb1EEEvm, symObjAddr: 0x3FB4, symBinAddr: 0x4B2C, symSize: 0x180 }
  - { offset: 0x4612D, size: 0x8, addend: 0x0, symName: __ZNSt3__112basic_stringIcNS_11char_traitsIcEENS_9allocatorIcEEE20__throw_out_of_rangeB8ne200100Ev, symObjAddr: 0x4134, symBinAddr: 0x4CAC, symSize: 0x14 }
  - { offset: 0x46252, size: 0x8, addend: 0x0, symName: __ZNSt12out_of_rangeC1B8ne200100EPKc, symObjAddr: 0x4198, symBinAddr: 0x4D10, symSize: 0x24 }
  - { offset: 0x465ED, size: 0x8, addend: 0x0, symName: __ZNSt3__16vectorIiNS_9allocatorIiEEE20__throw_length_errorB8ne200100Ev, symObjAddr: 0x4378, symBinAddr: 0x4EF0, symSize: 0x14 }
  - { offset: 0x46605, size: 0x8, addend: 0x0, symName: __ZNSt3__16__treeINS_12__value_typeINS_12basic_stringIcNS_11char_traitsIcEENS_9allocatorIcEEEE25llama_adapter_lora_weightEENS_19__map_value_compareIS7_S9_NS_4lessIS7_EELb1EEENS5_IS9_EEE25__emplace_unique_key_argsIS7_JRKNS_21piecewise_construct_tENS_5tupleIJRKS7_EEENSK_IJEEEEEENS_4pairINS_15__tree_iteratorIS9_PNS_11__tree_nodeIS9_PvEElEEbEERKT_DpOT0_, symObjAddr: 0x438C, symBinAddr: 0x4F04, symSize: 0x1B0 }
  - { offset: 0x46A30, size: 0x8, addend: 0x0, symName: __ZNSt3__110unique_ptrINS_11__tree_nodeINS_12__value_typeINS_12basic_stringIcNS_11char_traitsIcEENS_9allocatorIcEEEE25llama_adapter_lora_weightEEPvEENS_22__tree_node_destructorINS6_ISC_EEEEED1B8ne200100Ev, symObjAddr: 0x453C, symBinAddr: 0x50B4, symSize: 0x60 }
  - { offset: 0x4725C, size: 0x8, addend: 0x0, symName: __ZNSt3__112__hash_tableINS_17__hash_value_typeINS_12basic_stringIcNS_11char_traitsIcEENS_9allocatorIcEEEE25llama_adapter_lora_weightEENS_22__unordered_map_hasherIS7_S9_NS_4hashIS7_EENS_8equal_toIS7_EELb1EEENS_21__unordered_map_equalIS7_S9_SE_SC_Lb1EEENS5_IS9_EEE11__do_rehashILb1EEEvm, symObjAddr: 0x4A34, symBinAddr: 0x55AC, symSize: 0x180 }
  - { offset: 0x475E9, size: 0x8, addend: 0x0, symName: __ZNSt3__16vectorINS_10unique_ptrI19ggml_backend_buffer27ggml_backend_buffer_deleterEENS_9allocatorIS4_EEE20__throw_length_errorB8ne200100Ev, symObjAddr: 0x4BB4, symBinAddr: 0x572C, symSize: 0x14 }
  - { offset: 0x475FE, size: 0x8, addend: 0x0, symName: __ZNSt3__110unique_ptrINS_11__hash_nodeINS_17__hash_value_typeINS_12basic_stringIcNS_11char_traitsIcEENS_9allocatorIcEEEE25llama_adapter_lora_weightEEPvEENS_22__hash_node_destructorINS6_ISC_EEEEED1B8ne200100Ev, symObjAddr: 0x49D4, symBinAddr: 0x554C, symSize: 0x60 }
  - { offset: 0x47F3B, size: 0x8, addend: 0x0, symName: __ZNSt3__112__hash_tableIP18llama_adapter_loraNS_4hashIS2_EENS_8equal_toIS2_EENS_9allocatorIS2_EEE11__do_rehashILb1EEEvm, symObjAddr: 0x4F34, symBinAddr: 0x5AAC, symSize: 0x180 }
  - { offset: 0x482C8, size: 0x8, addend: 0x0, symName: __ZNSt3__16__treeINS_12__value_typeINS_12basic_stringIcNS_11char_traitsIcEENS_9allocatorIcEEEE25llama_adapter_lora_weightEENS_19__map_value_compareIS7_S9_NS_4lessIS7_EELb1EEENS5_IS9_EEE7destroyEPNS_11__tree_nodeIS9_PvEE, symObjAddr: 0x50B4, symBinAddr: 0x5C2C, symSize: 0x60 }
  - { offset: 0x4ACFE, size: 0x8, addend: 0x0, symName: __MergedGlobals, symObjAddr: 0x719F8, symBinAddr: 0x35C040, symSize: 0x0 }
  - { offset: 0x5A8ED, size: 0x8, addend: 0x0, symName: __MergedGlobals, symObjAddr: 0x719F8, symBinAddr: 0x35C040, symSize: 0x0 }
  - { offset: 0x5AD15, size: 0x8, addend: 0x0, symName: __MergedGlobals, symObjAddr: 0x719F8, symBinAddr: 0x35C040, symSize: 0x0 }
  - { offset: 0x5B5E2, size: 0x8, addend: 0x0, symName: __MergedGlobals, symObjAddr: 0x719F8, symBinAddr: 0x35C040, symSize: 0x0 }
  - { offset: 0x5BD7D, size: 0x8, addend: 0x0, symName: __ZNSt3__13mapI8llm_archPKcNS_4lessIS1_EENS_9allocatorINS_4pairIKS1_S3_EEEEED1B8ne200100Ev, symObjAddr: 0x0, symBinAddr: 0x61B8, symSize: 0x28 }
  - { offset: 0x5BE31, size: 0x8, addend: 0x0, symName: __ZNSt3__16__treeINS_12__value_typeI8llm_archPKcEENS_19__map_value_compareIS2_S5_NS_4lessIS2_EELb1EEENS_9allocatorIS5_EEE7destroyEPNS_11__tree_nodeIS5_PvEE, symObjAddr: 0x1748, symBinAddr: 0x7744, symSize: 0x44 }
  - { offset: 0x5BFBC, size: 0x8, addend: 0x0, symName: __ZNSt3__13mapI6llm_kvPKcNS_4lessIS1_EENS_9allocatorINS_4pairIKS1_S3_EEEEED1B8ne200100Ev, symObjAddr: 0x28, symBinAddr: 0x61E0, symSize: 0x28 }
  - { offset: 0x5C070, size: 0x8, addend: 0x0, symName: __ZNSt3__16__treeINS_12__value_typeI6llm_kvPKcEENS_19__map_value_compareIS2_S5_NS_4lessIS2_EELb1EEENS_9allocatorIS5_EEE7destroyEPNS_11__tree_nodeIS5_PvEE, symObjAddr: 0x1A28, symBinAddr: 0x7A24, symSize: 0x44 }
  - { offset: 0x5C1FB, size: 0x8, addend: 0x0, symName: __ZNSt3__13mapI10llm_tensorPKcNS_4lessIS1_EENS_9allocatorINS_4pairIKS1_S3_EEEEED1B8ne200100Ev, symObjAddr: 0x50, symBinAddr: 0x6208, symSize: 0x28 }
  - { offset: 0x5C2AF, size: 0x8, addend: 0x0, symName: __ZNSt3__16__treeINS_12__value_typeI10llm_tensorPKcEENS_19__map_value_compareIS2_S5_NS_4lessIS2_EELb1EEENS_9allocatorIS5_EEE7destroyEPNS_11__tree_nodeIS5_PvEE, symObjAddr: 0x1D08, symBinAddr: 0x7D04, symSize: 0x44 }
  - { offset: 0x5C43A, size: 0x8, addend: 0x0, symName: __ZNSt3__13mapI10llm_tensor15llm_tensor_infoNS_4lessIS1_EENS_9allocatorINS_4pairIKS1_S2_EEEEED1B8ne200100Ev, symObjAddr: 0x78, symBinAddr: 0x6230, symSize: 0x28 }
  - { offset: 0x5C4EE, size: 0x8, addend: 0x0, symName: __ZNSt3__16__treeINS_12__value_typeI10llm_tensor15llm_tensor_infoEENS_19__map_value_compareIS2_S4_NS_4lessIS2_EELb1EEENS_9allocatorIS4_EEE7destroyEPNS_11__tree_nodeIS4_PvEE, symObjAddr: 0x1FF4, symBinAddr: 0x7FF0, symSize: 0x44 }
  - { offset: 0x5C60A, size: 0x8, addend: 0x0, symName: __ZN6LLM_KVC2E8llm_archPKc, symObjAddr: 0xA0, symBinAddr: 0x6258, symSize: 0xC }
  - { offset: 0x5C673, size: 0x8, addend: 0x0, symName: __ZN6LLM_KVC1E8llm_archPKc, symObjAddr: 0xAC, symBinAddr: 0x6264, symSize: 0xC }
  - { offset: 0x5C6BD, size: 0x8, addend: 0x0, symName: __ZN6LLM_KVC1E8llm_archPKc, symObjAddr: 0xAC, symBinAddr: 0x6264, symSize: 0xC }
  - { offset: 0x5CA3D, size: 0x8, addend: 0x0, symName: __ZNK6LLM_KVclE6llm_kv, symObjAddr: 0xB8, symBinAddr: 0x6270, symSize: 0xF4 }
  - { offset: 0x5CF64, size: 0x8, addend: 0x0, symName: __ZN11LLM_TN_IMPLC2E8llm_arch10llm_tensorPKcii, symObjAddr: 0x1AC, symBinAddr: 0x6364, symSize: 0xA38 }
  - { offset: 0x5D126, size: 0x8, addend: 0x0, symName: __ZN11LLM_TN_IMPLC1E8llm_arch10llm_tensorPKcii, symObjAddr: 0xBE4, symBinAddr: 0x6D9C, symSize: 0x4 }
  - { offset: 0x5D139, size: 0x8, addend: 0x0, symName: __ZNSt3__13setI10llm_tensorNS_4lessIS1_EENS_9allocatorIS1_EEEC2B8ne200100ESt16initializer_listIS1_ERKS3_, symObjAddr: 0x1010, symBinAddr: 0x71C8, symSize: 0xEC }
  - { offset: 0x5D4B5, size: 0x8, addend: 0x0, symName: __ZN11LLM_TN_IMPLC1E8llm_arch10llm_tensorPKcii, symObjAddr: 0xBE4, symBinAddr: 0x6D9C, symSize: 0x4 }
  - { offset: 0x5D52A, size: 0x8, addend: 0x0, symName: __ZN11LLM_TN_IMPLC1E8llm_arch10llm_tensorPKcii, symObjAddr: 0xBE4, symBinAddr: 0x6D9C, symSize: 0x4 }
  - { offset: 0x5D9D3, size: 0x8, addend: 0x0, symName: __ZNK11LLM_TN_IMPL3strEv, symObjAddr: 0xBE8, symBinAddr: 0x6DA0, symSize: 0x1F8 }
  - { offset: 0x5E245, size: 0x8, addend: 0x0, symName: __Z13llm_arch_name8llm_arch, symObjAddr: 0xDE0, symBinAddr: 0x6F98, symSize: 0x58 }
  - { offset: 0x5E287, size: 0x8, addend: 0x0, symName: __Z13llm_arch_name8llm_arch, symObjAddr: 0xDE0, symBinAddr: 0x6F98, symSize: 0x58 }
  - { offset: 0x5E29C, size: 0x8, addend: 0x0, symName: __Z13llm_arch_name8llm_arch, symObjAddr: 0xDE0, symBinAddr: 0x6F98, symSize: 0x58 }
  - { offset: 0x5E2BA, size: 0x8, addend: 0x0, symName: __Z13llm_arch_name8llm_arch, symObjAddr: 0xDE0, symBinAddr: 0x6F98, symSize: 0x58 }
  - { offset: 0x5E480, size: 0x8, addend: 0x0, symName: __Z20llm_arch_from_stringRKNSt3__112basic_stringIcNS_11char_traitsIcEENS_9allocatorIcEEEE, symObjAddr: 0xE38, symBinAddr: 0x6FF0, symSize: 0x108 }
  - { offset: 0x5E81F, size: 0x8, addend: 0x0, symName: __Z19llm_tensor_info_for10llm_tensor, symObjAddr: 0xF40, symBinAddr: 0x70F8, symSize: 0x50 }
  - { offset: 0x5E904, size: 0x8, addend: 0x0, symName: __Z21llm_arch_is_recurrentRK8llm_arch, symObjAddr: 0xF90, symBinAddr: 0x7148, symSize: 0x20 }
  - { offset: 0x5E934, size: 0x8, addend: 0x0, symName: __Z18llm_arch_is_hybridRK8llm_arch, symObjAddr: 0xFB0, symBinAddr: 0x7168, symSize: 0x40 }
  - { offset: 0x5E964, size: 0x8, addend: 0x0, symName: __Z21llm_arch_is_diffusionRK8llm_arch, symObjAddr: 0xFF0, symBinAddr: 0x71A8, symSize: 0x20 }
  - { offset: 0x5EC25, size: 0x8, addend: 0x0, symName: __ZNSt3__16__treeI10llm_tensorNS_4lessIS1_EENS_9allocatorIS1_EEE12__find_equalIS1_EERPNS_16__tree_node_baseIPvEENS_21__tree_const_iteratorIS1_PNS_11__tree_nodeIS1_S9_EElEERPNS_15__tree_end_nodeISB_EESC_RKT_, symObjAddr: 0x10FC, symBinAddr: 0x72B4, symSize: 0x1B0 }
  - { offset: 0x5EC88, size: 0x8, addend: 0x0, symName: __ZNSt3__16__treeI10llm_tensorNS_4lessIS1_EENS_9allocatorIS1_EEE12__find_equalIS1_EERPNS_16__tree_node_baseIPvEENS_21__tree_const_iteratorIS1_PNS_11__tree_nodeIS1_S9_EElEERPNS_15__tree_end_nodeISB_EESC_RKT_, symObjAddr: 0x10FC, symBinAddr: 0x72B4, symSize: 0x1B0 }
  - { offset: 0x5ECA4, size: 0x8, addend: 0x0, symName: __ZNSt3__16__treeI10llm_tensorNS_4lessIS1_EENS_9allocatorIS1_EEE12__find_equalIS1_EERPNS_16__tree_node_baseIPvEENS_21__tree_const_iteratorIS1_PNS_11__tree_nodeIS1_S9_EElEERPNS_15__tree_end_nodeISB_EESC_RKT_, symObjAddr: 0x10FC, symBinAddr: 0x72B4, symSize: 0x1B0 }
  - { offset: 0x5EF2F, size: 0x8, addend: 0x0, symName: __ZNSt3__16__treeI10llm_tensorNS_4lessIS1_EENS_9allocatorIS1_EEE7destroyEPNS_11__tree_nodeIS1_PvEE, symObjAddr: 0x1468, symBinAddr: 0x7464, symSize: 0x44 }
  - { offset: 0x5F47C, size: 0x8, addend: 0x0, symName: __ZNSt3__13mapI8llm_archPKcNS_4lessIS1_EENS_9allocatorINS_4pairIKS1_S3_EEEEEC2B8ne200100ESt16initializer_listIS9_ERKS5_, symObjAddr: 0x14AC, symBinAddr: 0x74A8, symSize: 0xEC }
  - { offset: 0x5F807, size: 0x8, addend: 0x0, symName: __ZNSt3__16__treeINS_12__value_typeI8llm_archPKcEENS_19__map_value_compareIS2_S5_NS_4lessIS2_EELb1EEENS_9allocatorIS5_EEE12__find_equalIS2_EERPNS_16__tree_node_baseIPvEENS_21__tree_const_iteratorIS5_PNS_11__tree_nodeIS5_SF_EElEERPNS_15__tree_end_nodeISH_EESI_RKT_, symObjAddr: 0x1598, symBinAddr: 0x7594, symSize: 0x1B0 }
  - { offset: 0x5F86A, size: 0x8, addend: 0x0, symName: __ZNSt3__16__treeINS_12__value_typeI8llm_archPKcEENS_19__map_value_compareIS2_S5_NS_4lessIS2_EELb1EEENS_9allocatorIS5_EEE12__find_equalIS2_EERPNS_16__tree_node_baseIPvEENS_21__tree_const_iteratorIS5_PNS_11__tree_nodeIS5_SF_EElEERPNS_15__tree_end_nodeISH_EESI_RKT_, symObjAddr: 0x1598, symBinAddr: 0x7594, symSize: 0x1B0 }
  - { offset: 0x5F886, size: 0x8, addend: 0x0, symName: __ZNSt3__16__treeINS_12__value_typeI8llm_archPKcEENS_19__map_value_compareIS2_S5_NS_4lessIS2_EELb1EEENS_9allocatorIS5_EEE12__find_equalIS2_EERPNS_16__tree_node_baseIPvEENS_21__tree_const_iteratorIS5_PNS_11__tree_nodeIS5_SF_EElEERPNS_15__tree_end_nodeISH_EESI_RKT_, symObjAddr: 0x1598, symBinAddr: 0x7594, symSize: 0x1B0 }
  - { offset: 0x5FF50, size: 0x8, addend: 0x0, symName: __ZNSt3__13mapI6llm_kvPKcNS_4lessIS1_EENS_9allocatorINS_4pairIKS1_S3_EEEEEC2B8ne200100ESt16initializer_listIS9_ERKS5_, symObjAddr: 0x178C, symBinAddr: 0x7788, symSize: 0xEC }
  - { offset: 0x602DB, size: 0x8, addend: 0x0, symName: __ZNSt3__16__treeINS_12__value_typeI6llm_kvPKcEENS_19__map_value_compareIS2_S5_NS_4lessIS2_EELb1EEENS_9allocatorIS5_EEE12__find_equalIS2_EERPNS_16__tree_node_baseIPvEENS_21__tree_const_iteratorIS5_PNS_11__tree_nodeIS5_SF_EElEERPNS_15__tree_end_nodeISH_EESI_RKT_, symObjAddr: 0x1878, symBinAddr: 0x7874, symSize: 0x1B0 }
  - { offset: 0x6033E, size: 0x8, addend: 0x0, symName: __ZNSt3__16__treeINS_12__value_typeI6llm_kvPKcEENS_19__map_value_compareIS2_S5_NS_4lessIS2_EELb1EEENS_9allocatorIS5_EEE12__find_equalIS2_EERPNS_16__tree_node_baseIPvEENS_21__tree_const_iteratorIS5_PNS_11__tree_nodeIS5_SF_EElEERPNS_15__tree_end_nodeISH_EESI_RKT_, symObjAddr: 0x1878, symBinAddr: 0x7874, symSize: 0x1B0 }
  - { offset: 0x6035A, size: 0x8, addend: 0x0, symName: __ZNSt3__16__treeINS_12__value_typeI6llm_kvPKcEENS_19__map_value_compareIS2_S5_NS_4lessIS2_EELb1EEENS_9allocatorIS5_EEE12__find_equalIS2_EERPNS_16__tree_node_baseIPvEENS_21__tree_const_iteratorIS5_PNS_11__tree_nodeIS5_SF_EElEERPNS_15__tree_end_nodeISH_EESI_RKT_, symObjAddr: 0x1878, symBinAddr: 0x7874, symSize: 0x1B0 }
  - { offset: 0x60A6E, size: 0x8, addend: 0x0, symName: __ZNSt3__13mapI10llm_tensorPKcNS_4lessIS1_EENS_9allocatorINS_4pairIKS1_S3_EEEEEC2B8ne200100ESt16initializer_listIS9_ERKS5_, symObjAddr: 0x1A6C, symBinAddr: 0x7A68, symSize: 0xEC }
  - { offset: 0x60DF9, size: 0x8, addend: 0x0, symName: __ZNSt3__16__treeINS_12__value_typeI10llm_tensorPKcEENS_19__map_value_compareIS2_S5_NS_4lessIS2_EELb1EEENS_9allocatorIS5_EEE12__find_equalIS2_EERPNS_16__tree_node_baseIPvEENS_21__tree_const_iteratorIS5_PNS_11__tree_nodeIS5_SF_EElEERPNS_15__tree_end_nodeISH_EESI_RKT_, symObjAddr: 0x1B58, symBinAddr: 0x7B54, symSize: 0x1B0 }
  - { offset: 0x60E5C, size: 0x8, addend: 0x0, symName: __ZNSt3__16__treeINS_12__value_typeI10llm_tensorPKcEENS_19__map_value_compareIS2_S5_NS_4lessIS2_EELb1EEENS_9allocatorIS5_EEE12__find_equalIS2_EERPNS_16__tree_node_baseIPvEENS_21__tree_const_iteratorIS5_PNS_11__tree_nodeIS5_SF_EElEERPNS_15__tree_end_nodeISH_EESI_RKT_, symObjAddr: 0x1B58, symBinAddr: 0x7B54, symSize: 0x1B0 }
  - { offset: 0x60E78, size: 0x8, addend: 0x0, symName: __ZNSt3__16__treeINS_12__value_typeI10llm_tensorPKcEENS_19__map_value_compareIS2_S5_NS_4lessIS2_EELb1EEENS_9allocatorIS5_EEE12__find_equalIS2_EERPNS_16__tree_node_baseIPvEENS_21__tree_const_iteratorIS5_PNS_11__tree_nodeIS5_SF_EElEERPNS_15__tree_end_nodeISH_EESI_RKT_, symObjAddr: 0x1B58, symBinAddr: 0x7B54, symSize: 0x1B0 }
  - { offset: 0x6155E, size: 0x8, addend: 0x0, symName: __ZNSt3__13mapI10llm_tensor15llm_tensor_infoNS_4lessIS1_EENS_9allocatorINS_4pairIKS1_S2_EEEEEC2B8ne200100ESt16initializer_listIS8_ERKS4_, symObjAddr: 0x1D4C, symBinAddr: 0x7D48, symSize: 0xF8 }
  - { offset: 0x618E9, size: 0x8, addend: 0x0, symName: __ZNSt3__16__treeINS_12__value_typeI10llm_tensor15llm_tensor_infoEENS_19__map_value_compareIS2_S4_NS_4lessIS2_EELb1EEENS_9allocatorIS4_EEE12__find_equalIS2_EERPNS_16__tree_node_baseIPvEENS_21__tree_const_iteratorIS4_PNS_11__tree_nodeIS4_SE_EElEERPNS_15__tree_end_nodeISG_EESH_RKT_, symObjAddr: 0x1E44, symBinAddr: 0x7E40, symSize: 0x1B0 }
  - { offset: 0x6194C, size: 0x8, addend: 0x0, symName: __ZNSt3__16__treeINS_12__value_typeI10llm_tensor15llm_tensor_infoEENS_19__map_value_compareIS2_S4_NS_4lessIS2_EELb1EEENS_9allocatorIS4_EEE12__find_equalIS2_EERPNS_16__tree_node_baseIPvEENS_21__tree_const_iteratorIS4_PNS_11__tree_nodeIS4_SE_EElEERPNS_15__tree_end_nodeISG_EESH_RKT_, symObjAddr: 0x1E44, symBinAddr: 0x7E40, symSize: 0x1B0 }
  - { offset: 0x61968, size: 0x8, addend: 0x0, symName: __ZNSt3__16__treeINS_12__value_typeI10llm_tensor15llm_tensor_infoEENS_19__map_value_compareIS2_S4_NS_4lessIS2_EELb1EEENS_9allocatorIS4_EEE12__find_equalIS2_EERPNS_16__tree_node_baseIPvEENS_21__tree_const_iteratorIS4_PNS_11__tree_nodeIS4_SE_EElEERPNS_15__tree_end_nodeISG_EESH_RKT_, symObjAddr: 0x1E44, symBinAddr: 0x7E40, symSize: 0x1B0 }
  - { offset: 0x61F53, size: 0x8, addend: 0x0, symName: __GLOBAL__sub_I_llama_arch.cpp, symObjAddr: 0x4254, symBinAddr: 0x8034, symSize: 0x154 }
  - { offset: 0x73B2F, size: 0x8, addend: 0x0, symName: __ZNSt3__124__put_character_sequenceB8ne200100IcNS_11char_traitsIcEEEERNS_13basic_ostreamIT_T0_EES7_PKS4_m, symObjAddr: 0x5930, symBinAddr: 0xD864, symSize: 0x16C }
  - { offset: 0x7AE89, size: 0x8, addend: 0x0, symName: __ZNSt3__116__pad_and_outputB8ne200100IcNS_11char_traitsIcEEEENS_19ostreambuf_iteratorIT_T0_EES6_PKS4_S8_S8_RNS_8ios_baseES4_, symObjAddr: 0x5A9C, symBinAddr: 0xD9D0, symSize: 0x19C }
  - { offset: 0x7F4E9, size: 0x8, addend: 0x0, symName: __ZN18llama_batch_allocrC2Ej, symObjAddr: 0x0, symBinAddr: 0x8188, symSize: 0x2D0 }
  - { offset: 0x802C9, size: 0x8, addend: 0x0, symName: __ZNSt3__16vectorINS_3setIiNS_4lessIiEENS_9allocatorIiEEEENS4_IS6_EEE8__appendEm, symObjAddr: 0x48BC, symBinAddr: 0xCA34, symSize: 0x224 }
  - { offset: 0x8096D, size: 0x8, addend: 0x0, symName: __ZNSt3__16vectorINS_3setIiNS_4lessIiEENS_9allocatorIiEEEENS4_IS6_EEE20__throw_length_errorB8ne200100Ev, symObjAddr: 0x4AE0, symBinAddr: 0xCC58, symSize: 0x14 }
  - { offset: 0x80978, size: 0x8, addend: 0x0, symName: __ZNSt3__16vectorINS0_IbNS_9allocatorIbEEEENS1_IS3_EEE8__appendEm, symObjAddr: 0x4B90, symBinAddr: 0xCC6C, symSize: 0x1CC }
  - { offset: 0x80FDB, size: 0x8, addend: 0x0, symName: __ZNSt3__16vectorINS0_IbNS_9allocatorIbEEEENS1_IS3_EEE20__throw_length_errorB8ne200100Ev, symObjAddr: 0x4D5C, symBinAddr: 0xCE38, symSize: 0x14 }
  - { offset: 0x80FE6, size: 0x8, addend: 0x0, symName: __ZNSt3__16vectorIbNS_9allocatorIbEEE6resizeEmb, symObjAddr: 0x2D0, symBinAddr: 0x8458, symSize: 0x264 }
  - { offset: 0x817C1, size: 0x8, addend: 0x0, symName: __ZNSt3__16vectorIiNS_9allocatorIiEEE8__appendEmRKi, symObjAddr: 0x4E8C, symBinAddr: 0xCF68, symSize: 0x234 }
  - { offset: 0x81C16, size: 0x8, addend: 0x0, symName: __ZNSt3__113unordered_mapINS_6bitsetILm256EEENS_6vectorIiNS_9allocatorIiEEEENS_4hashIS2_EENS_8equal_toIS2_EENS4_INS_4pairIKS2_S6_EEEEED1B8ne200100Ev, symObjAddr: 0x534, symBinAddr: 0x86BC, symSize: 0x68 }
  - { offset: 0x8203A, size: 0x8, addend: 0x0, symName: __ZNSt3__16vectorINS0_IbNS_9allocatorIbEEEENS1_IS3_EEED1B8ne200100Ev, symObjAddr: 0x59C, symBinAddr: 0x8724, symSize: 0x68 }
  - { offset: 0x822A8, size: 0x8, addend: 0x0, symName: __ZNSt3__16vectorINS_3setIiNS_4lessIiEENS_9allocatorIiEEEENS4_IS6_EEED1B8ne200100Ev, symObjAddr: 0x604, symBinAddr: 0x878C, symSize: 0x68 }
  - { offset: 0x826D5, size: 0x8, addend: 0x0, symName: __ZNSt3__16vectorIbNS_9allocatorIbEEE7reserveEm, symObjAddr: 0x4D70, symBinAddr: 0xCE4C, symSize: 0x108 }
  - { offset: 0x82AD8, size: 0x8, addend: 0x0, symName: __ZNSt3__16vectorIbNS_9allocatorIbEEE20__throw_length_errorB8ne200100Ev, symObjAddr: 0x4E78, symBinAddr: 0xCF54, symSize: 0x14 }
  - { offset: 0x82AE3, size: 0x8, addend: 0x0, symName: __ZNSt3__16vectorIbNS_9allocatorIbEEE20__throw_length_errorB8ne200100Ev, symObjAddr: 0x4E78, symBinAddr: 0xCF54, symSize: 0x14 }
  - { offset: 0x82AFB, size: 0x8, addend: 0x0, symName: __ZNSt3__16vectorIiNS_9allocatorIiEEE8__appendEmRKi, symObjAddr: 0x4E8C, symBinAddr: 0xCF68, symSize: 0x234 }
  - { offset: 0x82FF6, size: 0x8, addend: 0x0, symName: __ZNSt3__16__treeIiNS_4lessIiEENS_9allocatorIiEEE7destroyEPNS_11__tree_nodeIiPvEE, symObjAddr: 0x4878, symBinAddr: 0xC9F0, symSize: 0x44 }
  - { offset: 0x8310D, size: 0x8, addend: 0x0, symName: __ZN18llama_batch_allocrC1Ej, symObjAddr: 0x66C, symBinAddr: 0x87F4, symSize: 0x4 }
  - { offset: 0x83149, size: 0x8, addend: 0x0, symName: __ZN18llama_batch_allocrC1Ej, symObjAddr: 0x66C, symBinAddr: 0x87F4, symSize: 0x4 }
  - { offset: 0x848A3, size: 0x8, addend: 0x0, symName: __ZN18llama_batch_allocr4initERK11llama_batchRK11llama_vocabPK14llama_memory_ijjb, symObjAddr: 0x670, symBinAddr: 0x87F8, symSize: 0x18B8 }
  - { offset: 0x884A2, size: 0x8, addend: 0x0, symName: __ZN18llama_batch_allocr5clearEv, symObjAddr: 0x1F28, symBinAddr: 0xA0B0, symSize: 0x194 }
  - { offset: 0x89061, size: 0x8, addend: 0x0, symName: __ZNSt3__16vectorIPiNS_9allocatorIS1_EEE8__appendEm, symObjAddr: 0x51F4, symBinAddr: 0xD19C, symSize: 0x120 }
  - { offset: 0x8906C, size: 0x8, addend: 0x0, symName: __ZNSt3__16vectorIPiNS_9allocatorIS1_EEE8__appendEm, symObjAddr: 0x51F4, symBinAddr: 0xD19C, symSize: 0x120 }
  - { offset: 0x8944A, size: 0x8, addend: 0x0, symName: __ZNSt3__16vectorIPiNS_9allocatorIS1_EEE20__throw_length_errorB8ne200100Ev, symObjAddr: 0x5314, symBinAddr: 0xD2BC, symSize: 0x14 }
  - { offset: 0x89467, size: 0x8, addend: 0x0, symName: __ZNSt3__112__hash_tableINS_17__hash_value_typeINS_6bitsetILm256EEENS_6vectorIiNS_9allocatorIiEEEEEENS_22__unordered_map_hasherIS3_S8_NS_4hashIS3_EENS_8equal_toIS3_EELb1EEENS_21__unordered_map_equalIS3_S8_SD_SB_Lb1EEENS5_IS8_EEE25__emplace_unique_key_argsIS3_JRKNS_21piecewise_construct_tENS_5tupleIJRKS3_EEENSN_IJEEEEEENS_4pairINS_15__hash_iteratorIPNS_11__hash_nodeIS8_PvEEEEbEERKT_DpOT0_, symObjAddr: 0x53C4, symBinAddr: 0xD2F8, symSize: 0x38C }
  - { offset: 0x89C81, size: 0x8, addend: 0x0, symName: __ZN18llama_batch_allocr12ubatch_printERK12llama_ubatchi, symObjAddr: 0x21A8, symBinAddr: 0xA330, symSize: 0x924 }
  - { offset: 0x8B04C, size: 0x8, addend: 0x0, symName: __ZNSt3__118basic_stringstreamIcNS_11char_traitsIcEENS_9allocatorIcEEEC1B8ne200100Ev, symObjAddr: 0x2ACC, symBinAddr: 0xAC54, symSize: 0x194 }
  - { offset: 0x8B3B7, size: 0x8, addend: 0x0, symName: __ZNSt3__16vectorINS_6bitsetILm256EEENS_9allocatorIS2_EEE20__throw_length_errorB8ne200100Ev, symObjAddr: 0x53B0, symBinAddr: 0xD2E4, symSize: 0x14 }
  - { offset: 0x8B3CF, size: 0x8, addend: 0x0, symName: __ZNSt3__112__hash_tableINS_17__hash_value_typeINS_6bitsetILm256EEENS_6vectorIiNS_9allocatorIiEEEEEENS_22__unordered_map_hasherIS3_S8_NS_4hashIS3_EENS_8equal_toIS3_EELb1EEENS_21__unordered_map_equalIS3_S8_SD_SB_Lb1EEENS5_IS8_EEE25__emplace_unique_key_argsIS3_JRKNS_21piecewise_construct_tENS_5tupleIJRKS3_EEENSN_IJEEEEEENS_4pairINS_15__hash_iteratorIPNS_11__hash_nodeIS8_PvEEEEbEERKT_DpOT0_, symObjAddr: 0x53C4, symBinAddr: 0xD2F8, symSize: 0x38C }
  - { offset: 0x8B3F4, size: 0x8, addend: 0x0, symName: __ZNSt3__16vectorIaNS_9allocatorIaEEE20__throw_length_errorB8ne200100Ev, symObjAddr: 0x5328, symBinAddr: 0xD2D0, symSize: 0x14 }
  - { offset: 0x8B41D, size: 0x8, addend: 0x0, symName: __ZN12llama_ubatchD1Ev, symObjAddr: 0x2D60, symBinAddr: 0xAEE8, symSize: 0x5C }
  - { offset: 0x8B4E9, size: 0x8, addend: 0x0, symName: __ZNSt3__118basic_stringstreamIcNS_11char_traitsIcEENS_9allocatorIcEEED1Ev, symObjAddr: 0x2CD8, symBinAddr: 0xAE60, symSize: 0x88 }
  - { offset: 0x8B788, size: 0x8, addend: 0x0, symName: __ZNSt3__16vectorIiNS_9allocatorIiEEE9push_backB8ne200100ERKi, symObjAddr: 0x20BC, symBinAddr: 0xA244, symSize: 0xEC }
  - { offset: 0x8BB8D, size: 0x8, addend: 0x0, symName: __ZN18llama_batch_allocr12ubatch_printERK12llama_ubatchi, symObjAddr: 0x21A8, symBinAddr: 0xA330, symSize: 0x924 }
  - { offset: 0x8BF7A, size: 0x8, addend: 0x0, symName: __ZNK18llama_batch_allocr11seq_pos_minEi, symObjAddr: 0x2C60, symBinAddr: 0xADE8, symSize: 0x28 }
  - { offset: 0x8BFA5, size: 0x8, addend: 0x0, symName: __ZNK18llama_batch_allocr11seq_pos_minEi, symObjAddr: 0x2C60, symBinAddr: 0xADE8, symSize: 0x28 }
  - { offset: 0x8C01A, size: 0x8, addend: 0x0, symName: __ZNK18llama_batch_allocr11seq_pos_maxEi, symObjAddr: 0x2C88, symBinAddr: 0xAE10, symSize: 0x50 }
  - { offset: 0x8C045, size: 0x8, addend: 0x0, symName: __ZNK18llama_batch_allocr11seq_pos_maxEi, symObjAddr: 0x2C88, symBinAddr: 0xAE10, symSize: 0x50 }
  - { offset: 0x8C1B5, size: 0x8, addend: 0x0, symName: __ZN18llama_batch_allocr11split_resetEv, symObjAddr: 0x2DBC, symBinAddr: 0xAF44, symSize: 0x20 }
  - { offset: 0x8C1D9, size: 0x8, addend: 0x0, symName: __ZN18llama_batch_allocr11split_resetEv, symObjAddr: 0x2DBC, symBinAddr: 0xAF44, symSize: 0x20 }
  - { offset: 0x8C1F8, size: 0x8, addend: 0x0, symName: __ZN18llama_batch_allocr11split_resetEv, symObjAddr: 0x2DBC, symBinAddr: 0xAF44, symSize: 0x20 }
  - { offset: 0x8C6CB, size: 0x8, addend: 0x0, symName: __ZN18llama_batch_allocr14ubatch_reserveEjj, symObjAddr: 0x2DDC, symBinAddr: 0xAF64, symSize: 0x458 }
  - { offset: 0x8D7D3, size: 0x8, addend: 0x0, symName: __ZNSt3__110shared_ptrIN12llama_ubatch6data_tEED1B8ne200100Ev, symObjAddr: 0x3234, symBinAddr: 0xB3BC, symSize: 0x5C }
  - { offset: 0x8D868, size: 0x8, addend: 0x0, symName: __ZNK18llama_batch_allocr9get_batchEv, symObjAddr: 0x3290, symBinAddr: 0xB418, symSize: 0x4 }
  - { offset: 0x8D890, size: 0x8, addend: 0x0, symName: __ZNK18llama_batch_allocr12get_n_tokensEv, symObjAddr: 0x3294, symBinAddr: 0xB41C, symSize: 0x8 }
  - { offset: 0x8D8B2, size: 0x8, addend: 0x0, symName: __ZNK18llama_batch_allocr13get_n_outputsEv, symObjAddr: 0x329C, symBinAddr: 0xB424, symSize: 0x8 }
  - { offset: 0x8D8DC, size: 0x8, addend: 0x0, symName: __ZNK18llama_batch_allocr10get_n_usedEv, symObjAddr: 0x32A4, symBinAddr: 0xB42C, symSize: 0x8 }
  - { offset: 0x8D906, size: 0x8, addend: 0x0, symName: __ZN18llama_batch_allocr11get_out_idsEv, symObjAddr: 0x32AC, symBinAddr: 0xB434, symSize: 0x8 }
  - { offset: 0x8D930, size: 0x8, addend: 0x0, symName: __ZN18llama_batch_allocr12split_simpleEj, symObjAddr: 0x32B4, symBinAddr: 0xB43C, symSize: 0x200 }
  - { offset: 0x8E085, size: 0x8, addend: 0x0, symName: __ZN18llama_batch_allocr10ubatch_addERKNSt3__16vectorIiNS0_9allocatorIiEEEEjb, symObjAddr: 0x34B4, symBinAddr: 0xB63C, symSize: 0x8A0 }
  - { offset: 0x8FD49, size: 0x8, addend: 0x0, symName: __ZNSt3__16vectorIfNS_9allocatorIfEEE8__appendEm, symObjAddr: 0x61C0, symBinAddr: 0xE0E0, symSize: 0x120 }
  - { offset: 0x90127, size: 0x8, addend: 0x0, symName: __ZNSt3__16vectorIfNS_9allocatorIfEEE20__throw_length_errorB8ne200100Ev, symObjAddr: 0x62E0, symBinAddr: 0xE200, symSize: 0x14 }
  - { offset: 0x9063B, size: 0x8, addend: 0x0, symName: __ZN18llama_batch_allocr11split_equalEjb, symObjAddr: 0x3D54, symBinAddr: 0xBEDC, symSize: 0x67C }
  - { offset: 0x91F6E, size: 0x8, addend: 0x0, symName: __ZNSt3__16vectorIiNS_9allocatorIiEEE18__insert_with_sizeB8ne200100INS_11__wrap_iterIPiEES7_EES7_NS5_IPKiEET_T0_l, symObjAddr: 0x5DC4, symBinAddr: 0xDCE4, symSize: 0x3FC }
  - { offset: 0x92A1C, size: 0x8, addend: 0x0, symName: __ZNSt3__16vectorIfNS_9allocatorIfEEE8__appendEm, symObjAddr: 0x61C0, symBinAddr: 0xE0E0, symSize: 0x120 }
  - { offset: 0x92A39, size: 0x8, addend: 0x0, symName: __ZNSt3__128__exception_guard_exceptionsINS_6vectorINS1_IiNS_9allocatorIiEEEENS2_IS4_EEE16__destroy_vectorEED1B8ne200100Ev, symObjAddr: 0x5D40, symBinAddr: 0xDC60, symSize: 0x84 }
  - { offset: 0x92CC6, size: 0x8, addend: 0x0, symName: __ZNSt3__16vectorINS0_IiNS_9allocatorIiEEEENS1_IS3_EEED1B8ne200100Ev, symObjAddr: 0x43D0, symBinAddr: 0xC558, symSize: 0x74 }
  - { offset: 0x92F8D, size: 0x8, addend: 0x0, symName: __ZN18llama_batch_allocr9split_seqEj, symObjAddr: 0x4444, symBinAddr: 0xC5CC, symSize: 0x2A8 }
  - { offset: 0x93894, size: 0x8, addend: 0x0, symName: _llama_batch_get_one, symObjAddr: 0x46EC, symBinAddr: 0xC874, symSize: 0x1C }
  - { offset: 0x938CC, size: 0x8, addend: 0x0, symName: _llama_batch_init, symObjAddr: 0x4708, symBinAddr: 0xC890, symSize: 0xD0 }
  - { offset: 0x939C5, size: 0x8, addend: 0x0, symName: _llama_batch_free, symObjAddr: 0x47D8, symBinAddr: 0xC960, symSize: 0x90 }
  - { offset: 0x93F94, size: 0x8, addend: 0x0, symName: __ZNSt3__16vectorINS_3setIiNS_4lessIiEENS_9allocatorIiEEEENS4_IS6_EEE20__throw_length_errorB8ne200100Ev, symObjAddr: 0x4AE0, symBinAddr: 0xCC58, symSize: 0x14 }
  - { offset: 0x9439F, size: 0x8, addend: 0x0, symName: __ZNSt3__16vectorINS0_IbNS_9allocatorIbEEEENS1_IS3_EEE20__throw_length_errorB8ne200100Ev, symObjAddr: 0x4D5C, symBinAddr: 0xCE38, symSize: 0x14 }
  - { offset: 0x943B7, size: 0x8, addend: 0x0, symName: __ZNSt3__16vectorIbNS_9allocatorIbEEE7reserveEm, symObjAddr: 0x4D70, symBinAddr: 0xCE4C, symSize: 0x108 }
  - { offset: 0x949C2, size: 0x8, addend: 0x0, symName: __ZNSt3__16vectorIPiNS_9allocatorIS1_EEE20__throw_length_errorB8ne200100Ev, symObjAddr: 0x5314, symBinAddr: 0xD2BC, symSize: 0x14 }
  - { offset: 0x949DA, size: 0x8, addend: 0x0, symName: __ZNSt3__16vectorIaNS_9allocatorIaEEE20__throw_length_errorB8ne200100Ev, symObjAddr: 0x5328, symBinAddr: 0xD2D0, symSize: 0x14 }
  - { offset: 0x94FF6, size: 0x8, addend: 0x0, symName: __ZNSt3__112__hash_tableINS_17__hash_value_typeINS_6bitsetILm256EEENS_6vectorIiNS_9allocatorIiEEEEEENS_22__unordered_map_hasherIS3_S8_NS_4hashIS3_EENS_8equal_toIS3_EELb1EEENS_21__unordered_map_equalIS3_S8_SD_SB_Lb1EEENS5_IS8_EEE11__do_rehashILb1EEEvm, symObjAddr: 0x57B0, symBinAddr: 0xD6E4, symSize: 0x180 }
  - { offset: 0x95383, size: 0x8, addend: 0x0, symName: __ZNSt3__124__put_character_sequenceB8ne200100IcNS_11char_traitsIcEEEERNS_13basic_ostreamIT_T0_EES7_PKS4_m, symObjAddr: 0x5930, symBinAddr: 0xD864, symSize: 0x16C }
  - { offset: 0x95398, size: 0x8, addend: 0x0, symName: __ZNSt3__110unique_ptrINS_11__hash_nodeINS_17__hash_value_typeINS_6bitsetILm256EEENS_6vectorIiNS_9allocatorIiEEEEEEPvEENS_22__hash_node_destructorINS6_ISB_EEEEED1B8ne200100Ev, symObjAddr: 0x5750, symBinAddr: 0xD684, symSize: 0x60 }
  - { offset: 0x95BCC, size: 0x8, addend: 0x0, symName: __ZNSt3__120__shared_ptr_emplaceIN12llama_ubatch6data_tENS_9allocatorIS2_EEED1Ev, symObjAddr: 0x5C4C, symBinAddr: 0xDB6C, symSize: 0x14 }
  - { offset: 0x95BF3, size: 0x8, addend: 0x0, symName: __ZNSt3__120__shared_ptr_emplaceIN12llama_ubatch6data_tENS_9allocatorIS2_EEED1Ev, symObjAddr: 0x5C4C, symBinAddr: 0xDB6C, symSize: 0x14 }
  - { offset: 0x95C15, size: 0x8, addend: 0x0, symName: __ZNSt3__120__shared_ptr_emplaceIN12llama_ubatch6data_tENS_9allocatorIS2_EEED1Ev, symObjAddr: 0x5C4C, symBinAddr: 0xDB6C, symSize: 0x14 }
  - { offset: 0x95C4B, size: 0x8, addend: 0x0, symName: __ZNSt3__120__shared_ptr_emplaceIN12llama_ubatch6data_tENS_9allocatorIS2_EEED0Ev, symObjAddr: 0x5C60, symBinAddr: 0xDB80, symSize: 0x24 }
  - { offset: 0x95D6B, size: 0x8, addend: 0x0, symName: __ZNSt3__120__shared_ptr_emplaceIN12llama_ubatch6data_tENS_9allocatorIS2_EEE16__on_zero_sharedEv, symObjAddr: 0x5C84, symBinAddr: 0xDBA4, symSize: 0x8 }
  - { offset: 0x95D94, size: 0x8, addend: 0x0, symName: __ZNSt3__120__shared_ptr_emplaceIN12llama_ubatch6data_tENS_9allocatorIS2_EEE16__on_zero_sharedEv, symObjAddr: 0x5C84, symBinAddr: 0xDBA4, symSize: 0x8 }
  - { offset: 0x95DB1, size: 0x8, addend: 0x0, symName: __ZNSt3__120__shared_ptr_emplaceIN12llama_ubatch6data_tENS_9allocatorIS2_EEE16__on_zero_sharedEv, symObjAddr: 0x5C84, symBinAddr: 0xDBA4, symSize: 0x8 }
  - { offset: 0x95E1A, size: 0x8, addend: 0x0, symName: __ZN12llama_ubatch6data_tD2Ev, symObjAddr: 0x5C90, symBinAddr: 0xDBB0, symSize: 0xB0 }
  - { offset: 0x9690A, size: 0x8, addend: 0x0, symName: __ZNSt3__120__shared_ptr_emplaceIN12llama_ubatch6data_tENS_9allocatorIS2_EEE21__on_zero_shared_weakEv, symObjAddr: 0x5C8C, symBinAddr: 0xDBAC, symSize: 0x4 }
  - { offset: 0x9693C, size: 0x8, addend: 0x0, symName: __ZNSt3__120__shared_ptr_emplaceIN12llama_ubatch6data_tENS_9allocatorIS2_EEE21__on_zero_shared_weakEv, symObjAddr: 0x5C8C, symBinAddr: 0xDBAC, symSize: 0x4 }
  - { offset: 0x9695E, size: 0x8, addend: 0x0, symName: __ZNSt3__120__shared_ptr_emplaceIN12llama_ubatch6data_tENS_9allocatorIS2_EEE21__on_zero_shared_weakEv, symObjAddr: 0x5C8C, symBinAddr: 0xDBAC, symSize: 0x4 }
  - { offset: 0x96981, size: 0x8, addend: 0x0, symName: __ZNSt3__120__shared_ptr_emplaceIN12llama_ubatch6data_tENS_9allocatorIS2_EEE21__on_zero_shared_weakEv, symObjAddr: 0x5C8C, symBinAddr: 0xDBAC, symSize: 0x4 }
  - { offset: 0x969B6, size: 0x8, addend: 0x0, symName: __ZNSt3__120__shared_ptr_emplaceIN12llama_ubatch6data_tENS_9allocatorIS2_EEE21__on_zero_shared_weakEv, symObjAddr: 0x5C8C, symBinAddr: 0xDBAC, symSize: 0x4 }
  - { offset: 0x9702D, size: 0x8, addend: 0x0, symName: __ZNSt3__16vectorIfNS_9allocatorIfEEE20__throw_length_errorB8ne200100Ev, symObjAddr: 0x62E0, symBinAddr: 0xE200, symSize: 0x14 }
  - { offset: 0x98F3A, size: 0x8, addend: 0x0, symName: __ZL18LLM_CHAT_TEMPLATES, symObjAddr: 0x871D8, symBinAddr: 0x35C0A0, symSize: 0x0 }
  - { offset: 0xA0D1A, size: 0x8, addend: 0x0, symName: __ZNSt3__1eqB8ne200100IcNS_11char_traitsIcEENS_9allocatorIcEEEEbRKNS_12basic_stringIT_T0_T1_EEPKS6_, symObjAddr: 0x5F94, symBinAddr: 0x13F70, symSize: 0x88 }
  - { offset: 0xA0EBA, size: 0x8, addend: 0x0, symName: __ZNSt3__1neB8ne200100IcNS_11char_traitsIcEENS_9allocatorIcEEEEbRKNS_12basic_stringIT_T0_T1_EEPKS6_, symObjAddr: 0x61DC, symBinAddr: 0x141B8, symSize: 0x88 }
  - { offset: 0xA319C, size: 0x8, addend: 0x0, symName: __ZNSt3__13mapINS_12basic_stringIcNS_11char_traitsIcEENS_9allocatorIcEEEE17llm_chat_templateNS_4lessIS6_EENS4_INS_4pairIKS6_S7_EEEEED1B8ne200100Ev, symObjAddr: 0x0, symBinAddr: 0xE214, symSize: 0x28 }
  - { offset: 0xA3250, size: 0x8, addend: 0x0, symName: __ZNSt3__16__treeINS_12__value_typeINS_12basic_stringIcNS_11char_traitsIcEENS_9allocatorIcEEEE17llm_chat_templateEENS_19__map_value_compareIS7_S9_NS_4lessIS7_EELb1EEENS5_IS9_EEE7destroyEPNS_11__tree_nodeIS9_PvEE, symObjAddr: 0x6B98, symBinAddr: 0x14820, symSize: 0x60 }
  - { offset: 0xA36FE, size: 0x8, addend: 0x0, symName: __Z26llm_chat_template_from_strRKNSt3__112basic_stringIcNS_11char_traitsIcEENS_9allocatorIcEEEE, symObjAddr: 0x28, symBinAddr: 0xE23C, symSize: 0xF0 }
  - { offset: 0xA3A31, size: 0x8, addend: 0x0, symName: __Z24llm_chat_detect_templateRKNSt3__112basic_stringIcNS_11char_traitsIcEENS_9allocatorIcEEEE, symObjAddr: 0x118, symBinAddr: 0xE32C, symSize: 0x920 }
  - { offset: 0xA40D9, size: 0x8, addend: 0x0, symName: '__ZZ24llm_chat_detect_templateRKNSt3__112basic_stringIcNS_11char_traitsIcEENS_9allocatorIcEEEEENK3$_0clEPKc', symObjAddr: 0xA38, symBinAddr: 0xEC4C, symSize: 0xD8 }
  - { offset: 0xA4336, size: 0x8, addend: 0x0, symName: __ZNKSt3__112basic_stringIcNS_11char_traitsIcEENS_9allocatorIcEEE4findB8ne200100EPKcm, symObjAddr: 0xB10, symBinAddr: 0xED24, symSize: 0xEC }
  - { offset: 0xA4D23, size: 0x8, addend: 0x0, symName: __Z23llm_chat_apply_template17llm_chat_templateRKNSt3__16vectorIPK18llama_chat_messageNS0_9allocatorIS4_EEEERNS0_12basic_stringIcNS0_11char_traitsIcEENS5_IcEEEEb, symObjAddr: 0xBFC, symBinAddr: 0xEE10, symSize: 0x5160 }
  - { offset: 0xB632A, size: 0x8, addend: 0x0, symName: __ZL4trimRKNSt3__112basic_stringIcNS_11char_traitsIcEENS_9allocatorIcEEEE, symObjAddr: 0x601C, symBinAddr: 0x13FF8, symSize: 0x1C0 }
  - { offset: 0xB675A, size: 0x8, addend: 0x0, symName: __ZNSt3__1neB8ne200100IcNS_11char_traitsIcEENS_9allocatorIcEEEEbRKNS_12basic_stringIT_T0_T1_EEPKS6_, symObjAddr: 0x61DC, symBinAddr: 0x141B8, symSize: 0x88 }
  - { offset: 0xB6A18, size: 0x8, addend: 0x0, symName: __ZNSt3__1eqB8ne200100IcNS_11char_traitsIcEENS_9allocatorIcEEEEbRKNS_12basic_stringIT_T0_T1_EEPKS6_, symObjAddr: 0x5F94, symBinAddr: 0x13F70, symSize: 0x88 }
  - { offset: 0xB6FA3, size: 0x8, addend: 0x0, symName: _llama_chat_builtin_templates, symObjAddr: 0x62EC, symBinAddr: 0x14240, symSize: 0x90 }
  - { offset: 0xB74AE, size: 0x8, addend: 0x0, symName: __ZNSt3__16__treeINS_12__value_typeINS_12basic_stringIcNS_11char_traitsIcEENS_9allocatorIcEEEE17llm_chat_templateEENS_19__map_value_compareIS7_S9_NS_4lessIS7_EELb1EEENS5_IS9_EEE30__emplace_hint_unique_key_argsIS7_JRKNS_4pairIKS7_S8_EEEEENSH_INS_15__tree_iteratorIS9_PNS_11__tree_nodeIS9_PvEElEEbEENS_21__tree_const_iteratorIS9_SQ_lEERKT_DpOT0_, symObjAddr: 0x649C, symBinAddr: 0x142D0, symSize: 0xF8 }
  - { offset: 0xB783B, size: 0x8, addend: 0x0, symName: __ZNSt3__16__treeINS_12__value_typeINS_12basic_stringIcNS_11char_traitsIcEENS_9allocatorIcEEEE17llm_chat_templateEENS_19__map_value_compareIS7_S9_NS_4lessIS7_EELb1EEENS5_IS9_EEE12__find_equalIS7_EERPNS_16__tree_node_baseIPvEENS_21__tree_const_iteratorIS9_PNS_11__tree_nodeIS9_SI_EElEERPNS_15__tree_end_nodeISK_EESL_RKT_, symObjAddr: 0x6594, symBinAddr: 0x143C8, symSize: 0x3F8 }
  - { offset: 0xB8503, size: 0x8, addend: 0x0, symName: __ZNSt3__110unique_ptrINS_11__tree_nodeINS_12__value_typeINS_12basic_stringIcNS_11char_traitsIcEENS_9allocatorIcEEEE17llm_chat_templateEEPvEENS_22__tree_node_destructorINS6_ISC_EEEEED1B8ne200100Ev, symObjAddr: 0x698C, symBinAddr: 0x147C0, symSize: 0x60 }
  - { offset: 0xB9608, size: 0x8, addend: 0x0, symName: __GLOBAL__sub_I_llama_chat.cpp, symObjAddr: 0x7798, symBinAddr: 0x14880, symSize: 0x8A8 }
  - { offset: 0xEBD68, size: 0x8, addend: 0x0, symName: __ZNSt3__119piecewise_constructE, symObjAddr: 0x13170, symBinAddr: 0x297178, symSize: 0x0 }
  - { offset: 0xF2FD6, size: 0x8, addend: 0x0, symName: __ZNSt3__113__tree_removeB8ne200100IPNS_16__tree_node_baseIPvEEEEvT_S5_, symObjAddr: 0xE6FC, symBinAddr: 0x23388, symSize: 0x3B4 }
  - { offset: 0xFE3CF, size: 0x8, addend: 0x0, symName: __ZN13llama_contextC2ERK11llama_model20llama_context_params, symObjAddr: 0x0, symBinAddr: 0x15128, symSize: 0x16D8 }
  - { offset: 0x102445, size: 0x8, addend: 0x0, symName: __ZNK13llama_context12graph_get_cbEv, symObjAddr: 0x7B14, symBinAddr: 0x1CB9C, symSize: 0x14 }
  - { offset: 0x1024A0, size: 0x8, addend: 0x0, symName: __ZNK13llama_context12graph_get_cbEv, symObjAddr: 0x7B14, symBinAddr: 0x1CB9C, symSize: 0x14 }
  - { offset: 0x1024C3, size: 0x8, addend: 0x0, symName: __ZNK13llama_context12graph_get_cbEv, symObjAddr: 0x7B14, symBinAddr: 0x1CB9C, symSize: 0x14 }
  - { offset: 0x1024E6, size: 0x8, addend: 0x0, symName: __ZNK13llama_context12graph_get_cbEv, symObjAddr: 0x7B14, symBinAddr: 0x1CB9C, symSize: 0x14 }
  - { offset: 0x102502, size: 0x8, addend: 0x0, symName: __ZNK13llama_context12graph_get_cbEv, symObjAddr: 0x7B14, symBinAddr: 0x1CB9C, symSize: 0x14 }
  - { offset: 0x10251E, size: 0x8, addend: 0x0, symName: __ZNK13llama_context12graph_get_cbEv, symObjAddr: 0x7B14, symBinAddr: 0x1CB9C, symSize: 0x14 }
  - { offset: 0x10253A, size: 0x8, addend: 0x0, symName: __ZNK13llama_context12graph_get_cbEv, symObjAddr: 0x7B14, symBinAddr: 0x1CB9C, symSize: 0x14 }
  - { offset: 0x102556, size: 0x8, addend: 0x0, symName: __ZNK13llama_context12graph_get_cbEv, symObjAddr: 0x7B14, symBinAddr: 0x1CB9C, symSize: 0x14 }
  - { offset: 0x1049E1, size: 0x8, addend: 0x0, symName: __ZN13llama_context11set_samplerEiP13llama_sampler, symObjAddr: 0x16D8, symBinAddr: 0x16800, symSize: 0x360 }
  - { offset: 0x10554A, size: 0x8, addend: 0x0, symName: __ZN13llama_context14output_reserveEi, symObjAddr: 0x1AE8, symBinAddr: 0x16C10, symSize: 0x360 }
  - { offset: 0x105E03, size: 0x8, addend: 0x0, symName: __ZN13llama_context13sched_reserveEv, symObjAddr: 0x1E48, symBinAddr: 0x16F70, symSize: 0x8BC }
  - { offset: 0x10714A, size: 0x8, addend: 0x0, symName: __ZNSt3__16vectorINS_10unique_ptrI12ggml_backend20ggml_backend_deleterEENS_9allocatorIS4_EEE20__throw_length_errorB8ne200100Ev, symObjAddr: 0xE550, symBinAddr: 0x23338, symSize: 0x14 }
  - { offset: 0x107162, size: 0x8, addend: 0x0, symName: __ZNSt3__16vectorINS_4pairIP12ggml_backendPFvS3_iEEENS_9allocatorIS6_EEE20__throw_length_errorB8ne200100Ev, symObjAddr: 0xE564, symBinAddr: 0x2334C, symSize: 0x14 }
  - { offset: 0x10716D, size: 0x8, addend: 0x0, symName: __ZNSt3__16vectorIP12ggml_backendNS_9allocatorIS2_EEE20__throw_length_errorB8ne200100Ev, symObjAddr: 0xE58C, symBinAddr: 0x23360, symSize: 0x14 }
  - { offset: 0x107185, size: 0x8, addend: 0x0, symName: __ZNSt3__16vectorImNS_9allocatorImEEE20__throw_length_errorB8ne200100Ev, symObjAddr: 0xE5A0, symBinAddr: 0x23374, symSize: 0x14 }
  - { offset: 0x107190, size: 0x8, addend: 0x0, symName: __ZNSt3__16vectorImNS_9allocatorImEEE20__throw_length_errorB8ne200100Ev, symObjAddr: 0xE5A0, symBinAddr: 0x23374, symSize: 0x14 }
  - { offset: 0x1071BD, size: 0x8, addend: 0x0, symName: __ZNSt3__16vectorIP12ggml_backendNS_9allocatorIS2_EEE20__throw_length_errorB8ne200100Ev, symObjAddr: 0xE58C, symBinAddr: 0x23360, symSize: 0x14 }
  - { offset: 0x1071C8, size: 0x8, addend: 0x0, symName: __ZNSt3__16vectorINS_4pairIP12ggml_backendPFvS3_iEEENS_9allocatorIS6_EEE20__throw_length_errorB8ne200100Ev, symObjAddr: 0xE564, symBinAddr: 0x2334C, symSize: 0x14 }
  - { offset: 0x10724F, size: 0x8, addend: 0x0, symName: __ZNSt3__16vectorINS_10unique_ptrI12ggml_backend20ggml_backend_deleterEENS_9allocatorIS4_EEED1B8ne200100Ev, symObjAddr: 0x2738, symBinAddr: 0x1782C, symSize: 0x70 }
  - { offset: 0x10743D, size: 0x8, addend: 0x0, symName: __ZNSt3__110unique_ptrI18ggml_backend_sched26ggml_backend_sched_deleterED1B8ne200100Ev, symObjAddr: 0x27A8, symBinAddr: 0x1789C, symSize: 0x34 }
  - { offset: 0x1074D1, size: 0x8, addend: 0x0, symName: __ZNSt3__110unique_ptrI18llama_batch_allocrNS_14default_deleteIS1_EEED1B8ne200100Ev, symObjAddr: 0x27DC, symBinAddr: 0x178D0, symSize: 0x3C }
  - { offset: 0x107593, size: 0x8, addend: 0x0, symName: __ZNSt3__16__treeINS_12__value_typeIiNS_6vectorIfNS_9allocatorIfEEEEEENS_19__map_value_compareIiS6_NS_4lessIiEELb1EEENS3_IS6_EEE7destroyEPNS_11__tree_nodeIS6_PvEE, symObjAddr: 0xE500, symBinAddr: 0x232E8, symSize: 0x50 }
  - { offset: 0x107849, size: 0x8, addend: 0x0, symName: __ZN13llama_context13sampling_infoD1Ev, symObjAddr: 0x2818, symBinAddr: 0x1790C, symSize: 0x6C }
  - { offset: 0x107DE3, size: 0x8, addend: 0x0, symName: __ZN11llama_crossD1Ev, symObjAddr: 0x2884, symBinAddr: 0x17978, symSize: 0x78 }
  - { offset: 0x10817A, size: 0x8, addend: 0x0, symName: __ZNSt3__113unordered_mapIP18llama_adapter_lorafNS_4hashIS2_EENS_8equal_toIS2_EENS_9allocatorINS_4pairIKS2_fEEEEED1B8ne200100Ev, symObjAddr: 0x28FC, symBinAddr: 0x179F0, symSize: 0x48 }
  - { offset: 0x10840E, size: 0x8, addend: 0x0, symName: __ZN18llama_adapter_cvecD2Ev, symObjAddr: 0xD9C0, symBinAddr: 0x22A04, symSize: 0xC8 }
  - { offset: 0x109023, size: 0x8, addend: 0x0, symName: _llama_set_abort_callback, symObjAddr: 0x1A38, symBinAddr: 0x16B60, symSize: 0xB0 }
  - { offset: 0x10938D, size: 0x8, addend: 0x0, symName: __ZN13llama_context11synchronizeEv, symObjAddr: 0x2C6C, symBinAddr: 0x17D50, symSize: 0xE4 }
  - { offset: 0x109452, size: 0x8, addend: 0x0, symName: __ZNSt3__16vectorIjNS_9allocatorIjEEE8__appendEm, symObjAddr: 0xF59C, symBinAddr: 0x23EBC, symSize: 0x120 }
  - { offset: 0x109830, size: 0x8, addend: 0x0, symName: __ZNSt3__16vectorIjNS_9allocatorIjEEE20__throw_length_errorB8ne200100Ev, symObjAddr: 0xF6BC, symBinAddr: 0x23FDC, symSize: 0x14 }
  - { offset: 0x109CFD, size: 0x8, addend: 0x0, symName: __ZN13llama_context13graph_reserveEjjjPK22llama_memory_context_ibPm, symObjAddr: 0x2DD8, symBinAddr: 0x17EBC, symSize: 0x4B8 }
  - { offset: 0x10AA6C, size: 0x8, addend: 0x0, symName: __ZNSt3__113__tree_removeB8ne200100IPNS_16__tree_node_baseIPvEEEEvT_S5_, symObjAddr: 0xE6FC, symBinAddr: 0x23388, symSize: 0x3B4 }
  - { offset: 0x10ACBC, size: 0x8, addend: 0x0, symName: __ZN18llama_batch_allocrD2Ev, symObjAddr: 0xDC5C, symBinAddr: 0x22ACC, symSize: 0x174 }
  - { offset: 0x10C12E, size: 0x8, addend: 0x0, symName: __ZNSt3__16__treeINS_12__value_typeIiP13llama_samplerEENS_19__map_value_compareIiS4_NS_4lessIiEELb1EEENS_9allocatorIS4_EEE7destroyEPNS_11__tree_nodeIS4_PvEE, symObjAddr: 0xE4BC, symBinAddr: 0x232A4, symSize: 0x44 }
  - { offset: 0x10C81C, size: 0x8, addend: 0x0, symName: __ZN13llama_contextC1ERK11llama_model20llama_context_params, symObjAddr: 0x2944, symBinAddr: 0x17A38, symSize: 0x4 }
  - { offset: 0x10C84E, size: 0x8, addend: 0x0, symName: __ZN13llama_contextC1ERK11llama_model20llama_context_params, symObjAddr: 0x2944, symBinAddr: 0x17A38, symSize: 0x4 }
  - { offset: 0x10C92A, size: 0x8, addend: 0x0, symName: __ZN13llama_contextD2Ev, symObjAddr: 0x2948, symBinAddr: 0x17A3C, symSize: 0x310 }
  - { offset: 0x10E352, size: 0x8, addend: 0x0, symName: __ZN13llama_contextD1Ev, symObjAddr: 0x2C68, symBinAddr: 0x17D4C, symSize: 0x4 }
  - { offset: 0x10E375, size: 0x8, addend: 0x0, symName: __ZN13llama_contextD1Ev, symObjAddr: 0x2C68, symBinAddr: 0x17D4C, symSize: 0x4 }
  - { offset: 0x10E3AC, size: 0x8, addend: 0x0, symName: __ZNK13llama_context15graph_max_nodesEj, symObjAddr: 0x2D50, symBinAddr: 0x17E34, symSize: 0x88 }
  - { offset: 0x10EC1F, size: 0x8, addend: 0x0, symName: __ZNSt3__13mapIiP13llama_samplerNS_4lessIiEENS_9allocatorINS_4pairIKiS2_EEEEE6insertB8ne200100INS_20__map_const_iteratorINS_21__tree_const_iteratorINS_12__value_typeIiS2_EEPNS_11__tree_nodeISF_PvEElEEEEEEvT_SM_, symObjAddr: 0xF6D0, symBinAddr: 0x23FF0, symSize: 0xF4 }
  - { offset: 0x10EC65, size: 0x8, addend: 0x0, symName: __ZNSt3__13mapIiP13llama_samplerNS_4lessIiEENS_9allocatorINS_4pairIKiS2_EEEEE6insertB8ne200100INS_20__map_const_iteratorINS_21__tree_const_iteratorINS_12__value_typeIiS2_EEPNS_11__tree_nodeISF_PvEElEEEEEEvT_SM_, symObjAddr: 0xF6D0, symBinAddr: 0x23FF0, symSize: 0xF4 }
  - { offset: 0x10F04A, size: 0x8, addend: 0x0, symName: __ZN16llm_graph_paramsD1Ev, symObjAddr: 0x5494, symBinAddr: 0x1A578, symSize: 0xA0 }
  - { offset: 0x10F1FC, size: 0x8, addend: 0x0, symName: __ZNK13llama_context9get_modelEv, symObjAddr: 0x3290, symBinAddr: 0x18374, symSize: 0x8 }
  - { offset: 0x10F21E, size: 0x8, addend: 0x0, symName: __ZNK13llama_context11get_cparamsEv, symObjAddr: 0x3298, symBinAddr: 0x1837C, symSize: 0x8 }
  - { offset: 0x10F248, size: 0x8, addend: 0x0, symName: __ZNK13llama_context9get_schedEv, symObjAddr: 0x32A0, symBinAddr: 0x18384, symSize: 0x8 }
  - { offset: 0x10F274, size: 0x8, addend: 0x0, symName: __ZNK13llama_context9get_schedEv, symObjAddr: 0x32A0, symBinAddr: 0x18384, symSize: 0x8 }
  - { offset: 0x10F292, size: 0x8, addend: 0x0, symName: __ZNK13llama_context5n_ctxEv, symObjAddr: 0x32A8, symBinAddr: 0x1838C, symSize: 0x8 }
  - { offset: 0x10F2B4, size: 0x8, addend: 0x0, symName: __ZNK13llama_context9n_ctx_seqEv, symObjAddr: 0x32B0, symBinAddr: 0x18394, symSize: 0x8 }
  - { offset: 0x10F2D6, size: 0x8, addend: 0x0, symName: __ZNK13llama_context7n_batchEv, symObjAddr: 0x32B8, symBinAddr: 0x1839C, symSize: 0x8 }
  - { offset: 0x10F2F8, size: 0x8, addend: 0x0, symName: __ZNK13llama_context8n_ubatchEv, symObjAddr: 0x32C0, symBinAddr: 0x183A4, symSize: 0x8 }
  - { offset: 0x10F31A, size: 0x8, addend: 0x0, symName: __ZNK13llama_context9n_seq_maxEv, symObjAddr: 0x32C8, symBinAddr: 0x183AC, symSize: 0x8 }
  - { offset: 0x10F33C, size: 0x8, addend: 0x0, symName: __ZNK13llama_context9n_threadsEv, symObjAddr: 0x32D0, symBinAddr: 0x183B4, symSize: 0x8 }
  - { offset: 0x10F35E, size: 0x8, addend: 0x0, symName: __ZNK13llama_context15n_threads_batchEv, symObjAddr: 0x32D8, symBinAddr: 0x183BC, symSize: 0x8 }
  - { offset: 0x10F396, size: 0x8, addend: 0x0, symName: __ZNK13llama_context10get_memoryEv, symObjAddr: 0x32E0, symBinAddr: 0x183C4, symSize: 0x8 }
  - { offset: 0x10F3BA, size: 0x8, addend: 0x0, symName: __ZNK13llama_context10get_memoryEv, symObjAddr: 0x32E0, symBinAddr: 0x183C4, symSize: 0x8 }
  - { offset: 0x10F40A, size: 0x8, addend: 0x0, symName: __ZN13llama_context13memory_updateEb, symObjAddr: 0x32E8, symBinAddr: 0x183CC, symSize: 0x1F4 }
  - { offset: 0x10F7F8, size: 0x8, addend: 0x0, symName: __ZNK13llama_context12pooling_typeEv, symObjAddr: 0x34DC, symBinAddr: 0x185C0, symSize: 0x8 }
  - { offset: 0x10F81A, size: 0x8, addend: 0x0, symName: __ZN13llama_context10get_logitsEv, symObjAddr: 0x34E4, symBinAddr: 0x185C8, symSize: 0x24 }
  - { offset: 0x10F851, size: 0x8, addend: 0x0, symName: __ZN13llama_context14output_reorderEv, symObjAddr: 0x3508, symBinAddr: 0x185EC, symSize: 0x524 }
  - { offset: 0x10FAD4, size: 0x8, addend: 0x0, symName: __ZNK13llama_context18output_resolve_rowEi, symObjAddr: 0x3A2C, symBinAddr: 0x18B10, symSize: 0x1DC }
  - { offset: 0x10FD47, size: 0x8, addend: 0x0, symName: __ZN13llama_context14get_logits_ithEi, symObjAddr: 0x3C08, symBinAddr: 0x18CEC, symSize: 0x2C0 }
  - { offset: 0x10FFFE, size: 0x8, addend: 0x0, symName: __ZN13llama_context14get_embeddingsEv, symObjAddr: 0x3EC8, symBinAddr: 0x18FAC, symSize: 0x24 }
  - { offset: 0x110035, size: 0x8, addend: 0x0, symName: __ZNK13llama_context18get_sampled_tokensEv, symObjAddr: 0x3EEC, symBinAddr: 0x18FD0, symSize: 0x8 }
  - { offset: 0x11005F, size: 0x8, addend: 0x0, symName: __ZN13llama_context18get_embeddings_ithEi, symObjAddr: 0x3EF4, symBinAddr: 0x18FD8, symSize: 0x2C4 }
  - { offset: 0x110440, size: 0x8, addend: 0x0, symName: __ZN13llama_context18get_embeddings_seqEi, symObjAddr: 0x41B8, symBinAddr: 0x1929C, symSize: 0x4C }
  - { offset: 0x110474, size: 0x8, addend: 0x0, symName: __ZN13llama_context18get_embeddings_seqEi, symObjAddr: 0x41B8, symBinAddr: 0x1929C, symSize: 0x4C }
  - { offset: 0x110493, size: 0x8, addend: 0x0, symName: __ZN13llama_context18get_embeddings_seqEi, symObjAddr: 0x41B8, symBinAddr: 0x1929C, symSize: 0x4C }
  - { offset: 0x1104BB, size: 0x8, addend: 0x0, symName: __ZN13llama_context18get_embeddings_seqEi, symObjAddr: 0x41B8, symBinAddr: 0x1929C, symSize: 0x4C }
  - { offset: 0x1105A6, size: 0x8, addend: 0x0, symName: __ZN13llama_context21get_sampled_token_ithEi, symObjAddr: 0x4204, symBinAddr: 0x192E8, symSize: 0xFC }
  - { offset: 0x110669, size: 0x8, addend: 0x0, symName: __ZN13llama_context21get_sampled_probs_ithEi, symObjAddr: 0x4300, symBinAddr: 0x193E4, symSize: 0xF4 }
  - { offset: 0x110737, size: 0x8, addend: 0x0, symName: __ZN13llama_context22get_sampled_logits_ithEi, symObjAddr: 0x43F4, symBinAddr: 0x194D8, symSize: 0xF4 }
  - { offset: 0x11081B, size: 0x8, addend: 0x0, symName: __ZN13llama_context26get_sampled_candidates_ithEi, symObjAddr: 0x44E8, symBinAddr: 0x195CC, symSize: 0xA0 }
  - { offset: 0x1108CA, size: 0x8, addend: 0x0, symName: __ZN13llama_context28get_sampled_candidates_countEi, symObjAddr: 0x4588, symBinAddr: 0x1966C, symSize: 0xD4 }
  - { offset: 0x110998, size: 0x8, addend: 0x0, symName: __ZN13llama_context24get_sampled_logits_countEi, symObjAddr: 0x465C, symBinAddr: 0x19740, symSize: 0x104 }
  - { offset: 0x110A66, size: 0x8, addend: 0x0, symName: __ZN13llama_context23get_sampled_probs_countEi, symObjAddr: 0x4760, symBinAddr: 0x19844, symSize: 0xD4 }
  - { offset: 0x110B34, size: 0x8, addend: 0x0, symName: __ZN13llama_context17attach_threadpoolEP15ggml_threadpoolS1_, symObjAddr: 0x4834, symBinAddr: 0x19918, symSize: 0x60 }
  - { offset: 0x110B7B, size: 0x8, addend: 0x0, symName: __ZN13llama_context17detach_threadpoolEv, symObjAddr: 0x4894, symBinAddr: 0x19978, symSize: 0x4C }
  - { offset: 0x110BB0, size: 0x8, addend: 0x0, symName: __ZN13llama_context13set_n_threadsEii, symObjAddr: 0x48E0, symBinAddr: 0x199C4, symSize: 0x58 }
  - { offset: 0x110BF7, size: 0x8, addend: 0x0, symName: __ZN13llama_context18set_abort_callbackEPFbPvES0_, symObjAddr: 0x4938, symBinAddr: 0x19A1C, symSize: 0xB0 }
  - { offset: 0x110D6B, size: 0x8, addend: 0x0, symName: __ZN13llama_context14set_embeddingsEb, symObjAddr: 0x49E8, symBinAddr: 0x19ACC, symSize: 0x48 }
  - { offset: 0x110DA6, size: 0x8, addend: 0x0, symName: __ZN13llama_context15set_causal_attnEb, symObjAddr: 0x4A30, symBinAddr: 0x19B14, symSize: 0x64 }
  - { offset: 0x110DE4, size: 0x8, addend: 0x0, symName: __ZN13llama_context10set_warmupEb, symObjAddr: 0x4A94, symBinAddr: 0x19B78, symSize: 0x54 }
  - { offset: 0x110E68, size: 0x8, addend: 0x0, symName: __ZN13llama_context16set_adapter_loraEP18llama_adapter_loraf, symObjAddr: 0x4AE8, symBinAddr: 0x19BCC, symSize: 0xC4 }
  - { offset: 0x110F36, size: 0x8, addend: 0x0, symName: __ZNSt3__112__hash_tableINS_17__hash_value_typeIP18llama_adapter_lorafEENS_22__unordered_map_hasherIS3_S4_NS_4hashIS3_EENS_8equal_toIS3_EELb1EEENS_21__unordered_map_equalIS3_S4_S9_S7_Lb1EEENS_9allocatorIS4_EEE4findIS3_EENS_15__hash_iteratorIPNS_11__hash_nodeIS4_PvEEEERKT_, symObjAddr: 0xEAB0, symBinAddr: 0x2373C, symSize: 0x110 }
  - { offset: 0x110F8D, size: 0x8, addend: 0x0, symName: __ZNSt3__112__hash_tableINS_17__hash_value_typeIP18llama_adapter_lorafEENS_22__unordered_map_hasherIS3_S4_NS_4hashIS3_EENS_8equal_toIS3_EELb1EEENS_21__unordered_map_equalIS3_S4_S9_S7_Lb1EEENS_9allocatorIS4_EEE4findIS3_EENS_15__hash_iteratorIPNS_11__hash_nodeIS4_PvEEEERKT_, symObjAddr: 0xEAB0, symBinAddr: 0x2373C, symSize: 0x110 }
  - { offset: 0x110FA9, size: 0x8, addend: 0x0, symName: __ZNSt3__112__hash_tableINS_17__hash_value_typeIP18llama_adapter_lorafEENS_22__unordered_map_hasherIS3_S4_NS_4hashIS3_EENS_8equal_toIS3_EELb1EEENS_21__unordered_map_equalIS3_S4_S9_S7_Lb1EEENS_9allocatorIS4_EEE4findIS3_EENS_15__hash_iteratorIPNS_11__hash_nodeIS4_PvEEEERKT_, symObjAddr: 0xEAB0, symBinAddr: 0x2373C, symSize: 0x110 }
  - { offset: 0x1110A3, size: 0x8, addend: 0x0, symName: __ZNSt3__112__hash_tableINS_17__hash_value_typeIP18llama_adapter_lorafEENS_22__unordered_map_hasherIS3_S4_NS_4hashIS3_EENS_8equal_toIS3_EELb1EEENS_21__unordered_map_equalIS3_S4_S9_S7_Lb1EEENS_9allocatorIS4_EEE25__emplace_unique_key_argsIS3_JRKNS_21piecewise_construct_tENS_5tupleIJRKS3_EEENSK_IJEEEEEENS_4pairINS_15__hash_iteratorIPNS_11__hash_nodeIS4_PvEEEEbEERKT_DpOT0_, symObjAddr: 0xEBC0, symBinAddr: 0x2384C, symSize: 0x360 }
  - { offset: 0x1119C7, size: 0x8, addend: 0x0, symName: __ZN13llama_context15rm_adapter_loraEP18llama_adapter_lora, symObjAddr: 0x4BAC, symBinAddr: 0x19C90, symSize: 0x88 }
  - { offset: 0x111C09, size: 0x8, addend: 0x0, symName: __ZNSt3__112__hash_tableINS_17__hash_value_typeIP18llama_adapter_lorafEENS_22__unordered_map_hasherIS3_S4_NS_4hashIS3_EENS_8equal_toIS3_EELb1EEENS_21__unordered_map_equalIS3_S4_S9_S7_Lb1EEENS_9allocatorIS4_EEE6removeENS_21__hash_const_iteratorIPNS_11__hash_nodeIS4_PvEEEE, symObjAddr: 0xF0A0, symBinAddr: 0x23D2C, symSize: 0x138 }
  - { offset: 0x111C7F, size: 0x8, addend: 0x0, symName: __ZNSt3__112__hash_tableINS_17__hash_value_typeIP18llama_adapter_lorafEENS_22__unordered_map_hasherIS3_S4_NS_4hashIS3_EENS_8equal_toIS3_EELb1EEENS_21__unordered_map_equalIS3_S4_S9_S7_Lb1EEENS_9allocatorIS4_EEE6removeENS_21__hash_const_iteratorIPNS_11__hash_nodeIS4_PvEEEE, symObjAddr: 0xF0A0, symBinAddr: 0x23D2C, symSize: 0x138 }
  - { offset: 0x111C9B, size: 0x8, addend: 0x0, symName: __ZNSt3__112__hash_tableINS_17__hash_value_typeIP18llama_adapter_lorafEENS_22__unordered_map_hasherIS3_S4_NS_4hashIS3_EENS_8equal_toIS3_EELb1EEENS_21__unordered_map_equalIS3_S4_S9_S7_Lb1EEENS_9allocatorIS4_EEE6removeENS_21__hash_const_iteratorIPNS_11__hash_nodeIS4_PvEEEE, symObjAddr: 0xF0A0, symBinAddr: 0x23D2C, symSize: 0x138 }
  - { offset: 0x111F41, size: 0x8, addend: 0x0, symName: __ZN13llama_context18clear_adapter_loraEv, symObjAddr: 0x4C34, symBinAddr: 0x19D18, symSize: 0x84 }
  - { offset: 0x11216F, size: 0x8, addend: 0x0, symName: __ZN13llama_context18apply_adapter_cvecEPKfmiii, symObjAddr: 0x4CB8, symBinAddr: 0x19D9C, symSize: 0x84 }
  - { offset: 0x1121ED, size: 0x8, addend: 0x0, symName: __ZN13llama_context14process_ubatchERK12llama_ubatch14llm_graph_typeP22llama_memory_context_iR11ggml_status, symObjAddr: 0x4D3C, symBinAddr: 0x19E20, symSize: 0x4F4 }
  - { offset: 0x112C8E, size: 0x8, addend: 0x0, symName: __ZN13llama_context13graph_computeEP11ggml_cgraphb, symObjAddr: 0x53B0, symBinAddr: 0x1A494, symSize: 0xE4 }
  - { offset: 0x112E67, size: 0x8, addend: 0x0, symName: __ZNK13llama_context12graph_paramsEP16llm_graph_resultRK12llama_ubatchPK22llama_memory_context_i14llm_graph_type, symObjAddr: 0x5230, symBinAddr: 0x1A314, symSize: 0x180 }
  - { offset: 0x113B04, size: 0x8, addend: 0x0, symName: __ZN13llama_context6encodeERK11llama_batch, symObjAddr: 0x5534, symBinAddr: 0x1A618, symSize: 0xB7C }
  - { offset: 0x1164F1, size: 0x8, addend: 0x0, symName: __ZN13llama_context6decodeERK11llama_batch, symObjAddr: 0x610C, symBinAddr: 0x1B194, symSize: 0x1774 }
  - { offset: 0x118FD9, size: 0x8, addend: 0x0, symName: __ZL24copy_tensor_async_floatsRKNSt3__13mapIiP11ggml_tensorNS_4lessIiEENS_9allocatorINS_4pairIKiS2_EEEEEEPfmRNS_6vectorIjNS5_IjEEEERKNS0_IijS4_NS5_INS6_IS7_jEEEEEEP18ggml_backend_sched, symObjAddr: 0x7880, symBinAddr: 0x1C908, symSize: 0x1A0 }
  - { offset: 0x119377, size: 0x8, addend: 0x0, symName: __ZNSt3__16vectorIN13llama_context9swap_infoENS_9allocatorIS2_EEE9push_backB8ne200100EOS2_, symObjAddr: 0x7A20, symBinAddr: 0x1CAA8, symSize: 0xEC }
  - { offset: 0x11939D, size: 0x8, addend: 0x0, symName: __ZNSt3__16__treeINS_12__value_typeIijEENS_19__map_value_compareIiS2_NS_4lessIiEELb1EEENS_9allocatorIS2_EEE7destroyEPNS_11__tree_nodeIS2_PvEE, symObjAddr: 0xF544, symBinAddr: 0x23E64, symSize: 0x44 }
  - { offset: 0x1194B4, size: 0x8, addend: 0x0, symName: __ZNSt3__16vectorIN13llama_context9swap_infoENS_9allocatorIS2_EEE9push_backB8ne200100EOS2_, symObjAddr: 0x7A20, symBinAddr: 0x1CAA8, symSize: 0xEC }
  - { offset: 0x1198C5, size: 0x8, addend: 0x0, symName: __ZNK13llama_context18get_gf_res_reserveEv, symObjAddr: 0x7B0C, symBinAddr: 0x1CB94, symSize: 0x8 }
  - { offset: 0x119B97, size: 0x8, addend: 0x0, symName: __ZNSt3__16vectorIN13llama_context9swap_infoENS_9allocatorIS2_EEE20__throw_length_errorB8ne200100Ev, symObjAddr: 0xF588, symBinAddr: 0x23EA8, symSize: 0x14 }
  - { offset: 0x119BAF, size: 0x8, addend: 0x0, symName: __ZNSt3__16vectorIjNS_9allocatorIjEEE8__appendEm, symObjAddr: 0xF59C, symBinAddr: 0x23EBC, symSize: 0x120 }
  - { offset: 0x119BBA, size: 0x8, addend: 0x0, symName: __ZNK13llama_context18get_gf_res_reserveEv, symObjAddr: 0x7B0C, symBinAddr: 0x1CB94, symSize: 0x8 }
  - { offset: 0x119BE6, size: 0x8, addend: 0x0, symName: __ZNK13llama_context18get_gf_res_reserveEv, symObjAddr: 0x7B0C, symBinAddr: 0x1CB94, symSize: 0x8 }
  - { offset: 0x119CFD, size: 0x8, addend: 0x0, symName: __ZN13llama_context14state_get_sizeEv, symObjAddr: 0x7B28, symBinAddr: 0x1CBB0, symSize: 0xA0 }
  - { offset: 0x119DBF, size: 0x8, addend: 0x0, symName: __ZN13llama_context16state_write_dataER16llama_io_write_i, symObjAddr: 0x7BC8, symBinAddr: 0x1CC50, symSize: 0x354 }
  - { offset: 0x11A8DE, size: 0x8, addend: 0x0, symName: __ZN20llama_io_write_dummyD1Ev, symObjAddr: 0x7F1C, symBinAddr: 0x1CFA4, symSize: 0x4 }
  - { offset: 0x11AA57, size: 0x8, addend: 0x0, symName: __ZN13llama_context14state_get_dataEPhm, symObjAddr: 0x7F20, symBinAddr: 0x1CFA8, symSize: 0xA4 }
  - { offset: 0x11AB55, size: 0x8, addend: 0x0, symName: __ZN21llama_io_write_bufferD1Ev, symObjAddr: 0x7FC4, symBinAddr: 0x1D04C, symSize: 0x4 }
  - { offset: 0x11ACC8, size: 0x8, addend: 0x0, symName: __ZN13llama_context14state_set_dataEPKhm, symObjAddr: 0x7FC8, symBinAddr: 0x1D050, symSize: 0xA4 }
  - { offset: 0x11ADC6, size: 0x8, addend: 0x0, symName: __ZN13llama_context15state_read_dataER15llama_io_read_i, symObjAddr: 0x806C, symBinAddr: 0x1D0F4, symSize: 0x544 }
  - { offset: 0x11BE51, size: 0x8, addend: 0x0, symName: __ZN20llama_io_read_bufferD1Ev, symObjAddr: 0x85B0, symBinAddr: 0x1D638, symSize: 0x4 }
  - { offset: 0x11BEBA, size: 0x8, addend: 0x0, symName: __ZN13llama_context18state_seq_get_sizeEij, symObjAddr: 0x85B4, symBinAddr: 0x1D63C, symSize: 0xC8 }
  - { offset: 0x11BFEF, size: 0x8, addend: 0x0, symName: __ZN13llama_context20state_seq_write_dataER16llama_io_write_iij, symObjAddr: 0x867C, symBinAddr: 0x1D704, symSize: 0x40 }
  - { offset: 0x11C06B, size: 0x8, addend: 0x0, symName: __ZN13llama_context18state_seq_get_dataEiPhmj, symObjAddr: 0x86BC, symBinAddr: 0x1D744, symSize: 0xD4 }
  - { offset: 0x11C219, size: 0x8, addend: 0x0, symName: __ZN13llama_context18state_seq_set_dataEiPKhmj, symObjAddr: 0x8790, symBinAddr: 0x1D818, symSize: 0xD4 }
  - { offset: 0x11C38A, size: 0x8, addend: 0x0, symName: __ZN13llama_context19state_seq_read_dataER15llama_io_read_iij, symObjAddr: 0x8864, symBinAddr: 0x1D8EC, symSize: 0x40 }
  - { offset: 0x11C859, size: 0x8, addend: 0x0, symName: __ZN13llama_context15state_load_fileEPKcPimPm, symObjAddr: 0x88A4, symBinAddr: 0x1D92C, symSize: 0x1D0 }
  - { offset: 0x11CCEE, size: 0x8, addend: 0x0, symName: __ZN18llama_io_read_fileD1Ev, symObjAddr: 0x8A74, symBinAddr: 0x1DAFC, symSize: 0x44 }
  - { offset: 0x11CD12, size: 0x8, addend: 0x0, symName: __ZN18llama_io_read_fileD1Ev, symObjAddr: 0x8A74, symBinAddr: 0x1DAFC, symSize: 0x44 }
  - { offset: 0x11CFC3, size: 0x8, addend: 0x0, symName: __ZN13llama_context15state_save_fileEPKcPKim, symObjAddr: 0x8AB8, symBinAddr: 0x1DB40, symSize: 0x104 }
  - { offset: 0x11D39C, size: 0x8, addend: 0x0, symName: __ZN19llama_io_write_fileD1Ev, symObjAddr: 0x8BBC, symBinAddr: 0x1DC44, symSize: 0x44 }
  - { offset: 0x11D3C0, size: 0x8, addend: 0x0, symName: __ZN19llama_io_write_fileD1Ev, symObjAddr: 0x8BBC, symBinAddr: 0x1DC44, symSize: 0x44 }
  - { offset: 0x11D507, size: 0x8, addend: 0x0, symName: __ZN13llama_context19state_seq_load_fileEiPKcPimPm, symObjAddr: 0x8C00, symBinAddr: 0x1DC88, symSize: 0x278 }
  - { offset: 0x11DA2D, size: 0x8, addend: 0x0, symName: __ZN13llama_context19state_seq_save_fileEiPKcPKim, symObjAddr: 0x8E78, symBinAddr: 0x1DF00, symSize: 0x198 }
  - { offset: 0x11DEC5, size: 0x8, addend: 0x0, symName: __ZN19llama_io_write_file7n_bytesEv, symObjAddr: 0x9010, symBinAddr: 0x1E098, symSize: 0x8 }
  - { offset: 0x11DEE7, size: 0x8, addend: 0x0, symName: __ZNK13llama_context13perf_get_dataEv, symObjAddr: 0x9018, symBinAddr: 0x1E0A0, symSize: 0x54 }
  - { offset: 0x11DFCB, size: 0x8, addend: 0x0, symName: __ZN13llama_context10perf_resetEv, symObjAddr: 0x906C, symBinAddr: 0x1E0F4, symSize: 0x38 }
  - { offset: 0x11E74B, size: 0x8, addend: 0x0, symName: __ZNK13llama_context16memory_breakdownEv, symObjAddr: 0x90A4, symBinAddr: 0x1E12C, symSize: 0x500 }
  - { offset: 0x11FB40, size: 0x8, addend: 0x0, symName: __ZNSt3__16__treeINS_12__value_typeIP24ggml_backend_buffer_typemEENS_19__map_value_compareIS3_S4_NS_4lessIS3_EELb1EEENS_9allocatorIS4_EEE7destroyEPNS_11__tree_nodeIS4_PvEE, symObjAddr: 0xFBA8, symBinAddr: 0x244C8, symSize: 0x44 }
  - { offset: 0x11FC6F, size: 0x8, addend: 0x0, symName: __ZNSt3__16__treeINS_12__value_typeIP24ggml_backend_buffer_type27llama_memory_breakdown_dataEENS_19__map_value_compareIS3_S5_NS_4lessIS3_EELb1EEENS_9allocatorIS5_EEE7destroyEPNS_11__tree_nodeIS5_PvEE, symObjAddr: 0xFB64, symBinAddr: 0x24484, symSize: 0x44 }
  - { offset: 0x11FE20, size: 0x8, addend: 0x0, symName: __ZN13llama_context8opt_initEP11llama_model16llama_opt_params, symObjAddr: 0x95A4, symBinAddr: 0x1E62C, symSize: 0x5E8 }
  - { offset: 0x12075A, size: 0x8, addend: 0x0, symName: __ZN13llama_context14opt_epoch_iterEP16ggml_opt_datasetP15ggml_opt_resultRKNSt3__16vectorIiNS4_9allocatorIiEEEESA_R11llama_batchPFvbP16ggml_opt_contextS1_S3_xxxEbxxx, symObjAddr: 0x9B8C, symBinAddr: 0x1EC14, symSize: 0x798 }
  - { offset: 0x12088B, size: 0x8, addend: 0x0, symName: __ZN13llama_context14opt_epoch_iterEP16ggml_opt_datasetP15ggml_opt_resultRKNSt3__16vectorIiNS4_9allocatorIiEEEESA_R11llama_batchPFvbP16ggml_opt_contextS1_S3_xxxEbxxx, symObjAddr: 0x9B8C, symBinAddr: 0x1EC14, symSize: 0x798 }
  - { offset: 0x1218D0, size: 0x8, addend: 0x0, symName: __ZN13llama_context9opt_epochEP16ggml_opt_datasetP15ggml_opt_resultS3_xPFvbP16ggml_opt_contextS1_S3_xxxES7_, symObjAddr: 0xA324, symBinAddr: 0x1F3AC, symSize: 0x2C4 }
  - { offset: 0x12241A, size: 0x8, addend: 0x0, symName: _llama_context_default_params, symObjAddr: 0xA5E8, symBinAddr: 0x1F670, symSize: 0x34 }
  - { offset: 0x122478, size: 0x8, addend: 0x0, symName: _llama_init_from_model, symObjAddr: 0xA61C, symBinAddr: 0x1F6A4, symSize: 0x2D4 }
  - { offset: 0x12263C, size: 0x8, addend: 0x0, symName: _llama_new_context_with_model, symObjAddr: 0xA8F0, symBinAddr: 0x1F978, symSize: 0x48 }
  - { offset: 0x1226B0, size: 0x8, addend: 0x0, symName: _llama_free, symObjAddr: 0xA938, symBinAddr: 0x1F9C0, symSize: 0x1C }
  - { offset: 0x122701, size: 0x8, addend: 0x0, symName: _llama_n_ctx, symObjAddr: 0xA954, symBinAddr: 0x1F9DC, symSize: 0x8 }
  - { offset: 0x12272F, size: 0x8, addend: 0x0, symName: _llama_n_ctx, symObjAddr: 0xA954, symBinAddr: 0x1F9DC, symSize: 0x8 }
  - { offset: 0x122763, size: 0x8, addend: 0x0, symName: _llama_n_ctx_seq, symObjAddr: 0xA95C, symBinAddr: 0x1F9E4, symSize: 0x8 }
  - { offset: 0x122791, size: 0x8, addend: 0x0, symName: _llama_n_ctx_seq, symObjAddr: 0xA95C, symBinAddr: 0x1F9E4, symSize: 0x8 }
  - { offset: 0x1227AC, size: 0x8, addend: 0x0, symName: _llama_n_batch, symObjAddr: 0xA964, symBinAddr: 0x1F9EC, symSize: 0x8 }
  - { offset: 0x1227DA, size: 0x8, addend: 0x0, symName: _llama_n_batch, symObjAddr: 0xA964, symBinAddr: 0x1F9EC, symSize: 0x8 }
  - { offset: 0x12280E, size: 0x8, addend: 0x0, symName: _llama_n_ubatch, symObjAddr: 0xA96C, symBinAddr: 0x1F9F4, symSize: 0x8 }
  - { offset: 0x12283C, size: 0x8, addend: 0x0, symName: _llama_n_ubatch, symObjAddr: 0xA96C, symBinAddr: 0x1F9F4, symSize: 0x8 }
  - { offset: 0x122857, size: 0x8, addend: 0x0, symName: _llama_n_seq_max, symObjAddr: 0xA974, symBinAddr: 0x1F9FC, symSize: 0x8 }
  - { offset: 0x122885, size: 0x8, addend: 0x0, symName: _llama_n_seq_max, symObjAddr: 0xA974, symBinAddr: 0x1F9FC, symSize: 0x8 }
  - { offset: 0x1228B9, size: 0x8, addend: 0x0, symName: _llama_get_model, symObjAddr: 0xA97C, symBinAddr: 0x1FA04, symSize: 0x8 }
  - { offset: 0x1228E7, size: 0x8, addend: 0x0, symName: _llama_get_model, symObjAddr: 0xA97C, symBinAddr: 0x1FA04, symSize: 0x8 }
  - { offset: 0x12291B, size: 0x8, addend: 0x0, symName: _llama_pooling_type, symObjAddr: 0xA984, symBinAddr: 0x1FA0C, symSize: 0x8 }
  - { offset: 0x122949, size: 0x8, addend: 0x0, symName: _llama_pooling_type, symObjAddr: 0xA984, symBinAddr: 0x1FA0C, symSize: 0x8 }
  - { offset: 0x122995, size: 0x8, addend: 0x0, symName: _llama_attach_threadpool, symObjAddr: 0xA98C, symBinAddr: 0x1FA14, symSize: 0x60 }
  - { offset: 0x122A34, size: 0x8, addend: 0x0, symName: _llama_detach_threadpool, symObjAddr: 0xA9EC, symBinAddr: 0x1FA74, symSize: 0x4C }
  - { offset: 0x122ABD, size: 0x8, addend: 0x0, symName: _llama_set_n_threads, symObjAddr: 0xAA38, symBinAddr: 0x1FAC0, symSize: 0x58 }
  - { offset: 0x122B5C, size: 0x8, addend: 0x0, symName: _llama_n_threads, symObjAddr: 0xAA90, symBinAddr: 0x1FB18, symSize: 0x8 }
  - { offset: 0x122B8A, size: 0x8, addend: 0x0, symName: _llama_n_threads, symObjAddr: 0xAA90, symBinAddr: 0x1FB18, symSize: 0x8 }
  - { offset: 0x122BBE, size: 0x8, addend: 0x0, symName: _llama_n_threads_batch, symObjAddr: 0xAA98, symBinAddr: 0x1FB20, symSize: 0x8 }
  - { offset: 0x122BEC, size: 0x8, addend: 0x0, symName: _llama_n_threads_batch, symObjAddr: 0xAA98, symBinAddr: 0x1FB20, symSize: 0x8 }
  - { offset: 0x122C2C, size: 0x8, addend: 0x0, symName: _llama_set_embeddings, symObjAddr: 0xAAA0, symBinAddr: 0x1FB28, symSize: 0x48 }
  - { offset: 0x122CB9, size: 0x8, addend: 0x0, symName: _llama_set_causal_attn, symObjAddr: 0xAAE8, symBinAddr: 0x1FB70, symSize: 0x64 }
  - { offset: 0x122D4F, size: 0x8, addend: 0x0, symName: _llama_set_warmup, symObjAddr: 0xAB4C, symBinAddr: 0x1FBD4, symSize: 0x54 }
  - { offset: 0x122DC0, size: 0x8, addend: 0x0, symName: _llama_synchronize, symObjAddr: 0xABA0, symBinAddr: 0x1FC28, symSize: 0x4 }
  - { offset: 0x122DE9, size: 0x8, addend: 0x0, symName: _llama_synchronize, symObjAddr: 0xABA0, symBinAddr: 0x1FC28, symSize: 0x4 }
  - { offset: 0x122E15, size: 0x8, addend: 0x0, symName: _llama_get_logits, symObjAddr: 0xABA4, symBinAddr: 0x1FC2C, symSize: 0x2C }
  - { offset: 0x122E87, size: 0x8, addend: 0x0, symName: _llama_get_logits_ith, symObjAddr: 0xABD0, symBinAddr: 0x1FC58, symSize: 0x48 }
  - { offset: 0x122F29, size: 0x8, addend: 0x0, symName: _llama_get_embeddings, symObjAddr: 0xAC18, symBinAddr: 0x1FCA0, symSize: 0x2C }
  - { offset: 0x122F9B, size: 0x8, addend: 0x0, symName: _llama_get_embeddings_ith, symObjAddr: 0xAC44, symBinAddr: 0x1FCCC, symSize: 0x2C }
  - { offset: 0x12302B, size: 0x8, addend: 0x0, symName: _llama_get_embeddings_seq, symObjAddr: 0xAC70, symBinAddr: 0x1FCF8, symSize: 0x74 }
  - { offset: 0x1231D0, size: 0x8, addend: 0x0, symName: _llama_set_sampler, symObjAddr: 0xACE4, symBinAddr: 0x1FD6C, symSize: 0x4 }
  - { offset: 0x123219, size: 0x8, addend: 0x0, symName: _llama_set_sampler, symObjAddr: 0xACE4, symBinAddr: 0x1FD6C, symSize: 0x4 }
  - { offset: 0x12323A, size: 0x8, addend: 0x0, symName: _llama_get_sampled_token_ith, symObjAddr: 0xACE8, symBinAddr: 0x1FD70, symSize: 0x2C }
  - { offset: 0x123299, size: 0x8, addend: 0x0, symName: _llama_get_sampled_probs_ith, symObjAddr: 0xAD14, symBinAddr: 0x1FD9C, symSize: 0x2C }
  - { offset: 0x1232F8, size: 0x8, addend: 0x0, symName: _llama_get_sampled_logits_ith, symObjAddr: 0xAD40, symBinAddr: 0x1FDC8, symSize: 0x2C }
  - { offset: 0x12339B, size: 0x8, addend: 0x0, symName: _llama_get_sampled_candidates_ith, symObjAddr: 0xAD6C, symBinAddr: 0x1FDF4, symSize: 0xA8 }
  - { offset: 0x123489, size: 0x8, addend: 0x0, symName: _llama_get_sampled_candidates_count_ith, symObjAddr: 0xAE14, symBinAddr: 0x1FE9C, symSize: 0x30 }
  - { offset: 0x1234F4, size: 0x8, addend: 0x0, symName: _llama_get_sampled_logits_count_ith, symObjAddr: 0xAE44, symBinAddr: 0x1FECC, symSize: 0x30 }
  - { offset: 0x12355F, size: 0x8, addend: 0x0, symName: _llama_get_sampled_probs_count_ith, symObjAddr: 0xAE74, symBinAddr: 0x1FEFC, symSize: 0x30 }
  - { offset: 0x123609, size: 0x8, addend: 0x0, symName: _llama_set_adapter_lora, symObjAddr: 0xAEA4, symBinAddr: 0x1FF2C, symSize: 0xB0 }
  - { offset: 0x12374E, size: 0x8, addend: 0x0, symName: _llama_rm_adapter_lora, symObjAddr: 0xAF54, symBinAddr: 0x1FFDC, symSize: 0x88 }
  - { offset: 0x1239AF, size: 0x8, addend: 0x0, symName: _llama_clear_adapter_lora, symObjAddr: 0xAFDC, symBinAddr: 0x20064, symSize: 0x84 }
  - { offset: 0x123C55, size: 0x8, addend: 0x0, symName: _llama_apply_adapter_cvec, symObjAddr: 0xB060, symBinAddr: 0x200E8, symSize: 0x8C }
  - { offset: 0x123D55, size: 0x8, addend: 0x0, symName: _llama_get_memory, symObjAddr: 0xB0EC, symBinAddr: 0x20174, symSize: 0x8 }
  - { offset: 0x123D83, size: 0x8, addend: 0x0, symName: _llama_get_memory, symObjAddr: 0xB0EC, symBinAddr: 0x20174, symSize: 0x8 }
  - { offset: 0x123D9F, size: 0x8, addend: 0x0, symName: _llama_get_memory, symObjAddr: 0xB0EC, symBinAddr: 0x20174, symSize: 0x8 }
  - { offset: 0x123DBE, size: 0x8, addend: 0x0, symName: _llama_memory_clear, symObjAddr: 0xB0F4, symBinAddr: 0x2017C, symSize: 0x14 }
  - { offset: 0x123E03, size: 0x8, addend: 0x0, symName: _llama_memory_seq_rm, symObjAddr: 0xB108, symBinAddr: 0x20190, symSize: 0x18 }
  - { offset: 0x123E65, size: 0x8, addend: 0x0, symName: _llama_memory_seq_cp, symObjAddr: 0xB120, symBinAddr: 0x201A8, symSize: 0x14 }
  - { offset: 0x123ECF, size: 0x8, addend: 0x0, symName: _llama_memory_seq_keep, symObjAddr: 0xB134, symBinAddr: 0x201BC, symSize: 0x14 }
  - { offset: 0x123F0F, size: 0x8, addend: 0x0, symName: _llama_memory_seq_add, symObjAddr: 0xB148, symBinAddr: 0x201D0, symSize: 0x14 }
  - { offset: 0x123F79, size: 0x8, addend: 0x0, symName: _llama_memory_seq_div, symObjAddr: 0xB15C, symBinAddr: 0x201E4, symSize: 0x14 }
  - { offset: 0x123FE3, size: 0x8, addend: 0x0, symName: _llama_memory_seq_pos_min, symObjAddr: 0xB170, symBinAddr: 0x201F8, symSize: 0x18 }
  - { offset: 0x124029, size: 0x8, addend: 0x0, symName: _llama_memory_seq_pos_max, symObjAddr: 0xB188, symBinAddr: 0x20210, symSize: 0x18 }
  - { offset: 0x12406F, size: 0x8, addend: 0x0, symName: _llama_memory_can_shift, symObjAddr: 0xB1A0, symBinAddr: 0x20228, symSize: 0x14 }
  - { offset: 0x1240C0, size: 0x8, addend: 0x0, symName: _llama_get_state_size, symObjAddr: 0xB1B4, symBinAddr: 0x2023C, symSize: 0x4 }
  - { offset: 0x1240EC, size: 0x8, addend: 0x0, symName: _llama_get_state_size, symObjAddr: 0xB1B4, symBinAddr: 0x2023C, symSize: 0x4 }
  - { offset: 0x12410A, size: 0x8, addend: 0x0, symName: _llama_get_state_size, symObjAddr: 0xB1B4, symBinAddr: 0x2023C, symSize: 0x4 }
  - { offset: 0x12411D, size: 0x8, addend: 0x0, symName: _llama_state_get_size, symObjAddr: 0xB1B8, symBinAddr: 0x20240, symSize: 0x4 }
  - { offset: 0x12413C, size: 0x8, addend: 0x0, symName: _llama_state_get_size, symObjAddr: 0xB1B8, symBinAddr: 0x20240, symSize: 0x4 }
  - { offset: 0x124182, size: 0x8, addend: 0x0, symName: _llama_copy_state_data, symObjAddr: 0xB1BC, symBinAddr: 0x20244, symSize: 0x30 }
  - { offset: 0x124219, size: 0x8, addend: 0x0, symName: _llama_state_get_data, symObjAddr: 0xB1EC, symBinAddr: 0x20274, symSize: 0x3C }
  - { offset: 0x12429F, size: 0x8, addend: 0x0, symName: _llama_set_state_data, symObjAddr: 0xB228, symBinAddr: 0x202B0, symSize: 0x30 }
  - { offset: 0x124336, size: 0x8, addend: 0x0, symName: _llama_state_set_data, symObjAddr: 0xB258, symBinAddr: 0x202E0, symSize: 0x3C }
  - { offset: 0x124389, size: 0x8, addend: 0x0, symName: _llama_load_session_file, symObjAddr: 0xB294, symBinAddr: 0x2031C, symSize: 0x4 }
  - { offset: 0x1243EE, size: 0x8, addend: 0x0, symName: _llama_load_session_file, symObjAddr: 0xB294, symBinAddr: 0x2031C, symSize: 0x4 }
  - { offset: 0x12441D, size: 0x8, addend: 0x0, symName: _llama_state_load_file, symObjAddr: 0xB298, symBinAddr: 0x20320, symSize: 0xD0 }
  - { offset: 0x1244F9, size: 0x8, addend: 0x0, symName: _llama_save_session_file, symObjAddr: 0xB368, symBinAddr: 0x203F0, symSize: 0x4 }
  - { offset: 0x124550, size: 0x8, addend: 0x0, symName: _llama_save_session_file, symObjAddr: 0xB368, symBinAddr: 0x203F0, symSize: 0x4 }
  - { offset: 0x124578, size: 0x8, addend: 0x0, symName: _llama_state_save_file, symObjAddr: 0xB36C, symBinAddr: 0x203F4, symSize: 0xC0 }
  - { offset: 0x124671, size: 0x8, addend: 0x0, symName: _llama_state_seq_get_size, symObjAddr: 0xB42C, symBinAddr: 0x204B4, symSize: 0x8 }
  - { offset: 0x1246AB, size: 0x8, addend: 0x0, symName: _llama_state_seq_get_size, symObjAddr: 0xB42C, symBinAddr: 0x204B4, symSize: 0x8 }
  - { offset: 0x1246F6, size: 0x8, addend: 0x0, symName: _llama_state_seq_get_size_ext, symObjAddr: 0xB434, symBinAddr: 0x204BC, symSize: 0x4 }
  - { offset: 0x124723, size: 0x8, addend: 0x0, symName: _llama_state_seq_get_size_ext, symObjAddr: 0xB434, symBinAddr: 0x204BC, symSize: 0x4 }
  - { offset: 0x12478F, size: 0x8, addend: 0x0, symName: _llama_state_seq_get_data, symObjAddr: 0xB438, symBinAddr: 0x204C0, symSize: 0x48 }
  - { offset: 0x124855, size: 0x8, addend: 0x0, symName: _llama_state_seq_get_data_ext, symObjAddr: 0xB480, symBinAddr: 0x20508, symSize: 0x54 }
  - { offset: 0x124905, size: 0x8, addend: 0x0, symName: _llama_state_seq_set_data, symObjAddr: 0xB4D4, symBinAddr: 0x2055C, symSize: 0x48 }
  - { offset: 0x1249CB, size: 0x8, addend: 0x0, symName: _llama_state_seq_set_data_ext, symObjAddr: 0xB51C, symBinAddr: 0x205A4, symSize: 0x54 }
  - { offset: 0x124A30, size: 0x8, addend: 0x0, symName: _llama_state_seq_save_file, symObjAddr: 0xB570, symBinAddr: 0x205F8, symSize: 0xD0 }
  - { offset: 0x124B0C, size: 0x8, addend: 0x0, symName: _llama_state_seq_load_file, symObjAddr: 0xB640, symBinAddr: 0x206C8, symSize: 0xD8 }
  - { offset: 0x124BFE, size: 0x8, addend: 0x0, symName: _llama_encode, symObjAddr: 0xB718, symBinAddr: 0x207A0, symSize: 0x4C }
  - { offset: 0x124C79, size: 0x8, addend: 0x0, symName: _llama_decode, symObjAddr: 0xB764, symBinAddr: 0x207EC, symSize: 0x50 }
  - { offset: 0x124D19, size: 0x8, addend: 0x0, symName: _llama_perf_context, symObjAddr: 0xB7B4, symBinAddr: 0x2083C, symSize: 0x60 }
  - { offset: 0x124E3E, size: 0x8, addend: 0x0, symName: _llama_perf_context_print, symObjAddr: 0xB814, symBinAddr: 0x2089C, symSize: 0x1A8 }
  - { offset: 0x125014, size: 0x8, addend: 0x0, symName: _llama_perf_context_reset, symObjAddr: 0xB9BC, symBinAddr: 0x20A44, symSize: 0x38 }
  - { offset: 0x1263DD, size: 0x8, addend: 0x0, symName: _llama_memory_breakdown_print, symObjAddr: 0xB9F4, symBinAddr: 0x20A7C, symSize: 0x1E84 }
  - { offset: 0x12D5A9, size: 0x8, addend: 0x0, symName: __ZNSt3__128__exception_guard_exceptionsINS_6vectorINS_12basic_stringIcNS_11char_traitsIcEENS_9allocatorIcEEEENS5_IS7_EEE16__destroy_vectorEED1B8ne200100Ev, symObjAddr: 0xFC88, symBinAddr: 0x24520, symSize: 0x80 }
  - { offset: 0x12D5B4, size: 0x8, addend: 0x0, symName: __ZNSt3__15arrayINS_12basic_stringIcNS_11char_traitsIcEENS_9allocatorIcEEEELm9EED2Ev, symObjAddr: 0xE3BC, symBinAddr: 0x231A4, symSize: 0x100 }
  - { offset: 0x12D6FE, size: 0x8, addend: 0x0, symName: __ZNSt3__16__treeIP24ggml_backend_buffer_typeNS_4lessIS2_EENS_9allocatorIS2_EEE7destroyEPNS_11__tree_nodeIS2_PvEE, symObjAddr: 0xFD08, symBinAddr: 0x245A0, symSize: 0x44 }
  - { offset: 0x12D82A, size: 0x8, addend: 0x0, symName: __ZNSt3__16vectorINS_5arrayINS_12basic_stringIcNS_11char_traitsIcEENS_9allocatorIcEEEELm9EEENS5_IS8_EEE20__throw_length_errorB8ne200100Ev, symObjAddr: 0xFBEC, symBinAddr: 0x2450C, symSize: 0x14 }
  - { offset: 0x12D84D, size: 0x8, addend: 0x0, symName: __ZNSt3__16vectorI27llama_memory_breakdown_dataNS_9allocatorIS1_EEE20__throw_length_errorB8ne200100Ev, symObjAddr: 0xFD4C, symBinAddr: 0x245E4, symSize: 0x14 }
  - { offset: 0x12D870, size: 0x8, addend: 0x0, symName: __ZNSt3__128__exception_guard_exceptionsINS_6vectorINS_12basic_stringIcNS_11char_traitsIcEENS_9allocatorIcEEEENS5_IS7_EEE16__destroy_vectorEED1B8ne200100Ev, symObjAddr: 0xFC88, symBinAddr: 0x24520, symSize: 0x80 }
  - { offset: 0x12DADE, size: 0x8, addend: 0x0, symName: __ZNSt3__16vectorINS_12basic_stringIcNS_11char_traitsIcEENS_9allocatorIcEEEENS4_IS6_EEED1B8ne200100Ev, symObjAddr: 0xD878, symBinAddr: 0x22900, symSize: 0x70 }
  - { offset: 0x12DD3E, size: 0x8, addend: 0x0, symName: __ZNSt3__16vectorINS_5arrayINS_12basic_stringIcNS_11char_traitsIcEENS_9allocatorIcEEEELm9EEENS5_IS8_EEED1B8ne200100Ev, symObjAddr: 0xD8E8, symBinAddr: 0x22970, symSize: 0x58 }
  - { offset: 0x12DEE6, size: 0x8, addend: 0x0, symName: _llama_opt_param_filter_all, symObjAddr: 0xD940, symBinAddr: 0x229C8, symSize: 0x8 }
  - { offset: 0x12DF20, size: 0x8, addend: 0x0, symName: _llama_opt_init, symObjAddr: 0xD948, symBinAddr: 0x229D0, symSize: 0x30 }
  - { offset: 0x12DF8A, size: 0x8, addend: 0x0, symName: _llama_opt_epoch, symObjAddr: 0xD978, symBinAddr: 0x22A00, symSize: 0x4 }
  - { offset: 0x12E007, size: 0x8, addend: 0x0, symName: _llama_opt_epoch, symObjAddr: 0xD978, symBinAddr: 0x22A00, symSize: 0x4 }
  - { offset: 0x12ECC5, size: 0x8, addend: 0x0, symName: __ZN20llama_io_write_dummyD0Ev, symObjAddr: 0xDDD0, symBinAddr: 0x22C40, symSize: 0x4 }
  - { offset: 0x12ECF1, size: 0x8, addend: 0x0, symName: __ZN20llama_io_write_dummy5writeEPKvm, symObjAddr: 0xDDD4, symBinAddr: 0x22C44, symSize: 0x10 }
  - { offset: 0x12ED2F, size: 0x8, addend: 0x0, symName: __ZN20llama_io_write_dummy12write_tensorEPK11ggml_tensormm, symObjAddr: 0xDDE4, symBinAddr: 0x22C54, symSize: 0x10 }
  - { offset: 0x12ED78, size: 0x8, addend: 0x0, symName: __ZN20llama_io_write_dummy7n_bytesEv, symObjAddr: 0xDDF4, symBinAddr: 0x22C64, symSize: 0x8 }
  - { offset: 0x12ED9F, size: 0x8, addend: 0x0, symName: __ZN21llama_io_write_bufferD0Ev, symObjAddr: 0xDDFC, symBinAddr: 0x22C6C, symSize: 0x4 }
  - { offset: 0x12EDCB, size: 0x8, addend: 0x0, symName: __ZN21llama_io_write_buffer5writeEPKvm, symObjAddr: 0xDE00, symBinAddr: 0x22C70, symSize: 0x94 }
  - { offset: 0x12EE12, size: 0x8, addend: 0x0, symName: __ZN21llama_io_write_buffer12write_tensorEPK11ggml_tensormm, symObjAddr: 0xDE94, symBinAddr: 0x22D04, symSize: 0x9C }
  - { offset: 0x12EE93, size: 0x8, addend: 0x0, symName: __ZN21llama_io_write_buffer7n_bytesEv, symObjAddr: 0xDF30, symBinAddr: 0x22DA0, symSize: 0x8 }
  - { offset: 0x12EEBA, size: 0x8, addend: 0x0, symName: __ZN20llama_io_read_bufferD0Ev, symObjAddr: 0xDF38, symBinAddr: 0x22DA8, symSize: 0x4 }
  - { offset: 0x12EEE6, size: 0x8, addend: 0x0, symName: __ZN20llama_io_read_buffer4readEm, symObjAddr: 0xDF3C, symBinAddr: 0x22DAC, symSize: 0x84 }
  - { offset: 0x12EF2D, size: 0x8, addend: 0x0, symName: __ZN20llama_io_read_buffer7read_toEPvm, symObjAddr: 0xDFC0, symBinAddr: 0x22E30, symSize: 0x3C }
  - { offset: 0x12EF8F, size: 0x8, addend: 0x0, symName: __ZN20llama_io_read_buffer7n_bytesEv, symObjAddr: 0xDFFC, symBinAddr: 0x22E6C, symSize: 0x8 }
  - { offset: 0x12EFB6, size: 0x8, addend: 0x0, symName: __ZN18llama_io_read_fileD0Ev, symObjAddr: 0xE004, symBinAddr: 0x22E74, symSize: 0x44 }
  - { offset: 0x12EFE6, size: 0x8, addend: 0x0, symName: __ZN18llama_io_read_fileD0Ev, symObjAddr: 0xE004, symBinAddr: 0x22E74, symSize: 0x44 }
  - { offset: 0x12F004, size: 0x8, addend: 0x0, symName: __ZN18llama_io_read_fileD0Ev, symObjAddr: 0xE004, symBinAddr: 0x22E74, symSize: 0x44 }
  - { offset: 0x12F582, size: 0x8, addend: 0x0, symName: __ZN18llama_io_read_file4readEm, symObjAddr: 0xE048, symBinAddr: 0x22EB8, symSize: 0x108 }
  - { offset: 0x12FACD, size: 0x8, addend: 0x0, symName: __ZN18llama_io_read_file7read_toEPvm, symObjAddr: 0xE150, symBinAddr: 0x22FC0, symSize: 0x34 }
  - { offset: 0x12FAED, size: 0x8, addend: 0x0, symName: __ZN18llama_io_read_file7read_toEPvm, symObjAddr: 0xE150, symBinAddr: 0x22FC0, symSize: 0x34 }
  - { offset: 0x12FB34, size: 0x8, addend: 0x0, symName: __ZN18llama_io_read_file7n_bytesEv, symObjAddr: 0xE184, symBinAddr: 0x22FF4, symSize: 0x8 }
  - { offset: 0x12FBC0, size: 0x8, addend: 0x0, symName: __ZN19llama_io_write_fileD0Ev, symObjAddr: 0xE214, symBinAddr: 0x22FFC, symSize: 0x44 }
  - { offset: 0x12FBF0, size: 0x8, addend: 0x0, symName: __ZN19llama_io_write_fileD0Ev, symObjAddr: 0xE214, symBinAddr: 0x22FFC, symSize: 0x44 }
  - { offset: 0x12FC0E, size: 0x8, addend: 0x0, symName: __ZN19llama_io_write_fileD0Ev, symObjAddr: 0xE214, symBinAddr: 0x22FFC, symSize: 0x44 }
  - { offset: 0x12FD56, size: 0x8, addend: 0x0, symName: __ZN19llama_io_write_file5writeEPKvm, symObjAddr: 0xE258, symBinAddr: 0x23040, symSize: 0x34 }
  - { offset: 0x12FD9D, size: 0x8, addend: 0x0, symName: __ZN19llama_io_write_file12write_tensorEPK11ggml_tensormm, symObjAddr: 0xE28C, symBinAddr: 0x23074, symSize: 0x130 }
  - { offset: 0x130336, size: 0x8, addend: 0x0, symName: __ZNSt3__15arrayINS_12basic_stringIcNS_11char_traitsIcEENS_9allocatorIcEEEELm9EED2Ev, symObjAddr: 0xE3BC, symBinAddr: 0x231A4, symSize: 0x100 }
  - { offset: 0x130AC8, size: 0x8, addend: 0x0, symName: __ZNSt3__112__hash_tableINS_17__hash_value_typeIP18llama_adapter_lorafEENS_22__unordered_map_hasherIS3_S4_NS_4hashIS3_EENS_8equal_toIS3_EELb1EEENS_21__unordered_map_equalIS3_S4_S9_S7_Lb1EEENS_9allocatorIS4_EEE11__do_rehashILb1EEEvm, symObjAddr: 0xEF20, symBinAddr: 0x23BAC, symSize: 0x180 }
  - { offset: 0x130E55, size: 0x8, addend: 0x0, symName: __ZNSt3__112__hash_tableINS_17__hash_value_typeIP18llama_adapter_lorafEENS_22__unordered_map_hasherIS3_S4_NS_4hashIS3_EENS_8equal_toIS3_EELb1EEENS_21__unordered_map_equalIS3_S4_S9_S7_Lb1EEENS_9allocatorIS4_EEE6removeENS_21__hash_const_iteratorIPNS_11__hash_nodeIS4_PvEEEE, symObjAddr: 0xF0A0, symBinAddr: 0x23D2C, symSize: 0x138 }
  - { offset: 0x131726, size: 0x8, addend: 0x0, symName: __ZNSt3__16__treeINS_12__value_typeIijEENS_19__map_value_compareIiS2_NS_4lessIiEELb1EEENS_9allocatorIS2_EEE7destroyEPNS_11__tree_nodeIS2_PvEE, symObjAddr: 0xF544, symBinAddr: 0x23E64, symSize: 0x44 }
  - { offset: 0x131A44, size: 0x8, addend: 0x0, symName: __ZNSt3__16vectorIjNS_9allocatorIjEEE20__throw_length_errorB8ne200100Ev, symObjAddr: 0xF6BC, symBinAddr: 0x23FDC, symSize: 0x14 }
  - { offset: 0x131A5C, size: 0x8, addend: 0x0, symName: __ZNSt3__13mapIiP13llama_samplerNS_4lessIiEENS_9allocatorINS_4pairIKiS2_EEEEE6insertB8ne200100INS_20__map_const_iteratorINS_21__tree_const_iteratorINS_12__value_typeIiS2_EEPNS_11__tree_nodeISF_PvEElEEEEEEvT_SM_, symObjAddr: 0xF6D0, symBinAddr: 0x23FF0, symSize: 0xF4 }
  - { offset: 0x131CAC, size: 0x8, addend: 0x0, symName: __ZNSt3__16__treeINS_12__value_typeIiP13llama_samplerEENS_19__map_value_compareIiS4_NS_4lessIiEELb1EEENS_9allocatorIS4_EEE12__find_equalIiEERPNS_16__tree_node_baseIPvEENS_21__tree_const_iteratorIS4_PNS_11__tree_nodeIS4_SE_EElEERPNS_15__tree_end_nodeISG_EESH_RKT_, symObjAddr: 0xF7C4, symBinAddr: 0x240E4, symSize: 0x1B0 }
  - { offset: 0x131D0F, size: 0x8, addend: 0x0, symName: __ZNSt3__16__treeINS_12__value_typeIiP13llama_samplerEENS_19__map_value_compareIiS4_NS_4lessIiEELb1EEENS_9allocatorIS4_EEE12__find_equalIiEERPNS_16__tree_node_baseIPvEENS_21__tree_const_iteratorIS4_PNS_11__tree_nodeIS4_SE_EElEERPNS_15__tree_end_nodeISG_EESH_RKT_, symObjAddr: 0xF7C4, symBinAddr: 0x240E4, symSize: 0x1B0 }
  - { offset: 0x131D2B, size: 0x8, addend: 0x0, symName: __ZNSt3__16__treeINS_12__value_typeIiP13llama_samplerEENS_19__map_value_compareIiS4_NS_4lessIiEELb1EEENS_9allocatorIS4_EEE12__find_equalIiEERPNS_16__tree_node_baseIPvEENS_21__tree_const_iteratorIS4_PNS_11__tree_nodeIS4_SE_EElEERPNS_15__tree_end_nodeISG_EESH_RKT_, symObjAddr: 0xF7C4, symBinAddr: 0x240E4, symSize: 0x1B0 }
  - { offset: 0x1320C0, size: 0x8, addend: 0x0, symName: '__ZNSt3__110__function6__funcIZNK13llama_context12graph_get_cbEvE3$_0NS_9allocatorIS3_EEFvRK12llama_ubatchP11ggml_tensorPKciEED1Ev', symObjAddr: 0xF974, symBinAddr: 0x24294, symSize: 0x4 }
  - { offset: 0x1320EC, size: 0x8, addend: 0x0, symName: '__ZNSt3__110__function6__funcIZNK13llama_context12graph_get_cbEvE3$_0NS_9allocatorIS3_EEFvRK12llama_ubatchP11ggml_tensorPKciEED0Ev', symObjAddr: 0xF978, symBinAddr: 0x24298, symSize: 0x4 }
  - { offset: 0x1321A3, size: 0x8, addend: 0x0, symName: '__ZNKSt3__110__function6__funcIZNK13llama_context12graph_get_cbEvE3$_0NS_9allocatorIS3_EEFvRK12llama_ubatchP11ggml_tensorPKciEE7__cloneEv', symObjAddr: 0xF97C, symBinAddr: 0x2429C, symSize: 0x34 }
  - { offset: 0x1322F3, size: 0x8, addend: 0x0, symName: '__ZNKSt3__110__function6__funcIZNK13llama_context12graph_get_cbEvE3$_0NS_9allocatorIS3_EEFvRK12llama_ubatchP11ggml_tensorPKciEE7__cloneEPNS0_6__baseISD_EE', symObjAddr: 0xF9B0, symBinAddr: 0x242D0, symSize: 0x14 }
  - { offset: 0x132360, size: 0x8, addend: 0x0, symName: '__ZNSt3__110__function6__funcIZNK13llama_context12graph_get_cbEvE3$_0NS_9allocatorIS3_EEFvRK12llama_ubatchP11ggml_tensorPKciEE7destroyEv', symObjAddr: 0xF9C4, symBinAddr: 0x242E4, symSize: 0x4 }
  - { offset: 0x1323B5, size: 0x8, addend: 0x0, symName: '__ZNSt3__110__function6__funcIZNK13llama_context12graph_get_cbEvE3$_0NS_9allocatorIS3_EEFvRK12llama_ubatchP11ggml_tensorPKciEE18destroy_deallocateEv', symObjAddr: 0xF9C8, symBinAddr: 0x242E8, symSize: 0x4 }
  - { offset: 0x1323E8, size: 0x8, addend: 0x0, symName: '__ZNSt3__110__function6__funcIZNK13llama_context12graph_get_cbEvE3$_0NS_9allocatorIS3_EEFvRK12llama_ubatchP11ggml_tensorPKciEE18destroy_deallocateEv', symObjAddr: 0xF9C8, symBinAddr: 0x242E8, symSize: 0x4 }
  - { offset: 0x13240B, size: 0x8, addend: 0x0, symName: '__ZNSt3__110__function6__funcIZNK13llama_context12graph_get_cbEvE3$_0NS_9allocatorIS3_EEFvRK12llama_ubatchP11ggml_tensorPKciEE18destroy_deallocateEv', symObjAddr: 0xF9C8, symBinAddr: 0x242E8, symSize: 0x4 }
  - { offset: 0x13243E, size: 0x8, addend: 0x0, symName: '__ZNSt3__110__function6__funcIZNK13llama_context12graph_get_cbEvE3$_0NS_9allocatorIS3_EEFvRK12llama_ubatchP11ggml_tensorPKciEE18destroy_deallocateEv', symObjAddr: 0xF9C8, symBinAddr: 0x242E8, symSize: 0x4 }
  - { offset: 0x1325A9, size: 0x8, addend: 0x0, symName: '__ZNSt3__110__function6__funcIZNK13llama_context12graph_get_cbEvE3$_0NS_9allocatorIS3_EEFvRK12llama_ubatchP11ggml_tensorPKciEEclES8_OSA_OSC_Oi', symObjAddr: 0xF9CC, symBinAddr: 0x242EC, symSize: 0x128 }
  - { offset: 0x1328A3, size: 0x8, addend: 0x0, symName: '__ZNKSt3__110__function6__funcIZNK13llama_context12graph_get_cbEvE3$_0NS_9allocatorIS3_EEFvRK12llama_ubatchP11ggml_tensorPKciEE6targetERKSt9type_info', symObjAddr: 0xFAF4, symBinAddr: 0x24414, symSize: 0x64 }
  - { offset: 0x132957, size: 0x8, addend: 0x0, symName: '__ZNKSt3__110__function6__funcIZNK13llama_context12graph_get_cbEvE3$_0NS_9allocatorIS3_EEFvRK12llama_ubatchP11ggml_tensorPKciEE11target_typeEv', symObjAddr: 0xFB58, symBinAddr: 0x24478, symSize: 0xC }
  - { offset: 0x134B0B, size: 0x8, addend: 0x0, symName: _llama_max_parallel_sequences, symObjAddr: 0x0, symBinAddr: 0x245F8, symSize: 0x8 }
  - { offset: 0x134B19, size: 0x8, addend: 0x0, symName: _llama_max_parallel_sequences, symObjAddr: 0x0, symBinAddr: 0x245F8, symSize: 0x8 }
  - { offset: 0x134C6F, size: 0x8, addend: 0x0, symName: __ZNK29llama_grammar_trigger_pattern4findERKNSt3__112basic_stringIcNS0_11char_traitsIcEENS0_9allocatorIcEEEE, symObjAddr: 0x0, symBinAddr: 0x24600, symSize: 0x394 }
  - { offset: 0x15A769, size: 0x8, addend: 0x0, symName: __ZNSt3__135__uninitialized_allocator_copy_implB8ne200100INS_9allocatorINS_6vectorI21llama_grammar_elementNS1_IS3_EEEEEEPS5_S7_S7_EET2_RT_T0_T1_S8_, symObjAddr: 0x16784, symBinAddr: 0x3A8DC, symSize: 0xF8 }
  - { offset: 0x15ACDB, size: 0x8, addend: 0x0, symName: __ZNSt3__135__uninitialized_allocator_copy_implB8ne200100INS_9allocatorINS_6vectorIPK21llama_grammar_elementNS1_IS5_EEEEEEPS7_S9_S9_EET2_RT_T0_T1_SA_, symObjAddr: 0x1696C, symBinAddr: 0x3AAC4, symSize: 0xF8 }
  - { offset: 0x15C1FB, size: 0x8, addend: 0x0, symName: __ZNSt3__119__throw_regex_errorB8ne200100ILNS_15regex_constants10error_typeE12EEEvv, symObjAddr: 0xC1BC, symBinAddr: 0x305E0, symSize: 0x4C }
  - { offset: 0x15C221, size: 0x8, addend: 0x0, symName: __ZNSt3__119__throw_regex_errorB8ne200100ILNS_15regex_constants10error_typeE16EEEvv, symObjAddr: 0xC208, symBinAddr: 0x3062C, symSize: 0x4C }
  - { offset: 0x15DC34, size: 0x8, addend: 0x0, symName: __ZNSt3__134__uninitialized_allocator_relocateB8ne200100INS_9allocatorI29llama_grammar_trigger_patternEEPS2_EEvRT_T0_S7_S7_, symObjAddr: 0xEB48, symBinAddr: 0x32DAC, symSize: 0xFC }
  - { offset: 0x15DC8F, size: 0x8, addend: 0x0, symName: __ZNSt3__134__uninitialized_allocator_relocateB8ne200100INS_9allocatorI29llama_grammar_trigger_patternEEPS2_EEvRT_T0_S7_S7_, symObjAddr: 0xEB48, symBinAddr: 0x32DAC, symSize: 0xFC }
  - { offset: 0x15E12B, size: 0x8, addend: 0x0, symName: __ZNSt3__119__throw_regex_errorB8ne200100ILNS_15regex_constants10error_typeE17EEEvv, symObjAddr: 0xEFD0, symBinAddr: 0x33234, symSize: 0x4C }
  - { offset: 0x15E866, size: 0x8, addend: 0x0, symName: __ZNSt3__119__throw_regex_errorB8ne200100ILNS_15regex_constants10error_typeE14EEEvv, symObjAddr: 0xF888, symBinAddr: 0x33AEC, symSize: 0x4C }
  - { offset: 0x15EB4F, size: 0x8, addend: 0x0, symName: __ZNSt3__119__throw_regex_errorB8ne200100ILNS_15regex_constants10error_typeE15EEEvv, symObjAddr: 0x15B64, symBinAddr: 0x39D44, symSize: 0x4C }
  - { offset: 0x15EF4B, size: 0x8, addend: 0x0, symName: __ZNSt3__119__throw_regex_errorB8ne200100ILNS_15regex_constants10error_typeE6EEEvv, symObjAddr: 0x104CC, symBinAddr: 0x34730, symSize: 0x4C }
  - { offset: 0x15F0FA, size: 0x8, addend: 0x0, symName: __ZNSt3__119__throw_regex_errorB8ne200100ILNS_15regex_constants10error_typeE11EEEvv, symObjAddr: 0x10E38, symBinAddr: 0x3509C, symSize: 0x4C }
  - { offset: 0x15F13E, size: 0x8, addend: 0x0, symName: __ZNSt3__119__throw_regex_errorB8ne200100ILNS_15regex_constants10error_typeE8EEEvv, symObjAddr: 0x15524, symBinAddr: 0x39704, symSize: 0x4C }
  - { offset: 0x15F164, size: 0x8, addend: 0x0, symName: __ZNSt3__119__throw_regex_errorB8ne200100ILNS_15regex_constants10error_typeE7EEEvv, symObjAddr: 0x15570, symBinAddr: 0x39750, symSize: 0x4C }
  - { offset: 0x15F295, size: 0x8, addend: 0x0, symName: __ZNSt3__119__throw_regex_errorB8ne200100ILNS_15regex_constants10error_typeE4EEEvv, symObjAddr: 0x11708, symBinAddr: 0x3596C, symSize: 0x4C }
  - { offset: 0x15F2BB, size: 0x8, addend: 0x0, symName: __ZNSt3__119__throw_regex_errorB8ne200100ILNS_15regex_constants10error_typeE3EEEvv, symObjAddr: 0x10F90, symBinAddr: 0x351F4, symSize: 0x4C }
  - { offset: 0x15F2E1, size: 0x8, addend: 0x0, symName: __ZNSt3__119__throw_regex_errorB8ne200100ILNS_15regex_constants10error_typeE5EEEvv, symObjAddr: 0x132D4, symBinAddr: 0x374B4, symSize: 0x4C }
  - { offset: 0x15FEF5, size: 0x8, addend: 0x0, symName: __ZNSt3__119__throw_regex_errorB8ne200100ILNS_15regex_constants10error_typeE1EEEvv, symObjAddr: 0x1464C, symBinAddr: 0x3882C, symSize: 0x4C }
  - { offset: 0x15FF1B, size: 0x8, addend: 0x0, symName: __ZNSt3__119__throw_regex_errorB8ne200100ILNS_15regex_constants10error_typeE2EEEvv, symObjAddr: 0x14C28, symBinAddr: 0x38E08, symSize: 0x4C }
  - { offset: 0x15FF7D, size: 0x8, addend: 0x0, symName: __ZNSt3__119__throw_regex_errorB8ne200100ILNS_15regex_constants10error_typeE9EEEvv, symObjAddr: 0x151EC, symBinAddr: 0x393CC, symSize: 0x4C }
  - { offset: 0x161D9D, size: 0x8, addend: 0x0, symName: __ZL11decode_utf8RKNSt3__112basic_stringIcNS_11char_traitsIcEENS_9allocatorIcEEEE18llama_partial_utf8, symObjAddr: 0x871C, symBinAddr: 0x2CC78, symSize: 0x498 }
  - { offset: 0x161DC7, size: 0x8, addend: 0x0, symName: __ZZL11decode_utf8RKNSt3__112basic_stringIcNS_11char_traitsIcEENS_9allocatorIcEEEE18llama_partial_utf8E6lookup, symObjAddr: 0x18460, symBinAddr: 0x297338, symSize: 0x0 }
  - { offset: 0x165567, size: 0x8, addend: 0x0, symName: __ZNK29llama_grammar_trigger_pattern4findERKNSt3__112basic_stringIcNS0_11char_traitsIcEENS0_9allocatorIcEEEE, symObjAddr: 0x0, symBinAddr: 0x24600, symSize: 0x394 }
  - { offset: 0x1668DA, size: 0x8, addend: 0x0, symName: __ZNKSt3__111basic_regexIcNS_12regex_traitsIcEEE8__searchINS_9allocatorINS_9sub_matchIPKcEEEEEEbS8_S8_RNS_13match_resultsIS8_T_EENS_15regex_constants15match_flag_typeE, symObjAddr: 0xA85C, symBinAddr: 0x2EC80, symSize: 0x308 }
  - { offset: 0x166E35, size: 0x8, addend: 0x0, symName: __ZNSt3__113match_resultsINS_11__wrap_iterIPKcEENS_9allocatorINS_9sub_matchIS4_EEEEE8__assignB8ne200100IS3_NS5_INS6_IS3_EEEEEEvS4_S4_RKNS0_IT_T0_EEb, symObjAddr: 0xAB64, symBinAddr: 0x2EF88, symSize: 0x168 }
  - { offset: 0x167D8E, size: 0x8, addend: 0x0, symName: __ZN20llama_grammar_parser13get_symbol_idEPKcm, symObjAddr: 0x394, symBinAddr: 0x24994, symSize: 0x104 }
  - { offset: 0x16827F, size: 0x8, addend: 0x0, symName: __ZNSt3__16__treeINS_12__value_typeINS_12basic_stringIcNS_11char_traitsIcEENS_9allocatorIcEEEEjEENS_19__map_value_compareIS7_S8_NS_4lessIS7_EELb1EEENS5_IS8_EEE25__emplace_unique_key_argsIS7_JS7_RjEEENS_4pairINS_15__tree_iteratorIS8_PNS_11__tree_nodeIS8_PvEElEEbEERKT_DpOT0_, symObjAddr: 0xDFC4, symBinAddr: 0x323E8, symSize: 0x180 }
  - { offset: 0x168852, size: 0x8, addend: 0x0, symName: __ZNKSt3__111basic_regexIcNS_12regex_traitsIcEEE8__searchINS_9allocatorINS_9sub_matchIPKcEEEEEEbS8_S8_RNS_13match_resultsIS8_T_EENS_15regex_constants15match_flag_typeE, symObjAddr: 0xA85C, symBinAddr: 0x2EC80, symSize: 0x308 }
  - { offset: 0x16885D, size: 0x8, addend: 0x0, symName: __ZNSt3__112basic_stringIcNS_11char_traitsIcEENS_9allocatorIcEEEC1B8ne200100EPKcm, symObjAddr: 0x498, symBinAddr: 0x24A98, symSize: 0xA8 }
  - { offset: 0x168A87, size: 0x8, addend: 0x0, symName: __ZN20llama_grammar_parser18generate_symbol_idERKNSt3__112basic_stringIcNS0_11char_traitsIcEENS0_9allocatorIcEEEE, symObjAddr: 0x540, symBinAddr: 0x24B40, symSize: 0x200 }
  - { offset: 0x168C00, size: 0x8, addend: 0x0, symName: __ZN20llama_grammar_parser18generate_symbol_idERKNSt3__112basic_stringIcNS0_11char_traitsIcEENS0_9allocatorIcEEEE, symObjAddr: 0x540, symBinAddr: 0x24B40, symSize: 0x200 }
  - { offset: 0x16966C, size: 0x8, addend: 0x0, symName: __ZNSt3__16__treeINS_12__value_typeINS_12basic_stringIcNS_11char_traitsIcEENS_9allocatorIcEEEEjEENS_19__map_value_compareIS7_S8_NS_4lessIS7_EELb1EEENS5_IS8_EEE25__emplace_unique_key_argsIS7_JRKNS_21piecewise_construct_tENS_5tupleIJOS7_EEENSJ_IJEEEEEENS_4pairINS_15__tree_iteratorIS8_PNS_11__tree_nodeIS8_PvEElEEbEERKT_DpOT0_, symObjAddr: 0xE2F0, symBinAddr: 0x32568, symSize: 0x174 }
  - { offset: 0x169ECB, size: 0x8, addend: 0x0, symName: __ZN20llama_grammar_parser8add_ruleEjRKNSt3__16vectorI21llama_grammar_elementNS0_9allocatorIS2_EEEE, symObjAddr: 0x740, symBinAddr: 0x24D40, symSize: 0xE4 }
  - { offset: 0x16A1C9, size: 0x8, addend: 0x0, symName: __ZNSt3__16vectorINS0_I21llama_grammar_elementNS_9allocatorIS1_EEEENS2_IS4_EEE8__appendEm, symObjAddr: 0xE464, symBinAddr: 0x326DC, symSize: 0x180 }
  - { offset: 0x16A60C, size: 0x8, addend: 0x0, symName: __ZNSt3__16vectorINS0_I21llama_grammar_elementNS_9allocatorIS1_EEEENS2_IS4_EEE20__throw_length_errorB8ne200100Ev, symObjAddr: 0xE5E4, symBinAddr: 0x3285C, symSize: 0x14 }
  - { offset: 0x16A617, size: 0x8, addend: 0x0, symName: __ZNSt3__16vectorI21llama_grammar_elementNS_9allocatorIS1_EEE18__assign_with_sizeB8ne200100IPS1_S6_EEvT_T0_l, symObjAddr: 0xE5F8, symBinAddr: 0x32870, symSize: 0x148 }
  - { offset: 0x16B001, size: 0x8, addend: 0x0, symName: __ZNSt3__16__treeINS_12__value_typeIjNS_12basic_stringIcNS_11char_traitsIcEENS_9allocatorIcEEEEEENS_19__map_value_compareIjS8_NS_4lessIjEELb1EEENS5_IS8_EEE7destroyEPNS_11__tree_nodeIS8_PvEE, symObjAddr: 0xE740, symBinAddr: 0x329B8, symSize: 0x60 }
  - { offset: 0x16B3BB, size: 0x8, addend: 0x0, symName: __ZN20llama_grammar_parser16parse_alternatesEPKcRKNSt3__112basic_stringIcNS2_11char_traitsIcEENS2_9allocatorIcEEEEjb, symObjAddr: 0x824, symBinAddr: 0x24E24, symSize: 0x34C }
  - { offset: 0x16C1F0, size: 0x8, addend: 0x0, symName: __ZN20llama_grammar_parser14parse_sequenceEPKcRKNSt3__112basic_stringIcNS2_11char_traitsIcEENS2_9allocatorIcEEEERNS2_6vectorI21llama_grammar_elementNS6_ISC_EEEEb, symObjAddr: 0xB70, symBinAddr: 0x25170, symSize: 0x1E80 }
  - { offset: 0x16FA99, size: 0x8, addend: 0x0, symName: __ZNSt3__16vectorI21llama_grammar_elementNS_9allocatorIS1_EEE20__throw_length_errorB8ne200100Ev, symObjAddr: 0x9E2C, symBinAddr: 0x2E388, symSize: 0x14 }
  - { offset: 0x16FC3B, size: 0x8, addend: 0x0, symName: __ZL10parse_charPKc, symObjAddr: 0x29F0, symBinAddr: 0x26FF0, symSize: 0x288 }
  - { offset: 0x16FF3D, size: 0x8, addend: 0x0, symName: __ZL9parse_intPKc, symObjAddr: 0x35D0, symBinAddr: 0x27B2C, symSize: 0x124 }
  - { offset: 0x1701EB, size: 0x8, addend: 0x0, symName: __ZL10parse_namePKc, symObjAddr: 0x2C78, symBinAddr: 0x27278, symSize: 0x13C }
  - { offset: 0x1704B7, size: 0x8, addend: 0x0, symName: '__ZZN20llama_grammar_parser14parse_sequenceEPKcRKNSt3__112basic_stringIcNS2_11char_traitsIcEENS2_9allocatorIcEEEERNS2_6vectorI21llama_grammar_elementNS6_ISC_EEEEbENK3$_0clEyy', symObjAddr: 0x2E58, symBinAddr: 0x273B4, symSize: 0x778 }
  - { offset: 0x172588, size: 0x8, addend: 0x0, symName: '__ZZN20llama_grammar_parser14parse_sequenceEPKcRKNSt3__112basic_stringIcNS2_11char_traitsIcEENS2_9allocatorIcEEEERNS2_6vectorI21llama_grammar_elementNS6_ISC_EEEEbENK3$_0clEyy', symObjAddr: 0x2E58, symBinAddr: 0x273B4, symSize: 0x778 }
  - { offset: 0x1725FD, size: 0x8, addend: 0x0, symName: __ZL9parse_hexPKci, symObjAddr: 0x9BEC, symBinAddr: 0x2E148, symSize: 0x240 }
  - { offset: 0x173128, size: 0x8, addend: 0x0, symName: __ZNSt3__16vectorI21llama_grammar_elementNS_9allocatorIS1_EEE18__insert_with_sizeB8ne200100INS_11__wrap_iterIPS1_EES8_EES8_NS6_IPKS1_EET_T0_l, symObjAddr: 0x9FFC, symBinAddr: 0x2E4BC, symSize: 0x38C }
  - { offset: 0x173BF5, size: 0x8, addend: 0x0, symName: __ZNSt3__16vectorI21llama_grammar_elementNS_9allocatorIS1_EEE8__appendEm, symObjAddr: 0x9EDC, symBinAddr: 0x2E39C, symSize: 0x120 }
  - { offset: 0x173FBE, size: 0x8, addend: 0x0, symName: __ZNSt3__16vectorI21llama_grammar_elementNS_9allocatorIS1_EEE18__insert_with_sizeB8ne200100INS_11__wrap_iterIPS1_EES8_EES8_NS6_IPKS1_EET_T0_l, symObjAddr: 0x9FFC, symBinAddr: 0x2E4BC, symSize: 0x38C }
  - { offset: 0x173FC9, size: 0x8, addend: 0x0, symName: __ZN20llama_grammar_parser10parse_ruleEPKc, symObjAddr: 0x36F4, symBinAddr: 0x27C50, symSize: 0x440 }
  - { offset: 0x174B4C, size: 0x8, addend: 0x0, symName: __ZN20llama_grammar_parser5parseEPKc, symObjAddr: 0x3B34, symBinAddr: 0x28090, symSize: 0x350 }
  - { offset: 0x1759E7, size: 0x8, addend: 0x0, symName: __ZN20llama_grammar_parser5printEP7__sFILE, symObjAddr: 0x3E84, symBinAddr: 0x283E0, symSize: 0xA40 }
  - { offset: 0x1773DE, size: 0x8, addend: 0x0, symName: __ZNSt3__16__treeINS_12__value_typeIjNS_12basic_stringIcNS_11char_traitsIcEENS_9allocatorIcEEEEEENS_19__map_value_compareIjS8_NS_4lessIjEELb1EEENS5_IS8_EEE7destroyEPNS_11__tree_nodeIS8_PvEE, symObjAddr: 0xE740, symBinAddr: 0x329B8, symSize: 0x60 }
  - { offset: 0x177AB7, size: 0x8, addend: 0x0, symName: __ZNK20llama_grammar_parser7c_rulesEv, symObjAddr: 0x48C4, symBinAddr: 0x28E20, symSize: 0x1B8 }
  - { offset: 0x1781F6, size: 0x8, addend: 0x0, symName: __ZNSt3__16vectorIPK21llama_grammar_elementNS_9allocatorIS3_EEE20__throw_length_errorB8ne200100Ev, symObjAddr: 0xE7A0, symBinAddr: 0x32A18, symSize: 0x14 }
  - { offset: 0x17820E, size: 0x8, addend: 0x0, symName: __ZNSt3__16vectorI23llama_grammar_candidateNS_9allocatorIS1_EEE20__throw_length_errorB8ne200100Ev, symObjAddr: 0xE7B4, symBinAddr: 0x32A2C, symSize: 0x14 }
  - { offset: 0x178219, size: 0x8, addend: 0x0, symName: __Z23llama_grammar_get_rulesPK13llama_grammar, symObjAddr: 0x4A7C, symBinAddr: 0x28FD8, symSize: 0x8 }
  - { offset: 0x178249, size: 0x8, addend: 0x0, symName: __Z24llama_grammar_get_stacksP13llama_grammar, symObjAddr: 0x4A84, symBinAddr: 0x28FE0, symSize: 0x8 }
  - { offset: 0x178567, size: 0x8, addend: 0x0, symName: __Z20llama_grammar_acceptP13llama_grammarj, symObjAddr: 0x4A8C, symBinAddr: 0x28FE8, symSize: 0x144 }
  - { offset: 0x178AFB, size: 0x8, addend: 0x0, symName: __ZL24llama_grammar_accept_chrR13llama_grammarRKNSt3__16vectorIPK21llama_grammar_elementNS1_9allocatorIS5_EEEEjRNS2_IS8_NS6_IS8_EEEE, symObjAddr: 0x4BD0, symBinAddr: 0x2912C, symSize: 0x300 }
  - { offset: 0x179523, size: 0x8, addend: 0x0, symName: __ZNSt3__16vectorINS0_IPK21llama_grammar_elementNS_9allocatorIS3_EEEENS4_IS6_EEE20__throw_length_errorB8ne200100Ev, symObjAddr: 0xA5DC, symBinAddr: 0x2EA28, symSize: 0x14 }
  - { offset: 0x17953B, size: 0x8, addend: 0x0, symName: __ZNSt3__110shared_ptrINS_13__empty_stateIcEEED1B8ne200100Ev, symObjAddr: 0xA5F0, symBinAddr: 0x2EA3C, symSize: 0x5C }
  - { offset: 0x179546, size: 0x8, addend: 0x0, symName: __ZNSt3__16vectorINS0_IPK21llama_grammar_elementNS_9allocatorIS3_EEEENS4_IS6_EEED1B8ne200100Ev, symObjAddr: 0x4ED0, symBinAddr: 0x2942C, symSize: 0x74 }
  - { offset: 0x179B9C, size: 0x8, addend: 0x0, symName: __ZL27llama_grammar_advance_stackRKNSt3__16vectorINS0_I21llama_grammar_elementNS_9allocatorIS1_EEEENS2_IS4_EEEERKNS0_IPKS1_NS2_ISA_EEEERNS0_ISC_NS2_ISC_EEEE, symObjAddr: 0x5EF8, symBinAddr: 0x2A454, symSize: 0x52C }
  - { offset: 0x17BD09, size: 0x8, addend: 0x0, symName: __Z41llama_grammar_reject_candidates_for_stackRKNSt3__16vectorINS0_I21llama_grammar_elementNS_9allocatorIS1_EEEENS2_IS4_EEEERKNS0_IPKS1_NS2_ISA_EEEERKNS0_I23llama_grammar_candidateNS2_ISF_EEEE, symObjAddr: 0x4F44, symBinAddr: 0x294A0, symSize: 0xFB4 }
  - { offset: 0x17ED3D, size: 0x8, addend: 0x0, symName: __ZL31llama_grammar_reject_candidatesRKNSt3__16vectorINS0_I21llama_grammar_elementNS_9allocatorIS1_EEEENS2_IS4_EEEERKNS0_INS0_IPKS1_NS2_ISA_EEEENS2_ISC_EEEERKNS0_I23llama_grammar_candidateNS2_ISH_EEEE, symObjAddr: 0x6424, symBinAddr: 0x2A980, symSize: 0x120 }
  - { offset: 0x17F0FD, size: 0x8, addend: 0x0, symName: __ZNSt3__16vectorI23llama_grammar_candidateNS_9allocatorIS1_EEE20__throw_length_errorB8ne200100Ev, symObjAddr: 0xE7B4, symBinAddr: 0x32A2C, symSize: 0x14 }
  - { offset: 0x17F115, size: 0x8, addend: 0x0, symName: __ZNSt3__128__exception_guard_exceptionsINS_6vectorINS1_I21llama_grammar_elementNS_9allocatorIS2_EEEENS3_IS5_EEE16__destroy_vectorEED1B8ne200100Ev, symObjAddr: 0xE7C8, symBinAddr: 0x32A40, symSize: 0x84 }
  - { offset: 0x17F436, size: 0x8, addend: 0x0, symName: __ZNSt3__16vectorINS0_IPK21llama_grammar_elementNS_9allocatorIS3_EEEENS4_IS6_EEE24__emplace_back_slow_pathIJRKS6_EEEPS6_DpOT_, symObjAddr: 0xA3FC, symBinAddr: 0x2E848, symSize: 0x174 }
  - { offset: 0x180398, size: 0x8, addend: 0x0, symName: __Z23llama_grammar_init_implPK11llama_vocabPPK21llama_grammar_elementmm, symObjAddr: 0x6544, symBinAddr: 0x2AAA0, symSize: 0x688 }
  - { offset: 0x18249B, size: 0x8, addend: 0x0, symName: __ZL35llama_grammar_detect_left_recursionRKNSt3__16vectorINS0_I21llama_grammar_elementNS_9allocatorIS1_EEEENS2_IS4_EEEEmPNS0_IbNS2_IbEEEESB_SB_, symObjAddr: 0x6BCC, symBinAddr: 0x2B128, symSize: 0x190 }
  - { offset: 0x18280B, size: 0x8, addend: 0x0, symName: __ZNSt3__16vectorINS0_I21llama_grammar_elementNS_9allocatorIS1_EEEENS2_IS4_EEE20__throw_length_errorB8ne200100Ev, symObjAddr: 0xE5E4, symBinAddr: 0x3285C, symSize: 0x14 }
  - { offset: 0x182823, size: 0x8, addend: 0x0, symName: __ZNSt3__16vectorI21llama_grammar_elementNS_9allocatorIS1_EEE18__assign_with_sizeB8ne200100IPS1_S6_EEvT_T0_l, symObjAddr: 0xE5F8, symBinAddr: 0x32870, symSize: 0x148 }
  - { offset: 0x18282E, size: 0x8, addend: 0x0, symName: __ZNSt3__16vectorINS0_I21llama_grammar_elementNS_9allocatorIS1_EEEENS2_IS4_EEED1B8ne200100Ev, symObjAddr: 0x6D5C, symBinAddr: 0x2B2B8, symSize: 0x74 }
  - { offset: 0x182AAD, size: 0x8, addend: 0x0, symName: __ZNSt3__128__exception_guard_exceptionsINS_6vectorINS1_I21llama_grammar_elementNS_9allocatorIS2_EEEENS3_IS5_EEE16__destroy_vectorEED1B8ne200100Ev, symObjAddr: 0xE7C8, symBinAddr: 0x32A40, symSize: 0x84 }
  - { offset: 0x183ADF, size: 0x8, addend: 0x0, symName: __Z23llama_grammar_init_implPK11llama_vocabPKcS3_bPS3_mPKim, symObjAddr: 0x6DD0, symBinAddr: 0x2B32C, symSize: 0xD38 }
  - { offset: 0x18788E, size: 0x8, addend: 0x0, symName: __ZNSt3__16__treeINS_12__value_typeINS_12basic_stringIcNS_11char_traitsIcEENS_9allocatorIcEEEEjEENS_19__map_value_compareIS7_S8_NS_4lessIS7_EELb1EEENS5_IS8_EEE7destroyEPNS_11__tree_nodeIS8_PvEE, symObjAddr: 0xA64C, symBinAddr: 0x2EA98, symSize: 0x60 }
  - { offset: 0x187AD2, size: 0x8, addend: 0x0, symName: __ZNSt3__16vectorI29llama_grammar_trigger_patternNS_9allocatorIS1_EEE24__emplace_back_slow_pathIJEEEPS1_DpOT_, symObjAddr: 0xE860, symBinAddr: 0x32AC4, symSize: 0x1B0 }
  - { offset: 0x187FFC, size: 0x8, addend: 0x0, symName: __ZNSt3__111basic_regexIcNS_12regex_traitsIcEEEC2B8ne200100INS_11char_traitsIcEENS_9allocatorIcEEEERKNS_12basic_stringIcT_T0_EENS_15regex_constants18syntax_option_typeE, symObjAddr: 0xECFC, symBinAddr: 0x32F60, symSize: 0xD4 }
  - { offset: 0x1881CE, size: 0x8, addend: 0x0, symName: __ZNSt3__16vectorI29llama_grammar_trigger_patternNS_9allocatorIS1_EEE24__emplace_back_slow_pathIJEEEPS1_DpOT_, symObjAddr: 0xE860, symBinAddr: 0x32AC4, symSize: 0x1B0 }
  - { offset: 0x1881D9, size: 0x8, addend: 0x0, symName: __ZN20llama_grammar_parserD1Ev, symObjAddr: 0x7C24, symBinAddr: 0x2C180, symSize: 0x80 }
  - { offset: 0x1884F6, size: 0x8, addend: 0x0, symName: __ZNSt3__16vectorI29llama_grammar_trigger_patternNS_9allocatorIS1_EEED1B8ne200100Ev, symObjAddr: 0x7B64, symBinAddr: 0x2C0C0, symSize: 0xC0 }
  - { offset: 0x188885, size: 0x8, addend: 0x0, symName: __ZNSt3__111basic_regexIcNS_12regex_traitsIcEEED1Ev, symObjAddr: 0x7B08, symBinAddr: 0x2C064, symSize: 0x5C }
  - { offset: 0x188BCB, size: 0x8, addend: 0x0, symName: __Z23llama_grammar_free_implP13llama_grammar, symObjAddr: 0x7CA4, symBinAddr: 0x2C200, symSize: 0x1C }
  - { offset: 0x188C20, size: 0x8, addend: 0x0, symName: __ZN13llama_grammarD2Ev, symObjAddr: 0xA6AC, symBinAddr: 0x2EAF8, symSize: 0x188 }
  - { offset: 0x18A0EF, size: 0x8, addend: 0x0, symName: __Z24llama_grammar_clone_implRK13llama_grammar, symObjAddr: 0x7CC0, symBinAddr: 0x2C21C, symSize: 0x4D8 }
  - { offset: 0x18B1AA, size: 0x8, addend: 0x0, symName: __ZNSt3__135__uninitialized_allocator_copy_implB8ne200100INS_9allocatorINS_6vectorI21llama_grammar_elementNS1_IS3_EEEEEEPS5_S7_S7_EET2_RT_T0_T1_S8_, symObjAddr: 0x16784, symBinAddr: 0x3A8DC, symSize: 0xF8 }
  - { offset: 0x18B1B5, size: 0x8, addend: 0x0, symName: __ZNSt3__16vectorI29llama_grammar_trigger_patternNS_9allocatorIS1_EEE18__construct_at_endIPS1_S6_EEvT_T0_m, symObjAddr: 0x16AE4, symBinAddr: 0x3AC3C, symSize: 0x10C }
  - { offset: 0x18B5C1, size: 0x8, addend: 0x0, symName: __ZNSt3__16vectorINS_4pairIiNS1_ImmEEEENS_9allocatorIS3_EEE20__throw_length_errorB8ne200100Ev, symObjAddr: 0x16AD0, symBinAddr: 0x3AC28, symSize: 0x14 }
  - { offset: 0x18B5D9, size: 0x8, addend: 0x0, symName: __ZNSt3__16vectorI29llama_grammar_trigger_patternNS_9allocatorIS1_EEE18__construct_at_endIPS1_S6_EEvT_T0_m, symObjAddr: 0x16AE4, symBinAddr: 0x3AC3C, symSize: 0x10C }
  - { offset: 0x18B5E4, size: 0x8, addend: 0x0, symName: __ZNSt3__16vectorI29llama_grammar_trigger_patternNS_9allocatorIS1_EEE20__throw_length_errorB8ne200100Ev, symObjAddr: 0xEB34, symBinAddr: 0x32D98, symSize: 0x14 }
  - { offset: 0x18B5FC, size: 0x8, addend: 0x0, symName: __ZNSt3__134__uninitialized_allocator_relocateB8ne200100INS_9allocatorI29llama_grammar_trigger_patternEEPS2_EEvRT_T0_S7_S7_, symObjAddr: 0xEB48, symBinAddr: 0x32DAC, symSize: 0xFC }
  - { offset: 0x18B607, size: 0x8, addend: 0x0, symName: __ZNSt3__128__exception_guard_exceptionsINS_6vectorINS1_IPK21llama_grammar_elementNS_9allocatorIS4_EEEENS5_IS7_EEE16__destroy_vectorEED1B8ne200100Ev, symObjAddr: 0x168E8, symBinAddr: 0x3AA40, symSize: 0x84 }
  - { offset: 0x18B894, size: 0x8, addend: 0x0, symName: __ZNSt3__128__exception_guard_exceptionsINS_6vectorI29llama_grammar_trigger_patternNS_9allocatorIS2_EEE16__destroy_vectorEED1B8ne200100Ev, symObjAddr: 0x16BF0, symBinAddr: 0x3AD48, symSize: 0xD0 }
  - { offset: 0x18B8C1, size: 0x8, addend: 0x0, symName: __ZNSt3__128__exception_guard_exceptionsINS_6vectorI29llama_grammar_trigger_patternNS_9allocatorIS2_EEE16__destroy_vectorEED1B8ne200100Ev, symObjAddr: 0x16BF0, symBinAddr: 0x3AD48, symSize: 0xD0 }
  - { offset: 0x18C334, size: 0x8, addend: 0x0, symName: __Z24llama_grammar_apply_implRK13llama_grammarP22llama_token_data_array, symObjAddr: 0x8198, symBinAddr: 0x2C6F4, symSize: 0x584 }
  - { offset: 0x18D8CF, size: 0x8, addend: 0x0, symName: __ZNSt3__16vectorINS_4pairINS0_IjNS_9allocatorIjEEEE18llama_partial_utf8EENS2_IS6_EEE20__throw_length_errorB8ne200100Ev, symObjAddr: 0x16CC0, symBinAddr: 0x3AE18, symSize: 0x14 }
  - { offset: 0x18D8E7, size: 0x8, addend: 0x0, symName: __ZNSt3__16vectorINS0_IPK21llama_grammar_elementNS_9allocatorIS3_EEEENS4_IS6_EEE24__emplace_back_slow_pathIJRS6_EEEPS6_DpOT_, symObjAddr: 0x16CD4, symBinAddr: 0x3AE2C, symSize: 0x174 }
  - { offset: 0x18D8F2, size: 0x8, addend: 0x0, symName: __ZNSt3__16vectorINS_4pairINS0_IjNS_9allocatorIjEEEE18llama_partial_utf8EENS2_IS6_EEED1B8ne200100Ev, symObjAddr: 0x8BB4, symBinAddr: 0x2D110, symSize: 0x74 }
  - { offset: 0x18E397, size: 0x8, addend: 0x0, symName: __Z25llama_grammar_accept_implR13llama_grammari, symObjAddr: 0x8C28, symBinAddr: 0x2D184, symSize: 0x4E0 }
  - { offset: 0x18F5B4, size: 0x8, addend: 0x0, symName: __Z26llama_grammar_accept_tokenR13llama_grammariRKNSt3__112basic_stringIcNS1_11char_traitsIcEENS1_9allocatorIcEEEE, symObjAddr: 0x9108, symBinAddr: 0x2D664, symSize: 0x870 }
  - { offset: 0x192466, size: 0x8, addend: 0x0, symName: __ZNSt3__16vectorINS_4pairIiNS1_ImmEEEENS_9allocatorIS3_EEE9push_backB8ne200100EOS3_, symObjAddr: 0x9978, symBinAddr: 0x2DED4, symSize: 0x134 }
  - { offset: 0x192848, size: 0x8, addend: 0x0, symName: __Z24llama_grammar_accept_strR13llama_grammarRKNSt3__112basic_stringIcNS1_11char_traitsIcEENS1_9allocatorIcEEEE, symObjAddr: 0x9AAC, symBinAddr: 0x2E008, symSize: 0x140 }
  - { offset: 0x19285D, size: 0x8, addend: 0x0, symName: __ZNSt3__14pairINS_12basic_stringIcNS_11char_traitsIcEENS_9allocatorIcEEEES6_ED1Ev, symObjAddr: 0x12C30, symBinAddr: 0x36E10, symSize: 0x58 }
  - { offset: 0x192B64, size: 0x8, addend: 0x0, symName: __ZNSt3__16vectorINS0_IPK21llama_grammar_elementNS_9allocatorIS3_EEEENS4_IS6_EEE24__emplace_back_slow_pathIJRS6_EEEPS6_DpOT_, symObjAddr: 0x16CD4, symBinAddr: 0x3AE2C, symSize: 0x174 }
  - { offset: 0x193329, size: 0x8, addend: 0x0, symName: __ZNSt3__128__exception_guard_exceptionsINS_29_AllocatorDestroyRangeReverseINS_9allocatorINS_6vectorIPK21llama_grammar_elementNS2_IS6_EEEEEEPS8_EEED1B8ne200100Ev, symObjAddr: 0x16A64, symBinAddr: 0x3ABBC, symSize: 0x6C }
  - { offset: 0x1937CB, size: 0x8, addend: 0x0, symName: __Z24llama_grammar_accept_strR13llama_grammarRKNSt3__112basic_stringIcNS1_11char_traitsIcEENS1_9allocatorIcEEEE, symObjAddr: 0x9AAC, symBinAddr: 0x2E008, symSize: 0x140 }
  - { offset: 0x19407F, size: 0x8, addend: 0x0, symName: __ZNSt3__114__split_bufferINS_6vectorIPK21llama_grammar_elementNS_9allocatorIS4_EEEERNS5_IS7_EEED1Ev, symObjAddr: 0xA570, symBinAddr: 0x2E9BC, symSize: 0x6C }
  - { offset: 0x19430E, size: 0x8, addend: 0x0, symName: __ZNSt3__110shared_ptrINS_13__empty_stateIcEEED1B8ne200100Ev, symObjAddr: 0xA5F0, symBinAddr: 0x2EA3C, symSize: 0x5C }
  - { offset: 0x19468E, size: 0x8, addend: 0x0, symName: __ZNSt3__16vectorINS_9sub_matchIPKcEENS_9allocatorIS4_EEE6assignEmRKS4_, symObjAddr: 0xACCC, symBinAddr: 0x2F0F0, symSize: 0x1E0 }
  - { offset: 0x194BED, size: 0x8, addend: 0x0, symName: __ZNKSt3__111basic_regexIcNS_12regex_traitsIcEEE21__match_at_start_ecmaINS_9allocatorINS_9sub_matchIPKcEEEEEEbS8_S8_RNS_13match_resultsIS8_T_EENS_15regex_constants15match_flag_typeEb, symObjAddr: 0xAEAC, symBinAddr: 0x2F2D0, symSize: 0x474 }
  - { offset: 0x194BF8, size: 0x8, addend: 0x0, symName: __ZNKSt3__111basic_regexIcNS_12regex_traitsIcEEE27__match_at_start_posix_subsINS_9allocatorINS_9sub_matchIPKcEEEEEEbS8_S8_RNS_13match_resultsIS8_T_EENS_15regex_constants15match_flag_typeEb, symObjAddr: 0xBBC0, symBinAddr: 0x2FFE4, symSize: 0x5BC }
  - { offset: 0x196892, size: 0x8, addend: 0x0, symName: __ZNKSt3__111basic_regexIcNS_12regex_traitsIcEEE21__match_at_start_ecmaINS_9allocatorINS_9sub_matchIPKcEEEEEEbS8_S8_RNS_13match_resultsIS8_T_EENS_15regex_constants15match_flag_typeEb, symObjAddr: 0xAEAC, symBinAddr: 0x2F2D0, symSize: 0x474 }
  - { offset: 0x197A05, size: 0x8, addend: 0x0, symName: __ZNKSt3__111basic_regexIcNS_12regex_traitsIcEEE29__match_at_start_posix_nosubsINS_9allocatorINS_9sub_matchIPKcEEEEEEbS8_S8_RNS_13match_resultsIS8_T_EENS_15regex_constants15match_flag_typeEb, symObjAddr: 0xB320, symBinAddr: 0x2F744, symSize: 0x8A0 }
  - { offset: 0x1997D5, size: 0x8, addend: 0x0, symName: __ZNSt3__16vectorINS_9sub_matchINS_11__wrap_iterIPKcEEEENS_9allocatorIS6_EEE8__appendEm, symObjAddr: 0xDE10, symBinAddr: 0x32234, symSize: 0x1A0 }
  - { offset: 0x199D14, size: 0x8, addend: 0x0, symName: __ZNSt3__16vectorINS_9sub_matchINS_11__wrap_iterIPKcEEEENS_9allocatorIS6_EEE20__throw_length_errorB8ne200100Ev, symObjAddr: 0xDFB0, symBinAddr: 0x323D4, symSize: 0x14 }
  - { offset: 0x199F73, size: 0x8, addend: 0x0, symName: __ZNSt3__16vectorINS_9sub_matchIPKcEENS_9allocatorIS4_EEE20__throw_length_errorB8ne200100Ev, symObjAddr: 0xC7AC, symBinAddr: 0x30BD0, symSize: 0x14 }
  - { offset: 0x199F8B, size: 0x8, addend: 0x0, symName: __ZNSt3__16vectorINS_4pairImPKcEENS_9allocatorIS4_EEE8__appendEm, symObjAddr: 0xC7C0, symBinAddr: 0x30BE4, symSize: 0x120 }
  - { offset: 0x19A6A2, size: 0x8, addend: 0x0, symName: __ZNSt3__16vectorINS_7__stateIcEENS_9allocatorIS2_EEE24__emplace_back_slow_pathIJS2_EEEPS2_DpOT_, symObjAddr: 0xC2D4, symBinAddr: 0x306F8, symSize: 0x17C }
  - { offset: 0x19AD2E, size: 0x8, addend: 0x0, symName: __ZNSt3__16vectorINS_9sub_matchIPKcEENS_9allocatorIS4_EEE8__appendEmRKS4_, symObjAddr: 0xC5FC, symBinAddr: 0x30A20, symSize: 0x1B0 }
  - { offset: 0x19B235, size: 0x8, addend: 0x0, symName: __ZNSt3__16vectorINS_9sub_matchIPKcEENS_9allocatorIS4_EEE20__throw_length_errorB8ne200100Ev, symObjAddr: 0xC7AC, symBinAddr: 0x30BD0, symSize: 0x14 }
  - { offset: 0x19B240, size: 0x8, addend: 0x0, symName: __ZNSt3__16vectorINS_4pairImPKcEENS_9allocatorIS4_EEE8__appendEm, symObjAddr: 0xC7C0, symBinAddr: 0x30BE4, symSize: 0x120 }
  - { offset: 0x19B674, size: 0x8, addend: 0x0, symName: __ZNSt3__16vectorINS_4pairImPKcEENS_9allocatorIS4_EEE20__throw_length_errorB8ne200100Ev, symObjAddr: 0xC8E0, symBinAddr: 0x30D04, symSize: 0x14 }
  - { offset: 0x19B67F, size: 0x8, addend: 0x0, symName: __ZNSt3__17__stateIcEC2ERKS1_, symObjAddr: 0xC8F4, symBinAddr: 0x30D18, symSize: 0x16C }
  - { offset: 0x19BCC1, size: 0x8, addend: 0x0, symName: __ZNSt3__16vectorINS_7__stateIcEENS_9allocatorIS2_EEED1B8ne200100Ev, symObjAddr: 0xC254, symBinAddr: 0x30678, symSize: 0x80 }
  - { offset: 0x19C0B0, size: 0x8, addend: 0x0, symName: __ZNSt3__17__stateIcED1Ev, symObjAddr: 0xC17C, symBinAddr: 0x305A0, symSize: 0x40 }
  - { offset: 0x19C795, size: 0x8, addend: 0x0, symName: __ZNSt3__15dequeINS_7__stateIcEENS_9allocatorIS2_EEE19__add_back_capacityEv, symObjAddr: 0xCC30, symBinAddr: 0x31054, symSize: 0x35C }
  - { offset: 0x19D3CC, size: 0x8, addend: 0x0, symName: __ZNSt3__15dequeINS_7__stateIcEENS_9allocatorIS2_EEE20__add_front_capacityEv, symObjAddr: 0xD40C, symBinAddr: 0x31830, symSize: 0x380 }
  - { offset: 0x19E107, size: 0x8, addend: 0x0, symName: __ZNSt3__15dequeINS_7__stateIcEENS_9allocatorIS2_EEED1B8ne200100Ev, symObjAddr: 0xCBBC, symBinAddr: 0x30FE0, symSize: 0x74 }
  - { offset: 0x19E453, size: 0x8, addend: 0x0, symName: __ZNSt3__16vectorINS_9sub_matchIPKcEENS_9allocatorIS4_EEE18__assign_with_sizeB8ne200100IPS4_S9_EEvT_T0_l, symObjAddr: 0xD914, symBinAddr: 0x31D38, symSize: 0x200 }
  - { offset: 0x19EBDF, size: 0x8, addend: 0x0, symName: __ZNSt3__16vectorINS_4pairImPKcEENS_9allocatorIS4_EEE18__assign_with_sizeB8ne200100IPS4_S9_EEvT_T0_l, symObjAddr: 0xDB14, symBinAddr: 0x31F38, symSize: 0x2FC }
  - { offset: 0x19EBFC, size: 0x8, addend: 0x0, symName: __ZNSt3__16vectorINS_4pairImPKcEENS_9allocatorIS4_EEE18__assign_with_sizeB8ne200100IPS4_S9_EEvT_T0_l, symObjAddr: 0xDB14, symBinAddr: 0x31F38, symSize: 0x2FC }
  - { offset: 0x19F345, size: 0x8, addend: 0x0, symName: __ZNSt3__16vectorINS_9sub_matchINS_11__wrap_iterIPKcEEEENS_9allocatorIS6_EEE8__appendEm, symObjAddr: 0xDE10, symBinAddr: 0x32234, symSize: 0x1A0 }
  - { offset: 0x19F4F5, size: 0x8, addend: 0x0, symName: __ZNSt3__16vectorINS_7__stateIcEENS_9allocatorIS2_EEE26__swap_out_circular_bufferERNS_14__split_bufferIS2_RS4_EE, symObjAddr: 0xC450, symBinAddr: 0x30874, symSize: 0x124 }
  - { offset: 0x19FA62, size: 0x8, addend: 0x0, symName: __ZNSt3__16vectorINS_7__stateIcEENS_9allocatorIS2_EEE20__throw_length_errorB8ne200100Ev, symObjAddr: 0xC5E8, symBinAddr: 0x30A0C, symSize: 0x14 }
  - { offset: 0x19FA7A, size: 0x8, addend: 0x0, symName: __ZNSt3__16vectorINS_9sub_matchIPKcEENS_9allocatorIS4_EEE8__appendEmRKS4_, symObjAddr: 0xC5FC, symBinAddr: 0x30A20, symSize: 0x1B0 }
  - { offset: 0x19FA85, size: 0x8, addend: 0x0, symName: __ZNSt3__114__split_bufferINS_7__stateIcEERNS_9allocatorIS2_EEED1Ev, symObjAddr: 0xC574, symBinAddr: 0x30998, symSize: 0x74 }
  - { offset: 0x1A0369, size: 0x8, addend: 0x0, symName: __ZNSt3__16vectorINS_4pairImPKcEENS_9allocatorIS4_EEE20__throw_length_errorB8ne200100Ev, symObjAddr: 0xC8E0, symBinAddr: 0x30D04, symSize: 0x14 }
  - { offset: 0x1A0381, size: 0x8, addend: 0x0, symName: __ZNSt3__17__stateIcEC2ERKS1_, symObjAddr: 0xC8F4, symBinAddr: 0x30D18, symSize: 0x16C }
  - { offset: 0x1A0784, size: 0x8, addend: 0x0, symName: __ZNSt3__15dequeINS_7__stateIcEENS_9allocatorIS2_EEE5clearEv, symObjAddr: 0xCA60, symBinAddr: 0x30E84, symSize: 0x15C }
  - { offset: 0x1A111F, size: 0x8, addend: 0x0, symName: __ZNSt3__114__split_bufferIPNS_7__stateIcEENS_9allocatorIS3_EEE12emplace_backIJRS3_EEEvDpOT_, symObjAddr: 0xCF8C, symBinAddr: 0x313B0, symSize: 0x17C }
  - { offset: 0x1A157A, size: 0x8, addend: 0x0, symName: __ZNSt3__114__split_bufferIPNS_7__stateIcEENS_9allocatorIS3_EEE12emplace_backIJS3_EEEvDpOT_, symObjAddr: 0xD108, symBinAddr: 0x3152C, symSize: 0x17C }
  - { offset: 0x1A1590, size: 0x8, addend: 0x0, symName: __ZNSt3__114__split_bufferIPNS_7__stateIcEENS_9allocatorIS3_EEE12emplace_backIJS3_EEEvDpOT_, symObjAddr: 0xD108, symBinAddr: 0x3152C, symSize: 0x17C }
  - { offset: 0x1A19EB, size: 0x8, addend: 0x0, symName: __ZNSt3__114__split_bufferIPNS_7__stateIcEENS_9allocatorIS3_EEE13emplace_frontIJS3_EEEvDpOT_, symObjAddr: 0xD284, symBinAddr: 0x316A8, symSize: 0x188 }
  - { offset: 0x1A1A01, size: 0x8, addend: 0x0, symName: __ZNSt3__114__split_bufferIPNS_7__stateIcEENS_9allocatorIS3_EEE13emplace_frontIJS3_EEEvDpOT_, symObjAddr: 0xD284, symBinAddr: 0x316A8, symSize: 0x188 }
  - { offset: 0x1A1E7E, size: 0x8, addend: 0x0, symName: __ZNSt3__15dequeINS_7__stateIcEENS_9allocatorIS2_EEE20__add_front_capacityEv, symObjAddr: 0xD40C, symBinAddr: 0x31830, symSize: 0x380 }
  - { offset: 0x1A1F5E, size: 0x8, addend: 0x0, symName: __ZNSt3__114__split_bufferIPNS_7__stateIcEENS_9allocatorIS3_EEE13emplace_frontIJRS3_EEEvDpOT_, symObjAddr: 0xD78C, symBinAddr: 0x31BB0, symSize: 0x188 }
  - { offset: 0x1A23DB, size: 0x8, addend: 0x0, symName: __ZNSt3__16vectorINS_9sub_matchIPKcEENS_9allocatorIS4_EEE18__assign_with_sizeB8ne200100IPS4_S9_EEvT_T0_l, symObjAddr: 0xD914, symBinAddr: 0x31D38, symSize: 0x200 }
  - { offset: 0x1A286F, size: 0x8, addend: 0x0, symName: __ZNSt3__16vectorINS_9sub_matchINS_11__wrap_iterIPKcEEEENS_9allocatorIS6_EEE20__throw_length_errorB8ne200100Ev, symObjAddr: 0xDFB0, symBinAddr: 0x323D4, symSize: 0x14 }
  - { offset: 0x1A2887, size: 0x8, addend: 0x0, symName: __ZNSt3__16__treeINS_12__value_typeINS_12basic_stringIcNS_11char_traitsIcEENS_9allocatorIcEEEEjEENS_19__map_value_compareIS7_S8_NS_4lessIS7_EELb1EEENS5_IS8_EEE25__emplace_unique_key_argsIS7_JS7_RjEEENS_4pairINS_15__tree_iteratorIS8_PNS_11__tree_nodeIS8_PvEElEEbEERKT_DpOT0_, symObjAddr: 0xDFC4, symBinAddr: 0x323E8, symSize: 0x180 }
  - { offset: 0x1A30FD, size: 0x8, addend: 0x0, symName: __ZNSt3__114__split_bufferI29llama_grammar_trigger_patternRNS_9allocatorIS1_EEED1Ev, symObjAddr: 0xEA7C, symBinAddr: 0x32CE0, symSize: 0xB8 }
  - { offset: 0x1A344D, size: 0x8, addend: 0x0, symName: __ZNSt3__111basic_regexIcNS_12regex_traitsIcEEEC1B8ne200100Ev, symObjAddr: 0xEA10, symBinAddr: 0x32C74, symSize: 0x6C }
  - { offset: 0x1A36FE, size: 0x8, addend: 0x0, symName: __ZNSt3__128__exception_guard_exceptionsINS_29_AllocatorDestroyRangeReverseINS_9allocatorI29llama_grammar_trigger_patternEEPS3_EEED1B8ne200100Ev, symObjAddr: 0xEC44, symBinAddr: 0x32EA8, symSize: 0xB8 }
  - { offset: 0x1A3A17, size: 0x8, addend: 0x0, symName: __ZNSt3__111basic_regexIcNS_12regex_traitsIcEEE7__parseINS_11__wrap_iterIPKcEEEET_S9_S9_, symObjAddr: 0xEDD0, symBinAddr: 0x33034, symSize: 0x200 }
  - { offset: 0x1A439A, size: 0x8, addend: 0x0, symName: __ZNSt3__111basic_regexIcNS_12regex_traitsIcEEE13__parse_egrepINS_11__wrap_iterIPKcEEEET_S9_S9_, symObjAddr: 0xF6E8, symBinAddr: 0x3394C, symSize: 0x1A0 }
  - { offset: 0x1A491F, size: 0x8, addend: 0x0, symName: __ZNSt3__111basic_regexIcNS_12regex_traitsIcEEE24__parse_extended_reg_expINS_11__wrap_iterIPKcEEEET_S9_S9_, symObjAddr: 0xF3E4, symBinAddr: 0x33648, symSize: 0x164 }
  - { offset: 0x1A4C54, size: 0x8, addend: 0x0, symName: __ZNSt3__111basic_regexIcNS_12regex_traitsIcEEE12__parse_grepINS_11__wrap_iterIPKcEEEET_S9_S9_, symObjAddr: 0xF548, symBinAddr: 0x337AC, symSize: 0x1A0 }
  - { offset: 0x1A4C68, size: 0x8, addend: 0x0, symName: __ZNSt3__111basic_regexIcNS_12regex_traitsIcEEE21__parse_basic_reg_expINS_11__wrap_iterIPKcEEEET_S9_S9_, symObjAddr: 0xF264, symBinAddr: 0x334C8, symSize: 0x180 }
  - { offset: 0x1A4F89, size: 0x8, addend: 0x0, symName: __ZNSt3__111basic_regexIcNS_12regex_traitsIcEEE24__parse_extended_reg_expINS_11__wrap_iterIPKcEEEET_S9_S9_, symObjAddr: 0xF3E4, symBinAddr: 0x33648, symSize: 0x164 }
  - { offset: 0x1A4F9D, size: 0x8, addend: 0x0, symName: __ZNSt3__111basic_regexIcNS_12regex_traitsIcEEE12__parse_grepINS_11__wrap_iterIPKcEEEET_S9_S9_, symObjAddr: 0xF548, symBinAddr: 0x337AC, symSize: 0x1A0 }
  - { offset: 0x1A5522, size: 0x8, addend: 0x0, symName: __ZNSt3__111basic_regexIcNS_12regex_traitsIcEEE16__parse_ecma_expINS_11__wrap_iterIPKcEEEET_S9_S9_, symObjAddr: 0xF01C, symBinAddr: 0x33280, symSize: 0x248 }
  - { offset: 0x1A5CDB, size: 0x8, addend: 0x0, symName: __ZNSt3__111basic_regexIcNS_12regex_traitsIcEEE17__parse_assertionINS_11__wrap_iterIPKcEEEET_S9_S9_, symObjAddr: 0xFACC, symBinAddr: 0x33D30, symSize: 0x30C }
  - { offset: 0x1A61F3, size: 0x8, addend: 0x0, symName: __ZNSt3__111basic_regexIcNS_12regex_traitsIcEEE12__parse_atomINS_11__wrap_iterIPKcEEEET_S9_S9_, symObjAddr: 0xFDD8, symBinAddr: 0x3403C, symSize: 0x268 }
  - { offset: 0x1A6560, size: 0x8, addend: 0x0, symName: __ZNSt3__111basic_regexIcNS_12regex_traitsIcEEE23__parse_ERE_dupl_symbolINS_11__wrap_iterIPKcEEEET_S9_S9_PNS_16__owns_one_stateIcEEjj, symObjAddr: 0x10040, symBinAddr: 0x342A4, symSize: 0x378 }
  - { offset: 0x1A6574, size: 0x8, addend: 0x0, symName: __ZNSt3__111basic_regexIcNS_12regex_traitsIcEEE23__parse_ERE_dupl_symbolINS_11__wrap_iterIPKcEEEET_S9_S9_PNS_16__owns_one_stateIcEEjj, symObjAddr: 0x10040, symBinAddr: 0x342A4, symSize: 0x378 }
  - { offset: 0x1A6B90, size: 0x8, addend: 0x0, symName: __ZNSt3__111basic_regexIcNS_12regex_traitsIcEEE20__push_word_boundaryEb, symObjAddr: 0x103B8, symBinAddr: 0x3461C, symSize: 0x6C }
  - { offset: 0x1A6D8E, size: 0x8, addend: 0x0, symName: __ZNSt3__111basic_regexIcNS_12regex_traitsIcEEE18__parse_nondupl_REINS_11__wrap_iterIPKcEEEET_S9_S9_, symObjAddr: 0x15BB0, symBinAddr: 0x39D90, symSize: 0x20C }
  - { offset: 0x1A724A, size: 0x8, addend: 0x0, symName: __ZNSt3__111basic_regexIcNS_12regex_traitsIcEEE22__parse_RE_dupl_symbolINS_11__wrap_iterIPKcEEEET_S9_S9_PNS_16__owns_one_stateIcEEjj, symObjAddr: 0x15DBC, symBinAddr: 0x39F9C, symSize: 0x274 }
  - { offset: 0x1A725E, size: 0x8, addend: 0x0, symName: __ZNSt3__111basic_regexIcNS_12regex_traitsIcEEE22__parse_RE_dupl_symbolINS_11__wrap_iterIPKcEEEET_S9_S9_PNS_16__owns_one_stateIcEEjj, symObjAddr: 0x15DBC, symBinAddr: 0x39F9C, symSize: 0x274 }
  - { offset: 0x1A7752, size: 0x8, addend: 0x0, symName: __ZNSt3__111basic_regexIcNS_12regex_traitsIcEEE32__parse_one_char_or_coll_elem_REINS_11__wrap_iterIPKcEEEET_S9_S9_, symObjAddr: 0x16030, symBinAddr: 0x3A210, symSize: 0x18C }
  - { offset: 0x1A77A9, size: 0x8, addend: 0x0, symName: __ZNSt3__111basic_regexIcNS_12regex_traitsIcEEE22__parse_ERE_expressionINS_11__wrap_iterIPKcEEEET_S9_S9_, symObjAddr: 0x162EC, symBinAddr: 0x3A4CC, symSize: 0x1F0 }
  - { offset: 0x1A7B52, size: 0x8, addend: 0x0, symName: __ZNSt3__111basic_regexIcNS_12regex_traitsIcEEE33__parse_one_char_or_coll_elem_EREINS_11__wrap_iterIPKcEEEET_S9_S9_, symObjAddr: 0x164DC, symBinAddr: 0x3A6BC, symSize: 0x158 }
  - { offset: 0x1A7B82, size: 0x8, addend: 0x0, symName: __ZNSt3__111__end_stateIcED1Ev, symObjAddr: 0xF8D4, symBinAddr: 0x33B38, symSize: 0x4 }
  - { offset: 0x1A7BAE, size: 0x8, addend: 0x0, symName: __ZNSt3__111__end_stateIcED0Ev, symObjAddr: 0xF8D8, symBinAddr: 0x33B3C, symSize: 0x4 }
  - { offset: 0x1A7BCE, size: 0x8, addend: 0x0, symName: __ZNKSt3__111__end_stateIcE6__execERNS_7__stateIcEE, symObjAddr: 0xF8DC, symBinAddr: 0x33B40, symSize: 0xC }
  - { offset: 0x1A7C01, size: 0x8, addend: 0x0, symName: __ZNKSt3__16__nodeIcE12__exec_splitEbRNS_7__stateIcEE, symObjAddr: 0xF8E8, symBinAddr: 0x33B4C, symSize: 0x4 }
  - { offset: 0x1A7C41, size: 0x8, addend: 0x0, symName: __ZNKSt3__16__nodeIcE6__execERNS_7__stateIcEE, symObjAddr: 0xF8EC, symBinAddr: 0x33B50, symSize: 0x4 }
  - { offset: 0x1A7C8D, size: 0x8, addend: 0x0, symName: __ZNSt3__120__shared_ptr_pointerIPNS_13__empty_stateIcEENS_10shared_ptrIS2_E27__shared_ptr_default_deleteIS2_S2_EENS_9allocatorIS2_EEED1Ev, symObjAddr: 0xF8F0, symBinAddr: 0x33B54, symSize: 0x4 }
  - { offset: 0x1A7CAF, size: 0x8, addend: 0x0, symName: __ZNSt3__120__shared_ptr_pointerIPNS_13__empty_stateIcEENS_10shared_ptrIS2_E27__shared_ptr_default_deleteIS2_S2_EENS_9allocatorIS2_EEED1Ev, symObjAddr: 0xF8F0, symBinAddr: 0x33B54, symSize: 0x4 }
  - { offset: 0x1A7CE5, size: 0x8, addend: 0x0, symName: __ZNSt3__120__shared_ptr_pointerIPNS_13__empty_stateIcEENS_10shared_ptrIS2_E27__shared_ptr_default_deleteIS2_S2_EENS_9allocatorIS2_EEED0Ev, symObjAddr: 0xF8F4, symBinAddr: 0x33B58, symSize: 0x14 }
  - { offset: 0x1A7D48, size: 0x8, addend: 0x0, symName: __ZNSt3__120__shared_ptr_pointerIPNS_13__empty_stateIcEENS_10shared_ptrIS2_E27__shared_ptr_default_deleteIS2_S2_EENS_9allocatorIS2_EEE16__on_zero_sharedEv, symObjAddr: 0xF908, symBinAddr: 0x33B6C, symSize: 0x18 }
  - { offset: 0x1A7DF0, size: 0x8, addend: 0x0, symName: __ZNKSt3__120__shared_ptr_pointerIPNS_13__empty_stateIcEENS_10shared_ptrIS2_E27__shared_ptr_default_deleteIS2_S2_EENS_9allocatorIS2_EEE13__get_deleterERKSt9type_info, symObjAddr: 0xF920, symBinAddr: 0x33B84, symSize: 0x74 }
  - { offset: 0x1A7F14, size: 0x8, addend: 0x0, symName: __ZNSt3__120__shared_ptr_pointerIPNS_13__empty_stateIcEENS_10shared_ptrIS2_E27__shared_ptr_default_deleteIS2_S2_EENS_9allocatorIS2_EEE21__on_zero_shared_weakEv, symObjAddr: 0xF994, symBinAddr: 0x33BF8, symSize: 0x4 }
  - { offset: 0x1A7F46, size: 0x8, addend: 0x0, symName: __ZNSt3__120__shared_ptr_pointerIPNS_13__empty_stateIcEENS_10shared_ptrIS2_E27__shared_ptr_default_deleteIS2_S2_EENS_9allocatorIS2_EEE21__on_zero_shared_weakEv, symObjAddr: 0xF994, symBinAddr: 0x33BF8, symSize: 0x4 }
  - { offset: 0x1A7F68, size: 0x8, addend: 0x0, symName: __ZNSt3__120__shared_ptr_pointerIPNS_13__empty_stateIcEENS_10shared_ptrIS2_E27__shared_ptr_default_deleteIS2_S2_EENS_9allocatorIS2_EEE21__on_zero_shared_weakEv, symObjAddr: 0xF994, symBinAddr: 0x33BF8, symSize: 0x4 }
  - { offset: 0x1A7F9C, size: 0x8, addend: 0x0, symName: __ZNSt3__120__shared_ptr_pointerIPNS_13__empty_stateIcEENS_10shared_ptrIS2_E27__shared_ptr_default_deleteIS2_S2_EENS_9allocatorIS2_EEE21__on_zero_shared_weakEv, symObjAddr: 0xF994, symBinAddr: 0x33BF8, symSize: 0x4 }
  - { offset: 0x1A7FC3, size: 0x8, addend: 0x0, symName: __ZNSt3__113__empty_stateIcED1Ev, symObjAddr: 0xF998, symBinAddr: 0x33BFC, symSize: 0x48 }
  - { offset: 0x1A7FE7, size: 0x8, addend: 0x0, symName: __ZNSt3__113__empty_stateIcED1Ev, symObjAddr: 0xF998, symBinAddr: 0x33BFC, symSize: 0x48 }
  - { offset: 0x1A8005, size: 0x8, addend: 0x0, symName: __ZNSt3__113__empty_stateIcED1Ev, symObjAddr: 0xF998, symBinAddr: 0x33BFC, symSize: 0x48 }
  - { offset: 0x1A802F, size: 0x8, addend: 0x0, symName: __ZNSt3__113__empty_stateIcED0Ev, symObjAddr: 0xF9E0, symBinAddr: 0x33C44, symSize: 0x48 }
  - { offset: 0x1A8053, size: 0x8, addend: 0x0, symName: __ZNSt3__113__empty_stateIcED0Ev, symObjAddr: 0xF9E0, symBinAddr: 0x33C44, symSize: 0x48 }
  - { offset: 0x1A8071, size: 0x8, addend: 0x0, symName: __ZNSt3__113__empty_stateIcED0Ev, symObjAddr: 0xF9E0, symBinAddr: 0x33C44, symSize: 0x48 }
  - { offset: 0x1A808F, size: 0x8, addend: 0x0, symName: __ZNSt3__113__empty_stateIcED0Ev, symObjAddr: 0xF9E0, symBinAddr: 0x33C44, symSize: 0x48 }
  - { offset: 0x1A80D6, size: 0x8, addend: 0x0, symName: __ZNKSt3__113__empty_stateIcE6__execERNS_7__stateIcEE, symObjAddr: 0xFA28, symBinAddr: 0x33C8C, symSize: 0x14 }
  - { offset: 0x1A8128, size: 0x8, addend: 0x0, symName: __ZNSt3__116__owns_one_stateIcED1Ev, symObjAddr: 0xFA3C, symBinAddr: 0x33CA0, symSize: 0x48 }
  - { offset: 0x1A814C, size: 0x8, addend: 0x0, symName: __ZNSt3__116__owns_one_stateIcED1Ev, symObjAddr: 0xFA3C, symBinAddr: 0x33CA0, symSize: 0x48 }
  - { offset: 0x1A8191, size: 0x8, addend: 0x0, symName: __ZNSt3__116__owns_one_stateIcED0Ev, symObjAddr: 0xFA84, symBinAddr: 0x33CE8, symSize: 0x48 }
  - { offset: 0x1A81C0, size: 0x8, addend: 0x0, symName: __ZNSt3__116__owns_one_stateIcED0Ev, symObjAddr: 0xFA84, symBinAddr: 0x33CE8, symSize: 0x48 }
  - { offset: 0x1A81DE, size: 0x8, addend: 0x0, symName: __ZNSt3__116__owns_one_stateIcED0Ev, symObjAddr: 0xFA84, symBinAddr: 0x33CE8, symSize: 0x48 }
  - { offset: 0x1A8309, size: 0x8, addend: 0x0, symName: __ZNSt3__111basic_regexIcNS_12regex_traitsIcEEE16__push_lookaheadERKS3_bj, symObjAddr: 0x10424, symBinAddr: 0x34688, symSize: 0xA8 }
  - { offset: 0x1A8521, size: 0x8, addend: 0x0, symName: __ZNSt3__111basic_regexIcNS_12regex_traitsIcEEE20__push_word_boundaryEb, symObjAddr: 0x103B8, symBinAddr: 0x3461C, symSize: 0x6C }
  - { offset: 0x1A87F3, size: 0x8, addend: 0x0, symName: __ZNSt3__111basic_regexIcNS_12regex_traitsIcEEE26__parse_bracket_expressionINS_11__wrap_iterIPKcEEEET_S9_S9_, symObjAddr: 0x10CE0, symBinAddr: 0x34F44, symSize: 0x158 }
  - { offset: 0x1A8A1B, size: 0x8, addend: 0x0, symName: __ZNSt3__111basic_regexIcNS_12regex_traitsIcEEE19__parse_atom_escapeINS_11__wrap_iterIPKcEEEET_S9_S9_, symObjAddr: 0x10B94, symBinAddr: 0x34DF8, symSize: 0x14C }
  - { offset: 0x1A8B87, size: 0x8, addend: 0x0, symName: __ZNSt3__111basic_regexIcNS_12regex_traitsIcEEE26__parse_bracket_expressionINS_11__wrap_iterIPKcEEEET_S9_S9_, symObjAddr: 0x10CE0, symBinAddr: 0x34F44, symSize: 0x158 }
  - { offset: 0x1A8B9B, size: 0x8, addend: 0x0, symName: __ZNSt3__111basic_regexIcNS_12regex_traitsIcEEE25__parse_pattern_characterINS_11__wrap_iterIPKcEEEET_S9_S9_, symObjAddr: 0x10E84, symBinAddr: 0x350E8, symSize: 0x7C }
  - { offset: 0x1A8D6F, size: 0x8, addend: 0x0, symName: __ZNSt3__111basic_regexIcNS_12regex_traitsIcEEE11__push_loopEmmPNS_16__owns_one_stateIcEEmmb, symObjAddr: 0x153E8, symBinAddr: 0x395C8, symSize: 0x13C }
  - { offset: 0x1A9322, size: 0x8, addend: 0x0, symName: __ZNSt3__120__l_anchor_multilineIcED1Ev, symObjAddr: 0x10518, symBinAddr: 0x3477C, symSize: 0x48 }
  - { offset: 0x1A9346, size: 0x8, addend: 0x0, symName: __ZNSt3__120__l_anchor_multilineIcED1Ev, symObjAddr: 0x10518, symBinAddr: 0x3477C, symSize: 0x48 }
  - { offset: 0x1A9364, size: 0x8, addend: 0x0, symName: __ZNSt3__120__l_anchor_multilineIcED1Ev, symObjAddr: 0x10518, symBinAddr: 0x3477C, symSize: 0x48 }
  - { offset: 0x1A93AB, size: 0x8, addend: 0x0, symName: __ZNSt3__120__l_anchor_multilineIcED0Ev, symObjAddr: 0x10560, symBinAddr: 0x347C4, symSize: 0x48 }
  - { offset: 0x1A93DB, size: 0x8, addend: 0x0, symName: __ZNSt3__120__l_anchor_multilineIcED0Ev, symObjAddr: 0x10560, symBinAddr: 0x347C4, symSize: 0x48 }
  - { offset: 0x1A93F9, size: 0x8, addend: 0x0, symName: __ZNSt3__120__l_anchor_multilineIcED0Ev, symObjAddr: 0x10560, symBinAddr: 0x347C4, symSize: 0x48 }
  - { offset: 0x1A9417, size: 0x8, addend: 0x0, symName: __ZNSt3__120__l_anchor_multilineIcED0Ev, symObjAddr: 0x10560, symBinAddr: 0x347C4, symSize: 0x48 }
  - { offset: 0x1A9442, size: 0x8, addend: 0x0, symName: __ZNKSt3__120__l_anchor_multilineIcE6__execERNS_7__stateIcEE, symObjAddr: 0x105A8, symBinAddr: 0x3480C, symSize: 0x68 }
  - { offset: 0x1A94A6, size: 0x8, addend: 0x0, symName: __ZNSt3__120__r_anchor_multilineIcED1Ev, symObjAddr: 0x10610, symBinAddr: 0x34874, symSize: 0x48 }
  - { offset: 0x1A94CA, size: 0x8, addend: 0x0, symName: __ZNSt3__120__r_anchor_multilineIcED1Ev, symObjAddr: 0x10610, symBinAddr: 0x34874, symSize: 0x48 }
  - { offset: 0x1A94E8, size: 0x8, addend: 0x0, symName: __ZNSt3__120__r_anchor_multilineIcED1Ev, symObjAddr: 0x10610, symBinAddr: 0x34874, symSize: 0x48 }
  - { offset: 0x1A952F, size: 0x8, addend: 0x0, symName: __ZNSt3__120__r_anchor_multilineIcED0Ev, symObjAddr: 0x10658, symBinAddr: 0x348BC, symSize: 0x48 }
  - { offset: 0x1A955F, size: 0x8, addend: 0x0, symName: __ZNSt3__120__r_anchor_multilineIcED0Ev, symObjAddr: 0x10658, symBinAddr: 0x348BC, symSize: 0x48 }
  - { offset: 0x1A957D, size: 0x8, addend: 0x0, symName: __ZNSt3__120__r_anchor_multilineIcED0Ev, symObjAddr: 0x10658, symBinAddr: 0x348BC, symSize: 0x48 }
  - { offset: 0x1A959B, size: 0x8, addend: 0x0, symName: __ZNSt3__120__r_anchor_multilineIcED0Ev, symObjAddr: 0x10658, symBinAddr: 0x348BC, symSize: 0x48 }
  - { offset: 0x1A95C6, size: 0x8, addend: 0x0, symName: __ZNKSt3__120__r_anchor_multilineIcE6__execERNS_7__stateIcEE, symObjAddr: 0x106A0, symBinAddr: 0x34904, symSize: 0x54 }
  - { offset: 0x1A962A, size: 0x8, addend: 0x0, symName: __ZNSt3__115__word_boundaryIcNS_12regex_traitsIcEEED1Ev, symObjAddr: 0x106F4, symBinAddr: 0x34958, symSize: 0x58 }
  - { offset: 0x1A96DA, size: 0x8, addend: 0x0, symName: __ZNSt3__115__word_boundaryIcNS_12regex_traitsIcEEED0Ev, symObjAddr: 0x1074C, symBinAddr: 0x349B0, symSize: 0x58 }
  - { offset: 0x1A97F4, size: 0x8, addend: 0x0, symName: __ZNKSt3__115__word_boundaryIcNS_12regex_traitsIcEEE6__execERNS_7__stateIcEE, symObjAddr: 0x107A4, symBinAddr: 0x34A08, symSize: 0x154 }
  - { offset: 0x1A99B2, size: 0x8, addend: 0x0, symName: __ZNSt3__111__lookaheadIcNS_12regex_traitsIcEEED1Ev, symObjAddr: 0x108F8, symBinAddr: 0x34B5C, symSize: 0x8C }
  - { offset: 0x1A9B12, size: 0x8, addend: 0x0, symName: __ZNSt3__111__lookaheadIcNS_12regex_traitsIcEEED0Ev, symObjAddr: 0x10984, symBinAddr: 0x34BE8, symSize: 0x8C }
  - { offset: 0x1A9C7E, size: 0x8, addend: 0x0, symName: __ZNKSt3__111__lookaheadIcNS_12regex_traitsIcEEE6__execERNS_7__stateIcEE, symObjAddr: 0x10A10, symBinAddr: 0x34C74, symSize: 0x184 }
  - { offset: 0x1AA22C, size: 0x8, addend: 0x0, symName: __ZNSt3__111basic_regexIcNS_12regex_traitsIcEEE11__push_charEc, symObjAddr: 0x115C4, symBinAddr: 0x35828, symSize: 0x144 }
  - { offset: 0x1AA597, size: 0x8, addend: 0x0, symName: __ZNSt3__111basic_regexIcNS_12regex_traitsIcEEE15__push_back_refEi, symObjAddr: 0x11754, symBinAddr: 0x359B8, symSize: 0xD4 }
  - { offset: 0x1AA74B, size: 0x8, addend: 0x0, symName: __ZNSt3__111basic_regexIcNS_12regex_traitsIcEEE30__parse_character_class_escapeINS_11__wrap_iterIPKcEEEET_S9_S9_, symObjAddr: 0x10FDC, symBinAddr: 0x35240, symSize: 0x25C }
  - { offset: 0x1AABBA, size: 0x8, addend: 0x0, symName: __ZNSt3__111basic_regexIcNS_12regex_traitsIcEEE24__parse_character_escapeINS_11__wrap_iterIPKcEEEET_S9_S9_PNS_12basic_stringIcNS_11char_traitsIcEENS_9allocatorIcEEEE, symObjAddr: 0x11238, symBinAddr: 0x3549C, symSize: 0x38C }
  - { offset: 0x1AAF80, size: 0x8, addend: 0x0, symName: __ZNSt3__111basic_regexIcNS_12regex_traitsIcEEE11__push_charEc, symObjAddr: 0x115C4, symBinAddr: 0x35828, symSize: 0x144 }
  - { offset: 0x1AB06B, size: 0x8, addend: 0x0, symName: __ZNSt3__120__bracket_expressionIcNS_12regex_traitsIcEEEC2B8ne200100ERKS2_PNS_6__nodeIcEEbbb, symObjAddr: 0x12100, symBinAddr: 0x36364, symSize: 0x19C }
  - { offset: 0x1AB69D, size: 0x8, addend: 0x0, symName: __ZNSt3__120__bracket_expressionIcNS_12regex_traitsIcEEE10__add_charB8ne200100Ec, symObjAddr: 0x11F74, symBinAddr: 0x361D8, symSize: 0x18C }
  - { offset: 0x1AB9C5, size: 0x8, addend: 0x0, symName: __ZNSt3__120__bracket_expressionIcNS_12regex_traitsIcEEEC2B8ne200100ERKS2_PNS_6__nodeIcEEbbb, symObjAddr: 0x12100, symBinAddr: 0x36364, symSize: 0x19C }
  - { offset: 0x1AB9D0, size: 0x8, addend: 0x0, symName: __ZNSt3__111basic_regexIcNS_12regex_traitsIcEEE23__parse_expression_termINS_11__wrap_iterIPKcEEEET_S9_S9_PNS_20__bracket_expressionIcS2_EE, symObjAddr: 0x13320, symBinAddr: 0x37500, symSize: 0x454 }
  - { offset: 0x1AC64E, size: 0x8, addend: 0x0, symName: __ZNSt3__123__match_any_but_newlineIcED1Ev, symObjAddr: 0x10F00, symBinAddr: 0x35164, symSize: 0x48 }
  - { offset: 0x1AC672, size: 0x8, addend: 0x0, symName: __ZNSt3__123__match_any_but_newlineIcED1Ev, symObjAddr: 0x10F00, symBinAddr: 0x35164, symSize: 0x48 }
  - { offset: 0x1AC690, size: 0x8, addend: 0x0, symName: __ZNSt3__123__match_any_but_newlineIcED1Ev, symObjAddr: 0x10F00, symBinAddr: 0x35164, symSize: 0x48 }
  - { offset: 0x1AC6D7, size: 0x8, addend: 0x0, symName: __ZNSt3__123__match_any_but_newlineIcED0Ev, symObjAddr: 0x10F48, symBinAddr: 0x351AC, symSize: 0x48 }
  - { offset: 0x1AC707, size: 0x8, addend: 0x0, symName: __ZNSt3__123__match_any_but_newlineIcED0Ev, symObjAddr: 0x10F48, symBinAddr: 0x351AC, symSize: 0x48 }
  - { offset: 0x1AC725, size: 0x8, addend: 0x0, symName: __ZNSt3__123__match_any_but_newlineIcED0Ev, symObjAddr: 0x10F48, symBinAddr: 0x351AC, symSize: 0x48 }
  - { offset: 0x1AC743, size: 0x8, addend: 0x0, symName: __ZNSt3__123__match_any_but_newlineIcED0Ev, symObjAddr: 0x10F48, symBinAddr: 0x351AC, symSize: 0x48 }
  - { offset: 0x1ACB93, size: 0x8, addend: 0x0, symName: __ZNSt3__118__match_char_icaseIcNS_12regex_traitsIcEEED1Ev, symObjAddr: 0x11828, symBinAddr: 0x35A8C, symSize: 0x58 }
  - { offset: 0x1ACC43, size: 0x8, addend: 0x0, symName: __ZNSt3__118__match_char_icaseIcNS_12regex_traitsIcEEED0Ev, symObjAddr: 0x11880, symBinAddr: 0x35AE4, symSize: 0x58 }
  - { offset: 0x1ACCFF, size: 0x8, addend: 0x0, symName: __ZNKSt3__118__match_char_icaseIcNS_12regex_traitsIcEEE6__execERNS_7__stateIcEE, symObjAddr: 0x118D8, symBinAddr: 0x35B3C, symSize: 0x84 }
  - { offset: 0x1ACDB8, size: 0x8, addend: 0x0, symName: __ZNSt3__120__match_char_collateIcNS_12regex_traitsIcEEED1Ev, symObjAddr: 0x1195C, symBinAddr: 0x35BC0, symSize: 0x58 }
  - { offset: 0x1ACE68, size: 0x8, addend: 0x0, symName: __ZNSt3__120__match_char_collateIcNS_12regex_traitsIcEEED0Ev, symObjAddr: 0x119B4, symBinAddr: 0x35C18, symSize: 0x58 }
  - { offset: 0x1ACF24, size: 0x8, addend: 0x0, symName: __ZNKSt3__120__match_char_collateIcNS_12regex_traitsIcEEE6__execERNS_7__stateIcEE, symObjAddr: 0x11A0C, symBinAddr: 0x35C70, symSize: 0x48 }
  - { offset: 0x1ACF91, size: 0x8, addend: 0x0, symName: __ZNSt3__112__match_charIcED1Ev, symObjAddr: 0x11A54, symBinAddr: 0x35CB8, symSize: 0x48 }
  - { offset: 0x1ACFB5, size: 0x8, addend: 0x0, symName: __ZNSt3__112__match_charIcED1Ev, symObjAddr: 0x11A54, symBinAddr: 0x35CB8, symSize: 0x48 }
  - { offset: 0x1ACFD3, size: 0x8, addend: 0x0, symName: __ZNSt3__112__match_charIcED1Ev, symObjAddr: 0x11A54, symBinAddr: 0x35CB8, symSize: 0x48 }
  - { offset: 0x1AD01A, size: 0x8, addend: 0x0, symName: __ZNSt3__112__match_charIcED0Ev, symObjAddr: 0x11A9C, symBinAddr: 0x35D00, symSize: 0x48 }
  - { offset: 0x1AD04A, size: 0x8, addend: 0x0, symName: __ZNSt3__112__match_charIcED0Ev, symObjAddr: 0x11A9C, symBinAddr: 0x35D00, symSize: 0x48 }
  - { offset: 0x1AD068, size: 0x8, addend: 0x0, symName: __ZNSt3__112__match_charIcED0Ev, symObjAddr: 0x11A9C, symBinAddr: 0x35D00, symSize: 0x48 }
  - { offset: 0x1AD086, size: 0x8, addend: 0x0, symName: __ZNSt3__112__match_charIcED0Ev, symObjAddr: 0x11A9C, symBinAddr: 0x35D00, symSize: 0x48 }
  - { offset: 0x1AD0B1, size: 0x8, addend: 0x0, symName: __ZNKSt3__112__match_charIcE6__execERNS_7__stateIcEE, symObjAddr: 0x11AE4, symBinAddr: 0x35D48, symSize: 0x48 }
  - { offset: 0x1AD11E, size: 0x8, addend: 0x0, symName: __ZNSt3__116__back_ref_icaseIcNS_12regex_traitsIcEEED1Ev, symObjAddr: 0x11B2C, symBinAddr: 0x35D90, symSize: 0x58 }
  - { offset: 0x1AD1CE, size: 0x8, addend: 0x0, symName: __ZNSt3__116__back_ref_icaseIcNS_12regex_traitsIcEEED0Ev, symObjAddr: 0x11B84, symBinAddr: 0x35DE8, symSize: 0x58 }
  - { offset: 0x1AD28A, size: 0x8, addend: 0x0, symName: __ZNKSt3__116__back_ref_icaseIcNS_12regex_traitsIcEEE6__execERNS_7__stateIcEE, symObjAddr: 0x11BDC, symBinAddr: 0x35E40, symSize: 0xFC }
  - { offset: 0x1AD3F1, size: 0x8, addend: 0x0, symName: __ZNSt3__118__back_ref_collateIcNS_12regex_traitsIcEEED1Ev, symObjAddr: 0x11CD8, symBinAddr: 0x35F3C, symSize: 0x58 }
  - { offset: 0x1AD4A1, size: 0x8, addend: 0x0, symName: __ZNSt3__118__back_ref_collateIcNS_12regex_traitsIcEEED0Ev, symObjAddr: 0x11D30, symBinAddr: 0x35F94, symSize: 0x58 }
  - { offset: 0x1AD55D, size: 0x8, addend: 0x0, symName: __ZNKSt3__118__back_ref_collateIcNS_12regex_traitsIcEEE6__execERNS_7__stateIcEE, symObjAddr: 0x11D88, symBinAddr: 0x35FEC, symSize: 0x8C }
  - { offset: 0x1AD62E, size: 0x8, addend: 0x0, symName: __ZNSt3__110__back_refIcED1Ev, symObjAddr: 0x11E14, symBinAddr: 0x36078, symSize: 0x48 }
  - { offset: 0x1AD652, size: 0x8, addend: 0x0, symName: __ZNSt3__110__back_refIcED1Ev, symObjAddr: 0x11E14, symBinAddr: 0x36078, symSize: 0x48 }
  - { offset: 0x1AD670, size: 0x8, addend: 0x0, symName: __ZNSt3__110__back_refIcED1Ev, symObjAddr: 0x11E14, symBinAddr: 0x36078, symSize: 0x48 }
  - { offset: 0x1AD6B7, size: 0x8, addend: 0x0, symName: __ZNSt3__110__back_refIcED0Ev, symObjAddr: 0x11E5C, symBinAddr: 0x360C0, symSize: 0x48 }
  - { offset: 0x1AD6E7, size: 0x8, addend: 0x0, symName: __ZNSt3__110__back_refIcED0Ev, symObjAddr: 0x11E5C, symBinAddr: 0x360C0, symSize: 0x48 }
  - { offset: 0x1AD705, size: 0x8, addend: 0x0, symName: __ZNSt3__110__back_refIcED0Ev, symObjAddr: 0x11E5C, symBinAddr: 0x360C0, symSize: 0x48 }
  - { offset: 0x1AD723, size: 0x8, addend: 0x0, symName: __ZNSt3__110__back_refIcED0Ev, symObjAddr: 0x11E5C, symBinAddr: 0x360C0, symSize: 0x48 }
  - { offset: 0x1AD74E, size: 0x8, addend: 0x0, symName: __ZNKSt3__110__back_refIcE6__execERNS_7__stateIcEE, symObjAddr: 0x11EA4, symBinAddr: 0x36108, symSize: 0xD0 }
  - { offset: 0x1AD8C6, size: 0x8, addend: 0x0, symName: __ZNSt3__120__bracket_expressionIcNS_12regex_traitsIcEEE10__add_charB8ne200100Ec, symObjAddr: 0x11F74, symBinAddr: 0x361D8, symSize: 0x18C }
  - { offset: 0x1ADB4D, size: 0x8, addend: 0x0, symName: __ZNSt3__16vectorIcNS_9allocatorIcEEE20__throw_length_errorB8ne200100Ev, symObjAddr: 0x132C0, symBinAddr: 0x374A0, symSize: 0x14 }
  - { offset: 0x1ADB65, size: 0x8, addend: 0x0, symName: __ZNSt3__119__throw_regex_errorB8ne200100ILNS_15regex_constants10error_typeE5EEEvv, symObjAddr: 0x132D4, symBinAddr: 0x374B4, symSize: 0x4C }
  - { offset: 0x1ADF48, size: 0x8, addend: 0x0, symName: __ZNSt3__16vectorINS_4pairINS_12basic_stringIcNS_11char_traitsIcEENS_9allocatorIcEEEES7_EENS5_IS8_EEED1B8ne200100Ev, symObjAddr: 0x1230C, symBinAddr: 0x36500, symSize: 0x94 }
  - { offset: 0x1AE5B2, size: 0x8, addend: 0x0, symName: __ZNSt3__120__bracket_expressionIcNS_12regex_traitsIcEEED1Ev, symObjAddr: 0x123A0, symBinAddr: 0x36594, symSize: 0x4 }
  - { offset: 0x1AE5D5, size: 0x8, addend: 0x0, symName: __ZNSt3__120__bracket_expressionIcNS_12regex_traitsIcEEED1Ev, symObjAddr: 0x123A0, symBinAddr: 0x36594, symSize: 0x4 }
  - { offset: 0x1AE5E8, size: 0x8, addend: 0x0, symName: __ZNSt3__120__bracket_expressionIcNS_12regex_traitsIcEEED2Ev, symObjAddr: 0x12C88, symBinAddr: 0x36E68, symSize: 0x148 }
  - { offset: 0x1AEFED, size: 0x8, addend: 0x0, symName: __ZNSt3__120__bracket_expressionIcNS_12regex_traitsIcEEED0Ev, symObjAddr: 0x123A4, symBinAddr: 0x36598, symSize: 0x14 }
  - { offset: 0x1AF42B, size: 0x8, addend: 0x0, symName: __ZNKSt3__120__bracket_expressionIcNS_12regex_traitsIcEEE6__execERNS_7__stateIcEE, symObjAddr: 0x123B8, symBinAddr: 0x365AC, symSize: 0x864 }
  - { offset: 0x1B0C78, size: 0x8, addend: 0x0, symName: __ZNKSt3__112regex_traitsIcE20__lookup_collatenameIPcEENS_12basic_stringIcNS_11char_traitsIcEENS_9allocatorIcEEEET_SA_c, symObjAddr: 0x12EFC, symBinAddr: 0x370DC, symSize: 0x234 }
  - { offset: 0x1B1773, size: 0x8, addend: 0x0, symName: __ZNKSt3__112regex_traitsIcE9transformIPcEENS_12basic_stringIcNS_11char_traitsIcEENS_9allocatorIcEEEET_SA_, symObjAddr: 0x12DD0, symBinAddr: 0x36FB0, symSize: 0x12C }
  - { offset: 0x1B1D30, size: 0x8, addend: 0x0, symName: __ZNKSt3__112regex_traitsIcE19__transform_primaryIPcEENS_12basic_stringIcNS_11char_traitsIcEENS_9allocatorIcEEEET_SA_c, symObjAddr: 0x13130, symBinAddr: 0x37310, symSize: 0x190 }
  - { offset: 0x1B2470, size: 0x8, addend: 0x0, symName: __ZNSt3__14pairINS_12basic_stringIcNS_11char_traitsIcEENS_9allocatorIcEEEES6_ED1Ev, symObjAddr: 0x12C30, symBinAddr: 0x36E10, symSize: 0x58 }
  - { offset: 0x1B276F, size: 0x8, addend: 0x0, symName: __ZNSt3__111basic_regexIcNS_12regex_traitsIcEEE25__parse_equivalence_classINS_11__wrap_iterIPKcEEEET_S9_S9_PNS_20__bracket_expressionIcS2_EE, symObjAddr: 0x13774, symBinAddr: 0x37954, symSize: 0x274 }
  - { offset: 0x1B31A4, size: 0x8, addend: 0x0, symName: __ZNSt3__111basic_regexIcNS_12regex_traitsIcEEE18__parse_awk_escapeINS_11__wrap_iterIPKcEEEET_S9_S9_PNS_12basic_stringIcNS_11char_traitsIcEENS_9allocatorIcEEEE, symObjAddr: 0x13CFC, symBinAddr: 0x37EDC, symSize: 0x2F8 }
  - { offset: 0x1B3381, size: 0x8, addend: 0x0, symName: __ZNSt3__120__bracket_expressionIcNS_12regex_traitsIcEEE11__add_rangeB8ne200100ENS_12basic_stringIcNS_11char_traitsIcEENS_9allocatorIcEEEES9_, symObjAddr: 0x13FF4, symBinAddr: 0x381D4, symSize: 0x438 }
  - { offset: 0x1B3395, size: 0x8, addend: 0x0, symName: __ZNSt3__111basic_regexIcNS_12regex_traitsIcEEE24__parse_collating_symbolINS_11__wrap_iterIPKcEEEET_S9_S9_RNS_12basic_stringIcNS_11char_traitsIcEENS_9allocatorIcEEEE, symObjAddr: 0x13A94, symBinAddr: 0x37C74, symSize: 0xE0 }
  - { offset: 0x1B36DC, size: 0x8, addend: 0x0, symName: __ZNSt3__111basic_regexIcNS_12regex_traitsIcEEE20__parse_class_escapeINS_11__wrap_iterIPKcEEEET_S9_S9_RNS_12basic_stringIcNS_11char_traitsIcEENS_9allocatorIcEEEEPNS_20__bracket_expressionIcS2_EE, symObjAddr: 0x13B74, symBinAddr: 0x37D54, symSize: 0x188 }
  - { offset: 0x1B36F0, size: 0x8, addend: 0x0, symName: __ZNSt3__111basic_regexIcNS_12regex_traitsIcEEE23__parse_character_classINS_11__wrap_iterIPKcEEEET_S9_S9_PNS_20__bracket_expressionIcS2_EE, symObjAddr: 0x139E8, symBinAddr: 0x37BC8, symSize: 0xAC }
  - { offset: 0x1B3942, size: 0x8, addend: 0x0, symName: __ZNSt3__111basic_regexIcNS_12regex_traitsIcEEE24__parse_collating_symbolINS_11__wrap_iterIPKcEEEET_S9_S9_RNS_12basic_stringIcNS_11char_traitsIcEENS_9allocatorIcEEEE, symObjAddr: 0x13A94, symBinAddr: 0x37C74, symSize: 0xE0 }
  - { offset: 0x1B3962, size: 0x8, addend: 0x0, symName: __ZNSt3__120__bracket_expressionIcNS_12regex_traitsIcEEE13__add_digraphB8ne200100Ecc, symObjAddr: 0x1442C, symBinAddr: 0x3860C, symSize: 0x220 }
  - { offset: 0x1B43FF, size: 0x8, addend: 0x0, symName: __ZNSt3__119__throw_regex_errorB8ne200100ILNS_15regex_constants10error_typeE1EEEvv, symObjAddr: 0x1464C, symBinAddr: 0x3882C, symSize: 0x4C }
  - { offset: 0x1B440A, size: 0x8, addend: 0x0, symName: __ZNSt3__111basic_regexIcNS_12regex_traitsIcEEE20__parse_class_escapeINS_11__wrap_iterIPKcEEEET_S9_S9_RNS_12basic_stringIcNS_11char_traitsIcEENS_9allocatorIcEEEEPNS_20__bracket_expressionIcS2_EE, symObjAddr: 0x13B74, symBinAddr: 0x37D54, symSize: 0x188 }
  - { offset: 0x1B45DE, size: 0x8, addend: 0x0, symName: __ZNSt3__111basic_regexIcNS_12regex_traitsIcEEE18__parse_awk_escapeINS_11__wrap_iterIPKcEEEET_S9_S9_PNS_12basic_stringIcNS_11char_traitsIcEENS_9allocatorIcEEEE, symObjAddr: 0x13CFC, symBinAddr: 0x37EDC, symSize: 0x2F8 }
  - { offset: 0x1B45F2, size: 0x8, addend: 0x0, symName: __ZNSt3__120__bracket_expressionIcNS_12regex_traitsIcEEE11__add_rangeB8ne200100ENS_12basic_stringIcNS_11char_traitsIcEENS_9allocatorIcEEEES9_, symObjAddr: 0x13FF4, symBinAddr: 0x381D4, symSize: 0x438 }
  - { offset: 0x1B59F0, size: 0x8, addend: 0x0, symName: __ZNKSt3__112regex_traitsIcE20__lookup_collatenameINS_11__wrap_iterIPKcEEEENS_12basic_stringIcNS_11char_traitsIcEENS_9allocatorIcEEEET_SD_c, symObjAddr: 0x14698, symBinAddr: 0x38878, symSize: 0x234 }
  - { offset: 0x1B6500, size: 0x8, addend: 0x0, symName: __ZNKSt3__112regex_traitsIcE19__transform_primaryINS_11__wrap_iterIPcEEEENS_12basic_stringIcNS_11char_traitsIcEENS_9allocatorIcEEEET_SC_c, symObjAddr: 0x148CC, symBinAddr: 0x38AAC, symSize: 0x190 }
  - { offset: 0x1B6C55, size: 0x8, addend: 0x0, symName: __ZNSt3__16vectorINS_12basic_stringIcNS_11char_traitsIcEENS_9allocatorIcEEEENS4_IS6_EEE24__emplace_back_slow_pathIJRKS6_EEEPS6_DpOT_, symObjAddr: 0x14A5C, symBinAddr: 0x38C3C, symSize: 0x154 }
  - { offset: 0x1B70C7, size: 0x8, addend: 0x0, symName: __ZNKSt3__112regex_traitsIcE18__lookup_classnameINS_11__wrap_iterIPKcEEEEjT_S7_bc, symObjAddr: 0x14C74, symBinAddr: 0x38E54, symSize: 0x14C }
  - { offset: 0x1B7794, size: 0x8, addend: 0x0, symName: __ZNSt3__120__bracket_expressionIcNS_12regex_traitsIcEEE14__add_neg_charB8ne200100Ec, symObjAddr: 0x14DC0, symBinAddr: 0x38FA0, symSize: 0x18C }
  - { offset: 0x1B7AC6, size: 0x8, addend: 0x0, symName: __ZNSt3__16vectorINS_4pairINS_12basic_stringIcNS_11char_traitsIcEENS_9allocatorIcEEEES7_EENS5_IS8_EEE9push_backB8ne200100EOS8_, symObjAddr: 0x14F4C, symBinAddr: 0x3912C, symSize: 0x174 }
  - { offset: 0x1B7B89, size: 0x8, addend: 0x0, symName: __ZNKSt3__112regex_traitsIcE9transformINS_11__wrap_iterIPcEEEENS_12basic_stringIcNS_11char_traitsIcEENS_9allocatorIcEEEET_SC_, symObjAddr: 0x150C0, symBinAddr: 0x392A0, symSize: 0x12C }
  - { offset: 0x1B817F, size: 0x8, addend: 0x0, symName: __ZNSt3__16vectorINS_4pairINS_12basic_stringIcNS_11char_traitsIcEENS_9allocatorIcEEEES7_EENS5_IS8_EEE9push_backB8ne200100EOS8_, symObjAddr: 0x14F4C, symBinAddr: 0x3912C, symSize: 0x174 }
  - { offset: 0x1B8712, size: 0x8, addend: 0x0, symName: __ZNKSt3__112regex_traitsIcE9transformINS_11__wrap_iterIPcEEEENS_12basic_stringIcNS_11char_traitsIcEENS_9allocatorIcEEEET_SC_, symObjAddr: 0x150C0, symBinAddr: 0x392A0, symSize: 0x12C }
  - { offset: 0x1B8A1C, size: 0x8, addend: 0x0, symName: __ZNSt3__16vectorINS_4pairIccEENS_9allocatorIS2_EEE20__throw_length_errorB8ne200100Ev, symObjAddr: 0x1524C, symBinAddr: 0x3942C, symSize: 0x14 }
  - { offset: 0x1B8A34, size: 0x8, addend: 0x0, symName: __ZNSt3__128__begin_marked_subexpressionIcED1Ev, symObjAddr: 0x15260, symBinAddr: 0x39440, symSize: 0x48 }
  - { offset: 0x1B8EB3, size: 0x8, addend: 0x0, symName: __ZNSt3__16vectorINS_12basic_stringIcNS_11char_traitsIcEENS_9allocatorIcEEEENS4_IS6_EEE20__throw_length_errorB8ne200100Ev, symObjAddr: 0x14C14, symBinAddr: 0x38DF4, symSize: 0x14 }
  - { offset: 0x1B8ECB, size: 0x8, addend: 0x0, symName: __ZNSt3__119__throw_regex_errorB8ne200100ILNS_15regex_constants10error_typeE2EEEvv, symObjAddr: 0x14C28, symBinAddr: 0x38E08, symSize: 0x4C }
  - { offset: 0x1B8ED6, size: 0x8, addend: 0x0, symName: __ZNSt3__114__split_bufferINS_12basic_stringIcNS_11char_traitsIcEENS_9allocatorIcEEEERNS4_IS6_EEED1Ev, symObjAddr: 0x14BB0, symBinAddr: 0x38D90, symSize: 0x64 }
  - { offset: 0x1B9471, size: 0x8, addend: 0x0, symName: __ZNSt3__16vectorINS_4pairINS_12basic_stringIcNS_11char_traitsIcEENS_9allocatorIcEEEES7_EENS5_IS8_EEE20__throw_length_errorB8ne200100Ev, symObjAddr: 0x15238, symBinAddr: 0x39418, symSize: 0x14 }
  - { offset: 0x1B9489, size: 0x8, addend: 0x0, symName: __ZNSt3__16vectorINS_4pairIccEENS_9allocatorIS2_EEE20__throw_length_errorB8ne200100Ev, symObjAddr: 0x1524C, symBinAddr: 0x3942C, symSize: 0x14 }
  - { offset: 0x1B94B1, size: 0x8, addend: 0x0, symName: __ZNSt3__128__begin_marked_subexpressionIcED1Ev, symObjAddr: 0x15260, symBinAddr: 0x39440, symSize: 0x48 }
  - { offset: 0x1B94D5, size: 0x8, addend: 0x0, symName: __ZNSt3__128__begin_marked_subexpressionIcED1Ev, symObjAddr: 0x15260, symBinAddr: 0x39440, symSize: 0x48 }
  - { offset: 0x1B94F3, size: 0x8, addend: 0x0, symName: __ZNSt3__128__begin_marked_subexpressionIcED1Ev, symObjAddr: 0x15260, symBinAddr: 0x39440, symSize: 0x48 }
  - { offset: 0x1B953A, size: 0x8, addend: 0x0, symName: __ZNSt3__128__begin_marked_subexpressionIcED0Ev, symObjAddr: 0x152A8, symBinAddr: 0x39488, symSize: 0x48 }
  - { offset: 0x1B956A, size: 0x8, addend: 0x0, symName: __ZNSt3__128__begin_marked_subexpressionIcED0Ev, symObjAddr: 0x152A8, symBinAddr: 0x39488, symSize: 0x48 }
  - { offset: 0x1B9588, size: 0x8, addend: 0x0, symName: __ZNSt3__128__begin_marked_subexpressionIcED0Ev, symObjAddr: 0x152A8, symBinAddr: 0x39488, symSize: 0x48 }
  - { offset: 0x1B95A6, size: 0x8, addend: 0x0, symName: __ZNSt3__128__begin_marked_subexpressionIcED0Ev, symObjAddr: 0x152A8, symBinAddr: 0x39488, symSize: 0x48 }
  - { offset: 0x1B95D1, size: 0x8, addend: 0x0, symName: __ZNKSt3__128__begin_marked_subexpressionIcE6__execERNS_7__stateIcEE, symObjAddr: 0x152F0, symBinAddr: 0x394D0, symSize: 0x30 }
  - { offset: 0x1B965D, size: 0x8, addend: 0x0, symName: __ZNSt3__126__end_marked_subexpressionIcED1Ev, symObjAddr: 0x15320, symBinAddr: 0x39500, symSize: 0x48 }
  - { offset: 0x1B9681, size: 0x8, addend: 0x0, symName: __ZNSt3__126__end_marked_subexpressionIcED1Ev, symObjAddr: 0x15320, symBinAddr: 0x39500, symSize: 0x48 }
  - { offset: 0x1B969F, size: 0x8, addend: 0x0, symName: __ZNSt3__126__end_marked_subexpressionIcED1Ev, symObjAddr: 0x15320, symBinAddr: 0x39500, symSize: 0x48 }
  - { offset: 0x1B96E6, size: 0x8, addend: 0x0, symName: __ZNSt3__126__end_marked_subexpressionIcED0Ev, symObjAddr: 0x15368, symBinAddr: 0x39548, symSize: 0x48 }
  - { offset: 0x1B9716, size: 0x8, addend: 0x0, symName: __ZNSt3__126__end_marked_subexpressionIcED0Ev, symObjAddr: 0x15368, symBinAddr: 0x39548, symSize: 0x48 }
  - { offset: 0x1B9734, size: 0x8, addend: 0x0, symName: __ZNSt3__126__end_marked_subexpressionIcED0Ev, symObjAddr: 0x15368, symBinAddr: 0x39548, symSize: 0x48 }
  - { offset: 0x1B9752, size: 0x8, addend: 0x0, symName: __ZNSt3__126__end_marked_subexpressionIcED0Ev, symObjAddr: 0x15368, symBinAddr: 0x39548, symSize: 0x48 }
  - { offset: 0x1B977D, size: 0x8, addend: 0x0, symName: __ZNKSt3__126__end_marked_subexpressionIcE6__execERNS_7__stateIcEE, symObjAddr: 0x153B0, symBinAddr: 0x39590, symSize: 0x38 }
  - { offset: 0x1B9A3A, size: 0x8, addend: 0x0, symName: __ZNSt3__16__loopIcED0Ev, symObjAddr: 0x15624, symBinAddr: 0x39804, symSize: 0x68 }
  - { offset: 0x1B9B2B, size: 0x8, addend: 0x0, symName: __ZNSt3__16__loopIcED1Ev, symObjAddr: 0x155BC, symBinAddr: 0x3979C, symSize: 0x68 }
  - { offset: 0x1B9C4D, size: 0x8, addend: 0x0, symName: __ZNKSt3__16__loopIcE6__execERNS_7__stateIcEE, symObjAddr: 0x1568C, symBinAddr: 0x3986C, symSize: 0x1F8 }
  - { offset: 0x1B9D80, size: 0x8, addend: 0x0, symName: __ZNKSt3__16__loopIcE12__exec_splitEbRNS_7__stateIcEE, symObjAddr: 0x15884, symBinAddr: 0x39A64, symSize: 0xD8 }
  - { offset: 0x1B9E51, size: 0x8, addend: 0x0, symName: __ZNSt3__117__owns_two_statesIcED1Ev, symObjAddr: 0x1595C, symBinAddr: 0x39B3C, symSize: 0x68 }
  - { offset: 0x1B9EDF, size: 0x8, addend: 0x0, symName: __ZNSt3__117__owns_two_statesIcED0Ev, symObjAddr: 0x159C4, symBinAddr: 0x39BA4, symSize: 0x68 }
  - { offset: 0x1B9F79, size: 0x8, addend: 0x0, symName: __ZNSt3__117__repeat_one_loopIcED1Ev, symObjAddr: 0x15A2C, symBinAddr: 0x39C0C, symSize: 0x4 }
  - { offset: 0x1B9FA5, size: 0x8, addend: 0x0, symName: __ZNSt3__117__repeat_one_loopIcED0Ev, symObjAddr: 0x15A30, symBinAddr: 0x39C10, symSize: 0x4 }
  - { offset: 0x1B9FD1, size: 0x8, addend: 0x0, symName: __ZNKSt3__117__repeat_one_loopIcE6__execERNS_7__stateIcEE, symObjAddr: 0x15A34, symBinAddr: 0x39C14, symSize: 0x14 }
  - { offset: 0x1BA03E, size: 0x8, addend: 0x0, symName: __ZNSt3__111__alternateIcED1Ev, symObjAddr: 0x15A48, symBinAddr: 0x39C28, symSize: 0x68 }
  - { offset: 0x1BA0EC, size: 0x8, addend: 0x0, symName: __ZNSt3__111__alternateIcED0Ev, symObjAddr: 0x15AB0, symBinAddr: 0x39C90, symSize: 0x68 }
  - { offset: 0x1BA1A6, size: 0x8, addend: 0x0, symName: __ZNKSt3__111__alternateIcE6__execERNS_7__stateIcEE, symObjAddr: 0x15B18, symBinAddr: 0x39CF8, symSize: 0xC }
  - { offset: 0x1BA1D9, size: 0x8, addend: 0x0, symName: __ZNKSt3__111__alternateIcE12__exec_splitEbRNS_7__stateIcEE, symObjAddr: 0x15B24, symBinAddr: 0x39D04, symSize: 0x24 }
  - { offset: 0x1BA21F, size: 0x8, addend: 0x0, symName: __ZNSt3__121__empty_non_own_stateIcED1Ev, symObjAddr: 0x15B48, symBinAddr: 0x39D28, symSize: 0x4 }
  - { offset: 0x1BA24B, size: 0x8, addend: 0x0, symName: __ZNSt3__121__empty_non_own_stateIcED0Ev, symObjAddr: 0x15B4C, symBinAddr: 0x39D2C, symSize: 0x4 }
  - { offset: 0x1BA277, size: 0x8, addend: 0x0, symName: __ZNKSt3__121__empty_non_own_stateIcE6__execERNS_7__stateIcEE, symObjAddr: 0x15B50, symBinAddr: 0x39D30, symSize: 0x14 }
  - { offset: 0x1BA3C6, size: 0x8, addend: 0x0, symName: __ZNSt3__111basic_regexIcNS_12regex_traitsIcEEE32__parse_one_char_or_coll_elem_REINS_11__wrap_iterIPKcEEEET_S9_S9_, symObjAddr: 0x16030, symBinAddr: 0x3A210, symSize: 0x18C }
  - { offset: 0x1BA755, size: 0x8, addend: 0x0, symName: __ZNSt3__111__match_anyIcED1Ev, symObjAddr: 0x161BC, symBinAddr: 0x3A39C, symSize: 0x48 }
  - { offset: 0x1BA779, size: 0x8, addend: 0x0, symName: __ZNSt3__111__match_anyIcED1Ev, symObjAddr: 0x161BC, symBinAddr: 0x3A39C, symSize: 0x48 }
  - { offset: 0x1BA797, size: 0x8, addend: 0x0, symName: __ZNSt3__111__match_anyIcED1Ev, symObjAddr: 0x161BC, symBinAddr: 0x3A39C, symSize: 0x48 }
  - { offset: 0x1BA7DE, size: 0x8, addend: 0x0, symName: __ZNSt3__111__match_anyIcED0Ev, symObjAddr: 0x16204, symBinAddr: 0x3A3E4, symSize: 0x48 }
  - { offset: 0x1BA80E, size: 0x8, addend: 0x0, symName: __ZNSt3__111__match_anyIcED0Ev, symObjAddr: 0x16204, symBinAddr: 0x3A3E4, symSize: 0x48 }
  - { offset: 0x1BA82C, size: 0x8, addend: 0x0, symName: __ZNSt3__111__match_anyIcED0Ev, symObjAddr: 0x16204, symBinAddr: 0x3A3E4, symSize: 0x48 }
  - { offset: 0x1BA84A, size: 0x8, addend: 0x0, symName: __ZNSt3__111__match_anyIcED0Ev, symObjAddr: 0x16204, symBinAddr: 0x3A3E4, symSize: 0x48 }
  - { offset: 0x1BA875, size: 0x8, addend: 0x0, symName: __ZNKSt3__111__match_anyIcE6__execERNS_7__stateIcEE, symObjAddr: 0x1624C, symBinAddr: 0x3A42C, symSize: 0x40 }
  - { offset: 0x1BA8C5, size: 0x8, addend: 0x0, symName: __ZNSt3__111basic_regexIcNS_12regex_traitsIcEEE15__test_back_refEc, symObjAddr: 0x1628C, symBinAddr: 0x3A46C, symSize: 0x60 }
  - { offset: 0x1BA9BE, size: 0x8, addend: 0x0, symName: __ZNSt3__111basic_regexIcNS_12regex_traitsIcEEE22__parse_ERE_expressionINS_11__wrap_iterIPKcEEEET_S9_S9_, symObjAddr: 0x162EC, symBinAddr: 0x3A4CC, symSize: 0x1F0 }
  - { offset: 0x1BA9C9, size: 0x8, addend: 0x0, symName: __ZNSt3__111basic_regexIcNS_12regex_traitsIcEEE33__parse_one_char_or_coll_elem_EREINS_11__wrap_iterIPKcEEEET_S9_S9_, symObjAddr: 0x164DC, symBinAddr: 0x3A6BC, symSize: 0x158 }
  - { offset: 0x1BABE5, size: 0x8, addend: 0x0, symName: __ZNSt3__111basic_regexIcNS_12regex_traitsIcEEE23__parse_QUOTED_CHAR_EREINS_11__wrap_iterIPKcEEEET_S9_S9_, symObjAddr: 0x16634, symBinAddr: 0x3A814, symSize: 0xC8 }
  - { offset: 0x1BADC5, size: 0x8, addend: 0x0, symName: __ZNSt3__128__exception_guard_exceptionsINS_29_AllocatorDestroyRangeReverseINS_9allocatorINS_6vectorI21llama_grammar_elementNS2_IS4_EEEEEEPS6_EEED1B8ne200100Ev, symObjAddr: 0x1687C, symBinAddr: 0x3A9D4, symSize: 0x6C }
  - { offset: 0x1E8CCA, size: 0x8, addend: 0x0, symName: __ZNSt3__125__throw_bad_function_callB8ne200100Ev, symObjAddr: 0xB438, symBinAddr: 0x45DA8, symSize: 0x34 }
  - { offset: 0x1E90C2, size: 0x8, addend: 0x0, symName: __ZNSt3__111make_uniqueB8ne200100I24llm_graph_input_samplingJRKNS_3mapIiP13llama_samplerNS_4lessIiEENS_9allocatorINS_4pairIKiS4_EEEEEEELi0EEENS_10unique_ptrIT_NS_14default_deleteISG_EEEEDpOT0_, symObjAddr: 0xA0FC, symBinAddr: 0x44FC8, symSize: 0xF4 }
  - { offset: 0x1F2FF9, size: 0x8, addend: 0x0, symName: __ZN20llm_graph_input_embd9set_inputEPK12llama_ubatch, symObjAddr: 0x0, symBinAddr: 0x3AFA0, symSize: 0xD8 }
  - { offset: 0x1F30C3, size: 0x8, addend: 0x0, symName: __ZN20llm_graph_input_embd9can_reuseERK16llm_graph_params, symObjAddr: 0xD8, symBinAddr: 0x3B078, symSize: 0x68 }
  - { offset: 0x1F3128, size: 0x8, addend: 0x0, symName: __ZN20llm_graph_input_embd9can_reuseERK16llm_graph_params, symObjAddr: 0xD8, symBinAddr: 0x3B078, symSize: 0x68 }
  - { offset: 0x1F33B9, size: 0x8, addend: 0x0, symName: __ZN19llm_graph_input_pos9set_inputEPK12llama_ubatch, symObjAddr: 0x140, symBinAddr: 0x3B0E0, symSize: 0x270 }
  - { offset: 0x1F3767, size: 0x8, addend: 0x0, symName: __ZN19llm_graph_input_pos9can_reuseERK16llm_graph_params, symObjAddr: 0x3B0, symBinAddr: 0x3B350, symSize: 0x24 }
  - { offset: 0x1F3A22, size: 0x8, addend: 0x0, symName: __ZN25llm_graph_input_attn_temp9set_inputEPK12llama_ubatch, symObjAddr: 0x3D4, symBinAddr: 0x3B374, symSize: 0x274 }
  - { offset: 0x1F3E79, size: 0x8, addend: 0x0, symName: __ZN26llm_graph_input_pos_bucket9set_inputEPK12llama_ubatch, symObjAddr: 0x648, symBinAddr: 0x3B5E8, symSize: 0x3E0 }
  - { offset: 0x1F3FB3, size: 0x8, addend: 0x0, symName: __Z30llama_relative_position_bucketiiyb, symObjAddr: 0xA28, symBinAddr: 0x3B9C8, symSize: 0xAC }
  - { offset: 0x1F3FE2, size: 0x8, addend: 0x0, symName: __Z30llama_relative_position_bucketiiyb, symObjAddr: 0xA28, symBinAddr: 0x3B9C8, symSize: 0xAC }
  - { offset: 0x1F4044, size: 0x8, addend: 0x0, symName: __ZN29llm_graph_input_pos_bucket_kv9set_inputEPK12llama_ubatch, symObjAddr: 0xAD4, symBinAddr: 0x3BA74, symSize: 0x18 }
  - { offset: 0x1F407C, size: 0x8, addend: 0x0, symName: __ZN23llm_graph_input_out_ids9set_inputEPK12llama_ubatch, symObjAddr: 0xAEC, symBinAddr: 0x3BA8C, symSize: 0x2A4 }
  - { offset: 0x1F4143, size: 0x8, addend: 0x0, symName: __ZN23llm_graph_input_out_ids9can_reuseERK16llm_graph_params, symObjAddr: 0xD90, symBinAddr: 0x3BD30, symSize: 0x1C }
  - { offset: 0x1F4156, size: 0x8, addend: 0x0, symName: __ZN23llm_graph_input_out_ids9can_reuseERK16llm_graph_params, symObjAddr: 0xD90, symBinAddr: 0x3BD30, symSize: 0x1C }
  - { offset: 0x1F4411, size: 0x8, addend: 0x0, symName: __ZN20llm_graph_input_mean9set_inputEPK12llama_ubatch, symObjAddr: 0xDAC, symBinAddr: 0x3BD4C, symSize: 0x590 }
  - { offset: 0x1F4C0E, size: 0x8, addend: 0x0, symName: __ZN19llm_graph_input_cls9set_inputEPK12llama_ubatch, symObjAddr: 0x133C, symBinAddr: 0x3C2DC, symSize: 0x370 }
  - { offset: 0x1F5228, size: 0x8, addend: 0x0, symName: __ZN18llm_graph_input_rs9set_inputEPK12llama_ubatch, symObjAddr: 0x16AC, symBinAddr: 0x3C64C, symSize: 0xA0 }
  - { offset: 0x1F52A8, size: 0x8, addend: 0x0, symName: __ZN18llm_graph_input_rs9can_reuseERK16llm_graph_params, symObjAddr: 0x174C, symBinAddr: 0x3C6EC, symSize: 0xB4 }
  - { offset: 0x1F52BB, size: 0x8, addend: 0x0, symName: __ZN18llm_graph_input_rs9can_reuseERK16llm_graph_params, symObjAddr: 0x174C, symBinAddr: 0x3C6EC, symSize: 0xB4 }
  - { offset: 0x1F5331, size: 0x8, addend: 0x0, symName: __ZN26llm_graph_input_cross_embd9set_inputEPK12llama_ubatch, symObjAddr: 0x1800, symBinAddr: 0x3C7A0, symSize: 0x54 }
  - { offset: 0x1F53C1, size: 0x8, addend: 0x0, symName: __ZN29llm_graph_input_attn_no_cache9set_inputEPK12llama_ubatch, symObjAddr: 0x1854, symBinAddr: 0x3C7F4, symSize: 0x5F0 }
  - { offset: 0x1F57DE, size: 0x8, addend: 0x0, symName: __ZL10print_maskPKfxxx14llama_swa_type, symObjAddr: 0x1E44, symBinAddr: 0x3CDE4, symSize: 0x20C }
  - { offset: 0x1F592A, size: 0x8, addend: 0x0, symName: __ZL10print_maskPKfxxx14llama_swa_type, symObjAddr: 0x1E44, symBinAddr: 0x3CDE4, symSize: 0x20C }
  - { offset: 0x1F5B31, size: 0x8, addend: 0x0, symName: __ZN23llm_graph_input_attn_kv9set_inputEPK12llama_ubatch, symObjAddr: 0x2050, symBinAddr: 0x3CFF0, symSize: 0x54 }
  - { offset: 0x1F5B6B, size: 0x8, addend: 0x0, symName: __ZN23llm_graph_input_attn_kv9can_reuseERK16llm_graph_params, symObjAddr: 0x20A4, symBinAddr: 0x3D044, symSize: 0x74 }
  - { offset: 0x1F5BC5, size: 0x8, addend: 0x0, symName: __ZN22llm_graph_input_attn_k9set_inputEPK12llama_ubatch, symObjAddr: 0x2118, symBinAddr: 0x3D0B8, symSize: 0x44 }
  - { offset: 0x1F5BFF, size: 0x8, addend: 0x0, symName: __ZN22llm_graph_input_attn_k9can_reuseERK16llm_graph_params, symObjAddr: 0x215C, symBinAddr: 0x3D0FC, symSize: 0x70 }
  - { offset: 0x1F5C59, size: 0x8, addend: 0x0, symName: __ZN28llm_graph_input_attn_kv_iswa9set_inputEPK12llama_ubatch, symObjAddr: 0x21CC, symBinAddr: 0x3D16C, symSize: 0xA8 }
  - { offset: 0x1F5C93, size: 0x8, addend: 0x0, symName: __ZN28llm_graph_input_attn_kv_iswa9can_reuseERK16llm_graph_params, symObjAddr: 0x2274, symBinAddr: 0x3D214, symSize: 0xE0 }
  - { offset: 0x1F5DC3, size: 0x8, addend: 0x0, symName: __ZN26llm_graph_input_attn_cross9set_inputEPK12llama_ubatch, symObjAddr: 0x2354, symBinAddr: 0x3D2F4, symSize: 0x1E4 }
  - { offset: 0x1F5FE0, size: 0x8, addend: 0x0, symName: __ZN26llm_graph_input_mem_hybrid9set_inputEPK12llama_ubatch, symObjAddr: 0x2538, symBinAddr: 0x3D4D8, symSize: 0x100 }
  - { offset: 0x1F602B, size: 0x8, addend: 0x0, symName: __ZN26llm_graph_input_mem_hybrid9set_inputEPK12llama_ubatch, symObjAddr: 0x2538, symBinAddr: 0x3D4D8, symSize: 0x100 }
  - { offset: 0x1F612D, size: 0x8, addend: 0x0, symName: __ZN26llm_graph_input_mem_hybrid9can_reuseERK16llm_graph_params, symObjAddr: 0x2638, symBinAddr: 0x3D5D8, symSize: 0x13C }
  - { offset: 0x1F6140, size: 0x8, addend: 0x0, symName: __ZN26llm_graph_input_mem_hybrid9can_reuseERK16llm_graph_params, symObjAddr: 0x2638, symBinAddr: 0x3D5D8, symSize: 0x13C }
  - { offset: 0x1F6251, size: 0x8, addend: 0x0, symName: __ZN31llm_graph_input_mem_hybrid_iswa9set_inputEPK12llama_ubatch, symObjAddr: 0x2774, symBinAddr: 0x3D714, symSize: 0x180 }
  - { offset: 0x1F63F4, size: 0x8, addend: 0x0, symName: __ZN31llm_graph_input_mem_hybrid_iswa9can_reuseERK16llm_graph_params, symObjAddr: 0x28F4, symBinAddr: 0x3D894, symSize: 0x190 }
  - { offset: 0x1F6407, size: 0x8, addend: 0x0, symName: __ZN31llm_graph_input_mem_hybrid_iswa9can_reuseERK16llm_graph_params, symObjAddr: 0x28F4, symBinAddr: 0x3D894, symSize: 0x190 }
  - { offset: 0x1F6E71, size: 0x8, addend: 0x0, symName: __ZN24llm_graph_input_sampling9set_inputEPK12llama_ubatch, symObjAddr: 0x2A84, symBinAddr: 0x3DA24, symSize: 0x1FC }
  - { offset: 0x1F7721, size: 0x8, addend: 0x0, symName: __ZNSt3__112__hash_tableIiNS_4hashIiEENS_8equal_toIiEENS_9allocatorIiEEE25__emplace_unique_key_argsIiJRKiEEENS_4pairINS_15__hash_iteratorIPNS_11__hash_nodeIiPvEEEEbEERKT_DpOT0_, symObjAddr: 0xAC88, symBinAddr: 0x458B0, symSize: 0x320 }
  - { offset: 0x1F7D9A, size: 0x8, addend: 0x0, symName: __ZNSt3__113unordered_setIiNS_4hashIiEENS_8equal_toIiEENS_9allocatorIiEEED1B8ne200100Ev, symObjAddr: 0x2C80, symBinAddr: 0x3DC20, symSize: 0x48 }
  - { offset: 0x1F80EF, size: 0x8, addend: 0x0, symName: __ZN24llm_graph_input_sampling9can_reuseERK16llm_graph_params, symObjAddr: 0x2CC8, symBinAddr: 0x3DC68, symSize: 0x150 }
  - { offset: 0x1F812B, size: 0x8, addend: 0x0, symName: __ZN24llm_graph_input_sampling9can_reuseERK16llm_graph_params, symObjAddr: 0x2CC8, symBinAddr: 0x3DC68, symSize: 0x150 }
  - { offset: 0x1F8A11, size: 0x8, addend: 0x0, symName: __ZN16llm_graph_resultC2Ex, symObjAddr: 0x2E18, symBinAddr: 0x3DDB8, symSize: 0x268 }
  - { offset: 0x1F91F1, size: 0x8, addend: 0x0, symName: __ZN16llm_graph_result5resetEv, symObjAddr: 0x3080, symBinAddr: 0x3E020, symSize: 0x5AC }
  - { offset: 0x1FA070, size: 0x8, addend: 0x0, symName: __ZNSt3__16vectorINS_10unique_ptrI17llm_graph_input_iNS_14default_deleteIS2_EEEENS_9allocatorIS5_EEED1B8ne200100Ev, symObjAddr: 0x3700, symBinAddr: 0x3E5CC, symSize: 0x74 }
  - { offset: 0x1FA290, size: 0x8, addend: 0x0, symName: __ZNSt3__16__treeINS_12__value_typeIiP11ggml_tensorEENS_19__map_value_compareIiS4_NS_4lessIiEELb1EEENS_9allocatorIS4_EEE7destroyEPNS_11__tree_nodeIS4_PvEE, symObjAddr: 0xB128, symBinAddr: 0x45D50, symSize: 0x44 }
  - { offset: 0x1FAE73, size: 0x8, addend: 0x0, symName: __ZNSt3__16vectorINS_10unique_ptrI17llm_graph_input_iNS_14default_deleteIS2_EEEENS_9allocatorIS5_EEE20__throw_length_errorB8ne200100Ev, symObjAddr: 0xB180, symBinAddr: 0x45D94, symSize: 0x14 }
  - { offset: 0x1FAF2C, size: 0x8, addend: 0x0, symName: __ZN16llm_graph_resultC1Ex, symObjAddr: 0x3774, symBinAddr: 0x3E640, symSize: 0x4 }
  - { offset: 0x1FAF69, size: 0x8, addend: 0x0, symName: __ZN16llm_graph_resultC1Ex, symObjAddr: 0x3774, symBinAddr: 0x3E640, symSize: 0x4 }
  - { offset: 0x1FAF83, size: 0x8, addend: 0x0, symName: __ZNK16llm_graph_result13get_max_nodesEv, symObjAddr: 0x3778, symBinAddr: 0x3E644, symSize: 0x8 }
  - { offset: 0x1FAFD9, size: 0x8, addend: 0x0, symName: __ZN16llm_graph_result10set_inputsEPK12llama_ubatch, symObjAddr: 0x3780, symBinAddr: 0x3E64C, symSize: 0x4C }
  - { offset: 0x1FB161, size: 0x8, addend: 0x0, symName: __ZN16llm_graph_result11set_outputsEv, symObjAddr: 0x37CC, symBinAddr: 0x3E698, symSize: 0x1A8 }
  - { offset: 0x1FB7FA, size: 0x8, addend: 0x0, symName: __ZN16llm_graph_result9can_reuseERK16llm_graph_params, symObjAddr: 0x3974, symBinAddr: 0x3E840, symSize: 0x150 }
  - { offset: 0x1FB992, size: 0x8, addend: 0x0, symName: __ZNK16llm_graph_params11allow_reuseERKS_, symObjAddr: 0x3AC4, symBinAddr: 0x3E990, symSize: 0x3A8 }
  - { offset: 0x1FC2BC, size: 0x8, addend: 0x0, symName: __ZN16llm_graph_result9add_inputENSt3__110unique_ptrI17llm_graph_input_iNS0_14default_deleteIS2_EEEE, symObjAddr: 0x3E6C, symBinAddr: 0x3ED38, symSize: 0xF8 }
  - { offset: 0x1FC7C2, size: 0x8, addend: 0x0, symName: __ZN16llm_graph_result10set_paramsERK16llm_graph_params, symObjAddr: 0x3F64, symBinAddr: 0x3EE30, symSize: 0x8 }
  - { offset: 0x1FC7CD, size: 0x8, addend: 0x0, symName: __ZNSt3__16vectorINS_10unique_ptrI17llm_graph_input_iNS_14default_deleteIS2_EEEENS_9allocatorIS5_EEE20__throw_length_errorB8ne200100Ev, symObjAddr: 0xB180, symBinAddr: 0x45D94, symSize: 0x14 }
  - { offset: 0x1FC7F0, size: 0x8, addend: 0x0, symName: __ZN16llm_graph_result10set_paramsERK16llm_graph_params, symObjAddr: 0x3F64, symBinAddr: 0x3EE30, symSize: 0x8 }
  - { offset: 0x1FC82F, size: 0x8, addend: 0x0, symName: __ZN16llm_graph_paramsaSERKS_, symObjAddr: 0x3F6C, symBinAddr: 0x3EE38, symSize: 0x1C8 }
  - { offset: 0x1FCE55, size: 0x8, addend: 0x0, symName: __ZNSt3__16__treeINS_12__value_typeIiP13llama_samplerEENS_19__map_value_compareIiS4_NS_4lessIiEELb1EEENS_9allocatorIS4_EEE14__assign_multiINS_21__tree_const_iteratorIS4_PNS_11__tree_nodeIS4_PvEElEEEEvT_SJ_, symObjAddr: 0xA534, symBinAddr: 0x453AC, symSize: 0x328 }
  - { offset: 0x1FD4DD, size: 0x8, addend: 0x0, symName: __ZNSt3__110__function12__value_funcIFvRK12llama_ubatchP11ggml_tensorPKciEE4swapB8ne200100ERSA_, symObjAddr: 0xAA30, symBinAddr: 0x456D4, symSize: 0x198 }
  - { offset: 0x1FE071, size: 0x8, addend: 0x0, symName: __ZN17llm_graph_contextC2ERK16llm_graph_params, symObjAddr: 0x4134, symBinAddr: 0x3F000, symSize: 0x1DC }
  - { offset: 0x1FE503, size: 0x8, addend: 0x0, symName: __ZN17llm_graph_contextC1ERK16llm_graph_params, symObjAddr: 0x4310, symBinAddr: 0x3F1DC, symSize: 0x4 }
  - { offset: 0x1FE540, size: 0x8, addend: 0x0, symName: __ZN17llm_graph_contextC1ERK16llm_graph_params, symObjAddr: 0x4310, symBinAddr: 0x3F1DC, symSize: 0x4 }
  - { offset: 0x1FE620, size: 0x8, addend: 0x0, symName: __ZNK17llm_graph_context2cbEP11ggml_tensorPKci, symObjAddr: 0x4314, symBinAddr: 0x3F1E0, symSize: 0x54 }
  - { offset: 0x1FE727, size: 0x8, addend: 0x0, symName: __ZNK17llm_graph_context10build_cvecEP11ggml_tensori, symObjAddr: 0x4368, symBinAddr: 0x3F234, symSize: 0x18 }
  - { offset: 0x1FE7B9, size: 0x8, addend: 0x0, symName: __ZNK17llm_graph_context13build_lora_mmEP11ggml_tensorS1_, symObjAddr: 0x4380, symBinAddr: 0x3F24C, symSize: 0xEC }
  - { offset: 0x1FE9A0, size: 0x8, addend: 0x0, symName: __ZNK17llm_graph_context16build_lora_mm_idEP11ggml_tensorS1_S1_, symObjAddr: 0x446C, symBinAddr: 0x3F338, symSize: 0x100 }
  - { offset: 0x1FEB90, size: 0x8, addend: 0x0, symName: __ZNK17llm_graph_context10build_normEP11ggml_tensorS1_S1_13llm_norm_typei, symObjAddr: 0x456C, symBinAddr: 0x3F438, symSize: 0x180 }
  - { offset: 0x1FEF3F, size: 0x8, addend: 0x0, symName: __ZNK17llm_graph_context9build_ffnEP11ggml_tensorS1_S1_S1_S1_S1_S1_S1_S1_S1_S1_15llm_ffn_op_type17llm_ffn_gate_typei, symObjAddr: 0x46EC, symBinAddr: 0x3F5B8, symSize: 0x6BC }
  - { offset: 0x20006B, size: 0x8, addend: 0x0, symName: __ZNK17llm_graph_context13build_moe_ffnEP11ggml_tensorS1_S1_S1_S1_S1_xx15llm_ffn_op_typebbf29llama_expert_gating_func_typeiS1_, symObjAddr: 0x4DA8, symBinAddr: 0x3FC74, symSize: 0x6C }
  - { offset: 0x2001AD, size: 0x8, addend: 0x0, symName: __ZNK17llm_graph_context13build_moe_ffnEP11ggml_tensorS1_S1_S1_S1_S1_xx15llm_ffn_op_typebbf29llama_expert_gating_func_typeiS1_, symObjAddr: 0x4DA8, symBinAddr: 0x3FC74, symSize: 0x6C }
  - { offset: 0x20030B, size: 0x8, addend: 0x0, symName: __ZNK17llm_graph_context13build_moe_ffnEP11ggml_tensorS1_S1_S1_S1_S1_S1_S1_S1_S1_xx15llm_ffn_op_typebbf29llama_expert_gating_func_typeiS1_, symObjAddr: 0x4E14, symBinAddr: 0x3FCE0, symSize: 0xE2C }
  - { offset: 0x2026C7, size: 0x8, addend: 0x0, symName: __ZNK17llm_graph_context14build_inp_embdEP11ggml_tensor, symObjAddr: 0x5C40, symBinAddr: 0x40B0C, symSize: 0x40C }
  - { offset: 0x202973, size: 0x8, addend: 0x0, symName: __ZNK17llm_graph_context14build_inp_embdEP11ggml_tensor, symObjAddr: 0x5C40, symBinAddr: 0x40B0C, symSize: 0x40C }
  - { offset: 0x2034E0, size: 0x8, addend: 0x0, symName: __ZNK17llm_graph_context13build_inp_posEv, symObjAddr: 0x604C, symBinAddr: 0x40F18, symSize: 0x17C }
  - { offset: 0x203AB9, size: 0x8, addend: 0x0, symName: __ZNK17llm_graph_context20build_inp_attn_scaleEv, symObjAddr: 0x61C8, symBinAddr: 0x41094, symSize: 0x180 }
  - { offset: 0x2040DE, size: 0x8, addend: 0x0, symName: __ZNK17llm_graph_context17build_inp_out_idsEv, symObjAddr: 0x6348, symBinAddr: 0x41214, symSize: 0x19C }
  - { offset: 0x204699, size: 0x8, addend: 0x0, symName: __ZNK17llm_graph_context14build_inp_meanEv, symObjAddr: 0x64E4, symBinAddr: 0x413B0, symSize: 0x188 }
  - { offset: 0x204C44, size: 0x8, addend: 0x0, symName: __ZNK17llm_graph_context13build_inp_clsEv, symObjAddr: 0x666C, symBinAddr: 0x41538, symSize: 0x18C }
  - { offset: 0x2051EE, size: 0x8, addend: 0x0, symName: __ZNK17llm_graph_context20build_inp_cross_embdEv, symObjAddr: 0x67F8, symBinAddr: 0x416C4, symSize: 0x1A0 }
  - { offset: 0x2057E2, size: 0x8, addend: 0x0, symName: __ZNK17llm_graph_context24build_inp_pos_bucket_encEv, symObjAddr: 0x6998, symBinAddr: 0x41864, symSize: 0x170 }
  - { offset: 0x205D9E, size: 0x8, addend: 0x0, symName: __ZNK17llm_graph_context24build_inp_pos_bucket_decEv, symObjAddr: 0x6B08, symBinAddr: 0x419D4, symSize: 0x1A4 }
  - { offset: 0x206335, size: 0x8, addend: 0x0, symName: __ZNK17llm_graph_context14build_pos_biasEP11ggml_tensorS1_, symObjAddr: 0x6CAC, symBinAddr: 0x41B78, symSize: 0x118 }
  - { offset: 0x20663F, size: 0x8, addend: 0x0, symName: __ZNK17llm_graph_context14build_attn_mhaEP11ggml_tensorS1_S1_S1_S1_S1_S1_fi, symObjAddr: 0x6DC4, symBinAddr: 0x41C90, symSize: 0x6FC }
  - { offset: 0x2078B1, size: 0x8, addend: 0x0, symName: __ZNK17llm_graph_context23build_attn_inp_no_cacheEv, symObjAddr: 0x74C0, symBinAddr: 0x4238C, symSize: 0x254 }
  - { offset: 0x207E9F, size: 0x8, addend: 0x0, symName: __ZNK17llm_graph_context10build_attnEP29llm_graph_input_attn_no_cacheP11ggml_tensorS3_S3_S3_S3_S3_S3_S3_fi, symObjAddr: 0x7714, symBinAddr: 0x425E0, symSize: 0x150 }
  - { offset: 0x208206, size: 0x8, addend: 0x0, symName: __ZNK17llm_graph_context17build_attn_inp_kvEv, symObjAddr: 0x7864, symBinAddr: 0x42730, symSize: 0x130 }
  - { offset: 0x208790, size: 0x8, addend: 0x0, symName: __ZL22build_attn_inp_kv_implP12ggml_contextRK12llama_ubatchRK13llama_hparamsRK13llama_cparamsPK22llama_kv_cache_context, symObjAddr: 0x7994, symBinAddr: 0x42860, symSize: 0x1C0 }
  - { offset: 0x208BC0, size: 0x8, addend: 0x0, symName: __ZNK17llm_graph_context10build_attnEP23llm_graph_input_attn_kvP11ggml_tensorS3_S3_S3_S3_S3_S3_S3_fi, symObjAddr: 0x7B54, symBinAddr: 0x42A20, symSize: 0x1EC }
  - { offset: 0x208F25, size: 0x8, addend: 0x0, symName: __ZNK17llm_graph_context16build_attn_inp_kEv, symObjAddr: 0x7D40, symBinAddr: 0x42C0C, symSize: 0x25C }
  - { offset: 0x209035, size: 0x8, addend: 0x0, symName: __ZNK17llm_graph_context16build_attn_inp_kEv, symObjAddr: 0x7D40, symBinAddr: 0x42C0C, symSize: 0x25C }
  - { offset: 0x20967E, size: 0x8, addend: 0x0, symName: __ZNK17llm_graph_context10build_attnEP22llm_graph_input_attn_kP11ggml_tensorS3_S3_S3_S3_S3_S3_S3_fi, symObjAddr: 0x7F9C, symBinAddr: 0x42E68, symSize: 0x1B0 }
  - { offset: 0x2099DD, size: 0x8, addend: 0x0, symName: __ZNK17llm_graph_context10build_attnEP28llm_graph_input_attn_kv_iswaP11ggml_tensorS3_S3_S3_S3_S3_S3_S3_fi, symObjAddr: 0x814C, symBinAddr: 0x43018, symSize: 0x274 }
  - { offset: 0x209D63, size: 0x8, addend: 0x0, symName: __ZNK17llm_graph_context20build_attn_inp_crossEv, symObjAddr: 0x83C0, symBinAddr: 0x4328C, symSize: 0x1C8 }
  - { offset: 0x20A343, size: 0x8, addend: 0x0, symName: __ZNK17llm_graph_context10build_attnEP26llm_graph_input_attn_crossP11ggml_tensorS3_S3_S3_S3_S3_S3_S3_fi, symObjAddr: 0x8588, symBinAddr: 0x43454, symSize: 0x134 }
  - { offset: 0x20A69F, size: 0x8, addend: 0x0, symName: __ZNK17llm_graph_context22build_attn_inp_kv_iswaEv, symObjAddr: 0x86BC, symBinAddr: 0x43588, symSize: 0x350 }
  - { offset: 0x20ADB0, size: 0x8, addend: 0x0, symName: __ZNK17llm_graph_context8build_rsEP11ggml_tensorS1_S1_iijjjiRKNSt3__18functionIFS1_P12ggml_contextS1_S1_EEE, symObjAddr: 0x8A0C, symBinAddr: 0x438D8, symSize: 0x168 }
  - { offset: 0x20B018, size: 0x8, addend: 0x0, symName: __ZNK17llm_graph_context12build_rs_inpEv, symObjAddr: 0x8B74, symBinAddr: 0x43A40, symSize: 0x12C }
  - { offset: 0x20B119, size: 0x8, addend: 0x0, symName: __ZNK17llm_graph_context12build_rs_inpEv, symObjAddr: 0x8B74, symBinAddr: 0x43A40, symSize: 0x12C }
  - { offset: 0x20B6A3, size: 0x8, addend: 0x0, symName: __ZL17build_rs_inp_implP12ggml_contextRK12llama_ubatchPK30llama_memory_recurrent_context, symObjAddr: 0x8CA0, symBinAddr: 0x43B6C, symSize: 0x108 }
  - { offset: 0x20BA37, size: 0x8, addend: 0x0, symName: __ZNK17llm_graph_context8build_rsEP18llm_graph_input_rsP11ggml_tensoriiRKNSt3__18functionIFS3_P12ggml_contextS3_S3_EEE, symObjAddr: 0x8DA8, symBinAddr: 0x43C74, symSize: 0xB4 }
  - { offset: 0x20BDD2, size: 0x8, addend: 0x0, symName: __ZNK17llm_graph_context27build_rwkv_token_shift_loadEP18llm_graph_input_rsRK12llama_ubatchi, symObjAddr: 0x8E5C, symBinAddr: 0x43D28, symSize: 0x1C8 }
  - { offset: 0x20C14E, size: 0x8, addend: 0x0, symName: __ZNK17llm_graph_context28build_rwkv_token_shift_storeEP11ggml_tensorRK12llama_ubatchi, symObjAddr: 0x9024, symBinAddr: 0x43EF0, symSize: 0xE0 }
  - { offset: 0x20C379, size: 0x8, addend: 0x0, symName: __ZNK17llm_graph_context20build_inp_mem_hybridEv, symObjAddr: 0x9104, symBinAddr: 0x43FD0, symSize: 0x214 }
  - { offset: 0x20CD3A, size: 0x8, addend: 0x0, symName: __ZNK17llm_graph_context25build_inp_mem_hybrid_iswaEv, symObjAddr: 0x9318, symBinAddr: 0x441E4, symSize: 0x3A8 }
  - { offset: 0x20D6AF, size: 0x8, addend: 0x0, symName: __ZNK17llm_graph_context15build_dense_outEP11ggml_tensorS1_, symObjAddr: 0x96C0, symBinAddr: 0x4458C, symSize: 0x114 }
  - { offset: 0x20D838, size: 0x8, addend: 0x0, symName: __ZNK17llm_graph_context13build_poolingEP11ggml_tensorS1_S1_S1_, symObjAddr: 0x97D4, symBinAddr: 0x446A0, symSize: 0x210 }
  - { offset: 0x20D84B, size: 0x8, addend: 0x0, symName: __ZNK17llm_graph_context13build_poolingEP11ggml_tensorS1_S1_S1_, symObjAddr: 0x97D4, symBinAddr: 0x446A0, symSize: 0x210 }
  - { offset: 0x20DB7E, size: 0x8, addend: 0x0, symName: __ZNK17llm_graph_context14build_samplingEv, symObjAddr: 0x99E4, symBinAddr: 0x448B0, symSize: 0x718 }
  - { offset: 0x20E6F0, size: 0x8, addend: 0x0, symName: __ZNK17llm_graph_context14build_samplingEv, symObjAddr: 0x99E4, symBinAddr: 0x448B0, symSize: 0x718 }
  - { offset: 0x210277, size: 0x8, addend: 0x0, symName: __ZNSt3__16__treeINS_12__value_typeIiiEENS_19__map_value_compareIiS2_NS_4lessIiEELb1EEENS_9allocatorIS2_EEE7destroyEPNS_11__tree_nodeIS2_PvEE, symObjAddr: 0xABD0, symBinAddr: 0x4586C, symSize: 0x44 }
  - { offset: 0x2104D6, size: 0x8, addend: 0x0, symName: __ZN20llm_graph_input_embdD1Ev, symObjAddr: 0xA1F0, symBinAddr: 0x450BC, symSize: 0x4 }
  - { offset: 0x2104FF, size: 0x8, addend: 0x0, symName: __ZN20llm_graph_input_embdD0Ev, symObjAddr: 0xA1F4, symBinAddr: 0x450C0, symSize: 0x4 }
  - { offset: 0x210528, size: 0x8, addend: 0x0, symName: __ZN19llm_graph_input_posD1Ev, symObjAddr: 0xA1F8, symBinAddr: 0x450C4, symSize: 0x4 }
  - { offset: 0x210551, size: 0x8, addend: 0x0, symName: __ZN19llm_graph_input_posD0Ev, symObjAddr: 0xA1FC, symBinAddr: 0x450C8, symSize: 0x4 }
  - { offset: 0x21057A, size: 0x8, addend: 0x0, symName: __ZN25llm_graph_input_attn_tempD1Ev, symObjAddr: 0xA200, symBinAddr: 0x450CC, symSize: 0x4 }
  - { offset: 0x2105A3, size: 0x8, addend: 0x0, symName: __ZN25llm_graph_input_attn_tempD0Ev, symObjAddr: 0xA204, symBinAddr: 0x450D0, symSize: 0x4 }
  - { offset: 0x2105CC, size: 0x8, addend: 0x0, symName: __ZN17llm_graph_input_i9can_reuseERK16llm_graph_params, symObjAddr: 0xA208, symBinAddr: 0x450D4, symSize: 0x8 }
  - { offset: 0x210601, size: 0x8, addend: 0x0, symName: __ZN26llm_graph_input_pos_bucketD1Ev, symObjAddr: 0xA210, symBinAddr: 0x450DC, symSize: 0x4 }
  - { offset: 0x21062A, size: 0x8, addend: 0x0, symName: __ZN26llm_graph_input_pos_bucketD0Ev, symObjAddr: 0xA214, symBinAddr: 0x450E0, symSize: 0x4 }
  - { offset: 0x210653, size: 0x8, addend: 0x0, symName: __ZN29llm_graph_input_pos_bucket_kvD1Ev, symObjAddr: 0xA218, symBinAddr: 0x450E4, symSize: 0x4 }
  - { offset: 0x21067C, size: 0x8, addend: 0x0, symName: __ZN29llm_graph_input_pos_bucket_kvD0Ev, symObjAddr: 0xA21C, symBinAddr: 0x450E8, symSize: 0x4 }
  - { offset: 0x2106A5, size: 0x8, addend: 0x0, symName: __ZN23llm_graph_input_out_idsD1Ev, symObjAddr: 0xA220, symBinAddr: 0x450EC, symSize: 0x4 }
  - { offset: 0x2106CE, size: 0x8, addend: 0x0, symName: __ZN23llm_graph_input_out_idsD0Ev, symObjAddr: 0xA224, symBinAddr: 0x450F0, symSize: 0x4 }
  - { offset: 0x2106F7, size: 0x8, addend: 0x0, symName: __ZN20llm_graph_input_meanD1Ev, symObjAddr: 0xA228, symBinAddr: 0x450F4, symSize: 0x4 }
  - { offset: 0x210720, size: 0x8, addend: 0x0, symName: __ZN20llm_graph_input_meanD0Ev, symObjAddr: 0xA22C, symBinAddr: 0x450F8, symSize: 0x4 }
  - { offset: 0x210749, size: 0x8, addend: 0x0, symName: __ZN19llm_graph_input_clsD1Ev, symObjAddr: 0xA230, symBinAddr: 0x450FC, symSize: 0x4 }
  - { offset: 0x210772, size: 0x8, addend: 0x0, symName: __ZN19llm_graph_input_clsD0Ev, symObjAddr: 0xA234, symBinAddr: 0x45100, symSize: 0x4 }
  - { offset: 0x21079B, size: 0x8, addend: 0x0, symName: __ZN18llm_graph_input_rsD1Ev, symObjAddr: 0xA238, symBinAddr: 0x45104, symSize: 0x4 }
  - { offset: 0x2107C4, size: 0x8, addend: 0x0, symName: __ZN18llm_graph_input_rsD0Ev, symObjAddr: 0xA23C, symBinAddr: 0x45108, symSize: 0x4 }
  - { offset: 0x2107ED, size: 0x8, addend: 0x0, symName: __ZN26llm_graph_input_cross_embdD1Ev, symObjAddr: 0xA240, symBinAddr: 0x4510C, symSize: 0x4 }
  - { offset: 0x210816, size: 0x8, addend: 0x0, symName: __ZN26llm_graph_input_cross_embdD0Ev, symObjAddr: 0xA244, symBinAddr: 0x45110, symSize: 0x4 }
  - { offset: 0x21083F, size: 0x8, addend: 0x0, symName: __ZN29llm_graph_input_attn_no_cacheD1Ev, symObjAddr: 0xA248, symBinAddr: 0x45114, symSize: 0x4 }
  - { offset: 0x210868, size: 0x8, addend: 0x0, symName: __ZN29llm_graph_input_attn_no_cacheD0Ev, symObjAddr: 0xA24C, symBinAddr: 0x45118, symSize: 0x4 }
  - { offset: 0x210891, size: 0x8, addend: 0x0, symName: __ZN23llm_graph_input_attn_kvD1Ev, symObjAddr: 0xA250, symBinAddr: 0x4511C, symSize: 0x4 }
  - { offset: 0x2108BA, size: 0x8, addend: 0x0, symName: __ZN23llm_graph_input_attn_kvD0Ev, symObjAddr: 0xA254, symBinAddr: 0x45120, symSize: 0x4 }
  - { offset: 0x2108E3, size: 0x8, addend: 0x0, symName: __ZN22llm_graph_input_attn_kD1Ev, symObjAddr: 0xA258, symBinAddr: 0x45124, symSize: 0x4 }
  - { offset: 0x21090C, size: 0x8, addend: 0x0, symName: __ZN22llm_graph_input_attn_kD0Ev, symObjAddr: 0xA25C, symBinAddr: 0x45128, symSize: 0x4 }
  - { offset: 0x210935, size: 0x8, addend: 0x0, symName: __ZN28llm_graph_input_attn_kv_iswaD1Ev, symObjAddr: 0xA260, symBinAddr: 0x4512C, symSize: 0x4 }
  - { offset: 0x21095E, size: 0x8, addend: 0x0, symName: __ZN28llm_graph_input_attn_kv_iswaD0Ev, symObjAddr: 0xA264, symBinAddr: 0x45130, symSize: 0x4 }
  - { offset: 0x210987, size: 0x8, addend: 0x0, symName: __ZN26llm_graph_input_attn_crossD1Ev, symObjAddr: 0xA268, symBinAddr: 0x45134, symSize: 0x4 }
  - { offset: 0x2109B0, size: 0x8, addend: 0x0, symName: __ZN26llm_graph_input_attn_crossD0Ev, symObjAddr: 0xA26C, symBinAddr: 0x45138, symSize: 0x4 }
  - { offset: 0x2109F3, size: 0x8, addend: 0x0, symName: __ZN26llm_graph_input_mem_hybridD1Ev, symObjAddr: 0xA270, symBinAddr: 0x4513C, symSize: 0x5C }
  - { offset: 0x210B8A, size: 0x8, addend: 0x0, symName: __ZN26llm_graph_input_mem_hybridD0Ev, symObjAddr: 0xA2CC, symBinAddr: 0x45198, symSize: 0x5C }
  - { offset: 0x210D47, size: 0x8, addend: 0x0, symName: __ZN31llm_graph_input_mem_hybrid_iswaD1Ev, symObjAddr: 0xA328, symBinAddr: 0x451F4, symSize: 0x5C }
  - { offset: 0x210EDE, size: 0x8, addend: 0x0, symName: __ZN31llm_graph_input_mem_hybrid_iswaD0Ev, symObjAddr: 0xA384, symBinAddr: 0x45250, symSize: 0x5C }
  - { offset: 0x21109B, size: 0x8, addend: 0x0, symName: __ZN24llm_graph_input_samplingD1Ev, symObjAddr: 0xA3E0, symBinAddr: 0x452AC, symSize: 0x38 }
  - { offset: 0x21114F, size: 0x8, addend: 0x0, symName: __ZN24llm_graph_input_samplingD0Ev, symObjAddr: 0xA418, symBinAddr: 0x452E4, symSize: 0x38 }
  - { offset: 0x21120F, size: 0x8, addend: 0x0, symName: __ZN16llm_graph_resultD1Ev, symObjAddr: 0xA450, symBinAddr: 0x4531C, symSize: 0x4 }
  - { offset: 0x211232, size: 0x8, addend: 0x0, symName: __ZN16llm_graph_resultD1Ev, symObjAddr: 0xA450, symBinAddr: 0x4531C, symSize: 0x4 }
  - { offset: 0x211245, size: 0x8, addend: 0x0, symName: __ZN16llm_graph_resultD2Ev, symObjAddr: 0xB578, symBinAddr: 0x45EE8, symSize: 0x148 }
  - { offset: 0x2119E0, size: 0x8, addend: 0x0, symName: __ZN16llm_graph_resultD0Ev, symObjAddr: 0xA454, symBinAddr: 0x45320, symSize: 0x14 }
  - { offset: 0x211A5B, size: 0x8, addend: 0x0, symName: __ZN17llm_graph_contextD1Ev, symObjAddr: 0xA468, symBinAddr: 0x45334, symSize: 0x3C }
  - { offset: 0x211B0F, size: 0x8, addend: 0x0, symName: __ZN17llm_graph_contextD0Ev, symObjAddr: 0xA4A4, symBinAddr: 0x45370, symSize: 0x3C }
  - { offset: 0x211F7E, size: 0x8, addend: 0x0, symName: __ZN17llm_graph_input_iD1Ev, symObjAddr: 0xABC8, symBinAddr: 0x25E07C, symSize: 0x4 }
  - { offset: 0x211FA7, size: 0x8, addend: 0x0, symName: __ZN17llm_graph_input_iD0Ev, symObjAddr: 0xABCC, symBinAddr: 0x25E080, symSize: 0x4 }
  - { offset: 0x2123D3, size: 0x8, addend: 0x0, symName: __ZNSt3__112__hash_tableIiNS_4hashIiEENS_8equal_toIiEENS_9allocatorIiEEE11__do_rehashILb1EEEvm, symObjAddr: 0xAFA8, symBinAddr: 0x45BD0, symSize: 0x180 }
  - { offset: 0x212760, size: 0x8, addend: 0x0, symName: __ZNSt3__16__treeINS_12__value_typeIiP11ggml_tensorEENS_19__map_value_compareIiS4_NS_4lessIiEELb1EEENS_9allocatorIS4_EEE7destroyEPNS_11__tree_nodeIS4_PvEE, symObjAddr: 0xB128, symBinAddr: 0x45D50, symSize: 0x44 }
  - { offset: 0x212C9B, size: 0x8, addend: 0x0, symName: __ZNSt3__117bad_function_callD1Ev, symObjAddr: 0xB46C, symBinAddr: 0x45DDC, symSize: 0x4 }
  - { offset: 0x212CBD, size: 0x8, addend: 0x0, symName: __ZNSt3__117bad_function_callD1Ev, symObjAddr: 0xB46C, symBinAddr: 0x45DDC, symSize: 0x4 }
  - { offset: 0x212CF1, size: 0x8, addend: 0x0, symName: __ZNSt3__117bad_function_callD0Ev, symObjAddr: 0xB470, symBinAddr: 0x45DE0, symSize: 0x14 }
  - { offset: 0x212D52, size: 0x8, addend: 0x0, symName: __ZNSt3__110__function6__funcIPFP11ggml_tensorP12ggml_contextS3_S3_ENS_9allocatorIS7_EES6_ED1Ev, symObjAddr: 0xB484, symBinAddr: 0x45DF4, symSize: 0x4 }
  - { offset: 0x212D7E, size: 0x8, addend: 0x0, symName: __ZNSt3__110__function6__funcIPFP11ggml_tensorP12ggml_contextS3_S3_ENS_9allocatorIS7_EES6_ED0Ev, symObjAddr: 0xB488, symBinAddr: 0x45DF8, symSize: 0x4 }
  - { offset: 0x212E95, size: 0x8, addend: 0x0, symName: __ZNKSt3__110__function6__funcIPFP11ggml_tensorP12ggml_contextS3_S3_ENS_9allocatorIS7_EES6_E7__cloneEv, symObjAddr: 0xB48C, symBinAddr: 0x45DFC, symSize: 0x38 }
  - { offset: 0x213094, size: 0x8, addend: 0x0, symName: __ZNKSt3__110__function6__funcIPFP11ggml_tensorP12ggml_contextS3_S3_ENS_9allocatorIS7_EES6_E7__cloneEPNS0_6__baseIS6_EE, symObjAddr: 0xB4C4, symBinAddr: 0x45E34, symSize: 0x18 }
  - { offset: 0x2130C9, size: 0x8, addend: 0x0, symName: __ZNKSt3__110__function6__funcIPFP11ggml_tensorP12ggml_contextS3_S3_ENS_9allocatorIS7_EES6_E7__cloneEPNS0_6__baseIS6_EE, symObjAddr: 0xB4C4, symBinAddr: 0x45E34, symSize: 0x18 }
  - { offset: 0x2130F7, size: 0x8, addend: 0x0, symName: __ZNKSt3__110__function6__funcIPFP11ggml_tensorP12ggml_contextS3_S3_ENS_9allocatorIS7_EES6_E7__cloneEPNS0_6__baseIS6_EE, symObjAddr: 0xB4C4, symBinAddr: 0x45E34, symSize: 0x18 }
  - { offset: 0x213150, size: 0x8, addend: 0x0, symName: __ZNSt3__110__function6__funcIPFP11ggml_tensorP12ggml_contextS3_S3_ENS_9allocatorIS7_EES6_E7destroyEv, symObjAddr: 0xB4DC, symBinAddr: 0x45E4C, symSize: 0x4 }
  - { offset: 0x2131A7, size: 0x8, addend: 0x0, symName: __ZNSt3__110__function6__funcIPFP11ggml_tensorP12ggml_contextS3_S3_ENS_9allocatorIS7_EES6_E18destroy_deallocateEv, symObjAddr: 0xB4E0, symBinAddr: 0x45E50, symSize: 0x4 }
  - { offset: 0x2131DA, size: 0x8, addend: 0x0, symName: __ZNSt3__110__function6__funcIPFP11ggml_tensorP12ggml_contextS3_S3_ENS_9allocatorIS7_EES6_E18destroy_deallocateEv, symObjAddr: 0xB4E0, symBinAddr: 0x45E50, symSize: 0x4 }
  - { offset: 0x2131FD, size: 0x8, addend: 0x0, symName: __ZNSt3__110__function6__funcIPFP11ggml_tensorP12ggml_contextS3_S3_ENS_9allocatorIS7_EES6_E18destroy_deallocateEv, symObjAddr: 0xB4E0, symBinAddr: 0x45E50, symSize: 0x4 }
  - { offset: 0x213230, size: 0x8, addend: 0x0, symName: __ZNSt3__110__function6__funcIPFP11ggml_tensorP12ggml_contextS3_S3_ENS_9allocatorIS7_EES6_E18destroy_deallocateEv, symObjAddr: 0xB4E0, symBinAddr: 0x45E50, symSize: 0x4 }
  - { offset: 0x2132DD, size: 0x8, addend: 0x0, symName: __ZNSt3__110__function6__funcIPFP11ggml_tensorP12ggml_contextS3_S3_ENS_9allocatorIS7_EES6_EclEOS5_OS3_SC_, symObjAddr: 0xB4E4, symBinAddr: 0x45E54, symSize: 0x14 }
  - { offset: 0x213334, size: 0x8, addend: 0x0, symName: __ZNSt3__110__function6__funcIPFP11ggml_tensorP12ggml_contextS3_S3_ENS_9allocatorIS7_EES6_EclEOS5_OS3_SC_, symObjAddr: 0xB4E4, symBinAddr: 0x45E54, symSize: 0x14 }
  - { offset: 0x21336B, size: 0x8, addend: 0x0, symName: __ZNSt3__110__function6__funcIPFP11ggml_tensorP12ggml_contextS3_S3_ENS_9allocatorIS7_EES6_EclEOS5_OS3_SC_, symObjAddr: 0xB4E4, symBinAddr: 0x45E54, symSize: 0x14 }
  - { offset: 0x2133A1, size: 0x8, addend: 0x0, symName: __ZNSt3__110__function6__funcIPFP11ggml_tensorP12ggml_contextS3_S3_ENS_9allocatorIS7_EES6_EclEOS5_OS3_SC_, symObjAddr: 0xB4E4, symBinAddr: 0x45E54, symSize: 0x14 }
  - { offset: 0x2133D8, size: 0x8, addend: 0x0, symName: __ZNSt3__110__function6__funcIPFP11ggml_tensorP12ggml_contextS3_S3_ENS_9allocatorIS7_EES6_EclEOS5_OS3_SC_, symObjAddr: 0xB4E4, symBinAddr: 0x45E54, symSize: 0x14 }
  - { offset: 0x213475, size: 0x8, addend: 0x0, symName: __ZNKSt3__110__function6__funcIPFP11ggml_tensorP12ggml_contextS3_S3_ENS_9allocatorIS7_EES6_E6targetERKSt9type_info, symObjAddr: 0xB4F8, symBinAddr: 0x45E68, symSize: 0x74 }
  - { offset: 0x21353A, size: 0x8, addend: 0x0, symName: __ZNKSt3__110__function6__funcIPFP11ggml_tensorP12ggml_contextS3_S3_ENS_9allocatorIS7_EES6_E11target_typeEv, symObjAddr: 0xB56C, symBinAddr: 0x45EDC, symSize: 0xC }
  - { offset: 0x2154F8, size: 0x8, addend: 0x0, symName: __ZN13llama_hparams15set_swa_patternEjb, symObjAddr: 0x0, symBinAddr: 0x46030, symSize: 0x1C8 }
  - { offset: 0x21769D, size: 0x8, addend: 0x0, symName: __ZN13llama_hparams15set_swa_patternEjb, symObjAddr: 0x0, symBinAddr: 0x46030, symSize: 0x1C8 }
  - { offset: 0x217710, size: 0x8, addend: 0x0, symName: __ZNK13llama_hparams10is_swa_anyEv, symObjAddr: 0x1C8, symBinAddr: 0x461F8, symSize: 0x50 }
  - { offset: 0x21774F, size: 0x8, addend: 0x0, symName: __ZNK13llama_hparams6n_headEj, symObjAddr: 0x218, symBinAddr: 0x46248, symSize: 0x38 }
  - { offset: 0x21777C, size: 0x8, addend: 0x0, symName: __ZNK13llama_hparams9n_head_kvEj, symObjAddr: 0x250, symBinAddr: 0x46280, symSize: 0x38 }
  - { offset: 0x2177AE, size: 0x8, addend: 0x0, symName: __ZNK13llama_hparams9n_head_kvEj, symObjAddr: 0x250, symBinAddr: 0x46280, symSize: 0x38 }
  - { offset: 0x2177DB, size: 0x8, addend: 0x0, symName: __ZNK13llama_hparams4n_ffEj, symObjAddr: 0x288, symBinAddr: 0x462B8, symSize: 0x38 }
  - { offset: 0x2177ED, size: 0x8, addend: 0x0, symName: __ZNK13llama_hparams4n_ffEj, symObjAddr: 0x288, symBinAddr: 0x462B8, symSize: 0x38 }
  - { offset: 0x217827, size: 0x8, addend: 0x0, symName: __ZNK13llama_hparams5n_gqaEj, symObjAddr: 0x2C0, symBinAddr: 0x462F0, symSize: 0x54 }
  - { offset: 0x217885, size: 0x8, addend: 0x0, symName: __ZNK13llama_hparams5n_gqaEj, symObjAddr: 0x2C0, symBinAddr: 0x462F0, symSize: 0x54 }
  - { offset: 0x217921, size: 0x8, addend: 0x0, symName: __ZNK13llama_hparams10n_embd_inpEv, symObjAddr: 0x314, symBinAddr: 0x46344, symSize: 0x14 }
  - { offset: 0x217933, size: 0x8, addend: 0x0, symName: __ZNK13llama_hparams10n_embd_inpEv, symObjAddr: 0x314, symBinAddr: 0x46344, symSize: 0x14 }
  - { offset: 0x21796C, size: 0x8, addend: 0x0, symName: __ZNK13llama_hparams10n_embd_outEv, symObjAddr: 0x328, symBinAddr: 0x46358, symSize: 0x18 }
  - { offset: 0x217995, size: 0x8, addend: 0x0, symName: __ZNK13llama_hparams12n_embd_k_gqaEj, symObjAddr: 0x340, symBinAddr: 0x46370, symSize: 0x40 }
  - { offset: 0x2179EA, size: 0x8, addend: 0x0, symName: __ZNK13llama_hparams12n_embd_v_gqaEj, symObjAddr: 0x380, symBinAddr: 0x463B0, symSize: 0x40 }
  - { offset: 0x2179FC, size: 0x8, addend: 0x0, symName: __ZNK13llama_hparams12n_embd_v_gqaEj, symObjAddr: 0x380, symBinAddr: 0x463B0, symSize: 0x40 }
  - { offset: 0x217A51, size: 0x8, addend: 0x0, symName: __ZNK13llama_hparams24is_n_embd_k_gqa_variableEv, symObjAddr: 0x3C0, symBinAddr: 0x463F0, symSize: 0x6C }
  - { offset: 0x217A96, size: 0x8, addend: 0x0, symName: __ZNK13llama_hparams24is_n_embd_k_gqa_variableEv, symObjAddr: 0x3C0, symBinAddr: 0x463F0, symSize: 0x6C }
  - { offset: 0x217B78, size: 0x8, addend: 0x0, symName: __ZNK13llama_hparams24is_n_embd_v_gqa_variableEv, symObjAddr: 0x42C, symBinAddr: 0x4645C, symSize: 0x6C }
  - { offset: 0x217BB8, size: 0x8, addend: 0x0, symName: __ZNK13llama_hparams24is_n_embd_v_gqa_variableEv, symObjAddr: 0x42C, symBinAddr: 0x4645C, symSize: 0x6C }
  - { offset: 0x217C9A, size: 0x8, addend: 0x0, symName: __ZNK13llama_hparams16n_embd_k_gqa_maxEv, symObjAddr: 0x498, symBinAddr: 0x464C8, symSize: 0x138 }
  - { offset: 0x217CAC, size: 0x8, addend: 0x0, symName: __ZNK13llama_hparams16n_embd_k_gqa_maxEv, symObjAddr: 0x498, symBinAddr: 0x464C8, symSize: 0x138 }
  - { offset: 0x217D70, size: 0x8, addend: 0x0, symName: __ZNK13llama_hparams16n_embd_v_gqa_maxEv, symObjAddr: 0x5D0, symBinAddr: 0x46600, symSize: 0x138 }
  - { offset: 0x217D82, size: 0x8, addend: 0x0, symName: __ZNK13llama_hparams16n_embd_v_gqa_maxEv, symObjAddr: 0x5D0, symBinAddr: 0x46600, symSize: 0x138 }
  - { offset: 0x217E46, size: 0x8, addend: 0x0, symName: __ZNK13llama_hparams8n_embd_rEv, symObjAddr: 0x708, symBinAddr: 0x46738, symSize: 0x58 }
  - { offset: 0x217E58, size: 0x8, addend: 0x0, symName: __ZNK13llama_hparams8n_embd_rEv, symObjAddr: 0x708, symBinAddr: 0x46738, symSize: 0x58 }
  - { offset: 0x217E81, size: 0x8, addend: 0x0, symName: __ZNK13llama_hparams8n_embd_sEv, symObjAddr: 0x760, symBinAddr: 0x46790, symSize: 0x2C }
  - { offset: 0x217EAA, size: 0x8, addend: 0x0, symName: __ZNK13llama_hparams12is_recurrentEj, symObjAddr: 0x78C, symBinAddr: 0x467BC, symSize: 0x50 }
  - { offset: 0x217EE4, size: 0x8, addend: 0x0, symName: __ZNK13llama_hparams14n_pos_per_embdEv, symObjAddr: 0x7DC, symBinAddr: 0x4680C, symSize: 0x1C }
  - { offset: 0x217EF7, size: 0x8, addend: 0x0, symName: __ZNK13llama_hparams14n_pos_per_embdEv, symObjAddr: 0x7DC, symBinAddr: 0x4680C, symSize: 0x1C }
  - { offset: 0x217F20, size: 0x8, addend: 0x0, symName: __ZNK13llama_hparams6is_swaEj, symObjAddr: 0x7F8, symBinAddr: 0x46828, symSize: 0x40 }
  - { offset: 0x217F5A, size: 0x8, addend: 0x0, symName: __ZNK13llama_hparams6is_mlaEv, symObjAddr: 0x838, symBinAddr: 0x46868, symSize: 0x20 }
  - { offset: 0x217F6D, size: 0x8, addend: 0x0, symName: __ZNK13llama_hparams6is_mlaEv, symObjAddr: 0x838, symBinAddr: 0x46868, symSize: 0x20 }
  - { offset: 0x217FA7, size: 0x8, addend: 0x0, symName: __ZNK13llama_hparams17n_embd_head_k_mlaEv, symObjAddr: 0x858, symBinAddr: 0x46888, symSize: 0x30 }
  - { offset: 0x217FD2, size: 0x8, addend: 0x0, symName: __ZNK13llama_hparams17n_embd_head_k_mlaEv, symObjAddr: 0x858, symBinAddr: 0x46888, symSize: 0x30 }
  - { offset: 0x217FEC, size: 0x8, addend: 0x0, symName: __ZNK13llama_hparams17n_embd_head_v_mlaEv, symObjAddr: 0x888, symBinAddr: 0x468B8, symSize: 0x30 }
  - { offset: 0x218017, size: 0x8, addend: 0x0, symName: __ZNK13llama_hparams17n_embd_head_v_mlaEv, symObjAddr: 0x888, symBinAddr: 0x468B8, symSize: 0x30 }
  - { offset: 0x218031, size: 0x8, addend: 0x0, symName: __ZNK13llama_hparams6has_kvEj, symObjAddr: 0x8B8, symBinAddr: 0x468E8, symSize: 0x14 }
  - { offset: 0x21807D, size: 0x8, addend: 0x0, symName: __ZNK13llama_hparams10n_layer_kvEv, symObjAddr: 0x8CC, symBinAddr: 0x468FC, symSize: 0x19C }
  - { offset: 0x2180E2, size: 0x8, addend: 0x0, symName: __ZNK13llama_hparams9use_mropeEv, symObjAddr: 0xA68, symBinAddr: 0x46A98, symSize: 0x24 }
  - { offset: 0x21A038, size: 0x8, addend: 0x0, symName: __ZL14g_logger_state.0, symObjAddr: 0x17D8, symBinAddr: 0x2D02B8, symSize: 0x0 }
  - { offset: 0x21A043, size: 0x8, addend: 0x0, symName: __ZL14g_logger_state.1, symObjAddr: 0x2DD80, symBinAddr: 0x35C0B8, symSize: 0x0 }
  - { offset: 0x22122C, size: 0x8, addend: 0x0, symName: __ZN9time_measC2ERxb, symObjAddr: 0x0, symBinAddr: 0x46ABC, symSize: 0x48 }
  - { offset: 0x2212B3, size: 0x8, addend: 0x0, symName: __ZN9time_measC1ERxb, symObjAddr: 0x48, symBinAddr: 0x46B04, symSize: 0x48 }
  - { offset: 0x221334, size: 0x8, addend: 0x0, symName: __ZN9time_measD2Ev, symObjAddr: 0x90, symBinAddr: 0x46B4C, symSize: 0x44 }
  - { offset: 0x221380, size: 0x8, addend: 0x0, symName: __ZN9time_measD1Ev, symObjAddr: 0xE4, symBinAddr: 0x46B90, symSize: 0x44 }
  - { offset: 0x2213D1, size: 0x8, addend: 0x0, symName: _llama_log_get, symObjAddr: 0x128, symBinAddr: 0x46BD4, symSize: 0x4 }
  - { offset: 0x221407, size: 0x8, addend: 0x0, symName: _llama_log_get, symObjAddr: 0x128, symBinAddr: 0x46BD4, symSize: 0x4 }
  - { offset: 0x22143A, size: 0x8, addend: 0x0, symName: _llama_log_set, symObjAddr: 0x12C, symBinAddr: 0x46BD8, symSize: 0x44 }
  - { offset: 0x22149E, size: 0x8, addend: 0x0, symName: __Z26llama_log_callback_default14ggml_log_levelPKcPv, symObjAddr: 0x170, symBinAddr: 0x46C1C, symSize: 0x30 }
  - { offset: 0x221736, size: 0x8, addend: 0x0, symName: __Z18llama_log_internal14ggml_log_levelPKcz, symObjAddr: 0x1A0, symBinAddr: 0x46C4C, symSize: 0xF8 }
  - { offset: 0x221AF2, size: 0x8, addend: 0x0, symName: __Z11replace_allRNSt3__112basic_stringIcNS_11char_traitsIcEENS_9allocatorIcEEEERKS5_S8_, symObjAddr: 0x298, symBinAddr: 0x46D44, symSize: 0x1F8 }
  - { offset: 0x222463, size: 0x8, addend: 0x0, symName: __Z6formatPKcz, symObjAddr: 0x490, symBinAddr: 0x46F3C, symSize: 0x154 }
  - { offset: 0x222B1D, size: 0x8, addend: 0x0, symName: __Z25llama_format_tensor_shapeRKNSt3__16vectorIxNS_9allocatorIxEEEE, symObjAddr: 0x5E4, symBinAddr: 0x47090, symSize: 0x15C }
  - { offset: 0x222EBF, size: 0x8, addend: 0x0, symName: __ZNSt3__16vectorIxNS_9allocatorIxEEE20__throw_out_of_rangeB8ne200100Ev, symObjAddr: 0x12F0, symBinAddr: 0x47AF8, symSize: 0x14 }
  - { offset: 0x222EF7, size: 0x8, addend: 0x0, symName: __Z25llama_format_tensor_shapePK11ggml_tensor, symObjAddr: 0x740, symBinAddr: 0x471EC, symSize: 0x15C }
  - { offset: 0x2233D9, size: 0x8, addend: 0x0, symName: __Z14gguf_kv_to_strPK12gguf_contexti, symObjAddr: 0x89C, symBinAddr: 0x47348, symSize: 0x5B4 }
  - { offset: 0x224958, size: 0x8, addend: 0x0, symName: __ZL16gguf_data_to_str9gguf_typePKvi, symObjAddr: 0xFE4, symBinAddr: 0x478FC, symSize: 0x1FC }
  - { offset: 0x2273E1, size: 0x8, addend: 0x0, symName: __ZN16llama_io_write_i12write_stringERKNSt3__112basic_stringIcNS0_11char_traitsIcEENS0_9allocatorIcEEEE, symObjAddr: 0x0, symBinAddr: 0x47B0C, symSize: 0x78 }
  - { offset: 0x229EBE, size: 0x8, addend: 0x0, symName: __ZN16llama_io_write_i12write_stringERKNSt3__112basic_stringIcNS0_11char_traitsIcEENS0_9allocatorIcEEEE, symObjAddr: 0x0, symBinAddr: 0x47B0C, symSize: 0x78 }
  - { offset: 0x229FCF, size: 0x8, addend: 0x0, symName: __ZN15llama_io_read_i11read_stringERNSt3__112basic_stringIcNS0_11char_traitsIcEENS0_9allocatorIcEEEE, symObjAddr: 0x78, symBinAddr: 0x47B84, symSize: 0x60 }
  - { offset: 0x22BF47, size: 0x8, addend: 0x0, symName: __ZN19llama_kv_cache_iswaC2ERK11llama_model9ggml_typeS3_bbbbjjjjRKNSt3__18functionIFbiEEERKNS5_IFiiEEE, symObjAddr: 0x0, symBinAddr: 0x47BE4, symSize: 0x348 }
  - { offset: 0x2509EC, size: 0x8, addend: 0x0, symName: __ZNSt3__111make_uniqueB8ne200100I27llama_kv_cache_iswa_contextJP19llama_kv_cache_iswaNS_6vectorIN14llama_kv_cache9slot_infoENS_9allocatorIS6_EEEES9_NS4_I12llama_ubatchNS7_ISA_EEEEELi0EEENS_10unique_ptrIT_NS_14default_deleteISE_EEEEDpOT0_, symObjAddr: 0xEE8, symBinAddr: 0x48A70, symSize: 0x25C }
  - { offset: 0x259DE8, size: 0x8, addend: 0x0, symName: __ZN19llama_kv_cache_iswaC1ERK11llama_model9ggml_typeS3_bbbbjjjjRKNSt3__18functionIFbiEEERKNS5_IFiiEEE, symObjAddr: 0x348, symBinAddr: 0x47F2C, symSize: 0x20 }
  - { offset: 0x25A8C6, size: 0x8, addend: 0x0, symName: __ZN19llama_kv_cache_iswaC2ERK11llama_model9ggml_typeS3_bbbbjjjjRKNSt3__18functionIFbiEEERKNS5_IFiiEEE, symObjAddr: 0x0, symBinAddr: 0x47BE4, symSize: 0x348 }
  - { offset: 0x25B12F, size: 0x8, addend: 0x0, symName: __ZN19llama_kv_cache_iswa5clearEb, symObjAddr: 0x368, symBinAddr: 0x47F4C, symSize: 0x40 }
  - { offset: 0x25B1C3, size: 0x8, addend: 0x0, symName: __ZN19llama_kv_cache_iswa6seq_rmEiii, symObjAddr: 0x3A8, symBinAddr: 0x47F8C, symSize: 0x6C }
  - { offset: 0x25B2A6, size: 0x8, addend: 0x0, symName: __ZN19llama_kv_cache_iswa6seq_cpEiiii, symObjAddr: 0x414, symBinAddr: 0x47FF8, symSize: 0x68 }
  - { offset: 0x25B37C, size: 0x8, addend: 0x0, symName: __ZN19llama_kv_cache_iswa8seq_keepEi, symObjAddr: 0x47C, symBinAddr: 0x48060, symSize: 0x40 }
  - { offset: 0x25B410, size: 0x8, addend: 0x0, symName: __ZN19llama_kv_cache_iswa7seq_addEiiii, symObjAddr: 0x4BC, symBinAddr: 0x480A0, symSize: 0x68 }
  - { offset: 0x25B4E6, size: 0x8, addend: 0x0, symName: __ZN19llama_kv_cache_iswa7seq_divEiiii, symObjAddr: 0x524, symBinAddr: 0x48108, symSize: 0x68 }
  - { offset: 0x25B5BC, size: 0x8, addend: 0x0, symName: __ZNK19llama_kv_cache_iswa11seq_pos_minEi, symObjAddr: 0x58C, symBinAddr: 0x48170, symSize: 0x10 }
  - { offset: 0x25B5F5, size: 0x8, addend: 0x0, symName: __ZNK19llama_kv_cache_iswa11seq_pos_minEi, symObjAddr: 0x58C, symBinAddr: 0x48170, symSize: 0x10 }
  - { offset: 0x25B625, size: 0x8, addend: 0x0, symName: __ZNK19llama_kv_cache_iswa11seq_pos_maxEi, symObjAddr: 0x59C, symBinAddr: 0x48180, symSize: 0x10 }
  - { offset: 0x25B65E, size: 0x8, addend: 0x0, symName: __ZNK19llama_kv_cache_iswa11seq_pos_maxEi, symObjAddr: 0x59C, symBinAddr: 0x48180, symSize: 0x10 }
  - { offset: 0x25BC35, size: 0x8, addend: 0x0, symName: __ZNK19llama_kv_cache_iswa16memory_breakdownEv, symObjAddr: 0x5AC, symBinAddr: 0x48190, symSize: 0x1C0 }
  - { offset: 0x25CDE3, size: 0x8, addend: 0x0, symName: __ZN19llama_kv_cache_iswa10init_batchER18llama_batch_allocrjb, symObjAddr: 0x76C, symBinAddr: 0x48350, symSize: 0x720 }
  - { offset: 0x25F15B, size: 0x8, addend: 0x0, symName: __ZNSt3__16vectorI12llama_ubatchNS_9allocatorIS1_EEE24__emplace_back_slow_pathIJS1_EEEPS1_DpOT_, symObjAddr: 0x254C, symBinAddr: 0x49EBC, symSize: 0x1C0 }
  - { offset: 0x25F772, size: 0x8, addend: 0x0, symName: __ZNSt3__16vectorI12llama_ubatchNS_9allocatorIS1_EEE20__throw_length_errorB8ne200100Ev, symObjAddr: 0x270C, symBinAddr: 0x4A07C, symSize: 0x14 }
  - { offset: 0x25F788, size: 0x8, addend: 0x0, symName: __ZNSt3__16vectorIN14llama_kv_cache9slot_infoENS_9allocatorIS2_EEED1B8ne200100Ev, symObjAddr: 0x1144, symBinAddr: 0x48CCC, symSize: 0xC4 }
  - { offset: 0x25FCCE, size: 0x8, addend: 0x0, symName: __ZNSt3__16vectorI12llama_ubatchNS_9allocatorIS1_EEED1B8ne200100Ev, symObjAddr: 0x1208, symBinAddr: 0x48D90, symSize: 0x98 }
  - { offset: 0x2600CD, size: 0x8, addend: 0x0, symName: __ZN27llama_kv_cache_iswa_contextC2EP19llama_kv_cache_iswaNSt3__16vectorIN14llama_kv_cache9slot_infoENS2_9allocatorIS5_EEEES8_NS3_I12llama_ubatchNS6_IS9_EEEE, symObjAddr: 0x1710, symBinAddr: 0x49298, symSize: 0x5B4 }
  - { offset: 0x261CBF, size: 0x8, addend: 0x0, symName: __ZN19llama_kv_cache_iswa9init_fullEv, symObjAddr: 0x12A0, symBinAddr: 0x48E28, symSize: 0x54 }
  - { offset: 0x261D65, size: 0x8, addend: 0x0, symName: __ZN27llama_kv_cache_iswa_contextC2EP19llama_kv_cache_iswa, symObjAddr: 0x14A8, symBinAddr: 0x49030, symSize: 0x120 }
  - { offset: 0x26201C, size: 0x8, addend: 0x0, symName: __ZN19llama_kv_cache_iswa11init_updateEP13llama_contextb, symObjAddr: 0x12F4, symBinAddr: 0x48E7C, symSize: 0x6C }
  - { offset: 0x2620FF, size: 0x8, addend: 0x0, symName: __ZN27llama_kv_cache_iswa_contextC2EP19llama_kv_cache_iswaP13llama_contextb, symObjAddr: 0x15CC, symBinAddr: 0x49154, symSize: 0x140 }
  - { offset: 0x2623AC, size: 0x8, addend: 0x0, symName: __ZNK19llama_kv_cache_iswa13get_can_shiftEv, symObjAddr: 0x1360, symBinAddr: 0x48EE8, symSize: 0x38 }
  - { offset: 0x262411, size: 0x8, addend: 0x0, symName: __ZNK19llama_kv_cache_iswa11state_writeER16llama_io_write_iij, symObjAddr: 0x1398, symBinAddr: 0x48F20, symSize: 0x5C }
  - { offset: 0x2624BB, size: 0x8, addend: 0x0, symName: __ZN19llama_kv_cache_iswa10state_readER15llama_io_read_iij, symObjAddr: 0x13F4, symBinAddr: 0x48F7C, symSize: 0x5C }
  - { offset: 0x26257B, size: 0x8, addend: 0x0, symName: __ZNK19llama_kv_cache_iswa8get_baseEv, symObjAddr: 0x1450, symBinAddr: 0x48FD8, symSize: 0x8 }
  - { offset: 0x26259F, size: 0x8, addend: 0x0, symName: __ZNK19llama_kv_cache_iswa8get_baseEv, symObjAddr: 0x1450, symBinAddr: 0x48FD8, symSize: 0x8 }
  - { offset: 0x2625BB, size: 0x8, addend: 0x0, symName: __ZNK19llama_kv_cache_iswa7get_swaEv, symObjAddr: 0x1458, symBinAddr: 0x48FE0, symSize: 0x8 }
  - { offset: 0x2625DF, size: 0x8, addend: 0x0, symName: __ZNK19llama_kv_cache_iswa7get_swaEv, symObjAddr: 0x1458, symBinAddr: 0x48FE0, symSize: 0x8 }
  - { offset: 0x2625FB, size: 0x8, addend: 0x0, symName: __ZN27llama_kv_cache_iswa_contextC2E19llama_memory_status, symObjAddr: 0x1460, symBinAddr: 0x48FE8, symSize: 0x24 }
  - { offset: 0x26265E, size: 0x8, addend: 0x0, symName: __ZN27llama_kv_cache_iswa_contextC1E19llama_memory_status, symObjAddr: 0x1484, symBinAddr: 0x4900C, symSize: 0x24 }
  - { offset: 0x262687, size: 0x8, addend: 0x0, symName: __ZN27llama_kv_cache_iswa_contextC1E19llama_memory_status, symObjAddr: 0x1484, symBinAddr: 0x4900C, symSize: 0x24 }
  - { offset: 0x2627D9, size: 0x8, addend: 0x0, symName: __ZN27llama_kv_cache_iswa_contextC1EP19llama_kv_cache_iswa, symObjAddr: 0x15C8, symBinAddr: 0x49150, symSize: 0x4 }
  - { offset: 0x262803, size: 0x8, addend: 0x0, symName: __ZN27llama_kv_cache_iswa_contextC1EP19llama_kv_cache_iswa, symObjAddr: 0x15C8, symBinAddr: 0x49150, symSize: 0x4 }
  - { offset: 0x26281D, size: 0x8, addend: 0x0, symName: __ZN27llama_kv_cache_iswa_contextC1EP19llama_kv_cache_iswaP13llama_contextb, symObjAddr: 0x170C, symBinAddr: 0x49294, symSize: 0x4 }
  - { offset: 0x26285A, size: 0x8, addend: 0x0, symName: __ZN27llama_kv_cache_iswa_contextC1EP19llama_kv_cache_iswaP13llama_contextb, symObjAddr: 0x170C, symBinAddr: 0x49294, symSize: 0x4 }
  - { offset: 0x262C14, size: 0x8, addend: 0x0, symName: __ZNSt3__16vectorI12llama_ubatchNS_9allocatorIS1_EEE20__throw_length_errorB8ne200100Ev, symObjAddr: 0x270C, symBinAddr: 0x4A07C, symSize: 0x14 }
  - { offset: 0x262C37, size: 0x8, addend: 0x0, symName: __ZNSt3__128__exception_guard_exceptionsINS_6vectorI12llama_ubatchNS_9allocatorIS2_EEE16__destroy_vectorEED1B8ne200100Ev, symObjAddr: 0x2794, symBinAddr: 0x4A090, symSize: 0xA8 }
  - { offset: 0x262E72, size: 0x8, addend: 0x0, symName: __ZN27llama_kv_cache_iswa_contextC1EP19llama_kv_cache_iswaNSt3__16vectorIN14llama_kv_cache9slot_infoENS2_9allocatorIS5_EEEES8_NS3_I12llama_ubatchNS6_IS9_EEEE, symObjAddr: 0x1CC4, symBinAddr: 0x4984C, symSize: 0x4 }
  - { offset: 0x262EB4, size: 0x8, addend: 0x0, symName: __ZN27llama_kv_cache_iswa_contextC1EP19llama_kv_cache_iswaNSt3__16vectorIN14llama_kv_cache9slot_infoENS2_9allocatorIS5_EEEES8_NS3_I12llama_ubatchNS6_IS9_EEEE, symObjAddr: 0x1CC4, symBinAddr: 0x4984C, symSize: 0x4 }
  - { offset: 0x262EE3, size: 0x8, addend: 0x0, symName: __ZN27llama_kv_cache_iswa_contextD2Ev, symObjAddr: 0x1CC8, symBinAddr: 0x49850, symSize: 0xD4 }
  - { offset: 0x263292, size: 0x8, addend: 0x0, symName: __ZN27llama_kv_cache_iswa_contextD1Ev, symObjAddr: 0x1D9C, symBinAddr: 0x49924, symSize: 0xD4 }
  - { offset: 0x26365E, size: 0x8, addend: 0x0, symName: __ZN27llama_kv_cache_iswa_contextD0Ev, symObjAddr: 0x1E70, symBinAddr: 0x499F8, symSize: 0xD4 }
  - { offset: 0x263A36, size: 0x8, addend: 0x0, symName: __ZN27llama_kv_cache_iswa_context4nextEv, symObjAddr: 0x1F44, symBinAddr: 0x49ACC, symSize: 0x70 }
  - { offset: 0x263AD5, size: 0x8, addend: 0x0, symName: __ZN27llama_kv_cache_iswa_context5applyEv, symObjAddr: 0x1FB4, symBinAddr: 0x49B3C, symSize: 0x44 }
  - { offset: 0x263B65, size: 0x8, addend: 0x0, symName: __ZNK27llama_kv_cache_iswa_context10get_statusEv, symObjAddr: 0x1FF8, symBinAddr: 0x49B80, symSize: 0x8 }
  - { offset: 0x263BB1, size: 0x8, addend: 0x0, symName: __ZNK27llama_kv_cache_iswa_context10get_ubatchEv, symObjAddr: 0x2000, symBinAddr: 0x49B88, symSize: 0x10 }
  - { offset: 0x263C17, size: 0x8, addend: 0x0, symName: __ZNK27llama_kv_cache_iswa_context8get_baseEv, symObjAddr: 0x2010, symBinAddr: 0x49B98, symSize: 0x8 }
  - { offset: 0x263C43, size: 0x8, addend: 0x0, symName: __ZNK27llama_kv_cache_iswa_context8get_baseEv, symObjAddr: 0x2010, symBinAddr: 0x49B98, symSize: 0x8 }
  - { offset: 0x263C60, size: 0x8, addend: 0x0, symName: __ZNK27llama_kv_cache_iswa_context7get_swaEv, symObjAddr: 0x2018, symBinAddr: 0x49BA0, symSize: 0x8 }
  - { offset: 0x263C8C, size: 0x8, addend: 0x0, symName: __ZNK27llama_kv_cache_iswa_context7get_swaEv, symObjAddr: 0x2018, symBinAddr: 0x49BA0, symSize: 0x8 }
  - { offset: 0x263CC3, size: 0x8, addend: 0x0, symName: __ZN19llama_kv_cache_iswaD1Ev, symObjAddr: 0x2020, symBinAddr: 0x49BA8, symSize: 0x5C }
  - { offset: 0x263E57, size: 0x8, addend: 0x0, symName: __ZN19llama_kv_cache_iswaD0Ev, symObjAddr: 0x207C, symBinAddr: 0x49C04, symSize: 0x5C }
  - { offset: 0x263FF6, size: 0x8, addend: 0x0, symName: '__ZNSt3__110__function6__funcIZN19llama_kv_cache_iswaC1ERK11llama_model9ggml_typeS6_bbbbjjjjRKNS_8functionIFbiEEERKNS7_IFiiEEEE3$_0NS_9allocatorISG_EES8_ED1Ev', symObjAddr: 0x20D8, symBinAddr: 0x49C60, symSize: 0x4 }
  - { offset: 0x264022, size: 0x8, addend: 0x0, symName: '__ZNSt3__110__function6__funcIZN19llama_kv_cache_iswaC1ERK11llama_model9ggml_typeS6_bbbbjjjjRKNS_8functionIFbiEEERKNS7_IFiiEEEE3$_0NS_9allocatorISG_EES8_ED0Ev', symObjAddr: 0x20DC, symBinAddr: 0x49C64, symSize: 0x4 }
  - { offset: 0x264139, size: 0x8, addend: 0x0, symName: '__ZNKSt3__110__function6__funcIZN19llama_kv_cache_iswaC1ERK11llama_model9ggml_typeS6_bbbbjjjjRKNS_8functionIFbiEEERKNS7_IFiiEEEE3$_0NS_9allocatorISG_EES8_E7__cloneEv', symObjAddr: 0x20E0, symBinAddr: 0x49C68, symSize: 0x38 }
  - { offset: 0x26434A, size: 0x8, addend: 0x0, symName: '__ZNKSt3__110__function6__funcIZN19llama_kv_cache_iswaC1ERK11llama_model9ggml_typeS6_bbbbjjjjRKNS_8functionIFbiEEERKNS7_IFiiEEEE3$_0NS_9allocatorISG_EES8_E7__cloneEPNS0_6__baseIS8_EE', symObjAddr: 0x2118, symBinAddr: 0x49CA0, symSize: 0x18 }
  - { offset: 0x26437F, size: 0x8, addend: 0x0, symName: '__ZNKSt3__110__function6__funcIZN19llama_kv_cache_iswaC1ERK11llama_model9ggml_typeS6_bbbbjjjjRKNS_8functionIFbiEEERKNS7_IFiiEEEE3$_0NS_9allocatorISG_EES8_E7__cloneEPNS0_6__baseIS8_EE', symObjAddr: 0x2118, symBinAddr: 0x49CA0, symSize: 0x18 }
  - { offset: 0x2643A4, size: 0x8, addend: 0x0, symName: '__ZNKSt3__110__function6__funcIZN19llama_kv_cache_iswaC1ERK11llama_model9ggml_typeS6_bbbbjjjjRKNS_8functionIFbiEEERKNS7_IFiiEEEE3$_0NS_9allocatorISG_EES8_E7__cloneEPNS0_6__baseIS8_EE', symObjAddr: 0x2118, symBinAddr: 0x49CA0, symSize: 0x18 }
  - { offset: 0x264418, size: 0x8, addend: 0x0, symName: '__ZNSt3__110__function6__funcIZN19llama_kv_cache_iswaC1ERK11llama_model9ggml_typeS6_bbbbjjjjRKNS_8functionIFbiEEERKNS7_IFiiEEEE3$_0NS_9allocatorISG_EES8_E7destroyEv', symObjAddr: 0x2130, symBinAddr: 0x49CB8, symSize: 0x4 }
  - { offset: 0x26446D, size: 0x8, addend: 0x0, symName: '__ZNSt3__110__function6__funcIZN19llama_kv_cache_iswaC1ERK11llama_model9ggml_typeS6_bbbbjjjjRKNS_8functionIFbiEEERKNS7_IFiiEEEE3$_0NS_9allocatorISG_EES8_E18destroy_deallocateEv', symObjAddr: 0x2134, symBinAddr: 0x49CBC, symSize: 0x4 }
  - { offset: 0x2644A0, size: 0x8, addend: 0x0, symName: '__ZNSt3__110__function6__funcIZN19llama_kv_cache_iswaC1ERK11llama_model9ggml_typeS6_bbbbjjjjRKNS_8functionIFbiEEERKNS7_IFiiEEEE3$_0NS_9allocatorISG_EES8_E18destroy_deallocateEv', symObjAddr: 0x2134, symBinAddr: 0x49CBC, symSize: 0x4 }
  - { offset: 0x2644C3, size: 0x8, addend: 0x0, symName: '__ZNSt3__110__function6__funcIZN19llama_kv_cache_iswaC1ERK11llama_model9ggml_typeS6_bbbbjjjjRKNS_8functionIFbiEEERKNS7_IFiiEEEE3$_0NS_9allocatorISG_EES8_E18destroy_deallocateEv', symObjAddr: 0x2134, symBinAddr: 0x49CBC, symSize: 0x4 }
  - { offset: 0x2644F6, size: 0x8, addend: 0x0, symName: '__ZNSt3__110__function6__funcIZN19llama_kv_cache_iswaC1ERK11llama_model9ggml_typeS6_bbbbjjjjRKNS_8functionIFbiEEERKNS7_IFiiEEEE3$_0NS_9allocatorISG_EES8_E18destroy_deallocateEv', symObjAddr: 0x2134, symBinAddr: 0x49CBC, symSize: 0x4 }
  - { offset: 0x264616, size: 0x8, addend: 0x0, symName: '__ZNSt3__110__function6__funcIZN19llama_kv_cache_iswaC1ERK11llama_model9ggml_typeS6_bbbbjjjjRKNS_8functionIFbiEEERKNS7_IFiiEEEE3$_0NS_9allocatorISG_EES8_EclEOi', symObjAddr: 0x2138, symBinAddr: 0x49CC0, symSize: 0x60 }
  - { offset: 0x2647CD, size: 0x8, addend: 0x0, symName: '__ZNKSt3__110__function6__funcIZN19llama_kv_cache_iswaC1ERK11llama_model9ggml_typeS6_bbbbjjjjRKNS_8functionIFbiEEERKNS7_IFiiEEEE3$_0NS_9allocatorISG_EES8_E6targetERKSt9type_info', symObjAddr: 0x2198, symBinAddr: 0x49D20, symSize: 0x64 }
  - { offset: 0x264898, size: 0x8, addend: 0x0, symName: '__ZNKSt3__110__function6__funcIZN19llama_kv_cache_iswaC1ERK11llama_model9ggml_typeS6_bbbbjjjjRKNS_8functionIFbiEEERKNS7_IFiiEEEE3$_0NS_9allocatorISG_EES8_E11target_typeEv', symObjAddr: 0x21FC, symBinAddr: 0x49D84, symSize: 0xC }
  - { offset: 0x2648BB, size: 0x8, addend: 0x0, symName: '__ZNSt3__110__function6__funcIZN19llama_kv_cache_iswaC1ERK11llama_model9ggml_typeS6_bbbbjjjjRKNS_8functionIFbiEEERKNS7_IFiiEEEE3$_1NS_9allocatorISG_EES8_ED1Ev', symObjAddr: 0x2230, symBinAddr: 0x49D90, symSize: 0x4 }
  - { offset: 0x2648E7, size: 0x8, addend: 0x0, symName: '__ZNSt3__110__function6__funcIZN19llama_kv_cache_iswaC1ERK11llama_model9ggml_typeS6_bbbbjjjjRKNS_8functionIFbiEEERKNS7_IFiiEEEE3$_1NS_9allocatorISG_EES8_ED0Ev', symObjAddr: 0x2234, symBinAddr: 0x49D94, symSize: 0x4 }
  - { offset: 0x2649FE, size: 0x8, addend: 0x0, symName: '__ZNKSt3__110__function6__funcIZN19llama_kv_cache_iswaC1ERK11llama_model9ggml_typeS6_bbbbjjjjRKNS_8functionIFbiEEERKNS7_IFiiEEEE3$_1NS_9allocatorISG_EES8_E7__cloneEv', symObjAddr: 0x2238, symBinAddr: 0x49D98, symSize: 0x38 }
  - { offset: 0x264C0F, size: 0x8, addend: 0x0, symName: '__ZNKSt3__110__function6__funcIZN19llama_kv_cache_iswaC1ERK11llama_model9ggml_typeS6_bbbbjjjjRKNS_8functionIFbiEEERKNS7_IFiiEEEE3$_1NS_9allocatorISG_EES8_E7__cloneEPNS0_6__baseIS8_EE', symObjAddr: 0x2270, symBinAddr: 0x49DD0, symSize: 0x18 }
  - { offset: 0x264C44, size: 0x8, addend: 0x0, symName: '__ZNKSt3__110__function6__funcIZN19llama_kv_cache_iswaC1ERK11llama_model9ggml_typeS6_bbbbjjjjRKNS_8functionIFbiEEERKNS7_IFiiEEEE3$_1NS_9allocatorISG_EES8_E7__cloneEPNS0_6__baseIS8_EE', symObjAddr: 0x2270, symBinAddr: 0x49DD0, symSize: 0x18 }
  - { offset: 0x264C69, size: 0x8, addend: 0x0, symName: '__ZNKSt3__110__function6__funcIZN19llama_kv_cache_iswaC1ERK11llama_model9ggml_typeS6_bbbbjjjjRKNS_8functionIFbiEEERKNS7_IFiiEEEE3$_1NS_9allocatorISG_EES8_E7__cloneEPNS0_6__baseIS8_EE', symObjAddr: 0x2270, symBinAddr: 0x49DD0, symSize: 0x18 }
  - { offset: 0x264CDD, size: 0x8, addend: 0x0, symName: '__ZNSt3__110__function6__funcIZN19llama_kv_cache_iswaC1ERK11llama_model9ggml_typeS6_bbbbjjjjRKNS_8functionIFbiEEERKNS7_IFiiEEEE3$_1NS_9allocatorISG_EES8_E7destroyEv', symObjAddr: 0x2288, symBinAddr: 0x49DE8, symSize: 0x4 }
  - { offset: 0x264D32, size: 0x8, addend: 0x0, symName: '__ZNSt3__110__function6__funcIZN19llama_kv_cache_iswaC1ERK11llama_model9ggml_typeS6_bbbbjjjjRKNS_8functionIFbiEEERKNS7_IFiiEEEE3$_1NS_9allocatorISG_EES8_E18destroy_deallocateEv', symObjAddr: 0x228C, symBinAddr: 0x49DEC, symSize: 0x4 }
  - { offset: 0x264D65, size: 0x8, addend: 0x0, symName: '__ZNSt3__110__function6__funcIZN19llama_kv_cache_iswaC1ERK11llama_model9ggml_typeS6_bbbbjjjjRKNS_8functionIFbiEEERKNS7_IFiiEEEE3$_1NS_9allocatorISG_EES8_E18destroy_deallocateEv', symObjAddr: 0x228C, symBinAddr: 0x49DEC, symSize: 0x4 }
  - { offset: 0x264D88, size: 0x8, addend: 0x0, symName: '__ZNSt3__110__function6__funcIZN19llama_kv_cache_iswaC1ERK11llama_model9ggml_typeS6_bbbbjjjjRKNS_8functionIFbiEEERKNS7_IFiiEEEE3$_1NS_9allocatorISG_EES8_E18destroy_deallocateEv', symObjAddr: 0x228C, symBinAddr: 0x49DEC, symSize: 0x4 }
  - { offset: 0x264DBB, size: 0x8, addend: 0x0, symName: '__ZNSt3__110__function6__funcIZN19llama_kv_cache_iswaC1ERK11llama_model9ggml_typeS6_bbbbjjjjRKNS_8functionIFbiEEERKNS7_IFiiEEEE3$_1NS_9allocatorISG_EES8_E18destroy_deallocateEv', symObjAddr: 0x228C, symBinAddr: 0x49DEC, symSize: 0x4 }
  - { offset: 0x264E5D, size: 0x8, addend: 0x0, symName: '__ZNSt3__110__function6__funcIZN19llama_kv_cache_iswaC1ERK11llama_model9ggml_typeS6_bbbbjjjjRKNS_8functionIFbiEEERKNS7_IFiiEEEE3$_1NS_9allocatorISG_EES8_EclEOi', symObjAddr: 0x2290, symBinAddr: 0x49DF0, symSize: 0x5C }
  - { offset: 0x264FBB, size: 0x8, addend: 0x0, symName: '__ZNKSt3__110__function6__funcIZN19llama_kv_cache_iswaC1ERK11llama_model9ggml_typeS6_bbbbjjjjRKNS_8functionIFbiEEERKNS7_IFiiEEEE3$_1NS_9allocatorISG_EES8_E6targetERKSt9type_info', symObjAddr: 0x22EC, symBinAddr: 0x49E4C, symSize: 0x64 }
  - { offset: 0x26506F, size: 0x8, addend: 0x0, symName: '__ZNKSt3__110__function6__funcIZN19llama_kv_cache_iswaC1ERK11llama_model9ggml_typeS6_bbbbjjjjRKNS_8functionIFbiEEERKNS7_IFiiEEEE3$_1NS_9allocatorISG_EES8_E11target_typeEv', symObjAddr: 0x2350, symBinAddr: 0x49EB0, symSize: 0xC }
  - { offset: 0x2A3E4E, size: 0x8, addend: 0x0, symName: __ZNSt3__135__uninitialized_allocator_copy_implB8ne200100INS_9allocatorINS_6vectorIjNS1_IjEEEEEEPS4_S6_S6_EET2_RT_T0_T1_S7_, symObjAddr: 0x10490, symBinAddr: 0x59BFC, symSize: 0xF8 }
  - { offset: 0x2A50AD, size: 0x8, addend: 0x0, symName: __ZNSt3__134__uninitialized_allocator_relocateB8ne200100INS_9allocatorIN14llama_kv_cache9slot_infoEEEPS3_EEvRT_T0_S8_S8_, symObjAddr: 0x12038, symBinAddr: 0x5B240, symSize: 0xF8 }
  - { offset: 0x2A5108, size: 0x8, addend: 0x0, symName: __ZNSt3__134__uninitialized_allocator_relocateB8ne200100INS_9allocatorIN14llama_kv_cache9slot_infoEEEPS3_EEvRT_T0_S8_S8_, symObjAddr: 0x12038, symBinAddr: 0x5B240, symSize: 0xF8 }
  - { offset: 0x2AE3D2, size: 0x8, addend: 0x0, symName: __ZN14llama_kv_cacheC2ERK11llama_model9ggml_typeS3_bbbjjjj14llama_swa_typeRKNSt3__18functionIFbiEEERKNS6_IFiiEEE, symObjAddr: 0x0, symBinAddr: 0x4A138, symSize: 0x1210 }
  - { offset: 0x2B1CB0, size: 0x8, addend: 0x0, symName: __ZN14llama_kv_cache7prepareERKNSt3__16vectorI12llama_ubatchNS0_9allocatorIS2_EEEE, symObjAddr: 0x350C, symBinAddr: 0x4D5E8, symSize: 0xF40 }
  - { offset: 0x2B845D, size: 0x8, addend: 0x0, symName: __ZNSt3__16vectorI14llama_kv_cellsNS_9allocatorIS1_EEE8__appendEm, symObjAddr: 0x10CD4, symBinAddr: 0x5A154, symSize: 0x25C }
  - { offset: 0x2B8BC2, size: 0x8, addend: 0x0, symName: __ZNSt3__16vectorI14llama_kv_cellsNS_9allocatorIS1_EEE20__throw_length_errorB8ne200100Ev, symObjAddr: 0x10F30, symBinAddr: 0x5A3B0, symSize: 0x14 }
  - { offset: 0x2B8BCD, size: 0x8, addend: 0x0, symName: __ZNSt3__19allocatorI14llama_kv_cellsE7destroyB8ne200100EPS1_, symObjAddr: 0x10ABC, symBinAddr: 0x5A070, symSize: 0x90 }
  - { offset: 0x2B9231, size: 0x8, addend: 0x0, symName: __ZN14llama_kv_cells6resizeEj, symObjAddr: 0x1210, symBinAddr: 0x4B348, symSize: 0x178 }
  - { offset: 0x2B96C5, size: 0x8, addend: 0x0, symName: __ZNSt3__16vectorIjNS_9allocatorIjEEE8__appendEmRKj, symObjAddr: 0x11068, symBinAddr: 0x5A4E8, symSize: 0x234 }
  - { offset: 0x2B9C29, size: 0x8, addend: 0x0, symName: __ZNSt3__112__hash_tableINS_17__hash_value_typeIiiEENS_22__unordered_map_hasherIiS2_NS_4hashIiEENS_8equal_toIiEELb1EEENS_21__unordered_map_equalIiS2_S7_S5_Lb1EEENS_9allocatorIS2_EEE25__emplace_unique_key_argsIiJRKNS_21piecewise_construct_tENS_5tupleIJOiEEENSI_IJEEEEEENS_4pairINS_15__hash_iteratorIPNS_11__hash_nodeIS2_PvEEEEbEERKT_DpOT0_, symObjAddr: 0x112FC, symBinAddr: 0x5A71C, symSize: 0x324 }
  - { offset: 0x2BA376, size: 0x8, addend: 0x0, symName: __ZNSt3__16vectorIN14llama_kv_cache8kv_layerENS_9allocatorIS2_EEE24__emplace_back_slow_pathIJS2_EEEPS2_DpOT_, symObjAddr: 0x117A0, symBinAddr: 0x5ABC0, symSize: 0x1D4 }
  - { offset: 0x2BABC0, size: 0x8, addend: 0x0, symName: __ZNSt3__16vectorIN14llama_kv_cache8kv_layerENS_9allocatorIS2_EEE20__throw_length_errorB8ne200100Ev, symObjAddr: 0x11974, symBinAddr: 0x5AD94, symSize: 0x14 }
  - { offset: 0x2BABD6, size: 0x8, addend: 0x0, symName: __ZNSt3__112__hash_tableINS_17__hash_value_typeIiiEENS_22__unordered_map_hasherIiS2_NS_4hashIiEENS_8equal_toIiEELb1EEENS_21__unordered_map_equalIiS2_S7_S5_Lb1EEENS_9allocatorIS2_EEE25__emplace_unique_key_argsIiJRKNS_21piecewise_construct_tENS_5tupleIJRKiEEENSI_IJEEEEEENS_4pairINS_15__hash_iteratorIPNS_11__hash_nodeIS2_PvEEEEbEERKT_DpOT0_, symObjAddr: 0x11988, symBinAddr: 0x5ADA8, symSize: 0x324 }
  - { offset: 0x2BB412, size: 0x8, addend: 0x0, symName: __ZNSt3__16__treeINS_12__value_typeIP24ggml_backend_buffer_typeNS_10unique_ptrI12ggml_context20ggml_context_deleterEEEENS_19__map_value_compareIS3_S8_ZN14llama_kv_cacheC1ERK11llama_model9ggml_typeSE_bbbjjjj14llama_swa_typeRKNS_8functionIFbiEEERKNSG_IFiiEEEE28ggml_backend_buft_comparatorLb1EEENS_9allocatorIS8_EEE7destroyEPNS_11__tree_nodeIS8_PvEE, symObjAddr: 0x10B4C, symBinAddr: 0x5A100, symSize: 0x54 }
  - { offset: 0x2BB61E, size: 0x8, addend: 0x0, symName: __ZNSt3__112__hash_tableINS_17__hash_value_typeIiiEENS_22__unordered_map_hasherIiS2_NS_4hashIiEENS_8equal_toIiEELb1EEENS_21__unordered_map_equalIiS2_S7_S5_Lb1EEENS_9allocatorIS2_EEE25__emplace_unique_key_argsIiJRKNS_21piecewise_construct_tENS_5tupleIJOiEEENSI_IJEEEEEENS_4pairINS_15__hash_iteratorIPNS_11__hash_nodeIS2_PvEEEEbEERKT_DpOT0_, symObjAddr: 0x112FC, symBinAddr: 0x5A71C, symSize: 0x324 }
  - { offset: 0x2BB629, size: 0x8, addend: 0x0, symName: __ZNSt3__16vectorINS_4pairINS_10unique_ptrI12ggml_context20ggml_context_deleterEENS2_I19ggml_backend_buffer27ggml_backend_buffer_deleterEEEENS_9allocatorIS9_EEE20__throw_length_errorB8ne200100Ev, symObjAddr: 0x11CAC, symBinAddr: 0x5B0CC, symSize: 0x14 }
  - { offset: 0x2BB64C, size: 0x8, addend: 0x0, symName: __ZN14llama_kv_cache8kv_layerD1Ev, symObjAddr: 0x1388, symBinAddr: 0x4B4C0, symSize: 0x40 }
  - { offset: 0x2BB8D4, size: 0x8, addend: 0x0, symName: __ZNSt3__113unordered_mapIiiNS_4hashIiEENS_8equal_toIiEENS_9allocatorINS_4pairIKiiEEEEED1B8ne200100Ev, symObjAddr: 0x1488, symBinAddr: 0x4B5C0, symSize: 0x48 }
  - { offset: 0x2BBB67, size: 0x8, addend: 0x0, symName: __ZNSt3__16vectorIN14llama_kv_cache8kv_layerENS_9allocatorIS2_EEED1B8ne200100Ev, symObjAddr: 0x14D0, symBinAddr: 0x4B608, symSize: 0x80 }
  - { offset: 0x2BBF59, size: 0x8, addend: 0x0, symName: __ZN14llama_kv_cache16stream_copy_infoD1Ev, symObjAddr: 0x1550, symBinAddr: 0x4B688, symSize: 0x40 }
  - { offset: 0x2BC1D5, size: 0x8, addend: 0x0, symName: __ZNSt3__16vectorI14llama_kv_cellsNS_9allocatorIS1_EEED1B8ne200100Ev, symObjAddr: 0x1590, symBinAddr: 0x4B6C8, symSize: 0x68 }
  - { offset: 0x2BC33E, size: 0x8, addend: 0x0, symName: __ZNSt3__16vectorINS_4pairINS_10unique_ptrI12ggml_context20ggml_context_deleterEENS2_I19ggml_backend_buffer27ggml_backend_buffer_deleterEEEENS_9allocatorIS9_EEED1B8ne200100Ev, symObjAddr: 0x15F8, symBinAddr: 0x4B730, symSize: 0x84 }
  - { offset: 0x2BCBAD, size: 0x8, addend: 0x0, symName: __ZNSt3__16vectorI17llama_kv_cell_extNS_9allocatorIS1_EEE8__appendEm, symObjAddr: 0xF7A8, symBinAddr: 0x59540, symSize: 0x120 }
  - { offset: 0x2BCFE1, size: 0x8, addend: 0x0, symName: __ZNSt3__16vectorI17llama_kv_cell_extNS_9allocatorIS1_EEE20__throw_length_errorB8ne200100Ev, symObjAddr: 0xF8C8, symBinAddr: 0x59660, symSize: 0x14 }
  - { offset: 0x2BCFEC, size: 0x8, addend: 0x0, symName: __ZNSt3__16vectorINS_6bitsetILm256EEENS_9allocatorIS2_EEE8__appendEm, symObjAddr: 0xF8DC, symBinAddr: 0x59674, symSize: 0x120 }
  - { offset: 0x2BD457, size: 0x8, addend: 0x0, symName: __ZNSt3__16__treeIjNS_4lessIjEENS_9allocatorIjEEE7destroyEPNS_11__tree_nodeIjPvEE, symObjAddr: 0xFBBC, symBinAddr: 0x59794, symSize: 0x44 }
  - { offset: 0x2BD624, size: 0x8, addend: 0x0, symName: __ZNK14llama_kv_cache12size_k_bytesEv, symObjAddr: 0x13C8, symBinAddr: 0x4B500, symSize: 0x64 }
  - { offset: 0x2BD6D2, size: 0x8, addend: 0x0, symName: __ZNK14llama_kv_cache12size_v_bytesEv, symObjAddr: 0x142C, symBinAddr: 0x4B564, symSize: 0x5C }
  - { offset: 0x2BDDB7, size: 0x8, addend: 0x0, symName: __ZN14llama_kv_cacheC1ERK11llama_model9ggml_typeS3_bbbjjjj14llama_swa_typeRKNSt3__18functionIFbiEEERKNS6_IFiiEEE, symObjAddr: 0x167C, symBinAddr: 0x4B7B4, symSize: 0x20 }
  - { offset: 0x2BDF5E, size: 0x8, addend: 0x0, symName: __ZN14llama_kv_cache5clearEb, symObjAddr: 0x169C, symBinAddr: 0x4B7D4, symSize: 0x148 }
  - { offset: 0x2BE8F3, size: 0x8, addend: 0x0, symName: __ZN14llama_kv_cache6seq_rmEiii, symObjAddr: 0x17E4, symBinAddr: 0x4B91C, symSize: 0x444 }
  - { offset: 0x2BF494, size: 0x8, addend: 0x0, symName: __ZN14llama_kv_cells6seq_rmEji, symObjAddr: 0x1C28, symBinAddr: 0x4BD60, symSize: 0x288 }
  - { offset: 0x2BF4A7, size: 0x8, addend: 0x0, symName: __ZN14llama_kv_cells6seq_rmEji, symObjAddr: 0x1C28, symBinAddr: 0x4BD60, symSize: 0x288 }
  - { offset: 0x2BFBA5, size: 0x8, addend: 0x0, symName: __ZN14llama_kv_cache6seq_cpEiiii, symObjAddr: 0x1EB0, symBinAddr: 0x4BFE8, symSize: 0x638 }
  - { offset: 0x2C033B, size: 0x8, addend: 0x0, symName: __ZN14llama_kv_cache6seq_cpEiiii, symObjAddr: 0x1EB0, symBinAddr: 0x4BFE8, symSize: 0x638 }
  - { offset: 0x2C181C, size: 0x8, addend: 0x0, symName: __ZN14llama_kv_cells7seq_addEji, symObjAddr: 0x24E8, symBinAddr: 0x4C620, symSize: 0x110 }
  - { offset: 0x2C1827, size: 0x8, addend: 0x0, symName: __ZN14llama_kv_cells7seq_addEji, symObjAddr: 0x24E8, symBinAddr: 0x4C620, symSize: 0x110 }
  - { offset: 0x2C1BE4, size: 0x8, addend: 0x0, symName: __ZNK14llama_kv_cache8get_sizeEv, symObjAddr: 0x25F8, symBinAddr: 0x4C730, symSize: 0x24 }
  - { offset: 0x2C1BEF, size: 0x8, addend: 0x0, symName: __ZN14llama_kv_cells7pos_addEji, symObjAddr: 0x261C, symBinAddr: 0x4C754, symSize: 0x144 }
  - { offset: 0x2C2016, size: 0x8, addend: 0x0, symName: __ZNSt3__16vectorI14llama_kv_cellsNS_9allocatorIS1_EEE8__appendEm, symObjAddr: 0x10CD4, symBinAddr: 0x5A154, symSize: 0x25C }
  - { offset: 0x2C2489, size: 0x8, addend: 0x0, symName: __ZNK14llama_kv_cache8get_sizeEv, symObjAddr: 0x25F8, symBinAddr: 0x4C730, symSize: 0x24 }
  - { offset: 0x2C24B6, size: 0x8, addend: 0x0, symName: __ZNK14llama_kv_cache8get_sizeEv, symObjAddr: 0x25F8, symBinAddr: 0x4C730, symSize: 0x24 }
  - { offset: 0x2C253F, size: 0x8, addend: 0x0, symName: __ZN14llama_kv_cells10seq_pos_rmEj, symObjAddr: 0x1006C, symBinAddr: 0x597D8, symSize: 0x128 }
  - { offset: 0x2C2915, size: 0x8, addend: 0x0, symName: __ZN14llama_kv_cells11seq_pos_addEj, symObjAddr: 0x10194, symBinAddr: 0x59900, symSize: 0x11C }
  - { offset: 0x2C2D07, size: 0x8, addend: 0x0, symName: __ZN14llama_kv_cache8seq_keepEi, symObjAddr: 0x2760, symBinAddr: 0x4C898, symSize: 0xE4 }
  - { offset: 0x2C2E99, size: 0x8, addend: 0x0, symName: __ZN14llama_kv_cells8seq_keepEji, symObjAddr: 0x2844, symBinAddr: 0x4C97C, symSize: 0x25C }
  - { offset: 0x2C2EAC, size: 0x8, addend: 0x0, symName: __ZN14llama_kv_cells8seq_keepEji, symObjAddr: 0x2844, symBinAddr: 0x4C97C, symSize: 0x25C }
  - { offset: 0x2C37C7, size: 0x8, addend: 0x0, symName: __ZN14llama_kv_cache7seq_addEiiii, symObjAddr: 0x2AA0, symBinAddr: 0x4CBD8, symSize: 0x1F0 }
  - { offset: 0x2C37D2, size: 0x8, addend: 0x0, symName: __ZN14llama_kv_cache7seq_addEiiii, symObjAddr: 0x2AA0, symBinAddr: 0x4CBD8, symSize: 0x1F0 }
  - { offset: 0x2C39F6, size: 0x8, addend: 0x0, symName: __ZN14llama_kv_cache7seq_divEiiii, symObjAddr: 0x2C90, symBinAddr: 0x4CDC8, symSize: 0x1F0 }
  - { offset: 0x2C3A48, size: 0x8, addend: 0x0, symName: __ZN14llama_kv_cache7seq_divEiiii, symObjAddr: 0x2C90, symBinAddr: 0x4CDC8, symSize: 0x1F0 }
  - { offset: 0x2C3C92, size: 0x8, addend: 0x0, symName: __ZNK14llama_kv_cache11seq_pos_minEi, symObjAddr: 0x2E80, symBinAddr: 0x4CFB8, symSize: 0x7C }
  - { offset: 0x2C3D0F, size: 0x8, addend: 0x0, symName: __ZNK14llama_kv_cache11seq_pos_minEi, symObjAddr: 0x2E80, symBinAddr: 0x4CFB8, symSize: 0x7C }
  - { offset: 0x2C3E01, size: 0x8, addend: 0x0, symName: __ZNK14llama_kv_cache11seq_pos_maxEi, symObjAddr: 0x2EFC, symBinAddr: 0x4D034, symSize: 0xB8 }
  - { offset: 0x2C3EAB, size: 0x8, addend: 0x0, symName: __ZNK14llama_kv_cache11seq_pos_maxEi, symObjAddr: 0x2EFC, symBinAddr: 0x4D034, symSize: 0xB8 }
  - { offset: 0x2C4031, size: 0x8, addend: 0x0, symName: __ZNK14llama_kv_cache16memory_breakdownEv, symObjAddr: 0x2FB4, symBinAddr: 0x4D0EC, symSize: 0x1F8 }
  - { offset: 0x2C45E4, size: 0x8, addend: 0x0, symName: __ZNK14llama_kv_cache16memory_breakdownEv, symObjAddr: 0x2FB4, symBinAddr: 0x4D0EC, symSize: 0x1F8 }
  - { offset: 0x2C5481, size: 0x8, addend: 0x0, symName: __ZN14llama_kv_cache10init_batchER18llama_batch_allocrjb, symObjAddr: 0x31AC, symBinAddr: 0x4D2E4, symSize: 0x304 }
  - { offset: 0x2C7FBE, size: 0x8, addend: 0x0, symName: __ZNK14llama_kv_cache9find_slotERK12llama_ubatchb, symObjAddr: 0x481C, symBinAddr: 0x4E79C, symSize: 0xC18 }
  - { offset: 0x2CA4DF, size: 0x8, addend: 0x0, symName: __ZN14llama_kv_cache9slot_infoC2ERKS0_, symObjAddr: 0x102B0, symBinAddr: 0x59A1C, symSize: 0x148 }
  - { offset: 0x2CAB1E, size: 0x8, addend: 0x0, symName: __ZNSt3__16vectorIN14llama_kv_cache9slot_infoENS_9allocatorIS2_EEE24__emplace_back_slow_pathIJRKS2_EEEPS2_DpOT_, symObjAddr: 0x11ED8, symBinAddr: 0x5B0E0, symSize: 0x14C }
  - { offset: 0x2CAEFE, size: 0x8, addend: 0x0, symName: __ZZN14llama_kv_cache7prepareERKNSt3__16vectorI12llama_ubatchNS0_9allocatorIS2_EEEEEN7state_tD1Ev, symObjAddr: 0x5550, symBinAddr: 0x4F4D0, symSize: 0xD4 }
  - { offset: 0x2CB5AE, size: 0x8, addend: 0x0, symName: __ZN14llama_kv_cache12apply_ubatchERKNS_9slot_infoERK12llama_ubatch, symObjAddr: 0x5624, symBinAddr: 0x4F5A4, symSize: 0xA2C }
  - { offset: 0x2CCF50, size: 0x8, addend: 0x0, symName: __ZN14llama_kv_cells3setERKNSt3__16vectorIjNS0_9allocatorIjEEEERKS_, symObjAddr: 0x6050, symBinAddr: 0x4FFD0, symSize: 0x250 }
  - { offset: 0x2CCF94, size: 0x8, addend: 0x0, symName: __ZN14llama_kv_cells3setERKNSt3__16vectorIjNS0_9allocatorIjEEEERKS_, symObjAddr: 0x6050, symBinAddr: 0x4FFD0, symSize: 0x250 }
  - { offset: 0x2CD67F, size: 0x8, addend: 0x0, symName: __ZNSt3__16vectorI14llama_kv_cellsNS_9allocatorIS1_EEE20__throw_length_errorB8ne200100Ev, symObjAddr: 0x10F30, symBinAddr: 0x5A3B0, symSize: 0x14 }
  - { offset: 0x2CD697, size: 0x8, addend: 0x0, symName: __ZNSt3__19allocatorI14llama_kv_cellsE9constructB8ne200100IS1_JS1_EEEvPT_DpOT0_, symObjAddr: 0x10F44, symBinAddr: 0x5A3C4, symSize: 0x124 }
  - { offset: 0x2CD6A2, size: 0x8, addend: 0x0, symName: __ZNSt3__16vectorIZN14llama_kv_cache7prepareERKNS0_I12llama_ubatchNS_9allocatorIS2_EEEEE7state_tNS3_IS8_EEE20__throw_length_errorB8ne200100Ev, symObjAddr: 0x121E8, symBinAddr: 0x5B3F0, symSize: 0x14 }
  - { offset: 0x2CD6BA, size: 0x8, addend: 0x0, symName: __ZNSt3__113unordered_mapIiNS_6vectorIjNS_9allocatorIjEEEENS_4hashIiEENS_8equal_toIiEENS2_INS_4pairIKiS4_EEEEED1B8ne200100Ev, symObjAddr: 0x121FC, symBinAddr: 0x5B404, symSize: 0x68 }
  - { offset: 0x2CD6C5, size: 0x8, addend: 0x0, symName: __ZN14llama_kv_cache9slot_infoD1Ev, symObjAddr: 0x5434, symBinAddr: 0x4F3B4, symSize: 0x84 }
  - { offset: 0x2CDAA7, size: 0x8, addend: 0x0, symName: __ZN14llama_kv_cellsD1Ev, symObjAddr: 0x54B8, symBinAddr: 0x4F438, symSize: 0x98 }
  - { offset: 0x2CE0E8, size: 0x8, addend: 0x0, symName: __ZNSt3__16vectorIZN14llama_kv_cache7prepareERKNS0_I12llama_ubatchNS_9allocatorIS2_EEEEE7state_tNS3_IS8_EEED1B8ne200100Ev, symObjAddr: 0x62A0, symBinAddr: 0x50220, symSize: 0x58 }
  - { offset: 0x2CE26E, size: 0x8, addend: 0x0, symName: __ZN14llama_kv_cache9init_fullEv, symObjAddr: 0x45A8, symBinAddr: 0x4E528, symSize: 0x54 }
  - { offset: 0x2CE317, size: 0x8, addend: 0x0, symName: __ZN22llama_kv_cache_contextC2EP14llama_kv_cache, symObjAddr: 0xE900, symBinAddr: 0x58880, symSize: 0x290 }
  - { offset: 0x2CECCE, size: 0x8, addend: 0x0, symName: __ZN14llama_kv_cache11init_updateEP13llama_contextb, symObjAddr: 0x45FC, symBinAddr: 0x4E57C, symSize: 0x160 }
  - { offset: 0x2CEFD3, size: 0x8, addend: 0x0, symName: __ZNK14llama_kv_cache13get_has_shiftEv, symObjAddr: 0x475C, symBinAddr: 0x4E6DC, symSize: 0xC0 }
  - { offset: 0x2CF6D2, size: 0x8, addend: 0x0, symName: __ZNSt3__16vectorINS0_IjNS_9allocatorIjEEEENS1_IS3_EEE8__appendEm, symObjAddr: 0x1093C, symBinAddr: 0x59EF0, symSize: 0x180 }
  - { offset: 0x2CFB15, size: 0x8, addend: 0x0, symName: __ZNSt3__19allocatorI14llama_kv_cellsE7destroyB8ne200100EPS1_, symObjAddr: 0x10ABC, symBinAddr: 0x5A070, symSize: 0x90 }
  - { offset: 0x2CFCBB, size: 0x8, addend: 0x0, symName: __ZN14llama_kv_cache6updateEP13llama_contextbRKNS_16stream_copy_infoE, symObjAddr: 0x62F8, symBinAddr: 0x50278, symSize: 0x338 }
  - { offset: 0x2D0089, size: 0x8, addend: 0x0, symName: __ZNK14llama_kv_cache17build_graph_shiftEP16llm_graph_resultP13llama_context, symObjAddr: 0x6630, symBinAddr: 0x505B0, symSize: 0x2D0 }
  - { offset: 0x2D00CA, size: 0x8, addend: 0x0, symName: __ZNK14llama_kv_cache17build_graph_shiftEP16llm_graph_resultP13llama_context, symObjAddr: 0x6630, symBinAddr: 0x505B0, symSize: 0x2D0 }
  - { offset: 0x2D0918, size: 0x8, addend: 0x0, symName: __ZNK14llama_kv_cache16build_rope_shiftERK13llama_cparamsP12ggml_contextP11ggml_tensorS6_S6_ff, symObjAddr: 0xC60C, symBinAddr: 0x5658C, symSize: 0x110 }
  - { offset: 0x2D0AB0, size: 0x8, addend: 0x0, symName: __ZNK14llama_kv_cache13get_can_shiftEv, symObjAddr: 0x6900, symBinAddr: 0x50880, symSize: 0x8 }
  - { offset: 0x2D0AD6, size: 0x8, addend: 0x0, symName: __ZNK14llama_kv_cache12get_n_streamEv, symObjAddr: 0x6908, symBinAddr: 0x50888, symSize: 0x8 }
  - { offset: 0x2D0AF8, size: 0x8, addend: 0x0, symName: __ZNK14llama_kv_cache8get_n_kvERKNS_9slot_infoE, symObjAddr: 0x6910, symBinAddr: 0x50890, symSize: 0xCC }
  - { offset: 0x2D0B37, size: 0x8, addend: 0x0, symName: __ZNK14llama_kv_cache8get_n_kvERKNS_9slot_infoE, symObjAddr: 0x6910, symBinAddr: 0x50890, symSize: 0xCC }
  - { offset: 0x2D0B55, size: 0x8, addend: 0x0, symName: __ZNK14llama_kv_cache8get_n_kvERKNS_9slot_infoE, symObjAddr: 0x6910, symBinAddr: 0x50890, symSize: 0xCC }
  - { offset: 0x2D0B72, size: 0x8, addend: 0x0, symName: __ZNK14llama_kv_cache8get_n_kvERKNS_9slot_infoE, symObjAddr: 0x6910, symBinAddr: 0x50890, symSize: 0xCC }
  - { offset: 0x2D0DEA, size: 0x8, addend: 0x0, symName: __ZNK14llama_kv_cache5get_kEP12ggml_contextijRKNS_9slot_infoE, symObjAddr: 0x69DC, symBinAddr: 0x5095C, symSize: 0x200 }
  - { offset: 0x2D1176, size: 0x8, addend: 0x0, symName: __ZNK14llama_kv_cache5get_vEP12ggml_contextijRKNS_9slot_infoE, symObjAddr: 0x6BDC, symBinAddr: 0x50B5C, symSize: 0x294 }
  - { offset: 0x2D11C1, size: 0x8, addend: 0x0, symName: __ZNK14llama_kv_cache5get_vEP12ggml_contextijRKNS_9slot_infoE, symObjAddr: 0x6BDC, symBinAddr: 0x50B5C, symSize: 0x294 }
  - { offset: 0x2D1565, size: 0x8, addend: 0x0, symName: __ZNK14llama_kv_cache5cpy_kEP12ggml_contextP11ggml_tensorS3_iRKNS_9slot_infoE, symObjAddr: 0x6E70, symBinAddr: 0x50DF0, symSize: 0x1F8 }
  - { offset: 0x2D1570, size: 0x8, addend: 0x0, symName: __ZNK14llama_kv_cache5cpy_kEP12ggml_contextP11ggml_tensorS3_iRKNS_9slot_infoE, symObjAddr: 0x6E70, symBinAddr: 0x50DF0, symSize: 0x1F8 }
  - { offset: 0x2D1937, size: 0x8, addend: 0x0, symName: __ZNK14llama_kv_cache5cpy_vEP12ggml_contextP11ggml_tensorS3_iRKNS_9slot_infoE, symObjAddr: 0x7068, symBinAddr: 0x50FE8, symSize: 0x2D0 }
  - { offset: 0x2D198E, size: 0x8, addend: 0x0, symName: __ZNK14llama_kv_cache5cpy_vEP12ggml_contextP11ggml_tensorS3_iRKNS_9slot_infoE, symObjAddr: 0x7068, symBinAddr: 0x50FE8, symSize: 0x2D0 }
  - { offset: 0x2D1E54, size: 0x8, addend: 0x0, symName: __ZNK14llama_kv_cache18build_input_k_idxsEP12ggml_contextRK12llama_ubatch, symObjAddr: 0x7338, symBinAddr: 0x512B8, symSize: 0x34 }
  - { offset: 0x2D1EC8, size: 0x8, addend: 0x0, symName: __ZNK14llama_kv_cache18build_input_k_idxsEP12ggml_contextRK12llama_ubatch, symObjAddr: 0x7338, symBinAddr: 0x512B8, symSize: 0x34 }
  - { offset: 0x2D1F33, size: 0x8, addend: 0x0, symName: __ZNK14llama_kv_cache18build_input_v_idxsEP12ggml_contextRK12llama_ubatch, symObjAddr: 0x736C, symBinAddr: 0x512EC, symSize: 0x54 }
  - { offset: 0x2D1FA6, size: 0x8, addend: 0x0, symName: __ZNK14llama_kv_cache16set_input_k_idxsEP11ggml_tensorPK12llama_ubatchRKNS_9slot_infoE, symObjAddr: 0x73C0, symBinAddr: 0x51340, symSize: 0x3F8 }
  - { offset: 0x2D2143, size: 0x8, addend: 0x0, symName: __ZNK14llama_kv_cache16set_input_v_idxsEP11ggml_tensorPK12llama_ubatchRKNS_9slot_infoE, symObjAddr: 0x77B8, symBinAddr: 0x51738, symSize: 0x5A4 }
  - { offset: 0x2D2168, size: 0x8, addend: 0x0, symName: __ZNK14llama_kv_cache16set_input_v_idxsEP11ggml_tensorPK12llama_ubatchRKNS_9slot_infoE, symObjAddr: 0x77B8, symBinAddr: 0x51738, symSize: 0x5A4 }
  - { offset: 0x2D2447, size: 0x8, addend: 0x0, symName: __ZNK14llama_kv_cache17set_input_k_shiftEP11ggml_tensor, symObjAddr: 0x7D5C, symBinAddr: 0x51CDC, symSize: 0x310 }
  - { offset: 0x2D245A, size: 0x8, addend: 0x0, symName: __ZNK14llama_kv_cache17set_input_k_shiftEP11ggml_tensor, symObjAddr: 0x7D5C, symBinAddr: 0x51CDC, symSize: 0x310 }
  - { offset: 0x2D256D, size: 0x8, addend: 0x0, symName: __ZNK14llama_kv_cache17set_input_kq_maskEP11ggml_tensorPK12llama_ubatchb, symObjAddr: 0x806C, symBinAddr: 0x51FEC, symSize: 0x43F8 }
  - { offset: 0x2D4F46, size: 0x8, addend: 0x0, symName: __ZNK14llama_kv_cache17set_input_kq_maskEP11ggml_tensorPK12llama_ubatchb, symObjAddr: 0x806C, symBinAddr: 0x51FEC, symSize: 0x43F8 }
  - { offset: 0x2E4CF5, size: 0x8, addend: 0x0, symName: __ZNSt3__112__hash_tableINS_17__hash_value_typeIiNS_6vectorIjNS_9allocatorIjEEEEEENS_22__unordered_map_hasherIiS6_NS_4hashIiEENS_8equal_toIiEELb1EEENS_21__unordered_map_equalIiS6_SB_S9_Lb1EEENS3_IS6_EEE25__emplace_unique_key_argsIiJRKNS_21piecewise_construct_tENS_5tupleIJRKiEEENSL_IJEEEEEENS_4pairINS_15__hash_iteratorIPNS_11__hash_nodeIS6_PvEEEEbEERKT_DpOT0_, symObjAddr: 0x122C0, symBinAddr: 0x5B4C8, symSize: 0x334 }
  - { offset: 0x2E542D, size: 0x8, addend: 0x0, symName: __ZNSt3__112__hash_tableINS_17__hash_value_typeIijEENS_22__unordered_map_hasherIiS2_NS_4hashIiEENS_8equal_toIiEELb1EEENS_21__unordered_map_equalIiS2_S7_S5_Lb1EEENS_9allocatorIS2_EEE25__emplace_unique_key_argsIiJRKNS_21piecewise_construct_tENS_5tupleIJRKiEEENSI_IJEEEEEENS_4pairINS_15__hash_iteratorIPNS_11__hash_nodeIS2_PvEEEEbEERKT_DpOT0_, symObjAddr: 0x127D4, symBinAddr: 0x5B9DC, symSize: 0x324 }
  - { offset: 0x2E5B7A, size: 0x8, addend: 0x0, symName: __ZNSt3__16vectorI14llama_kv_cellsNS_9allocatorIS1_EEE20__throw_out_of_rangeB8ne200100Ev, symObjAddr: 0x122AC, symBinAddr: 0x5B4B4, symSize: 0x14 }
  - { offset: 0x2E5B92, size: 0x8, addend: 0x0, symName: __ZNSt3__112__hash_tableINS_17__hash_value_typeIiNS_6vectorIjNS_9allocatorIjEEEEEENS_22__unordered_map_hasherIiS6_NS_4hashIiEENS_8equal_toIiEELb1EEENS_21__unordered_map_equalIiS6_SB_S9_Lb1EEENS3_IS6_EEE25__emplace_unique_key_argsIiJRKNS_21piecewise_construct_tENS_5tupleIJRKiEEENSL_IJEEEEEENS_4pairINS_15__hash_iteratorIPNS_11__hash_nodeIS6_PvEEEEbEERKT_DpOT0_, symObjAddr: 0x122C0, symBinAddr: 0x5B4C8, symSize: 0x334 }
  - { offset: 0x2E5B9D, size: 0x8, addend: 0x0, symName: __ZNSt3__113unordered_mapIiNS_6vectorIjNS_9allocatorIjEEEENS_4hashIiEENS_8equal_toIiEENS2_INS_4pairIKiS4_EEEEED1B8ne200100Ev, symObjAddr: 0x121FC, symBinAddr: 0x5B404, symSize: 0x68 }
  - { offset: 0x2E5FB8, size: 0x8, addend: 0x0, symName: __ZNSt3__113unordered_mapIijNS_4hashIiEENS_8equal_toIiEENS_9allocatorINS_4pairIKijEEEEED1B8ne200100Ev, symObjAddr: 0x12264, symBinAddr: 0x5B46C, symSize: 0x48 }
  - { offset: 0x2E6261, size: 0x8, addend: 0x0, symName: __ZNK14llama_kv_cache20set_input_pos_bucketEP11ggml_tensorPK12llama_ubatch, symObjAddr: 0xC464, symBinAddr: 0x563E4, symSize: 0x144 }
  - { offset: 0x2E6426, size: 0x8, addend: 0x0, symName: __ZNK14llama_kv_cache10total_sizeEv, symObjAddr: 0xC5A8, symBinAddr: 0x56528, symSize: 0x64 }
  - { offset: 0x2E645E, size: 0x8, addend: 0x0, symName: __ZNK14llama_kv_cache10total_sizeEv, symObjAddr: 0xC5A8, symBinAddr: 0x56528, symSize: 0x64 }
  - { offset: 0x2E669F, size: 0x8, addend: 0x0, symName: __ZN23llm_graph_input_k_shift9set_inputEPK12llama_ubatch, symObjAddr: 0xC71C, symBinAddr: 0x5669C, symSize: 0x314 }
  - { offset: 0x2E67DC, size: 0x8, addend: 0x0, symName: __ZNK14llama_kv_cache11state_writeER16llama_io_write_iij, symObjAddr: 0xCA30, symBinAddr: 0x569B0, symSize: 0x53C }
  - { offset: 0x2E6F65, size: 0x8, addend: 0x0, symName: __ZNK14llama_kv_cache11state_writeER16llama_io_write_iij, symObjAddr: 0xCA30, symBinAddr: 0x569B0, symSize: 0x53C }
  - { offset: 0x2E7C41, size: 0x8, addend: 0x0, symName: __ZNK14llama_kv_cache16state_write_metaER16llama_io_write_iRKNS_13cell_ranges_tEi, symObjAddr: 0xCF6C, symBinAddr: 0x56EEC, symSize: 0x27C }
  - { offset: 0x2E83EA, size: 0x8, addend: 0x0, symName: __ZNK14llama_kv_cache16state_write_dataER16llama_io_write_iRKNS_13cell_ranges_tE, symObjAddr: 0xD1E8, symBinAddr: 0x57168, symSize: 0x384 }
  - { offset: 0x2E8C0B, size: 0x8, addend: 0x0, symName: __ZNSt3__16vectorINS_4pairIjjEENS_9allocatorIS2_EEE20__throw_length_errorB8ne200100Ev, symObjAddr: 0x12C78, symBinAddr: 0x5BE80, symSize: 0x14 }
  - { offset: 0x2E8C23, size: 0x8, addend: 0x0, symName: __ZNSt3__16vectorIN14llama_kv_cache9slot_infoENS_9allocatorIS2_EEE8__appendEm, symObjAddr: 0x12C8C, symBinAddr: 0x5BE94, symSize: 0x1D8 }
  - { offset: 0x2E8F14, size: 0x8, addend: 0x0, symName: __ZN14llama_kv_cache10state_readER15llama_io_read_iij, symObjAddr: 0xD56C, symBinAddr: 0x574EC, symSize: 0x2A0 }
  - { offset: 0x2E955A, size: 0x8, addend: 0x0, symName: __ZN14llama_kv_cache15state_read_metaER15llama_io_read_ijjRNS_9slot_infoEi, symObjAddr: 0xD80C, symBinAddr: 0x5778C, symSize: 0x7D0 }
  - { offset: 0x2EA722, size: 0x8, addend: 0x0, symName: __ZN14llama_kv_cache15state_read_dataER15llama_io_read_ijjRKNS_9slot_infoE, symObjAddr: 0xDFDC, symBinAddr: 0x57F5C, symSize: 0x8B4 }
  - { offset: 0x2EB38F, size: 0x8, addend: 0x0, symName: __ZN22llama_kv_cache_contextC2E19llama_memory_status, symObjAddr: 0xE890, symBinAddr: 0x58810, symSize: 0x38 }
  - { offset: 0x2EC063, size: 0x8, addend: 0x0, symName: __ZN22llama_kv_cache_contextC2E19llama_memory_status, symObjAddr: 0xE890, symBinAddr: 0x58810, symSize: 0x38 }
  - { offset: 0x2EC107, size: 0x8, addend: 0x0, symName: __ZN22llama_kv_cache_contextC1E19llama_memory_status, symObjAddr: 0xE8C8, symBinAddr: 0x58848, symSize: 0x38 }
  - { offset: 0x2EC130, size: 0x8, addend: 0x0, symName: __ZN22llama_kv_cache_contextC1E19llama_memory_status, symObjAddr: 0xE8C8, symBinAddr: 0x58848, symSize: 0x38 }
  - { offset: 0x2EC35D, size: 0x8, addend: 0x0, symName: __ZNSt3__16vectorIN14llama_kv_cache9slot_infoENS_9allocatorIS2_EEE6resizeEm, symObjAddr: 0xEB90, symBinAddr: 0x58B10, symSize: 0xF0 }
  - { offset: 0x2EC864, size: 0x8, addend: 0x0, symName: __ZNSt3__16vectorIN14llama_kv_cache9slot_infoENS_9allocatorIS2_EEE8__appendEm, symObjAddr: 0x12C8C, symBinAddr: 0x5BE94, symSize: 0x1D8 }
  - { offset: 0x2ECDAB, size: 0x8, addend: 0x0, symName: __ZN22llama_kv_cache_contextC1EP14llama_kv_cache, symObjAddr: 0xEC80, symBinAddr: 0x58C00, symSize: 0x4 }
  - { offset: 0x2ECDD5, size: 0x8, addend: 0x0, symName: __ZN22llama_kv_cache_contextC1EP14llama_kv_cache, symObjAddr: 0xEC80, symBinAddr: 0x58C00, symSize: 0x4 }
  - { offset: 0x2ECDEF, size: 0x8, addend: 0x0, symName: __ZN22llama_kv_cache_contextC2EP14llama_kv_cacheP13llama_contextbNS0_16stream_copy_infoE, symObjAddr: 0xEC84, symBinAddr: 0x58C04, symSize: 0x8C }
  - { offset: 0x2ECF8E, size: 0x8, addend: 0x0, symName: __ZN22llama_kv_cache_contextC1EP14llama_kv_cacheP13llama_contextbNS0_16stream_copy_infoE, symObjAddr: 0xED10, symBinAddr: 0x58C90, symSize: 0x8C }
  - { offset: 0x2ED165, size: 0x8, addend: 0x0, symName: __ZN22llama_kv_cache_contextC2EP14llama_kv_cacheNSt3__16vectorINS0_9slot_infoENS2_9allocatorIS4_EEEENS3_I12llama_ubatchNS5_IS8_EEEE, symObjAddr: 0xED9C, symBinAddr: 0x58D1C, symSize: 0x6C }
  - { offset: 0x2ED2B5, size: 0x8, addend: 0x0, symName: __ZN22llama_kv_cache_contextC1EP14llama_kv_cacheNSt3__16vectorINS0_9slot_infoENS2_9allocatorIS4_EEEENS3_I12llama_ubatchNS5_IS8_EEEE, symObjAddr: 0xEE08, symBinAddr: 0x58D88, symSize: 0x6C }
  - { offset: 0x2ED2EE, size: 0x8, addend: 0x0, symName: __ZN22llama_kv_cache_contextC1EP14llama_kv_cacheNSt3__16vectorINS0_9slot_infoENS2_9allocatorIS4_EEEENS3_I12llama_ubatchNS5_IS8_EEEE, symObjAddr: 0xEE08, symBinAddr: 0x58D88, symSize: 0x6C }
  - { offset: 0x2ED455, size: 0x8, addend: 0x0, symName: __ZN22llama_kv_cache_contextD2Ev, symObjAddr: 0xEE74, symBinAddr: 0x58DF4, symSize: 0x158 }
  - { offset: 0x2EDE93, size: 0x8, addend: 0x0, symName: __ZN22llama_kv_cache_contextD1Ev, symObjAddr: 0xEFCC, symBinAddr: 0x58F4C, symSize: 0x4 }
  - { offset: 0x2EDEB6, size: 0x8, addend: 0x0, symName: __ZN22llama_kv_cache_contextD1Ev, symObjAddr: 0xEFCC, symBinAddr: 0x58F4C, symSize: 0x4 }
  - { offset: 0x2EDEE6, size: 0x8, addend: 0x0, symName: __ZN22llama_kv_cache_contextD0Ev, symObjAddr: 0xEFD0, symBinAddr: 0x58F50, symSize: 0x14 }
  - { offset: 0x2EDF44, size: 0x8, addend: 0x0, symName: __ZN22llama_kv_cache_context4nextEv, symObjAddr: 0xEFE4, symBinAddr: 0x58F64, symSize: 0x38 }
  - { offset: 0x2EE01F, size: 0x8, addend: 0x0, symName: __ZN22llama_kv_cache_context5applyEv, symObjAddr: 0xF01C, symBinAddr: 0x58F9C, symSize: 0x13C }
  - { offset: 0x2EE318, size: 0x8, addend: 0x0, symName: __ZNK22llama_kv_cache_context10get_statusEv, symObjAddr: 0xF158, symBinAddr: 0x590D8, symSize: 0x8 }
  - { offset: 0x2EE364, size: 0x8, addend: 0x0, symName: __ZNK22llama_kv_cache_context10get_ubatchEv, symObjAddr: 0xF160, symBinAddr: 0x590E0, symSize: 0x14 }
  - { offset: 0x2EE3B5, size: 0x8, addend: 0x0, symName: __ZNK22llama_kv_cache_context8get_n_kvEv, symObjAddr: 0xF174, symBinAddr: 0x590F4, symSize: 0x8 }
  - { offset: 0x2EE401, size: 0x8, addend: 0x0, symName: __ZNK22llama_kv_cache_context5get_kEP12ggml_contexti, symObjAddr: 0xF17C, symBinAddr: 0x590FC, symSize: 0x1C }
  - { offset: 0x2EE48B, size: 0x8, addend: 0x0, symName: __ZNK22llama_kv_cache_context5get_vEP12ggml_contexti, symObjAddr: 0xF198, symBinAddr: 0x59118, symSize: 0x1C }
  - { offset: 0x2EE515, size: 0x8, addend: 0x0, symName: __ZNK22llama_kv_cache_context5cpy_kEP12ggml_contextP11ggml_tensorS3_i, symObjAddr: 0xF1B4, symBinAddr: 0x59134, symSize: 0x8 }
  - { offset: 0x2EE5A2, size: 0x8, addend: 0x0, symName: __ZNK22llama_kv_cache_context5cpy_vEP12ggml_contextP11ggml_tensorS3_i, symObjAddr: 0xF1BC, symBinAddr: 0x5913C, symSize: 0x8 }
  - { offset: 0x2EE678, size: 0x8, addend: 0x0, symName: __ZNK22llama_kv_cache_context18build_input_k_idxsEP12ggml_contextRK12llama_ubatch, symObjAddr: 0xF1C4, symBinAddr: 0x59144, symSize: 0x34 }
  - { offset: 0x2EE764, size: 0x8, addend: 0x0, symName: __ZNK22llama_kv_cache_context18build_input_v_idxsEP12ggml_contextRK12llama_ubatch, symObjAddr: 0xF1F8, symBinAddr: 0x59178, symSize: 0x58 }
  - { offset: 0x2EE815, size: 0x8, addend: 0x0, symName: __ZNK22llama_kv_cache_context17set_input_k_shiftEP11ggml_tensor, symObjAddr: 0xF250, symBinAddr: 0x591D0, symSize: 0x310 }
  - { offset: 0x2EE957, size: 0x8, addend: 0x0, symName: __ZNK22llama_kv_cache_context16set_input_k_idxsEP11ggml_tensorPK12llama_ubatch, symObjAddr: 0xF560, symBinAddr: 0x594E0, symSize: 0x18 }
  - { offset: 0x2EE96A, size: 0x8, addend: 0x0, symName: __ZNK22llama_kv_cache_context16set_input_k_idxsEP11ggml_tensorPK12llama_ubatch, symObjAddr: 0xF560, symBinAddr: 0x594E0, symSize: 0x18 }
  - { offset: 0x2EE9F4, size: 0x8, addend: 0x0, symName: __ZNK22llama_kv_cache_context16set_input_v_idxsEP11ggml_tensorPK12llama_ubatch, symObjAddr: 0xF578, symBinAddr: 0x594F8, symSize: 0x18 }
  - { offset: 0x2EEA7E, size: 0x8, addend: 0x0, symName: __ZNK22llama_kv_cache_context17set_input_kq_maskEP11ggml_tensorPK12llama_ubatchb, symObjAddr: 0xF590, symBinAddr: 0x59510, symSize: 0x8 }
  - { offset: 0x2EEAFB, size: 0x8, addend: 0x0, symName: __ZNK22llama_kv_cache_context20set_input_pos_bucketEP11ggml_tensorPK12llama_ubatch, symObjAddr: 0xF598, symBinAddr: 0x59518, symSize: 0x8 }
  - { offset: 0x2EEB5E, size: 0x8, addend: 0x0, symName: __ZN14llama_kv_cacheD1Ev, symObjAddr: 0xF5A0, symBinAddr: 0x59520, symSize: 0x4 }
  - { offset: 0x2EEB81, size: 0x8, addend: 0x0, symName: __ZN14llama_kv_cacheD1Ev, symObjAddr: 0xF5A0, symBinAddr: 0x59520, symSize: 0x4 }
  - { offset: 0x2EEB94, size: 0x8, addend: 0x0, symName: __ZN14llama_kv_cacheD2Ev, symObjAddr: 0x107AC, symBinAddr: 0x59D60, symSize: 0x190 }
  - { offset: 0x2EFB66, size: 0x8, addend: 0x0, symName: __ZN14llama_kv_cacheD0Ev, symObjAddr: 0xF5A4, symBinAddr: 0x59524, symSize: 0x14 }
  - { offset: 0x2EFBC0, size: 0x8, addend: 0x0, symName: __ZN23llm_graph_input_k_shiftD1Ev, symObjAddr: 0xF5B8, symBinAddr: 0x59538, symSize: 0x4 }
  - { offset: 0x2EFBE9, size: 0x8, addend: 0x0, symName: __ZN23llm_graph_input_k_shiftD0Ev, symObjAddr: 0xF5BC, symBinAddr: 0x5953C, symSize: 0x4 }
  - { offset: 0x2EFFE8, size: 0x8, addend: 0x0, symName: __ZNSt3__16vectorI17llama_kv_cell_extNS_9allocatorIS1_EEE20__throw_length_errorB8ne200100Ev, symObjAddr: 0xF8C8, symBinAddr: 0x59660, symSize: 0x14 }
  - { offset: 0x2F0000, size: 0x8, addend: 0x0, symName: __ZNSt3__16vectorINS_6bitsetILm256EEENS_9allocatorIS2_EEE8__appendEm, symObjAddr: 0xF8DC, symBinAddr: 0x59674, symSize: 0x120 }
  - { offset: 0x2F0710, size: 0x8, addend: 0x0, symName: __ZNSt3__16vectorINS0_IjNS_9allocatorIjEEEENS1_IS3_EEE20__throw_length_errorB8ne200100Ev, symObjAddr: 0x1047C, symBinAddr: 0x59BE8, symSize: 0x14 }
  - { offset: 0x2F0728, size: 0x8, addend: 0x0, symName: __ZNSt3__135__uninitialized_allocator_copy_implB8ne200100INS_9allocatorINS_6vectorIjNS1_IjEEEEEEPS4_S6_S6_EET2_RT_T0_T1_S7_, symObjAddr: 0x10490, symBinAddr: 0x59BFC, symSize: 0xF8 }
  - { offset: 0x2F0733, size: 0x8, addend: 0x0, symName: __ZNSt3__128__exception_guard_exceptionsINS_6vectorINS1_IjNS_9allocatorIjEEEENS2_IS4_EEE16__destroy_vectorEED1B8ne200100Ev, symObjAddr: 0x103F8, symBinAddr: 0x59B64, symSize: 0x84 }
  - { offset: 0x2F0AB0, size: 0x8, addend: 0x0, symName: __ZNSt3__128__exception_guard_exceptionsINS_29_AllocatorDestroyRangeReverseINS_9allocatorINS_6vectorIjNS2_IjEEEEEEPS5_EEED1B8ne200100Ev, symObjAddr: 0x10588, symBinAddr: 0x59CF4, symSize: 0x6C }
  - { offset: 0x2F1C44, size: 0x8, addend: 0x0, symName: __ZNSt3__19allocatorI14llama_kv_cellsE9constructB8ne200100IS1_JS1_EEEvPT_DpOT0_, symObjAddr: 0x10F44, symBinAddr: 0x5A3C4, symSize: 0x124 }
  - { offset: 0x2F1C74, size: 0x8, addend: 0x0, symName: __ZNSt3__19allocatorI14llama_kv_cellsE9constructB8ne200100IS1_JS1_EEEvPT_DpOT0_, symObjAddr: 0x10F44, symBinAddr: 0x5A3C4, symSize: 0x124 }
  - { offset: 0x2F1C96, size: 0x8, addend: 0x0, symName: __ZNSt3__19allocatorI14llama_kv_cellsE9constructB8ne200100IS1_JS1_EEEvPT_DpOT0_, symObjAddr: 0x10F44, symBinAddr: 0x5A3C4, symSize: 0x124 }
  - { offset: 0x2F2464, size: 0x8, addend: 0x0, symName: __ZNSt3__112__hash_tableINS_17__hash_value_typeIiiEENS_22__unordered_map_hasherIiS2_NS_4hashIiEENS_8equal_toIiEELb1EEENS_21__unordered_map_equalIiS2_S7_S5_Lb1EEENS_9allocatorIS2_EEE11__do_rehashILb1EEEvm, symObjAddr: 0x11620, symBinAddr: 0x5AA40, symSize: 0x180 }
  - { offset: 0x2F27F1, size: 0x8, addend: 0x0, symName: __ZNSt3__16vectorIN14llama_kv_cache8kv_layerENS_9allocatorIS2_EEE24__emplace_back_slow_pathIJS2_EEEPS2_DpOT_, symObjAddr: 0x117A0, symBinAddr: 0x5ABC0, symSize: 0x1D4 }
  - { offset: 0x2F29F2, size: 0x8, addend: 0x0, symName: __ZNSt3__16vectorIN14llama_kv_cache8kv_layerENS_9allocatorIS2_EEE20__throw_length_errorB8ne200100Ev, symObjAddr: 0x11974, symBinAddr: 0x5AD94, symSize: 0x14 }
  - { offset: 0x2F2A0A, size: 0x8, addend: 0x0, symName: __ZNSt3__112__hash_tableINS_17__hash_value_typeIiiEENS_22__unordered_map_hasherIiS2_NS_4hashIiEENS_8equal_toIiEELb1EEENS_21__unordered_map_equalIiS2_S7_S5_Lb1EEENS_9allocatorIS2_EEE25__emplace_unique_key_argsIiJRKNS_21piecewise_construct_tENS_5tupleIJRKiEEENSI_IJEEEEEENS_4pairINS_15__hash_iteratorIPNS_11__hash_nodeIS2_PvEEEEbEERKT_DpOT0_, symObjAddr: 0x11988, symBinAddr: 0x5ADA8, symSize: 0x324 }
  - { offset: 0x2F2D2A, size: 0x8, addend: 0x0, symName: __ZNSt3__16vectorIN14llama_kv_cache9slot_infoENS_9allocatorIS2_EEE24__emplace_back_slow_pathIJRKS2_EEEPS2_DpOT_, symObjAddr: 0x11ED8, symBinAddr: 0x5B0E0, symSize: 0x14C }
  - { offset: 0x2F2EA3, size: 0x8, addend: 0x0, symName: __ZNSt3__16vectorIN14llama_kv_cache9slot_infoENS_9allocatorIS2_EEE20__throw_length_errorB8ne200100Ev, symObjAddr: 0x12024, symBinAddr: 0x5B22C, symSize: 0x14 }
  - { offset: 0x2F2EBB, size: 0x8, addend: 0x0, symName: __ZNSt3__134__uninitialized_allocator_relocateB8ne200100INS_9allocatorIN14llama_kv_cache9slot_infoEEEPS3_EEvRT_T0_S8_S8_, symObjAddr: 0x12038, symBinAddr: 0x5B240, symSize: 0xF8 }
  - { offset: 0x2F2EC6, size: 0x8, addend: 0x0, symName: __ZNSt3__114__split_bufferIN14llama_kv_cache9slot_infoERNS_9allocatorIS2_EEED2Ev, symObjAddr: 0x12130, symBinAddr: 0x5B338, symSize: 0xB8 }
  - { offset: 0x2F39D1, size: 0x8, addend: 0x0, symName: __ZNSt3__112__hash_tableINS_17__hash_value_typeIiNS_6vectorIjNS_9allocatorIjEEEEEENS_22__unordered_map_hasherIiS6_NS_4hashIiEENS_8equal_toIiEELb1EEENS_21__unordered_map_equalIiS6_SB_S9_Lb1EEENS3_IS6_EEE11__do_rehashILb1EEEvm, symObjAddr: 0x12654, symBinAddr: 0x5B85C, symSize: 0x180 }
  - { offset: 0x2F3D5E, size: 0x8, addend: 0x0, symName: __ZNSt3__112__hash_tableINS_17__hash_value_typeIijEENS_22__unordered_map_hasherIiS2_NS_4hashIiEENS_8equal_toIiEELb1EEENS_21__unordered_map_equalIiS2_S7_S5_Lb1EEENS_9allocatorIS2_EEE25__emplace_unique_key_argsIiJRKNS_21piecewise_construct_tENS_5tupleIJRKiEEENSI_IJEEEEEENS_4pairINS_15__hash_iteratorIPNS_11__hash_nodeIS2_PvEEEEbEERKT_DpOT0_, symObjAddr: 0x127D4, symBinAddr: 0x5B9DC, symSize: 0x324 }
  - { offset: 0x2F3D73, size: 0x8, addend: 0x0, symName: __ZNSt3__110unique_ptrINS_11__hash_nodeINS_17__hash_value_typeIiNS_6vectorIjNS_9allocatorIjEEEEEEPvEENS_22__hash_node_destructorINS4_IS9_EEEEED1B8ne200100Ev, symObjAddr: 0x125F4, symBinAddr: 0x5B7FC, symSize: 0x60 }
  - { offset: 0x2F4588, size: 0x8, addend: 0x0, symName: __ZNSt3__112__hash_tableINS_17__hash_value_typeIijEENS_22__unordered_map_hasherIiS2_NS_4hashIiEENS_8equal_toIiEELb1EEENS_21__unordered_map_equalIiS2_S7_S5_Lb1EEENS_9allocatorIS2_EEE11__do_rehashILb1EEEvm, symObjAddr: 0x12AF8, symBinAddr: 0x5BD00, symSize: 0x180 }
  - { offset: 0x2F4915, size: 0x8, addend: 0x0, symName: __ZNSt3__16vectorINS_4pairIjjEENS_9allocatorIS2_EEE20__throw_length_errorB8ne200100Ev, symObjAddr: 0x12C78, symBinAddr: 0x5BE80, symSize: 0x14 }
  - { offset: 0x2F69A1, size: 0x8, addend: 0x0, symName: __ZN24llama_memory_hybrid_iswaC2ERK11llama_model9ggml_typeS3_bbjjjS3_S3_jjbbRKNSt3__18functionIFbiEEES9_, symObjAddr: 0x0, symBinAddr: 0x5C06C, symSize: 0x340 }
  - { offset: 0x3222DF, size: 0x8, addend: 0x0, symName: __ZNSt3__111make_uniqueB8ne200100I32llama_memory_hybrid_iswa_contextJP24llama_memory_hybrid_iswaNS_6vectorIN14llama_kv_cache9slot_infoENS_9allocatorIS6_EEEES9_NS4_I12llama_ubatchNS7_ISA_EEEEELi0EEENS_10unique_ptrIT_NS_14default_deleteISE_EEEEDpOT0_, symObjAddr: 0x968, symBinAddr: 0x5C978, symSize: 0x25C }
  - { offset: 0x32D097, size: 0x8, addend: 0x0, symName: __ZN24llama_memory_hybrid_iswaC1ERK11llama_model9ggml_typeS3_bbjjjS3_S3_jjbbRKNSt3__18functionIFbiEEES9_, symObjAddr: 0x340, symBinAddr: 0x5C3AC, symSize: 0x34 }
  - { offset: 0x32DCBA, size: 0x8, addend: 0x0, symName: __ZN24llama_memory_hybrid_iswaC2ERK11llama_model9ggml_typeS3_bbjjjS3_S3_jjbbRKNSt3__18functionIFbiEEES9_, symObjAddr: 0x0, symBinAddr: 0x5C06C, symSize: 0x340 }
  - { offset: 0x32F1E7, size: 0x8, addend: 0x0, symName: __ZN24llama_memory_hybrid_iswa10init_batchER18llama_batch_allocrjb, symObjAddr: 0x374, symBinAddr: 0x5C3E0, symSize: 0x598 }
  - { offset: 0x33133D, size: 0x8, addend: 0x0, symName: __ZN32llama_memory_hybrid_iswa_contextC2EP24llama_memory_hybrid_iswaNSt3__16vectorIN14llama_kv_cache9slot_infoENS2_9allocatorIS5_EEEES8_NS3_I12llama_ubatchNS6_IS9_EEEE, symObjAddr: 0x15F4, symBinAddr: 0x5D4A8, symSize: 0x5A4 }
  - { offset: 0x332EFB, size: 0x8, addend: 0x0, symName: __ZN24llama_memory_hybrid_iswa9init_fullEv, symObjAddr: 0xD20, symBinAddr: 0x5CBD4, symSize: 0x54 }
  - { offset: 0x332FA1, size: 0x8, addend: 0x0, symName: __ZN32llama_memory_hybrid_iswa_contextC2EP24llama_memory_hybrid_iswa, symObjAddr: 0x138C, symBinAddr: 0x5D240, symSize: 0x120 }
  - { offset: 0x333250, size: 0x8, addend: 0x0, symName: __ZN24llama_memory_hybrid_iswa11init_updateEP13llama_contextb, symObjAddr: 0xD74, symBinAddr: 0x5CC28, symSize: 0x6C }
  - { offset: 0x333333, size: 0x8, addend: 0x0, symName: __ZN32llama_memory_hybrid_iswa_contextC2EP24llama_memory_hybrid_iswaP13llama_contextb, symObjAddr: 0x14B0, symBinAddr: 0x5D364, symSize: 0x140 }
  - { offset: 0x3335D7, size: 0x8, addend: 0x0, symName: __ZNK24llama_memory_hybrid_iswa13get_can_shiftEv, symObjAddr: 0xDE0, symBinAddr: 0x5CC94, symSize: 0x10 }
  - { offset: 0x333602, size: 0x8, addend: 0x0, symName: __ZNK24llama_memory_hybrid_iswa13get_can_shiftEv, symObjAddr: 0xDE0, symBinAddr: 0x5CC94, symSize: 0x10 }
  - { offset: 0x33362A, size: 0x8, addend: 0x0, symName: __ZN24llama_memory_hybrid_iswa5clearEb, symObjAddr: 0xDF0, symBinAddr: 0x5CCA4, symSize: 0x40 }
  - { offset: 0x3336BE, size: 0x8, addend: 0x0, symName: __ZN24llama_memory_hybrid_iswa6seq_rmEiii, symObjAddr: 0xE30, symBinAddr: 0x5CCE4, symSize: 0x6C }
  - { offset: 0x33377E, size: 0x8, addend: 0x0, symName: __ZN24llama_memory_hybrid_iswa6seq_cpEiiii, symObjAddr: 0xE9C, symBinAddr: 0x5CD50, symSize: 0x68 }
  - { offset: 0x333854, size: 0x8, addend: 0x0, symName: __ZN24llama_memory_hybrid_iswa8seq_keepEi, symObjAddr: 0xF04, symBinAddr: 0x5CDB8, symSize: 0x40 }
  - { offset: 0x3338E8, size: 0x8, addend: 0x0, symName: __ZN24llama_memory_hybrid_iswa7seq_addEiiii, symObjAddr: 0xF44, symBinAddr: 0x5CDF8, symSize: 0x68 }
  - { offset: 0x3339BE, size: 0x8, addend: 0x0, symName: __ZN24llama_memory_hybrid_iswa7seq_divEiiii, symObjAddr: 0xFAC, symBinAddr: 0x5CE60, symSize: 0x68 }
  - { offset: 0x333A94, size: 0x8, addend: 0x0, symName: __ZNK24llama_memory_hybrid_iswa11seq_pos_minEi, symObjAddr: 0x1014, symBinAddr: 0x5CEC8, symSize: 0x58 }
  - { offset: 0x333B2F, size: 0x8, addend: 0x0, symName: __ZNK24llama_memory_hybrid_iswa11seq_pos_maxEi, symObjAddr: 0x106C, symBinAddr: 0x5CF20, symSize: 0x58 }
  - { offset: 0x33416C, size: 0x8, addend: 0x0, symName: __ZNK24llama_memory_hybrid_iswa16memory_breakdownEv, symObjAddr: 0x10C4, symBinAddr: 0x5CF78, symSize: 0x1C0 }
  - { offset: 0x3348C0, size: 0x8, addend: 0x0, symName: __ZNK24llama_memory_hybrid_iswa11state_writeER16llama_io_write_iij, symObjAddr: 0x1284, symBinAddr: 0x5D138, symSize: 0x58 }
  - { offset: 0x334980, size: 0x8, addend: 0x0, symName: __ZN24llama_memory_hybrid_iswa10state_readER15llama_io_read_iij, symObjAddr: 0x12DC, symBinAddr: 0x5D190, symSize: 0x58 }
  - { offset: 0x334A56, size: 0x8, addend: 0x0, symName: __ZNK24llama_memory_hybrid_iswa12get_mem_attnEv, symObjAddr: 0x1334, symBinAddr: 0x5D1E8, symSize: 0x8 }
  - { offset: 0x334A7A, size: 0x8, addend: 0x0, symName: __ZNK24llama_memory_hybrid_iswa12get_mem_attnEv, symObjAddr: 0x1334, symBinAddr: 0x5D1E8, symSize: 0x8 }
  - { offset: 0x334AAC, size: 0x8, addend: 0x0, symName: __ZNK24llama_memory_hybrid_iswa12get_mem_recrEv, symObjAddr: 0x133C, symBinAddr: 0x5D1F0, symSize: 0x8 }
  - { offset: 0x334AD0, size: 0x8, addend: 0x0, symName: __ZNK24llama_memory_hybrid_iswa12get_mem_recrEv, symObjAddr: 0x133C, symBinAddr: 0x5D1F0, symSize: 0x8 }
  - { offset: 0x334AEC, size: 0x8, addend: 0x0, symName: __ZN32llama_memory_hybrid_iswa_contextC2E19llama_memory_status, symObjAddr: 0x1344, symBinAddr: 0x5D1F8, symSize: 0x24 }
  - { offset: 0x334B4F, size: 0x8, addend: 0x0, symName: __ZN32llama_memory_hybrid_iswa_contextC1E19llama_memory_status, symObjAddr: 0x1368, symBinAddr: 0x5D21C, symSize: 0x24 }
  - { offset: 0x334B78, size: 0x8, addend: 0x0, symName: __ZN32llama_memory_hybrid_iswa_contextC1E19llama_memory_status, symObjAddr: 0x1368, symBinAddr: 0x5D21C, symSize: 0x24 }
  - { offset: 0x334CCA, size: 0x8, addend: 0x0, symName: __ZN32llama_memory_hybrid_iswa_contextC1EP24llama_memory_hybrid_iswa, symObjAddr: 0x14AC, symBinAddr: 0x5D360, symSize: 0x4 }
  - { offset: 0x334CF4, size: 0x8, addend: 0x0, symName: __ZN32llama_memory_hybrid_iswa_contextC1EP24llama_memory_hybrid_iswa, symObjAddr: 0x14AC, symBinAddr: 0x5D360, symSize: 0x4 }
  - { offset: 0x334D0E, size: 0x8, addend: 0x0, symName: __ZN32llama_memory_hybrid_iswa_contextC1EP24llama_memory_hybrid_iswaP13llama_contextb, symObjAddr: 0x15F0, symBinAddr: 0x5D4A4, symSize: 0x4 }
  - { offset: 0x334D4B, size: 0x8, addend: 0x0, symName: __ZN32llama_memory_hybrid_iswa_contextC1EP24llama_memory_hybrid_iswaP13llama_contextb, symObjAddr: 0x15F0, symBinAddr: 0x5D4A4, symSize: 0x4 }
  - { offset: 0x33526D, size: 0x8, addend: 0x0, symName: __ZN32llama_memory_hybrid_iswa_contextC1EP24llama_memory_hybrid_iswaNSt3__16vectorIN14llama_kv_cache9slot_infoENS2_9allocatorIS5_EEEES8_NS3_I12llama_ubatchNS6_IS9_EEEE, symObjAddr: 0x1B98, symBinAddr: 0x5DA4C, symSize: 0x4 }
  - { offset: 0x3352AF, size: 0x8, addend: 0x0, symName: __ZN32llama_memory_hybrid_iswa_contextC1EP24llama_memory_hybrid_iswaNSt3__16vectorIN14llama_kv_cache9slot_infoENS2_9allocatorIS5_EEEES8_NS3_I12llama_ubatchNS6_IS9_EEEE, symObjAddr: 0x1B98, symBinAddr: 0x5DA4C, symSize: 0x4 }
  - { offset: 0x3352DE, size: 0x8, addend: 0x0, symName: __ZN32llama_memory_hybrid_iswa_context4nextEv, symObjAddr: 0x1B9C, symBinAddr: 0x5DA50, symSize: 0x70 }
  - { offset: 0x335379, size: 0x8, addend: 0x0, symName: __ZN32llama_memory_hybrid_iswa_context5applyEv, symObjAddr: 0x1C0C, symBinAddr: 0x5DAC0, symSize: 0x44 }
  - { offset: 0x335406, size: 0x8, addend: 0x0, symName: __ZNK32llama_memory_hybrid_iswa_context10get_statusEv, symObjAddr: 0x1C50, symBinAddr: 0x5DB04, symSize: 0x8 }
  - { offset: 0x335452, size: 0x8, addend: 0x0, symName: __ZNK32llama_memory_hybrid_iswa_context10get_ubatchEv, symObjAddr: 0x1C58, symBinAddr: 0x5DB0C, symSize: 0x10 }
  - { offset: 0x3354B8, size: 0x8, addend: 0x0, symName: __ZNK32llama_memory_hybrid_iswa_context8get_attnEv, symObjAddr: 0x1C68, symBinAddr: 0x5DB1C, symSize: 0x8 }
  - { offset: 0x3354E4, size: 0x8, addend: 0x0, symName: __ZNK32llama_memory_hybrid_iswa_context8get_attnEv, symObjAddr: 0x1C68, symBinAddr: 0x5DB1C, symSize: 0x8 }
  - { offset: 0x335501, size: 0x8, addend: 0x0, symName: __ZNK32llama_memory_hybrid_iswa_context8get_recrEv, symObjAddr: 0x1C70, symBinAddr: 0x5DB24, symSize: 0x8 }
  - { offset: 0x33552D, size: 0x8, addend: 0x0, symName: __ZNK32llama_memory_hybrid_iswa_context8get_recrEv, symObjAddr: 0x1C70, symBinAddr: 0x5DB24, symSize: 0x8 }
  - { offset: 0x3355ED, size: 0x8, addend: 0x0, symName: __ZN24llama_memory_hybrid_iswaD1Ev, symObjAddr: 0x1C78, symBinAddr: 0x5DB2C, symSize: 0x5C }
  - { offset: 0x335781, size: 0x8, addend: 0x0, symName: __ZN24llama_memory_hybrid_iswaD0Ev, symObjAddr: 0x1CD4, symBinAddr: 0x5DB88, symSize: 0x5C }
  - { offset: 0x33593A, size: 0x8, addend: 0x0, symName: __ZN32llama_memory_hybrid_iswa_contextD1Ev, symObjAddr: 0x1D30, symBinAddr: 0x5DBE4, symSize: 0xD4 }
  - { offset: 0x335CFF, size: 0x8, addend: 0x0, symName: __ZN32llama_memory_hybrid_iswa_contextD0Ev, symObjAddr: 0x1E04, symBinAddr: 0x5DCB8, symSize: 0xD4 }
  - { offset: 0x3360CF, size: 0x8, addend: 0x0, symName: '__ZNSt3__110__function6__funcIZN24llama_memory_hybrid_iswaC1ERK11llama_model9ggml_typeS6_bbjjjS6_S6_jjbbRKNS_8functionIFbiEEESB_E3$_0NS_9allocatorISC_EES8_ED1Ev', symObjAddr: 0x1ED8, symBinAddr: 0x5DD8C, symSize: 0x4 }
  - { offset: 0x3360FB, size: 0x8, addend: 0x0, symName: '__ZNSt3__110__function6__funcIZN24llama_memory_hybrid_iswaC1ERK11llama_model9ggml_typeS6_bbjjjS6_S6_jjbbRKNS_8functionIFbiEEESB_E3$_0NS_9allocatorISC_EES8_ED0Ev', symObjAddr: 0x1EDC, symBinAddr: 0x5DD90, symSize: 0x4 }
  - { offset: 0x3361B2, size: 0x8, addend: 0x0, symName: '__ZNKSt3__110__function6__funcIZN24llama_memory_hybrid_iswaC1ERK11llama_model9ggml_typeS6_bbjjjS6_S6_jjbbRKNS_8functionIFbiEEESB_E3$_0NS_9allocatorISC_EES8_E7__cloneEv', symObjAddr: 0x1EE0, symBinAddr: 0x5DD94, symSize: 0x34 }
  - { offset: 0x336302, size: 0x8, addend: 0x0, symName: '__ZNKSt3__110__function6__funcIZN24llama_memory_hybrid_iswaC1ERK11llama_model9ggml_typeS6_bbjjjS6_S6_jjbbRKNS_8functionIFbiEEESB_E3$_0NS_9allocatorISC_EES8_E7__cloneEPNS0_6__baseIS8_EE', symObjAddr: 0x1F14, symBinAddr: 0x5DDC8, symSize: 0x14 }
  - { offset: 0x33636F, size: 0x8, addend: 0x0, symName: '__ZNSt3__110__function6__funcIZN24llama_memory_hybrid_iswaC1ERK11llama_model9ggml_typeS6_bbjjjS6_S6_jjbbRKNS_8functionIFbiEEESB_E3$_0NS_9allocatorISC_EES8_E7destroyEv', symObjAddr: 0x1F28, symBinAddr: 0x5DDDC, symSize: 0x4 }
  - { offset: 0x3363C4, size: 0x8, addend: 0x0, symName: '__ZNSt3__110__function6__funcIZN24llama_memory_hybrid_iswaC1ERK11llama_model9ggml_typeS6_bbjjjS6_S6_jjbbRKNS_8functionIFbiEEESB_E3$_0NS_9allocatorISC_EES8_E18destroy_deallocateEv', symObjAddr: 0x1F2C, symBinAddr: 0x5DDE0, symSize: 0x4 }
  - { offset: 0x3363F7, size: 0x8, addend: 0x0, symName: '__ZNSt3__110__function6__funcIZN24llama_memory_hybrid_iswaC1ERK11llama_model9ggml_typeS6_bbjjjS6_S6_jjbbRKNS_8functionIFbiEEESB_E3$_0NS_9allocatorISC_EES8_E18destroy_deallocateEv', symObjAddr: 0x1F2C, symBinAddr: 0x5DDE0, symSize: 0x4 }
  - { offset: 0x33641A, size: 0x8, addend: 0x0, symName: '__ZNSt3__110__function6__funcIZN24llama_memory_hybrid_iswaC1ERK11llama_model9ggml_typeS6_bbjjjS6_S6_jjbbRKNS_8functionIFbiEEESB_E3$_0NS_9allocatorISC_EES8_E18destroy_deallocateEv', symObjAddr: 0x1F2C, symBinAddr: 0x5DDE0, symSize: 0x4 }
  - { offset: 0x33644D, size: 0x8, addend: 0x0, symName: '__ZNSt3__110__function6__funcIZN24llama_memory_hybrid_iswaC1ERK11llama_model9ggml_typeS6_bbjjjS6_S6_jjbbRKNS_8functionIFbiEEESB_E3$_0NS_9allocatorISC_EES8_E18destroy_deallocateEv', symObjAddr: 0x1F2C, symBinAddr: 0x5DDE0, symSize: 0x4 }
  - { offset: 0x3364EF, size: 0x8, addend: 0x0, symName: '__ZNSt3__110__function6__funcIZN24llama_memory_hybrid_iswaC1ERK11llama_model9ggml_typeS6_bbjjjS6_S6_jjbbRKNS_8functionIFbiEEESB_E3$_0NS_9allocatorISC_EES8_EclEOi', symObjAddr: 0x1F30, symBinAddr: 0x5DDE4, symSize: 0x24 }
  - { offset: 0x3365F3, size: 0x8, addend: 0x0, symName: '__ZNKSt3__110__function6__funcIZN24llama_memory_hybrid_iswaC1ERK11llama_model9ggml_typeS6_bbjjjS6_S6_jjbbRKNS_8functionIFbiEEESB_E3$_0NS_9allocatorISC_EES8_E6targetERKSt9type_info', symObjAddr: 0x1F54, symBinAddr: 0x5DE08, symSize: 0x64 }
  - { offset: 0x3366BE, size: 0x8, addend: 0x0, symName: '__ZNKSt3__110__function6__funcIZN24llama_memory_hybrid_iswaC1ERK11llama_model9ggml_typeS6_bbjjjS6_S6_jjbbRKNS_8functionIFbiEEESB_E3$_0NS_9allocatorISC_EES8_E11target_typeEv', symObjAddr: 0x1FB8, symBinAddr: 0x5DE6C, symSize: 0xC }
  - { offset: 0x3366E1, size: 0x8, addend: 0x0, symName: '__ZNSt3__110__function6__funcIZN24llama_memory_hybrid_iswaC1ERK11llama_model9ggml_typeS6_bbjjjS6_S6_jjbbRKNS_8functionIFbiEEESB_E3$_1NS_9allocatorISC_EES8_ED1Ev', symObjAddr: 0x1FEC, symBinAddr: 0x5DE78, symSize: 0x4 }
  - { offset: 0x33670D, size: 0x8, addend: 0x0, symName: '__ZNSt3__110__function6__funcIZN24llama_memory_hybrid_iswaC1ERK11llama_model9ggml_typeS6_bbjjjS6_S6_jjbbRKNS_8functionIFbiEEESB_E3$_1NS_9allocatorISC_EES8_ED0Ev', symObjAddr: 0x1FF0, symBinAddr: 0x5DE7C, symSize: 0x4 }
  - { offset: 0x3367C4, size: 0x8, addend: 0x0, symName: '__ZNKSt3__110__function6__funcIZN24llama_memory_hybrid_iswaC1ERK11llama_model9ggml_typeS6_bbjjjS6_S6_jjbbRKNS_8functionIFbiEEESB_E3$_1NS_9allocatorISC_EES8_E7__cloneEv', symObjAddr: 0x1FF4, symBinAddr: 0x5DE80, symSize: 0x34 }
  - { offset: 0x336914, size: 0x8, addend: 0x0, symName: '__ZNKSt3__110__function6__funcIZN24llama_memory_hybrid_iswaC1ERK11llama_model9ggml_typeS6_bbjjjS6_S6_jjbbRKNS_8functionIFbiEEESB_E3$_1NS_9allocatorISC_EES8_E7__cloneEPNS0_6__baseIS8_EE', symObjAddr: 0x2028, symBinAddr: 0x5DEB4, symSize: 0x14 }
  - { offset: 0x336981, size: 0x8, addend: 0x0, symName: '__ZNSt3__110__function6__funcIZN24llama_memory_hybrid_iswaC1ERK11llama_model9ggml_typeS6_bbjjjS6_S6_jjbbRKNS_8functionIFbiEEESB_E3$_1NS_9allocatorISC_EES8_E7destroyEv', symObjAddr: 0x203C, symBinAddr: 0x5DEC8, symSize: 0x4 }
  - { offset: 0x3369D6, size: 0x8, addend: 0x0, symName: '__ZNSt3__110__function6__funcIZN24llama_memory_hybrid_iswaC1ERK11llama_model9ggml_typeS6_bbjjjS6_S6_jjbbRKNS_8functionIFbiEEESB_E3$_1NS_9allocatorISC_EES8_E18destroy_deallocateEv', symObjAddr: 0x2040, symBinAddr: 0x5DECC, symSize: 0x4 }
  - { offset: 0x336A09, size: 0x8, addend: 0x0, symName: '__ZNSt3__110__function6__funcIZN24llama_memory_hybrid_iswaC1ERK11llama_model9ggml_typeS6_bbjjjS6_S6_jjbbRKNS_8functionIFbiEEESB_E3$_1NS_9allocatorISC_EES8_E18destroy_deallocateEv', symObjAddr: 0x2040, symBinAddr: 0x5DECC, symSize: 0x4 }
  - { offset: 0x336A2C, size: 0x8, addend: 0x0, symName: '__ZNSt3__110__function6__funcIZN24llama_memory_hybrid_iswaC1ERK11llama_model9ggml_typeS6_bbjjjS6_S6_jjbbRKNS_8functionIFbiEEESB_E3$_1NS_9allocatorISC_EES8_E18destroy_deallocateEv', symObjAddr: 0x2040, symBinAddr: 0x5DECC, symSize: 0x4 }
  - { offset: 0x336A5F, size: 0x8, addend: 0x0, symName: '__ZNSt3__110__function6__funcIZN24llama_memory_hybrid_iswaC1ERK11llama_model9ggml_typeS6_bbjjjS6_S6_jjbbRKNS_8functionIFbiEEESB_E3$_1NS_9allocatorISC_EES8_E18destroy_deallocateEv', symObjAddr: 0x2040, symBinAddr: 0x5DECC, symSize: 0x4 }
  - { offset: 0x336B01, size: 0x8, addend: 0x0, symName: '__ZNSt3__110__function6__funcIZN24llama_memory_hybrid_iswaC1ERK11llama_model9ggml_typeS6_bbjjjS6_S6_jjbbRKNS_8functionIFbiEEESB_E3$_1NS_9allocatorISC_EES8_EclEOi', symObjAddr: 0x2044, symBinAddr: 0x5DED0, symSize: 0x10 }
  - { offset: 0x336BAA, size: 0x8, addend: 0x0, symName: '__ZNKSt3__110__function6__funcIZN24llama_memory_hybrid_iswaC1ERK11llama_model9ggml_typeS6_bbjjjS6_S6_jjbbRKNS_8functionIFbiEEESB_E3$_1NS_9allocatorISC_EES8_E6targetERKSt9type_info', symObjAddr: 0x2054, symBinAddr: 0x5DEE0, symSize: 0x64 }
  - { offset: 0x336C5E, size: 0x8, addend: 0x0, symName: '__ZNKSt3__110__function6__funcIZN24llama_memory_hybrid_iswaC1ERK11llama_model9ggml_typeS6_bbjjjS6_S6_jjbbRKNS_8functionIFbiEEESB_E3$_1NS_9allocatorISC_EES8_E11target_typeEv', symObjAddr: 0x20B8, symBinAddr: 0x5DF44, symSize: 0xC }
  - { offset: 0x338E52, size: 0x8, addend: 0x0, symName: __ZN19llama_memory_hybridC2ERK11llama_model9ggml_typeS3_bjjj14llama_swa_typeS3_S3_jjbbRKNSt3__18functionIFbiEEESA_, symObjAddr: 0x0, symBinAddr: 0x5DF50, symSize: 0x340 }
  - { offset: 0x3645FF, size: 0x8, addend: 0x0, symName: __ZNSt3__111make_uniqueB8ne200100I27llama_memory_hybrid_contextJP19llama_memory_hybridNS_6vectorIN14llama_kv_cache9slot_infoENS_9allocatorIS6_EEEENS4_I12llama_ubatchNS7_ISA_EEEEELi0EEENS_10unique_ptrIT_NS_14default_deleteISE_EEEEDpOT0_, symObjAddr: 0x96C, symBinAddr: 0x5E860, symSize: 0x1B0 }
  - { offset: 0x36E8D5, size: 0x8, addend: 0x0, symName: __ZN19llama_memory_hybridC1ERK11llama_model9ggml_typeS3_bjjj14llama_swa_typeS3_S3_jjbbRKNSt3__18functionIFbiEEESA_, symObjAddr: 0x340, symBinAddr: 0x5E290, symSize: 0x34 }
  - { offset: 0x36F4F3, size: 0x8, addend: 0x0, symName: __ZN19llama_memory_hybridC2ERK11llama_model9ggml_typeS3_bjjj14llama_swa_typeS3_S3_jjbbRKNSt3__18functionIFbiEEESA_, symObjAddr: 0x0, symBinAddr: 0x5DF50, symSize: 0x340 }
  - { offset: 0x370A20, size: 0x8, addend: 0x0, symName: __ZN19llama_memory_hybrid10init_batchER18llama_batch_allocrjb, symObjAddr: 0x374, symBinAddr: 0x5E2C4, symSize: 0x59C }
  - { offset: 0x37269E, size: 0x8, addend: 0x0, symName: __ZN27llama_memory_hybrid_contextC2EP19llama_memory_hybridNSt3__16vectorIN14llama_kv_cache9slot_infoENS2_9allocatorIS5_EEEENS3_I12llama_ubatchNS6_IS9_EEEE, symObjAddr: 0x1554, symBinAddr: 0x5F2EC, symSize: 0x4E8 }
  - { offset: 0x373CA8, size: 0x8, addend: 0x0, symName: __ZN19llama_memory_hybrid9init_fullEv, symObjAddr: 0xC78, symBinAddr: 0x5EA10, symSize: 0x54 }
  - { offset: 0x373D4E, size: 0x8, addend: 0x0, symName: __ZN27llama_memory_hybrid_contextC2EP19llama_memory_hybrid, symObjAddr: 0x12EC, symBinAddr: 0x5F084, symSize: 0x120 }
  - { offset: 0x373FFD, size: 0x8, addend: 0x0, symName: __ZN19llama_memory_hybrid11init_updateEP13llama_contextb, symObjAddr: 0xCCC, symBinAddr: 0x5EA64, symSize: 0x6C }
  - { offset: 0x3740E0, size: 0x8, addend: 0x0, symName: __ZN27llama_memory_hybrid_contextC2EP19llama_memory_hybridP13llama_contextb, symObjAddr: 0x1410, symBinAddr: 0x5F1A8, symSize: 0x140 }
  - { offset: 0x374384, size: 0x8, addend: 0x0, symName: __ZNK19llama_memory_hybrid13get_can_shiftEv, symObjAddr: 0xD38, symBinAddr: 0x5EAD0, symSize: 0x10 }
  - { offset: 0x3743AF, size: 0x8, addend: 0x0, symName: __ZNK19llama_memory_hybrid13get_can_shiftEv, symObjAddr: 0xD38, symBinAddr: 0x5EAD0, symSize: 0x10 }
  - { offset: 0x3743D7, size: 0x8, addend: 0x0, symName: __ZN19llama_memory_hybrid5clearEb, symObjAddr: 0xD48, symBinAddr: 0x5EAE0, symSize: 0x40 }
  - { offset: 0x37446B, size: 0x8, addend: 0x0, symName: __ZN19llama_memory_hybrid6seq_rmEiii, symObjAddr: 0xD88, symBinAddr: 0x5EB20, symSize: 0x6C }
  - { offset: 0x37452B, size: 0x8, addend: 0x0, symName: __ZN19llama_memory_hybrid6seq_cpEiiii, symObjAddr: 0xDF4, symBinAddr: 0x5EB8C, symSize: 0x68 }
  - { offset: 0x374601, size: 0x8, addend: 0x0, symName: __ZN19llama_memory_hybrid8seq_keepEi, symObjAddr: 0xE5C, symBinAddr: 0x5EBF4, symSize: 0x40 }
  - { offset: 0x374695, size: 0x8, addend: 0x0, symName: __ZN19llama_memory_hybrid7seq_addEiiii, symObjAddr: 0xE9C, symBinAddr: 0x5EC34, symSize: 0x68 }
  - { offset: 0x37476B, size: 0x8, addend: 0x0, symName: __ZN19llama_memory_hybrid7seq_divEiiii, symObjAddr: 0xF04, symBinAddr: 0x5EC9C, symSize: 0x68 }
  - { offset: 0x374841, size: 0x8, addend: 0x0, symName: __ZNK19llama_memory_hybrid11seq_pos_minEi, symObjAddr: 0xF6C, symBinAddr: 0x5ED04, symSize: 0x58 }
  - { offset: 0x3748DC, size: 0x8, addend: 0x0, symName: __ZNK19llama_memory_hybrid11seq_pos_maxEi, symObjAddr: 0xFC4, symBinAddr: 0x5ED5C, symSize: 0x58 }
  - { offset: 0x374F19, size: 0x8, addend: 0x0, symName: __ZNK19llama_memory_hybrid16memory_breakdownEv, symObjAddr: 0x101C, symBinAddr: 0x5EDB4, symSize: 0x1C0 }
  - { offset: 0x37566D, size: 0x8, addend: 0x0, symName: __ZNK19llama_memory_hybrid11state_writeER16llama_io_write_iij, symObjAddr: 0x11DC, symBinAddr: 0x5EF74, symSize: 0x5C }
  - { offset: 0x375717, size: 0x8, addend: 0x0, symName: __ZN19llama_memory_hybrid10state_readER15llama_io_read_iij, symObjAddr: 0x1238, symBinAddr: 0x5EFD0, symSize: 0x5C }
  - { offset: 0x3757D7, size: 0x8, addend: 0x0, symName: __ZNK19llama_memory_hybrid12get_mem_attnEv, symObjAddr: 0x1294, symBinAddr: 0x5F02C, symSize: 0x8 }
  - { offset: 0x3757FB, size: 0x8, addend: 0x0, symName: __ZNK19llama_memory_hybrid12get_mem_attnEv, symObjAddr: 0x1294, symBinAddr: 0x5F02C, symSize: 0x8 }
  - { offset: 0x37582D, size: 0x8, addend: 0x0, symName: __ZNK19llama_memory_hybrid12get_mem_recrEv, symObjAddr: 0x129C, symBinAddr: 0x5F034, symSize: 0x8 }
  - { offset: 0x375851, size: 0x8, addend: 0x0, symName: __ZNK19llama_memory_hybrid12get_mem_recrEv, symObjAddr: 0x129C, symBinAddr: 0x5F034, symSize: 0x8 }
  - { offset: 0x37586D, size: 0x8, addend: 0x0, symName: __ZN27llama_memory_hybrid_contextC2E19llama_memory_status, symObjAddr: 0x12A4, symBinAddr: 0x5F03C, symSize: 0x24 }
  - { offset: 0x3758D0, size: 0x8, addend: 0x0, symName: __ZN27llama_memory_hybrid_contextC1E19llama_memory_status, symObjAddr: 0x12C8, symBinAddr: 0x5F060, symSize: 0x24 }
  - { offset: 0x3758F9, size: 0x8, addend: 0x0, symName: __ZN27llama_memory_hybrid_contextC1E19llama_memory_status, symObjAddr: 0x12C8, symBinAddr: 0x5F060, symSize: 0x24 }
  - { offset: 0x375A4B, size: 0x8, addend: 0x0, symName: __ZN27llama_memory_hybrid_contextC1EP19llama_memory_hybrid, symObjAddr: 0x140C, symBinAddr: 0x5F1A4, symSize: 0x4 }
  - { offset: 0x375A75, size: 0x8, addend: 0x0, symName: __ZN27llama_memory_hybrid_contextC1EP19llama_memory_hybrid, symObjAddr: 0x140C, symBinAddr: 0x5F1A4, symSize: 0x4 }
  - { offset: 0x375A8F, size: 0x8, addend: 0x0, symName: __ZN27llama_memory_hybrid_contextC1EP19llama_memory_hybridP13llama_contextb, symObjAddr: 0x1550, symBinAddr: 0x5F2E8, symSize: 0x4 }
  - { offset: 0x375ACC, size: 0x8, addend: 0x0, symName: __ZN27llama_memory_hybrid_contextC1EP19llama_memory_hybridP13llama_contextb, symObjAddr: 0x1550, symBinAddr: 0x5F2E8, symSize: 0x4 }
  - { offset: 0x375FEE, size: 0x8, addend: 0x0, symName: __ZN27llama_memory_hybrid_contextC1EP19llama_memory_hybridNSt3__16vectorIN14llama_kv_cache9slot_infoENS2_9allocatorIS5_EEEENS3_I12llama_ubatchNS6_IS9_EEEE, symObjAddr: 0x1A3C, symBinAddr: 0x5F7D4, symSize: 0x4 }
  - { offset: 0x376028, size: 0x8, addend: 0x0, symName: __ZN27llama_memory_hybrid_contextC1EP19llama_memory_hybridNSt3__16vectorIN14llama_kv_cache9slot_infoENS2_9allocatorIS5_EEEENS3_I12llama_ubatchNS6_IS9_EEEE, symObjAddr: 0x1A3C, symBinAddr: 0x5F7D4, symSize: 0x4 }
  - { offset: 0x376050, size: 0x8, addend: 0x0, symName: __ZN27llama_memory_hybrid_context4nextEv, symObjAddr: 0x1A40, symBinAddr: 0x5F7D8, symSize: 0x70 }
  - { offset: 0x3760EB, size: 0x8, addend: 0x0, symName: __ZN27llama_memory_hybrid_context5applyEv, symObjAddr: 0x1AB0, symBinAddr: 0x5F848, symSize: 0x44 }
  - { offset: 0x376178, size: 0x8, addend: 0x0, symName: __ZNK27llama_memory_hybrid_context10get_statusEv, symObjAddr: 0x1AF4, symBinAddr: 0x5F88C, symSize: 0x8 }
  - { offset: 0x3761C3, size: 0x8, addend: 0x0, symName: __ZNK27llama_memory_hybrid_context10get_ubatchEv, symObjAddr: 0x1AFC, symBinAddr: 0x5F894, symSize: 0x10 }
  - { offset: 0x376229, size: 0x8, addend: 0x0, symName: __ZNK27llama_memory_hybrid_context8get_attnEv, symObjAddr: 0x1B0C, symBinAddr: 0x5F8A4, symSize: 0x8 }
  - { offset: 0x376255, size: 0x8, addend: 0x0, symName: __ZNK27llama_memory_hybrid_context8get_attnEv, symObjAddr: 0x1B0C, symBinAddr: 0x5F8A4, symSize: 0x8 }
  - { offset: 0x376272, size: 0x8, addend: 0x0, symName: __ZNK27llama_memory_hybrid_context8get_recrEv, symObjAddr: 0x1B14, symBinAddr: 0x5F8AC, symSize: 0x8 }
  - { offset: 0x37629E, size: 0x8, addend: 0x0, symName: __ZNK27llama_memory_hybrid_context8get_recrEv, symObjAddr: 0x1B14, symBinAddr: 0x5F8AC, symSize: 0x8 }
  - { offset: 0x37635E, size: 0x8, addend: 0x0, symName: __ZN19llama_memory_hybridD1Ev, symObjAddr: 0x1B1C, symBinAddr: 0x5F8B4, symSize: 0x5C }
  - { offset: 0x3764F2, size: 0x8, addend: 0x0, symName: __ZN19llama_memory_hybridD0Ev, symObjAddr: 0x1B78, symBinAddr: 0x5F910, symSize: 0x5C }
  - { offset: 0x3766AB, size: 0x8, addend: 0x0, symName: __ZN27llama_memory_hybrid_contextD1Ev, symObjAddr: 0x1BD4, symBinAddr: 0x5F96C, symSize: 0xD4 }
  - { offset: 0x376A70, size: 0x8, addend: 0x0, symName: __ZN27llama_memory_hybrid_contextD0Ev, symObjAddr: 0x1CA8, symBinAddr: 0x5FA40, symSize: 0xD4 }
  - { offset: 0x376E40, size: 0x8, addend: 0x0, symName: '__ZNSt3__110__function6__funcIZN19llama_memory_hybridC1ERK11llama_model9ggml_typeS6_bjjj14llama_swa_typeS6_S6_jjbbRKNS_8functionIFbiEEESC_E3$_0NS_9allocatorISD_EES9_ED1Ev', symObjAddr: 0x1D7C, symBinAddr: 0x5FB14, symSize: 0x4 }
  - { offset: 0x376E6C, size: 0x8, addend: 0x0, symName: '__ZNSt3__110__function6__funcIZN19llama_memory_hybridC1ERK11llama_model9ggml_typeS6_bjjj14llama_swa_typeS6_S6_jjbbRKNS_8functionIFbiEEESC_E3$_0NS_9allocatorISD_EES9_ED0Ev', symObjAddr: 0x1D80, symBinAddr: 0x5FB18, symSize: 0x4 }
  - { offset: 0x376F23, size: 0x8, addend: 0x0, symName: '__ZNKSt3__110__function6__funcIZN19llama_memory_hybridC1ERK11llama_model9ggml_typeS6_bjjj14llama_swa_typeS6_S6_jjbbRKNS_8functionIFbiEEESC_E3$_0NS_9allocatorISD_EES9_E7__cloneEv', symObjAddr: 0x1D84, symBinAddr: 0x5FB1C, symSize: 0x34 }
  - { offset: 0x377073, size: 0x8, addend: 0x0, symName: '__ZNKSt3__110__function6__funcIZN19llama_memory_hybridC1ERK11llama_model9ggml_typeS6_bjjj14llama_swa_typeS6_S6_jjbbRKNS_8functionIFbiEEESC_E3$_0NS_9allocatorISD_EES9_E7__cloneEPNS0_6__baseIS9_EE', symObjAddr: 0x1DB8, symBinAddr: 0x5FB50, symSize: 0x14 }
  - { offset: 0x3770E0, size: 0x8, addend: 0x0, symName: '__ZNSt3__110__function6__funcIZN19llama_memory_hybridC1ERK11llama_model9ggml_typeS6_bjjj14llama_swa_typeS6_S6_jjbbRKNS_8functionIFbiEEESC_E3$_0NS_9allocatorISD_EES9_E7destroyEv', symObjAddr: 0x1DCC, symBinAddr: 0x5FB64, symSize: 0x4 }
  - { offset: 0x377135, size: 0x8, addend: 0x0, symName: '__ZNSt3__110__function6__funcIZN19llama_memory_hybridC1ERK11llama_model9ggml_typeS6_bjjj14llama_swa_typeS6_S6_jjbbRKNS_8functionIFbiEEESC_E3$_0NS_9allocatorISD_EES9_E18destroy_deallocateEv', symObjAddr: 0x1DD0, symBinAddr: 0x5FB68, symSize: 0x4 }
  - { offset: 0x377168, size: 0x8, addend: 0x0, symName: '__ZNSt3__110__function6__funcIZN19llama_memory_hybridC1ERK11llama_model9ggml_typeS6_bjjj14llama_swa_typeS6_S6_jjbbRKNS_8functionIFbiEEESC_E3$_0NS_9allocatorISD_EES9_E18destroy_deallocateEv', symObjAddr: 0x1DD0, symBinAddr: 0x5FB68, symSize: 0x4 }
  - { offset: 0x37718B, size: 0x8, addend: 0x0, symName: '__ZNSt3__110__function6__funcIZN19llama_memory_hybridC1ERK11llama_model9ggml_typeS6_bjjj14llama_swa_typeS6_S6_jjbbRKNS_8functionIFbiEEESC_E3$_0NS_9allocatorISD_EES9_E18destroy_deallocateEv', symObjAddr: 0x1DD0, symBinAddr: 0x5FB68, symSize: 0x4 }
  - { offset: 0x3771BE, size: 0x8, addend: 0x0, symName: '__ZNSt3__110__function6__funcIZN19llama_memory_hybridC1ERK11llama_model9ggml_typeS6_bjjj14llama_swa_typeS6_S6_jjbbRKNS_8functionIFbiEEESC_E3$_0NS_9allocatorISD_EES9_E18destroy_deallocateEv', symObjAddr: 0x1DD0, symBinAddr: 0x5FB68, symSize: 0x4 }
  - { offset: 0x377260, size: 0x8, addend: 0x0, symName: '__ZNSt3__110__function6__funcIZN19llama_memory_hybridC1ERK11llama_model9ggml_typeS6_bjjj14llama_swa_typeS6_S6_jjbbRKNS_8functionIFbiEEESC_E3$_0NS_9allocatorISD_EES9_EclEOi', symObjAddr: 0x1DD4, symBinAddr: 0x5FB6C, symSize: 0x24 }
  - { offset: 0x377364, size: 0x8, addend: 0x0, symName: '__ZNKSt3__110__function6__funcIZN19llama_memory_hybridC1ERK11llama_model9ggml_typeS6_bjjj14llama_swa_typeS6_S6_jjbbRKNS_8functionIFbiEEESC_E3$_0NS_9allocatorISD_EES9_E6targetERKSt9type_info', symObjAddr: 0x1DF8, symBinAddr: 0x5FB90, symSize: 0x64 }
  - { offset: 0x37742F, size: 0x8, addend: 0x0, symName: '__ZNKSt3__110__function6__funcIZN19llama_memory_hybridC1ERK11llama_model9ggml_typeS6_bjjj14llama_swa_typeS6_S6_jjbbRKNS_8functionIFbiEEESC_E3$_0NS_9allocatorISD_EES9_E11target_typeEv', symObjAddr: 0x1E5C, symBinAddr: 0x5FBF4, symSize: 0xC }
  - { offset: 0x377452, size: 0x8, addend: 0x0, symName: '__ZNSt3__110__function6__funcIZN19llama_memory_hybridC1ERK11llama_model9ggml_typeS6_bjjj14llama_swa_typeS6_S6_jjbbRKNS_8functionIFbiEEESC_E3$_1NS_9allocatorISD_EES9_ED1Ev', symObjAddr: 0x1E90, symBinAddr: 0x5FC00, symSize: 0x4 }
  - { offset: 0x37747E, size: 0x8, addend: 0x0, symName: '__ZNSt3__110__function6__funcIZN19llama_memory_hybridC1ERK11llama_model9ggml_typeS6_bjjj14llama_swa_typeS6_S6_jjbbRKNS_8functionIFbiEEESC_E3$_1NS_9allocatorISD_EES9_ED0Ev', symObjAddr: 0x1E94, symBinAddr: 0x5FC04, symSize: 0x4 }
  - { offset: 0x377535, size: 0x8, addend: 0x0, symName: '__ZNKSt3__110__function6__funcIZN19llama_memory_hybridC1ERK11llama_model9ggml_typeS6_bjjj14llama_swa_typeS6_S6_jjbbRKNS_8functionIFbiEEESC_E3$_1NS_9allocatorISD_EES9_E7__cloneEv', symObjAddr: 0x1E98, symBinAddr: 0x5FC08, symSize: 0x34 }
  - { offset: 0x377685, size: 0x8, addend: 0x0, symName: '__ZNKSt3__110__function6__funcIZN19llama_memory_hybridC1ERK11llama_model9ggml_typeS6_bjjj14llama_swa_typeS6_S6_jjbbRKNS_8functionIFbiEEESC_E3$_1NS_9allocatorISD_EES9_E7__cloneEPNS0_6__baseIS9_EE', symObjAddr: 0x1ECC, symBinAddr: 0x5FC3C, symSize: 0x14 }
  - { offset: 0x3776F2, size: 0x8, addend: 0x0, symName: '__ZNSt3__110__function6__funcIZN19llama_memory_hybridC1ERK11llama_model9ggml_typeS6_bjjj14llama_swa_typeS6_S6_jjbbRKNS_8functionIFbiEEESC_E3$_1NS_9allocatorISD_EES9_E7destroyEv', symObjAddr: 0x1EE0, symBinAddr: 0x5FC50, symSize: 0x4 }
  - { offset: 0x377747, size: 0x8, addend: 0x0, symName: '__ZNSt3__110__function6__funcIZN19llama_memory_hybridC1ERK11llama_model9ggml_typeS6_bjjj14llama_swa_typeS6_S6_jjbbRKNS_8functionIFbiEEESC_E3$_1NS_9allocatorISD_EES9_E18destroy_deallocateEv', symObjAddr: 0x1EE4, symBinAddr: 0x5FC54, symSize: 0x4 }
  - { offset: 0x37777A, size: 0x8, addend: 0x0, symName: '__ZNSt3__110__function6__funcIZN19llama_memory_hybridC1ERK11llama_model9ggml_typeS6_bjjj14llama_swa_typeS6_S6_jjbbRKNS_8functionIFbiEEESC_E3$_1NS_9allocatorISD_EES9_E18destroy_deallocateEv', symObjAddr: 0x1EE4, symBinAddr: 0x5FC54, symSize: 0x4 }
  - { offset: 0x37779D, size: 0x8, addend: 0x0, symName: '__ZNSt3__110__function6__funcIZN19llama_memory_hybridC1ERK11llama_model9ggml_typeS6_bjjj14llama_swa_typeS6_S6_jjbbRKNS_8functionIFbiEEESC_E3$_1NS_9allocatorISD_EES9_E18destroy_deallocateEv', symObjAddr: 0x1EE4, symBinAddr: 0x5FC54, symSize: 0x4 }
  - { offset: 0x3777D0, size: 0x8, addend: 0x0, symName: '__ZNSt3__110__function6__funcIZN19llama_memory_hybridC1ERK11llama_model9ggml_typeS6_bjjj14llama_swa_typeS6_S6_jjbbRKNS_8functionIFbiEEESC_E3$_1NS_9allocatorISD_EES9_E18destroy_deallocateEv', symObjAddr: 0x1EE4, symBinAddr: 0x5FC54, symSize: 0x4 }
  - { offset: 0x377872, size: 0x8, addend: 0x0, symName: '__ZNSt3__110__function6__funcIZN19llama_memory_hybridC1ERK11llama_model9ggml_typeS6_bjjj14llama_swa_typeS6_S6_jjbbRKNS_8functionIFbiEEESC_E3$_1NS_9allocatorISD_EES9_EclEOi', symObjAddr: 0x1EE8, symBinAddr: 0x5FC58, symSize: 0x10 }
  - { offset: 0x37791B, size: 0x8, addend: 0x0, symName: '__ZNKSt3__110__function6__funcIZN19llama_memory_hybridC1ERK11llama_model9ggml_typeS6_bjjj14llama_swa_typeS6_S6_jjbbRKNS_8functionIFbiEEESC_E3$_1NS_9allocatorISD_EES9_E6targetERKSt9type_info', symObjAddr: 0x1EF8, symBinAddr: 0x5FC68, symSize: 0x64 }
  - { offset: 0x3779CF, size: 0x8, addend: 0x0, symName: '__ZNKSt3__110__function6__funcIZN19llama_memory_hybridC1ERK11llama_model9ggml_typeS6_bjjj14llama_swa_typeS6_S6_jjbbRKNS_8functionIFbiEEESC_E3$_1NS_9allocatorISD_EES9_E11target_typeEv', symObjAddr: 0x1F5C, symBinAddr: 0x5FCCC, symSize: 0xC }
  - { offset: 0x3A2478, size: 0x8, addend: 0x0, symName: __ZN22llama_memory_recurrentC2ERK11llama_model9ggml_typeS3_bjjRKNSt3__18functionIFbiEEE, symObjAddr: 0x0, symBinAddr: 0x5FCD8, symSize: 0x77C }
  - { offset: 0x3A4F8B, size: 0x8, addend: 0x0, symName: __ZNSt3__16vectorIN22llama_memory_recurrent8mem_cellENS_9allocatorIS2_EEE8__appendEm, symObjAddr: 0x4650, symBinAddr: 0x63E14, symSize: 0x220 }
  - { offset: 0x3A5787, size: 0x8, addend: 0x0, symName: __ZNSt3__16vectorIN22llama_memory_recurrent8mem_cellENS_9allocatorIS2_EEE20__throw_length_errorB8ne200100Ev, symObjAddr: 0x4870, symBinAddr: 0x64034, symSize: 0x14 }
  - { offset: 0x3A5792, size: 0x8, addend: 0x0, symName: __ZNSt3__16vectorIP11ggml_tensorNS_9allocatorIS2_EEE8__appendEm, symObjAddr: 0x49AC, symBinAddr: 0x640FC, symSize: 0x120 }
  - { offset: 0x3A5CC0, size: 0x8, addend: 0x0, symName: __ZNSt3__16__treeINS_12__value_typeIP24ggml_backend_buffer_typeNS_10unique_ptrI12ggml_context20ggml_context_deleterEEEENS_19__map_value_compareIS3_S8_ZN22llama_memory_recurrentC1ERK11llama_model9ggml_typeSE_bjjRKNS_8functionIFbiEEEE28ggml_backend_buft_comparatorLb1EEENS_9allocatorIS8_EEE7destroyEPNS_11__tree_nodeIS8_PvEE, symObjAddr: 0x4958, symBinAddr: 0x640A8, symSize: 0x54 }
  - { offset: 0x3A608A, size: 0x8, addend: 0x0, symName: __ZNSt3__16vectorIN22llama_memory_recurrent8mem_cellENS_9allocatorIS2_EEED1B8ne200100Ev, symObjAddr: 0x8B8, symBinAddr: 0x6050C, symSize: 0x68 }
  - { offset: 0x3A62EE, size: 0x8, addend: 0x0, symName: __ZNK22llama_memory_recurrent12size_r_bytesEv, symObjAddr: 0x77C, symBinAddr: 0x60454, symSize: 0x5C }
  - { offset: 0x3A639B, size: 0x8, addend: 0x0, symName: __ZNK22llama_memory_recurrent12size_s_bytesEv, symObjAddr: 0x7D8, symBinAddr: 0x604B0, symSize: 0x5C }
  - { offset: 0x3A690C, size: 0x8, addend: 0x0, symName: __ZN22llama_memory_recurrentC1ERK11llama_model9ggml_typeS3_bjjRKNSt3__18functionIFbiEEE, symObjAddr: 0x920, symBinAddr: 0x60574, symSize: 0x4 }
  - { offset: 0x3A69A0, size: 0x8, addend: 0x0, symName: __ZN22llama_memory_recurrentC1ERK11llama_model9ggml_typeS3_bjjRKNSt3__18functionIFbiEEE, symObjAddr: 0x920, symBinAddr: 0x60574, symSize: 0x4 }
  - { offset: 0x3A6A92, size: 0x8, addend: 0x0, symName: __ZN22llama_memory_recurrent5clearEb, symObjAddr: 0x924, symBinAddr: 0x60578, symSize: 0xCC }
  - { offset: 0x3A6F50, size: 0x8, addend: 0x0, symName: __ZN22llama_memory_recurrent6seq_rmEiii, symObjAddr: 0x9F0, symBinAddr: 0x60644, symSize: 0x2F0 }
  - { offset: 0x3A770A, size: 0x8, addend: 0x0, symName: __ZN22llama_memory_recurrent6seq_cpEiiii, symObjAddr: 0xCE0, symBinAddr: 0x60934, symSize: 0x1E8 }
  - { offset: 0x3A7D03, size: 0x8, addend: 0x0, symName: __ZN22llama_memory_recurrent8seq_keepEi, symObjAddr: 0xEC8, symBinAddr: 0x60B1C, symSize: 0x1B8 }
  - { offset: 0x3A814F, size: 0x8, addend: 0x0, symName: __ZN22llama_memory_recurrent7seq_addEiiii, symObjAddr: 0x1080, symBinAddr: 0x60CD4, symSize: 0xA0 }
  - { offset: 0x3A832A, size: 0x8, addend: 0x0, symName: __ZN22llama_memory_recurrent7seq_divEiiii, symObjAddr: 0x1120, symBinAddr: 0x60D74, symSize: 0xA8 }
  - { offset: 0x3A8570, size: 0x8, addend: 0x0, symName: __ZNK22llama_memory_recurrent11seq_pos_minEi, symObjAddr: 0x11C8, symBinAddr: 0x60E1C, symSize: 0x8C }
  - { offset: 0x3A8748, size: 0x8, addend: 0x0, symName: __ZNK22llama_memory_recurrent11seq_pos_maxEi, symObjAddr: 0x1254, symBinAddr: 0x60EA8, symSize: 0x80 }
  - { offset: 0x3A8ED4, size: 0x8, addend: 0x0, symName: __ZNK22llama_memory_recurrent16memory_breakdownEv, symObjAddr: 0x12D4, symBinAddr: 0x60F28, symSize: 0x160 }
  - { offset: 0x3A9B0B, size: 0x8, addend: 0x0, symName: __ZN22llama_memory_recurrent10init_batchER18llama_batch_allocrjb, symObjAddr: 0x1434, symBinAddr: 0x61088, symSize: 0x454 }
  - { offset: 0x3AAA6E, size: 0x8, addend: 0x0, symName: __ZN22llama_memory_recurrent7prepareERKNSt3__16vectorI12llama_ubatchNS0_9allocatorIS2_EEEE, symObjAddr: 0x18E4, symBinAddr: 0x614DC, symSize: 0x128 }
  - { offset: 0x3AB132, size: 0x8, addend: 0x0, symName: __ZNSt3__16vectorIN22llama_memory_recurrent8mem_cellENS_9allocatorIS2_EEE16__init_with_sizeB8ne200100IPS2_S7_EEvT_T0_m, symObjAddr: 0x50C0, symBinAddr: 0x6421C, symSize: 0x150 }
  - { offset: 0x3AB675, size: 0x8, addend: 0x0, symName: __ZN22llama_memory_recurrent9find_slotERK12llama_ubatch, symObjAddr: 0x1B44, symBinAddr: 0x616A4, symSize: 0xDD0 }
  - { offset: 0x3ACFE0, size: 0x8, addend: 0x0, symName: __ZN22llama_memory_recurrent9init_fullEv, symObjAddr: 0x1AA4, symBinAddr: 0x61604, symSize: 0x54 }
  - { offset: 0x3AD0DE, size: 0x8, addend: 0x0, symName: __ZN22llama_memory_recurrent11init_updateEP13llama_contextb, symObjAddr: 0x1AF8, symBinAddr: 0x61658, symSize: 0x4C }
  - { offset: 0x3AD5A9, size: 0x8, addend: 0x0, symName: __ZNK22llama_memory_recurrent13get_can_shiftEv, symObjAddr: 0x2914, symBinAddr: 0x62474, symSize: 0x8 }
  - { offset: 0x3AD5CF, size: 0x8, addend: 0x0, symName: __ZNK22llama_memory_recurrent10total_sizeEv, symObjAddr: 0x291C, symBinAddr: 0x6247C, symSize: 0x64 }
  - { offset: 0x3ADDEB, size: 0x8, addend: 0x0, symName: __ZNK22llama_memory_recurrent11state_writeER16llama_io_write_iij, symObjAddr: 0x2980, symBinAddr: 0x624E0, symSize: 0x4AC }
  - { offset: 0x3AEBA8, size: 0x8, addend: 0x0, symName: __ZNK22llama_memory_recurrent16state_write_metaER16llama_io_write_iRKNSt3__16vectorINS2_4pairIjjEENS2_9allocatorIS5_EEEEi, symObjAddr: 0x2E2C, symBinAddr: 0x6298C, symSize: 0x15C }
  - { offset: 0x3AEECC, size: 0x8, addend: 0x0, symName: __ZNK22llama_memory_recurrent16state_write_dataER16llama_io_write_iRKNSt3__16vectorINS2_4pairIjjEENS2_9allocatorIS5_EEEE, symObjAddr: 0x2F88, symBinAddr: 0x62AE8, symSize: 0x22C }
  - { offset: 0x3AF42C, size: 0x8, addend: 0x0, symName: __ZN22llama_memory_recurrent10state_readER15llama_io_read_iij, symObjAddr: 0x31B4, symBinAddr: 0x62D14, symSize: 0xF4 }
  - { offset: 0x3AF52B, size: 0x8, addend: 0x0, symName: __ZN22llama_memory_recurrent15state_read_metaER15llama_io_read_iji, symObjAddr: 0x32A8, symBinAddr: 0x62E08, symSize: 0x590 }
  - { offset: 0x3AFE74, size: 0x8, addend: 0x0, symName: __ZN22llama_memory_recurrent15state_read_dataER15llama_io_read_ij, symObjAddr: 0x3838, symBinAddr: 0x63398, symSize: 0x540 }
  - { offset: 0x3B0FA6, size: 0x8, addend: 0x0, symName: __ZN30llama_memory_recurrent_contextC2E19llama_memory_status, symObjAddr: 0x3D78, symBinAddr: 0x638D8, symSize: 0x24 }
  - { offset: 0x3B100A, size: 0x8, addend: 0x0, symName: __ZN30llama_memory_recurrent_contextC1E19llama_memory_status, symObjAddr: 0x3D9C, symBinAddr: 0x638FC, symSize: 0x24 }
  - { offset: 0x3B1033, size: 0x8, addend: 0x0, symName: __ZN30llama_memory_recurrent_contextC1E19llama_memory_status, symObjAddr: 0x3D9C, symBinAddr: 0x638FC, symSize: 0x24 }
  - { offset: 0x3B1092, size: 0x8, addend: 0x0, symName: __ZN30llama_memory_recurrent_contextC2EP22llama_memory_recurrent, symObjAddr: 0x3DC0, symBinAddr: 0x63920, symSize: 0x2C }
  - { offset: 0x3B10F6, size: 0x8, addend: 0x0, symName: __ZN30llama_memory_recurrent_contextC1EP22llama_memory_recurrent, symObjAddr: 0x3DEC, symBinAddr: 0x6394C, symSize: 0x2C }
  - { offset: 0x3B111F, size: 0x8, addend: 0x0, symName: __ZN30llama_memory_recurrent_contextC1EP22llama_memory_recurrent, symObjAddr: 0x3DEC, symBinAddr: 0x6394C, symSize: 0x2C }
  - { offset: 0x3B117E, size: 0x8, addend: 0x0, symName: __ZN30llama_memory_recurrent_contextC2EP22llama_memory_recurrentNSt3__16vectorI12llama_ubatchNS2_9allocatorIS4_EEEE, symObjAddr: 0x3E18, symBinAddr: 0x63978, symSize: 0x40 }
  - { offset: 0x3B11F9, size: 0x8, addend: 0x0, symName: __ZN30llama_memory_recurrent_contextC1EP22llama_memory_recurrentNSt3__16vectorI12llama_ubatchNS2_9allocatorIS4_EEEE, symObjAddr: 0x3E58, symBinAddr: 0x639B8, symSize: 0x40 }
  - { offset: 0x3B122A, size: 0x8, addend: 0x0, symName: __ZN30llama_memory_recurrent_contextC1EP22llama_memory_recurrentNSt3__16vectorI12llama_ubatchNS2_9allocatorIS4_EEEE, symObjAddr: 0x3E58, symBinAddr: 0x639B8, symSize: 0x40 }
  - { offset: 0x3B12A0, size: 0x8, addend: 0x0, symName: __ZN30llama_memory_recurrent_contextD2Ev, symObjAddr: 0x3E98, symBinAddr: 0x639F8, symSize: 0xA4 }
  - { offset: 0x3B1511, size: 0x8, addend: 0x0, symName: __ZN30llama_memory_recurrent_contextD1Ev, symObjAddr: 0x3F3C, symBinAddr: 0x63A9C, symSize: 0xA4 }
  - { offset: 0x3B179F, size: 0x8, addend: 0x0, symName: __ZN30llama_memory_recurrent_contextD0Ev, symObjAddr: 0x3FE0, symBinAddr: 0x63B40, symSize: 0xA4 }
  - { offset: 0x3B1A39, size: 0x8, addend: 0x0, symName: __ZN30llama_memory_recurrent_context4nextEv, symObjAddr: 0x4084, symBinAddr: 0x63BE4, symSize: 0x38 }
  - { offset: 0x3B1ABA, size: 0x8, addend: 0x0, symName: __ZN30llama_memory_recurrent_context5applyEv, symObjAddr: 0x40BC, symBinAddr: 0x63C1C, symSize: 0x34 }
  - { offset: 0x3B1AE6, size: 0x8, addend: 0x0, symName: __ZN30llama_memory_recurrent_context5applyEv, symObjAddr: 0x40BC, symBinAddr: 0x63C1C, symSize: 0x34 }
  - { offset: 0x3B1B2E, size: 0x8, addend: 0x0, symName: __ZNK30llama_memory_recurrent_context10get_statusEv, symObjAddr: 0x40F0, symBinAddr: 0x63C50, symSize: 0x8 }
  - { offset: 0x3B1B7A, size: 0x8, addend: 0x0, symName: __ZNK30llama_memory_recurrent_context10get_ubatchEv, symObjAddr: 0x40F8, symBinAddr: 0x63C58, symSize: 0x10 }
  - { offset: 0x3B1BCA, size: 0x8, addend: 0x0, symName: __ZNK30llama_memory_recurrent_context8get_n_rsEv, symObjAddr: 0x4108, symBinAddr: 0x63C68, symSize: 0x20 }
  - { offset: 0x3B1BF4, size: 0x8, addend: 0x0, symName: __ZNK30llama_memory_recurrent_context8get_headEv, symObjAddr: 0x4128, symBinAddr: 0x63C88, symSize: 0x1C }
  - { offset: 0x3B1C1E, size: 0x8, addend: 0x0, symName: __ZNK30llama_memory_recurrent_context8get_rs_zEv, symObjAddr: 0x4144, symBinAddr: 0x63CA4, symSize: 0x1C }
  - { offset: 0x3B1C48, size: 0x8, addend: 0x0, symName: __ZNK30llama_memory_recurrent_context8get_sizeEv, symObjAddr: 0x4160, symBinAddr: 0x63CC0, symSize: 0xC }
  - { offset: 0x3B1C72, size: 0x8, addend: 0x0, symName: __ZNK30llama_memory_recurrent_context7get_r_lEi, symObjAddr: 0x416C, symBinAddr: 0x63CCC, symSize: 0x10 }
  - { offset: 0x3B1CC9, size: 0x8, addend: 0x0, symName: __ZNK30llama_memory_recurrent_context7get_s_lEi, symObjAddr: 0x417C, symBinAddr: 0x63CDC, symSize: 0x10 }
  - { offset: 0x3B1D21, size: 0x8, addend: 0x0, symName: __ZNK30llama_memory_recurrent_context6s_copyEi, symObjAddr: 0x418C, symBinAddr: 0x63CEC, symSize: 0x20 }
  - { offset: 0x3B1D78, size: 0x8, addend: 0x0, symName: __ZN22llama_memory_recurrentD1Ev, symObjAddr: 0x41AC, symBinAddr: 0x63D0C, symSize: 0x4 }
  - { offset: 0x3B1D9B, size: 0x8, addend: 0x0, symName: __ZN22llama_memory_recurrentD1Ev, symObjAddr: 0x41AC, symBinAddr: 0x63D0C, symSize: 0x4 }
  - { offset: 0x3B1DAE, size: 0x8, addend: 0x0, symName: __ZN22llama_memory_recurrentD2Ev, symObjAddr: 0x4560, symBinAddr: 0x63D24, symSize: 0xF0 }
  - { offset: 0x3B2546, size: 0x8, addend: 0x0, symName: __ZN22llama_memory_recurrentD0Ev, symObjAddr: 0x41B0, symBinAddr: 0x63D10, symSize: 0x14 }
  - { offset: 0x3B349F, size: 0x8, addend: 0x0, symName: __ZNSt3__16vectorIN22llama_memory_recurrent8mem_cellENS_9allocatorIS2_EEE20__throw_length_errorB8ne200100Ev, symObjAddr: 0x4870, symBinAddr: 0x64034, symSize: 0x14 }
  - { offset: 0x3B35B9, size: 0x8, addend: 0x0, symName: __ZNSt3__128__exception_guard_exceptionsINS_29_AllocatorDestroyRangeReverseINS_9allocatorIN22llama_memory_recurrent8mem_cellEEEPS4_EEED1B8ne200100Ev, symObjAddr: 0x48F8, symBinAddr: 0x64048, symSize: 0x60 }
  - { offset: 0x3B3D25, size: 0x8, addend: 0x0, symName: __ZNSt3__16vectorIN22llama_memory_recurrent8mem_cellENS_9allocatorIS2_EEE16__init_with_sizeB8ne200100IPS2_S7_EEvT_T0_m, symObjAddr: 0x50C0, symBinAddr: 0x6421C, symSize: 0x150 }
  - { offset: 0x3B4005, size: 0x8, addend: 0x0, symName: __ZNSt3__13setIiNS_4lessIiEENS_9allocatorIiEEE6insertB8ne200100INS_21__tree_const_iteratorIiPNS_11__tree_nodeIiPvEElEEEEvT_SD_, symObjAddr: 0x5288, symBinAddr: 0x643E4, symSize: 0xF4 }
  - { offset: 0x3B404B, size: 0x8, addend: 0x0, symName: __ZNSt3__13setIiNS_4lessIiEENS_9allocatorIiEEE6insertB8ne200100INS_21__tree_const_iteratorIiPNS_11__tree_nodeIiPvEElEEEEvT_SD_, symObjAddr: 0x5288, symBinAddr: 0x643E4, symSize: 0xF4 }
  - { offset: 0x3B432D, size: 0x8, addend: 0x0, symName: __ZNSt3__128__exception_guard_exceptionsINS_6vectorIN22llama_memory_recurrent8mem_cellENS_9allocatorIS3_EEE16__destroy_vectorEED1B8ne200100Ev, symObjAddr: 0x5210, symBinAddr: 0x6436C, symSize: 0x78 }
  - { offset: 0x3B435A, size: 0x8, addend: 0x0, symName: __ZNSt3__128__exception_guard_exceptionsINS_6vectorIN22llama_memory_recurrent8mem_cellENS_9allocatorIS3_EEE16__destroy_vectorEED1B8ne200100Ev, symObjAddr: 0x5210, symBinAddr: 0x6436C, symSize: 0x78 }
  - { offset: 0x3B46BD, size: 0x8, addend: 0x0, symName: __ZNSt3__16__treeIiNS_4lessIiEENS_9allocatorIiEEE12__find_equalIiEERPNS_16__tree_node_baseIPvEENS_21__tree_const_iteratorIiPNS_11__tree_nodeIiS8_EElEERPNS_15__tree_end_nodeISA_EESB_RKT_, symObjAddr: 0x537C, symBinAddr: 0x644D8, symSize: 0x1B0 }
  - { offset: 0x3B4720, size: 0x8, addend: 0x0, symName: __ZNSt3__16__treeIiNS_4lessIiEENS_9allocatorIiEEE12__find_equalIiEERPNS_16__tree_node_baseIPvEENS_21__tree_const_iteratorIiPNS_11__tree_nodeIiS8_EElEERPNS_15__tree_end_nodeISA_EESB_RKT_, symObjAddr: 0x537C, symBinAddr: 0x644D8, symSize: 0x1B0 }
  - { offset: 0x3B473C, size: 0x8, addend: 0x0, symName: __ZNSt3__16__treeIiNS_4lessIiEENS_9allocatorIiEEE12__find_equalIiEERPNS_16__tree_node_baseIPvEENS_21__tree_const_iteratorIiPNS_11__tree_nodeIiS8_EElEERPNS_15__tree_end_nodeISA_EESB_RKT_, symObjAddr: 0x537C, symBinAddr: 0x644D8, symSize: 0x1B0 }
  - { offset: 0x3B68FB, size: 0x8, addend: 0x0, symName: __Z27llama_memory_status_combine19llama_memory_statusS_, symObjAddr: 0x0, symBinAddr: 0x64688, symSize: 0x38 }
  - { offset: 0x3B6910, size: 0x8, addend: 0x0, symName: __Z27llama_memory_status_combine19llama_memory_statusS_, symObjAddr: 0x0, symBinAddr: 0x64688, symSize: 0x38 }
  - { offset: 0x3B695C, size: 0x8, addend: 0x0, symName: __Z27llama_memory_status_is_fail19llama_memory_status, symObjAddr: 0x38, symBinAddr: 0x646C0, symSize: 0x10 }
  - { offset: 0x3B94EB, size: 0x8, addend: 0x0, symName: __ZN10llama_mmap9SUPPORTEDE, symObjAddr: 0x1B20, symBinAddr: 0x2980CA, symSize: 0x0 }
  - { offset: 0x3BEBFC, size: 0x8, addend: 0x0, symName: __ZN11llama_mlock9SUPPORTEDE, symObjAddr: 0x1B21, symBinAddr: 0x2980CB, symSize: 0x0 }
  - { offset: 0x3BEE44, size: 0x8, addend: 0x0, symName: __ZN10llama_fileC2EPKcS1_b, symObjAddr: 0x0, symBinAddr: 0x646D0, symSize: 0x70 }
  - { offset: 0x3BEF2D, size: 0x8, addend: 0x0, symName: __ZN10llama_file4implC2EPKcS2_b, symObjAddr: 0x1508, symBinAddr: 0x65B2C, symSize: 0xF0 }
  - { offset: 0x3BF33C, size: 0x8, addend: 0x0, symName: __ZN10llama_fileC1EPKcS1_b, symObjAddr: 0x70, symBinAddr: 0x64740, symSize: 0x70 }
  - { offset: 0x3BF60A, size: 0x8, addend: 0x0, symName: __ZN10llama_fileD2Ev, symObjAddr: 0xE0, symBinAddr: 0x647B0, symSize: 0x6C }
  - { offset: 0x3BF828, size: 0x8, addend: 0x0, symName: __ZN10llama_fileD1Ev, symObjAddr: 0x14C, symBinAddr: 0x6481C, symSize: 0x6C }
  - { offset: 0x3BFA40, size: 0x8, addend: 0x0, symName: __ZNK10llama_file4tellEv, symObjAddr: 0x1B8, symBinAddr: 0x64888, symSize: 0x8 }
  - { offset: 0x3BFA6C, size: 0x8, addend: 0x0, symName: __ZNK10llama_file4tellEv, symObjAddr: 0x1B8, symBinAddr: 0x64888, symSize: 0x8 }
  - { offset: 0x3BFA95, size: 0x8, addend: 0x0, symName: __ZNK10llama_file4impl4tellEv, symObjAddr: 0x1C0, symBinAddr: 0x64890, symSize: 0x158 }
  - { offset: 0x3BFD2D, size: 0x8, addend: 0x0, symName: __ZNK10llama_file4sizeEv, symObjAddr: 0x318, symBinAddr: 0x649E8, symSize: 0xC }
  - { offset: 0x3BFD51, size: 0x8, addend: 0x0, symName: __ZNK10llama_file4sizeEv, symObjAddr: 0x318, symBinAddr: 0x649E8, symSize: 0xC }
  - { offset: 0x3BFD88, size: 0x8, addend: 0x0, symName: __ZNK10llama_file14read_alignmentEv, symObjAddr: 0x324, symBinAddr: 0x649F4, symSize: 0xC }
  - { offset: 0x3BFDB4, size: 0x8, addend: 0x0, symName: __ZNK10llama_file14read_alignmentEv, symObjAddr: 0x324, symBinAddr: 0x649F4, symSize: 0xC }
  - { offset: 0x3BFE02, size: 0x8, addend: 0x0, symName: __ZNK10llama_file13has_direct_ioEv, symObjAddr: 0x330, symBinAddr: 0x64A00, symSize: 0x28 }
  - { offset: 0x3BFE2E, size: 0x8, addend: 0x0, symName: __ZNK10llama_file13has_direct_ioEv, symObjAddr: 0x330, symBinAddr: 0x64A00, symSize: 0x28 }
  - { offset: 0x3BFE68, size: 0x8, addend: 0x0, symName: __ZNK10llama_file7file_idEv, symObjAddr: 0x358, symBinAddr: 0x64A28, symSize: 0x1C }
  - { offset: 0x3BFE8C, size: 0x8, addend: 0x0, symName: __ZNK10llama_file7file_idEv, symObjAddr: 0x358, symBinAddr: 0x64A28, symSize: 0x1C }
  - { offset: 0x3BFEC8, size: 0x8, addend: 0x0, symName: __ZNK10llama_file4seekEmi, symObjAddr: 0x374, symBinAddr: 0x64A44, symSize: 0x8 }
  - { offset: 0x3BFF10, size: 0x8, addend: 0x0, symName: __ZNK10llama_file4seekEmi, symObjAddr: 0x374, symBinAddr: 0x64A44, symSize: 0x8 }
  - { offset: 0x3BFF48, size: 0x8, addend: 0x0, symName: __ZNK10llama_file4impl4seekEmi, symObjAddr: 0x37C, symBinAddr: 0x64A4C, symSize: 0xEC }
  - { offset: 0x3C0139, size: 0x8, addend: 0x0, symName: __ZN10llama_file8read_rawEPvm, symObjAddr: 0x468, symBinAddr: 0x64B38, symSize: 0x24 }
  - { offset: 0x3C0181, size: 0x8, addend: 0x0, symName: __ZN10llama_file8read_rawEPvm, symObjAddr: 0x468, symBinAddr: 0x64B38, symSize: 0x24 }
  - { offset: 0x3C01F2, size: 0x8, addend: 0x0, symName: __ZN10llama_file4impl18read_aligned_chunkEPvm, symObjAddr: 0x11D4, symBinAddr: 0x658A4, symSize: 0x15C }
  - { offset: 0x3C054E, size: 0x8, addend: 0x0, symName: __ZN10llama_file4impl15read_raw_unsafeEPvm, symObjAddr: 0x494, symBinAddr: 0x64B64, symSize: 0x378 }
  - { offset: 0x3C0926, size: 0x8, addend: 0x0, symName: __ZN10llama_file15read_raw_unsafeEPvm, symObjAddr: 0x48C, symBinAddr: 0x64B5C, symSize: 0x8 }
  - { offset: 0x3C096E, size: 0x8, addend: 0x0, symName: __ZN10llama_file15read_raw_unsafeEPvm, symObjAddr: 0x48C, symBinAddr: 0x64B5C, symSize: 0x8 }
  - { offset: 0x3C09BD, size: 0x8, addend: 0x0, symName: __ZN10llama_file4impl7init_fpEPKc, symObjAddr: 0x1340, symBinAddr: 0x65A00, symSize: 0x118 }
  - { offset: 0x3C0D2D, size: 0x8, addend: 0x0, symName: __ZN10llama_file8read_u32Ev, symObjAddr: 0x80C, symBinAddr: 0x64EDC, symSize: 0x60 }
  - { offset: 0x3C0E0A, size: 0x8, addend: 0x0, symName: __ZNK10llama_file9write_rawEPKvm, symObjAddr: 0x86C, symBinAddr: 0x64F3C, symSize: 0x8 }
  - { offset: 0x3C0E52, size: 0x8, addend: 0x0, symName: __ZNK10llama_file9write_rawEPKvm, symObjAddr: 0x86C, symBinAddr: 0x64F3C, symSize: 0x8 }
  - { offset: 0x3C0E8A, size: 0x8, addend: 0x0, symName: __ZNK10llama_file4impl9write_rawEPKvm, symObjAddr: 0x874, symBinAddr: 0x64F44, symSize: 0xF0 }
  - { offset: 0x3C108B, size: 0x8, addend: 0x0, symName: __ZNK10llama_file9write_u32Ej, symObjAddr: 0x964, symBinAddr: 0x65034, symSize: 0x2C }
  - { offset: 0x3C11D8, size: 0x8, addend: 0x0, symName: __ZN10llama_mmapC2EP10llama_filemb, symObjAddr: 0x990, symBinAddr: 0x65060, symSize: 0x70 }
  - { offset: 0x3C12C1, size: 0x8, addend: 0x0, symName: __ZN10llama_mmap4implC2EP10llama_filemb, symObjAddr: 0x160C, symBinAddr: 0x65C1C, symSize: 0x298 }
  - { offset: 0x3C1BED, size: 0x8, addend: 0x0, symName: __ZN10llama_mmapC1EP10llama_filemb, symObjAddr: 0xA00, symBinAddr: 0x650D0, symSize: 0x70 }
  - { offset: 0x3C1DCC, size: 0x8, addend: 0x0, symName: __ZN10llama_mmapD2Ev, symObjAddr: 0xA70, symBinAddr: 0x65140, symSize: 0x3C }
  - { offset: 0x3C1EAD, size: 0x8, addend: 0x0, symName: __ZN10llama_mmap4implD2Ev, symObjAddr: 0x18A4, symBinAddr: 0x65EB4, symSize: 0xA4 }
  - { offset: 0x3C20CE, size: 0x8, addend: 0x0, symName: __ZN10llama_mmapD1Ev, symObjAddr: 0xAAC, symBinAddr: 0x6517C, symSize: 0x3C }
  - { offset: 0x3C21F6, size: 0x8, addend: 0x0, symName: __ZNK10llama_mmap4sizeEv, symObjAddr: 0xAE8, symBinAddr: 0x651B8, symSize: 0xC }
  - { offset: 0x3C2222, size: 0x8, addend: 0x0, symName: __ZNK10llama_mmap4sizeEv, symObjAddr: 0xAE8, symBinAddr: 0x651B8, symSize: 0xC }
  - { offset: 0x3C223D, size: 0x8, addend: 0x0, symName: __ZNK10llama_mmap4addrEv, symObjAddr: 0xAF4, symBinAddr: 0x651C4, symSize: 0xC }
  - { offset: 0x3C2269, size: 0x8, addend: 0x0, symName: __ZNK10llama_mmap4addrEv, symObjAddr: 0xAF4, symBinAddr: 0x651C4, symSize: 0xC }
  - { offset: 0x3C2284, size: 0x8, addend: 0x0, symName: __ZN10llama_mmap14unmap_fragmentEmm, symObjAddr: 0xB00, symBinAddr: 0x651D0, symSize: 0x8 }
  - { offset: 0x3C22CC, size: 0x8, addend: 0x0, symName: __ZN10llama_mmap14unmap_fragmentEmm, symObjAddr: 0xB00, symBinAddr: 0x651D0, symSize: 0x8 }
  - { offset: 0x3C2304, size: 0x8, addend: 0x0, symName: __ZN10llama_mmap4impl14unmap_fragmentEmm, symObjAddr: 0xB08, symBinAddr: 0x651D8, symSize: 0x4AC }
  - { offset: 0x3C3BFF, size: 0x8, addend: 0x0, symName: __ZNSt3__16vectorINS_4pairImmEENS_9allocatorIS2_EEE20__throw_length_errorB8ne200100Ev, symObjAddr: 0x1458, symBinAddr: 0x65B18, symSize: 0x14 }
  - { offset: 0x3C3CD6, size: 0x8, addend: 0x0, symName: __ZN11llama_mlockC2Ev, symObjAddr: 0xFB4, symBinAddr: 0x65684, symSize: 0x34 }
  - { offset: 0x3C3DB2, size: 0x8, addend: 0x0, symName: __ZN11llama_mlockC1Ev, symObjAddr: 0xFE8, symBinAddr: 0x656B8, symSize: 0x34 }
  - { offset: 0x3C3F1D, size: 0x8, addend: 0x0, symName: __ZN11llama_mlockD2Ev, symObjAddr: 0x101C, symBinAddr: 0x656EC, symSize: 0x34 }
  - { offset: 0x3C3F41, size: 0x8, addend: 0x0, symName: __ZN11llama_mlockD2Ev, symObjAddr: 0x101C, symBinAddr: 0x656EC, symSize: 0x34 }
  - { offset: 0x3C3F5F, size: 0x8, addend: 0x0, symName: __ZN11llama_mlockD2Ev, symObjAddr: 0x101C, symBinAddr: 0x656EC, symSize: 0x34 }
  - { offset: 0x3C3F7D, size: 0x8, addend: 0x0, symName: __ZN11llama_mlockD2Ev, symObjAddr: 0x101C, symBinAddr: 0x656EC, symSize: 0x34 }
  - { offset: 0x3C3FF1, size: 0x8, addend: 0x0, symName: __ZN11llama_mlockD1Ev, symObjAddr: 0x1050, symBinAddr: 0x65720, symSize: 0x34 }
  - { offset: 0x3C4021, size: 0x8, addend: 0x0, symName: __ZN11llama_mlockD1Ev, symObjAddr: 0x1050, symBinAddr: 0x65720, symSize: 0x34 }
  - { offset: 0x3C403F, size: 0x8, addend: 0x0, symName: __ZN11llama_mlockD1Ev, symObjAddr: 0x1050, symBinAddr: 0x65720, symSize: 0x34 }
  - { offset: 0x3C405D, size: 0x8, addend: 0x0, symName: __ZN11llama_mlockD1Ev, symObjAddr: 0x1050, symBinAddr: 0x65720, symSize: 0x34 }
  - { offset: 0x3C407B, size: 0x8, addend: 0x0, symName: __ZN11llama_mlockD1Ev, symObjAddr: 0x1050, symBinAddr: 0x65720, symSize: 0x34 }
  - { offset: 0x3C4111, size: 0x8, addend: 0x0, symName: __ZN11llama_mlock4initEPv, symObjAddr: 0x1084, symBinAddr: 0x65754, symSize: 0x4C }
  - { offset: 0x3C414D, size: 0x8, addend: 0x0, symName: __ZN11llama_mlock4initEPv, symObjAddr: 0x1084, symBinAddr: 0x65754, symSize: 0x4C }
  - { offset: 0x3C4181, size: 0x8, addend: 0x0, symName: __ZN11llama_mlock7grow_toEm, symObjAddr: 0x10D0, symBinAddr: 0x657A0, symSize: 0x8 }
  - { offset: 0x3C4194, size: 0x8, addend: 0x0, symName: __ZN11llama_mlock7grow_toEm, symObjAddr: 0x10D0, symBinAddr: 0x657A0, symSize: 0x8 }
  - { offset: 0x3C41CE, size: 0x8, addend: 0x0, symName: __ZN11llama_mlock7grow_toEm, symObjAddr: 0x10D0, symBinAddr: 0x657A0, symSize: 0x8 }
  - { offset: 0x3C41FF, size: 0x8, addend: 0x0, symName: __ZN11llama_mlock4impl7grow_toEm, symObjAddr: 0x10D8, symBinAddr: 0x657A8, symSize: 0xF4 }
  - { offset: 0x3C42F7, size: 0x8, addend: 0x0, symName: __Z14llama_path_maxv, symObjAddr: 0x11CC, symBinAddr: 0x6589C, symSize: 0x8 }
  - { offset: 0x3C4374, size: 0x8, addend: 0x0, symName: __Z14llama_path_maxv, symObjAddr: 0x11CC, symBinAddr: 0x6589C, symSize: 0x8 }
  - { offset: 0x3C473B, size: 0x8, addend: 0x0, symName: __ZN10llama_mmap4implC2EP10llama_filemb, symObjAddr: 0x160C, symBinAddr: 0x65C1C, symSize: 0x298 }
  - { offset: 0x3E6894, size: 0x8, addend: 0x0, symName: __ZNSt3__120__throw_future_errorB8ne200100ENS_11future_errcE, symObjAddr: 0xBBF8, symBinAddr: 0x7104C, symSize: 0x5C }
  - { offset: 0x3E7999, size: 0x8, addend: 0x0, symName: '__ZNSt3__114__thread_proxyB8ne200100INS_5tupleIJNS_10unique_ptrINS_15__thread_structENS_14default_deleteIS3_EEEEMNS_19__async_assoc_stateINS_4pairIP11ggml_tensorbEENS_12__async_funcIZN18llama_model_loader13load_all_dataEP12ggml_contextRNS_13unordered_mapIjP19ggml_backend_bufferNS_4hashIjEENS_8equal_toIjEENS_9allocatorINS8_IKjSI_EEEEEEPNS_6vectorINS2_I11llama_mlockNS4_ISU_EEEENSN_ISW_EEEEPFbfPvES10_E3$_0JEEEEEFvvEPS15_EEEEES10_S10_', symObjAddr: 0xBC54, symBinAddr: 0x710A8, symSize: 0x8C }
  - { offset: 0x3E7D65, size: 0x8, addend: 0x0, symName: '__ZNSt3__114__thread_proxyB8ne200100INS_5tupleIJNS_10unique_ptrINS_15__thread_structENS_14default_deleteIS3_EEEEMNS_19__async_assoc_stateINS_4pairIP11ggml_tensorbEENS_12__async_funcIZN18llama_model_loader13load_all_dataEP12ggml_contextRNS_13unordered_mapIjP19ggml_backend_bufferNS_4hashIjEENS_8equal_toIjEENS_9allocatorINS8_IKjSI_EEEEEEPNS_6vectorINS2_I11llama_mlockNS4_ISU_EEEENSN_ISW_EEEEPFbfPvES10_E3$_1JEEEEEFvvEPS15_EEEEES10_S10_', symObjAddr: 0xBF60, symBinAddr: 0x713B4, symSize: 0x8C }
  - { offset: 0x3ECA08, size: 0x8, addend: 0x0, symName: __ZN18llama_model_loader13load_all_dataEP12ggml_contextRNSt3__113unordered_mapIjP19ggml_backend_bufferNS2_4hashIjEENS2_8equal_toIjEENS2_9allocatorINS2_4pairIKjS5_EEEEEEPNS2_6vectorINS2_10unique_ptrI11llama_mlockNS2_14default_deleteISJ_EEEENSA_ISM_EEEEPFbfPvESQ_, symObjAddr: 0x5E48, symBinAddr: 0x6BC58, symSize: 0x1A38 }
  - { offset: 0x3F1131, size: 0x8, addend: 0x0, symName: __Z23llama_file_version_name10llama_fver, symObjAddr: 0x0, symBinAddr: 0x65F58, symSize: 0x28 }
  - { offset: 0x3F121E, size: 0x8, addend: 0x0, symName: __ZN18llama_model_loader9get_arr_nIjEENSt3__19enable_ifIXsr3std11is_integralIT_EE5valueEbE4typeE6llm_kvRS3_b, symObjAddr: 0x28, symBinAddr: 0x65F80, symSize: 0xA0 }
  - { offset: 0x3F14AA, size: 0x8, addend: 0x0, symName: __ZN18llama_model_loader9get_arr_nIjEENSt3__19enable_ifIXsr3std11is_integralIT_EE5valueEbE4typeERKNS1_12basic_stringIcNS1_11char_traitsIcEENS1_9allocatorIcEEEERS3_b, symObjAddr: 0xC8, symBinAddr: 0x66020, symSize: 0x120 }
  - { offset: 0x3F181B, size: 0x8, addend: 0x0, symName: __ZN8GGUFMeta3GKVINS_9ArrayInfoEE6get_kvEPK12gguf_contexti, symObjAddr: 0x8278, symBinAddr: 0x6DF3C, symSize: 0x150 }
  - { offset: 0x3F1A57, size: 0x8, addend: 0x0, symName: __ZN18llama_model_loader7get_arrINSt3__16vectorINS1_12basic_stringIcNS1_11char_traitsIcEENS1_9allocatorIcEEEENS6_IS8_EEEEEEb6llm_kvRT_b, symObjAddr: 0x1E8, symBinAddr: 0x66140, symSize: 0xA0 }
  - { offset: 0x3F1CE3, size: 0x8, addend: 0x0, symName: __ZN18llama_model_loader7get_arrINSt3__112basic_stringIcNS1_11char_traitsIcEENS1_9allocatorIcEEEEEEbRKS7_RNS1_6vectorIT_NS5_ISB_EEEEb, symObjAddr: 0x288, symBinAddr: 0x661E0, symSize: 0x3A0 }
  - { offset: 0x3F320E, size: 0x8, addend: 0x0, symName: __ZNSt3__112__hash_tableINS_17__hash_value_typeINS_12basic_stringIcNS_11char_traitsIcEENS_9allocatorIcEEEE23llama_model_kv_overrideEENS_22__unordered_map_hasherIS7_S9_NS_4hashIS7_EENS_8equal_toIS7_EELb1EEENS_21__unordered_map_equalIS7_S9_SE_SC_Lb1EEENS5_IS9_EEE4findIS7_EENS_15__hash_iteratorIPNS_11__hash_nodeIS9_PvEEEERKT_, symObjAddr: 0x85A4, symBinAddr: 0x6E08C, symSize: 0x1B4 }
  - { offset: 0x3F324E, size: 0x8, addend: 0x0, symName: __ZN18llama_model_loader7get_keyIbEEb6llm_kvRT_b, symObjAddr: 0x628, symBinAddr: 0x66580, symSize: 0xA0 }
  - { offset: 0x3F34DA, size: 0x8, addend: 0x0, symName: __ZN18llama_model_loader7get_keyIbEEbRKNSt3__112basic_stringIcNS1_11char_traitsIcEENS1_9allocatorIcEEEERT_b, symObjAddr: 0x6C8, symBinAddr: 0x66620, symSize: 0x15C }
  - { offset: 0x3F399B, size: 0x8, addend: 0x0, symName: __ZNSt3__112__hash_tableINS_17__hash_value_typeINS_12basic_stringIcNS_11char_traitsIcEENS_9allocatorIcEEEE23llama_model_kv_overrideEENS_22__unordered_map_hasherIS7_S9_NS_4hashIS7_EENS_8equal_toIS7_EELb1EEENS_21__unordered_map_equalIS7_S9_SE_SC_Lb1EEENS5_IS9_EEE4findIS7_EENS_15__hash_iteratorIPNS_11__hash_nodeIS9_PvEEEERKT_, symObjAddr: 0x85A4, symBinAddr: 0x6E08C, symSize: 0x1B4 }
  - { offset: 0x3F3CA4, size: 0x8, addend: 0x0, symName: __ZN8GGUFMeta3GKVIbE17validate_overrideE28llama_model_kv_override_typePK23llama_model_kv_override, symObjAddr: 0x8CA4, symBinAddr: 0x6E340, symSize: 0x240 }
  - { offset: 0x3F3E86, size: 0x8, addend: 0x0, symName: __ZN8GGUFMeta3GKVIbE6get_kvEPK12gguf_contexti, symObjAddr: 0x8BA4, symBinAddr: 0x6E240, symSize: 0x100 }
  - { offset: 0x3F4057, size: 0x8, addend: 0x0, symName: __ZN18llama_model_loader7get_keyIfEEb6llm_kvRT_b, symObjAddr: 0x824, symBinAddr: 0x6677C, symSize: 0xA0 }
  - { offset: 0x3F42E3, size: 0x8, addend: 0x0, symName: __ZN18llama_model_loader7get_keyIfEEbRKNSt3__112basic_stringIcNS1_11char_traitsIcEENS1_9allocatorIcEEEERT_b, symObjAddr: 0x8C4, symBinAddr: 0x6681C, symSize: 0x160 }
  - { offset: 0x3F477C, size: 0x8, addend: 0x0, symName: __ZN8GGUFMeta3GKVIfE17validate_overrideE28llama_model_kv_override_typePK23llama_model_kv_override, symObjAddr: 0x8FE4, symBinAddr: 0x6E680, symSize: 0x240 }
  - { offset: 0x3F495E, size: 0x8, addend: 0x0, symName: __ZN8GGUFMeta3GKVIfE6get_kvEPK12gguf_contexti, symObjAddr: 0x8EE4, symBinAddr: 0x6E580, symSize: 0x100 }
  - { offset: 0x3F4B2F, size: 0x8, addend: 0x0, symName: __ZN18llama_model_loader7get_keyIjEEb6llm_kvRT_b, symObjAddr: 0xA24, symBinAddr: 0x6697C, symSize: 0xA0 }
  - { offset: 0x3F4D98, size: 0x8, addend: 0x0, symName: __ZN18llama_model_loader7get_keyIjEEbRKNSt3__112basic_stringIcNS1_11char_traitsIcEENS1_9allocatorIcEEEERT_b, symObjAddr: 0xAC4, symBinAddr: 0x66A1C, symSize: 0x15C }
  - { offset: 0x3F5231, size: 0x8, addend: 0x0, symName: __ZN8GGUFMeta3GKVIjE17validate_overrideE28llama_model_kv_override_typePK23llama_model_kv_override, symObjAddr: 0x9324, symBinAddr: 0x6E9C0, symSize: 0x240 }
  - { offset: 0x3F5413, size: 0x8, addend: 0x0, symName: __ZN8GGUFMeta3GKVIjE6get_kvEPK12gguf_contexti, symObjAddr: 0x9224, symBinAddr: 0x6E8C0, symSize: 0x100 }
  - { offset: 0x3F55E4, size: 0x8, addend: 0x0, symName: __ZN18llama_model_loader7get_keyINSt3__112basic_stringIcNS1_11char_traitsIcEENS1_9allocatorIcEEEEEEb6llm_kvRT_b, symObjAddr: 0xC20, symBinAddr: 0x66B78, symSize: 0xA0 }
  - { offset: 0x3F5870, size: 0x8, addend: 0x0, symName: __ZN18llama_model_loader7get_keyINSt3__112basic_stringIcNS1_11char_traitsIcEENS1_9allocatorIcEEEEEEbRKS7_RT_b, symObjAddr: 0xCC0, symBinAddr: 0x66C18, symSize: 0x184 }
  - { offset: 0x3F5EC0, size: 0x8, addend: 0x0, symName: __ZN8GGUFMeta3GKVINSt3__112basic_stringIcNS1_11char_traitsIcEENS1_9allocatorIcEEEEE17validate_overrideE28llama_model_kv_override_typePK23llama_model_kv_override, symObjAddr: 0x96E8, symBinAddr: 0x6ED84, symSize: 0x240 }
  - { offset: 0x3F60A2, size: 0x8, addend: 0x0, symName: __ZN8GGUFMeta3GKVINSt3__112basic_stringIcNS1_11char_traitsIcEENS1_9allocatorIcEEEEE6get_kvEPK12gguf_contexti, symObjAddr: 0x9564, symBinAddr: 0x6EC00, symSize: 0x184 }
  - { offset: 0x3F6538, size: 0x8, addend: 0x0, symName: __ZN18llama_model_loader7get_keyI18llama_pooling_typeEEb6llm_kvRT_b, symObjAddr: 0xE44, symBinAddr: 0x66D9C, symSize: 0x9C }
  - { offset: 0x3F6826, size: 0x8, addend: 0x0, symName: __ZN18llama_model_loader14get_key_or_arrE6llm_kvRjb, symObjAddr: 0xEE0, symBinAddr: 0x66E38, symSize: 0x1F4 }
  - { offset: 0x3F6E14, size: 0x8, addend: 0x0, symName: __ZN18llama_model_loader14get_key_or_arrINSt3__15arrayIiLm4EEEEEb6llm_kvRT_jb, symObjAddr: 0x10D4, symBinAddr: 0x6702C, symSize: 0xA8 }
  - { offset: 0x3F70B6, size: 0x8, addend: 0x0, symName: __ZN18llama_model_loader14get_key_or_arrIiLm4EEEbRKNSt3__112basic_stringIcNS1_11char_traitsIcEENS1_9allocatorIcEEEERNS1_5arrayIT_XT0_EEEjb, symObjAddr: 0x117C, symBinAddr: 0x670D4, symSize: 0x320 }
  - { offset: 0x3F7786, size: 0x8, addend: 0x0, symName: __ZN18llama_model_loader7get_arrIiLm4EEEbRKNSt3__112basic_stringIcNS1_11char_traitsIcEENS1_9allocatorIcEEEERNS1_5arrayIT_XT0_EEEb, symObjAddr: 0x9928, symBinAddr: 0x6EFC4, symSize: 0x318 }
  - { offset: 0x3F7E1E, size: 0x8, addend: 0x0, symName: __ZN18llama_model_loader7get_keyIiEEbRKNSt3__112basic_stringIcNS1_11char_traitsIcEENS1_9allocatorIcEEEERT_b, symObjAddr: 0x4740, symBinAddr: 0x6A550, symSize: 0x15C }
  - { offset: 0x3F81EA, size: 0x8, addend: 0x0, symName: __ZN18llama_model_loader14get_key_or_arrINSt3__15arrayIjLm512EEEEEb6llm_kvRT_jb, symObjAddr: 0x149C, symBinAddr: 0x673F4, symSize: 0xA8 }
  - { offset: 0x3F848C, size: 0x8, addend: 0x0, symName: __ZN18llama_model_loader14get_key_or_arrIjLm512EEEbRKNSt3__112basic_stringIcNS1_11char_traitsIcEENS1_9allocatorIcEEEERNS1_5arrayIT_XT0_EEEjb, symObjAddr: 0x1544, symBinAddr: 0x6749C, symSize: 0x340 }
  - { offset: 0x3F8B5D, size: 0x8, addend: 0x0, symName: __ZN18llama_model_loader7get_arrIjLm512EEEbRKNSt3__112basic_stringIcNS1_11char_traitsIcEENS1_9allocatorIcEEEERNS1_5arrayIT_XT0_EEEb, symObjAddr: 0x9C40, symBinAddr: 0x6F2DC, symSize: 0x878 }
  - { offset: 0x3F91F0, size: 0x8, addend: 0x0, symName: __ZN18llama_model_loader14get_key_or_arrINSt3__15arrayIfLm512EEEEEb6llm_kvRT_jb, symObjAddr: 0x1884, symBinAddr: 0x677DC, symSize: 0xA8 }
  - { offset: 0x3F9492, size: 0x8, addend: 0x0, symName: __ZN18llama_model_loader14get_key_or_arrIfLm512EEEbRKNSt3__112basic_stringIcNS1_11char_traitsIcEENS1_9allocatorIcEEEERNS1_5arrayIT_XT0_EEEjb, symObjAddr: 0x192C, symBinAddr: 0x67884, symSize: 0x344 }
  - { offset: 0x3F9B63, size: 0x8, addend: 0x0, symName: __ZN18llama_model_loader7get_arrIfLm512EEEbRKNSt3__112basic_stringIcNS1_11char_traitsIcEENS1_9allocatorIcEEEERNS1_5arrayIT_XT0_EEEb, symObjAddr: 0xA4B8, symBinAddr: 0x6FB54, symSize: 0x2D0 }
  - { offset: 0x3FC74A, size: 0x8, addend: 0x0, symName: __ZN18llama_model_loaderC2ERKNSt3__112basic_stringIcNS0_11char_traitsIcEENS0_9allocatorIcEEEERNS0_6vectorIS6_NS4_IS6_EEEEbbbbPK23llama_model_kv_overridePK32llama_model_tensor_buft_override, symObjAddr: 0x1C70, symBinAddr: 0x67BC8, symSize: 0x282C }
  - { offset: 0x405A86, size: 0x8, addend: 0x0, symName: __ZNSt3__112__hash_tableINS_17__hash_value_typeINS_12basic_stringIcNS_11char_traitsIcEENS_9allocatorIcEEEE23llama_model_kv_overrideEENS_22__unordered_map_hasherIS7_S9_NS_4hashIS7_EENS_8equal_toIS7_EELb1EEENS_21__unordered_map_equalIS7_S9_SE_SC_Lb1EEENS5_IS9_EEE25__emplace_unique_key_argsIS7_JNS_4pairIKS7_S8_EEEEENSL_INS_15__hash_iteratorIPNS_11__hash_nodeIS9_PvEEEEbEERKT_DpOT0_, symObjAddr: 0xA7E8, symBinAddr: 0x6FE84, symSize: 0x42C }
  - { offset: 0x406402, size: 0x8, addend: 0x0, symName: __ZNK18llama_model_loader20weight_name_comparerclERKNSt3__112basic_stringIcNS1_11char_traitsIcEENS1_9allocatorIcEEEES9_, symObjAddr: 0xAE1C, symBinAddr: 0x704A4, symSize: 0xF4 }
  - { offset: 0x4066BF, size: 0x8, addend: 0x0, symName: __ZN18llama_model_loader19llama_tensor_weightC2EPK10llama_filetPK12gguf_contextP11ggml_tensor, symObjAddr: 0x7E58, symBinAddr: 0x6DC58, symSize: 0x1B8 }
  - { offset: 0x406947, size: 0x8, addend: 0x0, symName: __ZNSt3__16__treeINS_12__value_typeINS_12basic_stringIcNS_11char_traitsIcEENS_9allocatorIcEEEEN18llama_model_loader19llama_tensor_weightEEENS_19__map_value_compareIS7_SA_NS8_20weight_name_comparerELb1EEENS5_ISA_EEE25__emplace_unique_key_argsIS7_JRS7_S9_EEENS_4pairINS_15__tree_iteratorISA_PNS_11__tree_nodeISA_PvEElEEbEERKT_DpOT0_, symObjAddr: 0xAF10, symBinAddr: 0x70598, symSize: 0x158 }
  - { offset: 0x406CF9, size: 0x8, addend: 0x0, symName: __ZN8GGUFMeta3GKVItE17validate_overrideE28llama_model_kv_override_typePK23llama_model_kv_override, symObjAddr: 0xB374, symBinAddr: 0x70850, symSize: 0x240 }
  - { offset: 0x406EDB, size: 0x8, addend: 0x0, symName: __ZN8GGUFMeta3GKVItE6get_kvEPK12gguf_contexti, symObjAddr: 0xB274, symBinAddr: 0x70750, symSize: 0x100 }
  - { offset: 0x4070BA, size: 0x8, addend: 0x0, symName: __ZN18llama_model_loader7get_keyItEEbRKNSt3__112basic_stringIcNS1_11char_traitsIcEENS1_9allocatorIcEEEERT_b, symObjAddr: 0x4540, symBinAddr: 0x6A3F4, symSize: 0x15C }
  - { offset: 0x407597, size: 0x8, addend: 0x0, symName: __ZNSt3__16__treeINS_12__value_typeI9ggml_typejEENS_19__map_value_compareIS2_S3_NS_4lessIS2_EELb1EEENS_9allocatorIS3_EEE7destroyEPNS_11__tree_nodeIS3_PvEE, symObjAddr: 0xB8F4, symBinAddr: 0x70DD0, symSize: 0x44 }
  - { offset: 0x4076B8, size: 0x8, addend: 0x0, symName: __ZNK18llama_model_loader20weight_name_comparerclERKNSt3__112basic_stringIcNS1_11char_traitsIcEENS1_9allocatorIcEEEES9_, symObjAddr: 0xAE1C, symBinAddr: 0x704A4, symSize: 0xF4 }
  - { offset: 0x4076C3, size: 0x8, addend: 0x0, symName: __ZNSt3__16vectorINS_10unique_ptrI10llama_fileNS_14default_deleteIS2_EEEENS_9allocatorIS5_EEE20__throw_length_errorB8ne200100Ev, symObjAddr: 0xADF4, symBinAddr: 0x70490, symSize: 0x14 }
  - { offset: 0x4076F0, size: 0x8, addend: 0x0, symName: __ZNSt3__16vectorIP18ggml_backend_eventNS_9allocatorIS2_EEE12emplace_backIJRS2_EEES7_DpOT_, symObjAddr: 0x814C, symBinAddr: 0x6DE10, symSize: 0xF0 }
  - { offset: 0x407890, size: 0x8, addend: 0x0, symName: __ZNSt3__110unique_ptrINS_11__tree_nodeINS_12__value_typeINS_12basic_stringIcNS_11char_traitsIcEENS_9allocatorIcEEEEN18llama_model_loader19llama_tensor_weightEEEPvEENS_22__tree_node_destructorINS6_ISD_EEEEED1B8ne200100Ev, symObjAddr: 0xB068, symBinAddr: 0x706F0, symSize: 0x60 }
  - { offset: 0x407BBE, size: 0x8, addend: 0x0, symName: __ZNSt3__16vectorINS_10unique_ptrI12ggml_context20ggml_context_deleterEENS_9allocatorIS4_EEED1B8ne200100Ev, symObjAddr: 0x489C, symBinAddr: 0x6A6AC, symSize: 0x70 }
  - { offset: 0x407DB5, size: 0x8, addend: 0x0, symName: __ZNSt3__113unordered_mapINS_12basic_stringIcNS_11char_traitsIcEENS_9allocatorIcEEEE23llama_model_kv_overrideNS_4hashIS6_EENS_8equal_toIS6_EENS4_INS_4pairIKS6_S7_EEEEED1B8ne200100Ev, symObjAddr: 0x490C, symBinAddr: 0x6A71C, symSize: 0x68 }
  - { offset: 0x4081BB, size: 0x8, addend: 0x0, symName: __ZNSt3__16__treeINS_12__value_typeINS_12basic_stringIcNS_11char_traitsIcEENS_9allocatorIcEEEEN18llama_model_loader19llama_tensor_weightEEENS_19__map_value_compareIS7_SA_NS8_20weight_name_comparerELb1EEENS5_ISA_EEE7destroyEPNS_11__tree_nodeISA_PvEE, symObjAddr: 0xA788, symBinAddr: 0x6FE24, symSize: 0x60 }
  - { offset: 0x4083FF, size: 0x8, addend: 0x0, symName: __ZNSt3__16vectorINS_10unique_ptrI10llama_mmapNS_14default_deleteIS2_EEEENS_9allocatorIS5_EEED1B8ne200100Ev, symObjAddr: 0x4974, symBinAddr: 0x6A784, symSize: 0x70 }
  - { offset: 0x40861C, size: 0x8, addend: 0x0, symName: __ZNSt3__16vectorINS_10unique_ptrI10llama_fileNS_14default_deleteIS2_EEEENS_9allocatorIS5_EEED1B8ne200100Ev, symObjAddr: 0x49E4, symBinAddr: 0x6A7F4, symSize: 0x70 }
  - { offset: 0x4089BE, size: 0x8, addend: 0x0, symName: __ZN18llama_model_loader7get_keyItEEbRKNSt3__112basic_stringIcNS1_11char_traitsIcEENS1_9allocatorIcEEEERT_b, symObjAddr: 0x4540, symBinAddr: 0x6A3F4, symSize: 0x15C }
  - { offset: 0x408ACC, size: 0x8, addend: 0x0, symName: __ZN8GGUFMeta3GKVIiE17validate_overrideE28llama_model_kv_override_typePK23llama_model_kv_override, symObjAddr: 0xB6B4, symBinAddr: 0x70B90, symSize: 0x240 }
  - { offset: 0x408CAE, size: 0x8, addend: 0x0, symName: __ZN8GGUFMeta3GKVIiE6get_kvEPK12gguf_contexti, symObjAddr: 0xB5B4, symBinAddr: 0x70A90, symSize: 0x100 }
  - { offset: 0x409441, size: 0x8, addend: 0x0, symName: __ZN18llama_model_loaderC1ERKNSt3__112basic_stringIcNS0_11char_traitsIcEENS0_9allocatorIcEEEERNS0_6vectorIS6_NS4_IS6_EEEEbbbbPK23llama_model_kv_overridePK32llama_model_tensor_buft_override, symObjAddr: 0x4A54, symBinAddr: 0x6A864, symSize: 0xC }
  - { offset: 0x409539, size: 0x8, addend: 0x0, symName: __ZNK18llama_model_loader13get_arch_nameEv, symObjAddr: 0x4A60, symBinAddr: 0x6A870, symSize: 0x28 }
  - { offset: 0x40957F, size: 0x8, addend: 0x0, symName: __ZNK18llama_model_loader13get_arch_nameEv, symObjAddr: 0x4A60, symBinAddr: 0x6A870, symSize: 0x28 }
  - { offset: 0x4095B7, size: 0x8, addend: 0x0, symName: __ZNK18llama_model_loader8get_archEv, symObjAddr: 0x4A88, symBinAddr: 0x6A898, symSize: 0x8 }
  - { offset: 0x409699, size: 0x8, addend: 0x0, symName: __ZNK18llama_model_loader10get_weightEPKc, symObjAddr: 0x4A90, symBinAddr: 0x6A8A0, symSize: 0x14C }
  - { offset: 0x409C6D, size: 0x8, addend: 0x0, symName: __ZNK18llama_model_loader14require_weightEPKc, symObjAddr: 0x4BDC, symBinAddr: 0x6A9EC, symSize: 0xC4 }
  - { offset: 0x409DEE, size: 0x8, addend: 0x0, symName: __ZNK18llama_model_loader15get_tensor_metaEPKc, symObjAddr: 0x4CA0, symBinAddr: 0x6AAB0, symSize: 0x1C }
  - { offset: 0x409E75, size: 0x8, addend: 0x0, symName: __ZNK18llama_model_loader19require_tensor_metaERKNSt3__112basic_stringIcNS0_11char_traitsIcEENS0_9allocatorIcEEEE, symObjAddr: 0x4CBC, symBinAddr: 0x6AACC, symSize: 0xEC }
  - { offset: 0x40A108, size: 0x8, addend: 0x0, symName: __ZNK18llama_model_loader17check_tensor_dimsERKNSt3__112basic_stringIcNS0_11char_traitsIcEENS0_9allocatorIcEEEERKNS0_6vectorIxNS4_IxEEEEb, symObjAddr: 0x4DA8, symBinAddr: 0x6ABB8, symSize: 0x2E0 }
  - { offset: 0x40ABCA, size: 0x8, addend: 0x0, symName: __ZN18llama_model_loader13create_tensorEP12ggml_contextRKNSt3__112basic_stringIcNS2_11char_traitsIcEENS2_9allocatorIcEEEERKSt16initializer_listIxEi, symObjAddr: 0x5088, symBinAddr: 0x6AE98, symSize: 0x174 }
  - { offset: 0x40B259, size: 0x8, addend: 0x0, symName: __ZNSt3__16vectorIxNS_9allocatorIxEEE20__throw_length_errorB8ne200100Ev, symObjAddr: 0xB9AC, symBinAddr: 0x70E14, symSize: 0x14 }
  - { offset: 0x40B271, size: 0x8, addend: 0x0, symName: __ZNSt3__16vectorINS_10unique_ptrI10llama_mmapNS_14default_deleteIS2_EEEENS_9allocatorIS5_EEE20__throw_length_errorB8ne200100Ev, symObjAddr: 0xB9C0, symBinAddr: 0x70E28, symSize: 0x14 }
  - { offset: 0x40B27C, size: 0x8, addend: 0x0, symName: __ZN18llama_model_loader21create_tensor_as_viewEP12ggml_contextP11ggml_tensorRKNSt3__112basic_stringIcNS4_11char_traitsIcEENS4_9allocatorIcEEEERKSt16initializer_listIxEmb, symObjAddr: 0x51FC, symBinAddr: 0x6B00C, symSize: 0x28C }
  - { offset: 0x40BAC7, size: 0x8, addend: 0x0, symName: __ZNK18llama_model_loader20done_getting_tensorsEv, symObjAddr: 0x5488, symBinAddr: 0x6B298, symSize: 0xD0 }
  - { offset: 0x40C80D, size: 0x8, addend: 0x0, symName: __ZN18llama_model_loader13init_mappingsEbPNSt3__16vectorINS0_10unique_ptrI11llama_mlockNS0_14default_deleteIS3_EEEENS0_9allocatorIS6_EEEE, symObjAddr: 0x5558, symBinAddr: 0x6B368, symSize: 0x528 }
  - { offset: 0x40DF77, size: 0x8, addend: 0x0, symName: __ZNSt3__16vectorINS_10unique_ptrI10llama_mmapNS_14default_deleteIS2_EEEENS_9allocatorIS5_EEE20__throw_length_errorB8ne200100Ev, symObjAddr: 0xB9C0, symBinAddr: 0x70E28, symSize: 0x14 }
  - { offset: 0x40DFA4, size: 0x8, addend: 0x0, symName: __ZNSt3__16vectorINS_10unique_ptrI11llama_mlockNS_14default_deleteIS2_EEEENS_9allocatorIS5_EEE20__throw_length_errorB8ne200100Ev, symObjAddr: 0xB9E8, symBinAddr: 0x70E3C, symSize: 0x14 }
  - { offset: 0x40DFAF, size: 0x8, addend: 0x0, symName: __ZNSt3__16vectorINS_10unique_ptrI11llama_mlockNS_14default_deleteIS2_EEEENS_9allocatorIS5_EEE20__throw_length_errorB8ne200100Ev, symObjAddr: 0xB9E8, symBinAddr: 0x70E3C, symSize: 0x14 }
  - { offset: 0x40DFC7, size: 0x8, addend: 0x0, symName: __ZNSt3__16vectorINS_10unique_ptrI10llama_mmapNS_14default_deleteIS2_EEEENS_9allocatorIS5_EEE20__throw_out_of_rangeB8ne200100Ev, symObjAddr: 0xB9FC, symBinAddr: 0x70E50, symSize: 0x14 }
  - { offset: 0x40DFD2, size: 0x8, addend: 0x0, symName: __ZNSt3__110unique_ptrI10llama_mmapNS_14default_deleteIS1_EEED1B8ne200100Ev, symObjAddr: 0x5ABC, symBinAddr: 0x6B8CC, symSize: 0x3C }
  - { offset: 0x40E06A, size: 0x8, addend: 0x0, symName: __ZNSt3__110unique_ptrI11llama_mlockNS_14default_deleteIS1_EEED1B8ne200100Ev, symObjAddr: 0x5A80, symBinAddr: 0x6B890, symSize: 0x3C }
  - { offset: 0x40E21D, size: 0x8, addend: 0x0, symName: __ZNK18llama_model_loader17get_mapping_rangeEPmS0_PPviP12ggml_context, symObjAddr: 0x5AF8, symBinAddr: 0x6B908, symSize: 0x134 }
  - { offset: 0x40E49D, size: 0x8, addend: 0x0, symName: __ZNK18llama_model_loader13load_data_forEP11ggml_tensor, symObjAddr: 0x5C2C, symBinAddr: 0x6BA3C, symSize: 0x21C }
  - { offset: 0x40E4A8, size: 0x8, addend: 0x0, symName: __ZNSt3__16vectorINS_10unique_ptrI10llama_mmapNS_14default_deleteIS2_EEEENS_9allocatorIS5_EEE20__throw_out_of_rangeB8ne200100Ev, symObjAddr: 0xB9FC, symBinAddr: 0x70E50, symSize: 0x14 }
  - { offset: 0x40E4C0, size: 0x8, addend: 0x0, symName: __ZNSt3__16vectorINS_10unique_ptrI10llama_fileNS_14default_deleteIS2_EEEENS_9allocatorIS5_EEE20__throw_out_of_rangeB8ne200100Ev, symObjAddr: 0xBA10, symBinAddr: 0x70E64, symSize: 0x14 }
  - { offset: 0x40E4CB, size: 0x8, addend: 0x0, symName: __ZNK18llama_model_loader13load_data_forEP11ggml_tensor, symObjAddr: 0x5C2C, symBinAddr: 0x6BA3C, symSize: 0x21C }
  - { offset: 0x410F1D, size: 0x8, addend: 0x0, symName: __ZNSt3__113__assoc_stateINS_4pairIP11ggml_tensorbEEE4moveEv, symObjAddr: 0xC048, symBinAddr: 0x7149C, symSize: 0xCC }
  - { offset: 0x41111C, size: 0x8, addend: 0x0, symName: __ZNSt3__16vectorIP18ggml_backend_eventNS_9allocatorIS2_EEE12emplace_backIJRS2_EEES7_DpOT_, symObjAddr: 0x814C, symBinAddr: 0x6DE10, symSize: 0xF0 }
  - { offset: 0x411514, size: 0x8, addend: 0x0, symName: __ZNSt3__16vectorIP19ggml_backend_bufferNS_9allocatorIS2_EEE20__throw_length_errorB8ne200100Ev, symObjAddr: 0x823C, symBinAddr: 0x6DF00, symSize: 0x14 }
  - { offset: 0x411565, size: 0x8, addend: 0x0, symName: __ZNSt3__16vectorINS_10unique_ptrI10llama_fileNS_14default_deleteIS2_EEEENS_9allocatorIS5_EEE20__throw_out_of_rangeB8ne200100Ev, symObjAddr: 0xBA10, symBinAddr: 0x70E64, symSize: 0x14 }
  - { offset: 0x41157D, size: 0x8, addend: 0x0, symName: '__ZNSt3__119__async_assoc_stateINS_4pairIP11ggml_tensorbEENS_12__async_funcIZN18llama_model_loader13load_all_dataEP12ggml_contextRNS_13unordered_mapIjP19ggml_backend_bufferNS_4hashIjEENS_8equal_toIjEENS_9allocatorINS1_IKjSB_EEEEEEPNS_6vectorINS_10unique_ptrI11llama_mlockNS_14default_deleteISO_EEEENSG_ISR_EEEEPFbfPvESV_E3$_0JEEEED1Ev', symObjAddr: 0xBA24, symBinAddr: 0x70E78, symSize: 0x4C }
  - { offset: 0x411588, size: 0x8, addend: 0x0, symName: __ZNSt3__16vectorINS_4pairImmEENS_9allocatorIS2_EEE20__throw_out_of_rangeB8ne200100Ev, symObjAddr: 0xC114, symBinAddr: 0x71568, symSize: 0x14 }
  - { offset: 0x4115AB, size: 0x8, addend: 0x0, symName: __ZNSt3__16vectorINS_6futureINS_4pairIP11ggml_tensorbEEEENS_9allocatorIS6_EEE20__throw_length_errorB8ne200100Ev, symObjAddr: 0xBD64, symBinAddr: 0x711B8, symSize: 0x14 }
  - { offset: 0x4115C3, size: 0x8, addend: 0x0, symName: __ZNSt3__16vectorINS_10unique_ptrI11llama_mlockNS_14default_deleteIS2_EEEENS_9allocatorIS5_EEE20__throw_out_of_rangeB8ne200100Ev, symObjAddr: 0xBD78, symBinAddr: 0x711CC, symSize: 0x14 }
  - { offset: 0x4115CE, size: 0x8, addend: 0x0, symName: __ZNSt3__16vectorINS_10unique_ptrI11llama_mlockNS_14default_deleteIS2_EEEENS_9allocatorIS5_EEE20__throw_out_of_rangeB8ne200100Ev, symObjAddr: 0xBD78, symBinAddr: 0x711CC, symSize: 0x14 }
  - { offset: 0x4115E6, size: 0x8, addend: 0x0, symName: '__ZNSt3__119__async_assoc_stateINS_4pairIP11ggml_tensorbEENS_12__async_funcIZN18llama_model_loader13load_all_dataEP12ggml_contextRNS_13unordered_mapIjP19ggml_backend_bufferNS_4hashIjEENS_8equal_toIjEENS_9allocatorINS1_IKjSB_EEEEEEPNS_6vectorINS_10unique_ptrI11llama_mlockNS_14default_deleteISO_EEEENSG_ISR_EEEEPFbfPvESV_E3$_1JEEEED1Ev', symObjAddr: 0xBD8C, symBinAddr: 0x711E0, symSize: 0x4C }
  - { offset: 0x4115F1, size: 0x8, addend: 0x0, symName: __ZNSt3__16vectorI7no_initIhENS_9allocatorIS2_EEE20__throw_length_errorB8ne200100Ev, symObjAddr: 0xC034, symBinAddr: 0x71488, symSize: 0x14 }
  - { offset: 0x411609, size: 0x8, addend: 0x0, symName: __ZNSt3__113__assoc_stateINS_4pairIP11ggml_tensorbEEE4moveEv, symObjAddr: 0xC048, symBinAddr: 0x7149C, symSize: 0xCC }
  - { offset: 0x411614, size: 0x8, addend: 0x0, symName: __ZNSt3__16vectorIP19ggml_backend_bufferNS_9allocatorIS2_EEE20__throw_length_errorB8ne200100Ev, symObjAddr: 0x823C, symBinAddr: 0x6DF00, symSize: 0x14 }
  - { offset: 0x41162C, size: 0x8, addend: 0x0, symName: __ZNSt3__16vectorIPvNS_9allocatorIS1_EEE20__throw_length_errorB8ne200100Ev, symObjAddr: 0x8250, symBinAddr: 0x6DF14, symSize: 0x14 }
  - { offset: 0x411637, size: 0x8, addend: 0x0, symName: __ZNSt3__16vectorIPvNS_9allocatorIS1_EEE20__throw_length_errorB8ne200100Ev, symObjAddr: 0x8250, symBinAddr: 0x6DF14, symSize: 0x14 }
  - { offset: 0x41164F, size: 0x8, addend: 0x0, symName: __ZNSt3__16vectorIP18ggml_backend_eventNS_9allocatorIS2_EEE20__throw_length_errorB8ne200100Ev, symObjAddr: 0x8264, symBinAddr: 0x6DF28, symSize: 0x14 }
  - { offset: 0x41165A, size: 0x8, addend: 0x0, symName: '__ZNSt3__110unique_ptrINS_5tupleIJNS0_INS_15__thread_structENS_14default_deleteIS2_EEEEMNS_19__async_assoc_stateINS_4pairIP11ggml_tensorbEENS_12__async_funcIZN18llama_model_loader13load_all_dataEP12ggml_contextRNS_13unordered_mapIjP19ggml_backend_bufferNS_4hashIjEENS_8equal_toIjEENS_9allocatorINS7_IKjSH_EEEEEEPNS_6vectorINS0_I11llama_mlockNS3_IST_EEEENSM_ISV_EEEEPFbfPvESZ_E3$_1JEEEEEFvvEPS14_EEENS3_IS18_EEED1B8ne200100Ev', symObjAddr: 0xBFEC, symBinAddr: 0x71440, symSize: 0x48 }
  - { offset: 0x411802, size: 0x8, addend: 0x0, symName: __ZNSt3__110unique_ptrINS_15__thread_structENS_14default_deleteIS1_EEED1B8ne200100Ev, symObjAddr: 0xBD28, symBinAddr: 0x7117C, symSize: 0x3C }
  - { offset: 0x41189A, size: 0x8, addend: 0x0, symName: '__ZNSt3__110unique_ptrINS_5tupleIJNS0_INS_15__thread_structENS_14default_deleteIS2_EEEEMNS_19__async_assoc_stateINS_4pairIP11ggml_tensorbEENS_12__async_funcIZN18llama_model_loader13load_all_dataEP12ggml_contextRNS_13unordered_mapIjP19ggml_backend_bufferNS_4hashIjEENS_8equal_toIjEENS_9allocatorINS7_IKjSH_EEEEEEPNS_6vectorINS0_I11llama_mlockNS3_IST_EEEENSM_ISV_EEEEPFbfPvESZ_E3$_0JEEEEEFvvEPS14_EEENS3_IS18_EEED1B8ne200100Ev', symObjAddr: 0xBCE0, symBinAddr: 0x71134, symSize: 0x48 }
  - { offset: 0x411A42, size: 0x8, addend: 0x0, symName: __ZNSt3__16vectorINS_6futureINS_4pairIP11ggml_tensorbEEEENS_9allocatorIS6_EEED1B8ne200100Ev, symObjAddr: 0x7880, symBinAddr: 0x6D690, symSize: 0x80 }
  - { offset: 0x411C48, size: 0x8, addend: 0x0, symName: __ZNK18llama_model_loader10ftype_nameEv, symObjAddr: 0x7900, symBinAddr: 0x6D710, symSize: 0xC }
  - { offset: 0x411C88, size: 0x8, addend: 0x0, symName: __ZL22llama_model_ftype_name11llama_ftype, symObjAddr: 0x790C, symBinAddr: 0x6D71C, symSize: 0x3EC }
  - { offset: 0x412111, size: 0x8, addend: 0x0, symName: __ZNK18llama_model_loader10print_infoEv, symObjAddr: 0x7CF8, symBinAddr: 0x6DB08, symSize: 0x150 }
  - { offset: 0x412912, size: 0x8, addend: 0x0, symName: __ZNSt3__16vectorIP18ggml_backend_eventNS_9allocatorIS2_EEE20__throw_length_errorB8ne200100Ev, symObjAddr: 0x8264, symBinAddr: 0x6DF28, symSize: 0x14 }
  - { offset: 0x41292A, size: 0x8, addend: 0x0, symName: __ZN8GGUFMeta3GKVINS_9ArrayInfoEE6get_kvEPK12gguf_contexti, symObjAddr: 0x8278, symBinAddr: 0x6DF3C, symSize: 0x150 }
  - { offset: 0x4139A6, size: 0x8, addend: 0x0, symName: __ZNSt3__112__hash_tableINS_17__hash_value_typeINS_12basic_stringIcNS_11char_traitsIcEENS_9allocatorIcEEEE23llama_model_kv_overrideEENS_22__unordered_map_hasherIS7_S9_NS_4hashIS7_EENS_8equal_toIS7_EELb1EEENS_21__unordered_map_equalIS7_S9_SE_SC_Lb1EEENS5_IS9_EEE11__do_rehashILb1EEEvm, symObjAddr: 0xAC74, symBinAddr: 0x70310, symSize: 0x180 }
  - { offset: 0x413D33, size: 0x8, addend: 0x0, symName: __ZNSt3__16vectorINS_10unique_ptrI10llama_fileNS_14default_deleteIS2_EEEENS_9allocatorIS5_EEE20__throw_length_errorB8ne200100Ev, symObjAddr: 0xADF4, symBinAddr: 0x70490, symSize: 0x14 }
  - { offset: 0x413D48, size: 0x8, addend: 0x0, symName: __ZNSt3__110unique_ptrINS_11__hash_nodeINS_17__hash_value_typeINS_12basic_stringIcNS_11char_traitsIcEENS_9allocatorIcEEEE23llama_model_kv_overrideEEPvEENS_22__hash_node_destructorINS6_ISC_EEEEED1B8ne200100Ev, symObjAddr: 0xAC14, symBinAddr: 0x702B0, symSize: 0x60 }
  - { offset: 0x4142ED, size: 0x8, addend: 0x0, symName: '__ZNSt3__119__async_assoc_stateINS_4pairIP11ggml_tensorbEENS_12__async_funcIZN18llama_model_loader13load_all_dataEP12ggml_contextRNS_13unordered_mapIjP19ggml_backend_bufferNS_4hashIjEENS_8equal_toIjEENS_9allocatorINS1_IKjSB_EEEEEEPNS_6vectorINS_10unique_ptrI11llama_mlockNS_14default_deleteISO_EEEENSG_ISR_EEEEPFbfPvESV_E3$_0JEEEED1Ev', symObjAddr: 0xBA24, symBinAddr: 0x70E78, symSize: 0x4C }
  - { offset: 0x414389, size: 0x8, addend: 0x0, symName: '__ZNSt3__119__async_assoc_stateINS_4pairIP11ggml_tensorbEENS_12__async_funcIZN18llama_model_loader13load_all_dataEP12ggml_contextRNS_13unordered_mapIjP19ggml_backend_bufferNS_4hashIjEENS_8equal_toIjEENS_9allocatorINS1_IKjSB_EEEEEEPNS_6vectorINS_10unique_ptrI11llama_mlockNS_14default_deleteISO_EEEENSG_ISR_EEEEPFbfPvESV_E3$_0JEEEED0Ev', symObjAddr: 0xBA70, symBinAddr: 0x70EC4, symSize: 0x50 }
  - { offset: 0x414443, size: 0x8, addend: 0x0, symName: '__ZNSt3__119__async_assoc_stateINS_4pairIP11ggml_tensorbEENS_12__async_funcIZN18llama_model_loader13load_all_dataEP12ggml_contextRNS_13unordered_mapIjP19ggml_backend_bufferNS_4hashIjEENS_8equal_toIjEENS_9allocatorINS1_IKjSB_EEEEEEPNS_6vectorINS_10unique_ptrI11llama_mlockNS_14default_deleteISO_EEEENSG_ISR_EEEEPFbfPvESV_E3$_0JEEEE16__on_zero_sharedEv', symObjAddr: 0xBAC0, symBinAddr: 0x70F14, symSize: 0x30 }
  - { offset: 0x4146AF, size: 0x8, addend: 0x0, symName: '__ZNSt3__119__async_assoc_stateINS_4pairIP11ggml_tensorbEENS_12__async_funcIZN18llama_model_loader13load_all_dataEP12ggml_contextRNS_13unordered_mapIjP19ggml_backend_bufferNS_4hashIjEENS_8equal_toIjEENS_9allocatorINS1_IKjSB_EEEEEEPNS_6vectorINS_10unique_ptrI11llama_mlockNS_14default_deleteISO_EEEENSG_ISR_EEEEPFbfPvESV_E3$_0JEEEE9__executeEv', symObjAddr: 0xBAF0, symBinAddr: 0x70F44, symSize: 0x108 }
  - { offset: 0x414B73, size: 0x8, addend: 0x0, symName: '__ZNSt3__119__async_assoc_stateINS_4pairIP11ggml_tensorbEENS_12__async_funcIZN18llama_model_loader13load_all_dataEP12ggml_contextRNS_13unordered_mapIjP19ggml_backend_bufferNS_4hashIjEENS_8equal_toIjEENS_9allocatorINS1_IKjSB_EEEEEEPNS_6vectorINS_10unique_ptrI11llama_mlockNS_14default_deleteISO_EEEENSG_ISR_EEEEPFbfPvESV_E3$_1JEEEED1Ev', symObjAddr: 0xBD8C, symBinAddr: 0x711E0, symSize: 0x4C }
  - { offset: 0x414C0F, size: 0x8, addend: 0x0, symName: '__ZNSt3__119__async_assoc_stateINS_4pairIP11ggml_tensorbEENS_12__async_funcIZN18llama_model_loader13load_all_dataEP12ggml_contextRNS_13unordered_mapIjP19ggml_backend_bufferNS_4hashIjEENS_8equal_toIjEENS_9allocatorINS1_IKjSB_EEEEEEPNS_6vectorINS_10unique_ptrI11llama_mlockNS_14default_deleteISO_EEEENSG_ISR_EEEEPFbfPvESV_E3$_1JEEEED0Ev', symObjAddr: 0xBDD8, symBinAddr: 0x7122C, symSize: 0x50 }
  - { offset: 0x414CB1, size: 0x8, addend: 0x0, symName: '__ZNSt3__119__async_assoc_stateINS_4pairIP11ggml_tensorbEENS_12__async_funcIZN18llama_model_loader13load_all_dataEP12ggml_contextRNS_13unordered_mapIjP19ggml_backend_bufferNS_4hashIjEENS_8equal_toIjEENS_9allocatorINS1_IKjSB_EEEEEEPNS_6vectorINS_10unique_ptrI11llama_mlockNS_14default_deleteISO_EEEENSG_ISR_EEEEPFbfPvESV_E3$_1JEEEE16__on_zero_sharedEv', symObjAddr: 0xBE28, symBinAddr: 0x7127C, symSize: 0x30 }
  - { offset: 0x414D63, size: 0x8, addend: 0x0, symName: '__ZNSt3__119__async_assoc_stateINS_4pairIP11ggml_tensorbEENS_12__async_funcIZN18llama_model_loader13load_all_dataEP12ggml_contextRNS_13unordered_mapIjP19ggml_backend_bufferNS_4hashIjEENS_8equal_toIjEENS_9allocatorINS1_IKjSB_EEEEEEPNS_6vectorINS_10unique_ptrI11llama_mlockNS_14default_deleteISO_EEEENSG_ISR_EEEEPFbfPvESV_E3$_1JEEEE9__executeEv', symObjAddr: 0xBE58, symBinAddr: 0x712AC, symSize: 0x108 }
  - { offset: 0x430B89, size: 0x8, addend: 0x0, symName: __ZN17llama_model_saverC2ERK11llama_model, symObjAddr: 0x0, symBinAddr: 0x7157C, symSize: 0x38 }
  - { offset: 0x430BFB, size: 0x8, addend: 0x0, symName: __ZN17llama_model_saverC1ERK11llama_model, symObjAddr: 0x38, symBinAddr: 0x715B4, symSize: 0x38 }
  - { offset: 0x430C6A, size: 0x8, addend: 0x0, symName: __ZN17llama_model_saverD2Ev, symObjAddr: 0x70, symBinAddr: 0x715EC, symSize: 0x2C }
  - { offset: 0x430CC3, size: 0x8, addend: 0x0, symName: __ZN17llama_model_saverD1Ev, symObjAddr: 0xAC, symBinAddr: 0x71618, symSize: 0x2C }
  - { offset: 0x430E1F, size: 0x8, addend: 0x0, symName: __ZN17llama_model_saver6add_kvE6llm_kvj, symObjAddr: 0xD8, symBinAddr: 0x71644, symSize: 0x98 }
  - { offset: 0x4310FB, size: 0x8, addend: 0x0, symName: __ZN17llama_model_saver6add_kvE6llm_kvi, symObjAddr: 0x170, symBinAddr: 0x716DC, symSize: 0x98 }
  - { offset: 0x4313D7, size: 0x8, addend: 0x0, symName: __ZN17llama_model_saver6add_kvE6llm_kvf, symObjAddr: 0x208, symBinAddr: 0x71774, symSize: 0x98 }
  - { offset: 0x4316AD, size: 0x8, addend: 0x0, symName: __ZN17llama_model_saver6add_kvE6llm_kvb, symObjAddr: 0x2A0, symBinAddr: 0x7180C, symSize: 0x98 }
  - { offset: 0x431989, size: 0x8, addend: 0x0, symName: __ZN17llama_model_saver6add_kvE6llm_kvPKc, symObjAddr: 0x338, symBinAddr: 0x718A4, symSize: 0x98 }
  - { offset: 0x431C78, size: 0x8, addend: 0x0, symName: __ZN17llama_model_saver6add_kvE6llm_kvc, symObjAddr: 0x3D0, symBinAddr: 0x7193C, symSize: 0x20 }
  - { offset: 0x431CB5, size: 0x8, addend: 0x0, symName: __ZN17llama_model_saver6add_kvE6llm_kvRKNSt3__16vectorINS1_12basic_stringIcNS1_11char_traitsIcEENS1_9allocatorIcEEEENS6_IS8_EEEE, symObjAddr: 0x3F0, symBinAddr: 0x7195C, symSize: 0x2D4 }
  - { offset: 0x431F5E, size: 0x8, addend: 0x0, symName: __ZN17llama_model_saver6add_kvE6llm_kvRKNSt3__16vectorINS1_12basic_stringIcNS1_11char_traitsIcEENS1_9allocatorIcEEEENS6_IS8_EEEE, symObjAddr: 0x3F0, symBinAddr: 0x7195C, symSize: 0x2D4 }
  - { offset: 0x4325B3, size: 0x8, addend: 0x0, symName: __ZNSt3__16vectorIPKcNS_9allocatorIS2_EEE20__throw_length_errorB8ne200100Ev, symObjAddr: 0x2CC8, symBinAddr: 0x741C4, symSize: 0x14 }
  - { offset: 0x432852, size: 0x8, addend: 0x0, symName: __ZN17llama_model_saver10add_tensorEPK11ggml_tensor, symObjAddr: 0x6C4, symBinAddr: 0x71C30, symSize: 0x1A0 }
  - { offset: 0x432C23, size: 0x8, addend: 0x0, symName: __ZN17llama_model_saver17add_kv_from_modelEv, symObjAddr: 0x864, symBinAddr: 0x71DD0, symSize: 0x1E68 }
  - { offset: 0x43378D, size: 0x8, addend: 0x0, symName: __ZN17llama_model_saver17add_kv_from_modelEv, symObjAddr: 0x864, symBinAddr: 0x71DD0, symSize: 0x1E68 }
  - { offset: 0x43E212, size: 0x8, addend: 0x0, symName: __ZN17llama_model_saver6add_kvINSt3__112basic_stringIcNS1_11char_traitsIcEENS1_9allocatorIcEEEEEEv6llm_kvRKT_b, symObjAddr: 0x26CC, symBinAddr: 0x73C38, symSize: 0x148 }
  - { offset: 0x43E649, size: 0x8, addend: 0x0, symName: __ZN17llama_model_saver6add_kvINSt3__15arrayIjLm512EEEEEv6llm_kvRKT_b, symObjAddr: 0x2814, symBinAddr: 0x73D80, symSize: 0x13C }
  - { offset: 0x43EBFB, size: 0x8, addend: 0x0, symName: __ZN17llama_model_saver22add_tensors_from_modelEv, symObjAddr: 0x29C0, symBinAddr: 0x73EBC, symSize: 0x2EC }
  - { offset: 0x43F6DE, size: 0x8, addend: 0x0, symName: __ZN17llama_model_saver4saveERKNSt3__112basic_stringIcNS0_11char_traitsIcEENS0_9allocatorIcEEEE, symObjAddr: 0x2CAC, symBinAddr: 0x741A8, symSize: 0x1C }
  - { offset: 0x44173F, size: 0x8, addend: 0x0, symName: __ZL24LLAMA_ROPE_SCALING_TYPES, symObjAddr: 0x510928, symBinAddr: 0x35C0C0, symSize: 0x0 }
  - { offset: 0x49F4BE, size: 0x8, addend: 0x0, symName: __ZNSt3__111make_uniqueB8ne200100I20llm_build_nemotron_hJRK11llama_modelRK16llm_graph_paramsELi0EEENS_10unique_ptrIT_NS_14default_deleteIS9_EEEEDpOT0_, symObjAddr: 0x3E5A8, symBinAddr: 0xB2700, symSize: 0x5C }
  - { offset: 0x49F564, size: 0x8, addend: 0x0, symName: __ZNSt3__111make_uniqueB8ne200100I14llm_build_phi3ILb1EEJRK11llama_modelRK16llm_graph_paramsELi0EEENS_10unique_ptrIT_NS_14default_deleteISA_EEEEDpOT0_, symObjAddr: 0x3D6EC, symBinAddr: 0xB1844, symSize: 0x5C }
  - { offset: 0x49F60A, size: 0x8, addend: 0x0, symName: __ZNSt3__111make_uniqueB8ne200100I15llm_build_mambaJRK11llama_modelRK16llm_graph_paramsELi0EEENS_10unique_ptrIT_NS_14default_deleteIS9_EEEEDpOT0_, symObjAddr: 0x3DD64, symBinAddr: 0xB1EBC, symSize: 0x5C }
  - { offset: 0x49F6B0, size: 0x8, addend: 0x0, symName: __ZNSt3__111make_uniqueB8ne200100I14llm_build_lfm2JRK11llama_modelRK16llm_graph_paramsELi0EEENS_10unique_ptrIT_NS_14default_deleteIS9_EEEEDpOT0_, symObjAddr: 0x3EF00, symBinAddr: 0xB3058, symSize: 0x5C }
  - { offset: 0x49F756, size: 0x8, addend: 0x0, symName: __ZNSt3__111make_uniqueB8ne200100I20llm_build_mimo2_iswaJRK11llama_modelRK16llm_graph_paramsELi0EEENS_10unique_ptrIT_NS_14default_deleteIS9_EEEEDpOT0_, symObjAddr: 0x3F298, symBinAddr: 0xB33F0, symSize: 0x5C }
  - { offset: 0x49F7FC, size: 0x8, addend: 0x0, symName: __ZNSt3__111make_uniqueB8ne200100I14llm_build_rnd1JRK11llama_modelRK16llm_graph_paramsELi0EEENS_10unique_ptrIT_NS_14default_deleteIS9_EEEEDpOT0_, symObjAddr: 0x3D40C, symBinAddr: 0xB1564, symSize: 0x5C }
  - { offset: 0x49F8A2, size: 0x8, addend: 0x0, symName: __ZNSt3__111make_uniqueB8ne200100I16llm_build_cogvlmJRK11llama_modelRK16llm_graph_paramsELi0EEENS_10unique_ptrIT_NS_14default_deleteIS9_EEEEDpOT0_, symObjAddr: 0x3F128, symBinAddr: 0xB3280, symSize: 0x5C }
  - { offset: 0x49F948, size: 0x8, addend: 0x0, symName: __ZNSt3__111make_uniqueB8ne200100I17llm_build_smollm3JRK11llama_modelRK16llm_graph_paramsELi0EEENS_10unique_ptrIT_NS_14default_deleteIS9_EEEEDpOT0_, symObjAddr: 0x3EDEC, symBinAddr: 0xB2F44, symSize: 0x5C }
  - { offset: 0x49F9EE, size: 0x8, addend: 0x0, symName: __ZNSt3__111make_uniqueB8ne200100I15llm_build_afmoeJRK11llama_modelRK16llm_graph_paramsELi0EEENS_10unique_ptrIT_NS_14default_deleteIS9_EEEEDpOT0_, symObjAddr: 0x3EC20, symBinAddr: 0xB2D78, symSize: 0x5C }
  - { offset: 0x49FA94, size: 0x8, addend: 0x0, symName: __ZNSt3__111make_uniqueB8ne200100I16llm_build_bitnetJRK11llama_modelRK16llm_graph_paramsELi0EEENS_10unique_ptrIT_NS_14default_deleteIS9_EEEEDpOT0_, symObjAddr: 0x3E3DC, symBinAddr: 0xB2534, symSize: 0x5C }
  - { offset: 0x49FB3A, size: 0x8, addend: 0x0, symName: __ZNSt3__111make_uniqueB8ne200100I20llm_build_exaone_moeJRK11llama_modelRK16llm_graph_paramsELi0EEENS_10unique_ptrIT_NS_14default_deleteIS9_EEEEDpOT0_, symObjAddr: 0x3E718, symBinAddr: 0xB2870, symSize: 0x5C }
  - { offset: 0x49FBE0, size: 0x8, addend: 0x0, symName: __ZNSt3__111make_uniqueB8ne200100I24llm_build_granite_hybridJRK11llama_modelRK16llm_graph_paramsELi0EEENS_10unique_ptrIT_NS_14default_deleteIS9_EEEEDpOT0_, symObjAddr: 0x3E8E4, symBinAddr: 0xB2A3C, symSize: 0x5C }
  - { offset: 0x49FC86, size: 0x8, addend: 0x0, symName: __ZNSt3__111make_uniqueB8ne200100I18llm_build_grovemoeJRK11llama_modelRK16llm_graph_paramsELi0EEENS_10unique_ptrIT_NS_14default_deleteIS9_EEEEDpOT0_, symObjAddr: 0x3F014, symBinAddr: 0xB316C, symSize: 0x5C }
  - { offset: 0x49FD2C, size: 0x8, addend: 0x0, symName: __ZNSt3__111make_uniqueB8ne200100I14llm_build_jaisJRK11llama_modelRK16llm_graph_paramsELi0EEENS_10unique_ptrIT_NS_14default_deleteIS9_EEEEDpOT0_, symObjAddr: 0x3E4F0, symBinAddr: 0xB2648, symSize: 0x5C }
  - { offset: 0x49FDD2, size: 0x8, addend: 0x0, symName: __ZNSt3__111make_uniqueB8ne200100I18llm_build_mistral3JRK11llama_modelRK16llm_graph_paramsELi0EEENS_10unique_ptrIT_NS_14default_deleteIS9_EEEEDpOT0_, symObjAddr: 0x3F23C, symBinAddr: 0xB3394, symSize: 0x5C }
  - { offset: 0x49FE78, size: 0x8, addend: 0x0, symName: __ZNSt3__111make_uniqueB8ne200100I24llm_build_pangu_embeddedJRK11llama_modelRK16llm_graph_paramsELi0EEENS_10unique_ptrIT_NS_14default_deleteIS9_EEEEDpOT0_, symObjAddr: 0x3F184, symBinAddr: 0xB32DC, symSize: 0x5C }
  - { offset: 0x49FF1E, size: 0x8, addend: 0x0, symName: __ZNSt3__111make_uniqueB8ne200100I15llm_build_olmoeJRK11llama_modelRK16llm_graph_paramsELi0EEENS_10unique_ptrIT_NS_14default_deleteIS9_EEEEDpOT0_, symObjAddr: 0x3E0A0, symBinAddr: 0xB21F8, symSize: 0x5C }
  - { offset: 0x49FFC4, size: 0x8, addend: 0x0, symName: __ZNSt3__111make_uniqueB8ne200100I16llm_build_arcticJRK11llama_modelRK16llm_graph_paramsELi0EEENS_10unique_ptrIT_NS_14default_deleteIS9_EEEEDpOT0_, symObjAddr: 0x3E1B4, symBinAddr: 0xB230C, symSize: 0x5C }
  - { offset: 0x4A006A, size: 0x8, addend: 0x0, symName: __ZNSt3__111make_uniqueB8ne200100I14llm_build_glm4JRK11llama_modelRK16llm_graph_paramsELi0EEENS_10unique_ptrIT_NS_14default_deleteIS9_EEEEDpOT0_, symObjAddr: 0x3E324, symBinAddr: 0xB247C, symSize: 0x5C }
  - { offset: 0x4A0110, size: 0x8, addend: 0x0, symName: __ZNSt3__111make_uniqueB8ne200100I26llm_build_wavtokenizer_decJRK11llama_modelRK16llm_graph_paramsELi0EEENS_10unique_ptrIT_NS_14default_deleteIS9_EEEEDpOT0_, symObjAddr: 0x3E99C, symBinAddr: 0xB2AF4, symSize: 0x5C }
  - { offset: 0x4A01B6, size: 0x8, addend: 0x0, symName: __ZNSt3__111make_uniqueB8ne200100I17llm_build_chatglmJRK11llama_modelRK16llm_graph_paramsELi0EEENS_10unique_ptrIT_NS_14default_deleteIS9_EEEEDpOT0_, symObjAddr: 0x3E2C8, symBinAddr: 0xB2420, symSize: 0x5C }
  - { offset: 0x4A025C, size: 0x8, addend: 0x0, symName: __ZNSt3__111make_uniqueB8ne200100I22llm_build_gemma3n_iswaJRK11llama_modelRK16llm_graph_paramsELi0EEENS_10unique_ptrIT_NS_14default_deleteIS9_EEEEDpOT0_, symObjAddr: 0x3DC50, symBinAddr: 0xB1DA8, symSize: 0x5C }
  - { offset: 0x4A0302, size: 0x8, addend: 0x0, symName: __ZNSt3__111make_uniqueB8ne200100I19llm_build_chameleonJRK11llama_modelRK16llm_graph_paramsELi0EEENS_10unique_ptrIT_NS_14default_deleteIS9_EEEEDpOT0_, symObjAddr: 0x3E940, symBinAddr: 0xB2A98, symSize: 0x5C }
  - { offset: 0x4A03A8, size: 0x8, addend: 0x0, symName: __ZNSt3__111make_uniqueB8ne200100I15llm_build_gemmaJRK11llama_modelRK16llm_graph_paramsELi0EEENS_10unique_ptrIT_NS_14default_deleteIS9_EEEEDpOT0_, symObjAddr: 0x3DAE0, symBinAddr: 0xB1C38, symSize: 0x5C }
  - { offset: 0x4A044E, size: 0x8, addend: 0x0, symName: __ZNSt3__111make_uniqueB8ne200100I18llm_build_deepseekJRK11llama_modelRK16llm_graph_paramsELi0EEENS_10unique_ptrIT_NS_14default_deleteIS9_EEEEDpOT0_, symObjAddr: 0x3E210, symBinAddr: 0xB2368, symSize: 0x5C }
  - { offset: 0x4A04F4, size: 0x8, addend: 0x0, symName: __ZNSt3__111make_uniqueB8ne200100I18llm_build_glm4_moeJRK11llama_modelRK16llm_graph_paramsELi0EEENS_10unique_ptrIT_NS_14default_deleteIS9_EEEEDpOT0_, symObjAddr: 0x3E380, symBinAddr: 0xB24D8, symSize: 0x5C }
  - { offset: 0x4A059A, size: 0x8, addend: 0x0, symName: __ZNSt3__111make_uniqueB8ne200100I19llm_build_deepseek2JRK11llama_modelRK16llm_graph_paramsELi0EEENS_10unique_ptrIT_NS_14default_deleteIS9_EEEEDpOT0_, symObjAddr: 0x3E26C, symBinAddr: 0xB23C4, symSize: 0x5C }
  - { offset: 0x4A0640, size: 0x8, addend: 0x0, symName: __ZNSt3__111make_uniqueB8ne200100I15llm_build_rwkv6JRK11llama_modelRK16llm_graph_paramsELi0EEENS_10unique_ptrIT_NS_14default_deleteIS9_EEEEDpOT0_, symObjAddr: 0x3E774, symBinAddr: 0xB28CC, symSize: 0x5C }
  - { offset: 0x4A06E6, size: 0x8, addend: 0x0, symName: __ZNSt3__111make_uniqueB8ne200100I17llm_build_qwen2vlJRK11llama_modelRK16llm_graph_paramsELi0EEENS_10unique_ptrIT_NS_14default_deleteIS9_EEEEDpOT0_, symObjAddr: 0x3D468, symBinAddr: 0xB15C0, symSize: 0x5C }
  - { offset: 0x4A078C, size: 0x8, addend: 0x0, symName: __ZNSt3__111make_uniqueB8ne200100I23llm_build_hunyuan_denseJRK11llama_modelRK16llm_graph_paramsELi0EEENS_10unique_ptrIT_NS_14default_deleteIS9_EEEEDpOT0_, symObjAddr: 0x3ED90, symBinAddr: 0xB2EE8, symSize: 0x5C }
  - { offset: 0x4A0832, size: 0x8, addend: 0x0, symName: __ZNSt3__111make_uniqueB8ne200100I15llm_build_olmo2ILb1EEJRK11llama_modelRK16llm_graph_paramsELi0EEENS_10unique_ptrIT_NS_14default_deleteISA_EEEEDpOT0_, symObjAddr: 0x3DFE8, symBinAddr: 0xB2140, symSize: 0x5C }
  - { offset: 0x4A08D8, size: 0x8, addend: 0x0, symName: __ZNSt3__111make_uniqueB8ne200100I22llm_build_smallthinkerILb1EEJRK11llama_modelRK16llm_graph_paramsELi0EEENS_10unique_ptrIT_NS_14default_deleteISA_EEEEDpOT0_, symObjAddr: 0x3EF5C, symBinAddr: 0xB30B4, symSize: 0x5C }
  - { offset: 0x4A097E, size: 0x8, addend: 0x0, symName: __ZNSt3__111make_uniqueB8ne200100I17llm_build_openelmJRK11llama_modelRK16llm_graph_paramsELi0EEENS_10unique_ptrIT_NS_14default_deleteIS9_EEEEDpOT0_, symObjAddr: 0x3E0FC, symBinAddr: 0xB2254, symSize: 0x5C }
  - { offset: 0x4A0A24, size: 0x8, addend: 0x0, symName: __ZNSt3__111make_uniqueB8ne200100I25llm_build_openai_moe_iswaJRK11llama_modelRK16llm_graph_paramsELi0EEENS_10unique_ptrIT_NS_14default_deleteIS9_EEEEDpOT0_, symObjAddr: 0x3EE48, symBinAddr: 0xB2FA0, symSize: 0x5C }
  - { offset: 0x4A0ACA, size: 0x8, addend: 0x0, symName: __ZNSt3__111make_uniqueB8ne200100I19llm_build_codeshellJRK11llama_modelRK16llm_graph_paramsELi0EEENS_10unique_ptrIT_NS_14default_deleteIS9_EEEEDpOT0_, symObjAddr: 0x3D970, symBinAddr: 0xB1AC8, symSize: 0x5C }
  - { offset: 0x4A0B70, size: 0x8, addend: 0x0, symName: __ZNSt3__111make_uniqueB8ne200100I16llm_build_plamo3ILb1EEJRK11llama_modelRK16llm_graph_paramsELi0EEENS_10unique_ptrIT_NS_14default_deleteISA_EEEEDpOT0_, symObjAddr: 0x3D85C, symBinAddr: 0xB19B4, symSize: 0x5C }
  - { offset: 0x4A0C16, size: 0x8, addend: 0x0, symName: __ZNSt3__111make_uniqueB8ne200100I15llm_build_orionJRK11llama_modelRK16llm_graph_paramsELi0EEENS_10unique_ptrIT_NS_14default_deleteIS9_EEEEDpOT0_, symObjAddr: 0x3D9CC, symBinAddr: 0xB1B24, symSize: 0x5C }
  - { offset: 0x4A0CBC, size: 0x8, addend: 0x0, symName: __ZNSt3__111make_uniqueB8ne200100I14llm_build_qwenJRK11llama_modelRK16llm_graph_paramsELi0EEENS_10unique_ptrIT_NS_14default_deleteIS9_EEEEDpOT0_, symObjAddr: 0x3D240, symBinAddr: 0xB1398, symSize: 0x5C }
  - { offset: 0x4A0D62, size: 0x8, addend: 0x0, symName: __ZNSt3__111make_uniqueB8ne200100I19llm_build_internlm2JRK11llama_modelRK16llm_graph_paramsELi0EEENS_10unique_ptrIT_NS_14default_deleteIS9_EEEEDpOT0_, symObjAddr: 0x3DA28, symBinAddr: 0xB1B80, symSize: 0x5C }
  - { offset: 0x4A0E08, size: 0x8, addend: 0x0, symName: __ZNSt3__111make_uniqueB8ne200100I22llm_build_cohere2_iswaJRK11llama_modelRK16llm_graph_paramsELi0EEENS_10unique_ptrIT_NS_14default_deleteIS9_EEEEDpOT0_, symObjAddr: 0x3DED4, symBinAddr: 0xB202C, symSize: 0x5C }
  - { offset: 0x4A0EAE, size: 0x8, addend: 0x0, symName: __ZNSt3__111make_uniqueB8ne200100I21llm_build_bailingmoe2JRK11llama_modelRK16llm_graph_paramsELi0EEENS_10unique_ptrIT_NS_14default_deleteIS9_EEEEDpOT0_, symObjAddr: 0x3EAB0, symBinAddr: 0xB2C08, symSize: 0x5C }
  - { offset: 0x4A0F54, size: 0x8, addend: 0x0, symName: __ZNSt3__111make_uniqueB8ne200100I15llm_build_dots1JRK11llama_modelRK16llm_graph_paramsELi0EEENS_10unique_ptrIT_NS_14default_deleteIS9_EEEEDpOT0_, symObjAddr: 0x3EB68, symBinAddr: 0xB2CC0, symSize: 0x5C }
  - { offset: 0x4A0FFA, size: 0x8, addend: 0x0, symName: __ZNSt3__111make_uniqueB8ne200100I19llm_build_starcoderJRK11llama_modelRK16llm_graph_paramsELi0EEENS_10unique_ptrIT_NS_14default_deleteIS9_EEEEDpOT0_, symObjAddr: 0x3CFBC, symBinAddr: 0xB1114, symSize: 0x5C }
  - { offset: 0x4A10A0, size: 0x8, addend: 0x0, symName: __ZNSt3__111make_uniqueB8ne200100I16llm_build_plamo2JRK11llama_modelRK16llm_graph_paramsELi0EEENS_10unique_ptrIT_NS_14default_deleteIS9_EEEEDpOT0_, symObjAddr: 0x3D800, symBinAddr: 0xB1958, symSize: 0x5C }
  - { offset: 0x4A1146, size: 0x8, addend: 0x0, symName: __ZNSt3__111make_uniqueB8ne200100I18llm_build_stablelmJRK11llama_modelRK16llm_graph_paramsELi0EEENS_10unique_ptrIT_NS_14default_deleteIS9_EEEEDpOT0_, symObjAddr: 0x3D1E4, symBinAddr: 0xB133C, symSize: 0x5C }
  - { offset: 0x4A11EC, size: 0x8, addend: 0x0, symName: __ZNSt3__111make_uniqueB8ne200100I16llm_build_refactJRK11llama_modelRK16llm_graph_paramsELi0EEENS_10unique_ptrIT_NS_14default_deleteIS9_EEEEDpOT0_, symObjAddr: 0x3D018, symBinAddr: 0xB1170, symSize: 0x5C }
  - { offset: 0x4A1292, size: 0x8, addend: 0x0, symName: __ZNSt3__111make_uniqueB8ne200100I14llm_build_gpt2JRK11llama_modelRK16llm_graph_paramsELi0EEENS_10unique_ptrIT_NS_14default_deleteIS9_EEEEDpOT0_, symObjAddr: 0x3D914, symBinAddr: 0xB1A6C, symSize: 0x5C }
  - { offset: 0x4A1338, size: 0x8, addend: 0x0, symName: __ZNSt3__111make_uniqueB8ne200100I13llm_build_mptJRK11llama_modelRK16llm_graph_paramsELi0EEENS_10unique_ptrIT_NS_14default_deleteIS9_EEEEDpOT0_, symObjAddr: 0x3D188, symBinAddr: 0xB12E0, symSize: 0x5C }
  - { offset: 0x4A13DE, size: 0x8, addend: 0x0, symName: __ZNSt3__111make_uniqueB8ne200100I14llm_build_deciJRK11llama_modelRK16llm_graph_paramsELi0EEENS_10unique_ptrIT_NS_14default_deleteIS9_EEEEDpOT0_, symObjAddr: 0x3CE4C, symBinAddr: 0xB0FA4, symSize: 0x5C }
  - { offset: 0x4A1484, size: 0x8, addend: 0x0, symName: __ZNSt3__111make_uniqueB8ne200100I16llm_build_falconJRK11llama_modelRK16llm_graph_paramsELi0EEENS_10unique_ptrIT_NS_14default_deleteIS9_EEEEDpOT0_, symObjAddr: 0x3CF04, symBinAddr: 0xB105C, symSize: 0x5C }
  - { offset: 0x4A152A, size: 0x8, addend: 0x0, symName: __ZNSt3__111make_uniqueB8ne200100I14llm_build_dbrxJRK11llama_modelRK16llm_graph_paramsELi0EEENS_10unique_ptrIT_NS_14default_deleteIS9_EEEEDpOT0_, symObjAddr: 0x3DF30, symBinAddr: 0xB2088, symSize: 0x5C }
  - { offset: 0x4A15D0, size: 0x8, addend: 0x0, symName: __ZNSt3__111make_uniqueB8ne200100I18llm_build_neo_bertJRK11llama_modelRK16llm_graph_paramsELi0EEENS_10unique_ptrIT_NS_14default_deleteIS9_EEEEDpOT0_, symObjAddr: 0x3D0D0, symBinAddr: 0xB1228, symSize: 0x5C }
  - { offset: 0x4A1676, size: 0x8, addend: 0x0, symName: __ZNSt3__111make_uniqueB8ne200100I20llm_build_llama_iswaJRK11llama_modelRK16llm_graph_paramsELi0EEENS_10unique_ptrIT_NS_14default_deleteIS9_EEEEDpOT0_, symObjAddr: 0x3CD38, symBinAddr: 0xB0E90, symSize: 0x5C }
  - { offset: 0x4A171C, size: 0x8, addend: 0x0, symName: __ZNSt3__111make_uniqueB8ne200100I15llm_build_llamaILb0EEJRK11llama_modelRK16llm_graph_paramsELi0EEENS_10unique_ptrIT_NS_14default_deleteISA_EEEEDpOT0_, symObjAddr: 0x3CCDC, symBinAddr: 0xB0E34, symSize: 0x5C }
  - { offset: 0x4A17C2, size: 0x8, addend: 0x0, symName: __ZNSt3__111make_uniqueB8ne200100I15llm_build_qwen2JRK11llama_modelRK16llm_graph_paramsELi0EEENS_10unique_ptrIT_NS_14default_deleteIS9_EEEEDpOT0_, symObjAddr: 0x3D29C, symBinAddr: 0xB13F4, symSize: 0x5C }
  - { offset: 0x4A1868, size: 0x8, addend: 0x0, symName: __ZNSt3__111make_uniqueB8ne200100I25llm_build_gemma_embeddingJRK11llama_modelRK16llm_graph_paramsELi0EEENS_10unique_ptrIT_NS_14default_deleteIS9_EEEEDpOT0_, symObjAddr: 0x3DCAC, symBinAddr: 0xB1E04, symSize: 0x5C }
  - { offset: 0x4A190E, size: 0x8, addend: 0x0, symName: __ZNSt3__111make_uniqueB8ne200100I21llm_build_modern_bertJRK11llama_modelRK16llm_graph_paramsELi0EEENS_10unique_ptrIT_NS_14default_deleteIS9_EEEEDpOT0_, symObjAddr: 0x3D074, symBinAddr: 0xB11CC, symSize: 0x5C }
  - { offset: 0x4A19B4, size: 0x8, addend: 0x0, symName: __ZNSt3__111make_uniqueB8ne200100I18llm_build_baichuanJRK11llama_modelRK16llm_graph_paramsELi0EEENS_10unique_ptrIT_NS_14default_deleteIS9_EEEEDpOT0_, symObjAddr: 0x3CEA8, symBinAddr: 0xB1000, symSize: 0x5C }
  - { offset: 0x4A1A5A, size: 0x8, addend: 0x0, symName: __ZNSt3__111make_uniqueB8ne200100I19llm_build_qwen3nextJRK11llama_modelRK16llm_graph_paramsELi0EEENS_10unique_ptrIT_NS_14default_deleteIS9_EEEEDpOT0_, symObjAddr: 0x3F1E0, symBinAddr: 0xB3338, symSize: 0x5C }
  - { offset: 0x4A1B00, size: 0x8, addend: 0x0, symName: __ZNSt3__111make_uniqueB8ne200100I21llm_build_gemma2_iswaJRK11llama_modelRK16llm_graph_paramsELi0EEENS_10unique_ptrIT_NS_14default_deleteIS9_EEEEDpOT0_, symObjAddr: 0x3DB3C, symBinAddr: 0xB1C94, symSize: 0x5C }
  - { offset: 0x4A1BA6, size: 0x8, addend: 0x0, symName: __ZNSt3__111make_uniqueB8ne200100I17llm_build_gptneoxJRK11llama_modelRK16llm_graph_paramsELi0EEENS_10unique_ptrIT_NS_14default_deleteIS9_EEEEDpOT0_, symObjAddr: 0x3E158, symBinAddr: 0xB22B0, symSize: 0x5C }
  - { offset: 0x4A1C4C, size: 0x8, addend: 0x0, symName: __ZNSt3__111make_uniqueB8ne200100I14llm_build_grokJRK11llama_modelRK16llm_graph_paramsELi0EEENS_10unique_ptrIT_NS_14default_deleteIS9_EEEEDpOT0_, symObjAddr: 0x3CF60, symBinAddr: 0xB10B8, symSize: 0x5C }
  - { offset: 0x4A1CF2, size: 0x8, addend: 0x0, symName: __ZNSt3__111make_uniqueB8ne200100I20llm_build_qwen3vlmoeJRK11llama_modelRK16llm_graph_paramsELi0EEENS_10unique_ptrIT_NS_14default_deleteIS9_EEEEDpOT0_, symObjAddr: 0x3D634, symBinAddr: 0xB178C, symSize: 0x5C }
  - { offset: 0x4A1D98, size: 0x8, addend: 0x0, symName: __ZNSt3__111make_uniqueB8ne200100I16llm_build_xverseJRK11llama_modelRK16llm_graph_paramsELi0EEENS_10unique_ptrIT_NS_14default_deleteIS9_EEEEDpOT0_, symObjAddr: 0x3DE1C, symBinAddr: 0xB1F74, symSize: 0x5C }
  - { offset: 0x4A1E3E, size: 0x8, addend: 0x0, symName: __ZNSt3__111make_uniqueB8ne200100I14llm_build_phi2JRK11llama_modelRK16llm_graph_paramsELi0EEENS_10unique_ptrIT_NS_14default_deleteIS9_EEEEDpOT0_, symObjAddr: 0x3D690, symBinAddr: 0xB17E8, symSize: 0x5C }
  - { offset: 0x4A1EE4, size: 0x8, addend: 0x0, symName: __ZNSt3__111make_uniqueB8ne200100I15llm_build_plamoJRK11llama_modelRK16llm_graph_paramsELi0EEENS_10unique_ptrIT_NS_14default_deleteIS9_EEEEDpOT0_, symObjAddr: 0x3D7A4, symBinAddr: 0xB18FC, symSize: 0x5C }
  - { offset: 0x4A1F8A, size: 0x8, addend: 0x0, symName: __ZNSt3__111make_uniqueB8ne200100I19llm_build_falcon_h1JRK11llama_modelRK16llm_graph_paramsELi0EEENS_10unique_ptrIT_NS_14default_deleteIS9_EEEEDpOT0_, symObjAddr: 0x3EEA4, symBinAddr: 0xB2FFC, symSize: 0x5C }
  - { offset: 0x4A2030, size: 0x8, addend: 0x0, symName: __ZNSt3__111make_uniqueB8ne200100I19llm_build_maincoderJRK11llama_modelRK16llm_graph_paramsELi0EEENS_10unique_ptrIT_NS_14default_deleteIS9_EEEEDpOT0_, symObjAddr: 0x3CDF0, symBinAddr: 0xB0F48, symSize: 0x5C }
  - { offset: 0x4A20D6, size: 0x8, addend: 0x0, symName: __ZNSt3__111make_uniqueB8ne200100I15llm_build_bloomJRK11llama_modelRK16llm_graph_paramsELi0EEENS_10unique_ptrIT_NS_14default_deleteIS9_EEEEDpOT0_, symObjAddr: 0x3D12C, symBinAddr: 0xB1284, symSize: 0x5C }
  - { offset: 0x4A217C, size: 0x8, addend: 0x0, symName: __ZNSt3__111make_uniqueB8ne200100I15llm_build_jambaJRK11llama_modelRK16llm_graph_paramsELi0EEENS_10unique_ptrIT_NS_14default_deleteIS9_EEEEDpOT0_, symObjAddr: 0x3DDC0, symBinAddr: 0xB1F18, symSize: 0x5C }
  - { offset: 0x4A2222, size: 0x8, addend: 0x0, symName: __ZNSt3__111make_uniqueB8ne200100I16llm_build_exaoneJRK11llama_modelRK16llm_graph_paramsELi0EEENS_10unique_ptrIT_NS_14default_deleteIS9_EEEEDpOT0_, symObjAddr: 0x3E604, symBinAddr: 0xB275C, symSize: 0x5C }
  - { offset: 0x4A22C8, size: 0x8, addend: 0x0, symName: __ZNSt3__111make_uniqueB8ne200100I15llm_build_qwen3JRK11llama_modelRK16llm_graph_paramsELi0EEENS_10unique_ptrIT_NS_14default_deleteIS9_EEEEDpOT0_, symObjAddr: 0x3D520, symBinAddr: 0xB1678, symSize: 0x5C }
  - { offset: 0x4A236E, size: 0x8, addend: 0x0, symName: __ZNSt3__111make_uniqueB8ne200100I18llm_build_qwen2moeJRK11llama_modelRK16llm_graph_paramsELi0EEENS_10unique_ptrIT_NS_14default_deleteIS9_EEEEDpOT0_, symObjAddr: 0x3D4C4, symBinAddr: 0xB161C, symSize: 0x5C }
  - { offset: 0x4A2414, size: 0x8, addend: 0x0, symName: __ZNSt3__111make_uniqueB8ne200100I17llm_build_qwen3vlJRK11llama_modelRK16llm_graph_paramsELi0EEENS_10unique_ptrIT_NS_14default_deleteIS9_EEEEDpOT0_, symObjAddr: 0x3D5D8, symBinAddr: 0xB1730, symSize: 0x5C }
  - { offset: 0x4A24BA, size: 0x8, addend: 0x0, symName: __ZNSt3__111make_uniqueB8ne200100I17llm_build_exaone4ILb1EEJRK11llama_modelRK16llm_graph_paramsELi0EEENS_10unique_ptrIT_NS_14default_deleteISA_EEEEDpOT0_, symObjAddr: 0x3E660, symBinAddr: 0xB27B8, symSize: 0x5C }
  - { offset: 0x4A2560, size: 0x8, addend: 0x0, symName: __ZNSt3__111make_uniqueB8ne200100I18llm_build_qwen3moeJRK11llama_modelRK16llm_graph_paramsELi0EEENS_10unique_ptrIT_NS_14default_deleteIS9_EEEEDpOT0_, symObjAddr: 0x3D57C, symBinAddr: 0xB16D4, symSize: 0x5C }
  - { offset: 0x4A2606, size: 0x8, addend: 0x0, symName: __ZNSt3__111make_uniqueB8ne200100I15llm_build_rwkv7JRK11llama_modelRK16llm_graph_paramsELi0EEENS_10unique_ptrIT_NS_14default_deleteIS9_EEEEDpOT0_, symObjAddr: 0x3E82C, symBinAddr: 0xB2984, symSize: 0x5C }
  - { offset: 0x4A26AC, size: 0x8, addend: 0x0, symName: __ZNSt3__111make_uniqueB8ne200100I20llm_build_starcoder2JRK11llama_modelRK16llm_graph_paramsELi0EEENS_10unique_ptrIT_NS_14default_deleteIS9_EEEEDpOT0_, symObjAddr: 0x3DD08, symBinAddr: 0xB1E60, symSize: 0x5C }
  - { offset: 0x4A2752, size: 0x8, addend: 0x0, symName: __ZNSt3__111make_uniqueB8ne200100I15llm_build_arceeJRK11llama_modelRK16llm_graph_paramsELi0EEENS_10unique_ptrIT_NS_14default_deleteIS9_EEEEDpOT0_, symObjAddr: 0x3EBC4, symBinAddr: 0xB2D1C, symSize: 0x5C }
  - { offset: 0x4A27F8, size: 0x8, addend: 0x0, symName: __ZNSt3__111make_uniqueB8ne200100I16llm_build_t5_decJRK11llama_modelRK16llm_graph_paramsELi0EEENS_10unique_ptrIT_NS_14default_deleteIS9_EEEEDpOT0_, symObjAddr: 0x3E494, symBinAddr: 0xB25EC, symSize: 0x5C }
  - { offset: 0x4A289E, size: 0x8, addend: 0x0, symName: __ZNSt3__111make_uniqueB8ne200100I20llm_build_minimax_m2JRK11llama_modelRK16llm_graph_paramsELi0EEENS_10unique_ptrIT_NS_14default_deleteIS9_EEEEDpOT0_, symObjAddr: 0x3F0CC, symBinAddr: 0xB3224, symSize: 0x5C }
  - { offset: 0x4A2944, size: 0x8, addend: 0x0, symName: __ZNSt3__111make_uniqueB8ne200100I17llm_build_apertusJRK11llama_modelRK16llm_graph_paramsELi0EEENS_10unique_ptrIT_NS_14default_deleteIS9_EEEEDpOT0_, symObjAddr: 0x3F070, symBinAddr: 0xB31C8, symSize: 0x5C }
  - { offset: 0x4A29EA, size: 0x8, addend: 0x0, symName: __ZNSt3__111make_uniqueB8ne200100I16llm_build_gemma3ILb1EEJRK11llama_modelRK16llm_graph_paramsELi0EEENS_10unique_ptrIT_NS_14default_deleteISA_EEEEDpOT0_, symObjAddr: 0x3DB98, symBinAddr: 0xB1CF0, symSize: 0x5C }
  - { offset: 0x4A2A90, size: 0x8, addend: 0x0, symName: __ZNSt3__111make_uniqueB8ne200100I18llm_build_seed_ossJRK11llama_modelRK16llm_graph_paramsELi0EEENS_10unique_ptrIT_NS_14default_deleteIS9_EEEEDpOT0_, symObjAddr: 0x3EB0C, symBinAddr: 0xB2C64, symSize: 0x5C }
  - { offset: 0x4A2B36, size: 0x8, addend: 0x0, symName: __ZNSt3__111make_uniqueB8ne200100I19llm_build_command_rJRK11llama_modelRK16llm_graph_paramsELi0EEENS_10unique_ptrIT_NS_14default_deleteIS9_EEEEDpOT0_, symObjAddr: 0x3DE78, symBinAddr: 0xB1FD0, symSize: 0x5C }
  - { offset: 0x4A2BDC, size: 0x8, addend: 0x0, symName: __ZNSt3__111make_uniqueB8ne200100I18llm_build_minicpm3JRK11llama_modelRK16llm_graph_paramsELi0EEENS_10unique_ptrIT_NS_14default_deleteIS9_EEEEDpOT0_, symObjAddr: 0x3DA84, symBinAddr: 0xB1BDC, symSize: 0x5C }
  - { offset: 0x4A2C82, size: 0x8, addend: 0x0, symName: __ZNSt3__111make_uniqueB8ne200100I18llm_build_nemotronJRK11llama_modelRK16llm_graph_paramsELi0EEENS_10unique_ptrIT_NS_14default_deleteIS9_EEEEDpOT0_, symObjAddr: 0x3E54C, symBinAddr: 0xB26A4, symSize: 0x5C }
  - { offset: 0x4A2D28, size: 0x8, addend: 0x0, symName: __ZNSt3__111make_uniqueB8ne200100I19llm_build_llada_moeJRK11llama_modelRK16llm_graph_paramsELi0EEENS_10unique_ptrIT_NS_14default_deleteIS9_EEEEDpOT0_, symObjAddr: 0x3D3B0, symBinAddr: 0xB1508, symSize: 0x5C }
  - { offset: 0x4A2DCE, size: 0x8, addend: 0x0, symName: __ZNSt3__111make_uniqueB8ne200100I14llm_build_olmoJRK11llama_modelRK16llm_graph_paramsELi0EEENS_10unique_ptrIT_NS_14default_deleteIS9_EEEEDpOT0_, symObjAddr: 0x3DF8C, symBinAddr: 0xB20E4, symSize: 0x5C }
  - { offset: 0x4A2E74, size: 0x8, addend: 0x0, symName: __ZNSt3__111make_uniqueB8ne200100I22llm_build_ernie4_5_moeJRK11llama_modelRK16llm_graph_paramsELi0EEENS_10unique_ptrIT_NS_14default_deleteIS9_EEEEDpOT0_, symObjAddr: 0x3ECD8, symBinAddr: 0xB2E30, symSize: 0x5C }
  - { offset: 0x4A2F1A, size: 0x8, addend: 0x0, symName: __ZNSt3__111make_uniqueB8ne200100I18llm_build_ernie4_5JRK11llama_modelRK16llm_graph_paramsELi0EEENS_10unique_ptrIT_NS_14default_deleteIS9_EEEEDpOT0_, symObjAddr: 0x3EC7C, symBinAddr: 0xB2DD4, symSize: 0x5C }
  - { offset: 0x4A2FC0, size: 0x8, addend: 0x0, symName: __ZNSt3__111make_uniqueB8ne200100I20llm_build_bailingmoeJRK11llama_modelRK16llm_graph_paramsELi0EEENS_10unique_ptrIT_NS_14default_deleteIS9_EEEEDpOT0_, symObjAddr: 0x3EA54, symBinAddr: 0xB2BAC, symSize: 0x5C }
  - { offset: 0x4A3066, size: 0x8, addend: 0x0, symName: __ZNSt3__111make_uniqueB8ne200100I13llm_build_plmJRK11llama_modelRK16llm_graph_paramsELi0EEENS_10unique_ptrIT_NS_14default_deleteIS9_EEEEDpOT0_, symObjAddr: 0x3E9F8, symBinAddr: 0xB2B50, symSize: 0x5C }
  - { offset: 0x4A310C, size: 0x8, addend: 0x0, symName: __ZNSt3__111make_uniqueB8ne200100I15llm_build_dreamJRK11llama_modelRK16llm_graph_paramsELi0EEENS_10unique_ptrIT_NS_14default_deleteIS9_EEEEDpOT0_, symObjAddr: 0x3D2F8, symBinAddr: 0xB1450, symSize: 0x5C }
  - { offset: 0x4A31B2, size: 0x8, addend: 0x0, symName: __ZNSt3__111make_uniqueB8ne200100I16llm_build_arwkv7JRK11llama_modelRK16llm_graph_paramsELi0EEENS_10unique_ptrIT_NS_14default_deleteIS9_EEEEDpOT0_, symObjAddr: 0x3E888, symBinAddr: 0xB29E0, symSize: 0x5C }
  - { offset: 0x4A3258, size: 0x8, addend: 0x0, symName: __ZNSt3__111make_uniqueB8ne200100I20llm_build_rwkv6qwen2JRK11llama_modelRK16llm_graph_paramsELi0EEENS_10unique_ptrIT_NS_14default_deleteIS9_EEEEDpOT0_, symObjAddr: 0x3E7D0, symBinAddr: 0xB2928, symSize: 0x5C }
  - { offset: 0x4A32FE, size: 0x8, addend: 0x0, symName: __ZNSt3__111make_uniqueB8ne200100I15llm_build_lladaJRK11llama_modelRK16llm_graph_paramsELi0EEENS_10unique_ptrIT_NS_14default_deleteIS9_EEEEDpOT0_, symObjAddr: 0x3D354, symBinAddr: 0xB14AC, symSize: 0x5C }
  - { offset: 0x4A33A4, size: 0x8, addend: 0x0, symName: __ZNSt3__111make_uniqueB8ne200100I21llm_build_hunyuan_moeJRK11llama_modelRK16llm_graph_paramsELi0EEENS_10unique_ptrIT_NS_14default_deleteIS9_EEEEDpOT0_, symObjAddr: 0x3ED34, symBinAddr: 0xB2E8C, symSize: 0x5C }
  - { offset: 0x4A344A, size: 0x8, addend: 0x0, symName: __ZNSt3__111make_uniqueB8ne200100I15llm_build_llamaILb1EEJRK11llama_modelRK16llm_graph_paramsELi0EEENS_10unique_ptrIT_NS_14default_deleteISA_EEEEDpOT0_, symObjAddr: 0x3CD94, symBinAddr: 0xB0EEC, symSize: 0x5C }
  - { offset: 0x4A34F0, size: 0x8, addend: 0x0, symName: __ZNSt3__111make_uniqueB8ne200100I14llm_build_phi3ILb0EEJRK11llama_modelRK16llm_graph_paramsELi0EEENS_10unique_ptrIT_NS_14default_deleteISA_EEEEDpOT0_, symObjAddr: 0x3D748, symBinAddr: 0xB18A0, symSize: 0x5C }
  - { offset: 0x4A3596, size: 0x8, addend: 0x0, symName: __ZNSt3__111make_uniqueB8ne200100I15llm_build_olmo2ILb0EEJRK11llama_modelRK16llm_graph_paramsELi0EEENS_10unique_ptrIT_NS_14default_deleteISA_EEEEDpOT0_, symObjAddr: 0x3E044, symBinAddr: 0xB219C, symSize: 0x5C }
  - { offset: 0x4A363C, size: 0x8, addend: 0x0, symName: __ZNSt3__111make_uniqueB8ne200100I22llm_build_smallthinkerILb0EEJRK11llama_modelRK16llm_graph_paramsELi0EEENS_10unique_ptrIT_NS_14default_deleteISA_EEEEDpOT0_, symObjAddr: 0x3EFB8, symBinAddr: 0xB3110, symSize: 0x5C }
  - { offset: 0x4A36E2, size: 0x8, addend: 0x0, symName: __ZNSt3__111make_uniqueB8ne200100I17llm_build_exaone4ILb0EEJRK11llama_modelRK16llm_graph_paramsELi0EEENS_10unique_ptrIT_NS_14default_deleteISA_EEEEDpOT0_, symObjAddr: 0x3E6BC, symBinAddr: 0xB2814, symSize: 0x5C }
  - { offset: 0x4A3788, size: 0x8, addend: 0x0, symName: __ZNSt3__111make_uniqueB8ne200100I16llm_build_gemma3ILb0EEJRK11llama_modelRK16llm_graph_paramsELi0EEENS_10unique_ptrIT_NS_14default_deleteISA_EEEEDpOT0_, symObjAddr: 0x3DBF4, symBinAddr: 0xB1D4C, symSize: 0x5C }
  - { offset: 0x4A382E, size: 0x8, addend: 0x0, symName: __ZNSt3__111make_uniqueB8ne200100I16llm_build_plamo3ILb0EEJRK11llama_modelRK16llm_graph_paramsELi0EEENS_10unique_ptrIT_NS_14default_deleteISA_EEEEDpOT0_, symObjAddr: 0x3D8B8, symBinAddr: 0xB1A10, symSize: 0x5C }
  - { offset: 0x4A38D4, size: 0x8, addend: 0x0, symName: __ZNSt3__111make_uniqueB8ne200100I16llm_build_t5_encJRK11llama_modelRK16llm_graph_paramsELi0EEENS_10unique_ptrIT_NS_14default_deleteIS9_EEEEDpOT0_, symObjAddr: 0x3E438, symBinAddr: 0xB2590, symSize: 0x5C }
  - { offset: 0x4B388D, size: 0x8, addend: 0x0, symName: __ZN11llama_model12load_tensorsER18llama_model_loader, symObjAddr: 0x5A3C, symBinAddr: 0x79B94, symSize: 0x33318 }
  - { offset: 0x5444E5, size: 0x8, addend: 0x0, symName: __ZNK11llama_model10print_infoEv, symObjAddr: 0x3A1C8, symBinAddr: 0xAE320, symSize: 0x12A0 }
  - { offset: 0x547803, size: 0x8, addend: 0x0, symName: __ZNK11llama_model13create_memoryERK19llama_memory_paramsRK13llama_cparams, symObjAddr: 0x3BBC4, symBinAddr: 0xAFD1C, symSize: 0x5A0 }
  - { offset: 0x5501F4, size: 0x8, addend: 0x0, symName: __Z13llm_type_name8llm_type, symObjAddr: 0x0, symBinAddr: 0x741D8, symSize: 0x28 }
  - { offset: 0x550296, size: 0x8, addend: 0x0, symName: __ZNSt3__13mapI23llama_rope_scaling_typePKcNS_4lessIS1_EENS_9allocatorINS_4pairIKS1_S3_EEEEED1B8ne200100Ev, symObjAddr: 0x28, symBinAddr: 0x74200, symSize: 0x28 }
  - { offset: 0x55034A, size: 0x8, addend: 0x0, symName: __ZNSt3__16__treeINS_12__value_typeI23llama_rope_scaling_typePKcEENS_19__map_value_compareIS2_S5_NS_4lessIS2_EELb1EEENS_9allocatorIS5_EEE7destroyEPNS_11__tree_nodeIS5_PvEE, symObjAddr: 0x4BDC8, symBinAddr: 0xB7DF8, symSize: 0x44 }
  - { offset: 0x550751, size: 0x8, addend: 0x0, symName: __Z28llama_rope_scaling_type_name23llama_rope_scaling_type, symObjAddr: 0x50, symBinAddr: 0x74228, symSize: 0xE0 }
  - { offset: 0x550A73, size: 0x8, addend: 0x0, symName: __ZN11llama_modelC2ERK18llama_model_params, symObjAddr: 0x130, symBinAddr: 0x74308, symSize: 0x2EC }
  - { offset: 0x550FCB, size: 0x8, addend: 0x0, symName: __ZN11llama_modelC2ERK18llama_model_params, symObjAddr: 0x130, symBinAddr: 0x74308, symSize: 0x2EC }
  - { offset: 0x55168E, size: 0x8, addend: 0x0, symName: __ZNSt3__113unordered_setIP18llama_adapter_loraNS_4hashIS2_EENS_8equal_toIS2_EENS_9allocatorIS2_EEED1B8ne200100Ev, symObjAddr: 0x41C, symBinAddr: 0x745F4, symSize: 0x48 }
  - { offset: 0x551921, size: 0x8, addend: 0x0, symName: __ZNSt3__16vectorINS_4pairINS_12basic_stringIcNS_11char_traitsIcEENS_9allocatorIcEEEEP11ggml_tensorEENS5_ISA_EEED1B8ne200100Ev, symObjAddr: 0x464, symBinAddr: 0x7463C, symSize: 0x70 }
  - { offset: 0x551BAD, size: 0x8, addend: 0x0, symName: __ZNSt3__113unordered_mapINS_12basic_stringIcNS_11char_traitsIcEENS_9allocatorIcEEEES6_NS_4hashIS6_EENS_8equal_toIS6_EENS4_INS_4pairIKS6_S6_EEEEED1B8ne200100Ev, symObjAddr: 0x4D4, symBinAddr: 0x746AC, symSize: 0x84 }
  - { offset: 0x552936, size: 0x8, addend: 0x0, symName: __ZN11llama_modelC1ERK18llama_model_params, symObjAddr: 0x5C8, symBinAddr: 0x74730, symSize: 0x4 }
  - { offset: 0x552973, size: 0x8, addend: 0x0, symName: __ZN11llama_modelC1ERK18llama_model_params, symObjAddr: 0x5C8, symBinAddr: 0x74730, symSize: 0x4 }
  - { offset: 0x552AB2, size: 0x8, addend: 0x0, symName: __ZN11llama_modelD2Ev, symObjAddr: 0x5CC, symBinAddr: 0x74734, symSize: 0x1C4 }
  - { offset: 0x553BDD, size: 0x8, addend: 0x0, symName: __ZN11llama_model4implD2Ev, symObjAddr: 0x4BE0C, symBinAddr: 0xB7E3C, symSize: 0x16C }
  - { offset: 0x554FC8, size: 0x8, addend: 0x0, symName: __ZN11llama_modelD1Ev, symObjAddr: 0x7A0, symBinAddr: 0x748F8, symSize: 0x4 }
  - { offset: 0x554FEB, size: 0x8, addend: 0x0, symName: __ZN11llama_modelD1Ev, symObjAddr: 0x7A0, symBinAddr: 0x748F8, symSize: 0x4 }
  - { offset: 0x55501A, size: 0x8, addend: 0x0, symName: __ZN11llama_model10load_statsER18llama_model_loader, symObjAddr: 0x7A4, symBinAddr: 0x748FC, symSize: 0x10 }
  - { offset: 0x555052, size: 0x8, addend: 0x0, symName: __ZN11llama_model10load_statsER18llama_model_loader, symObjAddr: 0x7A4, symBinAddr: 0x748FC, symSize: 0x10 }
  - { offset: 0x5550C3, size: 0x8, addend: 0x0, symName: __ZN11llama_model9load_archER18llama_model_loader, symObjAddr: 0x7B4, symBinAddr: 0x7490C, symSize: 0x174 }
  - { offset: 0x555796, size: 0x8, addend: 0x0, symName: __ZN11llama_model12load_hparamsER18llama_model_loader, symObjAddr: 0x928, symBinAddr: 0x74A80, symSize: 0x4EBC }
  - { offset: 0x558225, size: 0x8, addend: 0x0, symName: _llama_model_rope_type, symObjAddr: 0x5934, symBinAddr: 0x79A8C, symSize: 0xBC }
  - { offset: 0x558253, size: 0x8, addend: 0x0, symName: __ZN11llama_model10load_vocabER18llama_model_loader, symObjAddr: 0x59F0, symBinAddr: 0x79B48, symSize: 0x4C }
  - { offset: 0x55827B, size: 0x8, addend: 0x0, symName: __ZNK11llama_model9arch_nameEv, symObjAddr: 0x57E4, symBinAddr: 0x7993C, symSize: 0xA8 }
  - { offset: 0x5584E4, size: 0x8, addend: 0x0, symName: __ZNK11llama_model9type_nameEv, symObjAddr: 0x588C, symBinAddr: 0x799E4, symSize: 0xA8 }
  - { offset: 0x5584EF, size: 0x8, addend: 0x0, symName: __ZNK11llama_model9type_nameEv, symObjAddr: 0x588C, symBinAddr: 0x799E4, symSize: 0xA8 }
  - { offset: 0x558758, size: 0x8, addend: 0x0, symName: _llama_model_rope_type, symObjAddr: 0x5934, symBinAddr: 0x79A8C, symSize: 0xBC }
  - { offset: 0x558763, size: 0x8, addend: 0x0, symName: __ZN11llama_model10load_vocabER18llama_model_loader, symObjAddr: 0x59F0, symBinAddr: 0x79B48, symSize: 0x4C }
  - { offset: 0x55BE93, size: 0x8, addend: 0x0, symName: __ZNSt3__16vectorINS_4pairIP19ggml_backend_deviceP24ggml_backend_buffer_typeEENS_9allocatorIS6_EEE18__insert_with_sizeB8ne200100INS_11__wrap_iterIPS6_EESD_EESD_NSB_IPKS6_EET_T0_l, symObjAddr: 0x4CD94, symBinAddr: 0xB80A0, symSize: 0x540 }
  - { offset: 0x55C9FD, size: 0x8, addend: 0x0, symName: __ZNSt3__16vectorIN11llama_model4impl9layer_devENS_9allocatorIS3_EEE8__appendEm, symObjAddr: 0x4D2E8, symBinAddr: 0xB85E0, symSize: 0x120 }
  - { offset: 0x55CDDB, size: 0x8, addend: 0x0, symName: __ZNSt3__16vectorIN11llama_model4impl9layer_devENS_9allocatorIS3_EEE20__throw_length_errorB8ne200100Ev, symObjAddr: 0x4D408, symBinAddr: 0xB8700, symSize: 0x14 }
  - { offset: 0x55CDF7, size: 0x8, addend: 0x0, symName: '__ZZN11llama_model12load_tensorsER18llama_model_loaderENK3$_1clEi', symObjAddr: 0x38D88, symBinAddr: 0xACEE0, symSize: 0x1B8 }
  - { offset: 0x55D13E, size: 0x8, addend: 0x0, symName: __ZNSt3__16vectorI11llama_layerNS_9allocatorIS1_EEE6resizeEm, symObjAddr: 0x38F40, symBinAddr: 0xAD098, symSize: 0x44 }
  - { offset: 0x55D156, size: 0x8, addend: 0x0, symName: __ZNSt3__16vectorI11llama_layerNS_9allocatorIS1_EEE8__appendEm, symObjAddr: 0x4D484, symBinAddr: 0xB877C, symSize: 0x1AC }
  - { offset: 0x55D56B, size: 0x8, addend: 0x0, symName: __ZNSt3__16vectorI11llama_layerNS_9allocatorIS1_EEE20__throw_length_errorB8ne200100Ev, symObjAddr: 0x4D630, symBinAddr: 0xB8928, symSize: 0x14 }
  - { offset: 0x55D5A9, size: 0x8, addend: 0x0, symName: '__ZZN11llama_model12load_tensorsER18llama_model_loaderENK3$_3clERK11LLM_TN_IMPLRKSt16initializer_listIxEi', symObjAddr: 0x38F84, symBinAddr: 0xAD0DC, symSize: 0xAF0 }
  - { offset: 0x55F764, size: 0x8, addend: 0x0, symName: __ZNSt3__16vectorI11llama_layerNS_9allocatorIS1_EEE6resizeEm, symObjAddr: 0x38F40, symBinAddr: 0xAD098, symSize: 0x44 }
  - { offset: 0x55F798, size: 0x8, addend: 0x0, symName: __ZNSt3__16vectorI11llama_layerNS_9allocatorIS1_EEE6resizeEm, symObjAddr: 0x38F40, symBinAddr: 0xAD098, symSize: 0x44 }
  - { offset: 0x55F82E, size: 0x8, addend: 0x0, symName: __ZNSt3__16vectorINS_4pairIP12ggml_contextNS_13unordered_mapIjP19ggml_backend_bufferNS_4hashIjEENS_8equal_toIjEENS_9allocatorINS1_IKjS6_EEEEEEEENSB_ISG_EEE7reserveEm, symObjAddr: 0x39A74, symBinAddr: 0xADBCC, symSize: 0x108 }
  - { offset: 0x55FDF7, size: 0x8, addend: 0x0, symName: __ZNSt3__114__split_bufferINS_4pairINS_10unique_ptrI12ggml_context20ggml_context_deleterEENS_6vectorINS2_I19ggml_backend_buffer27ggml_backend_buffer_deleterEENS_9allocatorIS9_EEEEEERNSA_ISD_EEE17__destruct_at_endB8ne200100EPSD_, symObjAddr: 0x4D83C, symBinAddr: 0xB8B20, symSize: 0xB4 }
  - { offset: 0x56012B, size: 0x8, addend: 0x0, symName: __ZNSt3__112__hash_tableINS_17__hash_value_typeIjP19ggml_backend_bufferEENS_22__unordered_map_hasherIjS4_NS_4hashIjEENS_8equal_toIjEELb1EEENS_21__unordered_map_equalIjS4_S9_S7_Lb1EEENS_9allocatorIS4_EEE11__do_rehashILb1EEEvm, symObjAddr: 0x4D938, symBinAddr: 0xB8C1C, symSize: 0x180 }
  - { offset: 0x5604F7, size: 0x8, addend: 0x0, symName: __ZNSt3__112__hash_tableINS_17__hash_value_typeIjP19ggml_backend_bufferEENS_22__unordered_map_hasherIjS4_NS_4hashIjEENS_8equal_toIjEELb1EEENS_21__unordered_map_equalIjS4_S9_S7_Lb1EEENS_9allocatorIS4_EEE25__emplace_unique_key_argsIjJRjRS3_EEENS_4pairINS_15__hash_iteratorIPNS_11__hash_nodeIS4_PvEEEEbEERKT_DpOT0_, symObjAddr: 0x4DACC, symBinAddr: 0xB8D9C, symSize: 0x300 }
  - { offset: 0x560CFC, size: 0x8, addend: 0x0, symName: __ZNSt3__16vectorINS_4pairINS_10unique_ptrI12ggml_context20ggml_context_deleterEENS0_INS2_I19ggml_backend_buffer27ggml_backend_buffer_deleterEENS_9allocatorIS8_EEEEEENS9_ISC_EEE24__emplace_back_slow_pathIJS5_SB_EEEPSC_DpOT_, symObjAddr: 0x4DDE0, symBinAddr: 0xB909C, symSize: 0x11C }
  - { offset: 0x5611DA, size: 0x8, addend: 0x0, symName: __ZNSt3__16vectorINS_4pairIP12ggml_contextNS_13unordered_mapIjP19ggml_backend_bufferNS_4hashIjEENS_8equal_toIjEENS_9allocatorINS1_IKjS6_EEEEEEEENSB_ISG_EEE24__emplace_back_slow_pathIJRS3_RSF_EEEPSG_DpOT_, symObjAddr: 0x4DEFC, symBinAddr: 0xB91B8, symSize: 0x170 }
  - { offset: 0x561207, size: 0x8, addend: 0x0, symName: __ZNSt3__113unordered_mapIjP19ggml_backend_bufferNS_4hashIjEENS_8equal_toIjEENS_9allocatorINS_4pairIKjS2_EEEEEC2ERKSC_, symObjAddr: 0x4E06C, symBinAddr: 0xB9328, symSize: 0x140 }
  - { offset: 0x56159F, size: 0x8, addend: 0x0, symName: __ZNSt3__16vectorINS_4pairIP12ggml_contextNS_13unordered_mapIjP19ggml_backend_bufferNS_4hashIjEENS_8equal_toIjEENS_9allocatorINS1_IKjS6_EEEEEEEENSB_ISG_EEE24__emplace_back_slow_pathIJRS3_RSF_EEEPSG_DpOT_, symObjAddr: 0x4DEFC, symBinAddr: 0xB91B8, symSize: 0x170 }
  - { offset: 0x561CFB, size: 0x8, addend: 0x0, symName: __ZNSt3__16__treeINS_12__value_typeIP24ggml_backend_buffer_typeNS_10unique_ptrI12ggml_context20ggml_context_deleterEEEENS_19__map_value_compareIS3_S8_ZN11llama_model12load_tensorsER18llama_model_loaderE28ggml_backend_buft_comparatorLb1EEENS_9allocatorIS8_EEE7destroyEPNS_11__tree_nodeIS8_PvEE, symObjAddr: 0x4D41C, symBinAddr: 0xB8714, symSize: 0x54 }
  - { offset: 0x561EE3, size: 0x8, addend: 0x0, symName: __ZNSt3__16vectorINS_4pairINS_12basic_stringIcNS_11char_traitsIcEENS_9allocatorIcEEEEP11ggml_tensorEENS5_ISA_EEE20__throw_length_errorB8ne200100Ev, symObjAddr: 0x4E510, symBinAddr: 0xB97CC, symSize: 0x14 }
  - { offset: 0x561F18, size: 0x8, addend: 0x0, symName: __ZNSt3__16vectorINS_4pairIP19ggml_backend_deviceP24ggml_backend_buffer_typeEENS_9allocatorIS6_EEE20__throw_length_errorB8ne200100Ev, symObjAddr: 0x3FB14, symBinAddr: 0xB3A44, symSize: 0x14 }
  - { offset: 0x561F45, size: 0x8, addend: 0x0, symName: __ZNSt3__112__hash_tableINS_17__hash_value_typeIjP19ggml_backend_bufferEENS_22__unordered_map_hasherIjS4_NS_4hashIjEENS_8equal_toIjEELb1EEENS_21__unordered_map_equalIjS4_S9_S7_Lb1EEENS_9allocatorIS4_EEE25__emplace_unique_key_argsIjJRjRS3_EEENS_4pairINS_15__hash_iteratorIPNS_11__hash_nodeIS4_PvEEEEbEERKT_DpOT0_, symObjAddr: 0x4DACC, symBinAddr: 0xB8D9C, symSize: 0x300 }
  - { offset: 0x561F5A, size: 0x8, addend: 0x0, symName: __ZNSt3__16vectorINS_4pairIP12ggml_contextNS_13unordered_mapIjP19ggml_backend_bufferNS_4hashIjEENS_8equal_toIjEENS_9allocatorINS1_IKjS6_EEEEEEEENSB_ISG_EEE20__throw_length_errorB8ne200100Ev, symObjAddr: 0x4D658, symBinAddr: 0xB893C, symSize: 0x14 }
  - { offset: 0x561F6F, size: 0x8, addend: 0x0, symName: __ZNSt3__16vectorINS_4pairINS_10unique_ptrI12ggml_context20ggml_context_deleterEENS0_INS2_I19ggml_backend_buffer27ggml_backend_buffer_deleterEENS_9allocatorIS8_EEEEEENS9_ISC_EEE24__emplace_back_slow_pathIJS5_SB_EEEPSC_DpOT_, symObjAddr: 0x4DDE0, symBinAddr: 0xB909C, symSize: 0x11C }
  - { offset: 0x561F7A, size: 0x8, addend: 0x0, symName: __ZNSt3__16vectorINS_4pairINS_10unique_ptrI12ggml_context20ggml_context_deleterEENS0_INS2_I19ggml_backend_buffer27ggml_backend_buffer_deleterEENS_9allocatorIS8_EEEEEENS9_ISC_EEE20__throw_length_errorB8ne200100Ev, symObjAddr: 0x4D828, symBinAddr: 0xB8B0C, symSize: 0x14 }
  - { offset: 0x561F92, size: 0x8, addend: 0x0, symName: __ZNSt3__114__split_bufferINS_4pairINS_10unique_ptrI12ggml_context20ggml_context_deleterEENS_6vectorINS2_I19ggml_backend_buffer27ggml_backend_buffer_deleterEENS_9allocatorIS9_EEEEEERNSA_ISD_EEE17__destruct_at_endB8ne200100EPSD_, symObjAddr: 0x4D83C, symBinAddr: 0xB8B20, symSize: 0xB4 }
  - { offset: 0x561FA7, size: 0x8, addend: 0x0, symName: __ZNSt3__16vectorIN11llama_model4impl9layer_devENS_9allocatorIS3_EEE8__appendEm, symObjAddr: 0x4D2E8, symBinAddr: 0xB85E0, symSize: 0x120 }
  - { offset: 0x561FB2, size: 0x8, addend: 0x0, symName: __ZNSt3__16vectorINS_10unique_ptrI19ggml_backend_buffer27ggml_backend_buffer_deleterEENS_9allocatorIS4_EEED1B8ne200100Ev, symObjAddr: 0x39B7C, symBinAddr: 0xADCD4, symSize: 0x70 }
  - { offset: 0x5621A0, size: 0x8, addend: 0x0, symName: __ZNSt3__113unordered_mapIjP19ggml_backend_bufferNS_4hashIjEENS_8equal_toIjEENS_9allocatorINS_4pairIKjS2_EEEEED1B8ne200100Ev, symObjAddr: 0x39BEC, symBinAddr: 0xADD44, symSize: 0x48 }
  - { offset: 0x562434, size: 0x8, addend: 0x0, symName: __ZNSt3__114__split_bufferINS_4pairINS_12basic_stringIcNS_11char_traitsIcEENS_9allocatorIcEEEEP11ggml_tensorEERNS5_ISA_EEED1Ev, symObjAddr: 0x4E4AC, symBinAddr: 0xB9768, symSize: 0x64 }
  - { offset: 0x562667, size: 0x8, addend: 0x0, symName: __ZNSt3__16vectorINS_4pairIP12ggml_contextNS_13unordered_mapIjP19ggml_backend_bufferNS_4hashIjEENS_8equal_toIjEENS_9allocatorINS1_IKjS6_EEEEEEEENSB_ISG_EEED1B8ne200100Ev, symObjAddr: 0x39C34, symBinAddr: 0xADD8C, symSize: 0x88 }
  - { offset: 0x562AB5, size: 0x8, addend: 0x0, symName: __ZNK11llama_model12n_gpu_layersEv, symObjAddr: 0x38D54, symBinAddr: 0xACEAC, symSize: 0x20 }
  - { offset: 0x562AD7, size: 0x8, addend: 0x0, symName: __ZNK11llama_model9n_devicesEv, symObjAddr: 0x38D74, symBinAddr: 0xACECC, symSize: 0x14 }
  - { offset: 0x562AFB, size: 0x8, addend: 0x0, symName: __ZNK11llama_model9n_devicesEv, symObjAddr: 0x38D74, symBinAddr: 0xACECC, symSize: 0x14 }
  - { offset: 0x562C22, size: 0x8, addend: 0x0, symName: __ZNSt3__16vectorIP19ggml_backend_deviceNS_9allocatorIS2_EEE20__throw_out_of_rangeB8ne200100Ev, symObjAddr: 0x3FBC4, symBinAddr: 0xB3A58, symSize: 0x14 }
  - { offset: 0x562C3A, size: 0x8, addend: 0x0, symName: __ZL18select_weight_buftRK13llama_hparamsP11ggml_tensor7ggml_opRKNSt3__16vectorINS5_4pairIP19ggml_backend_deviceP24ggml_backend_buffer_typeEENS5_9allocatorISC_EEEE, symObjAddr: 0x3FBD8, symBinAddr: 0xB3A6C, symSize: 0x6C8 }
  - { offset: 0x563568, size: 0x8, addend: 0x0, symName: __ZNSt3__111basic_regexIcNS_12regex_traitsIcEEEC2B8ne200100EPKcNS_15regex_constants18syntax_option_typeE, symObjAddr: 0x402FC, symBinAddr: 0xB4134, symSize: 0xC8 }
  - { offset: 0x563B07, size: 0x8, addend: 0x0, symName: __ZL18select_weight_buftRK13llama_hparamsP11ggml_tensor7ggml_opRKNSt3__16vectorINS5_4pairIP19ggml_backend_deviceP24ggml_backend_buffer_typeEENS5_9allocatorISC_EEEE, symObjAddr: 0x3FBD8, symBinAddr: 0xB3A6C, symSize: 0x6C8 }
  - { offset: 0x5646AE, size: 0x8, addend: 0x0, symName: __ZNSt3__16vectorIN11llama_model4impl9layer_devENS_9allocatorIS3_EEE20__throw_out_of_rangeB8ne200100Ev, symObjAddr: 0x4D470, symBinAddr: 0xB8768, symSize: 0x14 }
  - { offset: 0x5646C6, size: 0x8, addend: 0x0, symName: __ZNSt3__16vectorI11llama_layerNS_9allocatorIS1_EEE8__appendEm, symObjAddr: 0x4D484, symBinAddr: 0xB877C, symSize: 0x1AC }
  - { offset: 0x5648D8, size: 0x8, addend: 0x0, symName: __ZNSt3__16vectorINS_4pairIP12ggml_contextNS_13unordered_mapIjP19ggml_backend_bufferNS_4hashIjEENS_8equal_toIjEENS_9allocatorINS1_IKjS6_EEEEEEEENSB_ISG_EEE26__swap_out_circular_bufferERNS_14__split_bufferISG_RSH_EE, symObjAddr: 0x4D66C, symBinAddr: 0xB8950, symSize: 0x140 }
  - { offset: 0x564EFC, size: 0x8, addend: 0x0, symName: __ZNSt3__16vectorINS_4pairIP12ggml_contextNS_13unordered_mapIjP19ggml_backend_bufferNS_4hashIjEENS_8equal_toIjEENS_9allocatorINS1_IKjS6_EEEEEEEENSB_ISG_EEE20__throw_length_errorB8ne200100Ev, symObjAddr: 0x4D658, symBinAddr: 0xB893C, symSize: 0x14 }
  - { offset: 0x564F14, size: 0x8, addend: 0x0, symName: __ZNSt3__16vectorINS_4pairIP12ggml_contextNS_13unordered_mapIjP19ggml_backend_bufferNS_4hashIjEENS_8equal_toIjEENS_9allocatorINS1_IKjS6_EEEEEEEENSB_ISG_EEE26__swap_out_circular_bufferERNS_14__split_bufferISG_RSH_EE, symObjAddr: 0x4D66C, symBinAddr: 0xB8950, symSize: 0x140 }
  - { offset: 0x564F1F, size: 0x8, addend: 0x0, symName: __ZNSt3__114__split_bufferINS_4pairIP12ggml_contextNS_13unordered_mapIjP19ggml_backend_bufferNS_4hashIjEENS_8equal_toIjEENS_9allocatorINS1_IKjS6_EEEEEEEERNSB_ISG_EEED1Ev, symObjAddr: 0x4D7AC, symBinAddr: 0xB8A90, symSize: 0x7C }
  - { offset: 0x565385, size: 0x8, addend: 0x0, symName: __ZNK11llama_model4descEv, symObjAddr: 0x39CBC, symBinAddr: 0xADE14, symSize: 0x2C }
  - { offset: 0x5653A9, size: 0x8, addend: 0x0, symName: __ZNK11llama_model4descEv, symObjAddr: 0x39CBC, symBinAddr: 0xADE14, symSize: 0x2C }
  - { offset: 0x56553F, size: 0x8, addend: 0x0, symName: __ZNSt3__16vectorINS_4pairIP19ggml_backend_deviceP24ggml_backend_buffer_typeEENS_9allocatorIS6_EEE18__insert_with_sizeB8ne200100INS_11__wrap_iterIPS6_EESD_EESD_NSB_IPKS6_EET_T0_l, symObjAddr: 0x4CD94, symBinAddr: 0xB80A0, symSize: 0x540 }
  - { offset: 0x56554A, size: 0x8, addend: 0x0, symName: __ZNK11llama_model4sizeEv, symObjAddr: 0x39CE8, symBinAddr: 0xADE40, symSize: 0xC }
  - { offset: 0x56556E, size: 0x8, addend: 0x0, symName: __ZNK11llama_model4sizeEv, symObjAddr: 0x39CE8, symBinAddr: 0xADE40, symSize: 0xC }
  - { offset: 0x56558D, size: 0x8, addend: 0x0, symName: __ZNK11llama_model9n_tensorsEv, symObjAddr: 0x39CF4, symBinAddr: 0xADE4C, symSize: 0x14 }
  - { offset: 0x5655B9, size: 0x8, addend: 0x0, symName: __ZNK11llama_model9n_tensorsEv, symObjAddr: 0x39CF4, symBinAddr: 0xADE4C, symSize: 0x14 }
  - { offset: 0x5655D8, size: 0x8, addend: 0x0, symName: __ZNK11llama_model10split_modeEv, symObjAddr: 0x39D08, symBinAddr: 0xADE60, symSize: 0xC }
  - { offset: 0x565F0E, size: 0x8, addend: 0x0, symName: __ZNK11llama_model16memory_breakdownEv, symObjAddr: 0x39D14, symBinAddr: 0xADE6C, symSize: 0x4A8 }
  - { offset: 0x566C1B, size: 0x8, addend: 0x0, symName: __ZNK11llama_model10n_elementsEv, symObjAddr: 0x3A1BC, symBinAddr: 0xAE314, symSize: 0xC }
  - { offset: 0x566C3F, size: 0x8, addend: 0x0, symName: __ZNK11llama_model10n_elementsEv, symObjAddr: 0x3A1BC, symBinAddr: 0xAE314, symSize: 0xC }
  - { offset: 0x56791D, size: 0x8, addend: 0x0, symName: '__ZZNK11llama_model10print_infoEvENK3$_6clERKNSt3__18functionIFjjEEEj', symObjAddr: 0x3B468, symBinAddr: 0xAF5C0, symSize: 0x2B8 }
  - { offset: 0x5688BD, size: 0x8, addend: 0x0, symName: __ZNK11llama_model9dev_layerEi, symObjAddr: 0x3B720, symBinAddr: 0xAF878, symSize: 0x30 }
  - { offset: 0x5688F9, size: 0x8, addend: 0x0, symName: __ZNK11llama_model9dev_layerEi, symObjAddr: 0x3B720, symBinAddr: 0xAF878, symSize: 0x30 }
  - { offset: 0x56895A, size: 0x8, addend: 0x0, symName: __ZNK11llama_model10dev_outputEv, symObjAddr: 0x3B750, symBinAddr: 0xAF8A8, symSize: 0xC }
  - { offset: 0x568965, size: 0x8, addend: 0x0, symName: __ZNK11llama_model10dev_outputEv, symObjAddr: 0x3B750, symBinAddr: 0xAF8A8, symSize: 0xC }
  - { offset: 0x568991, size: 0x8, addend: 0x0, symName: __ZNK11llama_model10dev_outputEv, symObjAddr: 0x3B750, symBinAddr: 0xAF8A8, symSize: 0xC }
  - { offset: 0x568A2C, size: 0x8, addend: 0x0, symName: __ZNK11llama_model11select_buftEi, symObjAddr: 0x3B75C, symBinAddr: 0xAF8B4, symSize: 0x2D4 }
  - { offset: 0x5693A1, size: 0x8, addend: 0x0, symName: __ZNK11llama_model20has_tensor_overridesEv, symObjAddr: 0x3BA30, symBinAddr: 0xAFB88, symSize: 0xC }
  - { offset: 0x5693CD, size: 0x8, addend: 0x0, symName: __ZNK11llama_model20has_tensor_overridesEv, symObjAddr: 0x3BA30, symBinAddr: 0xAFB88, symSize: 0xC }
  - { offset: 0x569418, size: 0x8, addend: 0x0, symName: __ZNK11llama_model10get_tensorEPKc, symObjAddr: 0x3BA3C, symBinAddr: 0xAFB94, symSize: 0xC0 }
  - { offset: 0x5696D6, size: 0x8, addend: 0x0, symName: __ZNK11llama_model18get_rope_freq_baseERK13llama_cparamsi, symObjAddr: 0x3BAFC, symBinAddr: 0xAFC54, symSize: 0x44 }
  - { offset: 0x569720, size: 0x8, addend: 0x0, symName: __ZNK11llama_model19get_rope_freq_scaleERK13llama_cparamsi, symObjAddr: 0x3BB40, symBinAddr: 0xAFC98, symSize: 0x44 }
  - { offset: 0x56978C, size: 0x8, addend: 0x0, symName: __ZNK11llama_model16get_rope_factorsERK13llama_cparamsi, symObjAddr: 0x3BB84, symBinAddr: 0xAFCDC, symSize: 0x40 }
  - { offset: 0x5697E4, size: 0x8, addend: 0x0, symName: __ZNK11llama_model16get_rope_factorsERK13llama_cparamsi, symObjAddr: 0x3BB84, symBinAddr: 0xAFCDC, symSize: 0x40 }
  - { offset: 0x569A3B, size: 0x8, addend: 0x0, symName: '__ZNSt3__18functionIFbiEEaSIZNK11llama_model13create_memoryERK19llama_memory_paramsRK13llama_cparamsE3$_2vEERS2_OT_', symObjAddr: 0x3C29C, symBinAddr: 0xB03F4, symSize: 0x9C }
  - { offset: 0x569C27, size: 0x8, addend: 0x0, symName: '__ZNSt3__18functionIFbiEEaSIZNK11llama_model13create_memoryERK19llama_memory_paramsRK13llama_cparamsE3$_3vEERS2_OT_', symObjAddr: 0x3C338, symBinAddr: 0xB0490, symSize: 0x9C }
  - { offset: 0x569E13, size: 0x8, addend: 0x0, symName: '__ZNSt3__18functionIFiiEEaSIZNK11llama_model13create_memoryERK19llama_memory_paramsRK13llama_cparamsE3$_4vEERS2_OT_', symObjAddr: 0x3C3D4, symBinAddr: 0xB052C, symSize: 0x9C }
  - { offset: 0x569FFF, size: 0x8, addend: 0x0, symName: '__ZNSt3__18functionIFbiEEaSIZNK11llama_model13create_memoryERK19llama_memory_paramsRK13llama_cparamsE3$_0vEERS2_OT_', symObjAddr: 0x3C164, symBinAddr: 0xB02BC, symSize: 0x9C }
  - { offset: 0x56A1DD, size: 0x8, addend: 0x0, symName: '__ZNSt3__18functionIFbiEEaSIZNK11llama_model13create_memoryERK19llama_memory_paramsRK13llama_cparamsE3$_1vEERS2_OT_', symObjAddr: 0x3C200, symBinAddr: 0xB0358, symSize: 0x9C }
  - { offset: 0x56A5A9, size: 0x8, addend: 0x0, symName: __ZNSt3__110__function12__value_funcIFbiEE4swapB8ne200100ERS3_, symObjAddr: 0x4EB34, symBinAddr: 0xB9DAC, symSize: 0x198 }
  - { offset: 0x56AE29, size: 0x8, addend: 0x0, symName: __ZNSt3__110__function12__value_funcIFiiEE4swapB8ne200100ERS3_, symObjAddr: 0x4F0CC, symBinAddr: 0xBA344, symSize: 0x198 }
  - { offset: 0x56B053, size: 0x8, addend: 0x0, symName: __ZNK11llama_model11build_graphERK16llm_graph_params, symObjAddr: 0x3C470, symBinAddr: 0xB05C8, symSize: 0x86C }
  - { offset: 0x56E734, size: 0x8, addend: 0x0, symName: _llama_model_default_params, symObjAddr: 0x3F2F4, symBinAddr: 0xB344C, symSize: 0x2C }
  - { offset: 0x56E760, size: 0x8, addend: 0x0, symName: _llama_model_get_vocab, symObjAddr: 0x3F320, symBinAddr: 0xB3478, symSize: 0xC }
  - { offset: 0x56E7C0, size: 0x8, addend: 0x0, symName: _llama_free_model, symObjAddr: 0x3F32C, symBinAddr: 0xB3484, symSize: 0x1C }
  - { offset: 0x56E7E8, size: 0x8, addend: 0x0, symName: _llama_free_model, symObjAddr: 0x3F32C, symBinAddr: 0xB3484, symSize: 0x1C }
  - { offset: 0x56E82E, size: 0x8, addend: 0x0, symName: _llama_model_free, symObjAddr: 0x3F348, symBinAddr: 0xB34A0, symSize: 0x1C }
  - { offset: 0x56E875, size: 0x8, addend: 0x0, symName: _llama_model_n_ctx_train, symObjAddr: 0x3F364, symBinAddr: 0xB34BC, symSize: 0x8 }
  - { offset: 0x56E893, size: 0x8, addend: 0x0, symName: _llama_model_n_embd, symObjAddr: 0x3F36C, symBinAddr: 0xB34C4, symSize: 0x8 }
  - { offset: 0x56E8B1, size: 0x8, addend: 0x0, symName: _llama_model_n_embd_inp, symObjAddr: 0x3F374, symBinAddr: 0xB34CC, symSize: 0x8 }
  - { offset: 0x56E8DD, size: 0x8, addend: 0x0, symName: _llama_model_n_embd_out, symObjAddr: 0x3F37C, symBinAddr: 0xB34D4, symSize: 0x8 }
  - { offset: 0x56E909, size: 0x8, addend: 0x0, symName: _llama_model_n_layer, symObjAddr: 0x3F384, symBinAddr: 0xB34DC, symSize: 0x8 }
  - { offset: 0x56E927, size: 0x8, addend: 0x0, symName: _llama_model_n_head, symObjAddr: 0x3F38C, symBinAddr: 0xB34E4, symSize: 0xC }
  - { offset: 0x56E945, size: 0x8, addend: 0x0, symName: _llama_model_n_head_kv, symObjAddr: 0x3F398, symBinAddr: 0xB34F0, symSize: 0xC }
  - { offset: 0x56E971, size: 0x8, addend: 0x0, symName: _llama_model_n_swa, symObjAddr: 0x3F3A4, symBinAddr: 0xB34FC, symSize: 0x8 }
  - { offset: 0x56E99D, size: 0x8, addend: 0x0, symName: _llama_model_n_cls_out, symObjAddr: 0x3F3AC, symBinAddr: 0xB3504, symSize: 0x8 }
  - { offset: 0x56E9EB, size: 0x8, addend: 0x0, symName: _llama_model_cls_label, symObjAddr: 0x3F3B4, symBinAddr: 0xB350C, symSize: 0x4C }
  - { offset: 0x56EAFD, size: 0x8, addend: 0x0, symName: _llama_n_ctx_train, symObjAddr: 0x3F400, symBinAddr: 0xB3558, symSize: 0x8 }
  - { offset: 0x56EB2B, size: 0x8, addend: 0x0, symName: _llama_n_ctx_train, symObjAddr: 0x3F400, symBinAddr: 0xB3558, symSize: 0x8 }
  - { offset: 0x56EB61, size: 0x8, addend: 0x0, symName: _llama_n_embd, symObjAddr: 0x3F408, symBinAddr: 0xB3560, symSize: 0x8 }
  - { offset: 0x56EB8F, size: 0x8, addend: 0x0, symName: _llama_n_embd, symObjAddr: 0x3F408, symBinAddr: 0xB3560, symSize: 0x8 }
  - { offset: 0x56EBC5, size: 0x8, addend: 0x0, symName: _llama_n_layer, symObjAddr: 0x3F410, symBinAddr: 0xB3568, symSize: 0x8 }
  - { offset: 0x56EBF3, size: 0x8, addend: 0x0, symName: _llama_n_layer, symObjAddr: 0x3F410, symBinAddr: 0xB3568, symSize: 0x8 }
  - { offset: 0x56EC29, size: 0x8, addend: 0x0, symName: _llama_n_head, symObjAddr: 0x3F418, symBinAddr: 0xB3570, symSize: 0xC }
  - { offset: 0x56EC57, size: 0x8, addend: 0x0, symName: _llama_n_head, symObjAddr: 0x3F418, symBinAddr: 0xB3570, symSize: 0xC }
  - { offset: 0x56EC74, size: 0x8, addend: 0x0, symName: _llama_model_rope_freq_scale_train, symObjAddr: 0x3F424, symBinAddr: 0xB357C, symSize: 0x8 }
  - { offset: 0x56ECC6, size: 0x8, addend: 0x0, symName: _llama_model_meta_val_str, symObjAddr: 0x3F42C, symBinAddr: 0xB3584, symSize: 0x140 }
  - { offset: 0x56F4EC, size: 0x8, addend: 0x0, symName: _llama_model_meta_count, symObjAddr: 0x3F56C, symBinAddr: 0xB36C4, symSize: 0xC }
  - { offset: 0x56F55A, size: 0x8, addend: 0x0, symName: _llama_model_meta_key_str, symObjAddr: 0x3F578, symBinAddr: 0xB36D0, symSize: 0x20 }
  - { offset: 0x56F63A, size: 0x8, addend: 0x0, symName: _llama_model_meta_key_by_index, symObjAddr: 0x3F598, symBinAddr: 0xB36F0, symSize: 0x88 }
  - { offset: 0x56F878, size: 0x8, addend: 0x0, symName: _llama_model_meta_val_str_by_index, symObjAddr: 0x3F620, symBinAddr: 0xB3778, symSize: 0x88 }
  - { offset: 0x56FA86, size: 0x8, addend: 0x0, symName: _llama_model_desc, symObjAddr: 0x3F6A8, symBinAddr: 0xB3800, symSize: 0xAC }
  - { offset: 0x56FD3C, size: 0x8, addend: 0x0, symName: _llama_model_size, symObjAddr: 0x3F754, symBinAddr: 0xB38AC, symSize: 0xC }
  - { offset: 0x56FD6A, size: 0x8, addend: 0x0, symName: _llama_model_size, symObjAddr: 0x3F754, symBinAddr: 0xB38AC, symSize: 0xC }
  - { offset: 0x56FD86, size: 0x8, addend: 0x0, symName: _llama_model_size, symObjAddr: 0x3F754, symBinAddr: 0xB38AC, symSize: 0xC }
  - { offset: 0x56FDA6, size: 0x8, addend: 0x0, symName: _llama_model_chat_template, symObjAddr: 0x3F760, symBinAddr: 0xB38B8, symSize: 0x12C }
  - { offset: 0x5700FF, size: 0x8, addend: 0x0, symName: _llama_model_n_params, symObjAddr: 0x3F88C, symBinAddr: 0xB39E4, symSize: 0xC }
  - { offset: 0x57012D, size: 0x8, addend: 0x0, symName: _llama_model_n_params, symObjAddr: 0x3F88C, symBinAddr: 0xB39E4, symSize: 0xC }
  - { offset: 0x570149, size: 0x8, addend: 0x0, symName: _llama_model_n_params, symObjAddr: 0x3F88C, symBinAddr: 0xB39E4, symSize: 0xC }
  - { offset: 0x570169, size: 0x8, addend: 0x0, symName: _llama_model_has_encoder, symObjAddr: 0x3F898, symBinAddr: 0xB39F0, symSize: 0x14 }
  - { offset: 0x570195, size: 0x8, addend: 0x0, symName: _llama_model_has_decoder, symObjAddr: 0x3F8AC, symBinAddr: 0xB3A04, symSize: 0x10 }
  - { offset: 0x5701C1, size: 0x8, addend: 0x0, symName: _llama_model_decoder_start_token, symObjAddr: 0x3F8BC, symBinAddr: 0xB3A14, symSize: 0xC }
  - { offset: 0x5701ED, size: 0x8, addend: 0x0, symName: _llama_model_is_recurrent, symObjAddr: 0x3F8C8, symBinAddr: 0xB3A20, symSize: 0x8 }
  - { offset: 0x570227, size: 0x8, addend: 0x0, symName: _llama_model_is_hybrid, symObjAddr: 0x3F8D0, symBinAddr: 0xB3A28, symSize: 0x8 }
  - { offset: 0x570261, size: 0x8, addend: 0x0, symName: _llama_model_is_diffusion, symObjAddr: 0x3F8D8, symBinAddr: 0xB3A30, symSize: 0x8 }
  - { offset: 0x5702B1, size: 0x8, addend: 0x0, symName: __Z29llama_internal_get_tensor_mapPK11llama_model, symObjAddr: 0x3F8E0, symBinAddr: 0xB3A38, symSize: 0xC }
  - { offset: 0x570E4E, size: 0x8, addend: 0x0, symName: __ZNSt3__111basic_regexIcNS_12regex_traitsIcEEE7__parseIPKcEET_S7_S7_, symObjAddr: 0x40420, symBinAddr: 0xB41FC, symSize: 0x340 }
  - { offset: 0x571DAF, size: 0x8, addend: 0x0, symName: __ZNSt3__111basic_regexIcNS_12regex_traitsIcEEE13__parse_egrepIPKcEET_S7_S7_, symObjAddr: 0x40DCC, symBinAddr: 0xB4B5C, symSize: 0x1A0 }
  - { offset: 0x5722EE, size: 0x8, addend: 0x0, symName: __ZNSt3__111basic_regexIcNS_12regex_traitsIcEEE24__parse_extended_reg_expIPKcEET_S7_S7_, symObjAddr: 0x40AD0, symBinAddr: 0xB4860, symSize: 0x15C }
  - { offset: 0x57260E, size: 0x8, addend: 0x0, symName: __ZNSt3__111basic_regexIcNS_12regex_traitsIcEEE12__parse_grepIPKcEET_S7_S7_, symObjAddr: 0x40C2C, symBinAddr: 0xB49BC, symSize: 0x1A0 }
  - { offset: 0x572622, size: 0x8, addend: 0x0, symName: __ZNSt3__111basic_regexIcNS_12regex_traitsIcEEE21__parse_basic_reg_expIPKcEET_S7_S7_, symObjAddr: 0x40958, symBinAddr: 0xB46E8, symSize: 0x178 }
  - { offset: 0x57297E, size: 0x8, addend: 0x0, symName: __ZNSt3__111basic_regexIcNS_12regex_traitsIcEEE24__parse_extended_reg_expIPKcEET_S7_S7_, symObjAddr: 0x40AD0, symBinAddr: 0xB4860, symSize: 0x15C }
  - { offset: 0x572992, size: 0x8, addend: 0x0, symName: __ZNSt3__111basic_regexIcNS_12regex_traitsIcEEE12__parse_grepIPKcEET_S7_S7_, symObjAddr: 0x40C2C, symBinAddr: 0xB49BC, symSize: 0x1A0 }
  - { offset: 0x572ED1, size: 0x8, addend: 0x0, symName: __ZNSt3__111basic_regexIcNS_12regex_traitsIcEEE19__parse_alternativeIPKcEET_S7_S7_, symObjAddr: 0x411B0, symBinAddr: 0xB4CFC, symSize: 0xA0 }
  - { offset: 0x573016, size: 0x8, addend: 0x0, symName: __ZNSt3__111basic_regexIcNS_12regex_traitsIcEEE16__parse_ecma_expIPKcEET_S7_S7_, symObjAddr: 0x407AC, symBinAddr: 0xB453C, symSize: 0x1AC }
  - { offset: 0x573408, size: 0x8, addend: 0x0, symName: __ZNSt3__111basic_regexIcNS_12regex_traitsIcEEE12__parse_termIPKcEET_S7_S7_, symObjAddr: 0x41250, symBinAddr: 0xB4D9C, symSize: 0x94 }
  - { offset: 0x5736A3, size: 0x8, addend: 0x0, symName: __ZNSt3__111basic_regexIcNS_12regex_traitsIcEEE18__parse_nondupl_REIPKcEET_S7_S7_, symObjAddr: 0x483E8, symBinAddr: 0xB71D0, symSize: 0x2F8 }
  - { offset: 0x573D2F, size: 0x8, addend: 0x0, symName: __ZNSt3__111basic_regexIcNS_12regex_traitsIcEEE22__parse_RE_dupl_symbolIPKcEET_S7_S7_PNS_16__owns_one_stateIcEEjj, symObjAddr: 0x486E0, symBinAddr: 0xB74C8, symSize: 0x274 }
  - { offset: 0x573D43, size: 0x8, addend: 0x0, symName: __ZNSt3__111basic_regexIcNS_12regex_traitsIcEEE22__parse_RE_dupl_symbolIPKcEET_S7_S7_PNS_16__owns_one_stateIcEEjj, symObjAddr: 0x486E0, symBinAddr: 0xB74C8, symSize: 0x274 }
  - { offset: 0x5742F2, size: 0x8, addend: 0x0, symName: __ZNSt3__111basic_regexIcNS_12regex_traitsIcEEE22__parse_ERE_expressionIPKcEET_S7_S7_, symObjAddr: 0x48A84, symBinAddr: 0xB773C, symSize: 0x1F0 }
  - { offset: 0x57467A, size: 0x8, addend: 0x0, symName: __ZNSt3__111basic_regexIcNS_12regex_traitsIcEEE33__parse_one_char_or_coll_elem_EREIPKcEET_S7_S7_, symObjAddr: 0x48C74, symBinAddr: 0xB792C, symSize: 0x158 }
  - { offset: 0x574760, size: 0x8, addend: 0x0, symName: __ZNSt3__111basic_regexIcNS_12regex_traitsIcEEE23__parse_ERE_dupl_symbolIPKcEET_S7_S7_PNS_16__owns_one_stateIcEEjj, symObjAddr: 0x41880, symBinAddr: 0xB53CC, symSize: 0x3E4 }
  - { offset: 0x574CFF, size: 0x8, addend: 0x0, symName: __ZNSt3__111basic_regexIcNS_12regex_traitsIcEEE17__parse_assertionIPKcEET_S7_S7_, symObjAddr: 0x412E4, symBinAddr: 0xB4E30, symSize: 0x364 }
  - { offset: 0x575315, size: 0x8, addend: 0x0, symName: __ZNSt3__111basic_regexIcNS_12regex_traitsIcEEE12__parse_atomIPKcEET_S7_S7_, symObjAddr: 0x41648, symBinAddr: 0xB5194, symSize: 0x238 }
  - { offset: 0x575676, size: 0x8, addend: 0x0, symName: __ZNSt3__111basic_regexIcNS_12regex_traitsIcEEE23__parse_ERE_dupl_symbolIPKcEET_S7_S7_PNS_16__owns_one_stateIcEEjj, symObjAddr: 0x41880, symBinAddr: 0xB53CC, symSize: 0x3E4 }
  - { offset: 0x575B05, size: 0x8, addend: 0x0, symName: __ZNSt3__111basic_regexIcNS_12regex_traitsIcEEE26__parse_bracket_expressionIPKcEET_S7_S7_, symObjAddr: 0x434F8, symBinAddr: 0xB5930, symSize: 0x160 }
  - { offset: 0x575CD9, size: 0x8, addend: 0x0, symName: __ZNSt3__111basic_regexIcNS_12regex_traitsIcEEE19__parse_atom_escapeIPKcEET_S7_S7_, symObjAddr: 0x43378, symBinAddr: 0xB57B0, symSize: 0x180 }
  - { offset: 0x575E65, size: 0x8, addend: 0x0, symName: __ZNSt3__111basic_regexIcNS_12regex_traitsIcEEE26__parse_bracket_expressionIPKcEET_S7_S7_, symObjAddr: 0x434F8, symBinAddr: 0xB5930, symSize: 0x160 }
  - { offset: 0x575E79, size: 0x8, addend: 0x0, symName: __ZNSt3__111basic_regexIcNS_12regex_traitsIcEEE25__parse_pattern_characterIPKcEET_S7_S7_, symObjAddr: 0x436A4, symBinAddr: 0xB5A90, symSize: 0x7C }
  - { offset: 0x57A1E6, size: 0x8, addend: 0x0, symName: __ZNSt3__111basic_regexIcNS_12regex_traitsIcEEE30__parse_character_class_escapeIPKcEET_S7_S7_, symObjAddr: 0x437FC, symBinAddr: 0xB5B0C, symSize: 0x25C }
  - { offset: 0x57A641, size: 0x8, addend: 0x0, symName: __ZNSt3__111basic_regexIcNS_12regex_traitsIcEEE24__parse_character_escapeIPKcEET_S7_S7_PNS_12basic_stringIcNS_11char_traitsIcEENS_9allocatorIcEEEE, symObjAddr: 0x43A58, symBinAddr: 0xB5D68, symSize: 0x40C }
  - { offset: 0x57B14F, size: 0x8, addend: 0x0, symName: __ZNSt3__111basic_regexIcNS_12regex_traitsIcEEE23__parse_expression_termIPKcEET_S7_S7_PNS_20__bracket_expressionIcS2_EE, symObjAddr: 0x45B50, symBinAddr: 0xB6174, symSize: 0x54C }
  - { offset: 0x57D4B6, size: 0x8, addend: 0x0, symName: __ZNSt3__111basic_regexIcNS_12regex_traitsIcEEE25__parse_equivalence_classIPKcEET_S7_S7_PNS_20__bracket_expressionIcS2_EE, symObjAddr: 0x4609C, symBinAddr: 0xB66C0, symSize: 0x258 }
  - { offset: 0x57DF2A, size: 0x8, addend: 0x0, symName: __ZNSt3__111basic_regexIcNS_12regex_traitsIcEEE18__parse_awk_escapeIPKcEET_S7_S7_PNS_12basic_stringIcNS_11char_traitsIcEENS_9allocatorIcEEEE, symObjAddr: 0x46548, symBinAddr: 0xB6B6C, symSize: 0x2E4 }
  - { offset: 0x57E04F, size: 0x8, addend: 0x0, symName: __ZNSt3__111basic_regexIcNS_12regex_traitsIcEEE24__parse_collating_symbolIPKcEET_S7_S7_RNS_12basic_stringIcNS_11char_traitsIcEENS_9allocatorIcEEEE, symObjAddr: 0x462F4, symBinAddr: 0xB6918, symSize: 0xD0 }
  - { offset: 0x57E3C5, size: 0x8, addend: 0x0, symName: __ZNSt3__111basic_regexIcNS_12regex_traitsIcEEE20__parse_class_escapeIPKcEET_S7_S7_RNS_12basic_stringIcNS_11char_traitsIcEENS_9allocatorIcEEEEPNS_20__bracket_expressionIcS2_EE, symObjAddr: 0x463C4, symBinAddr: 0xB69E8, symSize: 0x184 }
  - { offset: 0x57E3D0, size: 0x8, addend: 0x0, symName: __ZNKSt3__112regex_traitsIcE20__lookup_collatenameIPKcEENS_12basic_stringIcNS_11char_traitsIcEENS_9allocatorIcEEEET_SB_c, symObjAddr: 0x46ED0, symBinAddr: 0xB6E50, symSize: 0x234 }
  - { offset: 0x57EECB, size: 0x8, addend: 0x0, symName: __ZNKSt3__112regex_traitsIcE18__lookup_classnameIPKcEEjT_S5_bc, symObjAddr: 0x474AC, symBinAddr: 0xB7084, symSize: 0x14C }
  - { offset: 0x57FBBA, size: 0x8, addend: 0x0, symName: __ZNSt3__111basic_regexIcNS_12regex_traitsIcEEE20__parse_class_escapeIPKcEET_S7_S7_RNS_12basic_stringIcNS_11char_traitsIcEENS_9allocatorIcEEEEPNS_20__bracket_expressionIcS2_EE, symObjAddr: 0x463C4, symBinAddr: 0xB69E8, symSize: 0x184 }
  - { offset: 0x57FD52, size: 0x8, addend: 0x0, symName: __ZNSt3__111basic_regexIcNS_12regex_traitsIcEEE18__parse_awk_escapeIPKcEET_S7_S7_PNS_12basic_stringIcNS_11char_traitsIcEENS_9allocatorIcEEEE, symObjAddr: 0x46548, symBinAddr: 0xB6B6C, symSize: 0x2E4 }
  - { offset: 0x582EB5, size: 0x8, addend: 0x0, symName: __ZNSt3__111basic_regexIcNS_12regex_traitsIcEEE22__parse_ERE_expressionIPKcEET_S7_S7_, symObjAddr: 0x48A84, symBinAddr: 0xB773C, symSize: 0x1F0 }
  - { offset: 0x582EC0, size: 0x8, addend: 0x0, symName: __ZNSt3__111basic_regexIcNS_12regex_traitsIcEEE33__parse_one_char_or_coll_elem_EREIPKcEET_S7_S7_, symObjAddr: 0x48C74, symBinAddr: 0xB792C, symSize: 0x158 }
  - { offset: 0x5830A9, size: 0x8, addend: 0x0, symName: __ZNSt3__111basic_regexIcNS_12regex_traitsIcEEE23__parse_QUOTED_CHAR_EREIPKcEET_S7_S7_, symObjAddr: 0x48DCC, symBinAddr: 0xB7A84, symSize: 0xD8 }
  - { offset: 0x589206, size: 0x8, addend: 0x0, symName: __ZNSt3__13mapI23llama_rope_scaling_typePKcNS_4lessIS1_EENS_9allocatorINS_4pairIKS1_S3_EEEEEC2B8ne200100ESt16initializer_listIS9_ERKS5_, symObjAddr: 0x4BB2C, symBinAddr: 0xB7B5C, symSize: 0xEC }
  - { offset: 0x589591, size: 0x8, addend: 0x0, symName: __ZNSt3__16__treeINS_12__value_typeI23llama_rope_scaling_typePKcEENS_19__map_value_compareIS2_S5_NS_4lessIS2_EELb1EEENS_9allocatorIS5_EEE12__find_equalIS2_EERPNS_16__tree_node_baseIPvEENS_21__tree_const_iteratorIS5_PNS_11__tree_nodeIS5_SF_EElEERPNS_15__tree_end_nodeISH_EESI_RKT_, symObjAddr: 0x4BC18, symBinAddr: 0xB7C48, symSize: 0x1B0 }
  - { offset: 0x5895F4, size: 0x8, addend: 0x0, symName: __ZNSt3__16__treeINS_12__value_typeI23llama_rope_scaling_typePKcEENS_19__map_value_compareIS2_S5_NS_4lessIS2_EELb1EEENS_9allocatorIS5_EEE12__find_equalIS2_EERPNS_16__tree_node_baseIPvEENS_21__tree_const_iteratorIS5_PNS_11__tree_nodeIS5_SF_EElEERPNS_15__tree_end_nodeISH_EESI_RKT_, symObjAddr: 0x4BC18, symBinAddr: 0xB7C48, symSize: 0x1B0 }
  - { offset: 0x589610, size: 0x8, addend: 0x0, symName: __ZNSt3__16__treeINS_12__value_typeI23llama_rope_scaling_typePKcEENS_19__map_value_compareIS2_S5_NS_4lessIS2_EELb1EEENS_9allocatorIS5_EEE12__find_equalIS2_EERPNS_16__tree_node_baseIPvEENS_21__tree_const_iteratorIS5_PNS_11__tree_nodeIS5_SF_EElEERPNS_15__tree_end_nodeISH_EESI_RKT_, symObjAddr: 0x4BC18, symBinAddr: 0xB7C48, symSize: 0x1B0 }
  - { offset: 0x589ED7, size: 0x8, addend: 0x0, symName: __ZNSt3__16__treeINS_12__value_typeIP19ggml_backend_deviceNS_6vectorINS_4pairIS3_P24ggml_backend_buffer_typeEENS_9allocatorIS8_EEEEEENS_19__map_value_compareIS3_SC_NS_4lessIS3_EELb1EEENS9_ISC_EEE7destroyEPNS_11__tree_nodeISC_PvEE, symObjAddr: 0x4BF78, symBinAddr: 0xB7FA8, symSize: 0x50 }
  - { offset: 0x58A18D, size: 0x8, addend: 0x0, symName: __ZNSt3__16vectorINS_4pairINS_10unique_ptrI12ggml_context20ggml_context_deleterEENS0_INS2_I19ggml_backend_buffer27ggml_backend_buffer_deleterEENS_9allocatorIS8_EEEEEENS9_ISC_EEE22__base_destruct_at_endB8ne200100EPSC_, symObjAddr: 0x4BFC8, symBinAddr: 0xB7FF8, symSize: 0xA8 }
  - { offset: 0x58C672, size: 0x8, addend: 0x0, symName: __ZNSt3__16vectorIN11llama_model4impl9layer_devENS_9allocatorIS3_EEE20__throw_length_errorB8ne200100Ev, symObjAddr: 0x4D408, symBinAddr: 0xB8700, symSize: 0x14 }
  - { offset: 0x58C68A, size: 0x8, addend: 0x0, symName: __ZNSt3__16__treeINS_12__value_typeIP24ggml_backend_buffer_typeNS_10unique_ptrI12ggml_context20ggml_context_deleterEEEENS_19__map_value_compareIS3_S8_ZN11llama_model12load_tensorsER18llama_model_loaderE28ggml_backend_buft_comparatorLb1EEENS_9allocatorIS8_EEE7destroyEPNS_11__tree_nodeIS8_PvEE, symObjAddr: 0x4D41C, symBinAddr: 0xB8714, symSize: 0x54 }
  - { offset: 0x58CA4B, size: 0x8, addend: 0x0, symName: __ZNSt3__16vectorI11llama_layerNS_9allocatorIS1_EEE20__throw_length_errorB8ne200100Ev, symObjAddr: 0x4D630, symBinAddr: 0xB8928, symSize: 0x14 }
  - { offset: 0x58CCD6, size: 0x8, addend: 0x0, symName: __ZNSt3__112__hash_tableINS_17__hash_value_typeIjP19ggml_backend_bufferEENS_22__unordered_map_hasherIjS4_NS_4hashIjEENS_8equal_toIjEELb1EEENS_21__unordered_map_equalIjS4_S9_S7_Lb1EEENS_9allocatorIS4_EEED1Ev, symObjAddr: 0x4D8F0, symBinAddr: 0xB8BD4, symSize: 0x48 }
  - { offset: 0x58D5C8, size: 0x8, addend: 0x0, symName: __ZNSt3__112__hash_tableINS_17__hash_value_typeIjP19ggml_backend_bufferEENS_22__unordered_map_hasherIjS4_NS_4hashIjEENS_8equal_toIjEELb1EEENS_21__unordered_map_equalIjS4_S9_S7_Lb1EEENS_9allocatorIS4_EEE25__emplace_unique_key_argsIjJRKNS_4pairIKjS3_EEEEENSH_INS_15__hash_iteratorIPNS_11__hash_nodeIS4_PvEEEEbEERKT_DpOT0_, symObjAddr: 0x4E1AC, symBinAddr: 0xB9468, symSize: 0x300 }
  - { offset: 0x58DE29, size: 0x8, addend: 0x0, symName: '__ZNSt3__110__function6__funcIZNK11llama_model10print_infoEvE3$_0NS_9allocatorIS3_EEFjjEED1Ev', symObjAddr: 0x4E568, symBinAddr: 0xB97E0, symSize: 0x4 }
  - { offset: 0x58DE55, size: 0x8, addend: 0x0, symName: '__ZNSt3__110__function6__funcIZNK11llama_model10print_infoEvE3$_0NS_9allocatorIS3_EEFjjEED0Ev', symObjAddr: 0x4E56C, symBinAddr: 0xB97E4, symSize: 0x4 }
  - { offset: 0x58DF0C, size: 0x8, addend: 0x0, symName: '__ZNKSt3__110__function6__funcIZNK11llama_model10print_infoEvE3$_0NS_9allocatorIS3_EEFjjEE7__cloneEv', symObjAddr: 0x4E570, symBinAddr: 0xB97E8, symSize: 0x34 }
  - { offset: 0x58E05C, size: 0x8, addend: 0x0, symName: '__ZNKSt3__110__function6__funcIZNK11llama_model10print_infoEvE3$_0NS_9allocatorIS3_EEFjjEE7__cloneEPNS0_6__baseIS6_EE', symObjAddr: 0x4E5A4, symBinAddr: 0xB981C, symSize: 0x14 }
  - { offset: 0x58E0C9, size: 0x8, addend: 0x0, symName: '__ZNSt3__110__function6__funcIZNK11llama_model10print_infoEvE3$_0NS_9allocatorIS3_EEFjjEE7destroyEv', symObjAddr: 0x4E5B8, symBinAddr: 0xB9830, symSize: 0x4 }
  - { offset: 0x58E11E, size: 0x8, addend: 0x0, symName: '__ZNSt3__110__function6__funcIZNK11llama_model10print_infoEvE3$_0NS_9allocatorIS3_EEFjjEE18destroy_deallocateEv', symObjAddr: 0x4E5BC, symBinAddr: 0xB9834, symSize: 0x4 }
  - { offset: 0x58E151, size: 0x8, addend: 0x0, symName: '__ZNSt3__110__function6__funcIZNK11llama_model10print_infoEvE3$_0NS_9allocatorIS3_EEFjjEE18destroy_deallocateEv', symObjAddr: 0x4E5BC, symBinAddr: 0xB9834, symSize: 0x4 }
  - { offset: 0x58E174, size: 0x8, addend: 0x0, symName: '__ZNSt3__110__function6__funcIZNK11llama_model10print_infoEvE3$_0NS_9allocatorIS3_EEFjjEE18destroy_deallocateEv', symObjAddr: 0x4E5BC, symBinAddr: 0xB9834, symSize: 0x4 }
  - { offset: 0x58E1A7, size: 0x8, addend: 0x0, symName: '__ZNSt3__110__function6__funcIZNK11llama_model10print_infoEvE3$_0NS_9allocatorIS3_EEFjjEE18destroy_deallocateEv', symObjAddr: 0x4E5BC, symBinAddr: 0xB9834, symSize: 0x4 }
  - { offset: 0x58E24A, size: 0x8, addend: 0x0, symName: '__ZNSt3__110__function6__funcIZNK11llama_model10print_infoEvE3$_0NS_9allocatorIS3_EEFjjEEclEOj', symObjAddr: 0x4E5C0, symBinAddr: 0xB9838, symSize: 0x10 }
  - { offset: 0x58E2F3, size: 0x8, addend: 0x0, symName: '__ZNKSt3__110__function6__funcIZNK11llama_model10print_infoEvE3$_0NS_9allocatorIS3_EEFjjEE6targetERKSt9type_info', symObjAddr: 0x4E5D0, symBinAddr: 0xB9848, symSize: 0x64 }
  - { offset: 0x58E3A7, size: 0x8, addend: 0x0, symName: '__ZNKSt3__110__function6__funcIZNK11llama_model10print_infoEvE3$_0NS_9allocatorIS3_EEFjjEE11target_typeEv', symObjAddr: 0x4E634, symBinAddr: 0xB98AC, symSize: 0xC }
  - { offset: 0x58E3CA, size: 0x8, addend: 0x0, symName: '__ZNSt3__110__function6__funcIZNK11llama_model10print_infoEvE3$_1NS_9allocatorIS3_EEFjjEED1Ev', symObjAddr: 0x4E640, symBinAddr: 0xB98B8, symSize: 0x4 }
  - { offset: 0x58E3F6, size: 0x8, addend: 0x0, symName: '__ZNSt3__110__function6__funcIZNK11llama_model10print_infoEvE3$_1NS_9allocatorIS3_EEFjjEED0Ev', symObjAddr: 0x4E644, symBinAddr: 0xB98BC, symSize: 0x4 }
  - { offset: 0x58E4AD, size: 0x8, addend: 0x0, symName: '__ZNKSt3__110__function6__funcIZNK11llama_model10print_infoEvE3$_1NS_9allocatorIS3_EEFjjEE7__cloneEv', symObjAddr: 0x4E648, symBinAddr: 0xB98C0, symSize: 0x34 }
  - { offset: 0x58E5FD, size: 0x8, addend: 0x0, symName: '__ZNKSt3__110__function6__funcIZNK11llama_model10print_infoEvE3$_1NS_9allocatorIS3_EEFjjEE7__cloneEPNS0_6__baseIS6_EE', symObjAddr: 0x4E67C, symBinAddr: 0xB98F4, symSize: 0x14 }
  - { offset: 0x58E66A, size: 0x8, addend: 0x0, symName: '__ZNSt3__110__function6__funcIZNK11llama_model10print_infoEvE3$_1NS_9allocatorIS3_EEFjjEE7destroyEv', symObjAddr: 0x4E690, symBinAddr: 0xB9908, symSize: 0x4 }
  - { offset: 0x58E6BF, size: 0x8, addend: 0x0, symName: '__ZNSt3__110__function6__funcIZNK11llama_model10print_infoEvE3$_1NS_9allocatorIS3_EEFjjEE18destroy_deallocateEv', symObjAddr: 0x4E694, symBinAddr: 0xB990C, symSize: 0x4 }
  - { offset: 0x58E6F2, size: 0x8, addend: 0x0, symName: '__ZNSt3__110__function6__funcIZNK11llama_model10print_infoEvE3$_1NS_9allocatorIS3_EEFjjEE18destroy_deallocateEv', symObjAddr: 0x4E694, symBinAddr: 0xB990C, symSize: 0x4 }
  - { offset: 0x58E715, size: 0x8, addend: 0x0, symName: '__ZNSt3__110__function6__funcIZNK11llama_model10print_infoEvE3$_1NS_9allocatorIS3_EEFjjEE18destroy_deallocateEv', symObjAddr: 0x4E694, symBinAddr: 0xB990C, symSize: 0x4 }
  - { offset: 0x58E748, size: 0x8, addend: 0x0, symName: '__ZNSt3__110__function6__funcIZNK11llama_model10print_infoEvE3$_1NS_9allocatorIS3_EEFjjEE18destroy_deallocateEv', symObjAddr: 0x4E694, symBinAddr: 0xB990C, symSize: 0x4 }
  - { offset: 0x58E7EB, size: 0x8, addend: 0x0, symName: '__ZNSt3__110__function6__funcIZNK11llama_model10print_infoEvE3$_1NS_9allocatorIS3_EEFjjEEclEOj', symObjAddr: 0x4E698, symBinAddr: 0xB9910, symSize: 0x10 }
  - { offset: 0x58E894, size: 0x8, addend: 0x0, symName: '__ZNKSt3__110__function6__funcIZNK11llama_model10print_infoEvE3$_1NS_9allocatorIS3_EEFjjEE6targetERKSt9type_info', symObjAddr: 0x4E6A8, symBinAddr: 0xB9920, symSize: 0x64 }
  - { offset: 0x58E948, size: 0x8, addend: 0x0, symName: '__ZNKSt3__110__function6__funcIZNK11llama_model10print_infoEvE3$_1NS_9allocatorIS3_EEFjjEE11target_typeEv', symObjAddr: 0x4E70C, symBinAddr: 0xB9984, symSize: 0xC }
  - { offset: 0x58E96B, size: 0x8, addend: 0x0, symName: '__ZNSt3__110__function6__funcIZNK11llama_model10print_infoEvE3$_2NS_9allocatorIS3_EEFjjEED1Ev', symObjAddr: 0x4E718, symBinAddr: 0xB9990, symSize: 0x4 }
  - { offset: 0x58E997, size: 0x8, addend: 0x0, symName: '__ZNSt3__110__function6__funcIZNK11llama_model10print_infoEvE3$_2NS_9allocatorIS3_EEFjjEED0Ev', symObjAddr: 0x4E71C, symBinAddr: 0xB9994, symSize: 0x4 }
  - { offset: 0x58EA4E, size: 0x8, addend: 0x0, symName: '__ZNKSt3__110__function6__funcIZNK11llama_model10print_infoEvE3$_2NS_9allocatorIS3_EEFjjEE7__cloneEv', symObjAddr: 0x4E720, symBinAddr: 0xB9998, symSize: 0x34 }
  - { offset: 0x58EB9E, size: 0x8, addend: 0x0, symName: '__ZNKSt3__110__function6__funcIZNK11llama_model10print_infoEvE3$_2NS_9allocatorIS3_EEFjjEE7__cloneEPNS0_6__baseIS6_EE', symObjAddr: 0x4E754, symBinAddr: 0xB99CC, symSize: 0x14 }
  - { offset: 0x58EC0B, size: 0x8, addend: 0x0, symName: '__ZNSt3__110__function6__funcIZNK11llama_model10print_infoEvE3$_2NS_9allocatorIS3_EEFjjEE7destroyEv', symObjAddr: 0x4E768, symBinAddr: 0xB99E0, symSize: 0x4 }
  - { offset: 0x58EC60, size: 0x8, addend: 0x0, symName: '__ZNSt3__110__function6__funcIZNK11llama_model10print_infoEvE3$_2NS_9allocatorIS3_EEFjjEE18destroy_deallocateEv', symObjAddr: 0x4E76C, symBinAddr: 0xB99E4, symSize: 0x4 }
  - { offset: 0x58EC93, size: 0x8, addend: 0x0, symName: '__ZNSt3__110__function6__funcIZNK11llama_model10print_infoEvE3$_2NS_9allocatorIS3_EEFjjEE18destroy_deallocateEv', symObjAddr: 0x4E76C, symBinAddr: 0xB99E4, symSize: 0x4 }
  - { offset: 0x58ECB6, size: 0x8, addend: 0x0, symName: '__ZNSt3__110__function6__funcIZNK11llama_model10print_infoEvE3$_2NS_9allocatorIS3_EEFjjEE18destroy_deallocateEv', symObjAddr: 0x4E76C, symBinAddr: 0xB99E4, symSize: 0x4 }
  - { offset: 0x58ECE9, size: 0x8, addend: 0x0, symName: '__ZNSt3__110__function6__funcIZNK11llama_model10print_infoEvE3$_2NS_9allocatorIS3_EEFjjEE18destroy_deallocateEv', symObjAddr: 0x4E76C, symBinAddr: 0xB99E4, symSize: 0x4 }
  - { offset: 0x58ED8C, size: 0x8, addend: 0x0, symName: '__ZNSt3__110__function6__funcIZNK11llama_model10print_infoEvE3$_2NS_9allocatorIS3_EEFjjEEclEOj', symObjAddr: 0x4E770, symBinAddr: 0xB99E8, symSize: 0x10 }
  - { offset: 0x58EE35, size: 0x8, addend: 0x0, symName: '__ZNKSt3__110__function6__funcIZNK11llama_model10print_infoEvE3$_2NS_9allocatorIS3_EEFjjEE6targetERKSt9type_info', symObjAddr: 0x4E780, symBinAddr: 0xB99F8, symSize: 0x64 }
  - { offset: 0x58EEE9, size: 0x8, addend: 0x0, symName: '__ZNKSt3__110__function6__funcIZNK11llama_model10print_infoEvE3$_2NS_9allocatorIS3_EEFjjEE11target_typeEv', symObjAddr: 0x4E7E4, symBinAddr: 0xB9A5C, symSize: 0xC }
  - { offset: 0x58EF0C, size: 0x8, addend: 0x0, symName: '__ZNSt3__110__function6__funcIZNK11llama_model10print_infoEvE3$_3NS_9allocatorIS3_EEFjjEED1Ev', symObjAddr: 0x4E7F0, symBinAddr: 0xB9A68, symSize: 0x4 }
  - { offset: 0x58EF38, size: 0x8, addend: 0x0, symName: '__ZNSt3__110__function6__funcIZNK11llama_model10print_infoEvE3$_3NS_9allocatorIS3_EEFjjEED0Ev', symObjAddr: 0x4E7F4, symBinAddr: 0xB9A6C, symSize: 0x4 }
  - { offset: 0x58EFEF, size: 0x8, addend: 0x0, symName: '__ZNKSt3__110__function6__funcIZNK11llama_model10print_infoEvE3$_3NS_9allocatorIS3_EEFjjEE7__cloneEv', symObjAddr: 0x4E7F8, symBinAddr: 0xB9A70, symSize: 0x34 }
  - { offset: 0x58F13F, size: 0x8, addend: 0x0, symName: '__ZNKSt3__110__function6__funcIZNK11llama_model10print_infoEvE3$_3NS_9allocatorIS3_EEFjjEE7__cloneEPNS0_6__baseIS6_EE', symObjAddr: 0x4E82C, symBinAddr: 0xB9AA4, symSize: 0x14 }
  - { offset: 0x58F1AC, size: 0x8, addend: 0x0, symName: '__ZNSt3__110__function6__funcIZNK11llama_model10print_infoEvE3$_3NS_9allocatorIS3_EEFjjEE7destroyEv', symObjAddr: 0x4E840, symBinAddr: 0xB9AB8, symSize: 0x4 }
  - { offset: 0x58F201, size: 0x8, addend: 0x0, symName: '__ZNSt3__110__function6__funcIZNK11llama_model10print_infoEvE3$_3NS_9allocatorIS3_EEFjjEE18destroy_deallocateEv', symObjAddr: 0x4E844, symBinAddr: 0xB9ABC, symSize: 0x4 }
  - { offset: 0x58F234, size: 0x8, addend: 0x0, symName: '__ZNSt3__110__function6__funcIZNK11llama_model10print_infoEvE3$_3NS_9allocatorIS3_EEFjjEE18destroy_deallocateEv', symObjAddr: 0x4E844, symBinAddr: 0xB9ABC, symSize: 0x4 }
  - { offset: 0x58F257, size: 0x8, addend: 0x0, symName: '__ZNSt3__110__function6__funcIZNK11llama_model10print_infoEvE3$_3NS_9allocatorIS3_EEFjjEE18destroy_deallocateEv', symObjAddr: 0x4E844, symBinAddr: 0xB9ABC, symSize: 0x4 }
  - { offset: 0x58F28A, size: 0x8, addend: 0x0, symName: '__ZNSt3__110__function6__funcIZNK11llama_model10print_infoEvE3$_3NS_9allocatorIS3_EEFjjEE18destroy_deallocateEv', symObjAddr: 0x4E844, symBinAddr: 0xB9ABC, symSize: 0x4 }
  - { offset: 0x58F32D, size: 0x8, addend: 0x0, symName: '__ZNSt3__110__function6__funcIZNK11llama_model10print_infoEvE3$_3NS_9allocatorIS3_EEFjjEEclEOj', symObjAddr: 0x4E848, symBinAddr: 0xB9AC0, symSize: 0x10 }
  - { offset: 0x58F3D6, size: 0x8, addend: 0x0, symName: '__ZNKSt3__110__function6__funcIZNK11llama_model10print_infoEvE3$_3NS_9allocatorIS3_EEFjjEE6targetERKSt9type_info', symObjAddr: 0x4E858, symBinAddr: 0xB9AD0, symSize: 0x64 }
  - { offset: 0x58F48A, size: 0x8, addend: 0x0, symName: '__ZNKSt3__110__function6__funcIZNK11llama_model10print_infoEvE3$_3NS_9allocatorIS3_EEFjjEE11target_typeEv', symObjAddr: 0x4E8BC, symBinAddr: 0xB9B34, symSize: 0xC }
  - { offset: 0x58F4AD, size: 0x8, addend: 0x0, symName: '__ZNSt3__110__function6__funcIZNK11llama_model10print_infoEvE3$_4NS_9allocatorIS3_EEFjjEED1Ev', symObjAddr: 0x4E8C8, symBinAddr: 0xB9B40, symSize: 0x4 }
  - { offset: 0x58F4D9, size: 0x8, addend: 0x0, symName: '__ZNSt3__110__function6__funcIZNK11llama_model10print_infoEvE3$_4NS_9allocatorIS3_EEFjjEED0Ev', symObjAddr: 0x4E8CC, symBinAddr: 0xB9B44, symSize: 0x4 }
  - { offset: 0x58F590, size: 0x8, addend: 0x0, symName: '__ZNKSt3__110__function6__funcIZNK11llama_model10print_infoEvE3$_4NS_9allocatorIS3_EEFjjEE7__cloneEv', symObjAddr: 0x4E8D0, symBinAddr: 0xB9B48, symSize: 0x34 }
  - { offset: 0x58F6E0, size: 0x8, addend: 0x0, symName: '__ZNKSt3__110__function6__funcIZNK11llama_model10print_infoEvE3$_4NS_9allocatorIS3_EEFjjEE7__cloneEPNS0_6__baseIS6_EE', symObjAddr: 0x4E904, symBinAddr: 0xB9B7C, symSize: 0x14 }
  - { offset: 0x58F74D, size: 0x8, addend: 0x0, symName: '__ZNSt3__110__function6__funcIZNK11llama_model10print_infoEvE3$_4NS_9allocatorIS3_EEFjjEE7destroyEv', symObjAddr: 0x4E918, symBinAddr: 0xB9B90, symSize: 0x4 }
  - { offset: 0x58F7A2, size: 0x8, addend: 0x0, symName: '__ZNSt3__110__function6__funcIZNK11llama_model10print_infoEvE3$_4NS_9allocatorIS3_EEFjjEE18destroy_deallocateEv', symObjAddr: 0x4E91C, symBinAddr: 0xB9B94, symSize: 0x4 }
  - { offset: 0x58F7D5, size: 0x8, addend: 0x0, symName: '__ZNSt3__110__function6__funcIZNK11llama_model10print_infoEvE3$_4NS_9allocatorIS3_EEFjjEE18destroy_deallocateEv', symObjAddr: 0x4E91C, symBinAddr: 0xB9B94, symSize: 0x4 }
  - { offset: 0x58F7F8, size: 0x8, addend: 0x0, symName: '__ZNSt3__110__function6__funcIZNK11llama_model10print_infoEvE3$_4NS_9allocatorIS3_EEFjjEE18destroy_deallocateEv', symObjAddr: 0x4E91C, symBinAddr: 0xB9B94, symSize: 0x4 }
  - { offset: 0x58F82B, size: 0x8, addend: 0x0, symName: '__ZNSt3__110__function6__funcIZNK11llama_model10print_infoEvE3$_4NS_9allocatorIS3_EEFjjEE18destroy_deallocateEv', symObjAddr: 0x4E91C, symBinAddr: 0xB9B94, symSize: 0x4 }
  - { offset: 0x58F8CE, size: 0x8, addend: 0x0, symName: '__ZNSt3__110__function6__funcIZNK11llama_model10print_infoEvE3$_4NS_9allocatorIS3_EEFjjEEclEOj', symObjAddr: 0x4E920, symBinAddr: 0xB9B98, symSize: 0x10 }
  - { offset: 0x58F977, size: 0x8, addend: 0x0, symName: '__ZNKSt3__110__function6__funcIZNK11llama_model10print_infoEvE3$_4NS_9allocatorIS3_EEFjjEE6targetERKSt9type_info', symObjAddr: 0x4E930, symBinAddr: 0xB9BA8, symSize: 0x64 }
  - { offset: 0x58FA2B, size: 0x8, addend: 0x0, symName: '__ZNKSt3__110__function6__funcIZNK11llama_model10print_infoEvE3$_4NS_9allocatorIS3_EEFjjEE11target_typeEv', symObjAddr: 0x4E994, symBinAddr: 0xB9C0C, symSize: 0xC }
  - { offset: 0x58FA4E, size: 0x8, addend: 0x0, symName: '__ZNSt3__110__function6__funcIZNK11llama_model10print_infoEvE3$_5NS_9allocatorIS3_EEFjjEED1Ev', symObjAddr: 0x4E9A0, symBinAddr: 0xB9C18, symSize: 0x4 }
  - { offset: 0x58FA7A, size: 0x8, addend: 0x0, symName: '__ZNSt3__110__function6__funcIZNK11llama_model10print_infoEvE3$_5NS_9allocatorIS3_EEFjjEED0Ev', symObjAddr: 0x4E9A4, symBinAddr: 0xB9C1C, symSize: 0x4 }
  - { offset: 0x58FB31, size: 0x8, addend: 0x0, symName: '__ZNKSt3__110__function6__funcIZNK11llama_model10print_infoEvE3$_5NS_9allocatorIS3_EEFjjEE7__cloneEv', symObjAddr: 0x4E9A8, symBinAddr: 0xB9C20, symSize: 0x34 }
  - { offset: 0x58FC81, size: 0x8, addend: 0x0, symName: '__ZNKSt3__110__function6__funcIZNK11llama_model10print_infoEvE3$_5NS_9allocatorIS3_EEFjjEE7__cloneEPNS0_6__baseIS6_EE', symObjAddr: 0x4E9DC, symBinAddr: 0xB9C54, symSize: 0x14 }
  - { offset: 0x58FCEE, size: 0x8, addend: 0x0, symName: '__ZNSt3__110__function6__funcIZNK11llama_model10print_infoEvE3$_5NS_9allocatorIS3_EEFjjEE7destroyEv', symObjAddr: 0x4E9F0, symBinAddr: 0xB9C68, symSize: 0x4 }
  - { offset: 0x58FD43, size: 0x8, addend: 0x0, symName: '__ZNSt3__110__function6__funcIZNK11llama_model10print_infoEvE3$_5NS_9allocatorIS3_EEFjjEE18destroy_deallocateEv', symObjAddr: 0x4E9F4, symBinAddr: 0xB9C6C, symSize: 0x4 }
  - { offset: 0x58FD76, size: 0x8, addend: 0x0, symName: '__ZNSt3__110__function6__funcIZNK11llama_model10print_infoEvE3$_5NS_9allocatorIS3_EEFjjEE18destroy_deallocateEv', symObjAddr: 0x4E9F4, symBinAddr: 0xB9C6C, symSize: 0x4 }
  - { offset: 0x58FD99, size: 0x8, addend: 0x0, symName: '__ZNSt3__110__function6__funcIZNK11llama_model10print_infoEvE3$_5NS_9allocatorIS3_EEFjjEE18destroy_deallocateEv', symObjAddr: 0x4E9F4, symBinAddr: 0xB9C6C, symSize: 0x4 }
  - { offset: 0x58FDCC, size: 0x8, addend: 0x0, symName: '__ZNSt3__110__function6__funcIZNK11llama_model10print_infoEvE3$_5NS_9allocatorIS3_EEFjjEE18destroy_deallocateEv', symObjAddr: 0x4E9F4, symBinAddr: 0xB9C6C, symSize: 0x4 }
  - { offset: 0x58FE6F, size: 0x8, addend: 0x0, symName: '__ZNSt3__110__function6__funcIZNK11llama_model10print_infoEvE3$_5NS_9allocatorIS3_EEFjjEEclEOj', symObjAddr: 0x4E9F8, symBinAddr: 0xB9C70, symSize: 0x10 }
  - { offset: 0x58FF18, size: 0x8, addend: 0x0, symName: '__ZNKSt3__110__function6__funcIZNK11llama_model10print_infoEvE3$_5NS_9allocatorIS3_EEFjjEE6targetERKSt9type_info', symObjAddr: 0x4EA08, symBinAddr: 0xB9C80, symSize: 0x64 }
  - { offset: 0x58FFCC, size: 0x8, addend: 0x0, symName: '__ZNKSt3__110__function6__funcIZNK11llama_model10print_infoEvE3$_5NS_9allocatorIS3_EEFjjEE11target_typeEv', symObjAddr: 0x4EA6C, symBinAddr: 0xB9CE4, symSize: 0xC }
  - { offset: 0x58FFEF, size: 0x8, addend: 0x0, symName: '__ZNSt3__110__function6__funcIZNK11llama_model13create_memoryERK19llama_memory_paramsRK13llama_cparamsE3$_0NS_9allocatorIS9_EEFbiEED1Ev', symObjAddr: 0x4EA78, symBinAddr: 0xB9CF0, symSize: 0x4 }
  - { offset: 0x59001B, size: 0x8, addend: 0x0, symName: '__ZNSt3__110__function6__funcIZNK11llama_model13create_memoryERK19llama_memory_paramsRK13llama_cparamsE3$_0NS_9allocatorIS9_EEFbiEED0Ev', symObjAddr: 0x4EA7C, symBinAddr: 0xB9CF4, symSize: 0x4 }
  - { offset: 0x5900D2, size: 0x8, addend: 0x0, symName: '__ZNKSt3__110__function6__funcIZNK11llama_model13create_memoryERK19llama_memory_paramsRK13llama_cparamsE3$_0NS_9allocatorIS9_EEFbiEE7__cloneEv', symObjAddr: 0x4EA80, symBinAddr: 0xB9CF8, symSize: 0x24 }
  - { offset: 0x59021E, size: 0x8, addend: 0x0, symName: '__ZNKSt3__110__function6__funcIZNK11llama_model13create_memoryERK19llama_memory_paramsRK13llama_cparamsE3$_0NS_9allocatorIS9_EEFbiEE7__cloneEPNS0_6__baseISC_EE', symObjAddr: 0x4EAA4, symBinAddr: 0xB9D1C, symSize: 0x10 }
  - { offset: 0x590251, size: 0x8, addend: 0x0, symName: '__ZNKSt3__110__function6__funcIZNK11llama_model13create_memoryERK19llama_memory_paramsRK13llama_cparamsE3$_0NS_9allocatorIS9_EEFbiEE7__cloneEPNS0_6__baseISC_EE', symObjAddr: 0x4EAA4, symBinAddr: 0xB9D1C, symSize: 0x10 }
  - { offset: 0x59026D, size: 0x8, addend: 0x0, symName: '__ZNKSt3__110__function6__funcIZNK11llama_model13create_memoryERK19llama_memory_paramsRK13llama_cparamsE3$_0NS_9allocatorIS9_EEFbiEE7__cloneEPNS0_6__baseISC_EE', symObjAddr: 0x4EAA4, symBinAddr: 0xB9D1C, symSize: 0x10 }
  - { offset: 0x590289, size: 0x8, addend: 0x0, symName: '__ZNSt3__110__function6__funcIZNK11llama_model13create_memoryERK19llama_memory_paramsRK13llama_cparamsE3$_0NS_9allocatorIS9_EEFbiEE7destroyEv', symObjAddr: 0x4EAB4, symBinAddr: 0xB9D2C, symSize: 0x4 }
  - { offset: 0x5902DE, size: 0x8, addend: 0x0, symName: '__ZNSt3__110__function6__funcIZNK11llama_model13create_memoryERK19llama_memory_paramsRK13llama_cparamsE3$_0NS_9allocatorIS9_EEFbiEE18destroy_deallocateEv', symObjAddr: 0x4EAB8, symBinAddr: 0xB9D30, symSize: 0x4 }
  - { offset: 0x590311, size: 0x8, addend: 0x0, symName: '__ZNSt3__110__function6__funcIZNK11llama_model13create_memoryERK19llama_memory_paramsRK13llama_cparamsE3$_0NS_9allocatorIS9_EEFbiEE18destroy_deallocateEv', symObjAddr: 0x4EAB8, symBinAddr: 0xB9D30, symSize: 0x4 }
  - { offset: 0x590334, size: 0x8, addend: 0x0, symName: '__ZNSt3__110__function6__funcIZNK11llama_model13create_memoryERK19llama_memory_paramsRK13llama_cparamsE3$_0NS_9allocatorIS9_EEFbiEE18destroy_deallocateEv', symObjAddr: 0x4EAB8, symBinAddr: 0xB9D30, symSize: 0x4 }
  - { offset: 0x590367, size: 0x8, addend: 0x0, symName: '__ZNSt3__110__function6__funcIZNK11llama_model13create_memoryERK19llama_memory_paramsRK13llama_cparamsE3$_0NS_9allocatorIS9_EEFbiEE18destroy_deallocateEv', symObjAddr: 0x4EAB8, symBinAddr: 0xB9D30, symSize: 0x4 }
  - { offset: 0x59038F, size: 0x8, addend: 0x0, symName: '__ZNSt3__110__function6__funcIZNK11llama_model13create_memoryERK19llama_memory_paramsRK13llama_cparamsE3$_0NS_9allocatorIS9_EEFbiEEclEOi', symObjAddr: 0x4EABC, symBinAddr: 0xB9D34, symSize: 0x8 }
  - { offset: 0x5903BE, size: 0x8, addend: 0x0, symName: '__ZNKSt3__110__function6__funcIZNK11llama_model13create_memoryERK19llama_memory_paramsRK13llama_cparamsE3$_0NS_9allocatorIS9_EEFbiEE6targetERKSt9type_info', symObjAddr: 0x4EAC4, symBinAddr: 0xB9D3C, symSize: 0x64 }
  - { offset: 0x590472, size: 0x8, addend: 0x0, symName: '__ZNKSt3__110__function6__funcIZNK11llama_model13create_memoryERK19llama_memory_paramsRK13llama_cparamsE3$_0NS_9allocatorIS9_EEFbiEE11target_typeEv', symObjAddr: 0x4EB28, symBinAddr: 0xB9DA0, symSize: 0xC }
  - { offset: 0x59049B, size: 0x8, addend: 0x0, symName: '__ZNSt3__110__function6__funcIZNK11llama_model13create_memoryERK19llama_memory_paramsRK13llama_cparamsE3$_1NS_9allocatorIS9_EEFbiEED1Ev', symObjAddr: 0x4ECCC, symBinAddr: 0xB9F44, symSize: 0x4 }
  - { offset: 0x5904C7, size: 0x8, addend: 0x0, symName: '__ZNSt3__110__function6__funcIZNK11llama_model13create_memoryERK19llama_memory_paramsRK13llama_cparamsE3$_1NS_9allocatorIS9_EEFbiEED0Ev', symObjAddr: 0x4ECD0, symBinAddr: 0xB9F48, symSize: 0x4 }
  - { offset: 0x59057E, size: 0x8, addend: 0x0, symName: '__ZNKSt3__110__function6__funcIZNK11llama_model13create_memoryERK19llama_memory_paramsRK13llama_cparamsE3$_1NS_9allocatorIS9_EEFbiEE7__cloneEv', symObjAddr: 0x4ECD4, symBinAddr: 0xB9F4C, symSize: 0x24 }
  - { offset: 0x5906CA, size: 0x8, addend: 0x0, symName: '__ZNKSt3__110__function6__funcIZNK11llama_model13create_memoryERK19llama_memory_paramsRK13llama_cparamsE3$_1NS_9allocatorIS9_EEFbiEE7__cloneEPNS0_6__baseISC_EE', symObjAddr: 0x4ECF8, symBinAddr: 0xB9F70, symSize: 0x10 }
  - { offset: 0x5906FD, size: 0x8, addend: 0x0, symName: '__ZNKSt3__110__function6__funcIZNK11llama_model13create_memoryERK19llama_memory_paramsRK13llama_cparamsE3$_1NS_9allocatorIS9_EEFbiEE7__cloneEPNS0_6__baseISC_EE', symObjAddr: 0x4ECF8, symBinAddr: 0xB9F70, symSize: 0x10 }
  - { offset: 0x590719, size: 0x8, addend: 0x0, symName: '__ZNKSt3__110__function6__funcIZNK11llama_model13create_memoryERK19llama_memory_paramsRK13llama_cparamsE3$_1NS_9allocatorIS9_EEFbiEE7__cloneEPNS0_6__baseISC_EE', symObjAddr: 0x4ECF8, symBinAddr: 0xB9F70, symSize: 0x10 }
  - { offset: 0x590735, size: 0x8, addend: 0x0, symName: '__ZNSt3__110__function6__funcIZNK11llama_model13create_memoryERK19llama_memory_paramsRK13llama_cparamsE3$_1NS_9allocatorIS9_EEFbiEE7destroyEv', symObjAddr: 0x4ED08, symBinAddr: 0xB9F80, symSize: 0x4 }
  - { offset: 0x59078A, size: 0x8, addend: 0x0, symName: '__ZNSt3__110__function6__funcIZNK11llama_model13create_memoryERK19llama_memory_paramsRK13llama_cparamsE3$_1NS_9allocatorIS9_EEFbiEE18destroy_deallocateEv', symObjAddr: 0x4ED0C, symBinAddr: 0xB9F84, symSize: 0x4 }
  - { offset: 0x5907BD, size: 0x8, addend: 0x0, symName: '__ZNSt3__110__function6__funcIZNK11llama_model13create_memoryERK19llama_memory_paramsRK13llama_cparamsE3$_1NS_9allocatorIS9_EEFbiEE18destroy_deallocateEv', symObjAddr: 0x4ED0C, symBinAddr: 0xB9F84, symSize: 0x4 }
  - { offset: 0x5907E0, size: 0x8, addend: 0x0, symName: '__ZNSt3__110__function6__funcIZNK11llama_model13create_memoryERK19llama_memory_paramsRK13llama_cparamsE3$_1NS_9allocatorIS9_EEFbiEE18destroy_deallocateEv', symObjAddr: 0x4ED0C, symBinAddr: 0xB9F84, symSize: 0x4 }
  - { offset: 0x590813, size: 0x8, addend: 0x0, symName: '__ZNSt3__110__function6__funcIZNK11llama_model13create_memoryERK19llama_memory_paramsRK13llama_cparamsE3$_1NS_9allocatorIS9_EEFbiEE18destroy_deallocateEv', symObjAddr: 0x4ED0C, symBinAddr: 0xB9F84, symSize: 0x4 }
  - { offset: 0x59083B, size: 0x8, addend: 0x0, symName: '__ZNSt3__110__function6__funcIZNK11llama_model13create_memoryERK19llama_memory_paramsRK13llama_cparamsE3$_1NS_9allocatorIS9_EEFbiEEclEOi', symObjAddr: 0x4ED10, symBinAddr: 0xB9F88, symSize: 0x8 }
  - { offset: 0x59086A, size: 0x8, addend: 0x0, symName: '__ZNKSt3__110__function6__funcIZNK11llama_model13create_memoryERK19llama_memory_paramsRK13llama_cparamsE3$_1NS_9allocatorIS9_EEFbiEE6targetERKSt9type_info', symObjAddr: 0x4ED18, symBinAddr: 0xB9F90, symSize: 0x64 }
  - { offset: 0x59091E, size: 0x8, addend: 0x0, symName: '__ZNKSt3__110__function6__funcIZNK11llama_model13create_memoryERK19llama_memory_paramsRK13llama_cparamsE3$_1NS_9allocatorIS9_EEFbiEE11target_typeEv', symObjAddr: 0x4ED7C, symBinAddr: 0xB9FF4, symSize: 0xC }
  - { offset: 0x590941, size: 0x8, addend: 0x0, symName: '__ZNSt3__110__function6__funcIZNK11llama_model13create_memoryERK19llama_memory_paramsRK13llama_cparamsE3$_2NS_9allocatorIS9_EEFbiEED1Ev', symObjAddr: 0x4ED88, symBinAddr: 0xBA000, symSize: 0x4 }
  - { offset: 0x59096D, size: 0x8, addend: 0x0, symName: '__ZNSt3__110__function6__funcIZNK11llama_model13create_memoryERK19llama_memory_paramsRK13llama_cparamsE3$_2NS_9allocatorIS9_EEFbiEED0Ev', symObjAddr: 0x4ED8C, symBinAddr: 0xBA004, symSize: 0x4 }
  - { offset: 0x590A24, size: 0x8, addend: 0x0, symName: '__ZNKSt3__110__function6__funcIZNK11llama_model13create_memoryERK19llama_memory_paramsRK13llama_cparamsE3$_2NS_9allocatorIS9_EEFbiEE7__cloneEv', symObjAddr: 0x4ED90, symBinAddr: 0xBA008, symSize: 0x34 }
  - { offset: 0x590B74, size: 0x8, addend: 0x0, symName: '__ZNKSt3__110__function6__funcIZNK11llama_model13create_memoryERK19llama_memory_paramsRK13llama_cparamsE3$_2NS_9allocatorIS9_EEFbiEE7__cloneEPNS0_6__baseISC_EE', symObjAddr: 0x4EDC4, symBinAddr: 0xBA03C, symSize: 0x14 }
  - { offset: 0x590BE1, size: 0x8, addend: 0x0, symName: '__ZNSt3__110__function6__funcIZNK11llama_model13create_memoryERK19llama_memory_paramsRK13llama_cparamsE3$_2NS_9allocatorIS9_EEFbiEE7destroyEv', symObjAddr: 0x4EDD8, symBinAddr: 0xBA050, symSize: 0x4 }
  - { offset: 0x590C36, size: 0x8, addend: 0x0, symName: '__ZNSt3__110__function6__funcIZNK11llama_model13create_memoryERK19llama_memory_paramsRK13llama_cparamsE3$_2NS_9allocatorIS9_EEFbiEE18destroy_deallocateEv', symObjAddr: 0x4EDDC, symBinAddr: 0xBA054, symSize: 0x4 }
  - { offset: 0x590C69, size: 0x8, addend: 0x0, symName: '__ZNSt3__110__function6__funcIZNK11llama_model13create_memoryERK19llama_memory_paramsRK13llama_cparamsE3$_2NS_9allocatorIS9_EEFbiEE18destroy_deallocateEv', symObjAddr: 0x4EDDC, symBinAddr: 0xBA054, symSize: 0x4 }
  - { offset: 0x590C8C, size: 0x8, addend: 0x0, symName: '__ZNSt3__110__function6__funcIZNK11llama_model13create_memoryERK19llama_memory_paramsRK13llama_cparamsE3$_2NS_9allocatorIS9_EEFbiEE18destroy_deallocateEv', symObjAddr: 0x4EDDC, symBinAddr: 0xBA054, symSize: 0x4 }
  - { offset: 0x590CBF, size: 0x8, addend: 0x0, symName: '__ZNSt3__110__function6__funcIZNK11llama_model13create_memoryERK19llama_memory_paramsRK13llama_cparamsE3$_2NS_9allocatorIS9_EEFbiEE18destroy_deallocateEv', symObjAddr: 0x4EDDC, symBinAddr: 0xBA054, symSize: 0x4 }
  - { offset: 0x590D62, size: 0x8, addend: 0x0, symName: '__ZNSt3__110__function6__funcIZNK11llama_model13create_memoryERK19llama_memory_paramsRK13llama_cparamsE3$_2NS_9allocatorIS9_EEFbiEEclEOi', symObjAddr: 0x4EDE0, symBinAddr: 0xBA058, symSize: 0x54 }
  - { offset: 0x590DE5, size: 0x8, addend: 0x0, symName: '__ZNKSt3__110__function6__funcIZNK11llama_model13create_memoryERK19llama_memory_paramsRK13llama_cparamsE3$_2NS_9allocatorIS9_EEFbiEE6targetERKSt9type_info', symObjAddr: 0x4EE34, symBinAddr: 0xBA0AC, symSize: 0x64 }
  - { offset: 0x590E99, size: 0x8, addend: 0x0, symName: '__ZNKSt3__110__function6__funcIZNK11llama_model13create_memoryERK19llama_memory_paramsRK13llama_cparamsE3$_2NS_9allocatorIS9_EEFbiEE11target_typeEv', symObjAddr: 0x4EE98, symBinAddr: 0xBA110, symSize: 0xC }
  - { offset: 0x590EBC, size: 0x8, addend: 0x0, symName: '__ZNSt3__110__function6__funcIZNK11llama_model13create_memoryERK19llama_memory_paramsRK13llama_cparamsE3$_3NS_9allocatorIS9_EEFbiEED1Ev', symObjAddr: 0x4EEA4, symBinAddr: 0xBA11C, symSize: 0x4 }
  - { offset: 0x590EE8, size: 0x8, addend: 0x0, symName: '__ZNSt3__110__function6__funcIZNK11llama_model13create_memoryERK19llama_memory_paramsRK13llama_cparamsE3$_3NS_9allocatorIS9_EEFbiEED0Ev', symObjAddr: 0x4EEA8, symBinAddr: 0xBA120, symSize: 0x4 }
  - { offset: 0x590F9F, size: 0x8, addend: 0x0, symName: '__ZNKSt3__110__function6__funcIZNK11llama_model13create_memoryERK19llama_memory_paramsRK13llama_cparamsE3$_3NS_9allocatorIS9_EEFbiEE7__cloneEv', symObjAddr: 0x4EEAC, symBinAddr: 0xBA124, symSize: 0x34 }
  - { offset: 0x5910EF, size: 0x8, addend: 0x0, symName: '__ZNKSt3__110__function6__funcIZNK11llama_model13create_memoryERK19llama_memory_paramsRK13llama_cparamsE3$_3NS_9allocatorIS9_EEFbiEE7__cloneEPNS0_6__baseISC_EE', symObjAddr: 0x4EEE0, symBinAddr: 0xBA158, symSize: 0x14 }
  - { offset: 0x59115C, size: 0x8, addend: 0x0, symName: '__ZNSt3__110__function6__funcIZNK11llama_model13create_memoryERK19llama_memory_paramsRK13llama_cparamsE3$_3NS_9allocatorIS9_EEFbiEE7destroyEv', symObjAddr: 0x4EEF4, symBinAddr: 0xBA16C, symSize: 0x4 }
  - { offset: 0x5911B1, size: 0x8, addend: 0x0, symName: '__ZNSt3__110__function6__funcIZNK11llama_model13create_memoryERK19llama_memory_paramsRK13llama_cparamsE3$_3NS_9allocatorIS9_EEFbiEE18destroy_deallocateEv', symObjAddr: 0x4EEF8, symBinAddr: 0xBA170, symSize: 0x4 }
  - { offset: 0x5911E4, size: 0x8, addend: 0x0, symName: '__ZNSt3__110__function6__funcIZNK11llama_model13create_memoryERK19llama_memory_paramsRK13llama_cparamsE3$_3NS_9allocatorIS9_EEFbiEE18destroy_deallocateEv', symObjAddr: 0x4EEF8, symBinAddr: 0xBA170, symSize: 0x4 }
  - { offset: 0x591207, size: 0x8, addend: 0x0, symName: '__ZNSt3__110__function6__funcIZNK11llama_model13create_memoryERK19llama_memory_paramsRK13llama_cparamsE3$_3NS_9allocatorIS9_EEFbiEE18destroy_deallocateEv', symObjAddr: 0x4EEF8, symBinAddr: 0xBA170, symSize: 0x4 }
  - { offset: 0x59123A, size: 0x8, addend: 0x0, symName: '__ZNSt3__110__function6__funcIZNK11llama_model13create_memoryERK19llama_memory_paramsRK13llama_cparamsE3$_3NS_9allocatorIS9_EEFbiEE18destroy_deallocateEv', symObjAddr: 0x4EEF8, symBinAddr: 0xBA170, symSize: 0x4 }
  - { offset: 0x5912DD, size: 0x8, addend: 0x0, symName: '__ZNSt3__110__function6__funcIZNK11llama_model13create_memoryERK19llama_memory_paramsRK13llama_cparamsE3$_3NS_9allocatorIS9_EEFbiEEclEOi', symObjAddr: 0x4EEFC, symBinAddr: 0xBA174, symSize: 0x44 }
  - { offset: 0x591386, size: 0x8, addend: 0x0, symName: '__ZNKSt3__110__function6__funcIZNK11llama_model13create_memoryERK19llama_memory_paramsRK13llama_cparamsE3$_3NS_9allocatorIS9_EEFbiEE6targetERKSt9type_info', symObjAddr: 0x4EF40, symBinAddr: 0xBA1B8, symSize: 0x64 }
  - { offset: 0x59143A, size: 0x8, addend: 0x0, symName: '__ZNKSt3__110__function6__funcIZNK11llama_model13create_memoryERK19llama_memory_paramsRK13llama_cparamsE3$_3NS_9allocatorIS9_EEFbiEE11target_typeEv', symObjAddr: 0x4EFA4, symBinAddr: 0xBA21C, symSize: 0xC }
  - { offset: 0x59145D, size: 0x8, addend: 0x0, symName: '__ZNSt3__110__function6__funcIZNK11llama_model13create_memoryERK19llama_memory_paramsRK13llama_cparamsE3$_4NS_9allocatorIS9_EEFiiEED1Ev', symObjAddr: 0x4EFB0, symBinAddr: 0xBA228, symSize: 0x4 }
  - { offset: 0x591489, size: 0x8, addend: 0x0, symName: '__ZNSt3__110__function6__funcIZNK11llama_model13create_memoryERK19llama_memory_paramsRK13llama_cparamsE3$_4NS_9allocatorIS9_EEFiiEED0Ev', symObjAddr: 0x4EFB4, symBinAddr: 0xBA22C, symSize: 0x4 }
  - { offset: 0x591540, size: 0x8, addend: 0x0, symName: '__ZNKSt3__110__function6__funcIZNK11llama_model13create_memoryERK19llama_memory_paramsRK13llama_cparamsE3$_4NS_9allocatorIS9_EEFiiEE7__cloneEv', symObjAddr: 0x4EFB8, symBinAddr: 0xBA230, symSize: 0x34 }
  - { offset: 0x591690, size: 0x8, addend: 0x0, symName: '__ZNKSt3__110__function6__funcIZNK11llama_model13create_memoryERK19llama_memory_paramsRK13llama_cparamsE3$_4NS_9allocatorIS9_EEFiiEE7__cloneEPNS0_6__baseISC_EE', symObjAddr: 0x4EFEC, symBinAddr: 0xBA264, symSize: 0x14 }
  - { offset: 0x5916FD, size: 0x8, addend: 0x0, symName: '__ZNSt3__110__function6__funcIZNK11llama_model13create_memoryERK19llama_memory_paramsRK13llama_cparamsE3$_4NS_9allocatorIS9_EEFiiEE7destroyEv', symObjAddr: 0x4F000, symBinAddr: 0xBA278, symSize: 0x4 }
  - { offset: 0x591752, size: 0x8, addend: 0x0, symName: '__ZNSt3__110__function6__funcIZNK11llama_model13create_memoryERK19llama_memory_paramsRK13llama_cparamsE3$_4NS_9allocatorIS9_EEFiiEE18destroy_deallocateEv', symObjAddr: 0x4F004, symBinAddr: 0xBA27C, symSize: 0x4 }
  - { offset: 0x591785, size: 0x8, addend: 0x0, symName: '__ZNSt3__110__function6__funcIZNK11llama_model13create_memoryERK19llama_memory_paramsRK13llama_cparamsE3$_4NS_9allocatorIS9_EEFiiEE18destroy_deallocateEv', symObjAddr: 0x4F004, symBinAddr: 0xBA27C, symSize: 0x4 }
  - { offset: 0x5917A8, size: 0x8, addend: 0x0, symName: '__ZNSt3__110__function6__funcIZNK11llama_model13create_memoryERK19llama_memory_paramsRK13llama_cparamsE3$_4NS_9allocatorIS9_EEFiiEE18destroy_deallocateEv', symObjAddr: 0x4F004, symBinAddr: 0xBA27C, symSize: 0x4 }
  - { offset: 0x5917DB, size: 0x8, addend: 0x0, symName: '__ZNSt3__110__function6__funcIZNK11llama_model13create_memoryERK19llama_memory_paramsRK13llama_cparamsE3$_4NS_9allocatorIS9_EEFiiEE18destroy_deallocateEv', symObjAddr: 0x4F004, symBinAddr: 0xBA27C, symSize: 0x4 }
  - { offset: 0x59187E, size: 0x8, addend: 0x0, symName: '__ZNSt3__110__function6__funcIZNK11llama_model13create_memoryERK19llama_memory_paramsRK13llama_cparamsE3$_4NS_9allocatorIS9_EEFiiEEclEOi', symObjAddr: 0x4F008, symBinAddr: 0xBA280, symSize: 0x54 }
  - { offset: 0x591901, size: 0x8, addend: 0x0, symName: '__ZNKSt3__110__function6__funcIZNK11llama_model13create_memoryERK19llama_memory_paramsRK13llama_cparamsE3$_4NS_9allocatorIS9_EEFiiEE6targetERKSt9type_info', symObjAddr: 0x4F05C, symBinAddr: 0xBA2D4, symSize: 0x64 }
  - { offset: 0x5919B5, size: 0x8, addend: 0x0, symName: '__ZNKSt3__110__function6__funcIZNK11llama_model13create_memoryERK19llama_memory_paramsRK13llama_cparamsE3$_4NS_9allocatorIS9_EEFiiEE11target_typeEv', symObjAddr: 0x4F0C0, symBinAddr: 0xBA338, symSize: 0xC }
  - { offset: 0x591A67, size: 0x8, addend: 0x0, symName: __GLOBAL__sub_I_llama_model.cpp, symObjAddr: 0x59440, symBinAddr: 0xBA4DC, symSize: 0x98 }
  - { offset: 0x593CB2, size: 0x8, addend: 0x0, symName: __ZL25llama_model_quantize_implRKNSt3__112basic_stringIcNS_11char_traitsIcEENS_9allocatorIcEEEES7_PK27llama_model_quantize_params, symObjAddr: 0x254, symBinAddr: 0xBA7C8, symSize: 0x5F68 }
  - { offset: 0x5CBB25, size: 0x8, addend: 0x0, symName: '__ZNSt3__111__introsortINS_17_ClassicAlgPolicyERZL25llama_model_quantize_implRKNS_12basic_stringIcNS_11char_traitsIcEENS_9allocatorIcEEEES9_PK27llama_model_quantize_paramsE3$_0PPKN18llama_model_loader19llama_tensor_weightELb0EEEvT1_SK_T0_NS_15iterator_traitsISK_E15difference_typeEb', symObjAddr: 0x122D4, symBinAddr: 0xC0F24, symSize: 0xEA8 }
  - { offset: 0x5CD898, size: 0x8, addend: 0x0, symName: '__ZNSt3__127__insertion_sort_incompleteB8ne200100INS_17_ClassicAlgPolicyERZL25llama_model_quantize_implRKNS_12basic_stringIcNS_11char_traitsIcEENS_9allocatorIcEEEES9_PK27llama_model_quantize_paramsE3$_0PPKN18llama_model_loader19llama_tensor_weightEEEbT1_SK_T0_', symObjAddr: 0x132F0, symBinAddr: 0xC1F40, symSize: 0x41C }
  - { offset: 0x5E9BFD, size: 0x8, addend: 0x0, symName: '__ZNSt3__17__sort4B8ne200100INS_17_ClassicAlgPolicyERZL25llama_model_quantize_implRKNS_12basic_stringIcNS_11char_traitsIcEENS_9allocatorIcEEEES9_PK27llama_model_quantize_paramsE3$_0PPKN18llama_model_loader19llama_tensor_weightELi0EEEvT1_SK_SK_SK_T0_', symObjAddr: 0x1317C, symBinAddr: 0xC1DCC, symSize: 0x174 }
  - { offset: 0x5EA6D0, size: 0x8, addend: 0x0, symName: '__ZNSt3__114__thread_proxyB8ne200100INS_5tupleIJNS_10unique_ptrINS_15__thread_structENS_14default_deleteIS3_EEEEZL28llama_tensor_dequantize_implP11ggml_tensorRNS_6vectorI7no_initIfENS_9allocatorISB_EEEERNS9_INS_6threadENSC_ISG_EEEEmiE3$_09ggml_typePhPfmEEEEEPvSP_', symObjAddr: 0x17898, symBinAddr: 0xC288C, symSize: 0xB4 }
  - { offset: 0x5EAABB, size: 0x8, addend: 0x0, symName: '__ZNSt3__114__thread_proxyB8ne200100INS_5tupleIJNS_10unique_ptrINS_15__thread_structENS_14default_deleteIS3_EEEEZL26llama_tensor_quantize_impl9ggml_typePKfPvxxxS9_RNS_6vectorINS_6threadENS_9allocatorISC_EEEEiE3$_0EEEEESA_SA_', symObjAddr: 0x17AD0, symBinAddr: 0xC2A88, symSize: 0x78 }
  - { offset: 0x5EF923, size: 0x8, addend: 0x0, symName: _llama_model_quantize_default_params, symObjAddr: 0x0, symBinAddr: 0xBA574, symSize: 0x30 }
  - { offset: 0x5EFBCB, size: 0x8, addend: 0x0, symName: _llama_model_quantize, symObjAddr: 0x30, symBinAddr: 0xBA5A4, symSize: 0x224 }
  - { offset: 0x5F8571, size: 0x8, addend: 0x0, symName: __ZNSt3__16vectorIiNS_9allocatorIiEEE18__assign_with_sizeB8ne200100IPiS5_EEvT_T0_l, symObjAddr: 0x6A50, symBinAddr: 0xC0DC8, symSize: 0x148 }
  - { offset: 0x5F993B, size: 0x8, addend: 0x0, symName: '__ZZL25llama_model_quantize_implRKNSt3__112basic_stringIcNS_11char_traitsIcEENS_9allocatorIcEEEES7_PK27llama_model_quantize_paramsENK3$_2clEi', symObjAddr: 0x62B8, symBinAddr: 0xC0730, symSize: 0x38C }
  - { offset: 0x5FA5B9, size: 0x8, addend: 0x0, symName: '__ZZL25llama_model_quantize_implRKNSt3__112basic_stringIcNS_11char_traitsIcEENS_9allocatorIcEEEES7_PK27llama_model_quantize_paramsENK3$_1clEv', symObjAddr: 0x6644, symBinAddr: 0xC0ABC, symSize: 0x1EC }
  - { offset: 0x5FAE76, size: 0x8, addend: 0x0, symName: '__ZZL21llama_tensor_get_typeR19quantize_state_impl9ggml_typePK11ggml_tensor11llama_ftypeENK3$_1clEiiPKc', symObjAddr: 0x17120, symBinAddr: 0xC2560, symSize: 0x164 }
  - { offset: 0x5FB07F, size: 0x8, addend: 0x0, symName: __ZNKSt3__112__hash_tableINS_17__hash_value_typeINS_12basic_stringIcNS_11char_traitsIcEENS_9allocatorIcEEEENS_6vectorIfNS5_IfEEEEEENS_22__unordered_map_hasherIS7_SB_NS_4hashIS7_EENS_8equal_toIS7_EELb1EEENS_21__unordered_map_equalIS7_SB_SG_SE_Lb1EEENS5_ISB_EEE4findIS7_EENS_21__hash_const_iteratorIPNS_11__hash_nodeISB_PvEEEERKT_, symObjAddr: 0x17284, symBinAddr: 0xC26C4, symSize: 0x1B4 }
  - { offset: 0x5FB4FB, size: 0x8, addend: 0x0, symName: __ZNSt3__16__treeINS_12__value_typeIiNS_12basic_stringIcNS_11char_traitsIcEENS_9allocatorIcEEEEEENS_19__map_value_compareIiS8_NS_4lessIiEELb1EEENS5_IS8_EEE7destroyEPNS_11__tree_nodeIS8_PvEE, symObjAddr: 0x17B90, symBinAddr: 0xC2B48, symSize: 0x60 }
  - { offset: 0x5FB73D, size: 0x8, addend: 0x0, symName: __ZN18llama_model_loaderD2Ev, symObjAddr: 0x17BF0, symBinAddr: 0xC2BA8, symSize: 0x1AC }
  - { offset: 0x5FC465, size: 0x8, addend: 0x0, symName: __ZNSt3__16vectorINS_6threadENS_9allocatorIS1_EEE20__throw_length_errorB8ne200100Ev, symObjAddr: 0x13750, symBinAddr: 0xC235C, symSize: 0x14 }
  - { offset: 0x5FC47D, size: 0x8, addend: 0x0, symName: __ZNSt3__114__split_bufferINS_6threadERNS_9allocatorIS1_EEED1Ev, symObjAddr: 0x13764, symBinAddr: 0xC2370, symSize: 0x50 }
  - { offset: 0x5FC4B8, size: 0x8, addend: 0x0, symName: __ZNSt3__16vectorIPKN18llama_model_loader19llama_tensor_weightENS_9allocatorIS4_EEE20__throw_length_errorB8ne200100Ev, symObjAddr: 0x6C48, symBinAddr: 0xC0F10, symSize: 0x14 }
  - { offset: 0x5FC4F0, size: 0x8, addend: 0x0, symName: __ZNSt3__16vectorI7no_initIfENS_9allocatorIS2_EEE20__throw_length_errorB8ne200100Ev, symObjAddr: 0x17884, symBinAddr: 0xC2878, symSize: 0x14 }
  - { offset: 0x5FC508, size: 0x8, addend: 0x0, symName: '__ZNSt3__114__thread_proxyB8ne200100INS_5tupleIJNS_10unique_ptrINS_15__thread_structENS_14default_deleteIS3_EEEEZL28llama_tensor_dequantize_implP11ggml_tensorRNS_6vectorI7no_initIfENS_9allocatorISB_EEEERNS9_INS_6threadENSC_ISG_EEEEmiE3$_09ggml_typePhPfmEEEEEPvSP_', symObjAddr: 0x17898, symBinAddr: 0xC288C, symSize: 0xB4 }
  - { offset: 0x5FC513, size: 0x8, addend: 0x0, symName: __ZNSt3__128__exception_guard_exceptionsINS_6vectorINS_10unique_ptrI12gguf_context20gguf_context_deleterEENS_9allocatorIS5_EEE16__destroy_vectorEED1B8ne200100Ev, symObjAddr: 0x137B4, symBinAddr: 0xC23C0, symSize: 0x80 }
  - { offset: 0x5FC711, size: 0x8, addend: 0x0, symName: '__ZNSt3__110unique_ptrINS_5tupleIJNS0_INS_15__thread_structENS_14default_deleteIS2_EEEEZL28llama_tensor_dequantize_implP11ggml_tensorRNS_6vectorI7no_initIfENS_9allocatorISA_EEEERNS8_INS_6threadENSB_ISF_EEEEmiE3$_09ggml_typePhPfmEEENS3_ISN_EEED1B8ne200100Ev', symObjAddr: 0x1794C, symBinAddr: 0xC2940, symSize: 0x48 }
  - { offset: 0x5FC910, size: 0x8, addend: 0x0, symName: __ZNSt3__114__split_bufferINS_6threadERNS_9allocatorIS1_EEED1Ev, symObjAddr: 0x13764, symBinAddr: 0xC2370, symSize: 0x50 }
  - { offset: 0x5FCA65, size: 0x8, addend: 0x0, symName: __ZNSt3__16vectorINS_10unique_ptrI12gguf_context20gguf_context_deleterEENS_9allocatorIS4_EEED1B8ne200100Ev, symObjAddr: 0x68E4, symBinAddr: 0xC0D00, symSize: 0x70 }
  - { offset: 0x5FCC53, size: 0x8, addend: 0x0, symName: __ZNSt3__114basic_ofstreamIcNS_11char_traitsIcEEED1Ev, symObjAddr: 0x688C, symBinAddr: 0xC0CA8, symSize: 0x58 }
  - { offset: 0x5FCD44, size: 0x8, addend: 0x0, symName: '__ZNSt3__110unique_ptrINS_5tupleIJNS0_INS_15__thread_structENS_14default_deleteIS2_EEEEZL26llama_tensor_quantize_impl9ggml_typePKfPvxxxS8_RNS_6vectorINS_6threadENS_9allocatorISB_EEEEiE3$_0EEENS3_ISH_EEED1B8ne200100Ev', symObjAddr: 0x17B48, symBinAddr: 0xC2B00, symSize: 0x48 }
  - { offset: 0x5FCEEC, size: 0x8, addend: 0x0, symName: __ZNSt3__16vectorINS_6threadENS_9allocatorIS1_EEED1B8ne200100Ev, symObjAddr: 0x6954, symBinAddr: 0xC0D70, symSize: 0x58 }
  - { offset: 0x5FD573, size: 0x8, addend: 0x0, symName: __ZNSt3__114basic_ofstreamIcNS_11char_traitsIcEEEC1ERKNS_12basic_stringIcS2_NS_9allocatorIcEEEEj, symObjAddr: 0x13834, symBinAddr: 0xC2440, symSize: 0x120 }
  - { offset: 0x619973, size: 0x8, addend: 0x0, symName: '__ZZL26llama_tensor_quantize_impl9ggml_typePKfPvxxxS1_RNSt3__16vectorINS3_6threadENS3_9allocatorIS5_EEEEiENK3$_0clEv', symObjAddr: 0x179D0, symBinAddr: 0xC2988, symSize: 0x100 }
  - { offset: 0x61C6D3, size: 0x8, addend: 0x0, symName: __MergedGlobals, symObjAddr: 0x1DB28, symBinAddr: 0x2D0400, symSize: 0x0 }
  - { offset: 0x61C8E2, size: 0x8, addend: 0x0, symName: __ZL22llama_sampler_greedy_i, symObjAddr: 0x1D9E8, symBinAddr: 0x2D02C0, symSize: 0x0 }
  - { offset: 0x61C8F0, size: 0x8, addend: 0x0, symName: __ZL12get_rng_seedj, symObjAddr: 0xADC, symBinAddr: 0xC3830, symSize: 0x15C }
  - { offset: 0x61C91C, size: 0x8, addend: 0x0, symName: __MergedGlobals.177, symObjAddr: 0x1FB720, symBinAddr: 0x35C168, symSize: 0x0 }
  - { offset: 0x61CCB7, size: 0x8, addend: 0x0, symName: __MergedGlobals, symObjAddr: 0x1DB28, symBinAddr: 0x2D0400, symSize: 0x0 }
  - { offset: 0x61CCD4, size: 0x8, addend: 0x0, symName: __MergedGlobals, symObjAddr: 0x1DB28, symBinAddr: 0x2D0400, symSize: 0x0 }
  - { offset: 0x61CCF2, size: 0x8, addend: 0x0, symName: __MergedGlobals, symObjAddr: 0x1DB28, symBinAddr: 0x2D0400, symSize: 0x0 }
  - { offset: 0x61CD03, size: 0x8, addend: 0x0, symName: __ZL43llama_token_data_array_partial_sort_inplaceP22llama_token_data_arrayi, symObjAddr: 0x48F0, symBinAddr: 0xC75B8, symSize: 0x4BC }
  - { offset: 0x61D3F6, size: 0x8, addend: 0x0, symName: __ZL35llama_token_data_array_partial_sortRK22llama_token_data_arrayiRNSt3__16vectorI16llama_token_dataNS2_9allocatorIS4_EEEE, symObjAddr: 0x4DAC, symBinAddr: 0xC7A74, symSize: 0x5B8 }
  - { offset: 0x632D13, size: 0x8, addend: 0x0, symName: '__ZNSt3__111__introsortINS_17_ClassicAlgPolicyERZL35llama_token_data_array_partial_sortRK22llama_token_data_arrayiRNS_6vectorI16llama_token_dataNS_9allocatorIS6_EEEEE3$_0PS6_Lb0EEEvT1_SE_T0_NS_15iterator_traitsISE_E15difference_typeEb', symObjAddr: 0x5428, symBinAddr: 0xC8040, symSize: 0xDA4 }
  - { offset: 0x634185, size: 0x8, addend: 0x0, symName: '__ZNSt3__127__insertion_sort_incompleteB8ne200100INS_17_ClassicAlgPolicyERZL35llama_token_data_array_partial_sortRK22llama_token_data_arrayiRNS_6vectorI16llama_token_dataNS_9allocatorIS6_EEEEE3$_0PS6_EEbT1_SE_T0_', symObjAddr: 0x640C, symBinAddr: 0xC9024, symSize: 0x4B4 }
  - { offset: 0x6362E8, size: 0x8, addend: 0x0, symName: '__ZNSt3__111__introsortINS_17_ClassicAlgPolicyERZL27llama_sampler_typical_applyP13llama_samplerP22llama_token_data_arrayE3$_0PmLb0EEEvT1_S9_T0_NS_15iterator_traitsIS9_E15difference_typeEb', symObjAddr: 0x8404, symBinAddr: 0xCAFF4, symSize: 0xAD8 }
  - { offset: 0x637F00, size: 0x8, addend: 0x0, symName: '__ZNSt3__127__insertion_sort_incompleteB8ne200100INS_17_ClassicAlgPolicyERZL27llama_sampler_typical_applyP13llama_samplerP22llama_token_data_arrayE3$_0PmEEbT1_S9_T0_', symObjAddr: 0x9078, symBinAddr: 0xCBC68, symSize: 0x358 }
  - { offset: 0x643207, size: 0x8, addend: 0x0, symName: __ZNSt3__113regex_replaceB8ne200100INS_20back_insert_iteratorINS_12basic_stringIcNS_11char_traitsIcEENS_9allocatorIcEEEEEEPKcNS_12regex_traitsIcEEcEET_SD_T0_SE_RKNS_11basic_regexIT2_T1_EEPKSG_NS_15regex_constants15match_flag_typeE, symObjAddr: 0x148B0, symBinAddr: 0xCE71C, symSize: 0x26C }
  - { offset: 0x645C8A, size: 0x8, addend: 0x0, symName: '__ZNSt3__119__partial_sort_implB8ne200100INS_17_ClassicAlgPolicyERZL35llama_token_data_array_partial_sortRK22llama_token_data_arrayiRNS_6vectorI16llama_token_dataNS_9allocatorIS6_EEEEE3$_0PS6_SD_EET1_SE_SE_T2_OT0_', symObjAddr: 0x68C0, symBinAddr: 0xC94D8, symSize: 0x40C }
  - { offset: 0x646399, size: 0x8, addend: 0x0, symName: '__ZNSt3__17__sort5B8ne200100INS_17_ClassicAlgPolicyERZL35llama_token_data_array_partial_sortRK22llama_token_data_arrayiRNS_6vectorI16llama_token_dataNS_9allocatorIS6_EEEEE3$_0PS6_Li0EEEvT1_SE_SE_SE_SE_T0_', symObjAddr: 0x61CC, symBinAddr: 0xC8DE4, symSize: 0x240 }
  - { offset: 0x647AD1, size: 0x8, addend: 0x0, symName: '__ZNSt3__17__sort5B8ne200100INS_17_ClassicAlgPolicyERZL27llama_sampler_typical_applyP13llama_samplerP22llama_token_data_arrayE3$_0PmLi0EEEvT1_S9_S9_S9_S9_T0_', symObjAddr: 0x8EDC, symBinAddr: 0xCBACC, symSize: 0x19C }
  - { offset: 0x647B3F, size: 0x8, addend: 0x0, symName: '__ZNSt3__17__sort5B8ne200100INS_17_ClassicAlgPolicyERZL27llama_sampler_typical_applyP13llama_samplerP22llama_token_data_arrayE3$_0PmLi0EEEvT1_S9_S9_S9_S9_T0_', symObjAddr: 0x8EDC, symBinAddr: 0xCBACC, symSize: 0x19C }
  - { offset: 0x64E4A6, size: 0x8, addend: 0x0, symName: __MergedGlobals, symObjAddr: 0x1DB28, symBinAddr: 0x2D0400, symSize: 0x0 }
  - { offset: 0x64E4C4, size: 0x8, addend: 0x0, symName: __MergedGlobals, symObjAddr: 0x1DB28, symBinAddr: 0x2D0400, symSize: 0x0 }
  - { offset: 0x64E4E2, size: 0x8, addend: 0x0, symName: __MergedGlobals, symObjAddr: 0x1DB28, symBinAddr: 0x2D0400, symSize: 0x0 }
  - { offset: 0x64E500, size: 0x8, addend: 0x0, symName: __MergedGlobals, symObjAddr: 0x1DB28, symBinAddr: 0x2D0400, symSize: 0x0 }
  - { offset: 0x64E51E, size: 0x8, addend: 0x0, symName: __MergedGlobals, symObjAddr: 0x1DB28, symBinAddr: 0x2D0400, symSize: 0x0 }
  - { offset: 0x64E53C, size: 0x8, addend: 0x0, symName: __MergedGlobals, symObjAddr: 0x1DB28, symBinAddr: 0x2D0400, symSize: 0x0 }
  - { offset: 0x64E55A, size: 0x8, addend: 0x0, symName: __MergedGlobals, symObjAddr: 0x1DB28, symBinAddr: 0x2D0400, symSize: 0x0 }
  - { offset: 0x64E578, size: 0x8, addend: 0x0, symName: __MergedGlobals, symObjAddr: 0x1DB28, symBinAddr: 0x2D0400, symSize: 0x0 }
  - { offset: 0x64E589, size: 0x8, addend: 0x0, symName: __ZL31llama_sampler_init_grammar_implPK11llama_vocabPKcS3_bPS3_mPKimS4_m, symObjAddr: 0x12C8, symBinAddr: 0xC401C, symSize: 0x600 }
  - { offset: 0x64E5AA, size: 0x8, addend: 0x0, symName: __MergedGlobals.177, symObjAddr: 0x1FB720, symBinAddr: 0x35C168, symSize: 0x0 }
  - { offset: 0x64FF3D, size: 0x8, addend: 0x0, symName: __ZL23llama_sampler_grammar_i, symObjAddr: 0x1DAD8, symBinAddr: 0x2D03B0, symSize: 0x0 }
  - { offset: 0x64FF58, size: 0x8, addend: 0x0, symName: __MergedGlobals, symObjAddr: 0x1DB28, symBinAddr: 0x2D0400, symSize: 0x0 }
  - { offset: 0x64FF7B, size: 0x8, addend: 0x0, symName: __MergedGlobals, symObjAddr: 0x1DB28, symBinAddr: 0x2D0400, symSize: 0x0 }
  - { offset: 0x64FF99, size: 0x8, addend: 0x0, symName: __MergedGlobals, symObjAddr: 0x1DB28, symBinAddr: 0x2D0400, symSize: 0x0 }
  - { offset: 0x64FFB7, size: 0x8, addend: 0x0, symName: __ZL26llama_sampler_adaptive_p_i, symObjAddr: 0x1DA38, symBinAddr: 0x2D0310, symSize: 0x0 }
  - { offset: 0x65000D, size: 0x8, addend: 0x0, symName: __MergedGlobals, symObjAddr: 0x1DB28, symBinAddr: 0x2D0400, symSize: 0x0 }
  - { offset: 0x65002B, size: 0x8, addend: 0x0, symName: __ZL22llama_sampler_infill_i, symObjAddr: 0x1DA88, symBinAddr: 0x2D0360, symSize: 0x0 }
  - { offset: 0x651538, size: 0x8, addend: 0x0, symName: __ZL17llama_sample_distP22llama_token_data_arrayRNSt3__123mersenne_twister_engineIjLm32ELm624ELm397ELm31ELj2567483615ELm11ELj4294967295ELm7ELj2636928640ELm15ELj4022730752ELm18ELj1812433253EEE, symObjAddr: 0xAEC8, symBinAddr: 0xCDAB8, symSize: 0x1D0 }
  - { offset: 0x653187, size: 0x8, addend: 0x0, symName: _llama_sampler_init, symObjAddr: 0x0, symBinAddr: 0xC2D54, symSize: 0x2C }
  - { offset: 0x6531AE, size: 0x8, addend: 0x0, symName: _llama_sampler_name, symObjAddr: 0x2C, symBinAddr: 0xC2D80, symSize: 0x1C }
  - { offset: 0x6531E6, size: 0x8, addend: 0x0, symName: _llama_sampler_accept, symObjAddr: 0x48, symBinAddr: 0xC2D9C, symSize: 0x18 }
  - { offset: 0x653215, size: 0x8, addend: 0x0, symName: _llama_sampler_apply, symObjAddr: 0x60, symBinAddr: 0xC2DB4, symSize: 0x48 }
  - { offset: 0x65324A, size: 0x8, addend: 0x0, symName: _llama_sampler_reset, symObjAddr: 0xA8, symBinAddr: 0xC2DFC, symSize: 0x18 }
  - { offset: 0x653277, size: 0x8, addend: 0x0, symName: _llama_sampler_reset, symObjAddr: 0xA8, symBinAddr: 0xC2DFC, symSize: 0x18 }
  - { offset: 0x6532C6, size: 0x8, addend: 0x0, symName: _llama_sampler_clone, symObjAddr: 0xC0, symBinAddr: 0xC2E14, symSize: 0x60 }
  - { offset: 0x653316, size: 0x8, addend: 0x0, symName: _llama_sampler_free, symObjAddr: 0x120, symBinAddr: 0xC2E74, symSize: 0x38 }
  - { offset: 0x653329, size: 0x8, addend: 0x0, symName: _llama_sampler_free, symObjAddr: 0x120, symBinAddr: 0xC2E74, symSize: 0x38 }
  - { offset: 0x65338D, size: 0x8, addend: 0x0, symName: _llama_sampler_chain_init, symObjAddr: 0x158, symBinAddr: 0xC2EAC, symSize: 0x58 }
  - { offset: 0x65362A, size: 0x8, addend: 0x0, symName: _llama_sampler_sample, symObjAddr: 0x1B0, symBinAddr: 0xC2F04, symSize: 0x63C }
  - { offset: 0x653F05, size: 0x8, addend: 0x0, symName: __ZNSt3__16vectorI16llama_token_dataNS_9allocatorIS1_EEE8__appendEm, symObjAddr: 0x1C1B0, symBinAddr: 0xD33E8, symSize: 0x180 }
  - { offset: 0x6542C4, size: 0x8, addend: 0x0, symName: __ZNSt3__16vectorIN19llama_sampler_chain4infoENS_9allocatorIS2_EEE20__throw_length_errorB8ne200100Ev, symObjAddr: 0x1C330, symBinAddr: 0xD3568, symSize: 0x14 }
  - { offset: 0x654668, size: 0x8, addend: 0x0, symName: _llama_sampler_chain_add, symObjAddr: 0x7EC, symBinAddr: 0xC3540, symSize: 0xF4 }
  - { offset: 0x654A6F, size: 0x8, addend: 0x0, symName: _llama_sampler_chain_get, symObjAddr: 0x8E0, symBinAddr: 0xC3634, symSize: 0x50 }
  - { offset: 0x654A7A, size: 0x8, addend: 0x0, symName: __ZNSt3__16vectorIN19llama_sampler_chain4infoENS_9allocatorIS2_EEE20__throw_length_errorB8ne200100Ev, symObjAddr: 0x1C330, symBinAddr: 0xD3568, symSize: 0x14 }
  - { offset: 0x654A9D, size: 0x8, addend: 0x0, symName: _llama_sampler_chain_get, symObjAddr: 0x8E0, symBinAddr: 0xC3634, symSize: 0x50 }
  - { offset: 0x654C1B, size: 0x8, addend: 0x0, symName: _llama_sampler_chain_remove, symObjAddr: 0x930, symBinAddr: 0xC3684, symSize: 0x88 }
  - { offset: 0x654E3E, size: 0x8, addend: 0x0, symName: _llama_sampler_chain_n, symObjAddr: 0x9B8, symBinAddr: 0xC370C, symSize: 0x14 }
  - { offset: 0x654EC5, size: 0x8, addend: 0x0, symName: _llama_sampler_init_greedy, symObjAddr: 0x9CC, symBinAddr: 0xC3720, symSize: 0x58 }
  - { offset: 0x654F34, size: 0x8, addend: 0x0, symName: __ZN21llama_sampler_backendC2EPKc, symObjAddr: 0x3970, symBinAddr: 0xC6638, symSize: 0x138 }
  - { offset: 0x65558D, size: 0x8, addend: 0x0, symName: _llama_sampler_init_dist, symObjAddr: 0xA24, symBinAddr: 0xC3778, symSize: 0xB8 }
  - { offset: 0x6558C3, size: 0x8, addend: 0x0, symName: __ZNSt3__113random_deviceC1B8ne200100Ev, symObjAddr: 0x3AA8, symBinAddr: 0xC6770, symSize: 0x98 }
  - { offset: 0x655C24, size: 0x8, addend: 0x0, symName: __ZN21llama_sampler_backendD1Ev, symObjAddr: 0xC38, symBinAddr: 0xC398C, symSize: 0x58 }
  - { offset: 0x655E68, size: 0x8, addend: 0x0, symName: _llama_sampler_init_top_k, symObjAddr: 0xC90, symBinAddr: 0xC39E4, symSize: 0xA0 }
  - { offset: 0x655EDF, size: 0x8, addend: 0x0, symName: _llama_sampler_init_top_p, symObjAddr: 0xD30, symBinAddr: 0xC3A84, symSize: 0xA4 }
  - { offset: 0x655F9E, size: 0x8, addend: 0x0, symName: _llama_sampler_init_min_p, symObjAddr: 0xDD4, symBinAddr: 0xC3B28, symSize: 0x9C }
  - { offset: 0x65601E, size: 0x8, addend: 0x0, symName: _llama_sampler_init_typical, symObjAddr: 0xE70, symBinAddr: 0xC3BC4, symSize: 0x80 }
  - { offset: 0x65606A, size: 0x8, addend: 0x0, symName: _llama_sampler_init_temp, symObjAddr: 0xEF0, symBinAddr: 0xC3C44, symSize: 0x98 }
  - { offset: 0x6560E1, size: 0x8, addend: 0x0, symName: _llama_sampler_init_temp_ext, symObjAddr: 0xF88, symBinAddr: 0xC3CDC, symSize: 0xB4 }
  - { offset: 0x656173, size: 0x8, addend: 0x0, symName: _llama_sampler_init_xtc, symObjAddr: 0x103C, symBinAddr: 0xC3D90, symSize: 0xE4 }
  - { offset: 0x656274, size: 0x8, addend: 0x0, symName: _llama_sampler_init_mirostat, symObjAddr: 0x1120, symBinAddr: 0xC3E74, symSize: 0xC8 }
  - { offset: 0x656386, size: 0x8, addend: 0x0, symName: _llama_sampler_init_mirostat_v2, symObjAddr: 0x11E8, symBinAddr: 0xC3F3C, symSize: 0xAC }
  - { offset: 0x656486, size: 0x8, addend: 0x0, symName: _llama_sampler_init_grammar, symObjAddr: 0x1294, symBinAddr: 0xC3FE8, symSize: 0x34 }
  - { offset: 0x65697E, size: 0x8, addend: 0x0, symName: _llama_sampler_init_grammar_lazy, symObjAddr: 0x18C8, symBinAddr: 0xC461C, symSize: 0x34 }
  - { offset: 0x656A4E, size: 0x8, addend: 0x0, symName: _llama_sampler_init_grammar_lazy_patterns, symObjAddr: 0x18FC, symBinAddr: 0xC4650, symSize: 0x34 }
  - { offset: 0x656DC5, size: 0x8, addend: 0x0, symName: _llama_sampler_init_penalties, symObjAddr: 0x1930, symBinAddr: 0xC4684, symSize: 0x11C }
  - { offset: 0x6570DF, size: 0x8, addend: 0x0, symName: _llama_sampler_init_top_n_sigma, symObjAddr: 0x1A4C, symBinAddr: 0xC47A0, symSize: 0x74 }
  - { offset: 0x65864C, size: 0x8, addend: 0x0, symName: _llama_sampler_init_dry, symObjAddr: 0x1AC0, symBinAddr: 0xC4814, symSize: 0xB54 }
  - { offset: 0x65B829, size: 0x8, addend: 0x0, symName: __ZNSt3__112__hash_tableINS_17__hash_value_typeIiNS_6vectorIiNS_9allocatorIiEEEEEENS_22__unordered_map_hasherIiS6_NS_4hashIiEENS_8equal_toIiEELb1EEENS_21__unordered_map_equalIiS6_SB_S9_Lb1EEENS3_IS6_EEE27__node_insert_multi_prepareEmRS6_, symObjAddr: 0x1899C, symBinAddr: 0xCFCF4, symSize: 0x27C }
  - { offset: 0x65BAE8, size: 0x8, addend: 0x0, symName: __ZNSt3__112__hash_tableINS_17__hash_value_typeIiNS_6vectorIiNS_9allocatorIiEEEEEENS_22__unordered_map_hasherIiS6_NS_4hashIiEENS_8equal_toIiEELb1EEENS_21__unordered_map_equalIiS6_SB_S9_Lb1EEENS3_IS6_EEE19__node_insert_multiEPNS_11__hash_nodeIS6_PvEE, symObjAddr: 0x18810, symBinAddr: 0xCFB68, symSize: 0x12C }
  - { offset: 0x65BE9D, size: 0x8, addend: 0x0, symName: __ZNSt3__118unordered_multimapIiNS_6vectorIiNS_9allocatorIiEEEENS_4hashIiEENS_8equal_toIiEENS2_INS_4pairIKiS4_EEEEED1B8ne200100Ev, symObjAddr: 0x265C, symBinAddr: 0xC5368, symSize: 0x68 }
  - { offset: 0x65C2B8, size: 0x8, addend: 0x0, symName: __ZNSt3__110unique_ptrINS_11__hash_nodeINS_17__hash_value_typeIiNS_6vectorIiNS_9allocatorIiEEEEEEPvEENS_22__hash_node_destructorINS4_IS9_EEEEED1B8ne200100Ev, symObjAddr: 0x1893C, symBinAddr: 0xCFC94, symSize: 0x60 }
  - { offset: 0x65C99D, size: 0x8, addend: 0x0, symName: __Z30llama_sampler_init_dry_testingiffiiRKNSt3__16vectorINS0_IiNS_9allocatorIiEEEENS1_IS3_EEEE, symObjAddr: 0x26C4, symBinAddr: 0xC53D0, symSize: 0x2B0 }
  - { offset: 0x65D46B, size: 0x8, addend: 0x0, symName: _llama_sampler_init_adaptive_p, symObjAddr: 0x2974, symBinAddr: 0xC5680, symSize: 0x108 }
  - { offset: 0x65D824, size: 0x8, addend: 0x0, symName: _llama_sampler_init_logit_bias, symObjAddr: 0x2A7C, symBinAddr: 0xC5788, symSize: 0xF4 }
  - { offset: 0x65DD7F, size: 0x8, addend: 0x0, symName: _llama_sampler_init_infill, symObjAddr: 0x2B70, symBinAddr: 0xC587C, symSize: 0x138 }
  - { offset: 0x65E272, size: 0x8, addend: 0x0, symName: _llama_sampler_get_seed, symObjAddr: 0x2CA8, symBinAddr: 0xC59B4, symSize: 0xD8 }
  - { offset: 0x65E3DF, size: 0x8, addend: 0x0, symName: _llama_perf_sampler, symObjAddr: 0x2D80, symBinAddr: 0xC5A8C, symSize: 0x7C }
  - { offset: 0x65E46F, size: 0x8, addend: 0x0, symName: _llama_perf_sampler_print, symObjAddr: 0x2DFC, symBinAddr: 0xC5B08, symSize: 0xA4 }
  - { offset: 0x65E4DA, size: 0x8, addend: 0x0, symName: _llama_perf_sampler_print, symObjAddr: 0x2DFC, symBinAddr: 0xC5B08, symSize: 0xA4 }
  - { offset: 0x65E5AE, size: 0x8, addend: 0x0, symName: _llama_perf_sampler_reset, symObjAddr: 0x2EA0, symBinAddr: 0xC5BAC, symSize: 0x58 }
  - { offset: 0x65E5C1, size: 0x8, addend: 0x0, symName: _llama_perf_sampler_reset, symObjAddr: 0x2EA0, symBinAddr: 0xC5BAC, symSize: 0x58 }
  - { offset: 0x65E5FB, size: 0x8, addend: 0x0, symName: __ZL24llama_sampler_chain_namePK13llama_sampler, symObjAddr: 0x2EF8, symBinAddr: 0xC5C04, symSize: 0xC }
  - { offset: 0x65E60E, size: 0x8, addend: 0x0, symName: __ZL24llama_sampler_chain_namePK13llama_sampler, symObjAddr: 0x2EF8, symBinAddr: 0xC5C04, symSize: 0xC }
  - { offset: 0x65E669, size: 0x8, addend: 0x0, symName: __ZL26llama_sampler_chain_acceptP13llama_sampleri, symObjAddr: 0x2F04, symBinAddr: 0xC5C10, symSize: 0x9C }
  - { offset: 0x65E789, size: 0x8, addend: 0x0, symName: __ZL25llama_sampler_chain_applyP13llama_samplerP22llama_token_data_array, symObjAddr: 0x2FA0, symBinAddr: 0xC5CAC, symSize: 0xAC }
  - { offset: 0x65E8C5, size: 0x8, addend: 0x0, symName: __ZL25llama_sampler_chain_resetP13llama_sampler, symObjAddr: 0x304C, symBinAddr: 0xC5D58, symSize: 0x4C }
  - { offset: 0x65EA19, size: 0x8, addend: 0x0, symName: __ZL25llama_sampler_chain_clonePK13llama_sampler, symObjAddr: 0x3098, symBinAddr: 0xC5DA4, symSize: 0xE0 }
  - { offset: 0x65EBC2, size: 0x8, addend: 0x0, symName: __ZL24llama_sampler_chain_freeP13llama_sampler, symObjAddr: 0x3178, symBinAddr: 0xC5E84, symSize: 0xA0 }
  - { offset: 0x65EC9C, size: 0x8, addend: 0x0, symName: __ZL24llama_sampler_chain_freeP13llama_sampler, symObjAddr: 0x3178, symBinAddr: 0xC5E84, symSize: 0xA0 }
  - { offset: 0x65F008, size: 0x8, addend: 0x0, symName: __ZL32llama_sampler_chain_backend_initP13llama_samplerP24ggml_backend_buffer_type, symObjAddr: 0x3218, symBinAddr: 0xC5F24, symSize: 0xB4 }
  - { offset: 0x65F101, size: 0x8, addend: 0x0, symName: __ZL34llama_sampler_chain_backend_acceptP13llama_samplerP12ggml_contextP11ggml_cgraphP11ggml_tensor, symObjAddr: 0x32CC, symBinAddr: 0xC5FD8, symSize: 0x84 }
  - { offset: 0x65F114, size: 0x8, addend: 0x0, symName: __ZL34llama_sampler_chain_backend_acceptP13llama_samplerP12ggml_contextP11ggml_cgraphP11ggml_tensor, symObjAddr: 0x32CC, symBinAddr: 0xC5FD8, symSize: 0x84 }
  - { offset: 0x65F22A, size: 0x8, addend: 0x0, symName: __ZL33llama_sampler_chain_backend_applyP13llama_samplerP12ggml_contextP11ggml_cgraphP18llama_sampler_data, symObjAddr: 0x3350, symBinAddr: 0xC605C, symSize: 0xB8 }
  - { offset: 0x65F342, size: 0x8, addend: 0x0, symName: __ZL37llama_sampler_chain_backend_set_inputP13llama_sampler, symObjAddr: 0x3408, symBinAddr: 0xC6114, symSize: 0x54 }
  - { offset: 0x65F355, size: 0x8, addend: 0x0, symName: __ZL37llama_sampler_chain_backend_set_inputP13llama_sampler, symObjAddr: 0x3408, symBinAddr: 0xC6114, symSize: 0x54 }
  - { offset: 0x65F43E, size: 0x8, addend: 0x0, symName: __ZL25llama_sampler_greedy_namePK13llama_sampler, symObjAddr: 0x346C, symBinAddr: 0xC6168, symSize: 0xC0 }
  - { offset: 0x65F6A3, size: 0x8, addend: 0x0, symName: __ZL26llama_sampler_greedy_applyP13llama_samplerP22llama_token_data_array, symObjAddr: 0x352C, symBinAddr: 0xC6228, symSize: 0x5C }
  - { offset: 0x65F6F5, size: 0x8, addend: 0x0, symName: __ZL26llama_sampler_greedy_resetP13llama_sampler, symObjAddr: 0x3588, symBinAddr: 0xC6284, symSize: 0x4 }
  - { offset: 0x65F737, size: 0x8, addend: 0x0, symName: __ZL26llama_sampler_greedy_clonePK13llama_sampler, symObjAddr: 0x358C, symBinAddr: 0xC6288, symSize: 0x58 }
  - { offset: 0x65F827, size: 0x8, addend: 0x0, symName: __ZL25llama_sampler_greedy_freeP13llama_sampler, symObjAddr: 0x35E4, symBinAddr: 0xC62E0, symSize: 0x68 }
  - { offset: 0x65FA9A, size: 0x8, addend: 0x0, symName: __ZL33llama_sampler_greedy_backend_initP13llama_samplerP24ggml_backend_buffer_type, symObjAddr: 0x364C, symBinAddr: 0xC6348, symSize: 0x60 }
  - { offset: 0x65FB2B, size: 0x8, addend: 0x0, symName: __ZL34llama_sampler_greedy_backend_applyP13llama_samplerP12ggml_contextP11ggml_cgraphP18llama_sampler_data, symObjAddr: 0x36AC, symBinAddr: 0xC63A8, symSize: 0x3C }
  - { offset: 0x65FB3E, size: 0x8, addend: 0x0, symName: __ZL29llama_sampler_backend_supportP13llama_samplerP24ggml_backend_buffer_type, symObjAddr: 0x36E8, symBinAddr: 0xC63E4, symSize: 0x254 }
  - { offset: 0x65FFE1, size: 0x8, addend: 0x0, symName: __ZL34llama_sampler_greedy_backend_applyP13llama_samplerP12ggml_contextP11ggml_cgraphP18llama_sampler_data, symObjAddr: 0x36AC, symBinAddr: 0xC63A8, symSize: 0x3C }
  - { offset: 0x660319, size: 0x8, addend: 0x0, symName: __ZL23llama_sampler_dist_namePK13llama_sampler, symObjAddr: 0x3B40, symBinAddr: 0xC6808, symSize: 0xC0 }
  - { offset: 0x6606A3, size: 0x8, addend: 0x0, symName: __ZL24llama_sampler_dist_applyP13llama_samplerP22llama_token_data_array, symObjAddr: 0x3C00, symBinAddr: 0xC68C8, symSize: 0x324 }
  - { offset: 0x660910, size: 0x8, addend: 0x0, symName: __ZL24llama_sampler_dist_resetP13llama_sampler, symObjAddr: 0x3F24, symBinAddr: 0xC6BEC, symSize: 0x68 }
  - { offset: 0x6609C0, size: 0x8, addend: 0x0, symName: __ZL24llama_sampler_dist_clonePK13llama_sampler, symObjAddr: 0x3F8C, symBinAddr: 0xC6C54, symSize: 0xE4 }
  - { offset: 0x660BFC, size: 0x8, addend: 0x0, symName: __ZL23llama_sampler_dist_freeP13llama_sampler, symObjAddr: 0x4070, symBinAddr: 0xC6D38, symSize: 0x90 }
  - { offset: 0x660FAA, size: 0x8, addend: 0x0, symName: __ZL31llama_sampler_dist_backend_initP13llama_samplerP24ggml_backend_buffer_type, symObjAddr: 0x4100, symBinAddr: 0xC6DC8, symSize: 0x134 }
  - { offset: 0x6612D9, size: 0x8, addend: 0x0, symName: __ZL32llama_sampler_dist_backend_applyP13llama_samplerP12ggml_contextP11ggml_cgraphP18llama_sampler_data, symObjAddr: 0x4234, symBinAddr: 0xC6EFC, symSize: 0x144 }
  - { offset: 0x661648, size: 0x8, addend: 0x0, symName: __ZL36llama_sampler_dist_backend_set_inputP13llama_sampler, symObjAddr: 0x4378, symBinAddr: 0xC7040, symSize: 0x18C }
  - { offset: 0x6617C7, size: 0x8, addend: 0x0, symName: __ZL24llama_sampler_empty_namePK13llama_sampler, symObjAddr: 0x4504, symBinAddr: 0xC71CC, symSize: 0xC }
  - { offset: 0x6617F6, size: 0x8, addend: 0x0, symName: __ZL24llama_sampler_empty_namePK13llama_sampler, symObjAddr: 0x4504, symBinAddr: 0xC71CC, symSize: 0xC }
  - { offset: 0x661836, size: 0x8, addend: 0x0, symName: __ZL26llama_sampler_empty_acceptP13llama_sampleri, symObjAddr: 0x4510, symBinAddr: 0xC71D8, symSize: 0x4 }
  - { offset: 0x66186A, size: 0x8, addend: 0x0, symName: __ZL25llama_sampler_empty_applyP13llama_samplerP22llama_token_data_array, symObjAddr: 0x4514, symBinAddr: 0xC71DC, symSize: 0x4 }
  - { offset: 0x66189E, size: 0x8, addend: 0x0, symName: __ZL25llama_sampler_empty_resetP13llama_sampler, symObjAddr: 0x4518, symBinAddr: 0xC71E0, symSize: 0x4 }
  - { offset: 0x6618C6, size: 0x8, addend: 0x0, symName: __ZL25llama_sampler_empty_clonePK13llama_sampler, symObjAddr: 0x451C, symBinAddr: 0xC71E4, symSize: 0x44 }
  - { offset: 0x661949, size: 0x8, addend: 0x0, symName: __ZL24llama_sampler_empty_freeP13llama_sampler, symObjAddr: 0x4560, symBinAddr: 0xC7228, symSize: 0x10 }
  - { offset: 0x661975, size: 0x8, addend: 0x0, symName: __ZL32llama_sampler_empty_backend_initP13llama_samplerP24ggml_backend_buffer_type, symObjAddr: 0x4570, symBinAddr: 0xC7238, symSize: 0x8 }
  - { offset: 0x6619AD, size: 0x8, addend: 0x0, symName: __ZL34llama_sampler_empty_backend_acceptP13llama_samplerP12ggml_contextP11ggml_cgraphP11ggml_tensor, symObjAddr: 0x4578, symBinAddr: 0xC7240, symSize: 0x4 }
  - { offset: 0x6619F9, size: 0x8, addend: 0x0, symName: __ZL33llama_sampler_empty_backend_applyP13llama_samplerP12ggml_contextP11ggml_cgraphP18llama_sampler_data, symObjAddr: 0x457C, symBinAddr: 0xC7244, symSize: 0x4 }
  - { offset: 0x661A45, size: 0x8, addend: 0x0, symName: __ZL37llama_sampler_empty_backend_set_inputP13llama_sampler, symObjAddr: 0x4580, symBinAddr: 0xC7248, symSize: 0x4 }
  - { offset: 0x661A6D, size: 0x8, addend: 0x0, symName: __ZL24llama_sampler_top_k_namePK13llama_sampler, symObjAddr: 0x4584, symBinAddr: 0xC724C, symSize: 0xC0 }
  - { offset: 0x661CF9, size: 0x8, addend: 0x0, symName: __ZL25llama_sampler_top_k_applyP13llama_samplerP22llama_token_data_array, symObjAddr: 0x4644, symBinAddr: 0xC730C, symSize: 0x58 }
  - { offset: 0x661D9F, size: 0x8, addend: 0x0, symName: __ZL25llama_sampler_top_k_clonePK13llama_sampler, symObjAddr: 0x469C, symBinAddr: 0xC7364, symSize: 0xA4 }
  - { offset: 0x661E89, size: 0x8, addend: 0x0, symName: __ZL24llama_sampler_top_k_freeP13llama_sampler, symObjAddr: 0x4740, symBinAddr: 0xC7408, symSize: 0x68 }
  - { offset: 0x6620DA, size: 0x8, addend: 0x0, symName: __ZL32llama_sampler_top_k_backend_initP13llama_samplerP24ggml_backend_buffer_type, symObjAddr: 0x47A8, symBinAddr: 0xC7470, symSize: 0x60 }
  - { offset: 0x66216B, size: 0x8, addend: 0x0, symName: __ZL33llama_sampler_top_k_backend_applyP13llama_samplerP12ggml_contextP11ggml_cgraphP18llama_sampler_data, symObjAddr: 0x4808, symBinAddr: 0xC74D0, symSize: 0xE8 }
  - { offset: 0x66217E, size: 0x8, addend: 0x0, symName: __ZL33llama_sampler_top_k_backend_applyP13llama_samplerP12ggml_contextP11ggml_cgraphP18llama_sampler_data, symObjAddr: 0x4808, symBinAddr: 0xC74D0, symSize: 0xE8 }
  - { offset: 0x662A07, size: 0x8, addend: 0x0, symName: __ZNSt3__16vectorIP16llama_token_dataNS_9allocatorIS2_EEE20__throw_length_errorB8ne200100Ev, symObjAddr: 0x5414, symBinAddr: 0xC802C, symSize: 0x14 }
  - { offset: 0x662A1F, size: 0x8, addend: 0x0, symName: '__ZNSt3__111__introsortINS_17_ClassicAlgPolicyERZL35llama_token_data_array_partial_sortRK22llama_token_data_arrayiRNS_6vectorI16llama_token_dataNS_9allocatorIS6_EEEEE3$_0PS6_Lb0EEEvT1_SE_T0_NS_15iterator_traitsISE_E15difference_typeEb', symObjAddr: 0x5428, symBinAddr: 0xC8040, symSize: 0xDA4 }
  - { offset: 0x662AE2, size: 0x8, addend: 0x0, symName: __ZL24llama_sampler_top_p_namePK13llama_sampler, symObjAddr: 0x6CCC, symBinAddr: 0xC98E4, symSize: 0xC0 }
  - { offset: 0x662DBE, size: 0x8, addend: 0x0, symName: __ZL25llama_sampler_top_p_applyP13llama_samplerP22llama_token_data_array, symObjAddr: 0x6D8C, symBinAddr: 0xC99A4, symSize: 0x348 }
  - { offset: 0x663117, size: 0x8, addend: 0x0, symName: __ZL25llama_sampler_top_p_clonePK13llama_sampler, symObjAddr: 0x70D4, symBinAddr: 0xC9CEC, symSize: 0xA8 }
  - { offset: 0x66315D, size: 0x8, addend: 0x0, symName: __ZL25llama_sampler_top_p_clonePK13llama_sampler, symObjAddr: 0x70D4, symBinAddr: 0xC9CEC, symSize: 0xA8 }
  - { offset: 0x66328F, size: 0x8, addend: 0x0, symName: __ZL24llama_sampler_top_p_freeP13llama_sampler, symObjAddr: 0x717C, symBinAddr: 0xC9D94, symSize: 0x78 }
  - { offset: 0x66360C, size: 0x8, addend: 0x0, symName: __ZL32llama_sampler_top_p_backend_initP13llama_samplerP24ggml_backend_buffer_type, symObjAddr: 0x71F4, symBinAddr: 0xC9E0C, symSize: 0x60 }
  - { offset: 0x66369D, size: 0x8, addend: 0x0, symName: __ZL33llama_sampler_top_p_backend_applyP13llama_samplerP12ggml_contextP11ggml_cgraphP18llama_sampler_data, symObjAddr: 0x7254, symBinAddr: 0xC9E6C, symSize: 0x2A0 }
  - { offset: 0x6636B0, size: 0x8, addend: 0x0, symName: __ZL33llama_sampler_top_p_backend_applyP13llama_samplerP12ggml_contextP11ggml_cgraphP18llama_sampler_data, symObjAddr: 0x7254, symBinAddr: 0xC9E6C, symSize: 0x2A0 }
  - { offset: 0x663B54, size: 0x8, addend: 0x0, symName: __ZL24llama_sampler_min_p_namePK13llama_sampler, symObjAddr: 0x74F4, symBinAddr: 0xCA10C, symSize: 0xC0 }
  - { offset: 0x663C6B, size: 0x8, addend: 0x0, symName: __ZL24llama_sampler_min_p_namePK13llama_sampler, symObjAddr: 0x74F4, symBinAddr: 0xCA10C, symSize: 0xC0 }
  - { offset: 0x6641CA, size: 0x8, addend: 0x0, symName: __ZL25llama_sampler_min_p_applyP13llama_samplerP22llama_token_data_array, symObjAddr: 0x75B4, symBinAddr: 0xCA1CC, symSize: 0x2DC }
  - { offset: 0x66493F, size: 0x8, addend: 0x0, symName: __ZNSt3__16vectorI16llama_token_dataNS_9allocatorIS1_EEE20__throw_length_errorB8ne200100Ev, symObjAddr: 0x7B1C, symBinAddr: 0xCA734, symSize: 0x14 }
  - { offset: 0x664957, size: 0x8, addend: 0x0, symName: __ZL26llama_sampler_typical_namePK13llama_sampler, symObjAddr: 0x7B30, symBinAddr: 0xCA748, symSize: 0xC }
  - { offset: 0x664995, size: 0x8, addend: 0x0, symName: __ZL25llama_sampler_min_p_clonePK13llama_sampler, symObjAddr: 0x7890, symBinAddr: 0xCA4A8, symSize: 0xA0 }
  - { offset: 0x664A88, size: 0x8, addend: 0x0, symName: __ZL24llama_sampler_min_p_freeP13llama_sampler, symObjAddr: 0x7930, symBinAddr: 0xCA548, symSize: 0x68 }
  - { offset: 0x664CD9, size: 0x8, addend: 0x0, symName: __ZL32llama_sampler_min_p_backend_initP13llama_samplerP24ggml_backend_buffer_type, symObjAddr: 0x7998, symBinAddr: 0xCA5B0, symSize: 0x60 }
  - { offset: 0x664D6A, size: 0x8, addend: 0x0, symName: __ZL33llama_sampler_min_p_backend_applyP13llama_samplerP12ggml_contextP11ggml_cgraphP18llama_sampler_data, symObjAddr: 0x79F8, symBinAddr: 0xCA610, symSize: 0x124 }
  - { offset: 0x664D7D, size: 0x8, addend: 0x0, symName: __ZL33llama_sampler_min_p_backend_applyP13llama_samplerP12ggml_contextP11ggml_cgraphP18llama_sampler_data, symObjAddr: 0x79F8, symBinAddr: 0xCA610, symSize: 0x124 }
  - { offset: 0x664F80, size: 0x8, addend: 0x0, symName: __ZL26llama_sampler_typical_namePK13llama_sampler, symObjAddr: 0x7B30, symBinAddr: 0xCA748, symSize: 0xC }
  - { offset: 0x66548B, size: 0x8, addend: 0x0, symName: __ZL27llama_sampler_typical_applyP13llama_samplerP22llama_token_data_array, symObjAddr: 0x7B3C, symBinAddr: 0xCA754, symSize: 0x80C }
  - { offset: 0x666815, size: 0x8, addend: 0x0, symName: '__ZNSt3__111__introsortINS_17_ClassicAlgPolicyERZL27llama_sampler_typical_applyP13llama_samplerP22llama_token_data_arrayE3$_0PmLb0EEEvT1_S9_T0_NS_15iterator_traitsIS9_E15difference_typeEb', symObjAddr: 0x8404, symBinAddr: 0xCAFF4, symSize: 0xAD8 }
  - { offset: 0x666853, size: 0x8, addend: 0x0, symName: __ZL27llama_sampler_typical_clonePK13llama_sampler, symObjAddr: 0x8348, symBinAddr: 0xCAF60, symSize: 0x84 }
  - { offset: 0x6668D1, size: 0x8, addend: 0x0, symName: __ZL26llama_sampler_typical_freeP13llama_sampler, symObjAddr: 0x83CC, symBinAddr: 0xCAFE4, symSize: 0x10 }
  - { offset: 0x6669CE, size: 0x8, addend: 0x0, symName: __ZL23llama_sampler_temp_namePK13llama_sampler, symObjAddr: 0x93D0, symBinAddr: 0xCBFC0, symSize: 0xC0 }
  - { offset: 0x666C90, size: 0x8, addend: 0x0, symName: __ZL24llama_sampler_temp_applyP13llama_samplerP22llama_token_data_array, symObjAddr: 0x9490, symBinAddr: 0xCC080, symSize: 0x138 }
