---
triple:          'arm64-apple-darwin'
binary-path:     '/opt/UnitySrc/personal/ocs-test/llama_dart/src/native/llama_cpp/build-ios-device/framework/llama.framework/llama'
relocations:
  - { offset: 0x25B1E, size: 0x8, addend: 0x0, symName: __ZNSt3__127__tree_balance_after_insertB8ne200100IPNS_16__tree_node_baseIPvEEEEvT_S5_, symObjAddr: 0x307C, symBinAddr: 0x707C, symSize: 0x1AC }
  - { offset: 0x26C72, size: 0x8, addend: 0x0, symName: __ZNSt3__120__throw_length_errorB8ne200100EPKc, symObjAddr: 0x323C, symBinAddr: 0x723C, symSize: 0x50 }
  - { offset: 0x271E9, size: 0x8, addend: 0x0, symName: __ZNSt3__120__throw_out_of_rangeB8ne200100EPKc, symObjAddr: 0x4148, symBinAddr: 0x8148, symSize: 0x50 }
  - { offset: 0x28D16, size: 0x8, addend: 0x0, symName: __ZSt28__throw_bad_array_new_lengthB8ne200100v, symObjAddr: 0x3054, symBinAddr: 0x7054, symSize: 0x28 }
  - { offset: 0x30203, size: 0x8, addend: 0x0, symName: __ZNK18llama_adapter_cvec10tensor_forEi, symObjAddr: 0x0, symBinAddr: 0x4000, symSize: 0x40 }
  - { offset: 0x3026D, size: 0x8, addend: 0x0, symName: __ZNK18llama_adapter_cvec8apply_toEP12ggml_contextP11ggml_tensori, symObjAddr: 0x40, symBinAddr: 0x4040, symSize: 0x50 }
  - { offset: 0x302D4, size: 0x8, addend: 0x0, symName: __ZNK18llama_adapter_cvec8apply_toEP12ggml_contextP11ggml_tensori, symObjAddr: 0x40, symBinAddr: 0x4040, symSize: 0x50 }
  - { offset: 0x3092F, size: 0x8, addend: 0x0, symName: __ZN18llama_adapter_cvec4initERK11llama_model, symObjAddr: 0x90, symBinAddr: 0x4090, symSize: 0x72C }
  - { offset: 0x33672, size: 0x8, addend: 0x0, symName: __ZNSt3__16__treeINS_12__value_typeIP24ggml_backend_buffer_typeP12ggml_contextEENS_19__map_value_compareIS3_S6_NS_4lessIS3_EELb1EEENS_9allocatorIS6_EEE7destroyEPNS_11__tree_nodeIS6_PvEE, symObjAddr: 0x5280, symBinAddr: 0x9280, symSize: 0x44 }
  - { offset: 0x33789, size: 0x8, addend: 0x0, symName: __ZNSt3__16vectorINS_10unique_ptrI19ggml_backend_buffer27ggml_backend_buffer_deleterEENS_9allocatorIS4_EEE20__throw_length_errorB8ne200100Ev, symObjAddr: 0x4BB4, symBinAddr: 0x8BB4, symSize: 0x14 }
  - { offset: 0x337A1, size: 0x8, addend: 0x0, symName: __ZNSt3__16vectorIhNS_9allocatorIhEEE20__throw_length_errorB8ne200100Ev, symObjAddr: 0x4BC8, symBinAddr: 0x8BC8, symSize: 0x14 }
  - { offset: 0x337AC, size: 0x8, addend: 0x0, symName: __ZNSt3__16vectorIP11ggml_tensorNS_9allocatorIS2_EEE20__throw_length_errorB8ne200100Ev, symObjAddr: 0x52C4, symBinAddr: 0x92C4, symSize: 0x14 }
  - { offset: 0x337C4, size: 0x8, addend: 0x0, symName: __ZNSt3__112__hash_tableINS_17__hash_value_typeINS_12basic_stringIcNS_11char_traitsIcEENS_9allocatorIcEEEE25llama_adapter_lora_weightEENS_22__unordered_map_hasherIS7_S9_NS_4hashIS7_EENS_8equal_toIS7_EELb1EEENS_21__unordered_map_equalIS7_S9_SE_SC_Lb1EEENS5_IS9_EEE4findIS7_EENS_15__hash_iteratorIPNS_11__hash_nodeIS9_PvEEEERKT_, symObjAddr: 0x52D8, symBinAddr: 0x92D8, symSize: 0x1B4 }
  - { offset: 0x337CF, size: 0x8, addend: 0x0, symName: __ZNSt3__16vectorINS_10unique_ptrI12ggml_context20ggml_context_deleterEENS_9allocatorIS4_EEE20__throw_length_errorB8ne200100Ev, symObjAddr: 0x3228, symBinAddr: 0x7228, symSize: 0x14 }
  - { offset: 0x337E7, size: 0x8, addend: 0x0, symName: __ZNSt3__120__throw_length_errorB8ne200100EPKc, symObjAddr: 0x323C, symBinAddr: 0x723C, symSize: 0x50 }
  - { offset: 0x3382E, size: 0x8, addend: 0x0, symName: __ZN18llama_adapter_cvec5applyERK11llama_modelPKfmiii, symObjAddr: 0x7BC, symBinAddr: 0x47BC, symSize: 0x12C }
  - { offset: 0x33C73, size: 0x8, addend: 0x0, symName: __ZN18llama_adapter_lora10get_weightEP11ggml_tensor, symObjAddr: 0x8E8, symBinAddr: 0x48E8, symSize: 0xF8 }
  - { offset: 0x34165, size: 0x8, addend: 0x0, symName: __ZNSt3__112__hash_tableINS_17__hash_value_typeINS_12basic_stringIcNS_11char_traitsIcEENS_9allocatorIcEEEE25llama_adapter_lora_weightEENS_22__unordered_map_hasherIS7_S9_NS_4hashIS7_EENS_8equal_toIS7_EELb1EEENS_21__unordered_map_equalIS7_S9_SE_SC_Lb1EEENS5_IS9_EEE4findIS7_EENS_15__hash_iteratorIPNS_11__hash_nodeIS9_PvEEEERKT_, symObjAddr: 0x52D8, symBinAddr: 0x92D8, symSize: 0x1B4 }
  - { offset: 0x3446E, size: 0x8, addend: 0x0, symName: __ZNSt3__112basic_stringIcNS_11char_traitsIcEENS_9allocatorIcEEE20__throw_length_errorB8ne200100Ev, symObjAddr: 0x41BC, symBinAddr: 0x81BC, symSize: 0x14 }
  - { offset: 0x34486, size: 0x8, addend: 0x0, symName: __ZNSt3__112basic_stringIcNS_11char_traitsIcEENS_9allocatorIcEEE25__init_copy_ctor_externalEPKcm, symObjAddr: 0x41D0, symBinAddr: 0x81D0, symSize: 0x88 }
  - { offset: 0x34491, size: 0x8, addend: 0x0, symName: __ZNSt3__112basic_stringIcNS_11char_traitsIcEENS_9allocatorIcEEEC1B8ne200100ILi0EEEPKc, symObjAddr: 0x9E0, symBinAddr: 0x49E0, symSize: 0xA4 }
  - { offset: 0x346F9, size: 0x8, addend: 0x0, symName: _llama_adapter_lora_init, symObjAddr: 0xA84, symBinAddr: 0x4A84, symSize: 0x100 }
  - { offset: 0x348DE, size: 0x8, addend: 0x0, symName: _llama_adapter_lora_init, symObjAddr: 0xA84, symBinAddr: 0x4A84, symSize: 0x100 }
  - { offset: 0x34B5E, size: 0x8, addend: 0x0, symName: __ZL28llama_adapter_lora_init_implR11llama_modelPKcR18llama_adapter_lora, symObjAddr: 0xB84, symBinAddr: 0x4B84, symSize: 0x2220 }
  - { offset: 0x3D440, size: 0x8, addend: 0x0, symName: __ZN18llama_adapter_loraD2Ev, symObjAddr: 0x5114, symBinAddr: 0x9114, symSize: 0x16C }
  - { offset: 0x3F686, size: 0x8, addend: 0x0, symName: __ZNSt3__112__hash_tableINS_17__hash_value_typeINS_12basic_stringIcNS_11char_traitsIcEENS_9allocatorIcEEEES7_EENS_22__unordered_map_hasherIS7_S8_NS_4hashIS7_EENS_8equal_toIS7_EELb1EEENS_21__unordered_map_equalIS7_S8_SD_SB_Lb1EEENS5_IS8_EEE21__emplace_unique_implIJRPKcRKS7_EEENS_4pairINS_15__hash_iteratorIPNS_11__hash_nodeIS8_PvEEEEbEEDpOT_, symObjAddr: 0x34CC, symBinAddr: 0x74CC, symSize: 0x140 }
  - { offset: 0x3FE89, size: 0x8, addend: 0x0, symName: __ZNSt3__112basic_stringIcNS_11char_traitsIcEENS_9allocatorIcEEE25__init_copy_ctor_externalEPKcm, symObjAddr: 0x41D0, symBinAddr: 0x81D0, symSize: 0x88 }
  - { offset: 0x40049, size: 0x8, addend: 0x0, symName: __ZNSt3__16vectorIiNS_9allocatorIiEEE8__appendEm, symObjAddr: 0x4258, symBinAddr: 0x8258, symSize: 0x120 }
  - { offset: 0x400E7, size: 0x8, addend: 0x0, symName: __ZNSt3__16vectorIiNS_9allocatorIiEEE8__appendEm, symObjAddr: 0x4258, symBinAddr: 0x8258, symSize: 0x120 }
  - { offset: 0x404C5, size: 0x8, addend: 0x0, symName: __ZNSt3__16vectorIiNS_9allocatorIiEEE20__throw_length_errorB8ne200100Ev, symObjAddr: 0x4378, symBinAddr: 0x8378, symSize: 0x14 }
  - { offset: 0x40534, size: 0x8, addend: 0x0, symName: __ZNSt3__16__treeINS_12__value_typeINS_12basic_stringIcNS_11char_traitsIcEENS_9allocatorIcEEEE25llama_adapter_lora_weightEENS_19__map_value_compareIS7_S9_NS_4lessIS7_EELb1EEENS5_IS9_EEE25__emplace_unique_key_argsIS7_JRKNS_21piecewise_construct_tENS_5tupleIJRKS7_EEENSK_IJEEEEEENS_4pairINS_15__tree_iteratorIS9_PNS_11__tree_nodeIS9_PvEElEEbEERKT_DpOT0_, symObjAddr: 0x438C, symBinAddr: 0x838C, symSize: 0x1B0 }
  - { offset: 0x40C4C, size: 0x8, addend: 0x0, symName: __ZNSt3__112__hash_tableINS_17__hash_value_typeINS_12basic_stringIcNS_11char_traitsIcEENS_9allocatorIcEEEE25llama_adapter_lora_weightEENS_22__unordered_map_hasherIS7_S9_NS_4hashIS7_EENS_8equal_toIS7_EELb1EEENS_21__unordered_map_equalIS7_S9_SE_SC_Lb1EEENS5_IS9_EEE25__emplace_unique_key_argsIS7_JRKNS_21piecewise_construct_tENS_5tupleIJRKS7_EEENSO_IJEEEEEENS_4pairINS_15__hash_iteratorIPNS_11__hash_nodeIS9_PvEEEEbEERKT_DpOT0_, symObjAddr: 0x45B0, symBinAddr: 0x85B0, symSize: 0x424 }
  - { offset: 0x4175F, size: 0x8, addend: 0x0, symName: '__ZZL28llama_adapter_lora_init_implR11llama_modelPKcR18llama_adapter_loraENK3$_4clEP11ggml_tensorS7_', symObjAddr: 0x3318, symBinAddr: 0x7318, symSize: 0x180 }
  - { offset: 0x41D4E, size: 0x8, addend: 0x0, symName: __ZNSt3__110unique_ptrI12gguf_context20gguf_context_deleterED1B8ne200100Ev, symObjAddr: 0x3498, symBinAddr: 0x7498, symSize: 0x34 }
  - { offset: 0x41D5F, size: 0x8, addend: 0x0, symName: __ZNSt3__112__hash_tableIP18llama_adapter_loraNS_4hashIS2_EENS_8equal_toIS2_EENS_9allocatorIS2_EEE25__emplace_unique_key_argsIS2_JS2_EEENS_4pairINS_15__hash_iteratorIPNS_11__hash_nodeIS2_PvEEEEbEERKT_DpOT0_, symObjAddr: 0x4BDC, symBinAddr: 0x8BDC, symSize: 0x358 }
  - { offset: 0x424B4, size: 0x8, addend: 0x0, symName: __ZNSt3__16__treeINS_12__value_typeINS_12basic_stringIcNS_11char_traitsIcEENS_9allocatorIcEEEE25llama_adapter_lora_weightEENS_19__map_value_compareIS7_S9_NS_4lessIS7_EELb1EEENS5_IS9_EEE7destroyEPNS_11__tree_nodeIS9_PvEE, symObjAddr: 0x50B4, symBinAddr: 0x90B4, symSize: 0x60 }
  - { offset: 0x42711, size: 0x8, addend: 0x0, symName: __ZNSt3__112basic_stringIcNS_11char_traitsIcEENS_9allocatorIcEEE20__throw_out_of_rangeB8ne200100Ev, symObjAddr: 0x4134, symBinAddr: 0x8134, symSize: 0x14 }
  - { offset: 0x42729, size: 0x8, addend: 0x0, symName: __ZNSt3__120__throw_out_of_rangeB8ne200100EPKc, symObjAddr: 0x4148, symBinAddr: 0x8148, symSize: 0x50 }
  - { offset: 0x42734, size: 0x8, addend: 0x0, symName: __ZNSt3__16vectorIP24ggml_backend_buffer_typeNS_9allocatorIS2_EEE20__throw_length_errorB8ne200100Ev, symObjAddr: 0x459C, symBinAddr: 0x859C, symSize: 0x14 }
  - { offset: 0x4274C, size: 0x8, addend: 0x0, symName: __ZNSt3__112__hash_tableINS_17__hash_value_typeINS_12basic_stringIcNS_11char_traitsIcEENS_9allocatorIcEEEE25llama_adapter_lora_weightEENS_22__unordered_map_hasherIS7_S9_NS_4hashIS7_EENS_8equal_toIS7_EELb1EEENS_21__unordered_map_equalIS7_S9_SE_SC_Lb1EEENS5_IS9_EEE25__emplace_unique_key_argsIS7_JRKNS_21piecewise_construct_tENS_5tupleIJRKS7_EEENSO_IJEEEEEENS_4pairINS_15__hash_iteratorIPNS_11__hash_nodeIS9_PvEEEEbEERKT_DpOT0_, symObjAddr: 0x45B0, symBinAddr: 0x85B0, symSize: 0x424 }
  - { offset: 0x42757, size: 0x8, addend: 0x0, symName: __ZNSt3__110unique_ptrI12gguf_context20gguf_context_deleterED1B8ne200100Ev, symObjAddr: 0x3498, symBinAddr: 0x7498, symSize: 0x34 }
  - { offset: 0x427EB, size: 0x8, addend: 0x0, symName: __ZNSt3__110unique_ptrI19ggml_backend_buffer27ggml_backend_buffer_deleterED1B8ne200100Ev, symObjAddr: 0x32E4, symBinAddr: 0x72E4, symSize: 0x34 }
  - { offset: 0x4287F, size: 0x8, addend: 0x0, symName: __ZNSt3__110unique_ptrI12ggml_context20ggml_context_deleterED1B8ne200100Ev, symObjAddr: 0x32B0, symBinAddr: 0x72B0, symSize: 0x34 }
  - { offset: 0x4293B, size: 0x8, addend: 0x0, symName: _llama_adapter_meta_val_str, symObjAddr: 0x2DB4, symBinAddr: 0x6DB4, symSize: 0x13C }
  - { offset: 0x42F07, size: 0x8, addend: 0x0, symName: __ZNKSt3__112__hash_tableINS_17__hash_value_typeINS_12basic_stringIcNS_11char_traitsIcEENS_9allocatorIcEEEES7_EENS_22__unordered_map_hasherIS7_S8_NS_4hashIS7_EENS_8equal_toIS7_EELb1EEENS_21__unordered_map_equalIS7_S8_SD_SB_Lb1EEENS5_IS8_EEE4findIS7_EENS_21__hash_const_iteratorIPNS_11__hash_nodeIS8_PvEEEERKT_, symObjAddr: 0x548C, symBinAddr: 0x948C, symSize: 0x1B4 }
  - { offset: 0x43260, size: 0x8, addend: 0x0, symName: _llama_adapter_meta_count, symObjAddr: 0x2EF0, symBinAddr: 0x6EF0, symSize: 0x8 }
  - { offset: 0x4328E, size: 0x8, addend: 0x0, symName: _llama_adapter_meta_count, symObjAddr: 0x2EF0, symBinAddr: 0x6EF0, symSize: 0x8 }
  - { offset: 0x432AD, size: 0x8, addend: 0x0, symName: _llama_adapter_meta_count, symObjAddr: 0x2EF0, symBinAddr: 0x6EF0, symSize: 0x8 }
  - { offset: 0x43380, size: 0x8, addend: 0x0, symName: _llama_adapter_meta_key_by_index, symObjAddr: 0x2EF8, symBinAddr: 0x6EF8, symSize: 0x84 }
  - { offset: 0x435BA, size: 0x8, addend: 0x0, symName: _llama_adapter_meta_val_str_by_index, symObjAddr: 0x2F7C, symBinAddr: 0x6F7C, symSize: 0x84 }
  - { offset: 0x437AB, size: 0x8, addend: 0x0, symName: _llama_adapter_lora_free, symObjAddr: 0x3000, symBinAddr: 0x7000, symSize: 0x4 }
  - { offset: 0x437CE, size: 0x8, addend: 0x0, symName: _llama_adapter_get_alora_n_invocation_tokens, symObjAddr: 0x3004, symBinAddr: 0x7004, symSize: 0x14 }
  - { offset: 0x43830, size: 0x8, addend: 0x0, symName: _llama_adapter_get_alora_invocation_tokens, symObjAddr: 0x3018, symBinAddr: 0x7018, symSize: 0x3C }
  - { offset: 0x4387E, size: 0x8, addend: 0x0, symName: __ZSt28__throw_bad_array_new_lengthB8ne200100v, symObjAddr: 0x3054, symBinAddr: 0x7054, symSize: 0x28 }
  - { offset: 0x438CF, size: 0x8, addend: 0x0, symName: __ZNSt12length_errorC1B8ne200100EPKc, symObjAddr: 0x328C, symBinAddr: 0x728C, symSize: 0x24 }
  - { offset: 0x43E67, size: 0x8, addend: 0x0, symName: __ZNSt3__16vectorIhNS_9allocatorIhEEE20__throw_length_errorB8ne200100Ev, symObjAddr: 0x4BC8, symBinAddr: 0x8BC8, symSize: 0x14 }
  - { offset: 0x43E7F, size: 0x8, addend: 0x0, symName: __ZNSt3__112__hash_tableIP18llama_adapter_loraNS_4hashIS2_EENS_8equal_toIS2_EENS_9allocatorIS2_EEE25__emplace_unique_key_argsIS2_JS2_EEENS_4pairINS_15__hash_iteratorIPNS_11__hash_nodeIS2_PvEEEEbEERKT_DpOT0_, symObjAddr: 0x4BDC, symBinAddr: 0x8BDC, symSize: 0x358 }
  - { offset: 0x44311, size: 0x8, addend: 0x0, symName: __ZNSt3__14pairIKNS_12basic_stringIcNS_11char_traitsIcEENS_9allocatorIcEEEES6_EC2B8ne200100IRPKcRS7_Li0EEEOT_OT0_, symObjAddr: 0x37BC, symBinAddr: 0x77BC, symSize: 0x108 }
  - { offset: 0x4471C, size: 0x8, addend: 0x0, symName: __ZNKSt3__121__murmur2_or_cityhashImLm64EEclB8ne200100EPKvm, symObjAddr: 0x38C4, symBinAddr: 0x78C4, symSize: 0x44C }
  - { offset: 0x450DF, size: 0x8, addend: 0x0, symName: __ZNSt3__112__hash_tableINS_17__hash_value_typeINS_12basic_stringIcNS_11char_traitsIcEENS_9allocatorIcEEEES7_EENS_22__unordered_map_hasherIS7_S8_NS_4hashIS7_EENS_8equal_toIS7_EELb1EEENS_21__unordered_map_equalIS7_S8_SD_SB_Lb1EEENS5_IS8_EEE20__node_insert_uniqueEPNS_11__hash_nodeIS8_PvEE, symObjAddr: 0x360C, symBinAddr: 0x760C, symSize: 0x144 }
  - { offset: 0x45352, size: 0x8, addend: 0x0, symName: __ZNSt3__110unique_ptrINS_11__hash_nodeINS_17__hash_value_typeINS_12basic_stringIcNS_11char_traitsIcEENS_9allocatorIcEEEES8_EEPvEENS_22__hash_node_destructorINS6_ISB_EEEEED1B8ne200100Ev, symObjAddr: 0x3750, symBinAddr: 0x7750, symSize: 0x6C }
  - { offset: 0x45771, size: 0x8, addend: 0x0, symName: __ZNSt3__112__hash_tableINS_17__hash_value_typeINS_12basic_stringIcNS_11char_traitsIcEENS_9allocatorIcEEEES7_EENS_22__unordered_map_hasherIS7_S8_NS_4hashIS7_EENS_8equal_toIS7_EELb1EEENS_21__unordered_map_equalIS7_S8_SD_SB_Lb1EEENS5_IS8_EEE28__node_insert_unique_prepareB8ne200100EmRS8_, symObjAddr: 0x3D10, symBinAddr: 0x7D10, symSize: 0x2A4 }
  - { offset: 0x45DDF, size: 0x8, addend: 0x0, symName: __ZNSt3__112__hash_tableINS_17__hash_value_typeINS_12basic_stringIcNS_11char_traitsIcEENS_9allocatorIcEEEES7_EENS_22__unordered_map_hasherIS7_S8_NS_4hashIS7_EENS_8equal_toIS7_EELb1EEENS_21__unordered_map_equalIS7_S8_SD_SB_Lb1EEENS5_IS8_EEE11__do_rehashILb1EEEvm, symObjAddr: 0x3FB4, symBinAddr: 0x7FB4, symSize: 0x180 }
  - { offset: 0x4616C, size: 0x8, addend: 0x0, symName: __ZNSt3__112basic_stringIcNS_11char_traitsIcEENS_9allocatorIcEEE20__throw_out_of_rangeB8ne200100Ev, symObjAddr: 0x4134, symBinAddr: 0x8134, symSize: 0x14 }
  - { offset: 0x46291, size: 0x8, addend: 0x0, symName: __ZNSt12out_of_rangeC1B8ne200100EPKc, symObjAddr: 0x4198, symBinAddr: 0x8198, symSize: 0x24 }
  - { offset: 0x4662C, size: 0x8, addend: 0x0, symName: __ZNSt3__16vectorIiNS_9allocatorIiEEE20__throw_length_errorB8ne200100Ev, symObjAddr: 0x4378, symBinAddr: 0x8378, symSize: 0x14 }
  - { offset: 0x46644, size: 0x8, addend: 0x0, symName: __ZNSt3__16__treeINS_12__value_typeINS_12basic_stringIcNS_11char_traitsIcEENS_9allocatorIcEEEE25llama_adapter_lora_weightEENS_19__map_value_compareIS7_S9_NS_4lessIS7_EELb1EEENS5_IS9_EEE25__emplace_unique_key_argsIS7_JRKNS_21piecewise_construct_tENS_5tupleIJRKS7_EEENSK_IJEEEEEENS_4pairINS_15__tree_iteratorIS9_PNS_11__tree_nodeIS9_PvEElEEbEERKT_DpOT0_, symObjAddr: 0x438C, symBinAddr: 0x838C, symSize: 0x1B0 }
  - { offset: 0x46A6F, size: 0x8, addend: 0x0, symName: __ZNSt3__110unique_ptrINS_11__tree_nodeINS_12__value_typeINS_12basic_stringIcNS_11char_traitsIcEENS_9allocatorIcEEEE25llama_adapter_lora_weightEEPvEENS_22__tree_node_destructorINS6_ISC_EEEEED1B8ne200100Ev, symObjAddr: 0x453C, symBinAddr: 0x853C, symSize: 0x60 }
  - { offset: 0x4729B, size: 0x8, addend: 0x0, symName: __ZNSt3__112__hash_tableINS_17__hash_value_typeINS_12basic_stringIcNS_11char_traitsIcEENS_9allocatorIcEEEE25llama_adapter_lora_weightEENS_22__unordered_map_hasherIS7_S9_NS_4hashIS7_EENS_8equal_toIS7_EELb1EEENS_21__unordered_map_equalIS7_S9_SE_SC_Lb1EEENS5_IS9_EEE11__do_rehashILb1EEEvm, symObjAddr: 0x4A34, symBinAddr: 0x8A34, symSize: 0x180 }
  - { offset: 0x47628, size: 0x8, addend: 0x0, symName: __ZNSt3__16vectorINS_10unique_ptrI19ggml_backend_buffer27ggml_backend_buffer_deleterEENS_9allocatorIS4_EEE20__throw_length_errorB8ne200100Ev, symObjAddr: 0x4BB4, symBinAddr: 0x8BB4, symSize: 0x14 }
  - { offset: 0x4763D, size: 0x8, addend: 0x0, symName: __ZNSt3__110unique_ptrINS_11__hash_nodeINS_17__hash_value_typeINS_12basic_stringIcNS_11char_traitsIcEENS_9allocatorIcEEEE25llama_adapter_lora_weightEEPvEENS_22__hash_node_destructorINS6_ISC_EEEEED1B8ne200100Ev, symObjAddr: 0x49D4, symBinAddr: 0x89D4, symSize: 0x60 }
  - { offset: 0x47F7A, size: 0x8, addend: 0x0, symName: __ZNSt3__112__hash_tableIP18llama_adapter_loraNS_4hashIS2_EENS_8equal_toIS2_EENS_9allocatorIS2_EEE11__do_rehashILb1EEEvm, symObjAddr: 0x4F34, symBinAddr: 0x8F34, symSize: 0x180 }
  - { offset: 0x48307, size: 0x8, addend: 0x0, symName: __ZNSt3__16__treeINS_12__value_typeINS_12basic_stringIcNS_11char_traitsIcEENS_9allocatorIcEEEE25llama_adapter_lora_weightEENS_19__map_value_compareIS7_S9_NS_4lessIS7_EELb1EEENS5_IS9_EEE7destroyEPNS_11__tree_nodeIS9_PvEE, symObjAddr: 0x50B4, symBinAddr: 0x90B4, symSize: 0x60 }
  - { offset: 0x4AD3D, size: 0x8, addend: 0x0, symName: __MergedGlobals, symObjAddr: 0x71A50, symBinAddr: 0x360030, symSize: 0x0 }
  - { offset: 0x5A92C, size: 0x8, addend: 0x0, symName: __MergedGlobals, symObjAddr: 0x71A50, symBinAddr: 0x360030, symSize: 0x0 }
  - { offset: 0x5AD54, size: 0x8, addend: 0x0, symName: __MergedGlobals, symObjAddr: 0x71A50, symBinAddr: 0x360030, symSize: 0x0 }
  - { offset: 0x5B621, size: 0x8, addend: 0x0, symName: __MergedGlobals, symObjAddr: 0x71A50, symBinAddr: 0x360030, symSize: 0x0 }
  - { offset: 0x5BDBC, size: 0x8, addend: 0x0, symName: __ZNSt3__13mapI8llm_archPKcNS_4lessIS1_EENS_9allocatorINS_4pairIKS1_S3_EEEEED1B8ne200100Ev, symObjAddr: 0x0, symBinAddr: 0x9640, symSize: 0x28 }
  - { offset: 0x5BE70, size: 0x8, addend: 0x0, symName: __ZNSt3__16__treeINS_12__value_typeI8llm_archPKcEENS_19__map_value_compareIS2_S5_NS_4lessIS2_EELb1EEENS_9allocatorIS5_EEE7destroyEPNS_11__tree_nodeIS5_PvEE, symObjAddr: 0x1748, symBinAddr: 0xABCC, symSize: 0x44 }
  - { offset: 0x5BFFB, size: 0x8, addend: 0x0, symName: __ZNSt3__13mapI6llm_kvPKcNS_4lessIS1_EENS_9allocatorINS_4pairIKS1_S3_EEEEED1B8ne200100Ev, symObjAddr: 0x28, symBinAddr: 0x9668, symSize: 0x28 }
  - { offset: 0x5C0AF, size: 0x8, addend: 0x0, symName: __ZNSt3__16__treeINS_12__value_typeI6llm_kvPKcEENS_19__map_value_compareIS2_S5_NS_4lessIS2_EELb1EEENS_9allocatorIS5_EEE7destroyEPNS_11__tree_nodeIS5_PvEE, symObjAddr: 0x1A28, symBinAddr: 0xAEAC, symSize: 0x44 }
  - { offset: 0x5C23A, size: 0x8, addend: 0x0, symName: __ZNSt3__13mapI10llm_tensorPKcNS_4lessIS1_EENS_9allocatorINS_4pairIKS1_S3_EEEEED1B8ne200100Ev, symObjAddr: 0x50, symBinAddr: 0x9690, symSize: 0x28 }
  - { offset: 0x5C2EE, size: 0x8, addend: 0x0, symName: __ZNSt3__16__treeINS_12__value_typeI10llm_tensorPKcEENS_19__map_value_compareIS2_S5_NS_4lessIS2_EELb1EEENS_9allocatorIS5_EEE7destroyEPNS_11__tree_nodeIS5_PvEE, symObjAddr: 0x1D08, symBinAddr: 0xB18C, symSize: 0x44 }
  - { offset: 0x5C479, size: 0x8, addend: 0x0, symName: __ZNSt3__13mapI10llm_tensor15llm_tensor_infoNS_4lessIS1_EENS_9allocatorINS_4pairIKS1_S2_EEEEED1B8ne200100Ev, symObjAddr: 0x78, symBinAddr: 0x96B8, symSize: 0x28 }
  - { offset: 0x5C52D, size: 0x8, addend: 0x0, symName: __ZNSt3__16__treeINS_12__value_typeI10llm_tensor15llm_tensor_infoEENS_19__map_value_compareIS2_S4_NS_4lessIS2_EELb1EEENS_9allocatorIS4_EEE7destroyEPNS_11__tree_nodeIS4_PvEE, symObjAddr: 0x1FF4, symBinAddr: 0xB478, symSize: 0x44 }
  - { offset: 0x5C649, size: 0x8, addend: 0x0, symName: __ZN6LLM_KVC2E8llm_archPKc, symObjAddr: 0xA0, symBinAddr: 0x96E0, symSize: 0xC }
  - { offset: 0x5C6B2, size: 0x8, addend: 0x0, symName: __ZN6LLM_KVC1E8llm_archPKc, symObjAddr: 0xAC, symBinAddr: 0x96EC, symSize: 0xC }
  - { offset: 0x5C6FC, size: 0x8, addend: 0x0, symName: __ZN6LLM_KVC1E8llm_archPKc, symObjAddr: 0xAC, symBinAddr: 0x96EC, symSize: 0xC }
  - { offset: 0x5CA7C, size: 0x8, addend: 0x0, symName: __ZNK6LLM_KVclE6llm_kv, symObjAddr: 0xB8, symBinAddr: 0x96F8, symSize: 0xF4 }
  - { offset: 0x5CFA3, size: 0x8, addend: 0x0, symName: __ZN11LLM_TN_IMPLC2E8llm_arch10llm_tensorPKcii, symObjAddr: 0x1AC, symBinAddr: 0x97EC, symSize: 0xA38 }
  - { offset: 0x5D165, size: 0x8, addend: 0x0, symName: __ZN11LLM_TN_IMPLC1E8llm_arch10llm_tensorPKcii, symObjAddr: 0xBE4, symBinAddr: 0xA224, symSize: 0x4 }
  - { offset: 0x5D178, size: 0x8, addend: 0x0, symName: __ZNSt3__13setI10llm_tensorNS_4lessIS1_EENS_9allocatorIS1_EEEC2B8ne200100ESt16initializer_listIS1_ERKS3_, symObjAddr: 0x1010, symBinAddr: 0xA650, symSize: 0xEC }
  - { offset: 0x5D4F4, size: 0x8, addend: 0x0, symName: __ZN11LLM_TN_IMPLC1E8llm_arch10llm_tensorPKcii, symObjAddr: 0xBE4, symBinAddr: 0xA224, symSize: 0x4 }
  - { offset: 0x5D569, size: 0x8, addend: 0x0, symName: __ZN11LLM_TN_IMPLC1E8llm_arch10llm_tensorPKcii, symObjAddr: 0xBE4, symBinAddr: 0xA224, symSize: 0x4 }
  - { offset: 0x5DA12, size: 0x8, addend: 0x0, symName: __ZNK11LLM_TN_IMPL3strEv, symObjAddr: 0xBE8, symBinAddr: 0xA228, symSize: 0x1F8 }
  - { offset: 0x5E284, size: 0x8, addend: 0x0, symName: __Z13llm_arch_name8llm_arch, symObjAddr: 0xDE0, symBinAddr: 0xA420, symSize: 0x58 }
  - { offset: 0x5E2C6, size: 0x8, addend: 0x0, symName: __Z13llm_arch_name8llm_arch, symObjAddr: 0xDE0, symBinAddr: 0xA420, symSize: 0x58 }
  - { offset: 0x5E2DB, size: 0x8, addend: 0x0, symName: __Z13llm_arch_name8llm_arch, symObjAddr: 0xDE0, symBinAddr: 0xA420, symSize: 0x58 }
  - { offset: 0x5E2F9, size: 0x8, addend: 0x0, symName: __Z13llm_arch_name8llm_arch, symObjAddr: 0xDE0, symBinAddr: 0xA420, symSize: 0x58 }
  - { offset: 0x5E4BF, size: 0x8, addend: 0x0, symName: __Z20llm_arch_from_stringRKNSt3__112basic_stringIcNS_11char_traitsIcEENS_9allocatorIcEEEE, symObjAddr: 0xE38, symBinAddr: 0xA478, symSize: 0x108 }
  - { offset: 0x5E85E, size: 0x8, addend: 0x0, symName: __Z19llm_tensor_info_for10llm_tensor, symObjAddr: 0xF40, symBinAddr: 0xA580, symSize: 0x50 }
  - { offset: 0x5E943, size: 0x8, addend: 0x0, symName: __Z21llm_arch_is_recurrentRK8llm_arch, symObjAddr: 0xF90, symBinAddr: 0xA5D0, symSize: 0x20 }
  - { offset: 0x5E973, size: 0x8, addend: 0x0, symName: __Z18llm_arch_is_hybridRK8llm_arch, symObjAddr: 0xFB0, symBinAddr: 0xA5F0, symSize: 0x40 }
  - { offset: 0x5E9A3, size: 0x8, addend: 0x0, symName: __Z21llm_arch_is_diffusionRK8llm_arch, symObjAddr: 0xFF0, symBinAddr: 0xA630, symSize: 0x20 }
  - { offset: 0x5EC64, size: 0x8, addend: 0x0, symName: __ZNSt3__16__treeI10llm_tensorNS_4lessIS1_EENS_9allocatorIS1_EEE12__find_equalIS1_EERPNS_16__tree_node_baseIPvEENS_21__tree_const_iteratorIS1_PNS_11__tree_nodeIS1_S9_EElEERPNS_15__tree_end_nodeISB_EESC_RKT_, symObjAddr: 0x10FC, symBinAddr: 0xA73C, symSize: 0x1B0 }
  - { offset: 0x5ECC7, size: 0x8, addend: 0x0, symName: __ZNSt3__16__treeI10llm_tensorNS_4lessIS1_EENS_9allocatorIS1_EEE12__find_equalIS1_EERPNS_16__tree_node_baseIPvEENS_21__tree_const_iteratorIS1_PNS_11__tree_nodeIS1_S9_EElEERPNS_15__tree_end_nodeISB_EESC_RKT_, symObjAddr: 0x10FC, symBinAddr: 0xA73C, symSize: 0x1B0 }
  - { offset: 0x5ECE3, size: 0x8, addend: 0x0, symName: __ZNSt3__16__treeI10llm_tensorNS_4lessIS1_EENS_9allocatorIS1_EEE12__find_equalIS1_EERPNS_16__tree_node_baseIPvEENS_21__tree_const_iteratorIS1_PNS_11__tree_nodeIS1_S9_EElEERPNS_15__tree_end_nodeISB_EESC_RKT_, symObjAddr: 0x10FC, symBinAddr: 0xA73C, symSize: 0x1B0 }
  - { offset: 0x5EF6E, size: 0x8, addend: 0x0, symName: __ZNSt3__16__treeI10llm_tensorNS_4lessIS1_EENS_9allocatorIS1_EEE7destroyEPNS_11__tree_nodeIS1_PvEE, symObjAddr: 0x1468, symBinAddr: 0xA8EC, symSize: 0x44 }
  - { offset: 0x5F4BB, size: 0x8, addend: 0x0, symName: __ZNSt3__13mapI8llm_archPKcNS_4lessIS1_EENS_9allocatorINS_4pairIKS1_S3_EEEEEC2B8ne200100ESt16initializer_listIS9_ERKS5_, symObjAddr: 0x14AC, symBinAddr: 0xA930, symSize: 0xEC }
  - { offset: 0x5F846, size: 0x8, addend: 0x0, symName: __ZNSt3__16__treeINS_12__value_typeI8llm_archPKcEENS_19__map_value_compareIS2_S5_NS_4lessIS2_EELb1EEENS_9allocatorIS5_EEE12__find_equalIS2_EERPNS_16__tree_node_baseIPvEENS_21__tree_const_iteratorIS5_PNS_11__tree_nodeIS5_SF_EElEERPNS_15__tree_end_nodeISH_EESI_RKT_, symObjAddr: 0x1598, symBinAddr: 0xAA1C, symSize: 0x1B0 }
  - { offset: 0x5F8A9, size: 0x8, addend: 0x0, symName: __ZNSt3__16__treeINS_12__value_typeI8llm_archPKcEENS_19__map_value_compareIS2_S5_NS_4lessIS2_EELb1EEENS_9allocatorIS5_EEE12__find_equalIS2_EERPNS_16__tree_node_baseIPvEENS_21__tree_const_iteratorIS5_PNS_11__tree_nodeIS5_SF_EElEERPNS_15__tree_end_nodeISH_EESI_RKT_, symObjAddr: 0x1598, symBinAddr: 0xAA1C, symSize: 0x1B0 }
  - { offset: 0x5F8C5, size: 0x8, addend: 0x0, symName: __ZNSt3__16__treeINS_12__value_typeI8llm_archPKcEENS_19__map_value_compareIS2_S5_NS_4lessIS2_EELb1EEENS_9allocatorIS5_EEE12__find_equalIS2_EERPNS_16__tree_node_baseIPvEENS_21__tree_const_iteratorIS5_PNS_11__tree_nodeIS5_SF_EElEERPNS_15__tree_end_nodeISH_EESI_RKT_, symObjAddr: 0x1598, symBinAddr: 0xAA1C, symSize: 0x1B0 }
  - { offset: 0x5FF8F, size: 0x8, addend: 0x0, symName: __ZNSt3__13mapI6llm_kvPKcNS_4lessIS1_EENS_9allocatorINS_4pairIKS1_S3_EEEEEC2B8ne200100ESt16initializer_listIS9_ERKS5_, symObjAddr: 0x178C, symBinAddr: 0xAC10, symSize: 0xEC }
  - { offset: 0x6031A, size: 0x8, addend: 0x0, symName: __ZNSt3__16__treeINS_12__value_typeI6llm_kvPKcEENS_19__map_value_compareIS2_S5_NS_4lessIS2_EELb1EEENS_9allocatorIS5_EEE12__find_equalIS2_EERPNS_16__tree_node_baseIPvEENS_21__tree_const_iteratorIS5_PNS_11__tree_nodeIS5_SF_EElEERPNS_15__tree_end_nodeISH_EESI_RKT_, symObjAddr: 0x1878, symBinAddr: 0xACFC, symSize: 0x1B0 }
  - { offset: 0x6037D, size: 0x8, addend: 0x0, symName: __ZNSt3__16__treeINS_12__value_typeI6llm_kvPKcEENS_19__map_value_compareIS2_S5_NS_4lessIS2_EELb1EEENS_9allocatorIS5_EEE12__find_equalIS2_EERPNS_16__tree_node_baseIPvEENS_21__tree_const_iteratorIS5_PNS_11__tree_nodeIS5_SF_EElEERPNS_15__tree_end_nodeISH_EESI_RKT_, symObjAddr: 0x1878, symBinAddr: 0xACFC, symSize: 0x1B0 }
  - { offset: 0x60399, size: 0x8, addend: 0x0, symName: __ZNSt3__16__treeINS_12__value_typeI6llm_kvPKcEENS_19__map_value_compareIS2_S5_NS_4lessIS2_EELb1EEENS_9allocatorIS5_EEE12__find_equalIS2_EERPNS_16__tree_node_baseIPvEENS_21__tree_const_iteratorIS5_PNS_11__tree_nodeIS5_SF_EElEERPNS_15__tree_end_nodeISH_EESI_RKT_, symObjAddr: 0x1878, symBinAddr: 0xACFC, symSize: 0x1B0 }
  - { offset: 0x60AAD, size: 0x8, addend: 0x0, symName: __ZNSt3__13mapI10llm_tensorPKcNS_4lessIS1_EENS_9allocatorINS_4pairIKS1_S3_EEEEEC2B8ne200100ESt16initializer_listIS9_ERKS5_, symObjAddr: 0x1A6C, symBinAddr: 0xAEF0, symSize: 0xEC }
  - { offset: 0x60E38, size: 0x8, addend: 0x0, symName: __ZNSt3__16__treeINS_12__value_typeI10llm_tensorPKcEENS_19__map_value_compareIS2_S5_NS_4lessIS2_EELb1EEENS_9allocatorIS5_EEE12__find_equalIS2_EERPNS_16__tree_node_baseIPvEENS_21__tree_const_iteratorIS5_PNS_11__tree_nodeIS5_SF_EElEERPNS_15__tree_end_nodeISH_EESI_RKT_, symObjAddr: 0x1B58, symBinAddr: 0xAFDC, symSize: 0x1B0 }
  - { offset: 0x60E9B, size: 0x8, addend: 0x0, symName: __ZNSt3__16__treeINS_12__value_typeI10llm_tensorPKcEENS_19__map_value_compareIS2_S5_NS_4lessIS2_EELb1EEENS_9allocatorIS5_EEE12__find_equalIS2_EERPNS_16__tree_node_baseIPvEENS_21__tree_const_iteratorIS5_PNS_11__tree_nodeIS5_SF_EElEERPNS_15__tree_end_nodeISH_EESI_RKT_, symObjAddr: 0x1B58, symBinAddr: 0xAFDC, symSize: 0x1B0 }
  - { offset: 0x60EB7, size: 0x8, addend: 0x0, symName: __ZNSt3__16__treeINS_12__value_typeI10llm_tensorPKcEENS_19__map_value_compareIS2_S5_NS_4lessIS2_EELb1EEENS_9allocatorIS5_EEE12__find_equalIS2_EERPNS_16__tree_node_baseIPvEENS_21__tree_const_iteratorIS5_PNS_11__tree_nodeIS5_SF_EElEERPNS_15__tree_end_nodeISH_EESI_RKT_, symObjAddr: 0x1B58, symBinAddr: 0xAFDC, symSize: 0x1B0 }
  - { offset: 0x6159D, size: 0x8, addend: 0x0, symName: __ZNSt3__13mapI10llm_tensor15llm_tensor_infoNS_4lessIS1_EENS_9allocatorINS_4pairIKS1_S2_EEEEEC2B8ne200100ESt16initializer_listIS8_ERKS4_, symObjAddr: 0x1D4C, symBinAddr: 0xB1D0, symSize: 0xF8 }
  - { offset: 0x61928, size: 0x8, addend: 0x0, symName: __ZNSt3__16__treeINS_12__value_typeI10llm_tensor15llm_tensor_infoEENS_19__map_value_compareIS2_S4_NS_4lessIS2_EELb1EEENS_9allocatorIS4_EEE12__find_equalIS2_EERPNS_16__tree_node_baseIPvEENS_21__tree_const_iteratorIS4_PNS_11__tree_nodeIS4_SE_EElEERPNS_15__tree_end_nodeISG_EESH_RKT_, symObjAddr: 0x1E44, symBinAddr: 0xB2C8, symSize: 0x1B0 }
  - { offset: 0x6198B, size: 0x8, addend: 0x0, symName: __ZNSt3__16__treeINS_12__value_typeI10llm_tensor15llm_tensor_infoEENS_19__map_value_compareIS2_S4_NS_4lessIS2_EELb1EEENS_9allocatorIS4_EEE12__find_equalIS2_EERPNS_16__tree_node_baseIPvEENS_21__tree_const_iteratorIS4_PNS_11__tree_nodeIS4_SE_EElEERPNS_15__tree_end_nodeISG_EESH_RKT_, symObjAddr: 0x1E44, symBinAddr: 0xB2C8, symSize: 0x1B0 }
  - { offset: 0x619A7, size: 0x8, addend: 0x0, symName: __ZNSt3__16__treeINS_12__value_typeI10llm_tensor15llm_tensor_infoEENS_19__map_value_compareIS2_S4_NS_4lessIS2_EELb1EEENS_9allocatorIS4_EEE12__find_equalIS2_EERPNS_16__tree_node_baseIPvEENS_21__tree_const_iteratorIS4_PNS_11__tree_nodeIS4_SE_EElEERPNS_15__tree_end_nodeISG_EESH_RKT_, symObjAddr: 0x1E44, symBinAddr: 0xB2C8, symSize: 0x1B0 }
  - { offset: 0x61F92, size: 0x8, addend: 0x0, symName: __GLOBAL__sub_I_llama_arch.cpp, symObjAddr: 0x4254, symBinAddr: 0xB4BC, symSize: 0x154 }
  - { offset: 0x73B6E, size: 0x8, addend: 0x0, symName: __ZNSt3__124__put_character_sequenceB8ne200100IcNS_11char_traitsIcEEEERNS_13basic_ostreamIT_T0_EES7_PKS4_m, symObjAddr: 0x5AD8, symBinAddr: 0x10E94, symSize: 0x16C }
  - { offset: 0x7AEC8, size: 0x8, addend: 0x0, symName: __ZNSt3__116__pad_and_outputB8ne200100IcNS_11char_traitsIcEEEENS_19ostreambuf_iteratorIT_T0_EES6_PKS4_S8_S8_RNS_8ios_baseES4_, symObjAddr: 0x5C44, symBinAddr: 0x11000, symSize: 0x19C }
  - { offset: 0x7F52F, size: 0x8, addend: 0x0, symName: __ZN18llama_batch_allocrC2Ej, symObjAddr: 0x0, symBinAddr: 0xB610, symSize: 0x2D0 }
  - { offset: 0x8030F, size: 0x8, addend: 0x0, symName: __ZNSt3__16vectorINS_3setIiNS_4lessIiEENS_9allocatorIiEEEENS4_IS6_EEE8__appendEm, symObjAddr: 0x4AE4, symBinAddr: 0x100E4, symSize: 0x224 }
  - { offset: 0x809B3, size: 0x8, addend: 0x0, symName: __ZNSt3__16vectorINS_3setIiNS_4lessIiEENS_9allocatorIiEEEENS4_IS6_EEE20__throw_length_errorB8ne200100Ev, symObjAddr: 0x4D08, symBinAddr: 0x10308, symSize: 0x14 }
  - { offset: 0x809BE, size: 0x8, addend: 0x0, symName: __ZNSt3__16vectorINS0_IbNS_9allocatorIbEEEENS1_IS3_EEE8__appendEm, symObjAddr: 0x4DB8, symBinAddr: 0x1031C, symSize: 0x1CC }
  - { offset: 0x81021, size: 0x8, addend: 0x0, symName: __ZNSt3__16vectorINS0_IbNS_9allocatorIbEEEENS1_IS3_EEE20__throw_length_errorB8ne200100Ev, symObjAddr: 0x4F84, symBinAddr: 0x104E8, symSize: 0x14 }
  - { offset: 0x8102C, size: 0x8, addend: 0x0, symName: __ZNSt3__16vectorIbNS_9allocatorIbEEE6resizeEmb, symObjAddr: 0x2D0, symBinAddr: 0xB8E0, symSize: 0x264 }
  - { offset: 0x81807, size: 0x8, addend: 0x0, symName: __ZNSt3__16vectorIiNS_9allocatorIiEEE8__appendEmRKi, symObjAddr: 0x50B4, symBinAddr: 0x10618, symSize: 0x1B4 }
  - { offset: 0x81C62, size: 0x8, addend: 0x0, symName: __ZNSt3__113unordered_mapINS_6bitsetILm256EEENS_6vectorIiNS_9allocatorIiEEEENS_4hashIS2_EENS_8equal_toIS2_EENS4_INS_4pairIKS2_S6_EEEEED1B8ne200100Ev, symObjAddr: 0x534, symBinAddr: 0xBB44, symSize: 0x68 }
  - { offset: 0x82086, size: 0x8, addend: 0x0, symName: __ZNSt3__16vectorINS0_IbNS_9allocatorIbEEEENS1_IS3_EEED1B8ne200100Ev, symObjAddr: 0x59C, symBinAddr: 0xBBAC, symSize: 0x68 }
  - { offset: 0x822F4, size: 0x8, addend: 0x0, symName: __ZNSt3__16vectorINS_3setIiNS_4lessIiEENS_9allocatorIiEEEENS4_IS6_EEED1B8ne200100Ev, symObjAddr: 0x604, symBinAddr: 0xBC14, symSize: 0x68 }
  - { offset: 0x82721, size: 0x8, addend: 0x0, symName: __ZNSt3__16vectorIbNS_9allocatorIbEEE7reserveEm, symObjAddr: 0x4F98, symBinAddr: 0x104FC, symSize: 0x108 }
  - { offset: 0x82B24, size: 0x8, addend: 0x0, symName: __ZNSt3__16vectorIbNS_9allocatorIbEEE20__throw_length_errorB8ne200100Ev, symObjAddr: 0x50A0, symBinAddr: 0x10604, symSize: 0x14 }
  - { offset: 0x82B2F, size: 0x8, addend: 0x0, symName: __ZNSt3__16vectorIbNS_9allocatorIbEEE20__throw_length_errorB8ne200100Ev, symObjAddr: 0x50A0, symBinAddr: 0x10604, symSize: 0x14 }
  - { offset: 0x82B47, size: 0x8, addend: 0x0, symName: __ZNSt3__16vectorIiNS_9allocatorIiEEE8__appendEmRKi, symObjAddr: 0x50B4, symBinAddr: 0x10618, symSize: 0x1B4 }
  - { offset: 0x83042, size: 0x8, addend: 0x0, symName: __ZNSt3__16__treeIiNS_4lessIiEENS_9allocatorIiEEE7destroyEPNS_11__tree_nodeIiPvEE, symObjAddr: 0x4AA0, symBinAddr: 0x100A0, symSize: 0x44 }
  - { offset: 0x83159, size: 0x8, addend: 0x0, symName: __ZN18llama_batch_allocrC1Ej, symObjAddr: 0x66C, symBinAddr: 0xBC7C, symSize: 0x4 }
  - { offset: 0x83195, size: 0x8, addend: 0x0, symName: __ZN18llama_batch_allocrC1Ej, symObjAddr: 0x66C, symBinAddr: 0xBC7C, symSize: 0x4 }
  - { offset: 0x848EF, size: 0x8, addend: 0x0, symName: __ZN18llama_batch_allocr4initERK11llama_batchRK11llama_vocabPK14llama_memory_ijjb, symObjAddr: 0x670, symBinAddr: 0xBC80, symSize: 0x1890 }
  - { offset: 0x884EE, size: 0x8, addend: 0x0, symName: __ZN18llama_batch_allocr5clearEv, symObjAddr: 0x1F00, symBinAddr: 0xD510, symSize: 0x194 }
  - { offset: 0x890AD, size: 0x8, addend: 0x0, symName: __ZNSt3__16vectorIPiNS_9allocatorIS1_EEE8__appendEm, symObjAddr: 0x539C, symBinAddr: 0x107CC, symSize: 0x120 }
  - { offset: 0x890B8, size: 0x8, addend: 0x0, symName: __ZNSt3__16vectorIPiNS_9allocatorIS1_EEE8__appendEm, symObjAddr: 0x539C, symBinAddr: 0x107CC, symSize: 0x120 }
  - { offset: 0x89496, size: 0x8, addend: 0x0, symName: __ZNSt3__16vectorIPiNS_9allocatorIS1_EEE20__throw_length_errorB8ne200100Ev, symObjAddr: 0x54BC, symBinAddr: 0x108EC, symSize: 0x14 }
  - { offset: 0x894B3, size: 0x8, addend: 0x0, symName: __ZNSt3__112__hash_tableINS_17__hash_value_typeINS_6bitsetILm256EEENS_6vectorIiNS_9allocatorIiEEEEEENS_22__unordered_map_hasherIS3_S8_NS_4hashIS3_EENS_8equal_toIS3_EELb1EEENS_21__unordered_map_equalIS3_S8_SD_SB_Lb1EEENS5_IS8_EEE25__emplace_unique_key_argsIS3_JRKNS_21piecewise_construct_tENS_5tupleIJRKS3_EEENSN_IJEEEEEENS_4pairINS_15__hash_iteratorIPNS_11__hash_nodeIS8_PvEEEEbEERKT_DpOT0_, symObjAddr: 0x556C, symBinAddr: 0x10928, symSize: 0x38C }
  - { offset: 0x89CCD, size: 0x8, addend: 0x0, symName: __ZN18llama_batch_allocr12ubatch_printERK12llama_ubatchi, symObjAddr: 0x2180, symBinAddr: 0xD790, symSize: 0xB64 }
  - { offset: 0x8B092, size: 0x8, addend: 0x0, symName: __ZNSt3__118basic_stringstreamIcNS_11char_traitsIcEENS_9allocatorIcEEEC1B8ne200100Ev, symObjAddr: 0x2CE4, symBinAddr: 0xE2F4, symSize: 0x194 }
  - { offset: 0x8B3FD, size: 0x8, addend: 0x0, symName: __ZNSt3__16vectorINS_6bitsetILm256EEENS_9allocatorIS2_EEE20__throw_length_errorB8ne200100Ev, symObjAddr: 0x5558, symBinAddr: 0x10914, symSize: 0x14 }
  - { offset: 0x8B415, size: 0x8, addend: 0x0, symName: __ZNSt3__112__hash_tableINS_17__hash_value_typeINS_6bitsetILm256EEENS_6vectorIiNS_9allocatorIiEEEEEENS_22__unordered_map_hasherIS3_S8_NS_4hashIS3_EENS_8equal_toIS3_EELb1EEENS_21__unordered_map_equalIS3_S8_SD_SB_Lb1EEENS5_IS8_EEE25__emplace_unique_key_argsIS3_JRKNS_21piecewise_construct_tENS_5tupleIJRKS3_EEENSN_IJEEEEEENS_4pairINS_15__hash_iteratorIPNS_11__hash_nodeIS8_PvEEEEbEERKT_DpOT0_, symObjAddr: 0x556C, symBinAddr: 0x10928, symSize: 0x38C }
  - { offset: 0x8B43A, size: 0x8, addend: 0x0, symName: __ZNSt3__16vectorIaNS_9allocatorIaEEE20__throw_length_errorB8ne200100Ev, symObjAddr: 0x54D0, symBinAddr: 0x10900, symSize: 0x14 }
  - { offset: 0x8B463, size: 0x8, addend: 0x0, symName: __ZN12llama_ubatchD1Ev, symObjAddr: 0x2F78, symBinAddr: 0xE588, symSize: 0x64 }
  - { offset: 0x8B52F, size: 0x8, addend: 0x0, symName: __ZNSt3__118basic_stringstreamIcNS_11char_traitsIcEENS_9allocatorIcEEED1Ev, symObjAddr: 0x2EF0, symBinAddr: 0xE500, symSize: 0x88 }
  - { offset: 0x8B7CE, size: 0x8, addend: 0x0, symName: __ZNSt3__16vectorIiNS_9allocatorIiEEE9push_backB8ne200100ERKi, symObjAddr: 0x2094, symBinAddr: 0xD6A4, symSize: 0xEC }
  - { offset: 0x8BBD3, size: 0x8, addend: 0x0, symName: __ZN18llama_batch_allocr12ubatch_printERK12llama_ubatchi, symObjAddr: 0x2180, symBinAddr: 0xD790, symSize: 0xB64 }
  - { offset: 0x8BFC0, size: 0x8, addend: 0x0, symName: __ZNK18llama_batch_allocr11seq_pos_minEi, symObjAddr: 0x2E78, symBinAddr: 0xE488, symSize: 0x28 }
  - { offset: 0x8BFEB, size: 0x8, addend: 0x0, symName: __ZNK18llama_batch_allocr11seq_pos_minEi, symObjAddr: 0x2E78, symBinAddr: 0xE488, symSize: 0x28 }
  - { offset: 0x8C060, size: 0x8, addend: 0x0, symName: __ZNK18llama_batch_allocr11seq_pos_maxEi, symObjAddr: 0x2EA0, symBinAddr: 0xE4B0, symSize: 0x50 }
  - { offset: 0x8C08B, size: 0x8, addend: 0x0, symName: __ZNK18llama_batch_allocr11seq_pos_maxEi, symObjAddr: 0x2EA0, symBinAddr: 0xE4B0, symSize: 0x50 }
  - { offset: 0x8C1FB, size: 0x8, addend: 0x0, symName: __ZN18llama_batch_allocr11split_resetEv, symObjAddr: 0x2FDC, symBinAddr: 0xE5EC, symSize: 0x20 }
  - { offset: 0x8C21F, size: 0x8, addend: 0x0, symName: __ZN18llama_batch_allocr11split_resetEv, symObjAddr: 0x2FDC, symBinAddr: 0xE5EC, symSize: 0x20 }
  - { offset: 0x8C23E, size: 0x8, addend: 0x0, symName: __ZN18llama_batch_allocr11split_resetEv, symObjAddr: 0x2FDC, symBinAddr: 0xE5EC, symSize: 0x20 }
  - { offset: 0x8C711, size: 0x8, addend: 0x0, symName: __ZN18llama_batch_allocr14ubatch_reserveEjj, symObjAddr: 0x2FFC, symBinAddr: 0xE60C, symSize: 0x458 }
  - { offset: 0x8D819, size: 0x8, addend: 0x0, symName: __ZNSt3__110shared_ptrIN12llama_ubatch6data_tEED1B8ne200100Ev, symObjAddr: 0x3454, symBinAddr: 0xEA64, symSize: 0x64 }
  - { offset: 0x8D8AE, size: 0x8, addend: 0x0, symName: __ZNK18llama_batch_allocr9get_batchEv, symObjAddr: 0x34B8, symBinAddr: 0xEAC8, symSize: 0x4 }
  - { offset: 0x8D8D6, size: 0x8, addend: 0x0, symName: __ZNK18llama_batch_allocr12get_n_tokensEv, symObjAddr: 0x34BC, symBinAddr: 0xEACC, symSize: 0x8 }
  - { offset: 0x8D8F8, size: 0x8, addend: 0x0, symName: __ZNK18llama_batch_allocr13get_n_outputsEv, symObjAddr: 0x34C4, symBinAddr: 0xEAD4, symSize: 0x8 }
  - { offset: 0x8D922, size: 0x8, addend: 0x0, symName: __ZNK18llama_batch_allocr10get_n_usedEv, symObjAddr: 0x34CC, symBinAddr: 0xEADC, symSize: 0x8 }
  - { offset: 0x8D94C, size: 0x8, addend: 0x0, symName: __ZN18llama_batch_allocr11get_out_idsEv, symObjAddr: 0x34D4, symBinAddr: 0xEAE4, symSize: 0x8 }
  - { offset: 0x8D976, size: 0x8, addend: 0x0, symName: __ZN18llama_batch_allocr12split_simpleEj, symObjAddr: 0x34DC, symBinAddr: 0xEAEC, symSize: 0x200 }
  - { offset: 0x8E0CB, size: 0x8, addend: 0x0, symName: __ZN18llama_batch_allocr10ubatch_addERKNSt3__16vectorIiNS0_9allocatorIiEEEEjb, symObjAddr: 0x36DC, symBinAddr: 0xECEC, symSize: 0x8A0 }
  - { offset: 0x8FD8F, size: 0x8, addend: 0x0, symName: __ZNSt3__16vectorIfNS_9allocatorIfEEE8__appendEm, symObjAddr: 0x6310, symBinAddr: 0x116B8, symSize: 0x120 }
  - { offset: 0x9016D, size: 0x8, addend: 0x0, symName: __ZNSt3__16vectorIfNS_9allocatorIfEEE20__throw_length_errorB8ne200100Ev, symObjAddr: 0x6430, symBinAddr: 0x117D8, symSize: 0x14 }
  - { offset: 0x90681, size: 0x8, addend: 0x0, symName: __ZN18llama_batch_allocr11split_equalEjb, symObjAddr: 0x3F7C, symBinAddr: 0xF58C, symSize: 0x67C }
  - { offset: 0x91FB4, size: 0x8, addend: 0x0, symName: __ZNSt3__16vectorIiNS_9allocatorIiEEE18__insert_with_sizeB8ne200100INS_11__wrap_iterIPiEES7_EES7_NS5_IPKiEET_T0_l, symObjAddr: 0x5F6C, symBinAddr: 0x11314, symSize: 0x3A4 }
  - { offset: 0x92A62, size: 0x8, addend: 0x0, symName: __ZNSt3__16vectorIfNS_9allocatorIfEEE8__appendEm, symObjAddr: 0x6310, symBinAddr: 0x116B8, symSize: 0x120 }
  - { offset: 0x92A7F, size: 0x8, addend: 0x0, symName: __ZNSt3__128__exception_guard_exceptionsINS_6vectorINS1_IiNS_9allocatorIiEEEENS2_IS4_EEE16__destroy_vectorEED1B8ne200100Ev, symObjAddr: 0x5EE8, symBinAddr: 0x11290, symSize: 0x84 }
  - { offset: 0x92D0C, size: 0x8, addend: 0x0, symName: __ZNSt3__16vectorINS0_IiNS_9allocatorIiEEEENS1_IS3_EEED1B8ne200100Ev, symObjAddr: 0x45F8, symBinAddr: 0xFC08, symSize: 0x74 }
  - { offset: 0x92FD3, size: 0x8, addend: 0x0, symName: __ZN18llama_batch_allocr9split_seqEj, symObjAddr: 0x466C, symBinAddr: 0xFC7C, symSize: 0x2A8 }
  - { offset: 0x938DA, size: 0x8, addend: 0x0, symName: _llama_batch_get_one, symObjAddr: 0x4914, symBinAddr: 0xFF24, symSize: 0x1C }
  - { offset: 0x93912, size: 0x8, addend: 0x0, symName: _llama_batch_init, symObjAddr: 0x4930, symBinAddr: 0xFF40, symSize: 0xD0 }
  - { offset: 0x93A0B, size: 0x8, addend: 0x0, symName: _llama_batch_free, symObjAddr: 0x4A00, symBinAddr: 0x10010, symSize: 0x90 }
  - { offset: 0x93FDA, size: 0x8, addend: 0x0, symName: __ZNSt3__16vectorINS_3setIiNS_4lessIiEENS_9allocatorIiEEEENS4_IS6_EEE20__throw_length_errorB8ne200100Ev, symObjAddr: 0x4D08, symBinAddr: 0x10308, symSize: 0x14 }
  - { offset: 0x943E5, size: 0x8, addend: 0x0, symName: __ZNSt3__16vectorINS0_IbNS_9allocatorIbEEEENS1_IS3_EEE20__throw_length_errorB8ne200100Ev, symObjAddr: 0x4F84, symBinAddr: 0x104E8, symSize: 0x14 }
  - { offset: 0x943FD, size: 0x8, addend: 0x0, symName: __ZNSt3__16vectorIbNS_9allocatorIbEEE7reserveEm, symObjAddr: 0x4F98, symBinAddr: 0x104FC, symSize: 0x108 }
  - { offset: 0x94A08, size: 0x8, addend: 0x0, symName: __ZNSt3__16vectorIPiNS_9allocatorIS1_EEE20__throw_length_errorB8ne200100Ev, symObjAddr: 0x54BC, symBinAddr: 0x108EC, symSize: 0x14 }
  - { offset: 0x94A20, size: 0x8, addend: 0x0, symName: __ZNSt3__16vectorIaNS_9allocatorIaEEE20__throw_length_errorB8ne200100Ev, symObjAddr: 0x54D0, symBinAddr: 0x10900, symSize: 0x14 }
  - { offset: 0x9503C, size: 0x8, addend: 0x0, symName: __ZNSt3__112__hash_tableINS_17__hash_value_typeINS_6bitsetILm256EEENS_6vectorIiNS_9allocatorIiEEEEEENS_22__unordered_map_hasherIS3_S8_NS_4hashIS3_EENS_8equal_toIS3_EELb1EEENS_21__unordered_map_equalIS3_S8_SD_SB_Lb1EEENS5_IS8_EEE11__do_rehashILb1EEEvm, symObjAddr: 0x5958, symBinAddr: 0x10D14, symSize: 0x180 }
  - { offset: 0x953C9, size: 0x8, addend: 0x0, symName: __ZNSt3__124__put_character_sequenceB8ne200100IcNS_11char_traitsIcEEEERNS_13basic_ostreamIT_T0_EES7_PKS4_m, symObjAddr: 0x5AD8, symBinAddr: 0x10E94, symSize: 0x16C }
  - { offset: 0x953DE, size: 0x8, addend: 0x0, symName: __ZNSt3__110unique_ptrINS_11__hash_nodeINS_17__hash_value_typeINS_6bitsetILm256EEENS_6vectorIiNS_9allocatorIiEEEEEEPvEENS_22__hash_node_destructorINS6_ISB_EEEEED1B8ne200100Ev, symObjAddr: 0x58F8, symBinAddr: 0x10CB4, symSize: 0x60 }
  - { offset: 0x95C12, size: 0x8, addend: 0x0, symName: __ZNSt3__120__shared_ptr_emplaceIN12llama_ubatch6data_tENS_9allocatorIS2_EEED1Ev, symObjAddr: 0x5DF4, symBinAddr: 0x1119C, symSize: 0x14 }
  - { offset: 0x95C39, size: 0x8, addend: 0x0, symName: __ZNSt3__120__shared_ptr_emplaceIN12llama_ubatch6data_tENS_9allocatorIS2_EEED1Ev, symObjAddr: 0x5DF4, symBinAddr: 0x1119C, symSize: 0x14 }
  - { offset: 0x95C5B, size: 0x8, addend: 0x0, symName: __ZNSt3__120__shared_ptr_emplaceIN12llama_ubatch6data_tENS_9allocatorIS2_EEED1Ev, symObjAddr: 0x5DF4, symBinAddr: 0x1119C, symSize: 0x14 }
  - { offset: 0x95C91, size: 0x8, addend: 0x0, symName: __ZNSt3__120__shared_ptr_emplaceIN12llama_ubatch6data_tENS_9allocatorIS2_EEED0Ev, symObjAddr: 0x5E08, symBinAddr: 0x111B0, symSize: 0x24 }
  - { offset: 0x95DB1, size: 0x8, addend: 0x0, symName: __ZNSt3__120__shared_ptr_emplaceIN12llama_ubatch6data_tENS_9allocatorIS2_EEE16__on_zero_sharedEv, symObjAddr: 0x5E2C, symBinAddr: 0x111D4, symSize: 0x8 }
  - { offset: 0x95DDA, size: 0x8, addend: 0x0, symName: __ZNSt3__120__shared_ptr_emplaceIN12llama_ubatch6data_tENS_9allocatorIS2_EEE16__on_zero_sharedEv, symObjAddr: 0x5E2C, symBinAddr: 0x111D4, symSize: 0x8 }
  - { offset: 0x95DF7, size: 0x8, addend: 0x0, symName: __ZNSt3__120__shared_ptr_emplaceIN12llama_ubatch6data_tENS_9allocatorIS2_EEE16__on_zero_sharedEv, symObjAddr: 0x5E2C, symBinAddr: 0x111D4, symSize: 0x8 }
  - { offset: 0x95E60, size: 0x8, addend: 0x0, symName: __ZN12llama_ubatch6data_tD2Ev, symObjAddr: 0x5E38, symBinAddr: 0x111E0, symSize: 0xB0 }
  - { offset: 0x96950, size: 0x8, addend: 0x0, symName: __ZNSt3__120__shared_ptr_emplaceIN12llama_ubatch6data_tENS_9allocatorIS2_EEE21__on_zero_shared_weakEv, symObjAddr: 0x5E34, symBinAddr: 0x111DC, symSize: 0x4 }
  - { offset: 0x96982, size: 0x8, addend: 0x0, symName: __ZNSt3__120__shared_ptr_emplaceIN12llama_ubatch6data_tENS_9allocatorIS2_EEE21__on_zero_shared_weakEv, symObjAddr: 0x5E34, symBinAddr: 0x111DC, symSize: 0x4 }
  - { offset: 0x969A4, size: 0x8, addend: 0x0, symName: __ZNSt3__120__shared_ptr_emplaceIN12llama_ubatch6data_tENS_9allocatorIS2_EEE21__on_zero_shared_weakEv, symObjAddr: 0x5E34, symBinAddr: 0x111DC, symSize: 0x4 }
  - { offset: 0x969C7, size: 0x8, addend: 0x0, symName: __ZNSt3__120__shared_ptr_emplaceIN12llama_ubatch6data_tENS_9allocatorIS2_EEE21__on_zero_shared_weakEv, symObjAddr: 0x5E34, symBinAddr: 0x111DC, symSize: 0x4 }
  - { offset: 0x969FC, size: 0x8, addend: 0x0, symName: __ZNSt3__120__shared_ptr_emplaceIN12llama_ubatch6data_tENS_9allocatorIS2_EEE21__on_zero_shared_weakEv, symObjAddr: 0x5E34, symBinAddr: 0x111DC, symSize: 0x4 }
  - { offset: 0x97073, size: 0x8, addend: 0x0, symName: __ZNSt3__16vectorIfNS_9allocatorIfEEE20__throw_length_errorB8ne200100Ev, symObjAddr: 0x6430, symBinAddr: 0x117D8, symSize: 0x14 }
  - { offset: 0x98F80, size: 0x8, addend: 0x0, symName: __ZL18LLM_CHAT_TEMPLATES, symObjAddr: 0x87238, symBinAddr: 0x360090, symSize: 0x0 }
  - { offset: 0xA0D60, size: 0x8, addend: 0x0, symName: __ZNSt3__1eqB8ne200100IcNS_11char_traitsIcEENS_9allocatorIcEEEEbRKNS_12basic_stringIT_T0_T1_EEPKS6_, symObjAddr: 0x5F94, symBinAddr: 0x17548, symSize: 0x88 }
  - { offset: 0xA0F00, size: 0x8, addend: 0x0, symName: __ZNSt3__1neB8ne200100IcNS_11char_traitsIcEENS_9allocatorIcEEEEbRKNS_12basic_stringIT_T0_T1_EEPKS6_, symObjAddr: 0x61DC, symBinAddr: 0x17790, symSize: 0x88 }
  - { offset: 0xA31E9, size: 0x8, addend: 0x0, symName: __ZNSt3__13mapINS_12basic_stringIcNS_11char_traitsIcEENS_9allocatorIcEEEE17llm_chat_templateNS_4lessIS6_EENS4_INS_4pairIKS6_S7_EEEEED1B8ne200100Ev, symObjAddr: 0x0, symBinAddr: 0x117EC, symSize: 0x28 }
  - { offset: 0xA329D, size: 0x8, addend: 0x0, symName: __ZNSt3__16__treeINS_12__value_typeINS_12basic_stringIcNS_11char_traitsIcEENS_9allocatorIcEEEE17llm_chat_templateEENS_19__map_value_compareIS7_S9_NS_4lessIS7_EELb1EEENS5_IS9_EEE7destroyEPNS_11__tree_nodeIS9_PvEE, symObjAddr: 0x6B98, symBinAddr: 0x17DF8, symSize: 0x60 }
  - { offset: 0xA374B, size: 0x8, addend: 0x0, symName: __Z26llm_chat_template_from_strRKNSt3__112basic_stringIcNS_11char_traitsIcEENS_9allocatorIcEEEE, symObjAddr: 0x28, symBinAddr: 0x11814, symSize: 0xF0 }
  - { offset: 0xA3A7E, size: 0x8, addend: 0x0, symName: __Z24llm_chat_detect_templateRKNSt3__112basic_stringIcNS_11char_traitsIcEENS_9allocatorIcEEEE, symObjAddr: 0x118, symBinAddr: 0x11904, symSize: 0x920 }
  - { offset: 0xA4126, size: 0x8, addend: 0x0, symName: '__ZZ24llm_chat_detect_templateRKNSt3__112basic_stringIcNS_11char_traitsIcEENS_9allocatorIcEEEEENK3$_0clEPKc', symObjAddr: 0xA38, symBinAddr: 0x12224, symSize: 0xD8 }
  - { offset: 0xA4383, size: 0x8, addend: 0x0, symName: __ZNKSt3__112basic_stringIcNS_11char_traitsIcEENS_9allocatorIcEEE4findB8ne200100EPKcm, symObjAddr: 0xB10, symBinAddr: 0x122FC, symSize: 0xEC }
  - { offset: 0xA4D70, size: 0x8, addend: 0x0, symName: __Z23llm_chat_apply_template17llm_chat_templateRKNSt3__16vectorIPK18llama_chat_messageNS0_9allocatorIS4_EEEERNS0_12basic_stringIcNS0_11char_traitsIcEENS5_IcEEEEb, symObjAddr: 0xBFC, symBinAddr: 0x123E8, symSize: 0x5160 }
  - { offset: 0xB6377, size: 0x8, addend: 0x0, symName: __ZL4trimRKNSt3__112basic_stringIcNS_11char_traitsIcEENS_9allocatorIcEEEE, symObjAddr: 0x601C, symBinAddr: 0x175D0, symSize: 0x1C0 }
  - { offset: 0xB67A7, size: 0x8, addend: 0x0, symName: __ZNSt3__1neB8ne200100IcNS_11char_traitsIcEENS_9allocatorIcEEEEbRKNS_12basic_stringIT_T0_T1_EEPKS6_, symObjAddr: 0x61DC, symBinAddr: 0x17790, symSize: 0x88 }
  - { offset: 0xB6A65, size: 0x8, addend: 0x0, symName: __ZNSt3__1eqB8ne200100IcNS_11char_traitsIcEENS_9allocatorIcEEEEbRKNS_12basic_stringIT_T0_T1_EEPKS6_, symObjAddr: 0x5F94, symBinAddr: 0x17548, symSize: 0x88 }
  - { offset: 0xB6FF0, size: 0x8, addend: 0x0, symName: _llama_chat_builtin_templates, symObjAddr: 0x62EC, symBinAddr: 0x17818, symSize: 0x90 }
  - { offset: 0xB74FB, size: 0x8, addend: 0x0, symName: __ZNSt3__16__treeINS_12__value_typeINS_12basic_stringIcNS_11char_traitsIcEENS_9allocatorIcEEEE17llm_chat_templateEENS_19__map_value_compareIS7_S9_NS_4lessIS7_EELb1EEENS5_IS9_EEE30__emplace_hint_unique_key_argsIS7_JRKNS_4pairIKS7_S8_EEEEENSH_INS_15__tree_iteratorIS9_PNS_11__tree_nodeIS9_PvEElEEbEENS_21__tree_const_iteratorIS9_SQ_lEERKT_DpOT0_, symObjAddr: 0x649C, symBinAddr: 0x178A8, symSize: 0xF8 }
  - { offset: 0xB7888, size: 0x8, addend: 0x0, symName: __ZNSt3__16__treeINS_12__value_typeINS_12basic_stringIcNS_11char_traitsIcEENS_9allocatorIcEEEE17llm_chat_templateEENS_19__map_value_compareIS7_S9_NS_4lessIS7_EELb1EEENS5_IS9_EEE12__find_equalIS7_EERPNS_16__tree_node_baseIPvEENS_21__tree_const_iteratorIS9_PNS_11__tree_nodeIS9_SI_EElEERPNS_15__tree_end_nodeISK_EESL_RKT_, symObjAddr: 0x6594, symBinAddr: 0x179A0, symSize: 0x3F8 }
  - { offset: 0xB8550, size: 0x8, addend: 0x0, symName: __ZNSt3__110unique_ptrINS_11__tree_nodeINS_12__value_typeINS_12basic_stringIcNS_11char_traitsIcEENS_9allocatorIcEEEE17llm_chat_templateEEPvEENS_22__tree_node_destructorINS6_ISC_EEEEED1B8ne200100Ev, symObjAddr: 0x698C, symBinAddr: 0x17D98, symSize: 0x60 }
  - { offset: 0xB9655, size: 0x8, addend: 0x0, symName: __GLOBAL__sub_I_llama_chat.cpp, symObjAddr: 0x7798, symBinAddr: 0x17E58, symSize: 0x8A8 }
  - { offset: 0xEBDB5, size: 0x8, addend: 0x0, symName: __ZNSt3__119piecewise_constructE, symObjAddr: 0x13018, symBinAddr: 0x2911D0, symSize: 0x0 }
  - { offset: 0xF3023, size: 0x8, addend: 0x0, symName: __ZNSt3__113__tree_removeB8ne200100IPNS_16__tree_node_baseIPvEEEEvT_S5_, symObjAddr: 0xE59C, symBinAddr: 0x267F8, symSize: 0x3B4 }
  - { offset: 0xFE41C, size: 0x8, addend: 0x0, symName: __ZN13llama_contextC2ERK11llama_model20llama_context_params, symObjAddr: 0x0, symBinAddr: 0x18700, symSize: 0x1678 }
  - { offset: 0x102492, size: 0x8, addend: 0x0, symName: __ZNK13llama_context12graph_get_cbEv, symObjAddr: 0x79B0, symBinAddr: 0x20008, symSize: 0x14 }
  - { offset: 0x1024ED, size: 0x8, addend: 0x0, symName: __ZNK13llama_context12graph_get_cbEv, symObjAddr: 0x79B0, symBinAddr: 0x20008, symSize: 0x14 }
  - { offset: 0x102510, size: 0x8, addend: 0x0, symName: __ZNK13llama_context12graph_get_cbEv, symObjAddr: 0x79B0, symBinAddr: 0x20008, symSize: 0x14 }
  - { offset: 0x102533, size: 0x8, addend: 0x0, symName: __ZNK13llama_context12graph_get_cbEv, symObjAddr: 0x79B0, symBinAddr: 0x20008, symSize: 0x14 }
  - { offset: 0x10254F, size: 0x8, addend: 0x0, symName: __ZNK13llama_context12graph_get_cbEv, symObjAddr: 0x79B0, symBinAddr: 0x20008, symSize: 0x14 }
  - { offset: 0x10256B, size: 0x8, addend: 0x0, symName: __ZNK13llama_context12graph_get_cbEv, symObjAddr: 0x79B0, symBinAddr: 0x20008, symSize: 0x14 }
  - { offset: 0x102587, size: 0x8, addend: 0x0, symName: __ZNK13llama_context12graph_get_cbEv, symObjAddr: 0x79B0, symBinAddr: 0x20008, symSize: 0x14 }
  - { offset: 0x1025A3, size: 0x8, addend: 0x0, symName: __ZNK13llama_context12graph_get_cbEv, symObjAddr: 0x79B0, symBinAddr: 0x20008, symSize: 0x14 }
  - { offset: 0x104A2E, size: 0x8, addend: 0x0, symName: __ZN13llama_context11set_samplerEiP13llama_sampler, symObjAddr: 0x1678, symBinAddr: 0x19D78, symSize: 0x360 }
  - { offset: 0x105597, size: 0x8, addend: 0x0, symName: __ZN13llama_context14output_reserveEi, symObjAddr: 0x1A88, symBinAddr: 0x1A188, symSize: 0x360 }
  - { offset: 0x105E50, size: 0x8, addend: 0x0, symName: __ZN13llama_context13sched_reserveEv, symObjAddr: 0x1DE8, symBinAddr: 0x1A4E8, symSize: 0x8BC }
  - { offset: 0x107197, size: 0x8, addend: 0x0, symName: __ZNSt3__16vectorINS_10unique_ptrI12ggml_backend20ggml_backend_deleterEENS_9allocatorIS4_EEE20__throw_length_errorB8ne200100Ev, symObjAddr: 0xE3F0, symBinAddr: 0x267A8, symSize: 0x14 }
  - { offset: 0x1071AF, size: 0x8, addend: 0x0, symName: __ZNSt3__16vectorINS_4pairIP12ggml_backendPFvS3_iEEENS_9allocatorIS6_EEE20__throw_length_errorB8ne200100Ev, symObjAddr: 0xE404, symBinAddr: 0x267BC, symSize: 0x14 }
  - { offset: 0x1071BA, size: 0x8, addend: 0x0, symName: __ZNSt3__16vectorIP12ggml_backendNS_9allocatorIS2_EEE20__throw_length_errorB8ne200100Ev, symObjAddr: 0xE42C, symBinAddr: 0x267D0, symSize: 0x14 }
  - { offset: 0x1071D2, size: 0x8, addend: 0x0, symName: __ZNSt3__16vectorImNS_9allocatorImEEE20__throw_length_errorB8ne200100Ev, symObjAddr: 0xE440, symBinAddr: 0x267E4, symSize: 0x14 }
  - { offset: 0x1071DD, size: 0x8, addend: 0x0, symName: __ZNSt3__16vectorImNS_9allocatorImEEE20__throw_length_errorB8ne200100Ev, symObjAddr: 0xE440, symBinAddr: 0x267E4, symSize: 0x14 }
  - { offset: 0x10720A, size: 0x8, addend: 0x0, symName: __ZNSt3__16vectorIP12ggml_backendNS_9allocatorIS2_EEE20__throw_length_errorB8ne200100Ev, symObjAddr: 0xE42C, symBinAddr: 0x267D0, symSize: 0x14 }
  - { offset: 0x107215, size: 0x8, addend: 0x0, symName: __ZNSt3__16vectorINS_4pairIP12ggml_backendPFvS3_iEEENS_9allocatorIS6_EEE20__throw_length_errorB8ne200100Ev, symObjAddr: 0xE404, symBinAddr: 0x267BC, symSize: 0x14 }
  - { offset: 0x10729C, size: 0x8, addend: 0x0, symName: __ZNSt3__16vectorINS_10unique_ptrI12ggml_backend20ggml_backend_deleterEENS_9allocatorIS4_EEED1B8ne200100Ev, symObjAddr: 0x26D8, symBinAddr: 0x1ADA4, symSize: 0x70 }
  - { offset: 0x10748A, size: 0x8, addend: 0x0, symName: __ZNSt3__110unique_ptrI18ggml_backend_sched26ggml_backend_sched_deleterED1B8ne200100Ev, symObjAddr: 0x2748, symBinAddr: 0x1AE14, symSize: 0x34 }
  - { offset: 0x10751E, size: 0x8, addend: 0x0, symName: __ZNSt3__110unique_ptrI18llama_batch_allocrNS_14default_deleteIS1_EEED1B8ne200100Ev, symObjAddr: 0x277C, symBinAddr: 0x1AE48, symSize: 0x3C }
  - { offset: 0x1075E0, size: 0x8, addend: 0x0, symName: __ZNSt3__16__treeINS_12__value_typeIiNS_6vectorIfNS_9allocatorIfEEEEEENS_19__map_value_compareIiS6_NS_4lessIiEELb1EEENS3_IS6_EEE7destroyEPNS_11__tree_nodeIS6_PvEE, symObjAddr: 0xE3A0, symBinAddr: 0x26758, symSize: 0x50 }
  - { offset: 0x107896, size: 0x8, addend: 0x0, symName: __ZN13llama_context13sampling_infoD1Ev, symObjAddr: 0x27B8, symBinAddr: 0x1AE84, symSize: 0x6C }
  - { offset: 0x107E30, size: 0x8, addend: 0x0, symName: __ZN11llama_crossD1Ev, symObjAddr: 0x2824, symBinAddr: 0x1AEF0, symSize: 0x78 }
  - { offset: 0x1081C7, size: 0x8, addend: 0x0, symName: __ZNSt3__113unordered_mapIP18llama_adapter_lorafNS_4hashIS2_EENS_8equal_toIS2_EENS_9allocatorINS_4pairIKS2_fEEEEED1B8ne200100Ev, symObjAddr: 0x289C, symBinAddr: 0x1AF68, symSize: 0x48 }
  - { offset: 0x10845B, size: 0x8, addend: 0x0, symName: __ZN18llama_adapter_cvecD2Ev, symObjAddr: 0xD860, symBinAddr: 0x25E74, symSize: 0xC8 }
  - { offset: 0x109070, size: 0x8, addend: 0x0, symName: _llama_set_abort_callback, symObjAddr: 0x19D8, symBinAddr: 0x1A0D8, symSize: 0xB0 }
  - { offset: 0x1093DA, size: 0x8, addend: 0x0, symName: __ZN13llama_context11synchronizeEv, symObjAddr: 0x2C0C, symBinAddr: 0x1B2C8, symSize: 0xE4 }
  - { offset: 0x10949F, size: 0x8, addend: 0x0, symName: __ZNSt3__16vectorIjNS_9allocatorIjEEE8__appendEm, symObjAddr: 0xF43C, symBinAddr: 0x2732C, symSize: 0x120 }
  - { offset: 0x10987D, size: 0x8, addend: 0x0, symName: __ZNSt3__16vectorIjNS_9allocatorIjEEE20__throw_length_errorB8ne200100Ev, symObjAddr: 0xF55C, symBinAddr: 0x2744C, symSize: 0x14 }
  - { offset: 0x109D4A, size: 0x8, addend: 0x0, symName: __ZN13llama_context13graph_reserveEjjjPK22llama_memory_context_ibPm, symObjAddr: 0x2D78, symBinAddr: 0x1B434, symSize: 0x4C8 }
  - { offset: 0x10AABF, size: 0x8, addend: 0x0, symName: __ZNSt3__113__tree_removeB8ne200100IPNS_16__tree_node_baseIPvEEEEvT_S5_, symObjAddr: 0xE59C, symBinAddr: 0x267F8, symSize: 0x3B4 }
  - { offset: 0x10AD0F, size: 0x8, addend: 0x0, symName: __ZN18llama_batch_allocrD2Ev, symObjAddr: 0xDAFC, symBinAddr: 0x25F3C, symSize: 0x174 }
  - { offset: 0x10C181, size: 0x8, addend: 0x0, symName: __ZNSt3__16__treeINS_12__value_typeIiP13llama_samplerEENS_19__map_value_compareIiS4_NS_4lessIiEELb1EEENS_9allocatorIS4_EEE7destroyEPNS_11__tree_nodeIS4_PvEE, symObjAddr: 0xE35C, symBinAddr: 0x26714, symSize: 0x44 }
  - { offset: 0x10C86F, size: 0x8, addend: 0x0, symName: __ZN13llama_contextC1ERK11llama_model20llama_context_params, symObjAddr: 0x28E4, symBinAddr: 0x1AFB0, symSize: 0x4 }
  - { offset: 0x10C8A1, size: 0x8, addend: 0x0, symName: __ZN13llama_contextC1ERK11llama_model20llama_context_params, symObjAddr: 0x28E4, symBinAddr: 0x1AFB0, symSize: 0x4 }
  - { offset: 0x10C97D, size: 0x8, addend: 0x0, symName: __ZN13llama_contextD2Ev, symObjAddr: 0x28E8, symBinAddr: 0x1AFB4, symSize: 0x310 }
  - { offset: 0x10E3A5, size: 0x8, addend: 0x0, symName: __ZN13llama_contextD1Ev, symObjAddr: 0x2C08, symBinAddr: 0x1B2C4, symSize: 0x4 }
  - { offset: 0x10E3C8, size: 0x8, addend: 0x0, symName: __ZN13llama_contextD1Ev, symObjAddr: 0x2C08, symBinAddr: 0x1B2C4, symSize: 0x4 }
  - { offset: 0x10E3FF, size: 0x8, addend: 0x0, symName: __ZNK13llama_context15graph_max_nodesEj, symObjAddr: 0x2CF0, symBinAddr: 0x1B3AC, symSize: 0x88 }
  - { offset: 0x10EC72, size: 0x8, addend: 0x0, symName: __ZNSt3__13mapIiP13llama_samplerNS_4lessIiEENS_9allocatorINS_4pairIKiS2_EEEEE6insertB8ne200100INS_20__map_const_iteratorINS_21__tree_const_iteratorINS_12__value_typeIiS2_EEPNS_11__tree_nodeISF_PvEElEEEEEEvT_SM_, symObjAddr: 0xF570, symBinAddr: 0x27460, symSize: 0xF4 }
  - { offset: 0x10ECB8, size: 0x8, addend: 0x0, symName: __ZNSt3__13mapIiP13llama_samplerNS_4lessIiEENS_9allocatorINS_4pairIKiS2_EEEEE6insertB8ne200100INS_20__map_const_iteratorINS_21__tree_const_iteratorINS_12__value_typeIiS2_EEPNS_11__tree_nodeISF_PvEElEEEEEEvT_SM_, symObjAddr: 0xF570, symBinAddr: 0x27460, symSize: 0xF4 }
  - { offset: 0x10F09D, size: 0x8, addend: 0x0, symName: __ZN16llm_graph_paramsD1Ev, symObjAddr: 0x5464, symBinAddr: 0x1DB20, symSize: 0xA8 }
  - { offset: 0x10F26F, size: 0x8, addend: 0x0, symName: __ZNK13llama_context9get_modelEv, symObjAddr: 0x3240, symBinAddr: 0x1B8FC, symSize: 0x8 }
  - { offset: 0x10F291, size: 0x8, addend: 0x0, symName: __ZNK13llama_context11get_cparamsEv, symObjAddr: 0x3248, symBinAddr: 0x1B904, symSize: 0x8 }
  - { offset: 0x10F2BB, size: 0x8, addend: 0x0, symName: __ZNK13llama_context9get_schedEv, symObjAddr: 0x3250, symBinAddr: 0x1B90C, symSize: 0x8 }
  - { offset: 0x10F2E7, size: 0x8, addend: 0x0, symName: __ZNK13llama_context9get_schedEv, symObjAddr: 0x3250, symBinAddr: 0x1B90C, symSize: 0x8 }
  - { offset: 0x10F305, size: 0x8, addend: 0x0, symName: __ZNK13llama_context5n_ctxEv, symObjAddr: 0x3258, symBinAddr: 0x1B914, symSize: 0x8 }
  - { offset: 0x10F327, size: 0x8, addend: 0x0, symName: __ZNK13llama_context9n_ctx_seqEv, symObjAddr: 0x3260, symBinAddr: 0x1B91C, symSize: 0x8 }
  - { offset: 0x10F349, size: 0x8, addend: 0x0, symName: __ZNK13llama_context7n_batchEv, symObjAddr: 0x3268, symBinAddr: 0x1B924, symSize: 0x8 }
  - { offset: 0x10F36B, size: 0x8, addend: 0x0, symName: __ZNK13llama_context8n_ubatchEv, symObjAddr: 0x3270, symBinAddr: 0x1B92C, symSize: 0x8 }
  - { offset: 0x10F38D, size: 0x8, addend: 0x0, symName: __ZNK13llama_context9n_seq_maxEv, symObjAddr: 0x3278, symBinAddr: 0x1B934, symSize: 0x8 }
  - { offset: 0x10F3AF, size: 0x8, addend: 0x0, symName: __ZNK13llama_context9n_threadsEv, symObjAddr: 0x3280, symBinAddr: 0x1B93C, symSize: 0x8 }
  - { offset: 0x10F3D1, size: 0x8, addend: 0x0, symName: __ZNK13llama_context15n_threads_batchEv, symObjAddr: 0x3288, symBinAddr: 0x1B944, symSize: 0x8 }
  - { offset: 0x10F409, size: 0x8, addend: 0x0, symName: __ZNK13llama_context10get_memoryEv, symObjAddr: 0x3290, symBinAddr: 0x1B94C, symSize: 0x8 }
  - { offset: 0x10F42D, size: 0x8, addend: 0x0, symName: __ZNK13llama_context10get_memoryEv, symObjAddr: 0x3290, symBinAddr: 0x1B94C, symSize: 0x8 }
  - { offset: 0x10F47D, size: 0x8, addend: 0x0, symName: __ZN13llama_context13memory_updateEb, symObjAddr: 0x3298, symBinAddr: 0x1B954, symSize: 0x1F4 }
  - { offset: 0x10F86B, size: 0x8, addend: 0x0, symName: __ZNK13llama_context12pooling_typeEv, symObjAddr: 0x348C, symBinAddr: 0x1BB48, symSize: 0x8 }
  - { offset: 0x10F88D, size: 0x8, addend: 0x0, symName: __ZN13llama_context10get_logitsEv, symObjAddr: 0x3494, symBinAddr: 0x1BB50, symSize: 0x24 }
  - { offset: 0x10F8C4, size: 0x8, addend: 0x0, symName: __ZN13llama_context14output_reorderEv, symObjAddr: 0x34B8, symBinAddr: 0x1BB74, symSize: 0x524 }
  - { offset: 0x10FB47, size: 0x8, addend: 0x0, symName: __ZNK13llama_context18output_resolve_rowEi, symObjAddr: 0x39DC, symBinAddr: 0x1C098, symSize: 0x1DC }
  - { offset: 0x10FDBA, size: 0x8, addend: 0x0, symName: __ZN13llama_context14get_logits_ithEi, symObjAddr: 0x3BB8, symBinAddr: 0x1C274, symSize: 0x2C0 }
  - { offset: 0x110071, size: 0x8, addend: 0x0, symName: __ZN13llama_context14get_embeddingsEv, symObjAddr: 0x3E78, symBinAddr: 0x1C534, symSize: 0x24 }
  - { offset: 0x1100A8, size: 0x8, addend: 0x0, symName: __ZNK13llama_context18get_sampled_tokensEv, symObjAddr: 0x3E9C, symBinAddr: 0x1C558, symSize: 0x8 }
  - { offset: 0x1100D2, size: 0x8, addend: 0x0, symName: __ZN13llama_context18get_embeddings_ithEi, symObjAddr: 0x3EA4, symBinAddr: 0x1C560, symSize: 0x2C4 }
  - { offset: 0x1104B3, size: 0x8, addend: 0x0, symName: __ZN13llama_context18get_embeddings_seqEi, symObjAddr: 0x4168, symBinAddr: 0x1C824, symSize: 0x4C }
  - { offset: 0x1104E7, size: 0x8, addend: 0x0, symName: __ZN13llama_context18get_embeddings_seqEi, symObjAddr: 0x4168, symBinAddr: 0x1C824, symSize: 0x4C }
  - { offset: 0x110506, size: 0x8, addend: 0x0, symName: __ZN13llama_context18get_embeddings_seqEi, symObjAddr: 0x4168, symBinAddr: 0x1C824, symSize: 0x4C }
  - { offset: 0x11052E, size: 0x8, addend: 0x0, symName: __ZN13llama_context18get_embeddings_seqEi, symObjAddr: 0x4168, symBinAddr: 0x1C824, symSize: 0x4C }
  - { offset: 0x110619, size: 0x8, addend: 0x0, symName: __ZN13llama_context21get_sampled_token_ithEi, symObjAddr: 0x41B4, symBinAddr: 0x1C870, symSize: 0xFC }
  - { offset: 0x1106DC, size: 0x8, addend: 0x0, symName: __ZN13llama_context21get_sampled_probs_ithEi, symObjAddr: 0x42B0, symBinAddr: 0x1C96C, symSize: 0xF4 }
  - { offset: 0x1107AA, size: 0x8, addend: 0x0, symName: __ZN13llama_context22get_sampled_logits_ithEi, symObjAddr: 0x43A4, symBinAddr: 0x1CA60, symSize: 0xF4 }
  - { offset: 0x11088E, size: 0x8, addend: 0x0, symName: __ZN13llama_context26get_sampled_candidates_ithEi, symObjAddr: 0x4498, symBinAddr: 0x1CB54, symSize: 0xA0 }
  - { offset: 0x11093D, size: 0x8, addend: 0x0, symName: __ZN13llama_context28get_sampled_candidates_countEi, symObjAddr: 0x4538, symBinAddr: 0x1CBF4, symSize: 0xD4 }
  - { offset: 0x110A0B, size: 0x8, addend: 0x0, symName: __ZN13llama_context24get_sampled_logits_countEi, symObjAddr: 0x460C, symBinAddr: 0x1CCC8, symSize: 0x104 }
  - { offset: 0x110AD9, size: 0x8, addend: 0x0, symName: __ZN13llama_context23get_sampled_probs_countEi, symObjAddr: 0x4710, symBinAddr: 0x1CDCC, symSize: 0xD4 }
  - { offset: 0x110BA7, size: 0x8, addend: 0x0, symName: __ZN13llama_context17attach_threadpoolEP15ggml_threadpoolS1_, symObjAddr: 0x47E4, symBinAddr: 0x1CEA0, symSize: 0x60 }
  - { offset: 0x110BEE, size: 0x8, addend: 0x0, symName: __ZN13llama_context17detach_threadpoolEv, symObjAddr: 0x4844, symBinAddr: 0x1CF00, symSize: 0x4C }
  - { offset: 0x110C23, size: 0x8, addend: 0x0, symName: __ZN13llama_context13set_n_threadsEii, symObjAddr: 0x4890, symBinAddr: 0x1CF4C, symSize: 0x58 }
  - { offset: 0x110C6A, size: 0x8, addend: 0x0, symName: __ZN13llama_context18set_abort_callbackEPFbPvES0_, symObjAddr: 0x48E8, symBinAddr: 0x1CFA4, symSize: 0xB0 }
  - { offset: 0x110DDE, size: 0x8, addend: 0x0, symName: __ZN13llama_context14set_embeddingsEb, symObjAddr: 0x4998, symBinAddr: 0x1D054, symSize: 0x48 }
  - { offset: 0x110E19, size: 0x8, addend: 0x0, symName: __ZN13llama_context15set_causal_attnEb, symObjAddr: 0x49E0, symBinAddr: 0x1D09C, symSize: 0x64 }
  - { offset: 0x110E57, size: 0x8, addend: 0x0, symName: __ZN13llama_context10set_warmupEb, symObjAddr: 0x4A44, symBinAddr: 0x1D100, symSize: 0x54 }
  - { offset: 0x110EDB, size: 0x8, addend: 0x0, symName: __ZN13llama_context16set_adapter_loraEP18llama_adapter_loraf, symObjAddr: 0x4A98, symBinAddr: 0x1D154, symSize: 0xC4 }
  - { offset: 0x110FA9, size: 0x8, addend: 0x0, symName: __ZNSt3__112__hash_tableINS_17__hash_value_typeIP18llama_adapter_lorafEENS_22__unordered_map_hasherIS3_S4_NS_4hashIS3_EENS_8equal_toIS3_EELb1EEENS_21__unordered_map_equalIS3_S4_S9_S7_Lb1EEENS_9allocatorIS4_EEE4findIS3_EENS_15__hash_iteratorIPNS_11__hash_nodeIS4_PvEEEERKT_, symObjAddr: 0xE950, symBinAddr: 0x26BAC, symSize: 0x110 }
  - { offset: 0x111000, size: 0x8, addend: 0x0, symName: __ZNSt3__112__hash_tableINS_17__hash_value_typeIP18llama_adapter_lorafEENS_22__unordered_map_hasherIS3_S4_NS_4hashIS3_EENS_8equal_toIS3_EELb1EEENS_21__unordered_map_equalIS3_S4_S9_S7_Lb1EEENS_9allocatorIS4_EEE4findIS3_EENS_15__hash_iteratorIPNS_11__hash_nodeIS4_PvEEEERKT_, symObjAddr: 0xE950, symBinAddr: 0x26BAC, symSize: 0x110 }
  - { offset: 0x11101C, size: 0x8, addend: 0x0, symName: __ZNSt3__112__hash_tableINS_17__hash_value_typeIP18llama_adapter_lorafEENS_22__unordered_map_hasherIS3_S4_NS_4hashIS3_EENS_8equal_toIS3_EELb1EEENS_21__unordered_map_equalIS3_S4_S9_S7_Lb1EEENS_9allocatorIS4_EEE4findIS3_EENS_15__hash_iteratorIPNS_11__hash_nodeIS4_PvEEEERKT_, symObjAddr: 0xE950, symBinAddr: 0x26BAC, symSize: 0x110 }
  - { offset: 0x111116, size: 0x8, addend: 0x0, symName: __ZNSt3__112__hash_tableINS_17__hash_value_typeIP18llama_adapter_lorafEENS_22__unordered_map_hasherIS3_S4_NS_4hashIS3_EENS_8equal_toIS3_EELb1EEENS_21__unordered_map_equalIS3_S4_S9_S7_Lb1EEENS_9allocatorIS4_EEE25__emplace_unique_key_argsIS3_JRKNS_21piecewise_construct_tENS_5tupleIJRKS3_EEENSK_IJEEEEEENS_4pairINS_15__hash_iteratorIPNS_11__hash_nodeIS4_PvEEEEbEERKT_DpOT0_, symObjAddr: 0xEA60, symBinAddr: 0x26CBC, symSize: 0x360 }
  - { offset: 0x111A3A, size: 0x8, addend: 0x0, symName: __ZN13llama_context15rm_adapter_loraEP18llama_adapter_lora, symObjAddr: 0x4B5C, symBinAddr: 0x1D218, symSize: 0x88 }
  - { offset: 0x111C7C, size: 0x8, addend: 0x0, symName: __ZNSt3__112__hash_tableINS_17__hash_value_typeIP18llama_adapter_lorafEENS_22__unordered_map_hasherIS3_S4_NS_4hashIS3_EENS_8equal_toIS3_EELb1EEENS_21__unordered_map_equalIS3_S4_S9_S7_Lb1EEENS_9allocatorIS4_EEE6removeENS_21__hash_const_iteratorIPNS_11__hash_nodeIS4_PvEEEE, symObjAddr: 0xEF40, symBinAddr: 0x2719C, symSize: 0x138 }
  - { offset: 0x111CF2, size: 0x8, addend: 0x0, symName: __ZNSt3__112__hash_tableINS_17__hash_value_typeIP18llama_adapter_lorafEENS_22__unordered_map_hasherIS3_S4_NS_4hashIS3_EENS_8equal_toIS3_EELb1EEENS_21__unordered_map_equalIS3_S4_S9_S7_Lb1EEENS_9allocatorIS4_EEE6removeENS_21__hash_const_iteratorIPNS_11__hash_nodeIS4_PvEEEE, symObjAddr: 0xEF40, symBinAddr: 0x2719C, symSize: 0x138 }
  - { offset: 0x111D0E, size: 0x8, addend: 0x0, symName: __ZNSt3__112__hash_tableINS_17__hash_value_typeIP18llama_adapter_lorafEENS_22__unordered_map_hasherIS3_S4_NS_4hashIS3_EENS_8equal_toIS3_EELb1EEENS_21__unordered_map_equalIS3_S4_S9_S7_Lb1EEENS_9allocatorIS4_EEE6removeENS_21__hash_const_iteratorIPNS_11__hash_nodeIS4_PvEEEE, symObjAddr: 0xEF40, symBinAddr: 0x2719C, symSize: 0x138 }
  - { offset: 0x111FB4, size: 0x8, addend: 0x0, symName: __ZN13llama_context18clear_adapter_loraEv, symObjAddr: 0x4BE4, symBinAddr: 0x1D2A0, symSize: 0x84 }
  - { offset: 0x1121E2, size: 0x8, addend: 0x0, symName: __ZN13llama_context18apply_adapter_cvecEPKfmiii, symObjAddr: 0x4C68, symBinAddr: 0x1D324, symSize: 0x84 }
  - { offset: 0x112260, size: 0x8, addend: 0x0, symName: __ZN13llama_context14process_ubatchERK12llama_ubatch14llm_graph_typeP22llama_memory_context_iR11ggml_status, symObjAddr: 0x4CEC, symBinAddr: 0x1D3A8, symSize: 0x50C }
  - { offset: 0x112D01, size: 0x8, addend: 0x0, symName: __ZN13llama_context13graph_computeEP11ggml_cgraphb, symObjAddr: 0x5380, symBinAddr: 0x1DA3C, symSize: 0xE4 }
  - { offset: 0x112EDA, size: 0x8, addend: 0x0, symName: __ZNK13llama_context12graph_paramsEP16llm_graph_resultRK12llama_ubatchPK22llama_memory_context_i14llm_graph_type, symObjAddr: 0x51F8, symBinAddr: 0x1D8B4, symSize: 0x188 }
  - { offset: 0x113B77, size: 0x8, addend: 0x0, symName: __ZN13llama_context6encodeERK11llama_batch, symObjAddr: 0x550C, symBinAddr: 0x1DBC8, symSize: 0xB24 }
  - { offset: 0x116564, size: 0x8, addend: 0x0, symName: __ZN13llama_context6decodeERK11llama_batch, symObjAddr: 0x6094, symBinAddr: 0x1E6EC, symSize: 0x1688 }
  - { offset: 0x11904C, size: 0x8, addend: 0x0, symName: __ZL24copy_tensor_async_floatsRKNSt3__13mapIiP11ggml_tensorNS_4lessIiEENS_9allocatorINS_4pairIKiS2_EEEEEEPfmRNS_6vectorIjNS5_IjEEEERKNS0_IijS4_NS5_INS6_IS7_jEEEEEEP18ggml_backend_sched, symObjAddr: 0x771C, symBinAddr: 0x1FD74, symSize: 0x1A0 }
  - { offset: 0x1193EA, size: 0x8, addend: 0x0, symName: __ZNSt3__16vectorIN13llama_context9swap_infoENS_9allocatorIS2_EEE9push_backB8ne200100EOS2_, symObjAddr: 0x78BC, symBinAddr: 0x1FF14, symSize: 0xEC }
  - { offset: 0x119410, size: 0x8, addend: 0x0, symName: __ZNSt3__16__treeINS_12__value_typeIijEENS_19__map_value_compareIiS2_NS_4lessIiEELb1EEENS_9allocatorIS2_EEE7destroyEPNS_11__tree_nodeIS2_PvEE, symObjAddr: 0xF3E4, symBinAddr: 0x272D4, symSize: 0x44 }
  - { offset: 0x119527, size: 0x8, addend: 0x0, symName: __ZNSt3__16vectorIN13llama_context9swap_infoENS_9allocatorIS2_EEE9push_backB8ne200100EOS2_, symObjAddr: 0x78BC, symBinAddr: 0x1FF14, symSize: 0xEC }
  - { offset: 0x119938, size: 0x8, addend: 0x0, symName: __ZNK13llama_context18get_gf_res_reserveEv, symObjAddr: 0x79A8, symBinAddr: 0x20000, symSize: 0x8 }
  - { offset: 0x119C0A, size: 0x8, addend: 0x0, symName: __ZNSt3__16vectorIN13llama_context9swap_infoENS_9allocatorIS2_EEE20__throw_length_errorB8ne200100Ev, symObjAddr: 0xF428, symBinAddr: 0x27318, symSize: 0x14 }
  - { offset: 0x119C22, size: 0x8, addend: 0x0, symName: __ZNSt3__16vectorIjNS_9allocatorIjEEE8__appendEm, symObjAddr: 0xF43C, symBinAddr: 0x2732C, symSize: 0x120 }
  - { offset: 0x119C2D, size: 0x8, addend: 0x0, symName: __ZNK13llama_context18get_gf_res_reserveEv, symObjAddr: 0x79A8, symBinAddr: 0x20000, symSize: 0x8 }
  - { offset: 0x119C59, size: 0x8, addend: 0x0, symName: __ZNK13llama_context18get_gf_res_reserveEv, symObjAddr: 0x79A8, symBinAddr: 0x20000, symSize: 0x8 }
  - { offset: 0x119D70, size: 0x8, addend: 0x0, symName: __ZN13llama_context14state_get_sizeEv, symObjAddr: 0x79C4, symBinAddr: 0x2001C, symSize: 0xA0 }
  - { offset: 0x119E32, size: 0x8, addend: 0x0, symName: __ZN13llama_context16state_write_dataER16llama_io_write_i, symObjAddr: 0x7A64, symBinAddr: 0x200BC, symSize: 0x354 }
  - { offset: 0x11A951, size: 0x8, addend: 0x0, symName: __ZN20llama_io_write_dummyD1Ev, symObjAddr: 0x7DB8, symBinAddr: 0x20410, symSize: 0x4 }
  - { offset: 0x11AACA, size: 0x8, addend: 0x0, symName: __ZN13llama_context14state_get_dataEPhm, symObjAddr: 0x7DBC, symBinAddr: 0x20414, symSize: 0xA4 }
  - { offset: 0x11ABC8, size: 0x8, addend: 0x0, symName: __ZN21llama_io_write_bufferD1Ev, symObjAddr: 0x7E60, symBinAddr: 0x204B8, symSize: 0x4 }
  - { offset: 0x11AD3B, size: 0x8, addend: 0x0, symName: __ZN13llama_context14state_set_dataEPKhm, symObjAddr: 0x7E64, symBinAddr: 0x204BC, symSize: 0xA4 }
  - { offset: 0x11AE39, size: 0x8, addend: 0x0, symName: __ZN13llama_context15state_read_dataER15llama_io_read_i, symObjAddr: 0x7F08, symBinAddr: 0x20560, symSize: 0x544 }
  - { offset: 0x11BEC4, size: 0x8, addend: 0x0, symName: __ZN20llama_io_read_bufferD1Ev, symObjAddr: 0x844C, symBinAddr: 0x20AA4, symSize: 0x4 }
  - { offset: 0x11BF2D, size: 0x8, addend: 0x0, symName: __ZN13llama_context18state_seq_get_sizeEij, symObjAddr: 0x8450, symBinAddr: 0x20AA8, symSize: 0xC8 }
  - { offset: 0x11C062, size: 0x8, addend: 0x0, symName: __ZN13llama_context20state_seq_write_dataER16llama_io_write_iij, symObjAddr: 0x8518, symBinAddr: 0x20B70, symSize: 0x40 }
  - { offset: 0x11C0DE, size: 0x8, addend: 0x0, symName: __ZN13llama_context18state_seq_get_dataEiPhmj, symObjAddr: 0x8558, symBinAddr: 0x20BB0, symSize: 0xD4 }
  - { offset: 0x11C28C, size: 0x8, addend: 0x0, symName: __ZN13llama_context18state_seq_set_dataEiPKhmj, symObjAddr: 0x862C, symBinAddr: 0x20C84, symSize: 0xD4 }
  - { offset: 0x11C3FD, size: 0x8, addend: 0x0, symName: __ZN13llama_context19state_seq_read_dataER15llama_io_read_iij, symObjAddr: 0x8700, symBinAddr: 0x20D58, symSize: 0x40 }
  - { offset: 0x11C8CC, size: 0x8, addend: 0x0, symName: __ZN13llama_context15state_load_fileEPKcPimPm, symObjAddr: 0x8740, symBinAddr: 0x20D98, symSize: 0x1D0 }
  - { offset: 0x11CD61, size: 0x8, addend: 0x0, symName: __ZN18llama_io_read_fileD1Ev, symObjAddr: 0x8910, symBinAddr: 0x20F68, symSize: 0x44 }
  - { offset: 0x11CD85, size: 0x8, addend: 0x0, symName: __ZN18llama_io_read_fileD1Ev, symObjAddr: 0x8910, symBinAddr: 0x20F68, symSize: 0x44 }
  - { offset: 0x11D036, size: 0x8, addend: 0x0, symName: __ZN13llama_context15state_save_fileEPKcPKim, symObjAddr: 0x8954, symBinAddr: 0x20FAC, symSize: 0x104 }
  - { offset: 0x11D40F, size: 0x8, addend: 0x0, symName: __ZN19llama_io_write_fileD1Ev, symObjAddr: 0x8A58, symBinAddr: 0x210B0, symSize: 0x44 }
  - { offset: 0x11D433, size: 0x8, addend: 0x0, symName: __ZN19llama_io_write_fileD1Ev, symObjAddr: 0x8A58, symBinAddr: 0x210B0, symSize: 0x44 }
  - { offset: 0x11D57A, size: 0x8, addend: 0x0, symName: __ZN13llama_context19state_seq_load_fileEiPKcPimPm, symObjAddr: 0x8A9C, symBinAddr: 0x210F4, symSize: 0x278 }
  - { offset: 0x11DAA0, size: 0x8, addend: 0x0, symName: __ZN13llama_context19state_seq_save_fileEiPKcPKim, symObjAddr: 0x8D14, symBinAddr: 0x2136C, symSize: 0x198 }
  - { offset: 0x11DF38, size: 0x8, addend: 0x0, symName: __ZN19llama_io_write_file7n_bytesEv, symObjAddr: 0x8EAC, symBinAddr: 0x21504, symSize: 0x8 }
  - { offset: 0x11DF5A, size: 0x8, addend: 0x0, symName: __ZNK13llama_context13perf_get_dataEv, symObjAddr: 0x8EB4, symBinAddr: 0x2150C, symSize: 0x54 }
  - { offset: 0x11E03E, size: 0x8, addend: 0x0, symName: __ZN13llama_context10perf_resetEv, symObjAddr: 0x8F08, symBinAddr: 0x21560, symSize: 0x38 }
  - { offset: 0x11E7BE, size: 0x8, addend: 0x0, symName: __ZNK13llama_context16memory_breakdownEv, symObjAddr: 0x8F40, symBinAddr: 0x21598, symSize: 0x500 }
  - { offset: 0x11FBB3, size: 0x8, addend: 0x0, symName: __ZNSt3__16__treeINS_12__value_typeIP24ggml_backend_buffer_typemEENS_19__map_value_compareIS3_S4_NS_4lessIS3_EELb1EEENS_9allocatorIS4_EEE7destroyEPNS_11__tree_nodeIS4_PvEE, symObjAddr: 0xFA48, symBinAddr: 0x27938, symSize: 0x44 }
  - { offset: 0x11FCE2, size: 0x8, addend: 0x0, symName: __ZNSt3__16__treeINS_12__value_typeIP24ggml_backend_buffer_type27llama_memory_breakdown_dataEENS_19__map_value_compareIS3_S5_NS_4lessIS3_EELb1EEENS_9allocatorIS5_EEE7destroyEPNS_11__tree_nodeIS5_PvEE, symObjAddr: 0xFA04, symBinAddr: 0x278F4, symSize: 0x44 }
  - { offset: 0x11FE93, size: 0x8, addend: 0x0, symName: __ZN13llama_context8opt_initEP11llama_model16llama_opt_params, symObjAddr: 0x9440, symBinAddr: 0x21A98, symSize: 0x5E8 }
  - { offset: 0x1207CD, size: 0x8, addend: 0x0, symName: __ZN13llama_context14opt_epoch_iterEP16ggml_opt_datasetP15ggml_opt_resultRKNSt3__16vectorIiNS4_9allocatorIiEEEESA_R11llama_batchPFvbP16ggml_opt_contextS1_S3_xxxEbxxx, symObjAddr: 0x9A28, symBinAddr: 0x22080, symSize: 0x7A8 }
  - { offset: 0x1208FE, size: 0x8, addend: 0x0, symName: __ZN13llama_context14opt_epoch_iterEP16ggml_opt_datasetP15ggml_opt_resultRKNSt3__16vectorIiNS4_9allocatorIiEEEESA_R11llama_batchPFvbP16ggml_opt_contextS1_S3_xxxEbxxx, symObjAddr: 0x9A28, symBinAddr: 0x22080, symSize: 0x7A8 }
  - { offset: 0x12193F, size: 0x8, addend: 0x0, symName: __ZN13llama_context9opt_epochEP16ggml_opt_datasetP15ggml_opt_resultS3_xPFvbP16ggml_opt_contextS1_S3_xxxES7_, symObjAddr: 0xA1D0, symBinAddr: 0x22828, symSize: 0x2C4 }
  - { offset: 0x122489, size: 0x8, addend: 0x0, symName: _llama_context_default_params, symObjAddr: 0xA494, symBinAddr: 0x22AEC, symSize: 0x34 }
  - { offset: 0x1224E7, size: 0x8, addend: 0x0, symName: _llama_init_from_model, symObjAddr: 0xA4C8, symBinAddr: 0x22B20, symSize: 0x2D4 }
  - { offset: 0x1226AB, size: 0x8, addend: 0x0, symName: _llama_new_context_with_model, symObjAddr: 0xA79C, symBinAddr: 0x22DF4, symSize: 0x48 }
  - { offset: 0x12271F, size: 0x8, addend: 0x0, symName: _llama_free, symObjAddr: 0xA7E4, symBinAddr: 0x22E3C, symSize: 0x1C }
  - { offset: 0x122770, size: 0x8, addend: 0x0, symName: _llama_n_ctx, symObjAddr: 0xA800, symBinAddr: 0x22E58, symSize: 0x8 }
  - { offset: 0x12279E, size: 0x8, addend: 0x0, symName: _llama_n_ctx, symObjAddr: 0xA800, symBinAddr: 0x22E58, symSize: 0x8 }
  - { offset: 0x1227D2, size: 0x8, addend: 0x0, symName: _llama_n_ctx_seq, symObjAddr: 0xA808, symBinAddr: 0x22E60, symSize: 0x8 }
  - { offset: 0x122800, size: 0x8, addend: 0x0, symName: _llama_n_ctx_seq, symObjAddr: 0xA808, symBinAddr: 0x22E60, symSize: 0x8 }
  - { offset: 0x12281B, size: 0x8, addend: 0x0, symName: _llama_n_batch, symObjAddr: 0xA810, symBinAddr: 0x22E68, symSize: 0x8 }
  - { offset: 0x122849, size: 0x8, addend: 0x0, symName: _llama_n_batch, symObjAddr: 0xA810, symBinAddr: 0x22E68, symSize: 0x8 }
  - { offset: 0x12287D, size: 0x8, addend: 0x0, symName: _llama_n_ubatch, symObjAddr: 0xA818, symBinAddr: 0x22E70, symSize: 0x8 }
  - { offset: 0x1228AB, size: 0x8, addend: 0x0, symName: _llama_n_ubatch, symObjAddr: 0xA818, symBinAddr: 0x22E70, symSize: 0x8 }
  - { offset: 0x1228C6, size: 0x8, addend: 0x0, symName: _llama_n_seq_max, symObjAddr: 0xA820, symBinAddr: 0x22E78, symSize: 0x8 }
  - { offset: 0x1228F4, size: 0x8, addend: 0x0, symName: _llama_n_seq_max, symObjAddr: 0xA820, symBinAddr: 0x22E78, symSize: 0x8 }
  - { offset: 0x122928, size: 0x8, addend: 0x0, symName: _llama_get_model, symObjAddr: 0xA828, symBinAddr: 0x22E80, symSize: 0x8 }
  - { offset: 0x122956, size: 0x8, addend: 0x0, symName: _llama_get_model, symObjAddr: 0xA828, symBinAddr: 0x22E80, symSize: 0x8 }
  - { offset: 0x12298A, size: 0x8, addend: 0x0, symName: _llama_pooling_type, symObjAddr: 0xA830, symBinAddr: 0x22E88, symSize: 0x8 }
  - { offset: 0x1229B8, size: 0x8, addend: 0x0, symName: _llama_pooling_type, symObjAddr: 0xA830, symBinAddr: 0x22E88, symSize: 0x8 }
  - { offset: 0x122A04, size: 0x8, addend: 0x0, symName: _llama_attach_threadpool, symObjAddr: 0xA838, symBinAddr: 0x22E90, symSize: 0x60 }
  - { offset: 0x122AA3, size: 0x8, addend: 0x0, symName: _llama_detach_threadpool, symObjAddr: 0xA898, symBinAddr: 0x22EF0, symSize: 0x4C }
  - { offset: 0x122B2C, size: 0x8, addend: 0x0, symName: _llama_set_n_threads, symObjAddr: 0xA8E4, symBinAddr: 0x22F3C, symSize: 0x58 }
  - { offset: 0x122BCB, size: 0x8, addend: 0x0, symName: _llama_n_threads, symObjAddr: 0xA93C, symBinAddr: 0x22F94, symSize: 0x8 }
  - { offset: 0x122BF9, size: 0x8, addend: 0x0, symName: _llama_n_threads, symObjAddr: 0xA93C, symBinAddr: 0x22F94, symSize: 0x8 }
  - { offset: 0x122C2D, size: 0x8, addend: 0x0, symName: _llama_n_threads_batch, symObjAddr: 0xA944, symBinAddr: 0x22F9C, symSize: 0x8 }
  - { offset: 0x122C5B, size: 0x8, addend: 0x0, symName: _llama_n_threads_batch, symObjAddr: 0xA944, symBinAddr: 0x22F9C, symSize: 0x8 }
  - { offset: 0x122C9B, size: 0x8, addend: 0x0, symName: _llama_set_embeddings, symObjAddr: 0xA94C, symBinAddr: 0x22FA4, symSize: 0x48 }
  - { offset: 0x122D28, size: 0x8, addend: 0x0, symName: _llama_set_causal_attn, symObjAddr: 0xA994, symBinAddr: 0x22FEC, symSize: 0x64 }
  - { offset: 0x122DBE, size: 0x8, addend: 0x0, symName: _llama_set_warmup, symObjAddr: 0xA9F8, symBinAddr: 0x23050, symSize: 0x54 }
  - { offset: 0x122E2F, size: 0x8, addend: 0x0, symName: _llama_synchronize, symObjAddr: 0xAA4C, symBinAddr: 0x230A4, symSize: 0x4 }
  - { offset: 0x122E58, size: 0x8, addend: 0x0, symName: _llama_synchronize, symObjAddr: 0xAA4C, symBinAddr: 0x230A4, symSize: 0x4 }
  - { offset: 0x122E84, size: 0x8, addend: 0x0, symName: _llama_get_logits, symObjAddr: 0xAA50, symBinAddr: 0x230A8, symSize: 0x2C }
  - { offset: 0x122EF6, size: 0x8, addend: 0x0, symName: _llama_get_logits_ith, symObjAddr: 0xAA7C, symBinAddr: 0x230D4, symSize: 0x48 }
  - { offset: 0x122F98, size: 0x8, addend: 0x0, symName: _llama_get_embeddings, symObjAddr: 0xAAC4, symBinAddr: 0x2311C, symSize: 0x2C }
  - { offset: 0x12300A, size: 0x8, addend: 0x0, symName: _llama_get_embeddings_ith, symObjAddr: 0xAAF0, symBinAddr: 0x23148, symSize: 0x2C }
  - { offset: 0x12309A, size: 0x8, addend: 0x0, symName: _llama_get_embeddings_seq, symObjAddr: 0xAB1C, symBinAddr: 0x23174, symSize: 0x74 }
  - { offset: 0x12323F, size: 0x8, addend: 0x0, symName: _llama_set_sampler, symObjAddr: 0xAB90, symBinAddr: 0x231E8, symSize: 0x4 }
  - { offset: 0x123288, size: 0x8, addend: 0x0, symName: _llama_set_sampler, symObjAddr: 0xAB90, symBinAddr: 0x231E8, symSize: 0x4 }
  - { offset: 0x1232A9, size: 0x8, addend: 0x0, symName: _llama_get_sampled_token_ith, symObjAddr: 0xAB94, symBinAddr: 0x231EC, symSize: 0x2C }
  - { offset: 0x123308, size: 0x8, addend: 0x0, symName: _llama_get_sampled_probs_ith, symObjAddr: 0xABC0, symBinAddr: 0x23218, symSize: 0x2C }
  - { offset: 0x123367, size: 0x8, addend: 0x0, symName: _llama_get_sampled_logits_ith, symObjAddr: 0xABEC, symBinAddr: 0x23244, symSize: 0x2C }
  - { offset: 0x12340A, size: 0x8, addend: 0x0, symName: _llama_get_sampled_candidates_ith, symObjAddr: 0xAC18, symBinAddr: 0x23270, symSize: 0xA8 }
  - { offset: 0x1234F8, size: 0x8, addend: 0x0, symName: _llama_get_sampled_candidates_count_ith, symObjAddr: 0xACC0, symBinAddr: 0x23318, symSize: 0x30 }
  - { offset: 0x123563, size: 0x8, addend: 0x0, symName: _llama_get_sampled_logits_count_ith, symObjAddr: 0xACF0, symBinAddr: 0x23348, symSize: 0x30 }
  - { offset: 0x1235CE, size: 0x8, addend: 0x0, symName: _llama_get_sampled_probs_count_ith, symObjAddr: 0xAD20, symBinAddr: 0x23378, symSize: 0x30 }
  - { offset: 0x123678, size: 0x8, addend: 0x0, symName: _llama_set_adapter_lora, symObjAddr: 0xAD50, symBinAddr: 0x233A8, symSize: 0xB0 }
  - { offset: 0x1237BD, size: 0x8, addend: 0x0, symName: _llama_rm_adapter_lora, symObjAddr: 0xAE00, symBinAddr: 0x23458, symSize: 0x88 }
  - { offset: 0x123A1E, size: 0x8, addend: 0x0, symName: _llama_clear_adapter_lora, symObjAddr: 0xAE88, symBinAddr: 0x234E0, symSize: 0x84 }
  - { offset: 0x123CC4, size: 0x8, addend: 0x0, symName: _llama_apply_adapter_cvec, symObjAddr: 0xAF0C, symBinAddr: 0x23564, symSize: 0x8C }
  - { offset: 0x123DC4, size: 0x8, addend: 0x0, symName: _llama_get_memory, symObjAddr: 0xAF98, symBinAddr: 0x235F0, symSize: 0x8 }
  - { offset: 0x123DF2, size: 0x8, addend: 0x0, symName: _llama_get_memory, symObjAddr: 0xAF98, symBinAddr: 0x235F0, symSize: 0x8 }
  - { offset: 0x123E0E, size: 0x8, addend: 0x0, symName: _llama_get_memory, symObjAddr: 0xAF98, symBinAddr: 0x235F0, symSize: 0x8 }
  - { offset: 0x123E2D, size: 0x8, addend: 0x0, symName: _llama_memory_clear, symObjAddr: 0xAFA0, symBinAddr: 0x235F8, symSize: 0x14 }
  - { offset: 0x123E72, size: 0x8, addend: 0x0, symName: _llama_memory_seq_rm, symObjAddr: 0xAFB4, symBinAddr: 0x2360C, symSize: 0x18 }
  - { offset: 0x123ED4, size: 0x8, addend: 0x0, symName: _llama_memory_seq_cp, symObjAddr: 0xAFCC, symBinAddr: 0x23624, symSize: 0x14 }
  - { offset: 0x123F3E, size: 0x8, addend: 0x0, symName: _llama_memory_seq_keep, symObjAddr: 0xAFE0, symBinAddr: 0x23638, symSize: 0x14 }
  - { offset: 0x123F7E, size: 0x8, addend: 0x0, symName: _llama_memory_seq_add, symObjAddr: 0xAFF4, symBinAddr: 0x2364C, symSize: 0x14 }
  - { offset: 0x123FE8, size: 0x8, addend: 0x0, symName: _llama_memory_seq_div, symObjAddr: 0xB008, symBinAddr: 0x23660, symSize: 0x14 }
  - { offset: 0x124052, size: 0x8, addend: 0x0, symName: _llama_memory_seq_pos_min, symObjAddr: 0xB01C, symBinAddr: 0x23674, symSize: 0x18 }
  - { offset: 0x124098, size: 0x8, addend: 0x0, symName: _llama_memory_seq_pos_max, symObjAddr: 0xB034, symBinAddr: 0x2368C, symSize: 0x18 }
  - { offset: 0x1240DE, size: 0x8, addend: 0x0, symName: _llama_memory_can_shift, symObjAddr: 0xB04C, symBinAddr: 0x236A4, symSize: 0x14 }
  - { offset: 0x12412F, size: 0x8, addend: 0x0, symName: _llama_get_state_size, symObjAddr: 0xB060, symBinAddr: 0x236B8, symSize: 0x4 }
  - { offset: 0x12415B, size: 0x8, addend: 0x0, symName: _llama_get_state_size, symObjAddr: 0xB060, symBinAddr: 0x236B8, symSize: 0x4 }
  - { offset: 0x124179, size: 0x8, addend: 0x0, symName: _llama_get_state_size, symObjAddr: 0xB060, symBinAddr: 0x236B8, symSize: 0x4 }
  - { offset: 0x12418C, size: 0x8, addend: 0x0, symName: _llama_state_get_size, symObjAddr: 0xB064, symBinAddr: 0x236BC, symSize: 0x4 }
  - { offset: 0x1241AB, size: 0x8, addend: 0x0, symName: _llama_state_get_size, symObjAddr: 0xB064, symBinAddr: 0x236BC, symSize: 0x4 }
  - { offset: 0x1241F1, size: 0x8, addend: 0x0, symName: _llama_copy_state_data, symObjAddr: 0xB068, symBinAddr: 0x236C0, symSize: 0x30 }
  - { offset: 0x124288, size: 0x8, addend: 0x0, symName: _llama_state_get_data, symObjAddr: 0xB098, symBinAddr: 0x236F0, symSize: 0x3C }
  - { offset: 0x12430E, size: 0x8, addend: 0x0, symName: _llama_set_state_data, symObjAddr: 0xB0D4, symBinAddr: 0x2372C, symSize: 0x30 }
  - { offset: 0x1243A5, size: 0x8, addend: 0x0, symName: _llama_state_set_data, symObjAddr: 0xB104, symBinAddr: 0x2375C, symSize: 0x3C }
  - { offset: 0x1243F8, size: 0x8, addend: 0x0, symName: _llama_load_session_file, symObjAddr: 0xB140, symBinAddr: 0x23798, symSize: 0x4 }
  - { offset: 0x12445D, size: 0x8, addend: 0x0, symName: _llama_load_session_file, symObjAddr: 0xB140, symBinAddr: 0x23798, symSize: 0x4 }
  - { offset: 0x12448C, size: 0x8, addend: 0x0, symName: _llama_state_load_file, symObjAddr: 0xB144, symBinAddr: 0x2379C, symSize: 0xD0 }
  - { offset: 0x124568, size: 0x8, addend: 0x0, symName: _llama_save_session_file, symObjAddr: 0xB214, symBinAddr: 0x2386C, symSize: 0x4 }
  - { offset: 0x1245BF, size: 0x8, addend: 0x0, symName: _llama_save_session_file, symObjAddr: 0xB214, symBinAddr: 0x2386C, symSize: 0x4 }
  - { offset: 0x1245E7, size: 0x8, addend: 0x0, symName: _llama_state_save_file, symObjAddr: 0xB218, symBinAddr: 0x23870, symSize: 0xC0 }
  - { offset: 0x1246E0, size: 0x8, addend: 0x0, symName: _llama_state_seq_get_size, symObjAddr: 0xB2D8, symBinAddr: 0x23930, symSize: 0x8 }
  - { offset: 0x12471A, size: 0x8, addend: 0x0, symName: _llama_state_seq_get_size, symObjAddr: 0xB2D8, symBinAddr: 0x23930, symSize: 0x8 }
  - { offset: 0x124765, size: 0x8, addend: 0x0, symName: _llama_state_seq_get_size_ext, symObjAddr: 0xB2E0, symBinAddr: 0x23938, symSize: 0x4 }
  - { offset: 0x124792, size: 0x8, addend: 0x0, symName: _llama_state_seq_get_size_ext, symObjAddr: 0xB2E0, symBinAddr: 0x23938, symSize: 0x4 }
  - { offset: 0x1247FE, size: 0x8, addend: 0x0, symName: _llama_state_seq_get_data, symObjAddr: 0xB2E4, symBinAddr: 0x2393C, symSize: 0x48 }
  - { offset: 0x1248C4, size: 0x8, addend: 0x0, symName: _llama_state_seq_get_data_ext, symObjAddr: 0xB32C, symBinAddr: 0x23984, symSize: 0x54 }
  - { offset: 0x124974, size: 0x8, addend: 0x0, symName: _llama_state_seq_set_data, symObjAddr: 0xB380, symBinAddr: 0x239D8, symSize: 0x48 }
  - { offset: 0x124A3A, size: 0x8, addend: 0x0, symName: _llama_state_seq_set_data_ext, symObjAddr: 0xB3C8, symBinAddr: 0x23A20, symSize: 0x54 }
  - { offset: 0x124A9F, size: 0x8, addend: 0x0, symName: _llama_state_seq_save_file, symObjAddr: 0xB41C, symBinAddr: 0x23A74, symSize: 0xD0 }
  - { offset: 0x124B7B, size: 0x8, addend: 0x0, symName: _llama_state_seq_load_file, symObjAddr: 0xB4EC, symBinAddr: 0x23B44, symSize: 0xD8 }
  - { offset: 0x124C6D, size: 0x8, addend: 0x0, symName: _llama_encode, symObjAddr: 0xB5C4, symBinAddr: 0x23C1C, symSize: 0x4C }
  - { offset: 0x124CE8, size: 0x8, addend: 0x0, symName: _llama_decode, symObjAddr: 0xB610, symBinAddr: 0x23C68, symSize: 0x50 }
  - { offset: 0x124D88, size: 0x8, addend: 0x0, symName: _llama_perf_context, symObjAddr: 0xB660, symBinAddr: 0x23CB8, symSize: 0x60 }
  - { offset: 0x124EAD, size: 0x8, addend: 0x0, symName: _llama_perf_context_print, symObjAddr: 0xB6C0, symBinAddr: 0x23D18, symSize: 0x19C }
  - { offset: 0x125083, size: 0x8, addend: 0x0, symName: _llama_perf_context_reset, symObjAddr: 0xB85C, symBinAddr: 0x23EB4, symSize: 0x38 }
  - { offset: 0x12644C, size: 0x8, addend: 0x0, symName: _llama_memory_breakdown_print, symObjAddr: 0xB894, symBinAddr: 0x23EEC, symSize: 0x1E84 }
  - { offset: 0x12D618, size: 0x8, addend: 0x0, symName: __ZNSt3__128__exception_guard_exceptionsINS_6vectorINS_12basic_stringIcNS_11char_traitsIcEENS_9allocatorIcEEEENS5_IS7_EEE16__destroy_vectorEED1B8ne200100Ev, symObjAddr: 0xFB28, symBinAddr: 0x27990, symSize: 0x80 }
  - { offset: 0x12D623, size: 0x8, addend: 0x0, symName: __ZNSt3__15arrayINS_12basic_stringIcNS_11char_traitsIcEENS_9allocatorIcEEEELm9EED2Ev, symObjAddr: 0xE25C, symBinAddr: 0x26614, symSize: 0x100 }
  - { offset: 0x12D76D, size: 0x8, addend: 0x0, symName: __ZNSt3__16__treeIP24ggml_backend_buffer_typeNS_4lessIS2_EENS_9allocatorIS2_EEE7destroyEPNS_11__tree_nodeIS2_PvEE, symObjAddr: 0xFBA8, symBinAddr: 0x27A10, symSize: 0x44 }
  - { offset: 0x12D899, size: 0x8, addend: 0x0, symName: __ZNSt3__16vectorINS_5arrayINS_12basic_stringIcNS_11char_traitsIcEENS_9allocatorIcEEEELm9EEENS5_IS8_EEE20__throw_length_errorB8ne200100Ev, symObjAddr: 0xFA8C, symBinAddr: 0x2797C, symSize: 0x14 }
  - { offset: 0x12D8BC, size: 0x8, addend: 0x0, symName: __ZNSt3__16vectorI27llama_memory_breakdown_dataNS_9allocatorIS1_EEE20__throw_length_errorB8ne200100Ev, symObjAddr: 0xFBEC, symBinAddr: 0x27A54, symSize: 0x14 }
  - { offset: 0x12D8DF, size: 0x8, addend: 0x0, symName: __ZNSt3__128__exception_guard_exceptionsINS_6vectorINS_12basic_stringIcNS_11char_traitsIcEENS_9allocatorIcEEEENS5_IS7_EEE16__destroy_vectorEED1B8ne200100Ev, symObjAddr: 0xFB28, symBinAddr: 0x27990, symSize: 0x80 }
  - { offset: 0x12DB4D, size: 0x8, addend: 0x0, symName: __ZNSt3__16vectorINS_12basic_stringIcNS_11char_traitsIcEENS_9allocatorIcEEEENS4_IS6_EEED1B8ne200100Ev, symObjAddr: 0xD718, symBinAddr: 0x25D70, symSize: 0x70 }
  - { offset: 0x12DDAD, size: 0x8, addend: 0x0, symName: __ZNSt3__16vectorINS_5arrayINS_12basic_stringIcNS_11char_traitsIcEENS_9allocatorIcEEEELm9EEENS5_IS8_EEED1B8ne200100Ev, symObjAddr: 0xD788, symBinAddr: 0x25DE0, symSize: 0x58 }
  - { offset: 0x12DF55, size: 0x8, addend: 0x0, symName: _llama_opt_param_filter_all, symObjAddr: 0xD7E0, symBinAddr: 0x25E38, symSize: 0x8 }
  - { offset: 0x12DF8F, size: 0x8, addend: 0x0, symName: _llama_opt_init, symObjAddr: 0xD7E8, symBinAddr: 0x25E40, symSize: 0x30 }
  - { offset: 0x12DFF9, size: 0x8, addend: 0x0, symName: _llama_opt_epoch, symObjAddr: 0xD818, symBinAddr: 0x25E70, symSize: 0x4 }
  - { offset: 0x12E076, size: 0x8, addend: 0x0, symName: _llama_opt_epoch, symObjAddr: 0xD818, symBinAddr: 0x25E70, symSize: 0x4 }
  - { offset: 0x12ED34, size: 0x8, addend: 0x0, symName: __ZN20llama_io_write_dummyD0Ev, symObjAddr: 0xDC70, symBinAddr: 0x260B0, symSize: 0x4 }
  - { offset: 0x12ED60, size: 0x8, addend: 0x0, symName: __ZN20llama_io_write_dummy5writeEPKvm, symObjAddr: 0xDC74, symBinAddr: 0x260B4, symSize: 0x10 }
  - { offset: 0x12ED9E, size: 0x8, addend: 0x0, symName: __ZN20llama_io_write_dummy12write_tensorEPK11ggml_tensormm, symObjAddr: 0xDC84, symBinAddr: 0x260C4, symSize: 0x10 }
  - { offset: 0x12EDE7, size: 0x8, addend: 0x0, symName: __ZN20llama_io_write_dummy7n_bytesEv, symObjAddr: 0xDC94, symBinAddr: 0x260D4, symSize: 0x8 }
  - { offset: 0x12EE0E, size: 0x8, addend: 0x0, symName: __ZN21llama_io_write_bufferD0Ev, symObjAddr: 0xDC9C, symBinAddr: 0x260DC, symSize: 0x4 }
  - { offset: 0x12EE3A, size: 0x8, addend: 0x0, symName: __ZN21llama_io_write_buffer5writeEPKvm, symObjAddr: 0xDCA0, symBinAddr: 0x260E0, symSize: 0x94 }
  - { offset: 0x12EE81, size: 0x8, addend: 0x0, symName: __ZN21llama_io_write_buffer12write_tensorEPK11ggml_tensormm, symObjAddr: 0xDD34, symBinAddr: 0x26174, symSize: 0x9C }
  - { offset: 0x12EF02, size: 0x8, addend: 0x0, symName: __ZN21llama_io_write_buffer7n_bytesEv, symObjAddr: 0xDDD0, symBinAddr: 0x26210, symSize: 0x8 }
  - { offset: 0x12EF29, size: 0x8, addend: 0x0, symName: __ZN20llama_io_read_bufferD0Ev, symObjAddr: 0xDDD8, symBinAddr: 0x26218, symSize: 0x4 }
  - { offset: 0x12EF55, size: 0x8, addend: 0x0, symName: __ZN20llama_io_read_buffer4readEm, symObjAddr: 0xDDDC, symBinAddr: 0x2621C, symSize: 0x84 }
  - { offset: 0x12EF9C, size: 0x8, addend: 0x0, symName: __ZN20llama_io_read_buffer7read_toEPvm, symObjAddr: 0xDE60, symBinAddr: 0x262A0, symSize: 0x3C }
  - { offset: 0x12EFFE, size: 0x8, addend: 0x0, symName: __ZN20llama_io_read_buffer7n_bytesEv, symObjAddr: 0xDE9C, symBinAddr: 0x262DC, symSize: 0x8 }
  - { offset: 0x12F025, size: 0x8, addend: 0x0, symName: __ZN18llama_io_read_fileD0Ev, symObjAddr: 0xDEA4, symBinAddr: 0x262E4, symSize: 0x44 }
  - { offset: 0x12F055, size: 0x8, addend: 0x0, symName: __ZN18llama_io_read_fileD0Ev, symObjAddr: 0xDEA4, symBinAddr: 0x262E4, symSize: 0x44 }
  - { offset: 0x12F073, size: 0x8, addend: 0x0, symName: __ZN18llama_io_read_fileD0Ev, symObjAddr: 0xDEA4, symBinAddr: 0x262E4, symSize: 0x44 }
  - { offset: 0x12F5F1, size: 0x8, addend: 0x0, symName: __ZN18llama_io_read_file4readEm, symObjAddr: 0xDEE8, symBinAddr: 0x26328, symSize: 0x108 }
  - { offset: 0x12FB3C, size: 0x8, addend: 0x0, symName: __ZN18llama_io_read_file7read_toEPvm, symObjAddr: 0xDFF0, symBinAddr: 0x26430, symSize: 0x34 }
  - { offset: 0x12FB5C, size: 0x8, addend: 0x0, symName: __ZN18llama_io_read_file7read_toEPvm, symObjAddr: 0xDFF0, symBinAddr: 0x26430, symSize: 0x34 }
  - { offset: 0x12FBA3, size: 0x8, addend: 0x0, symName: __ZN18llama_io_read_file7n_bytesEv, symObjAddr: 0xE024, symBinAddr: 0x26464, symSize: 0x8 }
  - { offset: 0x12FC2F, size: 0x8, addend: 0x0, symName: __ZN19llama_io_write_fileD0Ev, symObjAddr: 0xE0B4, symBinAddr: 0x2646C, symSize: 0x44 }
  - { offset: 0x12FC5F, size: 0x8, addend: 0x0, symName: __ZN19llama_io_write_fileD0Ev, symObjAddr: 0xE0B4, symBinAddr: 0x2646C, symSize: 0x44 }
  - { offset: 0x12FC7D, size: 0x8, addend: 0x0, symName: __ZN19llama_io_write_fileD0Ev, symObjAddr: 0xE0B4, symBinAddr: 0x2646C, symSize: 0x44 }
  - { offset: 0x12FDC5, size: 0x8, addend: 0x0, symName: __ZN19llama_io_write_file5writeEPKvm, symObjAddr: 0xE0F8, symBinAddr: 0x264B0, symSize: 0x34 }
  - { offset: 0x12FE0C, size: 0x8, addend: 0x0, symName: __ZN19llama_io_write_file12write_tensorEPK11ggml_tensormm, symObjAddr: 0xE12C, symBinAddr: 0x264E4, symSize: 0x130 }
  - { offset: 0x1303A5, size: 0x8, addend: 0x0, symName: __ZNSt3__15arrayINS_12basic_stringIcNS_11char_traitsIcEENS_9allocatorIcEEEELm9EED2Ev, symObjAddr: 0xE25C, symBinAddr: 0x26614, symSize: 0x100 }
  - { offset: 0x130B37, size: 0x8, addend: 0x0, symName: __ZNSt3__112__hash_tableINS_17__hash_value_typeIP18llama_adapter_lorafEENS_22__unordered_map_hasherIS3_S4_NS_4hashIS3_EENS_8equal_toIS3_EELb1EEENS_21__unordered_map_equalIS3_S4_S9_S7_Lb1EEENS_9allocatorIS4_EEE11__do_rehashILb1EEEvm, symObjAddr: 0xEDC0, symBinAddr: 0x2701C, symSize: 0x180 }
  - { offset: 0x130EC4, size: 0x8, addend: 0x0, symName: __ZNSt3__112__hash_tableINS_17__hash_value_typeIP18llama_adapter_lorafEENS_22__unordered_map_hasherIS3_S4_NS_4hashIS3_EENS_8equal_toIS3_EELb1EEENS_21__unordered_map_equalIS3_S4_S9_S7_Lb1EEENS_9allocatorIS4_EEE6removeENS_21__hash_const_iteratorIPNS_11__hash_nodeIS4_PvEEEE, symObjAddr: 0xEF40, symBinAddr: 0x2719C, symSize: 0x138 }
  - { offset: 0x131795, size: 0x8, addend: 0x0, symName: __ZNSt3__16__treeINS_12__value_typeIijEENS_19__map_value_compareIiS2_NS_4lessIiEELb1EEENS_9allocatorIS2_EEE7destroyEPNS_11__tree_nodeIS2_PvEE, symObjAddr: 0xF3E4, symBinAddr: 0x272D4, symSize: 0x44 }
  - { offset: 0x131AB3, size: 0x8, addend: 0x0, symName: __ZNSt3__16vectorIjNS_9allocatorIjEEE20__throw_length_errorB8ne200100Ev, symObjAddr: 0xF55C, symBinAddr: 0x2744C, symSize: 0x14 }
  - { offset: 0x131ACB, size: 0x8, addend: 0x0, symName: __ZNSt3__13mapIiP13llama_samplerNS_4lessIiEENS_9allocatorINS_4pairIKiS2_EEEEE6insertB8ne200100INS_20__map_const_iteratorINS_21__tree_const_iteratorINS_12__value_typeIiS2_EEPNS_11__tree_nodeISF_PvEElEEEEEEvT_SM_, symObjAddr: 0xF570, symBinAddr: 0x27460, symSize: 0xF4 }
  - { offset: 0x131D1B, size: 0x8, addend: 0x0, symName: __ZNSt3__16__treeINS_12__value_typeIiP13llama_samplerEENS_19__map_value_compareIiS4_NS_4lessIiEELb1EEENS_9allocatorIS4_EEE12__find_equalIiEERPNS_16__tree_node_baseIPvEENS_21__tree_const_iteratorIS4_PNS_11__tree_nodeIS4_SE_EElEERPNS_15__tree_end_nodeISG_EESH_RKT_, symObjAddr: 0xF664, symBinAddr: 0x27554, symSize: 0x1B0 }
  - { offset: 0x131D7E, size: 0x8, addend: 0x0, symName: __ZNSt3__16__treeINS_12__value_typeIiP13llama_samplerEENS_19__map_value_compareIiS4_NS_4lessIiEELb1EEENS_9allocatorIS4_EEE12__find_equalIiEERPNS_16__tree_node_baseIPvEENS_21__tree_const_iteratorIS4_PNS_11__tree_nodeIS4_SE_EElEERPNS_15__tree_end_nodeISG_EESH_RKT_, symObjAddr: 0xF664, symBinAddr: 0x27554, symSize: 0x1B0 }
  - { offset: 0x131D9A, size: 0x8, addend: 0x0, symName: __ZNSt3__16__treeINS_12__value_typeIiP13llama_samplerEENS_19__map_value_compareIiS4_NS_4lessIiEELb1EEENS_9allocatorIS4_EEE12__find_equalIiEERPNS_16__tree_node_baseIPvEENS_21__tree_const_iteratorIS4_PNS_11__tree_nodeIS4_SE_EElEERPNS_15__tree_end_nodeISG_EESH_RKT_, symObjAddr: 0xF664, symBinAddr: 0x27554, symSize: 0x1B0 }
  - { offset: 0x13212F, size: 0x8, addend: 0x0, symName: '__ZNSt3__110__function6__funcIZNK13llama_context12graph_get_cbEvE3$_0NS_9allocatorIS3_EEFvRK12llama_ubatchP11ggml_tensorPKciEED1Ev', symObjAddr: 0xF814, symBinAddr: 0x27704, symSize: 0x4 }
  - { offset: 0x13215B, size: 0x8, addend: 0x0, symName: '__ZNSt3__110__function6__funcIZNK13llama_context12graph_get_cbEvE3$_0NS_9allocatorIS3_EEFvRK12llama_ubatchP11ggml_tensorPKciEED0Ev', symObjAddr: 0xF818, symBinAddr: 0x27708, symSize: 0x4 }
  - { offset: 0x132212, size: 0x8, addend: 0x0, symName: '__ZNKSt3__110__function6__funcIZNK13llama_context12graph_get_cbEvE3$_0NS_9allocatorIS3_EEFvRK12llama_ubatchP11ggml_tensorPKciEE7__cloneEv', symObjAddr: 0xF81C, symBinAddr: 0x2770C, symSize: 0x34 }
  - { offset: 0x132362, size: 0x8, addend: 0x0, symName: '__ZNKSt3__110__function6__funcIZNK13llama_context12graph_get_cbEvE3$_0NS_9allocatorIS3_EEFvRK12llama_ubatchP11ggml_tensorPKciEE7__cloneEPNS0_6__baseISD_EE', symObjAddr: 0xF850, symBinAddr: 0x27740, symSize: 0x14 }
  - { offset: 0x1323CF, size: 0x8, addend: 0x0, symName: '__ZNSt3__110__function6__funcIZNK13llama_context12graph_get_cbEvE3$_0NS_9allocatorIS3_EEFvRK12llama_ubatchP11ggml_tensorPKciEE7destroyEv', symObjAddr: 0xF864, symBinAddr: 0x27754, symSize: 0x4 }
  - { offset: 0x132424, size: 0x8, addend: 0x0, symName: '__ZNSt3__110__function6__funcIZNK13llama_context12graph_get_cbEvE3$_0NS_9allocatorIS3_EEFvRK12llama_ubatchP11ggml_tensorPKciEE18destroy_deallocateEv', symObjAddr: 0xF868, symBinAddr: 0x27758, symSize: 0x4 }
  - { offset: 0x132457, size: 0x8, addend: 0x0, symName: '__ZNSt3__110__function6__funcIZNK13llama_context12graph_get_cbEvE3$_0NS_9allocatorIS3_EEFvRK12llama_ubatchP11ggml_tensorPKciEE18destroy_deallocateEv', symObjAddr: 0xF868, symBinAddr: 0x27758, symSize: 0x4 }
  - { offset: 0x13247A, size: 0x8, addend: 0x0, symName: '__ZNSt3__110__function6__funcIZNK13llama_context12graph_get_cbEvE3$_0NS_9allocatorIS3_EEFvRK12llama_ubatchP11ggml_tensorPKciEE18destroy_deallocateEv', symObjAddr: 0xF868, symBinAddr: 0x27758, symSize: 0x4 }
  - { offset: 0x1324AD, size: 0x8, addend: 0x0, symName: '__ZNSt3__110__function6__funcIZNK13llama_context12graph_get_cbEvE3$_0NS_9allocatorIS3_EEFvRK12llama_ubatchP11ggml_tensorPKciEE18destroy_deallocateEv', symObjAddr: 0xF868, symBinAddr: 0x27758, symSize: 0x4 }
  - { offset: 0x132618, size: 0x8, addend: 0x0, symName: '__ZNSt3__110__function6__funcIZNK13llama_context12graph_get_cbEvE3$_0NS_9allocatorIS3_EEFvRK12llama_ubatchP11ggml_tensorPKciEEclES8_OSA_OSC_Oi', symObjAddr: 0xF86C, symBinAddr: 0x2775C, symSize: 0x128 }
  - { offset: 0x132912, size: 0x8, addend: 0x0, symName: '__ZNKSt3__110__function6__funcIZNK13llama_context12graph_get_cbEvE3$_0NS_9allocatorIS3_EEFvRK12llama_ubatchP11ggml_tensorPKciEE6targetERKSt9type_info', symObjAddr: 0xF994, symBinAddr: 0x27884, symSize: 0x64 }
  - { offset: 0x1329C6, size: 0x8, addend: 0x0, symName: '__ZNKSt3__110__function6__funcIZNK13llama_context12graph_get_cbEvE3$_0NS_9allocatorIS3_EEFvRK12llama_ubatchP11ggml_tensorPKciEE11target_typeEv', symObjAddr: 0xF9F8, symBinAddr: 0x278E8, symSize: 0xC }
  - { offset: 0x134B7A, size: 0x8, addend: 0x0, symName: _llama_max_parallel_sequences, symObjAddr: 0x0, symBinAddr: 0x27A68, symSize: 0x8 }
  - { offset: 0x134B88, size: 0x8, addend: 0x0, symName: _llama_max_parallel_sequences, symObjAddr: 0x0, symBinAddr: 0x27A68, symSize: 0x8 }
  - { offset: 0x134CDE, size: 0x8, addend: 0x0, symName: __ZNK29llama_grammar_trigger_pattern4findERKNSt3__112basic_stringIcNS0_11char_traitsIcEENS0_9allocatorIcEEEE, symObjAddr: 0x0, symBinAddr: 0x27A70, symSize: 0x394 }
  - { offset: 0x15A7B3, size: 0x8, addend: 0x0, symName: __ZNSt3__135__uninitialized_allocator_copy_implB8ne200100INS_9allocatorINS_6vectorI21llama_grammar_elementNS1_IS3_EEEEEEPS5_S7_S7_EET2_RT_T0_T1_S8_, symObjAddr: 0x166D0, symBinAddr: 0x3DC98, symSize: 0xF8 }
  - { offset: 0x15AD25, size: 0x8, addend: 0x0, symName: __ZNSt3__135__uninitialized_allocator_copy_implB8ne200100INS_9allocatorINS_6vectorIPK21llama_grammar_elementNS1_IS5_EEEEEEPS7_S9_S9_EET2_RT_T0_T1_SA_, symObjAddr: 0x168B8, symBinAddr: 0x3DE80, symSize: 0xF8 }
  - { offset: 0x15C245, size: 0x8, addend: 0x0, symName: __ZNSt3__119__throw_regex_errorB8ne200100ILNS_15regex_constants10error_typeE12EEEvv, symObjAddr: 0xC154, symBinAddr: 0x339E8, symSize: 0x4C }
  - { offset: 0x15C26B, size: 0x8, addend: 0x0, symName: __ZNSt3__119__throw_regex_errorB8ne200100ILNS_15regex_constants10error_typeE16EEEvv, symObjAddr: 0xC1A0, symBinAddr: 0x33A34, symSize: 0x4C }
  - { offset: 0x15DC7E, size: 0x8, addend: 0x0, symName: __ZNSt3__134__uninitialized_allocator_relocateB8ne200100INS_9allocatorI29llama_grammar_trigger_patternEEPS2_EEvRT_T0_S7_S7_, symObjAddr: 0xEAA8, symBinAddr: 0x3617C, symSize: 0xF8 }
  - { offset: 0x15DCD9, size: 0x8, addend: 0x0, symName: __ZNSt3__134__uninitialized_allocator_relocateB8ne200100INS_9allocatorI29llama_grammar_trigger_patternEEPS2_EEvRT_T0_S7_S7_, symObjAddr: 0xEAA8, symBinAddr: 0x3617C, symSize: 0xF8 }
  - { offset: 0x15E17B, size: 0x8, addend: 0x0, symName: __ZNSt3__119__throw_regex_errorB8ne200100ILNS_15regex_constants10error_typeE17EEEvv, symObjAddr: 0xEF34, symBinAddr: 0x36608, symSize: 0x4C }
  - { offset: 0x15E8B6, size: 0x8, addend: 0x0, symName: __ZNSt3__119__throw_regex_errorB8ne200100ILNS_15regex_constants10error_typeE14EEEvv, symObjAddr: 0xF7EC, symBinAddr: 0x36EC0, symSize: 0x4C }
  - { offset: 0x15EB9F, size: 0x8, addend: 0x0, symName: __ZNSt3__119__throw_regex_errorB8ne200100ILNS_15regex_constants10error_typeE15EEEvv, symObjAddr: 0x15AB0, symBinAddr: 0x3D100, symSize: 0x4C }
  - { offset: 0x15EF9B, size: 0x8, addend: 0x0, symName: __ZNSt3__119__throw_regex_errorB8ne200100ILNS_15regex_constants10error_typeE6EEEvv, symObjAddr: 0x10438, symBinAddr: 0x37B0C, symSize: 0x4C }
  - { offset: 0x15F14A, size: 0x8, addend: 0x0, symName: __ZNSt3__119__throw_regex_errorB8ne200100ILNS_15regex_constants10error_typeE11EEEvv, symObjAddr: 0x10DB4, symBinAddr: 0x38488, symSize: 0x4C }
  - { offset: 0x15F18E, size: 0x8, addend: 0x0, symName: __ZNSt3__119__throw_regex_errorB8ne200100ILNS_15regex_constants10error_typeE8EEEvv, symObjAddr: 0x154A0, symBinAddr: 0x3CAF0, symSize: 0x4C }
  - { offset: 0x15F1B4, size: 0x8, addend: 0x0, symName: __ZNSt3__119__throw_regex_errorB8ne200100ILNS_15regex_constants10error_typeE7EEEvv, symObjAddr: 0x154EC, symBinAddr: 0x3CB3C, symSize: 0x4C }
  - { offset: 0x15F2E5, size: 0x8, addend: 0x0, symName: __ZNSt3__119__throw_regex_errorB8ne200100ILNS_15regex_constants10error_typeE4EEEvv, symObjAddr: 0x11684, symBinAddr: 0x38D58, symSize: 0x4C }
  - { offset: 0x15F30B, size: 0x8, addend: 0x0, symName: __ZNSt3__119__throw_regex_errorB8ne200100ILNS_15regex_constants10error_typeE3EEEvv, symObjAddr: 0x10F0C, symBinAddr: 0x385E0, symSize: 0x4C }
  - { offset: 0x15F331, size: 0x8, addend: 0x0, symName: __ZNSt3__119__throw_regex_errorB8ne200100ILNS_15regex_constants10error_typeE5EEEvv, symObjAddr: 0x13250, symBinAddr: 0x3A8A0, symSize: 0x4C }
  - { offset: 0x15FF45, size: 0x8, addend: 0x0, symName: __ZNSt3__119__throw_regex_errorB8ne200100ILNS_15regex_constants10error_typeE1EEEvv, symObjAddr: 0x145C8, symBinAddr: 0x3BC18, symSize: 0x4C }
  - { offset: 0x15FF6B, size: 0x8, addend: 0x0, symName: __ZNSt3__119__throw_regex_errorB8ne200100ILNS_15regex_constants10error_typeE2EEEvv, symObjAddr: 0x14BA4, symBinAddr: 0x3C1F4, symSize: 0x4C }
  - { offset: 0x15FFCD, size: 0x8, addend: 0x0, symName: __ZNSt3__119__throw_regex_errorB8ne200100ILNS_15regex_constants10error_typeE9EEEvv, symObjAddr: 0x15168, symBinAddr: 0x3C7B8, symSize: 0x4C }
  - { offset: 0x161DED, size: 0x8, addend: 0x0, symName: __ZL11decode_utf8RKNSt3__112basic_stringIcNS_11char_traitsIcEENS_9allocatorIcEEEE18llama_partial_utf8, symObjAddr: 0x871C, symBinAddr: 0x300E8, symSize: 0x498 }
  - { offset: 0x161E17, size: 0x8, addend: 0x0, symName: __ZZL11decode_utf8RKNSt3__112basic_stringIcNS_11char_traitsIcEENS_9allocatorIcEEEE18llama_partial_utf8E6lookup, symObjAddr: 0x183D0, symBinAddr: 0x2913A0, symSize: 0x0 }
  - { offset: 0x1655B7, size: 0x8, addend: 0x0, symName: __ZNK29llama_grammar_trigger_pattern4findERKNSt3__112basic_stringIcNS0_11char_traitsIcEENS0_9allocatorIcEEEE, symObjAddr: 0x0, symBinAddr: 0x27A70, symSize: 0x394 }
  - { offset: 0x16692A, size: 0x8, addend: 0x0, symName: __ZNKSt3__111basic_regexIcNS_12regex_traitsIcEEE8__searchINS_9allocatorINS_9sub_matchIPKcEEEEEEbS8_S8_RNS_13match_resultsIS8_T_EENS_15regex_constants15match_flag_typeE, symObjAddr: 0xA7EC, symBinAddr: 0x32080, symSize: 0x308 }
  - { offset: 0x166E85, size: 0x8, addend: 0x0, symName: __ZNSt3__113match_resultsINS_11__wrap_iterIPKcEENS_9allocatorINS_9sub_matchIS4_EEEEE8__assignB8ne200100IS3_NS5_INS6_IS3_EEEEEEvS4_S4_RKNS0_IT_T0_EEb, symObjAddr: 0xAAF4, symBinAddr: 0x32388, symSize: 0x168 }
  - { offset: 0x167DDE, size: 0x8, addend: 0x0, symName: __ZN20llama_grammar_parser13get_symbol_idEPKcm, symObjAddr: 0x394, symBinAddr: 0x27E04, symSize: 0x104 }
  - { offset: 0x1682CF, size: 0x8, addend: 0x0, symName: __ZNSt3__16__treeINS_12__value_typeINS_12basic_stringIcNS_11char_traitsIcEENS_9allocatorIcEEEEjEENS_19__map_value_compareIS7_S8_NS_4lessIS7_EELb1EEENS5_IS8_EEE25__emplace_unique_key_argsIS7_JS7_RjEEENS_4pairINS_15__tree_iteratorIS8_PNS_11__tree_nodeIS8_PvEElEEbEERKT_DpOT0_, symObjAddr: 0xDF2C, symBinAddr: 0x357C0, symSize: 0x180 }
  - { offset: 0x1688A2, size: 0x8, addend: 0x0, symName: __ZNKSt3__111basic_regexIcNS_12regex_traitsIcEEE8__searchINS_9allocatorINS_9sub_matchIPKcEEEEEEbS8_S8_RNS_13match_resultsIS8_T_EENS_15regex_constants15match_flag_typeE, symObjAddr: 0xA7EC, symBinAddr: 0x32080, symSize: 0x308 }
  - { offset: 0x1688AD, size: 0x8, addend: 0x0, symName: __ZNSt3__112basic_stringIcNS_11char_traitsIcEENS_9allocatorIcEEEC1B8ne200100EPKcm, symObjAddr: 0x498, symBinAddr: 0x27F08, symSize: 0xA8 }
  - { offset: 0x168AD7, size: 0x8, addend: 0x0, symName: __ZN20llama_grammar_parser18generate_symbol_idERKNSt3__112basic_stringIcNS0_11char_traitsIcEENS0_9allocatorIcEEEE, symObjAddr: 0x540, symBinAddr: 0x27FB0, symSize: 0x200 }
  - { offset: 0x168C50, size: 0x8, addend: 0x0, symName: __ZN20llama_grammar_parser18generate_symbol_idERKNSt3__112basic_stringIcNS0_11char_traitsIcEENS0_9allocatorIcEEEE, symObjAddr: 0x540, symBinAddr: 0x27FB0, symSize: 0x200 }
  - { offset: 0x1696BC, size: 0x8, addend: 0x0, symName: __ZNSt3__16__treeINS_12__value_typeINS_12basic_stringIcNS_11char_traitsIcEENS_9allocatorIcEEEEjEENS_19__map_value_compareIS7_S8_NS_4lessIS7_EELb1EEENS5_IS8_EEE25__emplace_unique_key_argsIS7_JRKNS_21piecewise_construct_tENS_5tupleIJOS7_EEENSJ_IJEEEEEENS_4pairINS_15__tree_iteratorIS8_PNS_11__tree_nodeIS8_PvEElEEbEERKT_DpOT0_, symObjAddr: 0xE258, symBinAddr: 0x35940, symSize: 0x174 }
  - { offset: 0x169F1B, size: 0x8, addend: 0x0, symName: __ZN20llama_grammar_parser8add_ruleEjRKNSt3__16vectorI21llama_grammar_elementNS0_9allocatorIS2_EEEE, symObjAddr: 0x740, symBinAddr: 0x281B0, symSize: 0xE4 }
  - { offset: 0x16A219, size: 0x8, addend: 0x0, symName: __ZNSt3__16vectorINS0_I21llama_grammar_elementNS_9allocatorIS1_EEEENS2_IS4_EEE8__appendEm, symObjAddr: 0xE3CC, symBinAddr: 0x35AB4, symSize: 0x180 }
  - { offset: 0x16A65C, size: 0x8, addend: 0x0, symName: __ZNSt3__16vectorINS0_I21llama_grammar_elementNS_9allocatorIS1_EEEENS2_IS4_EEE20__throw_length_errorB8ne200100Ev, symObjAddr: 0xE54C, symBinAddr: 0x35C34, symSize: 0x14 }
  - { offset: 0x16A667, size: 0x8, addend: 0x0, symName: __ZNSt3__16vectorI21llama_grammar_elementNS_9allocatorIS1_EEE18__assign_with_sizeB8ne200100IPS1_S6_EEvT_T0_l, symObjAddr: 0xE560, symBinAddr: 0x35C48, symSize: 0x148 }
  - { offset: 0x16B051, size: 0x8, addend: 0x0, symName: __ZNSt3__16__treeINS_12__value_typeIjNS_12basic_stringIcNS_11char_traitsIcEENS_9allocatorIcEEEEEENS_19__map_value_compareIjS8_NS_4lessIjEELb1EEENS5_IS8_EEE7destroyEPNS_11__tree_nodeIS8_PvEE, symObjAddr: 0xE6A8, symBinAddr: 0x35D90, symSize: 0x60 }
  - { offset: 0x16B40B, size: 0x8, addend: 0x0, symName: __ZN20llama_grammar_parser16parse_alternatesEPKcRKNSt3__112basic_stringIcNS2_11char_traitsIcEENS2_9allocatorIcEEEEjb, symObjAddr: 0x824, symBinAddr: 0x28294, symSize: 0x34C }
  - { offset: 0x16C240, size: 0x8, addend: 0x0, symName: __ZN20llama_grammar_parser14parse_sequenceEPKcRKNSt3__112basic_stringIcNS2_11char_traitsIcEENS2_9allocatorIcEEEERNS2_6vectorI21llama_grammar_elementNS6_ISC_EEEEb, symObjAddr: 0xB70, symBinAddr: 0x285E0, symSize: 0x1E80 }
  - { offset: 0x16FAE9, size: 0x8, addend: 0x0, symName: __ZNSt3__16vectorI21llama_grammar_elementNS_9allocatorIS1_EEE20__throw_length_errorB8ne200100Ev, symObjAddr: 0x9DB4, symBinAddr: 0x31780, symSize: 0x14 }
  - { offset: 0x16FC8B, size: 0x8, addend: 0x0, symName: __ZL10parse_charPKc, symObjAddr: 0x29F0, symBinAddr: 0x2A460, symSize: 0x288 }
  - { offset: 0x16FF8D, size: 0x8, addend: 0x0, symName: __ZL9parse_intPKc, symObjAddr: 0x35D0, symBinAddr: 0x2AF9C, symSize: 0x124 }
  - { offset: 0x17023B, size: 0x8, addend: 0x0, symName: __ZL10parse_namePKc, symObjAddr: 0x2C78, symBinAddr: 0x2A6E8, symSize: 0x13C }
  - { offset: 0x170507, size: 0x8, addend: 0x0, symName: '__ZZN20llama_grammar_parser14parse_sequenceEPKcRKNSt3__112basic_stringIcNS2_11char_traitsIcEENS2_9allocatorIcEEEERNS2_6vectorI21llama_grammar_elementNS6_ISC_EEEEbENK3$_0clEyy', symObjAddr: 0x2E58, symBinAddr: 0x2A824, symSize: 0x778 }
  - { offset: 0x1725D8, size: 0x8, addend: 0x0, symName: '__ZZN20llama_grammar_parser14parse_sequenceEPKcRKNSt3__112basic_stringIcNS2_11char_traitsIcEENS2_9allocatorIcEEEERNS2_6vectorI21llama_grammar_elementNS6_ISC_EEEEbENK3$_0clEyy', symObjAddr: 0x2E58, symBinAddr: 0x2A824, symSize: 0x778 }
  - { offset: 0x17264D, size: 0x8, addend: 0x0, symName: __ZL9parse_hexPKci, symObjAddr: 0x9B74, symBinAddr: 0x31540, symSize: 0x240 }
  - { offset: 0x173178, size: 0x8, addend: 0x0, symName: __ZNSt3__16vectorI21llama_grammar_elementNS_9allocatorIS1_EEE18__insert_with_sizeB8ne200100INS_11__wrap_iterIPS1_EES8_EES8_NS6_IPKS1_EET_T0_l, symObjAddr: 0x9F84, symBinAddr: 0x318B4, symSize: 0x38C }
  - { offset: 0x173C45, size: 0x8, addend: 0x0, symName: __ZNSt3__16vectorI21llama_grammar_elementNS_9allocatorIS1_EEE8__appendEm, symObjAddr: 0x9E64, symBinAddr: 0x31794, symSize: 0x120 }
  - { offset: 0x17400E, size: 0x8, addend: 0x0, symName: __ZNSt3__16vectorI21llama_grammar_elementNS_9allocatorIS1_EEE18__insert_with_sizeB8ne200100INS_11__wrap_iterIPS1_EES8_EES8_NS6_IPKS1_EET_T0_l, symObjAddr: 0x9F84, symBinAddr: 0x318B4, symSize: 0x38C }
  - { offset: 0x174019, size: 0x8, addend: 0x0, symName: __ZN20llama_grammar_parser10parse_ruleEPKc, symObjAddr: 0x36F4, symBinAddr: 0x2B0C0, symSize: 0x440 }
  - { offset: 0x174B9C, size: 0x8, addend: 0x0, symName: __ZN20llama_grammar_parser5parseEPKc, symObjAddr: 0x3B34, symBinAddr: 0x2B500, symSize: 0x350 }
  - { offset: 0x175A37, size: 0x8, addend: 0x0, symName: __ZN20llama_grammar_parser5printEP7__sFILE, symObjAddr: 0x3E84, symBinAddr: 0x2B850, symSize: 0xA40 }
  - { offset: 0x17742E, size: 0x8, addend: 0x0, symName: __ZNSt3__16__treeINS_12__value_typeIjNS_12basic_stringIcNS_11char_traitsIcEENS_9allocatorIcEEEEEENS_19__map_value_compareIjS8_NS_4lessIjEELb1EEENS5_IS8_EEE7destroyEPNS_11__tree_nodeIS8_PvEE, symObjAddr: 0xE6A8, symBinAddr: 0x35D90, symSize: 0x60 }
  - { offset: 0x177B07, size: 0x8, addend: 0x0, symName: __ZNK20llama_grammar_parser7c_rulesEv, symObjAddr: 0x48C4, symBinAddr: 0x2C290, symSize: 0x1B8 }
  - { offset: 0x178246, size: 0x8, addend: 0x0, symName: __ZNSt3__16vectorIPK21llama_grammar_elementNS_9allocatorIS3_EEE20__throw_length_errorB8ne200100Ev, symObjAddr: 0xE708, symBinAddr: 0x35DF0, symSize: 0x14 }
  - { offset: 0x17825E, size: 0x8, addend: 0x0, symName: __ZNSt3__16vectorI23llama_grammar_candidateNS_9allocatorIS1_EEE20__throw_length_errorB8ne200100Ev, symObjAddr: 0xE71C, symBinAddr: 0x35E04, symSize: 0x14 }
  - { offset: 0x178269, size: 0x8, addend: 0x0, symName: __Z23llama_grammar_get_rulesPK13llama_grammar, symObjAddr: 0x4A7C, symBinAddr: 0x2C448, symSize: 0x8 }
  - { offset: 0x178299, size: 0x8, addend: 0x0, symName: __Z24llama_grammar_get_stacksP13llama_grammar, symObjAddr: 0x4A84, symBinAddr: 0x2C450, symSize: 0x8 }
  - { offset: 0x1785B7, size: 0x8, addend: 0x0, symName: __Z20llama_grammar_acceptP13llama_grammarj, symObjAddr: 0x4A8C, symBinAddr: 0x2C458, symSize: 0x144 }
  - { offset: 0x178B4B, size: 0x8, addend: 0x0, symName: __ZL24llama_grammar_accept_chrR13llama_grammarRKNSt3__16vectorIPK21llama_grammar_elementNS1_9allocatorIS5_EEEEjRNS2_IS8_NS6_IS8_EEEE, symObjAddr: 0x4BD0, symBinAddr: 0x2C59C, symSize: 0x300 }
  - { offset: 0x179573, size: 0x8, addend: 0x0, symName: __ZNSt3__16vectorINS0_IPK21llama_grammar_elementNS_9allocatorIS3_EEEENS4_IS6_EEE20__throw_length_errorB8ne200100Ev, symObjAddr: 0xA564, symBinAddr: 0x31E20, symSize: 0x14 }
  - { offset: 0x17958B, size: 0x8, addend: 0x0, symName: __ZNSt3__110shared_ptrINS_13__empty_stateIcEEED1B8ne200100Ev, symObjAddr: 0xA578, symBinAddr: 0x31E34, symSize: 0x64 }
  - { offset: 0x179596, size: 0x8, addend: 0x0, symName: __ZNSt3__16vectorINS0_IPK21llama_grammar_elementNS_9allocatorIS3_EEEENS4_IS6_EEED1B8ne200100Ev, symObjAddr: 0x4ED0, symBinAddr: 0x2C89C, symSize: 0x74 }
  - { offset: 0x179BEC, size: 0x8, addend: 0x0, symName: __ZL27llama_grammar_advance_stackRKNSt3__16vectorINS0_I21llama_grammar_elementNS_9allocatorIS1_EEEENS2_IS4_EEEERKNS0_IPKS1_NS2_ISA_EEEERNS0_ISC_NS2_ISC_EEEE, symObjAddr: 0x5EF8, symBinAddr: 0x2D8C4, symSize: 0x52C }
  - { offset: 0x17BD59, size: 0x8, addend: 0x0, symName: __Z41llama_grammar_reject_candidates_for_stackRKNSt3__16vectorINS0_I21llama_grammar_elementNS_9allocatorIS1_EEEENS2_IS4_EEEERKNS0_IPKS1_NS2_ISA_EEEERKNS0_I23llama_grammar_candidateNS2_ISF_EEEE, symObjAddr: 0x4F44, symBinAddr: 0x2C910, symSize: 0xFB4 }
  - { offset: 0x17ED8D, size: 0x8, addend: 0x0, symName: __ZL31llama_grammar_reject_candidatesRKNSt3__16vectorINS0_I21llama_grammar_elementNS_9allocatorIS1_EEEENS2_IS4_EEEERKNS0_INS0_IPKS1_NS2_ISA_EEEENS2_ISC_EEEERKNS0_I23llama_grammar_candidateNS2_ISH_EEEE, symObjAddr: 0x6424, symBinAddr: 0x2DDF0, symSize: 0x120 }
  - { offset: 0x17F14D, size: 0x8, addend: 0x0, symName: __ZNSt3__16vectorI23llama_grammar_candidateNS_9allocatorIS1_EEE20__throw_length_errorB8ne200100Ev, symObjAddr: 0xE71C, symBinAddr: 0x35E04, symSize: 0x14 }
  - { offset: 0x17F165, size: 0x8, addend: 0x0, symName: __ZNSt3__128__exception_guard_exceptionsINS_6vectorINS1_I21llama_grammar_elementNS_9allocatorIS2_EEEENS3_IS5_EEE16__destroy_vectorEED1B8ne200100Ev, symObjAddr: 0xE730, symBinAddr: 0x35E18, symSize: 0x84 }
  - { offset: 0x17F486, size: 0x8, addend: 0x0, symName: __ZNSt3__16vectorINS0_IPK21llama_grammar_elementNS_9allocatorIS3_EEEENS4_IS6_EEE24__emplace_back_slow_pathIJRKS6_EEEPS6_DpOT_, symObjAddr: 0xA384, symBinAddr: 0x31C40, symSize: 0x174 }
  - { offset: 0x1803E8, size: 0x8, addend: 0x0, symName: __Z23llama_grammar_init_implPK11llama_vocabPPK21llama_grammar_elementmm, symObjAddr: 0x6544, symBinAddr: 0x2DF10, symSize: 0x688 }
  - { offset: 0x1824EB, size: 0x8, addend: 0x0, symName: __ZL35llama_grammar_detect_left_recursionRKNSt3__16vectorINS0_I21llama_grammar_elementNS_9allocatorIS1_EEEENS2_IS4_EEEEmPNS0_IbNS2_IbEEEESB_SB_, symObjAddr: 0x6BCC, symBinAddr: 0x2E598, symSize: 0x190 }
  - { offset: 0x18285B, size: 0x8, addend: 0x0, symName: __ZNSt3__16vectorINS0_I21llama_grammar_elementNS_9allocatorIS1_EEEENS2_IS4_EEE20__throw_length_errorB8ne200100Ev, symObjAddr: 0xE54C, symBinAddr: 0x35C34, symSize: 0x14 }
  - { offset: 0x182873, size: 0x8, addend: 0x0, symName: __ZNSt3__16vectorI21llama_grammar_elementNS_9allocatorIS1_EEE18__assign_with_sizeB8ne200100IPS1_S6_EEvT_T0_l, symObjAddr: 0xE560, symBinAddr: 0x35C48, symSize: 0x148 }
  - { offset: 0x18287E, size: 0x8, addend: 0x0, symName: __ZNSt3__16vectorINS0_I21llama_grammar_elementNS_9allocatorIS1_EEEENS2_IS4_EEED1B8ne200100Ev, symObjAddr: 0x6D5C, symBinAddr: 0x2E728, symSize: 0x74 }
  - { offset: 0x182AFD, size: 0x8, addend: 0x0, symName: __ZNSt3__128__exception_guard_exceptionsINS_6vectorINS1_I21llama_grammar_elementNS_9allocatorIS2_EEEENS3_IS5_EEE16__destroy_vectorEED1B8ne200100Ev, symObjAddr: 0xE730, symBinAddr: 0x35E18, symSize: 0x84 }
  - { offset: 0x183B2F, size: 0x8, addend: 0x0, symName: __Z23llama_grammar_init_implPK11llama_vocabPKcS3_bPS3_mPKim, symObjAddr: 0x6DD0, symBinAddr: 0x2E79C, symSize: 0xD4C }
  - { offset: 0x1878E0, size: 0x8, addend: 0x0, symName: __ZNSt3__16__treeINS_12__value_typeINS_12basic_stringIcNS_11char_traitsIcEENS_9allocatorIcEEEEjEENS_19__map_value_compareIS7_S8_NS_4lessIS7_EELb1EEENS5_IS8_EEE7destroyEPNS_11__tree_nodeIS8_PvEE, symObjAddr: 0xA5DC, symBinAddr: 0x31E98, symSize: 0x60 }
  - { offset: 0x187B24, size: 0x8, addend: 0x0, symName: __ZNSt3__16vectorI29llama_grammar_trigger_patternNS_9allocatorIS1_EEE24__emplace_back_slow_pathIJEEEPS1_DpOT_, symObjAddr: 0xE7C8, symBinAddr: 0x35E9C, symSize: 0x1B0 }
  - { offset: 0x18804E, size: 0x8, addend: 0x0, symName: __ZNSt3__111basic_regexIcNS_12regex_traitsIcEEEC2B8ne200100INS_11char_traitsIcEENS_9allocatorIcEEEERKNS_12basic_stringIcT_T0_EENS_15regex_constants18syntax_option_typeE, symObjAddr: 0xEC58, symBinAddr: 0x3632C, symSize: 0xD4 }
  - { offset: 0x188220, size: 0x8, addend: 0x0, symName: __ZNSt3__16vectorI29llama_grammar_trigger_patternNS_9allocatorIS1_EEE24__emplace_back_slow_pathIJEEEPS1_DpOT_, symObjAddr: 0xE7C8, symBinAddr: 0x35E9C, symSize: 0x1B0 }
  - { offset: 0x18822B, size: 0x8, addend: 0x0, symName: __ZN20llama_grammar_parserD1Ev, symObjAddr: 0x7C40, symBinAddr: 0x2F60C, symSize: 0x80 }
  - { offset: 0x188548, size: 0x8, addend: 0x0, symName: __ZNSt3__16vectorI29llama_grammar_trigger_patternNS_9allocatorIS1_EEED1B8ne200100Ev, symObjAddr: 0x7B80, symBinAddr: 0x2F54C, symSize: 0xC0 }
  - { offset: 0x1888D7, size: 0x8, addend: 0x0, symName: __ZNSt3__111basic_regexIcNS_12regex_traitsIcEEED1Ev, symObjAddr: 0x7B1C, symBinAddr: 0x2F4E8, symSize: 0x64 }
  - { offset: 0x188C1D, size: 0x8, addend: 0x0, symName: __Z23llama_grammar_free_implP13llama_grammar, symObjAddr: 0x7CC0, symBinAddr: 0x2F68C, symSize: 0x1C }
  - { offset: 0x188C72, size: 0x8, addend: 0x0, symName: __ZN13llama_grammarD2Ev, symObjAddr: 0xA63C, symBinAddr: 0x31EF8, symSize: 0x188 }
  - { offset: 0x18A141, size: 0x8, addend: 0x0, symName: __Z24llama_grammar_clone_implRK13llama_grammar, symObjAddr: 0x7CDC, symBinAddr: 0x2F6A8, symSize: 0x4D8 }
  - { offset: 0x18B1FC, size: 0x8, addend: 0x0, symName: __ZNSt3__135__uninitialized_allocator_copy_implB8ne200100INS_9allocatorINS_6vectorI21llama_grammar_elementNS1_IS3_EEEEEEPS5_S7_S7_EET2_RT_T0_T1_S8_, symObjAddr: 0x166D0, symBinAddr: 0x3DC98, symSize: 0xF8 }
  - { offset: 0x18B207, size: 0x8, addend: 0x0, symName: __ZNSt3__16vectorI29llama_grammar_trigger_patternNS_9allocatorIS1_EEE18__construct_at_endIPS1_S6_EEvT_T0_m, symObjAddr: 0x16A30, symBinAddr: 0x3DFF8, symSize: 0x114 }
  - { offset: 0x18B611, size: 0x8, addend: 0x0, symName: __ZNSt3__16vectorINS_4pairIiNS1_ImmEEEENS_9allocatorIS3_EEE20__throw_length_errorB8ne200100Ev, symObjAddr: 0x16A1C, symBinAddr: 0x3DFE4, symSize: 0x14 }
  - { offset: 0x18B629, size: 0x8, addend: 0x0, symName: __ZNSt3__16vectorI29llama_grammar_trigger_patternNS_9allocatorIS1_EEE18__construct_at_endIPS1_S6_EEvT_T0_m, symObjAddr: 0x16A30, symBinAddr: 0x3DFF8, symSize: 0x114 }
  - { offset: 0x18B634, size: 0x8, addend: 0x0, symName: __ZNSt3__16vectorI29llama_grammar_trigger_patternNS_9allocatorIS1_EEE20__throw_length_errorB8ne200100Ev, symObjAddr: 0xEA94, symBinAddr: 0x36168, symSize: 0x14 }
  - { offset: 0x18B64C, size: 0x8, addend: 0x0, symName: __ZNSt3__134__uninitialized_allocator_relocateB8ne200100INS_9allocatorI29llama_grammar_trigger_patternEEPS2_EEvRT_T0_S7_S7_, symObjAddr: 0xEAA8, symBinAddr: 0x3617C, symSize: 0xF8 }
  - { offset: 0x18B657, size: 0x8, addend: 0x0, symName: __ZNSt3__128__exception_guard_exceptionsINS_6vectorINS1_IPK21llama_grammar_elementNS_9allocatorIS4_EEEENS5_IS7_EEE16__destroy_vectorEED1B8ne200100Ev, symObjAddr: 0x16834, symBinAddr: 0x3DDFC, symSize: 0x84 }
  - { offset: 0x18B8E4, size: 0x8, addend: 0x0, symName: __ZNSt3__128__exception_guard_exceptionsINS_6vectorI29llama_grammar_trigger_patternNS_9allocatorIS2_EEE16__destroy_vectorEED1B8ne200100Ev, symObjAddr: 0x16B44, symBinAddr: 0x3E10C, symSize: 0xD8 }
  - { offset: 0x18C378, size: 0x8, addend: 0x0, symName: __Z24llama_grammar_apply_implRK13llama_grammarP22llama_token_data_array, symObjAddr: 0x81B4, symBinAddr: 0x2FB80, symSize: 0x568 }
  - { offset: 0x18D913, size: 0x8, addend: 0x0, symName: __ZNSt3__16vectorINS_4pairINS0_IjNS_9allocatorIjEEEE18llama_partial_utf8EENS2_IS6_EEE20__throw_length_errorB8ne200100Ev, symObjAddr: 0x16C1C, symBinAddr: 0x3E1E4, symSize: 0x14 }
  - { offset: 0x18D92B, size: 0x8, addend: 0x0, symName: __ZNSt3__16vectorINS0_IPK21llama_grammar_elementNS_9allocatorIS3_EEEENS4_IS6_EEE24__emplace_back_slow_pathIJRS6_EEEPS6_DpOT_, symObjAddr: 0x16C30, symBinAddr: 0x3E1F8, symSize: 0x174 }
  - { offset: 0x18D936, size: 0x8, addend: 0x0, symName: __ZNSt3__16vectorINS_4pairINS0_IjNS_9allocatorIjEEEE18llama_partial_utf8EENS2_IS6_EEED1B8ne200100Ev, symObjAddr: 0x8BB4, symBinAddr: 0x30580, symSize: 0x74 }
  - { offset: 0x18E3A2, size: 0x8, addend: 0x0, symName: __Z25llama_grammar_accept_implR13llama_grammari, symObjAddr: 0x8C28, symBinAddr: 0x305F4, symSize: 0x468 }
  - { offset: 0x18F592, size: 0x8, addend: 0x0, symName: __ZNSt3__16vectorINS_4pairIiNS1_ImmEEEENS_9allocatorIS3_EEE9push_backB8ne200100EOS3_, symObjAddr: 0x9900, symBinAddr: 0x312CC, symSize: 0x134 }
  - { offset: 0x18F974, size: 0x8, addend: 0x0, symName: __Z24llama_grammar_accept_strR13llama_grammarRKNSt3__112basic_stringIcNS1_11char_traitsIcEENS1_9allocatorIcEEEE, symObjAddr: 0x9A34, symBinAddr: 0x31400, symSize: 0x140 }
  - { offset: 0x18F97F, size: 0x8, addend: 0x0, symName: __Z26llama_grammar_accept_tokenR13llama_grammariRKNSt3__112basic_stringIcNS1_11char_traitsIcEENS1_9allocatorIcEEEE, symObjAddr: 0x9090, symBinAddr: 0x30A5C, symSize: 0x870 }
  - { offset: 0x19283B, size: 0x8, addend: 0x0, symName: __ZNSt3__14pairINS_12basic_stringIcNS_11char_traitsIcEENS_9allocatorIcEEEES6_ED1Ev, symObjAddr: 0x12BAC, symBinAddr: 0x3A1FC, symSize: 0x58 }
  - { offset: 0x192B42, size: 0x8, addend: 0x0, symName: __ZNSt3__16vectorINS0_IPK21llama_grammar_elementNS_9allocatorIS3_EEEENS4_IS6_EEE24__emplace_back_slow_pathIJRS6_EEEPS6_DpOT_, symObjAddr: 0x16C30, symBinAddr: 0x3E1F8, symSize: 0x174 }
  - { offset: 0x193307, size: 0x8, addend: 0x0, symName: __ZNSt3__128__exception_guard_exceptionsINS_29_AllocatorDestroyRangeReverseINS_9allocatorINS_6vectorIPK21llama_grammar_elementNS2_IS6_EEEEEEPS8_EEED1B8ne200100Ev, symObjAddr: 0x169B0, symBinAddr: 0x3DF78, symSize: 0x6C }
  - { offset: 0x1937A9, size: 0x8, addend: 0x0, symName: __Z24llama_grammar_accept_strR13llama_grammarRKNSt3__112basic_stringIcNS1_11char_traitsIcEENS1_9allocatorIcEEEE, symObjAddr: 0x9A34, symBinAddr: 0x31400, symSize: 0x140 }
  - { offset: 0x19405D, size: 0x8, addend: 0x0, symName: __ZNSt3__114__split_bufferINS_6vectorIPK21llama_grammar_elementNS_9allocatorIS4_EEEERNS5_IS7_EEED1Ev, symObjAddr: 0xA4F8, symBinAddr: 0x31DB4, symSize: 0x6C }
  - { offset: 0x1942EC, size: 0x8, addend: 0x0, symName: __ZNSt3__110shared_ptrINS_13__empty_stateIcEEED1B8ne200100Ev, symObjAddr: 0xA578, symBinAddr: 0x31E34, symSize: 0x64 }
  - { offset: 0x19466C, size: 0x8, addend: 0x0, symName: __ZNSt3__16vectorINS_9sub_matchIPKcEENS_9allocatorIS4_EEE6assignEmRKS4_, symObjAddr: 0xAC5C, symBinAddr: 0x324F0, symSize: 0x1D4 }
  - { offset: 0x194BC9, size: 0x8, addend: 0x0, symName: __ZNKSt3__111basic_regexIcNS_12regex_traitsIcEEE21__match_at_start_ecmaINS_9allocatorINS_9sub_matchIPKcEEEEEEbS8_S8_RNS_13match_resultsIS8_T_EENS_15regex_constants15match_flag_typeEb, symObjAddr: 0xAE30, symBinAddr: 0x326C4, symSize: 0x474 }
  - { offset: 0x194BD4, size: 0x8, addend: 0x0, symName: __ZNKSt3__111basic_regexIcNS_12regex_traitsIcEEE27__match_at_start_posix_subsINS_9allocatorINS_9sub_matchIPKcEEEEEEbS8_S8_RNS_13match_resultsIS8_T_EENS_15regex_constants15match_flag_typeEb, symObjAddr: 0xBB58, symBinAddr: 0x333EC, symSize: 0x5BC }
  - { offset: 0x19686E, size: 0x8, addend: 0x0, symName: __ZNKSt3__111basic_regexIcNS_12regex_traitsIcEEE21__match_at_start_ecmaINS_9allocatorINS_9sub_matchIPKcEEEEEEbS8_S8_RNS_13match_resultsIS8_T_EENS_15regex_constants15match_flag_typeEb, symObjAddr: 0xAE30, symBinAddr: 0x326C4, symSize: 0x474 }
  - { offset: 0x1979E1, size: 0x8, addend: 0x0, symName: __ZNKSt3__111basic_regexIcNS_12regex_traitsIcEEE29__match_at_start_posix_nosubsINS_9allocatorINS_9sub_matchIPKcEEEEEEbS8_S8_RNS_13match_resultsIS8_T_EENS_15regex_constants15match_flag_typeEb, symObjAddr: 0xB2A4, symBinAddr: 0x32B38, symSize: 0x8B4 }
  - { offset: 0x1997CF, size: 0x8, addend: 0x0, symName: __ZNSt3__16vectorINS_9sub_matchINS_11__wrap_iterIPKcEEEENS_9allocatorIS6_EEE8__appendEm, symObjAddr: 0xDD78, symBinAddr: 0x3560C, symSize: 0x1A0 }
  - { offset: 0x199D0E, size: 0x8, addend: 0x0, symName: __ZNSt3__16vectorINS_9sub_matchINS_11__wrap_iterIPKcEEEENS_9allocatorIS6_EEE20__throw_length_errorB8ne200100Ev, symObjAddr: 0xDF18, symBinAddr: 0x357AC, symSize: 0x14 }
  - { offset: 0x199F6D, size: 0x8, addend: 0x0, symName: __ZNSt3__16vectorINS_9sub_matchIPKcEENS_9allocatorIS4_EEE20__throw_length_errorB8ne200100Ev, symObjAddr: 0xC744, symBinAddr: 0x33FD8, symSize: 0x14 }
  - { offset: 0x199F85, size: 0x8, addend: 0x0, symName: __ZNSt3__16vectorINS_4pairImPKcEENS_9allocatorIS4_EEE8__appendEm, symObjAddr: 0xC758, symBinAddr: 0x33FEC, symSize: 0x120 }
  - { offset: 0x19A69C, size: 0x8, addend: 0x0, symName: __ZNSt3__16vectorINS_7__stateIcEENS_9allocatorIS2_EEE24__emplace_back_slow_pathIJS2_EEEPS2_DpOT_, symObjAddr: 0xC26C, symBinAddr: 0x33B00, symSize: 0x17C }
  - { offset: 0x19AD28, size: 0x8, addend: 0x0, symName: __ZNSt3__16vectorINS_9sub_matchIPKcEENS_9allocatorIS4_EEE8__appendEmRKS4_, symObjAddr: 0xC594, symBinAddr: 0x33E28, symSize: 0x1B0 }
  - { offset: 0x19B22F, size: 0x8, addend: 0x0, symName: __ZNSt3__16vectorINS_9sub_matchIPKcEENS_9allocatorIS4_EEE20__throw_length_errorB8ne200100Ev, symObjAddr: 0xC744, symBinAddr: 0x33FD8, symSize: 0x14 }
  - { offset: 0x19B23A, size: 0x8, addend: 0x0, symName: __ZNSt3__16vectorINS_4pairImPKcEENS_9allocatorIS4_EEE8__appendEm, symObjAddr: 0xC758, symBinAddr: 0x33FEC, symSize: 0x120 }
  - { offset: 0x19B66E, size: 0x8, addend: 0x0, symName: __ZNSt3__16vectorINS_4pairImPKcEENS_9allocatorIS4_EEE20__throw_length_errorB8ne200100Ev, symObjAddr: 0xC878, symBinAddr: 0x3410C, symSize: 0x14 }
  - { offset: 0x19B679, size: 0x8, addend: 0x0, symName: __ZNSt3__17__stateIcEC2ERKS1_, symObjAddr: 0xC88C, symBinAddr: 0x34120, symSize: 0x16C }
  - { offset: 0x19BCBB, size: 0x8, addend: 0x0, symName: __ZNSt3__16vectorINS_7__stateIcEENS_9allocatorIS2_EEED1B8ne200100Ev, symObjAddr: 0xC1EC, symBinAddr: 0x33A80, symSize: 0x80 }
  - { offset: 0x19C0AA, size: 0x8, addend: 0x0, symName: __ZNSt3__17__stateIcED1Ev, symObjAddr: 0xC114, symBinAddr: 0x339A8, symSize: 0x40 }
  - { offset: 0x19C78F, size: 0x8, addend: 0x0, symName: __ZNSt3__15dequeINS_7__stateIcEENS_9allocatorIS2_EEE19__add_back_capacityEv, symObjAddr: 0xCBC8, symBinAddr: 0x3445C, symSize: 0x35C }
  - { offset: 0x19D3D0, size: 0x8, addend: 0x0, symName: __ZNSt3__15dequeINS_7__stateIcEENS_9allocatorIS2_EEE20__add_front_capacityEv, symObjAddr: 0xD3A4, symBinAddr: 0x34C38, symSize: 0x380 }
  - { offset: 0x19E10B, size: 0x8, addend: 0x0, symName: __ZNSt3__15dequeINS_7__stateIcEENS_9allocatorIS2_EEED1B8ne200100Ev, symObjAddr: 0xCB54, symBinAddr: 0x343E8, symSize: 0x74 }
  - { offset: 0x19E457, size: 0x8, addend: 0x0, symName: __ZNSt3__16vectorINS_9sub_matchIPKcEENS_9allocatorIS4_EEE18__assign_with_sizeB8ne200100IPS4_S9_EEvT_T0_l, symObjAddr: 0xD8AC, symBinAddr: 0x35140, symSize: 0x200 }
  - { offset: 0x19EBE3, size: 0x8, addend: 0x0, symName: __ZNSt3__16vectorINS_4pairImPKcEENS_9allocatorIS4_EEE18__assign_with_sizeB8ne200100IPS4_S9_EEvT_T0_l, symObjAddr: 0xDAAC, symBinAddr: 0x35340, symSize: 0x2CC }
  - { offset: 0x19EC00, size: 0x8, addend: 0x0, symName: __ZNSt3__16vectorINS_4pairImPKcEENS_9allocatorIS4_EEE18__assign_with_sizeB8ne200100IPS4_S9_EEvT_T0_l, symObjAddr: 0xDAAC, symBinAddr: 0x35340, symSize: 0x2CC }
  - { offset: 0x19F349, size: 0x8, addend: 0x0, symName: __ZNSt3__16vectorINS_9sub_matchINS_11__wrap_iterIPKcEEEENS_9allocatorIS6_EEE8__appendEm, symObjAddr: 0xDD78, symBinAddr: 0x3560C, symSize: 0x1A0 }
  - { offset: 0x19F4F9, size: 0x8, addend: 0x0, symName: __ZNSt3__16vectorINS_7__stateIcEENS_9allocatorIS2_EEE26__swap_out_circular_bufferERNS_14__split_bufferIS2_RS4_EE, symObjAddr: 0xC3E8, symBinAddr: 0x33C7C, symSize: 0x124 }
  - { offset: 0x19FA66, size: 0x8, addend: 0x0, symName: __ZNSt3__16vectorINS_7__stateIcEENS_9allocatorIS2_EEE20__throw_length_errorB8ne200100Ev, symObjAddr: 0xC580, symBinAddr: 0x33E14, symSize: 0x14 }
  - { offset: 0x19FA7E, size: 0x8, addend: 0x0, symName: __ZNSt3__16vectorINS_9sub_matchIPKcEENS_9allocatorIS4_EEE8__appendEmRKS4_, symObjAddr: 0xC594, symBinAddr: 0x33E28, symSize: 0x1B0 }
  - { offset: 0x19FA89, size: 0x8, addend: 0x0, symName: __ZNSt3__114__split_bufferINS_7__stateIcEERNS_9allocatorIS2_EEED1Ev, symObjAddr: 0xC50C, symBinAddr: 0x33DA0, symSize: 0x74 }
  - { offset: 0x1A036D, size: 0x8, addend: 0x0, symName: __ZNSt3__16vectorINS_4pairImPKcEENS_9allocatorIS4_EEE20__throw_length_errorB8ne200100Ev, symObjAddr: 0xC878, symBinAddr: 0x3410C, symSize: 0x14 }
  - { offset: 0x1A0385, size: 0x8, addend: 0x0, symName: __ZNSt3__17__stateIcEC2ERKS1_, symObjAddr: 0xC88C, symBinAddr: 0x34120, symSize: 0x16C }
  - { offset: 0x1A0788, size: 0x8, addend: 0x0, symName: __ZNSt3__15dequeINS_7__stateIcEENS_9allocatorIS2_EEE5clearEv, symObjAddr: 0xC9F8, symBinAddr: 0x3428C, symSize: 0x15C }
  - { offset: 0x1A1123, size: 0x8, addend: 0x0, symName: __ZNSt3__114__split_bufferIPNS_7__stateIcEENS_9allocatorIS3_EEE12emplace_backIJRS3_EEEvDpOT_, symObjAddr: 0xCF24, symBinAddr: 0x347B8, symSize: 0x17C }
  - { offset: 0x1A157E, size: 0x8, addend: 0x0, symName: __ZNSt3__114__split_bufferIPNS_7__stateIcEENS_9allocatorIS3_EEE12emplace_backIJS3_EEEvDpOT_, symObjAddr: 0xD0A0, symBinAddr: 0x34934, symSize: 0x17C }
  - { offset: 0x1A1594, size: 0x8, addend: 0x0, symName: __ZNSt3__114__split_bufferIPNS_7__stateIcEENS_9allocatorIS3_EEE12emplace_backIJS3_EEEvDpOT_, symObjAddr: 0xD0A0, symBinAddr: 0x34934, symSize: 0x17C }
  - { offset: 0x1A19EF, size: 0x8, addend: 0x0, symName: __ZNSt3__114__split_bufferIPNS_7__stateIcEENS_9allocatorIS3_EEE13emplace_frontIJS3_EEEvDpOT_, symObjAddr: 0xD21C, symBinAddr: 0x34AB0, symSize: 0x188 }
  - { offset: 0x1A1A05, size: 0x8, addend: 0x0, symName: __ZNSt3__114__split_bufferIPNS_7__stateIcEENS_9allocatorIS3_EEE13emplace_frontIJS3_EEEvDpOT_, symObjAddr: 0xD21C, symBinAddr: 0x34AB0, symSize: 0x188 }
  - { offset: 0x1A1E82, size: 0x8, addend: 0x0, symName: __ZNSt3__15dequeINS_7__stateIcEENS_9allocatorIS2_EEE20__add_front_capacityEv, symObjAddr: 0xD3A4, symBinAddr: 0x34C38, symSize: 0x380 }
  - { offset: 0x1A1F62, size: 0x8, addend: 0x0, symName: __ZNSt3__114__split_bufferIPNS_7__stateIcEENS_9allocatorIS3_EEE13emplace_frontIJRS3_EEEvDpOT_, symObjAddr: 0xD724, symBinAddr: 0x34FB8, symSize: 0x188 }
  - { offset: 0x1A23DF, size: 0x8, addend: 0x0, symName: __ZNSt3__16vectorINS_9sub_matchIPKcEENS_9allocatorIS4_EEE18__assign_with_sizeB8ne200100IPS4_S9_EEvT_T0_l, symObjAddr: 0xD8AC, symBinAddr: 0x35140, symSize: 0x200 }
  - { offset: 0x1A2873, size: 0x8, addend: 0x0, symName: __ZNSt3__16vectorINS_9sub_matchINS_11__wrap_iterIPKcEEEENS_9allocatorIS6_EEE20__throw_length_errorB8ne200100Ev, symObjAddr: 0xDF18, symBinAddr: 0x357AC, symSize: 0x14 }
  - { offset: 0x1A288B, size: 0x8, addend: 0x0, symName: __ZNSt3__16__treeINS_12__value_typeINS_12basic_stringIcNS_11char_traitsIcEENS_9allocatorIcEEEEjEENS_19__map_value_compareIS7_S8_NS_4lessIS7_EELb1EEENS5_IS8_EEE25__emplace_unique_key_argsIS7_JS7_RjEEENS_4pairINS_15__tree_iteratorIS8_PNS_11__tree_nodeIS8_PvEElEEbEERKT_DpOT0_, symObjAddr: 0xDF2C, symBinAddr: 0x357C0, symSize: 0x180 }
  - { offset: 0x1A3101, size: 0x8, addend: 0x0, symName: __ZNSt3__114__split_bufferI29llama_grammar_trigger_patternRNS_9allocatorIS1_EEED1Ev, symObjAddr: 0xE9E4, symBinAddr: 0x360B8, symSize: 0xB0 }
  - { offset: 0x1A3459, size: 0x8, addend: 0x0, symName: __ZNSt3__111basic_regexIcNS_12regex_traitsIcEEEC1B8ne200100Ev, symObjAddr: 0xE978, symBinAddr: 0x3604C, symSize: 0x6C }
  - { offset: 0x1A370A, size: 0x8, addend: 0x0, symName: __ZNSt3__128__exception_guard_exceptionsINS_29_AllocatorDestroyRangeReverseINS_9allocatorI29llama_grammar_trigger_patternEEPS3_EEED1B8ne200100Ev, symObjAddr: 0xEBA0, symBinAddr: 0x36274, symSize: 0xB8 }
  - { offset: 0x1A3A23, size: 0x8, addend: 0x0, symName: __ZNSt3__111basic_regexIcNS_12regex_traitsIcEEE7__parseINS_11__wrap_iterIPKcEEEET_S9_S9_, symObjAddr: 0xED2C, symBinAddr: 0x36400, symSize: 0x208 }
  - { offset: 0x1A43A6, size: 0x8, addend: 0x0, symName: __ZNSt3__111basic_regexIcNS_12regex_traitsIcEEE13__parse_egrepINS_11__wrap_iterIPKcEEEET_S9_S9_, symObjAddr: 0xF64C, symBinAddr: 0x36D20, symSize: 0x1A0 }
  - { offset: 0x1A492B, size: 0x8, addend: 0x0, symName: __ZNSt3__111basic_regexIcNS_12regex_traitsIcEEE24__parse_extended_reg_expINS_11__wrap_iterIPKcEEEET_S9_S9_, symObjAddr: 0xF348, symBinAddr: 0x36A1C, symSize: 0x164 }
  - { offset: 0x1A4C60, size: 0x8, addend: 0x0, symName: __ZNSt3__111basic_regexIcNS_12regex_traitsIcEEE12__parse_grepINS_11__wrap_iterIPKcEEEET_S9_S9_, symObjAddr: 0xF4AC, symBinAddr: 0x36B80, symSize: 0x1A0 }
  - { offset: 0x1A4C74, size: 0x8, addend: 0x0, symName: __ZNSt3__111basic_regexIcNS_12regex_traitsIcEEE21__parse_basic_reg_expINS_11__wrap_iterIPKcEEEET_S9_S9_, symObjAddr: 0xF1C8, symBinAddr: 0x3689C, symSize: 0x180 }
  - { offset: 0x1A4F95, size: 0x8, addend: 0x0, symName: __ZNSt3__111basic_regexIcNS_12regex_traitsIcEEE24__parse_extended_reg_expINS_11__wrap_iterIPKcEEEET_S9_S9_, symObjAddr: 0xF348, symBinAddr: 0x36A1C, symSize: 0x164 }
  - { offset: 0x1A4FA9, size: 0x8, addend: 0x0, symName: __ZNSt3__111basic_regexIcNS_12regex_traitsIcEEE12__parse_grepINS_11__wrap_iterIPKcEEEET_S9_S9_, symObjAddr: 0xF4AC, symBinAddr: 0x36B80, symSize: 0x1A0 }
  - { offset: 0x1A552E, size: 0x8, addend: 0x0, symName: __ZNSt3__111basic_regexIcNS_12regex_traitsIcEEE16__parse_ecma_expINS_11__wrap_iterIPKcEEEET_S9_S9_, symObjAddr: 0xEF80, symBinAddr: 0x36654, symSize: 0x248 }
  - { offset: 0x1A5CE7, size: 0x8, addend: 0x0, symName: __ZNSt3__111basic_regexIcNS_12regex_traitsIcEEE17__parse_assertionINS_11__wrap_iterIPKcEEEET_S9_S9_, symObjAddr: 0xFA30, symBinAddr: 0x37104, symSize: 0x30C }
  - { offset: 0x1A61FF, size: 0x8, addend: 0x0, symName: __ZNSt3__111basic_regexIcNS_12regex_traitsIcEEE12__parse_atomINS_11__wrap_iterIPKcEEEET_S9_S9_, symObjAddr: 0xFD3C, symBinAddr: 0x37410, symSize: 0x268 }
  - { offset: 0x1A656C, size: 0x8, addend: 0x0, symName: __ZNSt3__111basic_regexIcNS_12regex_traitsIcEEE23__parse_ERE_dupl_symbolINS_11__wrap_iterIPKcEEEET_S9_S9_PNS_16__owns_one_stateIcEEjj, symObjAddr: 0xFFA4, symBinAddr: 0x37678, symSize: 0x378 }
  - { offset: 0x1A6580, size: 0x8, addend: 0x0, symName: __ZNSt3__111basic_regexIcNS_12regex_traitsIcEEE23__parse_ERE_dupl_symbolINS_11__wrap_iterIPKcEEEET_S9_S9_PNS_16__owns_one_stateIcEEjj, symObjAddr: 0xFFA4, symBinAddr: 0x37678, symSize: 0x378 }
  - { offset: 0x1A6B9C, size: 0x8, addend: 0x0, symName: __ZNSt3__111basic_regexIcNS_12regex_traitsIcEEE20__push_word_boundaryEb, symObjAddr: 0x1031C, symBinAddr: 0x379F0, symSize: 0x6C }
  - { offset: 0x1A6D9A, size: 0x8, addend: 0x0, symName: __ZNSt3__111basic_regexIcNS_12regex_traitsIcEEE18__parse_nondupl_REINS_11__wrap_iterIPKcEEEET_S9_S9_, symObjAddr: 0x15AFC, symBinAddr: 0x3D14C, symSize: 0x20C }
  - { offset: 0x1A7256, size: 0x8, addend: 0x0, symName: __ZNSt3__111basic_regexIcNS_12regex_traitsIcEEE22__parse_RE_dupl_symbolINS_11__wrap_iterIPKcEEEET_S9_S9_PNS_16__owns_one_stateIcEEjj, symObjAddr: 0x15D08, symBinAddr: 0x3D358, symSize: 0x274 }
  - { offset: 0x1A726A, size: 0x8, addend: 0x0, symName: __ZNSt3__111basic_regexIcNS_12regex_traitsIcEEE22__parse_RE_dupl_symbolINS_11__wrap_iterIPKcEEEET_S9_S9_PNS_16__owns_one_stateIcEEjj, symObjAddr: 0x15D08, symBinAddr: 0x3D358, symSize: 0x274 }
  - { offset: 0x1A775E, size: 0x8, addend: 0x0, symName: __ZNSt3__111basic_regexIcNS_12regex_traitsIcEEE32__parse_one_char_or_coll_elem_REINS_11__wrap_iterIPKcEEEET_S9_S9_, symObjAddr: 0x15F7C, symBinAddr: 0x3D5CC, symSize: 0x18C }
  - { offset: 0x1A77B5, size: 0x8, addend: 0x0, symName: __ZNSt3__111basic_regexIcNS_12regex_traitsIcEEE22__parse_ERE_expressionINS_11__wrap_iterIPKcEEEET_S9_S9_, symObjAddr: 0x16238, symBinAddr: 0x3D888, symSize: 0x1F0 }
  - { offset: 0x1A7B5E, size: 0x8, addend: 0x0, symName: __ZNSt3__111basic_regexIcNS_12regex_traitsIcEEE33__parse_one_char_or_coll_elem_EREINS_11__wrap_iterIPKcEEEET_S9_S9_, symObjAddr: 0x16428, symBinAddr: 0x3DA78, symSize: 0x158 }
  - { offset: 0x1A7B8E, size: 0x8, addend: 0x0, symName: __ZNSt3__111__end_stateIcED1Ev, symObjAddr: 0xF838, symBinAddr: 0x36F0C, symSize: 0x4 }
  - { offset: 0x1A7BBA, size: 0x8, addend: 0x0, symName: __ZNSt3__111__end_stateIcED0Ev, symObjAddr: 0xF83C, symBinAddr: 0x36F10, symSize: 0x4 }
  - { offset: 0x1A7BDA, size: 0x8, addend: 0x0, symName: __ZNKSt3__111__end_stateIcE6__execERNS_7__stateIcEE, symObjAddr: 0xF840, symBinAddr: 0x36F14, symSize: 0xC }
  - { offset: 0x1A7C0D, size: 0x8, addend: 0x0, symName: __ZNKSt3__16__nodeIcE12__exec_splitEbRNS_7__stateIcEE, symObjAddr: 0xF84C, symBinAddr: 0x36F20, symSize: 0x4 }
  - { offset: 0x1A7C4D, size: 0x8, addend: 0x0, symName: __ZNKSt3__16__nodeIcE6__execERNS_7__stateIcEE, symObjAddr: 0xF850, symBinAddr: 0x36F24, symSize: 0x4 }
  - { offset: 0x1A7C99, size: 0x8, addend: 0x0, symName: __ZNSt3__120__shared_ptr_pointerIPNS_13__empty_stateIcEENS_10shared_ptrIS2_E27__shared_ptr_default_deleteIS2_S2_EENS_9allocatorIS2_EEED1Ev, symObjAddr: 0xF854, symBinAddr: 0x36F28, symSize: 0x4 }
  - { offset: 0x1A7CBB, size: 0x8, addend: 0x0, symName: __ZNSt3__120__shared_ptr_pointerIPNS_13__empty_stateIcEENS_10shared_ptrIS2_E27__shared_ptr_default_deleteIS2_S2_EENS_9allocatorIS2_EEED1Ev, symObjAddr: 0xF854, symBinAddr: 0x36F28, symSize: 0x4 }
  - { offset: 0x1A7CF1, size: 0x8, addend: 0x0, symName: __ZNSt3__120__shared_ptr_pointerIPNS_13__empty_stateIcEENS_10shared_ptrIS2_E27__shared_ptr_default_deleteIS2_S2_EENS_9allocatorIS2_EEED0Ev, symObjAddr: 0xF858, symBinAddr: 0x36F2C, symSize: 0x14 }
  - { offset: 0x1A7D54, size: 0x8, addend: 0x0, symName: __ZNSt3__120__shared_ptr_pointerIPNS_13__empty_stateIcEENS_10shared_ptrIS2_E27__shared_ptr_default_deleteIS2_S2_EENS_9allocatorIS2_EEE16__on_zero_sharedEv, symObjAddr: 0xF86C, symBinAddr: 0x36F40, symSize: 0x18 }
  - { offset: 0x1A7DFC, size: 0x8, addend: 0x0, symName: __ZNKSt3__120__shared_ptr_pointerIPNS_13__empty_stateIcEENS_10shared_ptrIS2_E27__shared_ptr_default_deleteIS2_S2_EENS_9allocatorIS2_EEE13__get_deleterERKSt9type_info, symObjAddr: 0xF884, symBinAddr: 0x36F58, symSize: 0x74 }
  - { offset: 0x1A7F20, size: 0x8, addend: 0x0, symName: __ZNSt3__120__shared_ptr_pointerIPNS_13__empty_stateIcEENS_10shared_ptrIS2_E27__shared_ptr_default_deleteIS2_S2_EENS_9allocatorIS2_EEE21__on_zero_shared_weakEv, symObjAddr: 0xF8F8, symBinAddr: 0x36FCC, symSize: 0x4 }
  - { offset: 0x1A7F52, size: 0x8, addend: 0x0, symName: __ZNSt3__120__shared_ptr_pointerIPNS_13__empty_stateIcEENS_10shared_ptrIS2_E27__shared_ptr_default_deleteIS2_S2_EENS_9allocatorIS2_EEE21__on_zero_shared_weakEv, symObjAddr: 0xF8F8, symBinAddr: 0x36FCC, symSize: 0x4 }
  - { offset: 0x1A7F74, size: 0x8, addend: 0x0, symName: __ZNSt3__120__shared_ptr_pointerIPNS_13__empty_stateIcEENS_10shared_ptrIS2_E27__shared_ptr_default_deleteIS2_S2_EENS_9allocatorIS2_EEE21__on_zero_shared_weakEv, symObjAddr: 0xF8F8, symBinAddr: 0x36FCC, symSize: 0x4 }
  - { offset: 0x1A7FA8, size: 0x8, addend: 0x0, symName: __ZNSt3__120__shared_ptr_pointerIPNS_13__empty_stateIcEENS_10shared_ptrIS2_E27__shared_ptr_default_deleteIS2_S2_EENS_9allocatorIS2_EEE21__on_zero_shared_weakEv, symObjAddr: 0xF8F8, symBinAddr: 0x36FCC, symSize: 0x4 }
  - { offset: 0x1A7FCF, size: 0x8, addend: 0x0, symName: __ZNSt3__113__empty_stateIcED1Ev, symObjAddr: 0xF8FC, symBinAddr: 0x36FD0, symSize: 0x48 }
  - { offset: 0x1A7FF3, size: 0x8, addend: 0x0, symName: __ZNSt3__113__empty_stateIcED1Ev, symObjAddr: 0xF8FC, symBinAddr: 0x36FD0, symSize: 0x48 }
  - { offset: 0x1A8011, size: 0x8, addend: 0x0, symName: __ZNSt3__113__empty_stateIcED1Ev, symObjAddr: 0xF8FC, symBinAddr: 0x36FD0, symSize: 0x48 }
  - { offset: 0x1A803B, size: 0x8, addend: 0x0, symName: __ZNSt3__113__empty_stateIcED0Ev, symObjAddr: 0xF944, symBinAddr: 0x37018, symSize: 0x48 }
  - { offset: 0x1A805F, size: 0x8, addend: 0x0, symName: __ZNSt3__113__empty_stateIcED0Ev, symObjAddr: 0xF944, symBinAddr: 0x37018, symSize: 0x48 }
  - { offset: 0x1A807D, size: 0x8, addend: 0x0, symName: __ZNSt3__113__empty_stateIcED0Ev, symObjAddr: 0xF944, symBinAddr: 0x37018, symSize: 0x48 }
  - { offset: 0x1A809B, size: 0x8, addend: 0x0, symName: __ZNSt3__113__empty_stateIcED0Ev, symObjAddr: 0xF944, symBinAddr: 0x37018, symSize: 0x48 }
  - { offset: 0x1A80E2, size: 0x8, addend: 0x0, symName: __ZNKSt3__113__empty_stateIcE6__execERNS_7__stateIcEE, symObjAddr: 0xF98C, symBinAddr: 0x37060, symSize: 0x14 }
  - { offset: 0x1A8134, size: 0x8, addend: 0x0, symName: __ZNSt3__116__owns_one_stateIcED1Ev, symObjAddr: 0xF9A0, symBinAddr: 0x37074, symSize: 0x48 }
  - { offset: 0x1A8158, size: 0x8, addend: 0x0, symName: __ZNSt3__116__owns_one_stateIcED1Ev, symObjAddr: 0xF9A0, symBinAddr: 0x37074, symSize: 0x48 }
  - { offset: 0x1A819D, size: 0x8, addend: 0x0, symName: __ZNSt3__116__owns_one_stateIcED0Ev, symObjAddr: 0xF9E8, symBinAddr: 0x370BC, symSize: 0x48 }
  - { offset: 0x1A81CC, size: 0x8, addend: 0x0, symName: __ZNSt3__116__owns_one_stateIcED0Ev, symObjAddr: 0xF9E8, symBinAddr: 0x370BC, symSize: 0x48 }
  - { offset: 0x1A81EA, size: 0x8, addend: 0x0, symName: __ZNSt3__116__owns_one_stateIcED0Ev, symObjAddr: 0xF9E8, symBinAddr: 0x370BC, symSize: 0x48 }
  - { offset: 0x1A8315, size: 0x8, addend: 0x0, symName: __ZNSt3__111basic_regexIcNS_12regex_traitsIcEEE16__push_lookaheadERKS3_bj, symObjAddr: 0x10388, symBinAddr: 0x37A5C, symSize: 0xB0 }
  - { offset: 0x1A852D, size: 0x8, addend: 0x0, symName: __ZNSt3__111basic_regexIcNS_12regex_traitsIcEEE20__push_word_boundaryEb, symObjAddr: 0x1031C, symBinAddr: 0x379F0, symSize: 0x6C }
  - { offset: 0x1A87FF, size: 0x8, addend: 0x0, symName: __ZNSt3__111basic_regexIcNS_12regex_traitsIcEEE26__parse_bracket_expressionINS_11__wrap_iterIPKcEEEET_S9_S9_, symObjAddr: 0x10C5C, symBinAddr: 0x38330, symSize: 0x158 }
  - { offset: 0x1A8A27, size: 0x8, addend: 0x0, symName: __ZNSt3__111basic_regexIcNS_12regex_traitsIcEEE19__parse_atom_escapeINS_11__wrap_iterIPKcEEEET_S9_S9_, symObjAddr: 0x10B10, symBinAddr: 0x381E4, symSize: 0x14C }
  - { offset: 0x1A8B93, size: 0x8, addend: 0x0, symName: __ZNSt3__111basic_regexIcNS_12regex_traitsIcEEE26__parse_bracket_expressionINS_11__wrap_iterIPKcEEEET_S9_S9_, symObjAddr: 0x10C5C, symBinAddr: 0x38330, symSize: 0x158 }
  - { offset: 0x1A8BA7, size: 0x8, addend: 0x0, symName: __ZNSt3__111basic_regexIcNS_12regex_traitsIcEEE25__parse_pattern_characterINS_11__wrap_iterIPKcEEEET_S9_S9_, symObjAddr: 0x10E00, symBinAddr: 0x384D4, symSize: 0x7C }
  - { offset: 0x1A8D7B, size: 0x8, addend: 0x0, symName: __ZNSt3__111basic_regexIcNS_12regex_traitsIcEEE11__push_loopEmmPNS_16__owns_one_stateIcEEmmb, symObjAddr: 0x15364, symBinAddr: 0x3C9B4, symSize: 0x13C }
  - { offset: 0x1A932E, size: 0x8, addend: 0x0, symName: __ZNSt3__120__l_anchor_multilineIcED1Ev, symObjAddr: 0x10484, symBinAddr: 0x37B58, symSize: 0x48 }
  - { offset: 0x1A9352, size: 0x8, addend: 0x0, symName: __ZNSt3__120__l_anchor_multilineIcED1Ev, symObjAddr: 0x10484, symBinAddr: 0x37B58, symSize: 0x48 }
  - { offset: 0x1A9370, size: 0x8, addend: 0x0, symName: __ZNSt3__120__l_anchor_multilineIcED1Ev, symObjAddr: 0x10484, symBinAddr: 0x37B58, symSize: 0x48 }
  - { offset: 0x1A93B7, size: 0x8, addend: 0x0, symName: __ZNSt3__120__l_anchor_multilineIcED0Ev, symObjAddr: 0x104CC, symBinAddr: 0x37BA0, symSize: 0x48 }
  - { offset: 0x1A93E7, size: 0x8, addend: 0x0, symName: __ZNSt3__120__l_anchor_multilineIcED0Ev, symObjAddr: 0x104CC, symBinAddr: 0x37BA0, symSize: 0x48 }
  - { offset: 0x1A9405, size: 0x8, addend: 0x0, symName: __ZNSt3__120__l_anchor_multilineIcED0Ev, symObjAddr: 0x104CC, symBinAddr: 0x37BA0, symSize: 0x48 }
  - { offset: 0x1A9423, size: 0x8, addend: 0x0, symName: __ZNSt3__120__l_anchor_multilineIcED0Ev, symObjAddr: 0x104CC, symBinAddr: 0x37BA0, symSize: 0x48 }
  - { offset: 0x1A944E, size: 0x8, addend: 0x0, symName: __ZNKSt3__120__l_anchor_multilineIcE6__execERNS_7__stateIcEE, symObjAddr: 0x10514, symBinAddr: 0x37BE8, symSize: 0x68 }
  - { offset: 0x1A94B2, size: 0x8, addend: 0x0, symName: __ZNSt3__120__r_anchor_multilineIcED1Ev, symObjAddr: 0x1057C, symBinAddr: 0x37C50, symSize: 0x48 }
  - { offset: 0x1A94D6, size: 0x8, addend: 0x0, symName: __ZNSt3__120__r_anchor_multilineIcED1Ev, symObjAddr: 0x1057C, symBinAddr: 0x37C50, symSize: 0x48 }
  - { offset: 0x1A94F4, size: 0x8, addend: 0x0, symName: __ZNSt3__120__r_anchor_multilineIcED1Ev, symObjAddr: 0x1057C, symBinAddr: 0x37C50, symSize: 0x48 }
  - { offset: 0x1A953B, size: 0x8, addend: 0x0, symName: __ZNSt3__120__r_anchor_multilineIcED0Ev, symObjAddr: 0x105C4, symBinAddr: 0x37C98, symSize: 0x48 }
  - { offset: 0x1A956B, size: 0x8, addend: 0x0, symName: __ZNSt3__120__r_anchor_multilineIcED0Ev, symObjAddr: 0x105C4, symBinAddr: 0x37C98, symSize: 0x48 }
  - { offset: 0x1A9589, size: 0x8, addend: 0x0, symName: __ZNSt3__120__r_anchor_multilineIcED0Ev, symObjAddr: 0x105C4, symBinAddr: 0x37C98, symSize: 0x48 }
  - { offset: 0x1A95A7, size: 0x8, addend: 0x0, symName: __ZNSt3__120__r_anchor_multilineIcED0Ev, symObjAddr: 0x105C4, symBinAddr: 0x37C98, symSize: 0x48 }
  - { offset: 0x1A95D2, size: 0x8, addend: 0x0, symName: __ZNKSt3__120__r_anchor_multilineIcE6__execERNS_7__stateIcEE, symObjAddr: 0x1060C, symBinAddr: 0x37CE0, symSize: 0x54 }
  - { offset: 0x1A9636, size: 0x8, addend: 0x0, symName: __ZNSt3__115__word_boundaryIcNS_12regex_traitsIcEEED1Ev, symObjAddr: 0x10660, symBinAddr: 0x37D34, symSize: 0x58 }
  - { offset: 0x1A96E6, size: 0x8, addend: 0x0, symName: __ZNSt3__115__word_boundaryIcNS_12regex_traitsIcEEED0Ev, symObjAddr: 0x106B8, symBinAddr: 0x37D8C, symSize: 0x58 }
  - { offset: 0x1A9800, size: 0x8, addend: 0x0, symName: __ZNKSt3__115__word_boundaryIcNS_12regex_traitsIcEEE6__execERNS_7__stateIcEE, symObjAddr: 0x10710, symBinAddr: 0x37DE4, symSize: 0x154 }
  - { offset: 0x1A99BE, size: 0x8, addend: 0x0, symName: __ZNSt3__111__lookaheadIcNS_12regex_traitsIcEEED1Ev, symObjAddr: 0x10864, symBinAddr: 0x37F38, symSize: 0x94 }
  - { offset: 0x1A9B1E, size: 0x8, addend: 0x0, symName: __ZNSt3__111__lookaheadIcNS_12regex_traitsIcEEED0Ev, symObjAddr: 0x108F8, symBinAddr: 0x37FCC, symSize: 0x94 }
  - { offset: 0x1A9C8A, size: 0x8, addend: 0x0, symName: __ZNKSt3__111__lookaheadIcNS_12regex_traitsIcEEE6__execERNS_7__stateIcEE, symObjAddr: 0x1098C, symBinAddr: 0x38060, symSize: 0x184 }
  - { offset: 0x1AA238, size: 0x8, addend: 0x0, symName: __ZNSt3__111basic_regexIcNS_12regex_traitsIcEEE11__push_charEc, symObjAddr: 0x11540, symBinAddr: 0x38C14, symSize: 0x144 }
  - { offset: 0x1AA5A3, size: 0x8, addend: 0x0, symName: __ZNSt3__111basic_regexIcNS_12regex_traitsIcEEE15__push_back_refEi, symObjAddr: 0x116D0, symBinAddr: 0x38DA4, symSize: 0xD4 }
  - { offset: 0x1AA757, size: 0x8, addend: 0x0, symName: __ZNSt3__111basic_regexIcNS_12regex_traitsIcEEE30__parse_character_class_escapeINS_11__wrap_iterIPKcEEEET_S9_S9_, symObjAddr: 0x10F58, symBinAddr: 0x3862C, symSize: 0x25C }
  - { offset: 0x1AABC6, size: 0x8, addend: 0x0, symName: __ZNSt3__111basic_regexIcNS_12regex_traitsIcEEE24__parse_character_escapeINS_11__wrap_iterIPKcEEEET_S9_S9_PNS_12basic_stringIcNS_11char_traitsIcEENS_9allocatorIcEEEE, symObjAddr: 0x111B4, symBinAddr: 0x38888, symSize: 0x38C }
  - { offset: 0x1AAF8C, size: 0x8, addend: 0x0, symName: __ZNSt3__111basic_regexIcNS_12regex_traitsIcEEE11__push_charEc, symObjAddr: 0x11540, symBinAddr: 0x38C14, symSize: 0x144 }
  - { offset: 0x1AB077, size: 0x8, addend: 0x0, symName: __ZNSt3__120__bracket_expressionIcNS_12regex_traitsIcEEEC2B8ne200100ERKS2_PNS_6__nodeIcEEbbb, symObjAddr: 0x1207C, symBinAddr: 0x39750, symSize: 0x19C }
  - { offset: 0x1AB6A9, size: 0x8, addend: 0x0, symName: __ZNSt3__120__bracket_expressionIcNS_12regex_traitsIcEEE10__add_charB8ne200100Ec, symObjAddr: 0x11EF0, symBinAddr: 0x395C4, symSize: 0x18C }
  - { offset: 0x1AB9D1, size: 0x8, addend: 0x0, symName: __ZNSt3__120__bracket_expressionIcNS_12regex_traitsIcEEEC2B8ne200100ERKS2_PNS_6__nodeIcEEbbb, symObjAddr: 0x1207C, symBinAddr: 0x39750, symSize: 0x19C }
  - { offset: 0x1AB9DC, size: 0x8, addend: 0x0, symName: __ZNSt3__111basic_regexIcNS_12regex_traitsIcEEE23__parse_expression_termINS_11__wrap_iterIPKcEEEET_S9_S9_PNS_20__bracket_expressionIcS2_EE, symObjAddr: 0x1329C, symBinAddr: 0x3A8EC, symSize: 0x454 }
  - { offset: 0x1AC65A, size: 0x8, addend: 0x0, symName: __ZNSt3__123__match_any_but_newlineIcED1Ev, symObjAddr: 0x10E7C, symBinAddr: 0x38550, symSize: 0x48 }
  - { offset: 0x1AC67E, size: 0x8, addend: 0x0, symName: __ZNSt3__123__match_any_but_newlineIcED1Ev, symObjAddr: 0x10E7C, symBinAddr: 0x38550, symSize: 0x48 }
  - { offset: 0x1AC69C, size: 0x8, addend: 0x0, symName: __ZNSt3__123__match_any_but_newlineIcED1Ev, symObjAddr: 0x10E7C, symBinAddr: 0x38550, symSize: 0x48 }
  - { offset: 0x1AC6E3, size: 0x8, addend: 0x0, symName: __ZNSt3__123__match_any_but_newlineIcED0Ev, symObjAddr: 0x10EC4, symBinAddr: 0x38598, symSize: 0x48 }
  - { offset: 0x1AC713, size: 0x8, addend: 0x0, symName: __ZNSt3__123__match_any_but_newlineIcED0Ev, symObjAddr: 0x10EC4, symBinAddr: 0x38598, symSize: 0x48 }
  - { offset: 0x1AC731, size: 0x8, addend: 0x0, symName: __ZNSt3__123__match_any_but_newlineIcED0Ev, symObjAddr: 0x10EC4, symBinAddr: 0x38598, symSize: 0x48 }
  - { offset: 0x1AC74F, size: 0x8, addend: 0x0, symName: __ZNSt3__123__match_any_but_newlineIcED0Ev, symObjAddr: 0x10EC4, symBinAddr: 0x38598, symSize: 0x48 }
  - { offset: 0x1ACB9F, size: 0x8, addend: 0x0, symName: __ZNSt3__118__match_char_icaseIcNS_12regex_traitsIcEEED1Ev, symObjAddr: 0x117A4, symBinAddr: 0x38E78, symSize: 0x58 }
  - { offset: 0x1ACC4F, size: 0x8, addend: 0x0, symName: __ZNSt3__118__match_char_icaseIcNS_12regex_traitsIcEEED0Ev, symObjAddr: 0x117FC, symBinAddr: 0x38ED0, symSize: 0x58 }
  - { offset: 0x1ACD0B, size: 0x8, addend: 0x0, symName: __ZNKSt3__118__match_char_icaseIcNS_12regex_traitsIcEEE6__execERNS_7__stateIcEE, symObjAddr: 0x11854, symBinAddr: 0x38F28, symSize: 0x84 }
  - { offset: 0x1ACDC4, size: 0x8, addend: 0x0, symName: __ZNSt3__120__match_char_collateIcNS_12regex_traitsIcEEED1Ev, symObjAddr: 0x118D8, symBinAddr: 0x38FAC, symSize: 0x58 }
  - { offset: 0x1ACE74, size: 0x8, addend: 0x0, symName: __ZNSt3__120__match_char_collateIcNS_12regex_traitsIcEEED0Ev, symObjAddr: 0x11930, symBinAddr: 0x39004, symSize: 0x58 }
  - { offset: 0x1ACF30, size: 0x8, addend: 0x0, symName: __ZNKSt3__120__match_char_collateIcNS_12regex_traitsIcEEE6__execERNS_7__stateIcEE, symObjAddr: 0x11988, symBinAddr: 0x3905C, symSize: 0x48 }
  - { offset: 0x1ACF9D, size: 0x8, addend: 0x0, symName: __ZNSt3__112__match_charIcED1Ev, symObjAddr: 0x119D0, symBinAddr: 0x390A4, symSize: 0x48 }
  - { offset: 0x1ACFC1, size: 0x8, addend: 0x0, symName: __ZNSt3__112__match_charIcED1Ev, symObjAddr: 0x119D0, symBinAddr: 0x390A4, symSize: 0x48 }
  - { offset: 0x1ACFDF, size: 0x8, addend: 0x0, symName: __ZNSt3__112__match_charIcED1Ev, symObjAddr: 0x119D0, symBinAddr: 0x390A4, symSize: 0x48 }
  - { offset: 0x1AD026, size: 0x8, addend: 0x0, symName: __ZNSt3__112__match_charIcED0Ev, symObjAddr: 0x11A18, symBinAddr: 0x390EC, symSize: 0x48 }
  - { offset: 0x1AD056, size: 0x8, addend: 0x0, symName: __ZNSt3__112__match_charIcED0Ev, symObjAddr: 0x11A18, symBinAddr: 0x390EC, symSize: 0x48 }
  - { offset: 0x1AD074, size: 0x8, addend: 0x0, symName: __ZNSt3__112__match_charIcED0Ev, symObjAddr: 0x11A18, symBinAddr: 0x390EC, symSize: 0x48 }
  - { offset: 0x1AD092, size: 0x8, addend: 0x0, symName: __ZNSt3__112__match_charIcED0Ev, symObjAddr: 0x11A18, symBinAddr: 0x390EC, symSize: 0x48 }
  - { offset: 0x1AD0BD, size: 0x8, addend: 0x0, symName: __ZNKSt3__112__match_charIcE6__execERNS_7__stateIcEE, symObjAddr: 0x11A60, symBinAddr: 0x39134, symSize: 0x48 }
  - { offset: 0x1AD12A, size: 0x8, addend: 0x0, symName: __ZNSt3__116__back_ref_icaseIcNS_12regex_traitsIcEEED1Ev, symObjAddr: 0x11AA8, symBinAddr: 0x3917C, symSize: 0x58 }
  - { offset: 0x1AD1DA, size: 0x8, addend: 0x0, symName: __ZNSt3__116__back_ref_icaseIcNS_12regex_traitsIcEEED0Ev, symObjAddr: 0x11B00, symBinAddr: 0x391D4, symSize: 0x58 }
  - { offset: 0x1AD296, size: 0x8, addend: 0x0, symName: __ZNKSt3__116__back_ref_icaseIcNS_12regex_traitsIcEEE6__execERNS_7__stateIcEE, symObjAddr: 0x11B58, symBinAddr: 0x3922C, symSize: 0xFC }
  - { offset: 0x1AD3FD, size: 0x8, addend: 0x0, symName: __ZNSt3__118__back_ref_collateIcNS_12regex_traitsIcEEED1Ev, symObjAddr: 0x11C54, symBinAddr: 0x39328, symSize: 0x58 }
  - { offset: 0x1AD4AD, size: 0x8, addend: 0x0, symName: __ZNSt3__118__back_ref_collateIcNS_12regex_traitsIcEEED0Ev, symObjAddr: 0x11CAC, symBinAddr: 0x39380, symSize: 0x58 }
  - { offset: 0x1AD569, size: 0x8, addend: 0x0, symName: __ZNKSt3__118__back_ref_collateIcNS_12regex_traitsIcEEE6__execERNS_7__stateIcEE, symObjAddr: 0x11D04, symBinAddr: 0x393D8, symSize: 0x8C }
  - { offset: 0x1AD63A, size: 0x8, addend: 0x0, symName: __ZNSt3__110__back_refIcED1Ev, symObjAddr: 0x11D90, symBinAddr: 0x39464, symSize: 0x48 }
  - { offset: 0x1AD65E, size: 0x8, addend: 0x0, symName: __ZNSt3__110__back_refIcED1Ev, symObjAddr: 0x11D90, symBinAddr: 0x39464, symSize: 0x48 }
  - { offset: 0x1AD67C, size: 0x8, addend: 0x0, symName: __ZNSt3__110__back_refIcED1Ev, symObjAddr: 0x11D90, symBinAddr: 0x39464, symSize: 0x48 }
  - { offset: 0x1AD6C3, size: 0x8, addend: 0x0, symName: __ZNSt3__110__back_refIcED0Ev, symObjAddr: 0x11DD8, symBinAddr: 0x394AC, symSize: 0x48 }
  - { offset: 0x1AD6F3, size: 0x8, addend: 0x0, symName: __ZNSt3__110__back_refIcED0Ev, symObjAddr: 0x11DD8, symBinAddr: 0x394AC, symSize: 0x48 }
  - { offset: 0x1AD711, size: 0x8, addend: 0x0, symName: __ZNSt3__110__back_refIcED0Ev, symObjAddr: 0x11DD8, symBinAddr: 0x394AC, symSize: 0x48 }
  - { offset: 0x1AD72F, size: 0x8, addend: 0x0, symName: __ZNSt3__110__back_refIcED0Ev, symObjAddr: 0x11DD8, symBinAddr: 0x394AC, symSize: 0x48 }
  - { offset: 0x1AD75A, size: 0x8, addend: 0x0, symName: __ZNKSt3__110__back_refIcE6__execERNS_7__stateIcEE, symObjAddr: 0x11E20, symBinAddr: 0x394F4, symSize: 0xD0 }
  - { offset: 0x1AD8D2, size: 0x8, addend: 0x0, symName: __ZNSt3__120__bracket_expressionIcNS_12regex_traitsIcEEE10__add_charB8ne200100Ec, symObjAddr: 0x11EF0, symBinAddr: 0x395C4, symSize: 0x18C }
  - { offset: 0x1ADB59, size: 0x8, addend: 0x0, symName: __ZNSt3__16vectorIcNS_9allocatorIcEEE20__throw_length_errorB8ne200100Ev, symObjAddr: 0x1323C, symBinAddr: 0x3A88C, symSize: 0x14 }
  - { offset: 0x1ADB71, size: 0x8, addend: 0x0, symName: __ZNSt3__119__throw_regex_errorB8ne200100ILNS_15regex_constants10error_typeE5EEEvv, symObjAddr: 0x13250, symBinAddr: 0x3A8A0, symSize: 0x4C }
  - { offset: 0x1ADF54, size: 0x8, addend: 0x0, symName: __ZNSt3__16vectorINS_4pairINS_12basic_stringIcNS_11char_traitsIcEENS_9allocatorIcEEEES7_EENS5_IS8_EEED1B8ne200100Ev, symObjAddr: 0x12288, symBinAddr: 0x398EC, symSize: 0x94 }
  - { offset: 0x1AE5BE, size: 0x8, addend: 0x0, symName: __ZNSt3__120__bracket_expressionIcNS_12regex_traitsIcEEED1Ev, symObjAddr: 0x1231C, symBinAddr: 0x39980, symSize: 0x4 }
  - { offset: 0x1AE5E1, size: 0x8, addend: 0x0, symName: __ZNSt3__120__bracket_expressionIcNS_12regex_traitsIcEEED1Ev, symObjAddr: 0x1231C, symBinAddr: 0x39980, symSize: 0x4 }
  - { offset: 0x1AE5F4, size: 0x8, addend: 0x0, symName: __ZNSt3__120__bracket_expressionIcNS_12regex_traitsIcEEED2Ev, symObjAddr: 0x12C04, symBinAddr: 0x3A254, symSize: 0x148 }
  - { offset: 0x1AEFF9, size: 0x8, addend: 0x0, symName: __ZNSt3__120__bracket_expressionIcNS_12regex_traitsIcEEED0Ev, symObjAddr: 0x12320, symBinAddr: 0x39984, symSize: 0x14 }
  - { offset: 0x1AF437, size: 0x8, addend: 0x0, symName: __ZNKSt3__120__bracket_expressionIcNS_12regex_traitsIcEEE6__execERNS_7__stateIcEE, symObjAddr: 0x12334, symBinAddr: 0x39998, symSize: 0x864 }
  - { offset: 0x1B0C84, size: 0x8, addend: 0x0, symName: __ZNKSt3__112regex_traitsIcE20__lookup_collatenameIPcEENS_12basic_stringIcNS_11char_traitsIcEENS_9allocatorIcEEEET_SA_c, symObjAddr: 0x12E78, symBinAddr: 0x3A4C8, symSize: 0x234 }
  - { offset: 0x1B177F, size: 0x8, addend: 0x0, symName: __ZNKSt3__112regex_traitsIcE9transformIPcEENS_12basic_stringIcNS_11char_traitsIcEENS_9allocatorIcEEEET_SA_, symObjAddr: 0x12D4C, symBinAddr: 0x3A39C, symSize: 0x12C }
  - { offset: 0x1B1D3C, size: 0x8, addend: 0x0, symName: __ZNKSt3__112regex_traitsIcE19__transform_primaryIPcEENS_12basic_stringIcNS_11char_traitsIcEENS_9allocatorIcEEEET_SA_c, symObjAddr: 0x130AC, symBinAddr: 0x3A6FC, symSize: 0x190 }
  - { offset: 0x1B247C, size: 0x8, addend: 0x0, symName: __ZNSt3__14pairINS_12basic_stringIcNS_11char_traitsIcEENS_9allocatorIcEEEES6_ED1Ev, symObjAddr: 0x12BAC, symBinAddr: 0x3A1FC, symSize: 0x58 }
  - { offset: 0x1B277B, size: 0x8, addend: 0x0, symName: __ZNSt3__111basic_regexIcNS_12regex_traitsIcEEE25__parse_equivalence_classINS_11__wrap_iterIPKcEEEET_S9_S9_PNS_20__bracket_expressionIcS2_EE, symObjAddr: 0x136F0, symBinAddr: 0x3AD40, symSize: 0x274 }
  - { offset: 0x1B31B0, size: 0x8, addend: 0x0, symName: __ZNSt3__111basic_regexIcNS_12regex_traitsIcEEE18__parse_awk_escapeINS_11__wrap_iterIPKcEEEET_S9_S9_PNS_12basic_stringIcNS_11char_traitsIcEENS_9allocatorIcEEEE, symObjAddr: 0x13C78, symBinAddr: 0x3B2C8, symSize: 0x2F8 }
  - { offset: 0x1B338D, size: 0x8, addend: 0x0, symName: __ZNSt3__120__bracket_expressionIcNS_12regex_traitsIcEEE11__add_rangeB8ne200100ENS_12basic_stringIcNS_11char_traitsIcEENS_9allocatorIcEEEES9_, symObjAddr: 0x13F70, symBinAddr: 0x3B5C0, symSize: 0x438 }
  - { offset: 0x1B33A1, size: 0x8, addend: 0x0, symName: __ZNSt3__111basic_regexIcNS_12regex_traitsIcEEE24__parse_collating_symbolINS_11__wrap_iterIPKcEEEET_S9_S9_RNS_12basic_stringIcNS_11char_traitsIcEENS_9allocatorIcEEEE, symObjAddr: 0x13A10, symBinAddr: 0x3B060, symSize: 0xE0 }
  - { offset: 0x1B36E8, size: 0x8, addend: 0x0, symName: __ZNSt3__111basic_regexIcNS_12regex_traitsIcEEE20__parse_class_escapeINS_11__wrap_iterIPKcEEEET_S9_S9_RNS_12basic_stringIcNS_11char_traitsIcEENS_9allocatorIcEEEEPNS_20__bracket_expressionIcS2_EE, symObjAddr: 0x13AF0, symBinAddr: 0x3B140, symSize: 0x188 }
  - { offset: 0x1B36FC, size: 0x8, addend: 0x0, symName: __ZNSt3__111basic_regexIcNS_12regex_traitsIcEEE23__parse_character_classINS_11__wrap_iterIPKcEEEET_S9_S9_PNS_20__bracket_expressionIcS2_EE, symObjAddr: 0x13964, symBinAddr: 0x3AFB4, symSize: 0xAC }
  - { offset: 0x1B394E, size: 0x8, addend: 0x0, symName: __ZNSt3__111basic_regexIcNS_12regex_traitsIcEEE24__parse_collating_symbolINS_11__wrap_iterIPKcEEEET_S9_S9_RNS_12basic_stringIcNS_11char_traitsIcEENS_9allocatorIcEEEE, symObjAddr: 0x13A10, symBinAddr: 0x3B060, symSize: 0xE0 }
  - { offset: 0x1B396E, size: 0x8, addend: 0x0, symName: __ZNSt3__120__bracket_expressionIcNS_12regex_traitsIcEEE13__add_digraphB8ne200100Ecc, symObjAddr: 0x143A8, symBinAddr: 0x3B9F8, symSize: 0x220 }
  - { offset: 0x1B440B, size: 0x8, addend: 0x0, symName: __ZNSt3__119__throw_regex_errorB8ne200100ILNS_15regex_constants10error_typeE1EEEvv, symObjAddr: 0x145C8, symBinAddr: 0x3BC18, symSize: 0x4C }
  - { offset: 0x1B4416, size: 0x8, addend: 0x0, symName: __ZNSt3__111basic_regexIcNS_12regex_traitsIcEEE20__parse_class_escapeINS_11__wrap_iterIPKcEEEET_S9_S9_RNS_12basic_stringIcNS_11char_traitsIcEENS_9allocatorIcEEEEPNS_20__bracket_expressionIcS2_EE, symObjAddr: 0x13AF0, symBinAddr: 0x3B140, symSize: 0x188 }
  - { offset: 0x1B45EA, size: 0x8, addend: 0x0, symName: __ZNSt3__111basic_regexIcNS_12regex_traitsIcEEE18__parse_awk_escapeINS_11__wrap_iterIPKcEEEET_S9_S9_PNS_12basic_stringIcNS_11char_traitsIcEENS_9allocatorIcEEEE, symObjAddr: 0x13C78, symBinAddr: 0x3B2C8, symSize: 0x2F8 }
  - { offset: 0x1B45FE, size: 0x8, addend: 0x0, symName: __ZNSt3__120__bracket_expressionIcNS_12regex_traitsIcEEE11__add_rangeB8ne200100ENS_12basic_stringIcNS_11char_traitsIcEENS_9allocatorIcEEEES9_, symObjAddr: 0x13F70, symBinAddr: 0x3B5C0, symSize: 0x438 }
  - { offset: 0x1B59FC, size: 0x8, addend: 0x0, symName: __ZNKSt3__112regex_traitsIcE20__lookup_collatenameINS_11__wrap_iterIPKcEEEENS_12basic_stringIcNS_11char_traitsIcEENS_9allocatorIcEEEET_SD_c, symObjAddr: 0x14614, symBinAddr: 0x3BC64, symSize: 0x234 }
  - { offset: 0x1B650C, size: 0x8, addend: 0x0, symName: __ZNKSt3__112regex_traitsIcE19__transform_primaryINS_11__wrap_iterIPcEEEENS_12basic_stringIcNS_11char_traitsIcEENS_9allocatorIcEEEET_SC_c, symObjAddr: 0x14848, symBinAddr: 0x3BE98, symSize: 0x190 }
  - { offset: 0x1B6C61, size: 0x8, addend: 0x0, symName: __ZNSt3__16vectorINS_12basic_stringIcNS_11char_traitsIcEENS_9allocatorIcEEEENS4_IS6_EEE24__emplace_back_slow_pathIJRKS6_EEEPS6_DpOT_, symObjAddr: 0x149D8, symBinAddr: 0x3C028, symSize: 0x154 }
  - { offset: 0x1B70D3, size: 0x8, addend: 0x0, symName: __ZNKSt3__112regex_traitsIcE18__lookup_classnameINS_11__wrap_iterIPKcEEEEjT_S7_bc, symObjAddr: 0x14BF0, symBinAddr: 0x3C240, symSize: 0x14C }
  - { offset: 0x1B77A0, size: 0x8, addend: 0x0, symName: __ZNSt3__120__bracket_expressionIcNS_12regex_traitsIcEEE14__add_neg_charB8ne200100Ec, symObjAddr: 0x14D3C, symBinAddr: 0x3C38C, symSize: 0x18C }
  - { offset: 0x1B7AD2, size: 0x8, addend: 0x0, symName: __ZNSt3__16vectorINS_4pairINS_12basic_stringIcNS_11char_traitsIcEENS_9allocatorIcEEEES7_EENS5_IS8_EEE9push_backB8ne200100EOS8_, symObjAddr: 0x14EC8, symBinAddr: 0x3C518, symSize: 0x174 }
  - { offset: 0x1B7B95, size: 0x8, addend: 0x0, symName: __ZNKSt3__112regex_traitsIcE9transformINS_11__wrap_iterIPcEEEENS_12basic_stringIcNS_11char_traitsIcEENS_9allocatorIcEEEET_SC_, symObjAddr: 0x1503C, symBinAddr: 0x3C68C, symSize: 0x12C }
  - { offset: 0x1B818B, size: 0x8, addend: 0x0, symName: __ZNSt3__16vectorINS_4pairINS_12basic_stringIcNS_11char_traitsIcEENS_9allocatorIcEEEES7_EENS5_IS8_EEE9push_backB8ne200100EOS8_, symObjAddr: 0x14EC8, symBinAddr: 0x3C518, symSize: 0x174 }
  - { offset: 0x1B8716, size: 0x8, addend: 0x0, symName: __ZNKSt3__112regex_traitsIcE9transformINS_11__wrap_iterIPcEEEENS_12basic_stringIcNS_11char_traitsIcEENS_9allocatorIcEEEET_SC_, symObjAddr: 0x1503C, symBinAddr: 0x3C68C, symSize: 0x12C }
  - { offset: 0x1B8A20, size: 0x8, addend: 0x0, symName: __ZNSt3__16vectorINS_4pairIccEENS_9allocatorIS2_EEE20__throw_length_errorB8ne200100Ev, symObjAddr: 0x151C8, symBinAddr: 0x3C818, symSize: 0x14 }
  - { offset: 0x1B8A38, size: 0x8, addend: 0x0, symName: __ZNSt3__128__begin_marked_subexpressionIcED1Ev, symObjAddr: 0x151DC, symBinAddr: 0x3C82C, symSize: 0x48 }
  - { offset: 0x1B8EB7, size: 0x8, addend: 0x0, symName: __ZNSt3__16vectorINS_12basic_stringIcNS_11char_traitsIcEENS_9allocatorIcEEEENS4_IS6_EEE20__throw_length_errorB8ne200100Ev, symObjAddr: 0x14B90, symBinAddr: 0x3C1E0, symSize: 0x14 }
  - { offset: 0x1B8ECF, size: 0x8, addend: 0x0, symName: __ZNSt3__119__throw_regex_errorB8ne200100ILNS_15regex_constants10error_typeE2EEEvv, symObjAddr: 0x14BA4, symBinAddr: 0x3C1F4, symSize: 0x4C }
  - { offset: 0x1B8EDA, size: 0x8, addend: 0x0, symName: __ZNSt3__114__split_bufferINS_12basic_stringIcNS_11char_traitsIcEENS_9allocatorIcEEEERNS4_IS6_EEED1Ev, symObjAddr: 0x14B2C, symBinAddr: 0x3C17C, symSize: 0x64 }
  - { offset: 0x1B9475, size: 0x8, addend: 0x0, symName: __ZNSt3__16vectorINS_4pairINS_12basic_stringIcNS_11char_traitsIcEENS_9allocatorIcEEEES7_EENS5_IS8_EEE20__throw_length_errorB8ne200100Ev, symObjAddr: 0x151B4, symBinAddr: 0x3C804, symSize: 0x14 }
  - { offset: 0x1B948D, size: 0x8, addend: 0x0, symName: __ZNSt3__16vectorINS_4pairIccEENS_9allocatorIS2_EEE20__throw_length_errorB8ne200100Ev, symObjAddr: 0x151C8, symBinAddr: 0x3C818, symSize: 0x14 }
  - { offset: 0x1B94B5, size: 0x8, addend: 0x0, symName: __ZNSt3__128__begin_marked_subexpressionIcED1Ev, symObjAddr: 0x151DC, symBinAddr: 0x3C82C, symSize: 0x48 }
  - { offset: 0x1B94D9, size: 0x8, addend: 0x0, symName: __ZNSt3__128__begin_marked_subexpressionIcED1Ev, symObjAddr: 0x151DC, symBinAddr: 0x3C82C, symSize: 0x48 }
  - { offset: 0x1B94F7, size: 0x8, addend: 0x0, symName: __ZNSt3__128__begin_marked_subexpressionIcED1Ev, symObjAddr: 0x151DC, symBinAddr: 0x3C82C, symSize: 0x48 }
  - { offset: 0x1B953E, size: 0x8, addend: 0x0, symName: __ZNSt3__128__begin_marked_subexpressionIcED0Ev, symObjAddr: 0x15224, symBinAddr: 0x3C874, symSize: 0x48 }
  - { offset: 0x1B956E, size: 0x8, addend: 0x0, symName: __ZNSt3__128__begin_marked_subexpressionIcED0Ev, symObjAddr: 0x15224, symBinAddr: 0x3C874, symSize: 0x48 }
  - { offset: 0x1B958C, size: 0x8, addend: 0x0, symName: __ZNSt3__128__begin_marked_subexpressionIcED0Ev, symObjAddr: 0x15224, symBinAddr: 0x3C874, symSize: 0x48 }
  - { offset: 0x1B95AA, size: 0x8, addend: 0x0, symName: __ZNSt3__128__begin_marked_subexpressionIcED0Ev, symObjAddr: 0x15224, symBinAddr: 0x3C874, symSize: 0x48 }
  - { offset: 0x1B95D5, size: 0x8, addend: 0x0, symName: __ZNKSt3__128__begin_marked_subexpressionIcE6__execERNS_7__stateIcEE, symObjAddr: 0x1526C, symBinAddr: 0x3C8BC, symSize: 0x30 }
  - { offset: 0x1B9661, size: 0x8, addend: 0x0, symName: __ZNSt3__126__end_marked_subexpressionIcED1Ev, symObjAddr: 0x1529C, symBinAddr: 0x3C8EC, symSize: 0x48 }
  - { offset: 0x1B9685, size: 0x8, addend: 0x0, symName: __ZNSt3__126__end_marked_subexpressionIcED1Ev, symObjAddr: 0x1529C, symBinAddr: 0x3C8EC, symSize: 0x48 }
  - { offset: 0x1B96A3, size: 0x8, addend: 0x0, symName: __ZNSt3__126__end_marked_subexpressionIcED1Ev, symObjAddr: 0x1529C, symBinAddr: 0x3C8EC, symSize: 0x48 }
  - { offset: 0x1B96EA, size: 0x8, addend: 0x0, symName: __ZNSt3__126__end_marked_subexpressionIcED0Ev, symObjAddr: 0x152E4, symBinAddr: 0x3C934, symSize: 0x48 }
  - { offset: 0x1B971A, size: 0x8, addend: 0x0, symName: __ZNSt3__126__end_marked_subexpressionIcED0Ev, symObjAddr: 0x152E4, symBinAddr: 0x3C934, symSize: 0x48 }
  - { offset: 0x1B9738, size: 0x8, addend: 0x0, symName: __ZNSt3__126__end_marked_subexpressionIcED0Ev, symObjAddr: 0x152E4, symBinAddr: 0x3C934, symSize: 0x48 }
  - { offset: 0x1B9756, size: 0x8, addend: 0x0, symName: __ZNSt3__126__end_marked_subexpressionIcED0Ev, symObjAddr: 0x152E4, symBinAddr: 0x3C934, symSize: 0x48 }
  - { offset: 0x1B9781, size: 0x8, addend: 0x0, symName: __ZNKSt3__126__end_marked_subexpressionIcE6__execERNS_7__stateIcEE, symObjAddr: 0x1532C, symBinAddr: 0x3C97C, symSize: 0x38 }
  - { offset: 0x1B9A3E, size: 0x8, addend: 0x0, symName: __ZNSt3__16__loopIcED0Ev, symObjAddr: 0x155A0, symBinAddr: 0x3CBF0, symSize: 0x68 }
  - { offset: 0x1B9B2F, size: 0x8, addend: 0x0, symName: __ZNSt3__16__loopIcED1Ev, symObjAddr: 0x15538, symBinAddr: 0x3CB88, symSize: 0x68 }
  - { offset: 0x1B9C51, size: 0x8, addend: 0x0, symName: __ZNKSt3__16__loopIcE6__execERNS_7__stateIcEE, symObjAddr: 0x15608, symBinAddr: 0x3CC58, symSize: 0x1D8 }
  - { offset: 0x1B9D84, size: 0x8, addend: 0x0, symName: __ZNKSt3__16__loopIcE12__exec_splitEbRNS_7__stateIcEE, symObjAddr: 0x157E0, symBinAddr: 0x3CE30, symSize: 0xC8 }
  - { offset: 0x1B9E55, size: 0x8, addend: 0x0, symName: __ZNSt3__117__owns_two_statesIcED1Ev, symObjAddr: 0x158A8, symBinAddr: 0x3CEF8, symSize: 0x68 }
  - { offset: 0x1B9EE3, size: 0x8, addend: 0x0, symName: __ZNSt3__117__owns_two_statesIcED0Ev, symObjAddr: 0x15910, symBinAddr: 0x3CF60, symSize: 0x68 }
  - { offset: 0x1B9F7D, size: 0x8, addend: 0x0, symName: __ZNSt3__117__repeat_one_loopIcED1Ev, symObjAddr: 0x15978, symBinAddr: 0x3CFC8, symSize: 0x4 }
  - { offset: 0x1B9FA9, size: 0x8, addend: 0x0, symName: __ZNSt3__117__repeat_one_loopIcED0Ev, symObjAddr: 0x1597C, symBinAddr: 0x3CFCC, symSize: 0x4 }
  - { offset: 0x1B9FD5, size: 0x8, addend: 0x0, symName: __ZNKSt3__117__repeat_one_loopIcE6__execERNS_7__stateIcEE, symObjAddr: 0x15980, symBinAddr: 0x3CFD0, symSize: 0x14 }
  - { offset: 0x1BA042, size: 0x8, addend: 0x0, symName: __ZNSt3__111__alternateIcED1Ev, symObjAddr: 0x15994, symBinAddr: 0x3CFE4, symSize: 0x68 }
  - { offset: 0x1BA0F0, size: 0x8, addend: 0x0, symName: __ZNSt3__111__alternateIcED0Ev, symObjAddr: 0x159FC, symBinAddr: 0x3D04C, symSize: 0x68 }
  - { offset: 0x1BA1AA, size: 0x8, addend: 0x0, symName: __ZNKSt3__111__alternateIcE6__execERNS_7__stateIcEE, symObjAddr: 0x15A64, symBinAddr: 0x3D0B4, symSize: 0xC }
  - { offset: 0x1BA1DD, size: 0x8, addend: 0x0, symName: __ZNKSt3__111__alternateIcE12__exec_splitEbRNS_7__stateIcEE, symObjAddr: 0x15A70, symBinAddr: 0x3D0C0, symSize: 0x24 }
  - { offset: 0x1BA223, size: 0x8, addend: 0x0, symName: __ZNSt3__121__empty_non_own_stateIcED1Ev, symObjAddr: 0x15A94, symBinAddr: 0x3D0E4, symSize: 0x4 }
  - { offset: 0x1BA24F, size: 0x8, addend: 0x0, symName: __ZNSt3__121__empty_non_own_stateIcED0Ev, symObjAddr: 0x15A98, symBinAddr: 0x3D0E8, symSize: 0x4 }
  - { offset: 0x1BA27B, size: 0x8, addend: 0x0, symName: __ZNKSt3__121__empty_non_own_stateIcE6__execERNS_7__stateIcEE, symObjAddr: 0x15A9C, symBinAddr: 0x3D0EC, symSize: 0x14 }
  - { offset: 0x1BA3CA, size: 0x8, addend: 0x0, symName: __ZNSt3__111basic_regexIcNS_12regex_traitsIcEEE32__parse_one_char_or_coll_elem_REINS_11__wrap_iterIPKcEEEET_S9_S9_, symObjAddr: 0x15F7C, symBinAddr: 0x3D5CC, symSize: 0x18C }
  - { offset: 0x1BA759, size: 0x8, addend: 0x0, symName: __ZNSt3__111__match_anyIcED1Ev, symObjAddr: 0x16108, symBinAddr: 0x3D758, symSize: 0x48 }
  - { offset: 0x1BA77D, size: 0x8, addend: 0x0, symName: __ZNSt3__111__match_anyIcED1Ev, symObjAddr: 0x16108, symBinAddr: 0x3D758, symSize: 0x48 }
  - { offset: 0x1BA79B, size: 0x8, addend: 0x0, symName: __ZNSt3__111__match_anyIcED1Ev, symObjAddr: 0x16108, symBinAddr: 0x3D758, symSize: 0x48 }
  - { offset: 0x1BA7E2, size: 0x8, addend: 0x0, symName: __ZNSt3__111__match_anyIcED0Ev, symObjAddr: 0x16150, symBinAddr: 0x3D7A0, symSize: 0x48 }
  - { offset: 0x1BA812, size: 0x8, addend: 0x0, symName: __ZNSt3__111__match_anyIcED0Ev, symObjAddr: 0x16150, symBinAddr: 0x3D7A0, symSize: 0x48 }
  - { offset: 0x1BA830, size: 0x8, addend: 0x0, symName: __ZNSt3__111__match_anyIcED0Ev, symObjAddr: 0x16150, symBinAddr: 0x3D7A0, symSize: 0x48 }
  - { offset: 0x1BA84E, size: 0x8, addend: 0x0, symName: __ZNSt3__111__match_anyIcED0Ev, symObjAddr: 0x16150, symBinAddr: 0x3D7A0, symSize: 0x48 }
  - { offset: 0x1BA879, size: 0x8, addend: 0x0, symName: __ZNKSt3__111__match_anyIcE6__execERNS_7__stateIcEE, symObjAddr: 0x16198, symBinAddr: 0x3D7E8, symSize: 0x40 }
  - { offset: 0x1BA8C9, size: 0x8, addend: 0x0, symName: __ZNSt3__111basic_regexIcNS_12regex_traitsIcEEE15__test_back_refEc, symObjAddr: 0x161D8, symBinAddr: 0x3D828, symSize: 0x60 }
  - { offset: 0x1BA9C2, size: 0x8, addend: 0x0, symName: __ZNSt3__111basic_regexIcNS_12regex_traitsIcEEE22__parse_ERE_expressionINS_11__wrap_iterIPKcEEEET_S9_S9_, symObjAddr: 0x16238, symBinAddr: 0x3D888, symSize: 0x1F0 }
  - { offset: 0x1BA9CD, size: 0x8, addend: 0x0, symName: __ZNSt3__111basic_regexIcNS_12regex_traitsIcEEE33__parse_one_char_or_coll_elem_EREINS_11__wrap_iterIPKcEEEET_S9_S9_, symObjAddr: 0x16428, symBinAddr: 0x3DA78, symSize: 0x158 }
  - { offset: 0x1BABE9, size: 0x8, addend: 0x0, symName: __ZNSt3__111basic_regexIcNS_12regex_traitsIcEEE23__parse_QUOTED_CHAR_EREINS_11__wrap_iterIPKcEEEET_S9_S9_, symObjAddr: 0x16580, symBinAddr: 0x3DBD0, symSize: 0xC8 }
  - { offset: 0x1BADC9, size: 0x8, addend: 0x0, symName: __ZNSt3__128__exception_guard_exceptionsINS_29_AllocatorDestroyRangeReverseINS_9allocatorINS_6vectorI21llama_grammar_elementNS2_IS4_EEEEEEPS6_EEED1B8ne200100Ev, symObjAddr: 0x167C8, symBinAddr: 0x3DD90, symSize: 0x6C }
  - { offset: 0x1E8CCE, size: 0x8, addend: 0x0, symName: __ZNSt3__125__throw_bad_function_callB8ne200100Ev, symObjAddr: 0xAE58, symBinAddr: 0x48B8C, symSize: 0x34 }
  - { offset: 0x1E90C6, size: 0x8, addend: 0x0, symName: __ZNSt3__111make_uniqueB8ne200100I24llm_graph_input_samplingJRKNS_3mapIiP13llama_samplerNS_4lessIiEENS_9allocatorINS_4pairIKiS4_EEEEEEELi0EEENS_10unique_ptrIT_NS_14default_deleteISG_EEEEDpOT0_, symObjAddr: 0x9B1C, symBinAddr: 0x47DAC, symSize: 0xF4 }
  - { offset: 0x1F2FFD, size: 0x8, addend: 0x0, symName: __ZN20llm_graph_input_embd9set_inputEPK12llama_ubatch, symObjAddr: 0x0, symBinAddr: 0x3E36C, symSize: 0xD8 }
  - { offset: 0x1F30C7, size: 0x8, addend: 0x0, symName: __ZN20llm_graph_input_embd9can_reuseERK16llm_graph_params, symObjAddr: 0xD8, symBinAddr: 0x3E444, symSize: 0x68 }
  - { offset: 0x1F312C, size: 0x8, addend: 0x0, symName: __ZN20llm_graph_input_embd9can_reuseERK16llm_graph_params, symObjAddr: 0xD8, symBinAddr: 0x3E444, symSize: 0x68 }
  - { offset: 0x1F33BD, size: 0x8, addend: 0x0, symName: __ZN19llm_graph_input_pos9set_inputEPK12llama_ubatch, symObjAddr: 0x140, symBinAddr: 0x3E4AC, symSize: 0x1FC }
  - { offset: 0x1F376B, size: 0x8, addend: 0x0, symName: __ZN19llm_graph_input_pos9can_reuseERK16llm_graph_params, symObjAddr: 0x33C, symBinAddr: 0x3E6A8, symSize: 0x24 }
  - { offset: 0x1F3A26, size: 0x8, addend: 0x0, symName: __ZN25llm_graph_input_attn_temp9set_inputEPK12llama_ubatch, symObjAddr: 0x360, symBinAddr: 0x3E6CC, symSize: 0x274 }
  - { offset: 0x1F3E7D, size: 0x8, addend: 0x0, symName: __ZN26llm_graph_input_pos_bucket9set_inputEPK12llama_ubatch, symObjAddr: 0x5D4, symBinAddr: 0x3E940, symSize: 0x3E0 }
  - { offset: 0x1F3FB7, size: 0x8, addend: 0x0, symName: __Z30llama_relative_position_bucketiiyb, symObjAddr: 0x9B4, symBinAddr: 0x3ED20, symSize: 0xAC }
  - { offset: 0x1F3FE6, size: 0x8, addend: 0x0, symName: __Z30llama_relative_position_bucketiiyb, symObjAddr: 0x9B4, symBinAddr: 0x3ED20, symSize: 0xAC }
  - { offset: 0x1F404B, size: 0x8, addend: 0x0, symName: __ZN29llm_graph_input_pos_bucket_kv9set_inputEPK12llama_ubatch, symObjAddr: 0xA60, symBinAddr: 0x3EDCC, symSize: 0x18 }
  - { offset: 0x1F4083, size: 0x8, addend: 0x0, symName: __ZN23llm_graph_input_out_ids9set_inputEPK12llama_ubatch, symObjAddr: 0xA78, symBinAddr: 0x3EDE4, symSize: 0x164 }
  - { offset: 0x1F4153, size: 0x8, addend: 0x0, symName: __ZN23llm_graph_input_out_ids9can_reuseERK16llm_graph_params, symObjAddr: 0xBDC, symBinAddr: 0x3EF48, symSize: 0x1C }
  - { offset: 0x1F4166, size: 0x8, addend: 0x0, symName: __ZN23llm_graph_input_out_ids9can_reuseERK16llm_graph_params, symObjAddr: 0xBDC, symBinAddr: 0x3EF48, symSize: 0x1C }
  - { offset: 0x1F4421, size: 0x8, addend: 0x0, symName: __ZN20llm_graph_input_mean9set_inputEPK12llama_ubatch, symObjAddr: 0xBF8, symBinAddr: 0x3EF64, symSize: 0x3DC }
  - { offset: 0x1F4C43, size: 0x8, addend: 0x0, symName: __ZN19llm_graph_input_cls9set_inputEPK12llama_ubatch, symObjAddr: 0xFD4, symBinAddr: 0x3F340, symSize: 0x370 }
  - { offset: 0x1F525D, size: 0x8, addend: 0x0, symName: __ZN18llm_graph_input_rs9set_inputEPK12llama_ubatch, symObjAddr: 0x1344, symBinAddr: 0x3F6B0, symSize: 0xA0 }
  - { offset: 0x1F52DD, size: 0x8, addend: 0x0, symName: __ZN18llm_graph_input_rs9can_reuseERK16llm_graph_params, symObjAddr: 0x13E4, symBinAddr: 0x3F750, symSize: 0xB4 }
  - { offset: 0x1F52F0, size: 0x8, addend: 0x0, symName: __ZN18llm_graph_input_rs9can_reuseERK16llm_graph_params, symObjAddr: 0x13E4, symBinAddr: 0x3F750, symSize: 0xB4 }
  - { offset: 0x1F5366, size: 0x8, addend: 0x0, symName: __ZN26llm_graph_input_cross_embd9set_inputEPK12llama_ubatch, symObjAddr: 0x1498, symBinAddr: 0x3F804, symSize: 0x54 }
  - { offset: 0x1F53F6, size: 0x8, addend: 0x0, symName: __ZN29llm_graph_input_attn_no_cache9set_inputEPK12llama_ubatch, symObjAddr: 0x14EC, symBinAddr: 0x3F858, symSize: 0x350 }
  - { offset: 0x1F57CB, size: 0x8, addend: 0x0, symName: __ZL10print_maskPKfxxx14llama_swa_type, symObjAddr: 0x183C, symBinAddr: 0x3FBA8, symSize: 0x20C }
  - { offset: 0x1F5917, size: 0x8, addend: 0x0, symName: __ZL10print_maskPKfxxx14llama_swa_type, symObjAddr: 0x183C, symBinAddr: 0x3FBA8, symSize: 0x20C }
  - { offset: 0x1F5B1E, size: 0x8, addend: 0x0, symName: __ZN23llm_graph_input_attn_kv9set_inputEPK12llama_ubatch, symObjAddr: 0x1A48, symBinAddr: 0x3FDB4, symSize: 0x54 }
  - { offset: 0x1F5B58, size: 0x8, addend: 0x0, symName: __ZN23llm_graph_input_attn_kv9can_reuseERK16llm_graph_params, symObjAddr: 0x1A9C, symBinAddr: 0x3FE08, symSize: 0x74 }
  - { offset: 0x1F5BB2, size: 0x8, addend: 0x0, symName: __ZN22llm_graph_input_attn_k9set_inputEPK12llama_ubatch, symObjAddr: 0x1B10, symBinAddr: 0x3FE7C, symSize: 0x44 }
  - { offset: 0x1F5BEC, size: 0x8, addend: 0x0, symName: __ZN22llm_graph_input_attn_k9can_reuseERK16llm_graph_params, symObjAddr: 0x1B54, symBinAddr: 0x3FEC0, symSize: 0x70 }
  - { offset: 0x1F5C46, size: 0x8, addend: 0x0, symName: __ZN28llm_graph_input_attn_kv_iswa9set_inputEPK12llama_ubatch, symObjAddr: 0x1BC4, symBinAddr: 0x3FF30, symSize: 0xA8 }
  - { offset: 0x1F5C80, size: 0x8, addend: 0x0, symName: __ZN28llm_graph_input_attn_kv_iswa9can_reuseERK16llm_graph_params, symObjAddr: 0x1C6C, symBinAddr: 0x3FFD8, symSize: 0xE0 }
  - { offset: 0x1F5DB0, size: 0x8, addend: 0x0, symName: __ZN26llm_graph_input_attn_cross9set_inputEPK12llama_ubatch, symObjAddr: 0x1D4C, symBinAddr: 0x400B8, symSize: 0x1E4 }
  - { offset: 0x1F5FCD, size: 0x8, addend: 0x0, symName: __ZN26llm_graph_input_mem_hybrid9set_inputEPK12llama_ubatch, symObjAddr: 0x1F30, symBinAddr: 0x4029C, symSize: 0x100 }
  - { offset: 0x1F6018, size: 0x8, addend: 0x0, symName: __ZN26llm_graph_input_mem_hybrid9set_inputEPK12llama_ubatch, symObjAddr: 0x1F30, symBinAddr: 0x4029C, symSize: 0x100 }
  - { offset: 0x1F611A, size: 0x8, addend: 0x0, symName: __ZN26llm_graph_input_mem_hybrid9can_reuseERK16llm_graph_params, symObjAddr: 0x2030, symBinAddr: 0x4039C, symSize: 0x13C }
  - { offset: 0x1F612D, size: 0x8, addend: 0x0, symName: __ZN26llm_graph_input_mem_hybrid9can_reuseERK16llm_graph_params, symObjAddr: 0x2030, symBinAddr: 0x4039C, symSize: 0x13C }
  - { offset: 0x1F623E, size: 0x8, addend: 0x0, symName: __ZN31llm_graph_input_mem_hybrid_iswa9set_inputEPK12llama_ubatch, symObjAddr: 0x216C, symBinAddr: 0x404D8, symSize: 0x180 }
  - { offset: 0x1F63E1, size: 0x8, addend: 0x0, symName: __ZN31llm_graph_input_mem_hybrid_iswa9can_reuseERK16llm_graph_params, symObjAddr: 0x22EC, symBinAddr: 0x40658, symSize: 0x190 }
  - { offset: 0x1F63F4, size: 0x8, addend: 0x0, symName: __ZN31llm_graph_input_mem_hybrid_iswa9can_reuseERK16llm_graph_params, symObjAddr: 0x22EC, symBinAddr: 0x40658, symSize: 0x190 }
  - { offset: 0x1F6E5E, size: 0x8, addend: 0x0, symName: __ZN24llm_graph_input_sampling9set_inputEPK12llama_ubatch, symObjAddr: 0x247C, symBinAddr: 0x407E8, symSize: 0x1FC }
  - { offset: 0x1F770E, size: 0x8, addend: 0x0, symName: __ZNSt3__112__hash_tableIiNS_4hashIiEENS_8equal_toIiEENS_9allocatorIiEEE25__emplace_unique_key_argsIiJRKiEEENS_4pairINS_15__hash_iteratorIPNS_11__hash_nodeIiPvEEEEbEERKT_DpOT0_, symObjAddr: 0xA6A8, symBinAddr: 0x48694, symSize: 0x320 }
  - { offset: 0x1F7D87, size: 0x8, addend: 0x0, symName: __ZNSt3__113unordered_setIiNS_4hashIiEENS_8equal_toIiEENS_9allocatorIiEEED1B8ne200100Ev, symObjAddr: 0x2678, symBinAddr: 0x409E4, symSize: 0x48 }
  - { offset: 0x1F80DC, size: 0x8, addend: 0x0, symName: __ZN24llm_graph_input_sampling9can_reuseERK16llm_graph_params, symObjAddr: 0x26C0, symBinAddr: 0x40A2C, symSize: 0x150 }
  - { offset: 0x1F8118, size: 0x8, addend: 0x0, symName: __ZN24llm_graph_input_sampling9can_reuseERK16llm_graph_params, symObjAddr: 0x26C0, symBinAddr: 0x40A2C, symSize: 0x150 }
  - { offset: 0x1F89FE, size: 0x8, addend: 0x0, symName: __ZN16llm_graph_resultC2Ex, symObjAddr: 0x2810, symBinAddr: 0x40B7C, symSize: 0x268 }
  - { offset: 0x1F91DE, size: 0x8, addend: 0x0, symName: __ZN16llm_graph_result5resetEv, symObjAddr: 0x2A78, symBinAddr: 0x40DE4, symSize: 0x5BC }
  - { offset: 0x1FA05F, size: 0x8, addend: 0x0, symName: __ZNSt3__16vectorINS_10unique_ptrI17llm_graph_input_iNS_14default_deleteIS2_EEEENS_9allocatorIS5_EEED1B8ne200100Ev, symObjAddr: 0x3110, symBinAddr: 0x413A0, symSize: 0x74 }
  - { offset: 0x1FA27F, size: 0x8, addend: 0x0, symName: __ZNSt3__16__treeINS_12__value_typeIiP11ggml_tensorEENS_19__map_value_compareIiS4_NS_4lessIiEELb1EEENS_9allocatorIS4_EEE7destroyEPNS_11__tree_nodeIS4_PvEE, symObjAddr: 0xAB48, symBinAddr: 0x48B34, symSize: 0x44 }
  - { offset: 0x1FAE62, size: 0x8, addend: 0x0, symName: __ZNSt3__16vectorINS_10unique_ptrI17llm_graph_input_iNS_14default_deleteIS2_EEEENS_9allocatorIS5_EEE20__throw_length_errorB8ne200100Ev, symObjAddr: 0xABA0, symBinAddr: 0x48B78, symSize: 0x14 }
  - { offset: 0x1FAF1B, size: 0x8, addend: 0x0, symName: __ZN16llm_graph_resultC1Ex, symObjAddr: 0x3184, symBinAddr: 0x41414, symSize: 0x4 }
  - { offset: 0x1FAF58, size: 0x8, addend: 0x0, symName: __ZN16llm_graph_resultC1Ex, symObjAddr: 0x3184, symBinAddr: 0x41414, symSize: 0x4 }
  - { offset: 0x1FAF72, size: 0x8, addend: 0x0, symName: __ZNK16llm_graph_result13get_max_nodesEv, symObjAddr: 0x3188, symBinAddr: 0x41418, symSize: 0x8 }
  - { offset: 0x1FAFC8, size: 0x8, addend: 0x0, symName: __ZN16llm_graph_result10set_inputsEPK12llama_ubatch, symObjAddr: 0x3190, symBinAddr: 0x41420, symSize: 0x4C }
  - { offset: 0x1FB150, size: 0x8, addend: 0x0, symName: __ZN16llm_graph_result11set_outputsEv, symObjAddr: 0x31DC, symBinAddr: 0x4146C, symSize: 0x1A8 }
  - { offset: 0x1FB7E9, size: 0x8, addend: 0x0, symName: __ZN16llm_graph_result9can_reuseERK16llm_graph_params, symObjAddr: 0x3384, symBinAddr: 0x41614, symSize: 0x150 }
  - { offset: 0x1FB981, size: 0x8, addend: 0x0, symName: __ZNK16llm_graph_params11allow_reuseERKS_, symObjAddr: 0x34D4, symBinAddr: 0x41764, symSize: 0x3A8 }
  - { offset: 0x1FC2AB, size: 0x8, addend: 0x0, symName: __ZN16llm_graph_result9add_inputENSt3__110unique_ptrI17llm_graph_input_iNS0_14default_deleteIS2_EEEE, symObjAddr: 0x387C, symBinAddr: 0x41B0C, symSize: 0xF8 }
  - { offset: 0x1FC7B1, size: 0x8, addend: 0x0, symName: __ZN16llm_graph_result10set_paramsERK16llm_graph_params, symObjAddr: 0x3974, symBinAddr: 0x41C04, symSize: 0x8 }
  - { offset: 0x1FC7BC, size: 0x8, addend: 0x0, symName: __ZNSt3__16vectorINS_10unique_ptrI17llm_graph_input_iNS_14default_deleteIS2_EEEENS_9allocatorIS5_EEE20__throw_length_errorB8ne200100Ev, symObjAddr: 0xABA0, symBinAddr: 0x48B78, symSize: 0x14 }
  - { offset: 0x1FC7DF, size: 0x8, addend: 0x0, symName: __ZN16llm_graph_result10set_paramsERK16llm_graph_params, symObjAddr: 0x3974, symBinAddr: 0x41C04, symSize: 0x8 }
  - { offset: 0x1FC81E, size: 0x8, addend: 0x0, symName: __ZN16llm_graph_paramsaSERKS_, symObjAddr: 0x397C, symBinAddr: 0x41C0C, symSize: 0x1D8 }
  - { offset: 0x1FCE44, size: 0x8, addend: 0x0, symName: __ZNSt3__16__treeINS_12__value_typeIiP13llama_samplerEENS_19__map_value_compareIiS4_NS_4lessIiEELb1EEENS_9allocatorIS4_EEE14__assign_multiINS_21__tree_const_iteratorIS4_PNS_11__tree_nodeIS4_PvEElEEEEvT_SJ_, symObjAddr: 0x9F54, symBinAddr: 0x48190, symSize: 0x328 }
  - { offset: 0x1FD4CC, size: 0x8, addend: 0x0, symName: __ZNSt3__110__function12__value_funcIFvRK12llama_ubatchP11ggml_tensorPKciEE4swapB8ne200100ERSA_, symObjAddr: 0xA450, symBinAddr: 0x484B8, symSize: 0x198 }
  - { offset: 0x1FE060, size: 0x8, addend: 0x0, symName: __ZN17llm_graph_contextC2ERK16llm_graph_params, symObjAddr: 0x3B54, symBinAddr: 0x41DE4, symSize: 0x1DC }
  - { offset: 0x1FE4F2, size: 0x8, addend: 0x0, symName: __ZN17llm_graph_contextC1ERK16llm_graph_params, symObjAddr: 0x3D30, symBinAddr: 0x41FC0, symSize: 0x4 }
  - { offset: 0x1FE52F, size: 0x8, addend: 0x0, symName: __ZN17llm_graph_contextC1ERK16llm_graph_params, symObjAddr: 0x3D30, symBinAddr: 0x41FC0, symSize: 0x4 }
  - { offset: 0x1FE60F, size: 0x8, addend: 0x0, symName: __ZNK17llm_graph_context2cbEP11ggml_tensorPKci, symObjAddr: 0x3D34, symBinAddr: 0x41FC4, symSize: 0x54 }
  - { offset: 0x1FE716, size: 0x8, addend: 0x0, symName: __ZNK17llm_graph_context10build_cvecEP11ggml_tensori, symObjAddr: 0x3D88, symBinAddr: 0x42018, symSize: 0x18 }
  - { offset: 0x1FE7A8, size: 0x8, addend: 0x0, symName: __ZNK17llm_graph_context13build_lora_mmEP11ggml_tensorS1_, symObjAddr: 0x3DA0, symBinAddr: 0x42030, symSize: 0xEC }
  - { offset: 0x1FE98F, size: 0x8, addend: 0x0, symName: __ZNK17llm_graph_context16build_lora_mm_idEP11ggml_tensorS1_S1_, symObjAddr: 0x3E8C, symBinAddr: 0x4211C, symSize: 0x100 }
  - { offset: 0x1FEB7F, size: 0x8, addend: 0x0, symName: __ZNK17llm_graph_context10build_normEP11ggml_tensorS1_S1_13llm_norm_typei, symObjAddr: 0x3F8C, symBinAddr: 0x4221C, symSize: 0x180 }
  - { offset: 0x1FEF2E, size: 0x8, addend: 0x0, symName: __ZNK17llm_graph_context9build_ffnEP11ggml_tensorS1_S1_S1_S1_S1_S1_S1_S1_S1_S1_15llm_ffn_op_type17llm_ffn_gate_typei, symObjAddr: 0x410C, symBinAddr: 0x4239C, symSize: 0x6BC }
  - { offset: 0x20005A, size: 0x8, addend: 0x0, symName: __ZNK17llm_graph_context13build_moe_ffnEP11ggml_tensorS1_S1_S1_S1_S1_xx15llm_ffn_op_typebbf29llama_expert_gating_func_typeiS1_, symObjAddr: 0x47C8, symBinAddr: 0x42A58, symSize: 0x6C }
  - { offset: 0x20019C, size: 0x8, addend: 0x0, symName: __ZNK17llm_graph_context13build_moe_ffnEP11ggml_tensorS1_S1_S1_S1_S1_xx15llm_ffn_op_typebbf29llama_expert_gating_func_typeiS1_, symObjAddr: 0x47C8, symBinAddr: 0x42A58, symSize: 0x6C }
  - { offset: 0x2002FA, size: 0x8, addend: 0x0, symName: __ZNK17llm_graph_context13build_moe_ffnEP11ggml_tensorS1_S1_S1_S1_S1_S1_S1_S1_S1_xx15llm_ffn_op_typebbf29llama_expert_gating_func_typeiS1_, symObjAddr: 0x4834, symBinAddr: 0x42AC4, symSize: 0xE2C }
  - { offset: 0x2026B6, size: 0x8, addend: 0x0, symName: __ZNK17llm_graph_context14build_inp_embdEP11ggml_tensor, symObjAddr: 0x5660, symBinAddr: 0x438F0, symSize: 0x40C }
  - { offset: 0x202962, size: 0x8, addend: 0x0, symName: __ZNK17llm_graph_context14build_inp_embdEP11ggml_tensor, symObjAddr: 0x5660, symBinAddr: 0x438F0, symSize: 0x40C }
  - { offset: 0x2034CF, size: 0x8, addend: 0x0, symName: __ZNK17llm_graph_context13build_inp_posEv, symObjAddr: 0x5A6C, symBinAddr: 0x43CFC, symSize: 0x17C }
  - { offset: 0x203AA8, size: 0x8, addend: 0x0, symName: __ZNK17llm_graph_context20build_inp_attn_scaleEv, symObjAddr: 0x5BE8, symBinAddr: 0x43E78, symSize: 0x180 }
  - { offset: 0x2040CD, size: 0x8, addend: 0x0, symName: __ZNK17llm_graph_context17build_inp_out_idsEv, symObjAddr: 0x5D68, symBinAddr: 0x43FF8, symSize: 0x19C }
  - { offset: 0x204688, size: 0x8, addend: 0x0, symName: __ZNK17llm_graph_context14build_inp_meanEv, symObjAddr: 0x5F04, symBinAddr: 0x44194, symSize: 0x188 }
  - { offset: 0x204C33, size: 0x8, addend: 0x0, symName: __ZNK17llm_graph_context13build_inp_clsEv, symObjAddr: 0x608C, symBinAddr: 0x4431C, symSize: 0x18C }
  - { offset: 0x2051DD, size: 0x8, addend: 0x0, symName: __ZNK17llm_graph_context20build_inp_cross_embdEv, symObjAddr: 0x6218, symBinAddr: 0x444A8, symSize: 0x1A0 }
  - { offset: 0x2057D1, size: 0x8, addend: 0x0, symName: __ZNK17llm_graph_context24build_inp_pos_bucket_encEv, symObjAddr: 0x63B8, symBinAddr: 0x44648, symSize: 0x170 }
  - { offset: 0x205D8D, size: 0x8, addend: 0x0, symName: __ZNK17llm_graph_context24build_inp_pos_bucket_decEv, symObjAddr: 0x6528, symBinAddr: 0x447B8, symSize: 0x1A4 }
  - { offset: 0x206324, size: 0x8, addend: 0x0, symName: __ZNK17llm_graph_context14build_pos_biasEP11ggml_tensorS1_, symObjAddr: 0x66CC, symBinAddr: 0x4495C, symSize: 0x118 }
  - { offset: 0x20662E, size: 0x8, addend: 0x0, symName: __ZNK17llm_graph_context14build_attn_mhaEP11ggml_tensorS1_S1_S1_S1_S1_S1_fi, symObjAddr: 0x67E4, symBinAddr: 0x44A74, symSize: 0x6FC }
  - { offset: 0x2078A0, size: 0x8, addend: 0x0, symName: __ZNK17llm_graph_context23build_attn_inp_no_cacheEv, symObjAddr: 0x6EE0, symBinAddr: 0x45170, symSize: 0x254 }
  - { offset: 0x207E8E, size: 0x8, addend: 0x0, symName: __ZNK17llm_graph_context10build_attnEP29llm_graph_input_attn_no_cacheP11ggml_tensorS3_S3_S3_S3_S3_S3_S3_fi, symObjAddr: 0x7134, symBinAddr: 0x453C4, symSize: 0x150 }
  - { offset: 0x2081F5, size: 0x8, addend: 0x0, symName: __ZNK17llm_graph_context17build_attn_inp_kvEv, symObjAddr: 0x7284, symBinAddr: 0x45514, symSize: 0x130 }
  - { offset: 0x20877F, size: 0x8, addend: 0x0, symName: __ZL22build_attn_inp_kv_implP12ggml_contextRK12llama_ubatchRK13llama_hparamsRK13llama_cparamsPK22llama_kv_cache_context, symObjAddr: 0x73B4, symBinAddr: 0x45644, symSize: 0x1C0 }
  - { offset: 0x208BAF, size: 0x8, addend: 0x0, symName: __ZNK17llm_graph_context10build_attnEP23llm_graph_input_attn_kvP11ggml_tensorS3_S3_S3_S3_S3_S3_S3_fi, symObjAddr: 0x7574, symBinAddr: 0x45804, symSize: 0x1EC }
  - { offset: 0x208F14, size: 0x8, addend: 0x0, symName: __ZNK17llm_graph_context16build_attn_inp_kEv, symObjAddr: 0x7760, symBinAddr: 0x459F0, symSize: 0x25C }
  - { offset: 0x209024, size: 0x8, addend: 0x0, symName: __ZNK17llm_graph_context16build_attn_inp_kEv, symObjAddr: 0x7760, symBinAddr: 0x459F0, symSize: 0x25C }
  - { offset: 0x20966D, size: 0x8, addend: 0x0, symName: __ZNK17llm_graph_context10build_attnEP22llm_graph_input_attn_kP11ggml_tensorS3_S3_S3_S3_S3_S3_S3_fi, symObjAddr: 0x79BC, symBinAddr: 0x45C4C, symSize: 0x1B0 }
  - { offset: 0x2099CC, size: 0x8, addend: 0x0, symName: __ZNK17llm_graph_context10build_attnEP28llm_graph_input_attn_kv_iswaP11ggml_tensorS3_S3_S3_S3_S3_S3_S3_fi, symObjAddr: 0x7B6C, symBinAddr: 0x45DFC, symSize: 0x274 }
  - { offset: 0x209D52, size: 0x8, addend: 0x0, symName: __ZNK17llm_graph_context20build_attn_inp_crossEv, symObjAddr: 0x7DE0, symBinAddr: 0x46070, symSize: 0x1C8 }
  - { offset: 0x20A332, size: 0x8, addend: 0x0, symName: __ZNK17llm_graph_context10build_attnEP26llm_graph_input_attn_crossP11ggml_tensorS3_S3_S3_S3_S3_S3_S3_fi, symObjAddr: 0x7FA8, symBinAddr: 0x46238, symSize: 0x134 }
  - { offset: 0x20A68E, size: 0x8, addend: 0x0, symName: __ZNK17llm_graph_context22build_attn_inp_kv_iswaEv, symObjAddr: 0x80DC, symBinAddr: 0x4636C, symSize: 0x350 }
  - { offset: 0x20AD9F, size: 0x8, addend: 0x0, symName: __ZNK17llm_graph_context8build_rsEP11ggml_tensorS1_S1_iijjjiRKNSt3__18functionIFS1_P12ggml_contextS1_S1_EEE, symObjAddr: 0x842C, symBinAddr: 0x466BC, symSize: 0x168 }
  - { offset: 0x20B007, size: 0x8, addend: 0x0, symName: __ZNK17llm_graph_context12build_rs_inpEv, symObjAddr: 0x8594, symBinAddr: 0x46824, symSize: 0x12C }
  - { offset: 0x20B108, size: 0x8, addend: 0x0, symName: __ZNK17llm_graph_context12build_rs_inpEv, symObjAddr: 0x8594, symBinAddr: 0x46824, symSize: 0x12C }
  - { offset: 0x20B692, size: 0x8, addend: 0x0, symName: __ZL17build_rs_inp_implP12ggml_contextRK12llama_ubatchPK30llama_memory_recurrent_context, symObjAddr: 0x86C0, symBinAddr: 0x46950, symSize: 0x108 }
  - { offset: 0x20BA26, size: 0x8, addend: 0x0, symName: __ZNK17llm_graph_context8build_rsEP18llm_graph_input_rsP11ggml_tensoriiRKNSt3__18functionIFS3_P12ggml_contextS3_S3_EEE, symObjAddr: 0x87C8, symBinAddr: 0x46A58, symSize: 0xB4 }
  - { offset: 0x20BDC1, size: 0x8, addend: 0x0, symName: __ZNK17llm_graph_context27build_rwkv_token_shift_loadEP18llm_graph_input_rsRK12llama_ubatchi, symObjAddr: 0x887C, symBinAddr: 0x46B0C, symSize: 0x1C8 }
  - { offset: 0x20C13D, size: 0x8, addend: 0x0, symName: __ZNK17llm_graph_context28build_rwkv_token_shift_storeEP11ggml_tensorRK12llama_ubatchi, symObjAddr: 0x8A44, symBinAddr: 0x46CD4, symSize: 0xE0 }
  - { offset: 0x20C368, size: 0x8, addend: 0x0, symName: __ZNK17llm_graph_context20build_inp_mem_hybridEv, symObjAddr: 0x8B24, symBinAddr: 0x46DB4, symSize: 0x214 }
  - { offset: 0x20CD29, size: 0x8, addend: 0x0, symName: __ZNK17llm_graph_context25build_inp_mem_hybrid_iswaEv, symObjAddr: 0x8D38, symBinAddr: 0x46FC8, symSize: 0x3A8 }
  - { offset: 0x20D69E, size: 0x8, addend: 0x0, symName: __ZNK17llm_graph_context15build_dense_outEP11ggml_tensorS1_, symObjAddr: 0x90E0, symBinAddr: 0x47370, symSize: 0x114 }
  - { offset: 0x20D827, size: 0x8, addend: 0x0, symName: __ZNK17llm_graph_context13build_poolingEP11ggml_tensorS1_S1_S1_, symObjAddr: 0x91F4, symBinAddr: 0x47484, symSize: 0x210 }
  - { offset: 0x20D83A, size: 0x8, addend: 0x0, symName: __ZNK17llm_graph_context13build_poolingEP11ggml_tensorS1_S1_S1_, symObjAddr: 0x91F4, symBinAddr: 0x47484, symSize: 0x210 }
  - { offset: 0x20DB6D, size: 0x8, addend: 0x0, symName: __ZNK17llm_graph_context14build_samplingEv, symObjAddr: 0x9404, symBinAddr: 0x47694, symSize: 0x718 }
  - { offset: 0x20E6DF, size: 0x8, addend: 0x0, symName: __ZNK17llm_graph_context14build_samplingEv, symObjAddr: 0x9404, symBinAddr: 0x47694, symSize: 0x718 }
  - { offset: 0x210266, size: 0x8, addend: 0x0, symName: __ZNSt3__16__treeINS_12__value_typeIiiEENS_19__map_value_compareIiS2_NS_4lessIiEELb1EEENS_9allocatorIS2_EEE7destroyEPNS_11__tree_nodeIS2_PvEE, symObjAddr: 0xA5F0, symBinAddr: 0x48650, symSize: 0x44 }
  - { offset: 0x2104C5, size: 0x8, addend: 0x0, symName: __ZN20llm_graph_input_embdD1Ev, symObjAddr: 0x9C10, symBinAddr: 0x47EA0, symSize: 0x4 }
  - { offset: 0x2104EE, size: 0x8, addend: 0x0, symName: __ZN20llm_graph_input_embdD0Ev, symObjAddr: 0x9C14, symBinAddr: 0x47EA4, symSize: 0x4 }
  - { offset: 0x210517, size: 0x8, addend: 0x0, symName: __ZN19llm_graph_input_posD1Ev, symObjAddr: 0x9C18, symBinAddr: 0x47EA8, symSize: 0x4 }
  - { offset: 0x210540, size: 0x8, addend: 0x0, symName: __ZN19llm_graph_input_posD0Ev, symObjAddr: 0x9C1C, symBinAddr: 0x47EAC, symSize: 0x4 }
  - { offset: 0x210569, size: 0x8, addend: 0x0, symName: __ZN25llm_graph_input_attn_tempD1Ev, symObjAddr: 0x9C20, symBinAddr: 0x47EB0, symSize: 0x4 }
  - { offset: 0x210592, size: 0x8, addend: 0x0, symName: __ZN25llm_graph_input_attn_tempD0Ev, symObjAddr: 0x9C24, symBinAddr: 0x47EB4, symSize: 0x4 }
  - { offset: 0x2105BB, size: 0x8, addend: 0x0, symName: __ZN17llm_graph_input_i9can_reuseERK16llm_graph_params, symObjAddr: 0x9C28, symBinAddr: 0x47EB8, symSize: 0x8 }
  - { offset: 0x2105F0, size: 0x8, addend: 0x0, symName: __ZN26llm_graph_input_pos_bucketD1Ev, symObjAddr: 0x9C30, symBinAddr: 0x47EC0, symSize: 0x4 }
  - { offset: 0x210619, size: 0x8, addend: 0x0, symName: __ZN26llm_graph_input_pos_bucketD0Ev, symObjAddr: 0x9C34, symBinAddr: 0x47EC4, symSize: 0x4 }
  - { offset: 0x210642, size: 0x8, addend: 0x0, symName: __ZN29llm_graph_input_pos_bucket_kvD1Ev, symObjAddr: 0x9C38, symBinAddr: 0x47EC8, symSize: 0x4 }
  - { offset: 0x21066B, size: 0x8, addend: 0x0, symName: __ZN29llm_graph_input_pos_bucket_kvD0Ev, symObjAddr: 0x9C3C, symBinAddr: 0x47ECC, symSize: 0x4 }
  - { offset: 0x210694, size: 0x8, addend: 0x0, symName: __ZN23llm_graph_input_out_idsD1Ev, symObjAddr: 0x9C40, symBinAddr: 0x47ED0, symSize: 0x4 }
  - { offset: 0x2106BD, size: 0x8, addend: 0x0, symName: __ZN23llm_graph_input_out_idsD0Ev, symObjAddr: 0x9C44, symBinAddr: 0x47ED4, symSize: 0x4 }
  - { offset: 0x2106E6, size: 0x8, addend: 0x0, symName: __ZN20llm_graph_input_meanD1Ev, symObjAddr: 0x9C48, symBinAddr: 0x47ED8, symSize: 0x4 }
  - { offset: 0x21070F, size: 0x8, addend: 0x0, symName: __ZN20llm_graph_input_meanD0Ev, symObjAddr: 0x9C4C, symBinAddr: 0x47EDC, symSize: 0x4 }
  - { offset: 0x210738, size: 0x8, addend: 0x0, symName: __ZN19llm_graph_input_clsD1Ev, symObjAddr: 0x9C50, symBinAddr: 0x47EE0, symSize: 0x4 }
  - { offset: 0x210761, size: 0x8, addend: 0x0, symName: __ZN19llm_graph_input_clsD0Ev, symObjAddr: 0x9C54, symBinAddr: 0x47EE4, symSize: 0x4 }
  - { offset: 0x21078A, size: 0x8, addend: 0x0, symName: __ZN18llm_graph_input_rsD1Ev, symObjAddr: 0x9C58, symBinAddr: 0x47EE8, symSize: 0x4 }
  - { offset: 0x2107B3, size: 0x8, addend: 0x0, symName: __ZN18llm_graph_input_rsD0Ev, symObjAddr: 0x9C5C, symBinAddr: 0x47EEC, symSize: 0x4 }
  - { offset: 0x2107DC, size: 0x8, addend: 0x0, symName: __ZN26llm_graph_input_cross_embdD1Ev, symObjAddr: 0x9C60, symBinAddr: 0x47EF0, symSize: 0x4 }
  - { offset: 0x210805, size: 0x8, addend: 0x0, symName: __ZN26llm_graph_input_cross_embdD0Ev, symObjAddr: 0x9C64, symBinAddr: 0x47EF4, symSize: 0x4 }
  - { offset: 0x21082E, size: 0x8, addend: 0x0, symName: __ZN29llm_graph_input_attn_no_cacheD1Ev, symObjAddr: 0x9C68, symBinAddr: 0x47EF8, symSize: 0x4 }
  - { offset: 0x210857, size: 0x8, addend: 0x0, symName: __ZN29llm_graph_input_attn_no_cacheD0Ev, symObjAddr: 0x9C6C, symBinAddr: 0x47EFC, symSize: 0x4 }
  - { offset: 0x210880, size: 0x8, addend: 0x0, symName: __ZN23llm_graph_input_attn_kvD1Ev, symObjAddr: 0x9C70, symBinAddr: 0x47F00, symSize: 0x4 }
  - { offset: 0x2108A9, size: 0x8, addend: 0x0, symName: __ZN23llm_graph_input_attn_kvD0Ev, symObjAddr: 0x9C74, symBinAddr: 0x47F04, symSize: 0x4 }
  - { offset: 0x2108D2, size: 0x8, addend: 0x0, symName: __ZN22llm_graph_input_attn_kD1Ev, symObjAddr: 0x9C78, symBinAddr: 0x47F08, symSize: 0x4 }
  - { offset: 0x2108FB, size: 0x8, addend: 0x0, symName: __ZN22llm_graph_input_attn_kD0Ev, symObjAddr: 0x9C7C, symBinAddr: 0x47F0C, symSize: 0x4 }
  - { offset: 0x210924, size: 0x8, addend: 0x0, symName: __ZN28llm_graph_input_attn_kv_iswaD1Ev, symObjAddr: 0x9C80, symBinAddr: 0x47F10, symSize: 0x4 }
  - { offset: 0x21094D, size: 0x8, addend: 0x0, symName: __ZN28llm_graph_input_attn_kv_iswaD0Ev, symObjAddr: 0x9C84, symBinAddr: 0x47F14, symSize: 0x4 }
  - { offset: 0x210976, size: 0x8, addend: 0x0, symName: __ZN26llm_graph_input_attn_crossD1Ev, symObjAddr: 0x9C88, symBinAddr: 0x47F18, symSize: 0x4 }
  - { offset: 0x21099F, size: 0x8, addend: 0x0, symName: __ZN26llm_graph_input_attn_crossD0Ev, symObjAddr: 0x9C8C, symBinAddr: 0x47F1C, symSize: 0x4 }
  - { offset: 0x2109E2, size: 0x8, addend: 0x0, symName: __ZN26llm_graph_input_mem_hybridD1Ev, symObjAddr: 0x9C90, symBinAddr: 0x47F20, symSize: 0x5C }
  - { offset: 0x210B79, size: 0x8, addend: 0x0, symName: __ZN26llm_graph_input_mem_hybridD0Ev, symObjAddr: 0x9CEC, symBinAddr: 0x47F7C, symSize: 0x5C }
  - { offset: 0x210D36, size: 0x8, addend: 0x0, symName: __ZN31llm_graph_input_mem_hybrid_iswaD1Ev, symObjAddr: 0x9D48, symBinAddr: 0x47FD8, symSize: 0x5C }
  - { offset: 0x210ECD, size: 0x8, addend: 0x0, symName: __ZN31llm_graph_input_mem_hybrid_iswaD0Ev, symObjAddr: 0x9DA4, symBinAddr: 0x48034, symSize: 0x5C }
  - { offset: 0x21108A, size: 0x8, addend: 0x0, symName: __ZN24llm_graph_input_samplingD1Ev, symObjAddr: 0x9E00, symBinAddr: 0x48090, symSize: 0x38 }
  - { offset: 0x21113E, size: 0x8, addend: 0x0, symName: __ZN24llm_graph_input_samplingD0Ev, symObjAddr: 0x9E38, symBinAddr: 0x480C8, symSize: 0x38 }
  - { offset: 0x2111FE, size: 0x8, addend: 0x0, symName: __ZN16llm_graph_resultD1Ev, symObjAddr: 0x9E70, symBinAddr: 0x48100, symSize: 0x4 }
  - { offset: 0x211221, size: 0x8, addend: 0x0, symName: __ZN16llm_graph_resultD1Ev, symObjAddr: 0x9E70, symBinAddr: 0x48100, symSize: 0x4 }
  - { offset: 0x211234, size: 0x8, addend: 0x0, symName: __ZN16llm_graph_resultD2Ev, symObjAddr: 0xAF98, symBinAddr: 0x48CCC, symSize: 0x150 }
  - { offset: 0x2119EF, size: 0x8, addend: 0x0, symName: __ZN16llm_graph_resultD0Ev, symObjAddr: 0x9E74, symBinAddr: 0x48104, symSize: 0x14 }
  - { offset: 0x211A6A, size: 0x8, addend: 0x0, symName: __ZN17llm_graph_contextD1Ev, symObjAddr: 0x9E88, symBinAddr: 0x48118, symSize: 0x3C }
  - { offset: 0x211B1E, size: 0x8, addend: 0x0, symName: __ZN17llm_graph_contextD0Ev, symObjAddr: 0x9EC4, symBinAddr: 0x48154, symSize: 0x3C }
  - { offset: 0x211F8D, size: 0x8, addend: 0x0, symName: __ZN17llm_graph_input_iD1Ev, symObjAddr: 0xA5E8, symBinAddr: 0x258210, symSize: 0x4 }
  - { offset: 0x211FB6, size: 0x8, addend: 0x0, symName: __ZN17llm_graph_input_iD0Ev, symObjAddr: 0xA5EC, symBinAddr: 0x258214, symSize: 0x4 }
  - { offset: 0x2123E2, size: 0x8, addend: 0x0, symName: __ZNSt3__112__hash_tableIiNS_4hashIiEENS_8equal_toIiEENS_9allocatorIiEEE11__do_rehashILb1EEEvm, symObjAddr: 0xA9C8, symBinAddr: 0x489B4, symSize: 0x180 }
  - { offset: 0x21276F, size: 0x8, addend: 0x0, symName: __ZNSt3__16__treeINS_12__value_typeIiP11ggml_tensorEENS_19__map_value_compareIiS4_NS_4lessIiEELb1EEENS_9allocatorIS4_EEE7destroyEPNS_11__tree_nodeIS4_PvEE, symObjAddr: 0xAB48, symBinAddr: 0x48B34, symSize: 0x44 }
  - { offset: 0x212CAA, size: 0x8, addend: 0x0, symName: __ZNSt3__117bad_function_callD1Ev, symObjAddr: 0xAE8C, symBinAddr: 0x48BC0, symSize: 0x4 }
  - { offset: 0x212CCC, size: 0x8, addend: 0x0, symName: __ZNSt3__117bad_function_callD1Ev, symObjAddr: 0xAE8C, symBinAddr: 0x48BC0, symSize: 0x4 }
  - { offset: 0x212D00, size: 0x8, addend: 0x0, symName: __ZNSt3__117bad_function_callD0Ev, symObjAddr: 0xAE90, symBinAddr: 0x48BC4, symSize: 0x14 }
  - { offset: 0x212D61, size: 0x8, addend: 0x0, symName: __ZNSt3__110__function6__funcIPFP11ggml_tensorP12ggml_contextS3_S3_ENS_9allocatorIS7_EES6_ED1Ev, symObjAddr: 0xAEA4, symBinAddr: 0x48BD8, symSize: 0x4 }
  - { offset: 0x212D8D, size: 0x8, addend: 0x0, symName: __ZNSt3__110__function6__funcIPFP11ggml_tensorP12ggml_contextS3_S3_ENS_9allocatorIS7_EES6_ED0Ev, symObjAddr: 0xAEA8, symBinAddr: 0x48BDC, symSize: 0x4 }
  - { offset: 0x212EA4, size: 0x8, addend: 0x0, symName: __ZNKSt3__110__function6__funcIPFP11ggml_tensorP12ggml_contextS3_S3_ENS_9allocatorIS7_EES6_E7__cloneEv, symObjAddr: 0xAEAC, symBinAddr: 0x48BE0, symSize: 0x38 }
  - { offset: 0x2130A3, size: 0x8, addend: 0x0, symName: __ZNKSt3__110__function6__funcIPFP11ggml_tensorP12ggml_contextS3_S3_ENS_9allocatorIS7_EES6_E7__cloneEPNS0_6__baseIS6_EE, symObjAddr: 0xAEE4, symBinAddr: 0x48C18, symSize: 0x18 }
  - { offset: 0x2130D8, size: 0x8, addend: 0x0, symName: __ZNKSt3__110__function6__funcIPFP11ggml_tensorP12ggml_contextS3_S3_ENS_9allocatorIS7_EES6_E7__cloneEPNS0_6__baseIS6_EE, symObjAddr: 0xAEE4, symBinAddr: 0x48C18, symSize: 0x18 }
  - { offset: 0x213106, size: 0x8, addend: 0x0, symName: __ZNKSt3__110__function6__funcIPFP11ggml_tensorP12ggml_contextS3_S3_ENS_9allocatorIS7_EES6_E7__cloneEPNS0_6__baseIS6_EE, symObjAddr: 0xAEE4, symBinAddr: 0x48C18, symSize: 0x18 }
  - { offset: 0x21315F, size: 0x8, addend: 0x0, symName: __ZNSt3__110__function6__funcIPFP11ggml_tensorP12ggml_contextS3_S3_ENS_9allocatorIS7_EES6_E7destroyEv, symObjAddr: 0xAEFC, symBinAddr: 0x48C30, symSize: 0x4 }
  - { offset: 0x2131B6, size: 0x8, addend: 0x0, symName: __ZNSt3__110__function6__funcIPFP11ggml_tensorP12ggml_contextS3_S3_ENS_9allocatorIS7_EES6_E18destroy_deallocateEv, symObjAddr: 0xAF00, symBinAddr: 0x48C34, symSize: 0x4 }
  - { offset: 0x2131E9, size: 0x8, addend: 0x0, symName: __ZNSt3__110__function6__funcIPFP11ggml_tensorP12ggml_contextS3_S3_ENS_9allocatorIS7_EES6_E18destroy_deallocateEv, symObjAddr: 0xAF00, symBinAddr: 0x48C34, symSize: 0x4 }
  - { offset: 0x21320C, size: 0x8, addend: 0x0, symName: __ZNSt3__110__function6__funcIPFP11ggml_tensorP12ggml_contextS3_S3_ENS_9allocatorIS7_EES6_E18destroy_deallocateEv, symObjAddr: 0xAF00, symBinAddr: 0x48C34, symSize: 0x4 }
  - { offset: 0x21323F, size: 0x8, addend: 0x0, symName: __ZNSt3__110__function6__funcIPFP11ggml_tensorP12ggml_contextS3_S3_ENS_9allocatorIS7_EES6_E18destroy_deallocateEv, symObjAddr: 0xAF00, symBinAddr: 0x48C34, symSize: 0x4 }
  - { offset: 0x2132EC, size: 0x8, addend: 0x0, symName: __ZNSt3__110__function6__funcIPFP11ggml_tensorP12ggml_contextS3_S3_ENS_9allocatorIS7_EES6_EclEOS5_OS3_SC_, symObjAddr: 0xAF04, symBinAddr: 0x48C38, symSize: 0x14 }
  - { offset: 0x213343, size: 0x8, addend: 0x0, symName: __ZNSt3__110__function6__funcIPFP11ggml_tensorP12ggml_contextS3_S3_ENS_9allocatorIS7_EES6_EclEOS5_OS3_SC_, symObjAddr: 0xAF04, symBinAddr: 0x48C38, symSize: 0x14 }
  - { offset: 0x21337A, size: 0x8, addend: 0x0, symName: __ZNSt3__110__function6__funcIPFP11ggml_tensorP12ggml_contextS3_S3_ENS_9allocatorIS7_EES6_EclEOS5_OS3_SC_, symObjAddr: 0xAF04, symBinAddr: 0x48C38, symSize: 0x14 }
  - { offset: 0x2133B0, size: 0x8, addend: 0x0, symName: __ZNSt3__110__function6__funcIPFP11ggml_tensorP12ggml_contextS3_S3_ENS_9allocatorIS7_EES6_EclEOS5_OS3_SC_, symObjAddr: 0xAF04, symBinAddr: 0x48C38, symSize: 0x14 }
  - { offset: 0x2133E7, size: 0x8, addend: 0x0, symName: __ZNSt3__110__function6__funcIPFP11ggml_tensorP12ggml_contextS3_S3_ENS_9allocatorIS7_EES6_EclEOS5_OS3_SC_, symObjAddr: 0xAF04, symBinAddr: 0x48C38, symSize: 0x14 }
  - { offset: 0x213484, size: 0x8, addend: 0x0, symName: __ZNKSt3__110__function6__funcIPFP11ggml_tensorP12ggml_contextS3_S3_ENS_9allocatorIS7_EES6_E6targetERKSt9type_info, symObjAddr: 0xAF18, symBinAddr: 0x48C4C, symSize: 0x74 }
  - { offset: 0x213549, size: 0x8, addend: 0x0, symName: __ZNKSt3__110__function6__funcIPFP11ggml_tensorP12ggml_contextS3_S3_ENS_9allocatorIS7_EES6_E11target_typeEv, symObjAddr: 0xAF8C, symBinAddr: 0x48CC0, symSize: 0xC }
  - { offset: 0x215507, size: 0x8, addend: 0x0, symName: __ZN13llama_hparams15set_swa_patternEjb, symObjAddr: 0x0, symBinAddr: 0x48E1C, symSize: 0x1C8 }
  - { offset: 0x2176AC, size: 0x8, addend: 0x0, symName: __ZN13llama_hparams15set_swa_patternEjb, symObjAddr: 0x0, symBinAddr: 0x48E1C, symSize: 0x1C8 }
  - { offset: 0x21771F, size: 0x8, addend: 0x0, symName: __ZNK13llama_hparams10is_swa_anyEv, symObjAddr: 0x1C8, symBinAddr: 0x48FE4, symSize: 0x50 }
  - { offset: 0x21775E, size: 0x8, addend: 0x0, symName: __ZNK13llama_hparams6n_headEj, symObjAddr: 0x218, symBinAddr: 0x49034, symSize: 0x38 }
  - { offset: 0x21778B, size: 0x8, addend: 0x0, symName: __ZNK13llama_hparams9n_head_kvEj, symObjAddr: 0x250, symBinAddr: 0x4906C, symSize: 0x38 }
  - { offset: 0x2177BD, size: 0x8, addend: 0x0, symName: __ZNK13llama_hparams9n_head_kvEj, symObjAddr: 0x250, symBinAddr: 0x4906C, symSize: 0x38 }
  - { offset: 0x2177EA, size: 0x8, addend: 0x0, symName: __ZNK13llama_hparams4n_ffEj, symObjAddr: 0x288, symBinAddr: 0x490A4, symSize: 0x38 }
  - { offset: 0x2177FC, size: 0x8, addend: 0x0, symName: __ZNK13llama_hparams4n_ffEj, symObjAddr: 0x288, symBinAddr: 0x490A4, symSize: 0x38 }
  - { offset: 0x217836, size: 0x8, addend: 0x0, symName: __ZNK13llama_hparams5n_gqaEj, symObjAddr: 0x2C0, symBinAddr: 0x490DC, symSize: 0x54 }
  - { offset: 0x217894, size: 0x8, addend: 0x0, symName: __ZNK13llama_hparams5n_gqaEj, symObjAddr: 0x2C0, symBinAddr: 0x490DC, symSize: 0x54 }
  - { offset: 0x217930, size: 0x8, addend: 0x0, symName: __ZNK13llama_hparams10n_embd_inpEv, symObjAddr: 0x314, symBinAddr: 0x49130, symSize: 0x14 }
  - { offset: 0x217942, size: 0x8, addend: 0x0, symName: __ZNK13llama_hparams10n_embd_inpEv, symObjAddr: 0x314, symBinAddr: 0x49130, symSize: 0x14 }
  - { offset: 0x21797B, size: 0x8, addend: 0x0, symName: __ZNK13llama_hparams10n_embd_outEv, symObjAddr: 0x328, symBinAddr: 0x49144, symSize: 0x18 }
  - { offset: 0x2179A4, size: 0x8, addend: 0x0, symName: __ZNK13llama_hparams12n_embd_k_gqaEj, symObjAddr: 0x340, symBinAddr: 0x4915C, symSize: 0x40 }
  - { offset: 0x2179F9, size: 0x8, addend: 0x0, symName: __ZNK13llama_hparams12n_embd_v_gqaEj, symObjAddr: 0x380, symBinAddr: 0x4919C, symSize: 0x40 }
  - { offset: 0x217A0B, size: 0x8, addend: 0x0, symName: __ZNK13llama_hparams12n_embd_v_gqaEj, symObjAddr: 0x380, symBinAddr: 0x4919C, symSize: 0x40 }
  - { offset: 0x217A60, size: 0x8, addend: 0x0, symName: __ZNK13llama_hparams24is_n_embd_k_gqa_variableEv, symObjAddr: 0x3C0, symBinAddr: 0x491DC, symSize: 0x6C }
  - { offset: 0x217AA5, size: 0x8, addend: 0x0, symName: __ZNK13llama_hparams24is_n_embd_k_gqa_variableEv, symObjAddr: 0x3C0, symBinAddr: 0x491DC, symSize: 0x6C }
  - { offset: 0x217B87, size: 0x8, addend: 0x0, symName: __ZNK13llama_hparams24is_n_embd_v_gqa_variableEv, symObjAddr: 0x42C, symBinAddr: 0x49248, symSize: 0x6C }
  - { offset: 0x217BC7, size: 0x8, addend: 0x0, symName: __ZNK13llama_hparams24is_n_embd_v_gqa_variableEv, symObjAddr: 0x42C, symBinAddr: 0x49248, symSize: 0x6C }
  - { offset: 0x217CA9, size: 0x8, addend: 0x0, symName: __ZNK13llama_hparams16n_embd_k_gqa_maxEv, symObjAddr: 0x498, symBinAddr: 0x492B4, symSize: 0xC0 }
  - { offset: 0x217CBB, size: 0x8, addend: 0x0, symName: __ZNK13llama_hparams16n_embd_k_gqa_maxEv, symObjAddr: 0x498, symBinAddr: 0x492B4, symSize: 0xC0 }
  - { offset: 0x217D7F, size: 0x8, addend: 0x0, symName: __ZNK13llama_hparams16n_embd_v_gqa_maxEv, symObjAddr: 0x558, symBinAddr: 0x49374, symSize: 0xC0 }
  - { offset: 0x217D91, size: 0x8, addend: 0x0, symName: __ZNK13llama_hparams16n_embd_v_gqa_maxEv, symObjAddr: 0x558, symBinAddr: 0x49374, symSize: 0xC0 }
  - { offset: 0x217E55, size: 0x8, addend: 0x0, symName: __ZNK13llama_hparams8n_embd_rEv, symObjAddr: 0x618, symBinAddr: 0x49434, symSize: 0x58 }
  - { offset: 0x217E67, size: 0x8, addend: 0x0, symName: __ZNK13llama_hparams8n_embd_rEv, symObjAddr: 0x618, symBinAddr: 0x49434, symSize: 0x58 }
  - { offset: 0x217E90, size: 0x8, addend: 0x0, symName: __ZNK13llama_hparams8n_embd_sEv, symObjAddr: 0x670, symBinAddr: 0x4948C, symSize: 0x2C }
  - { offset: 0x217EB9, size: 0x8, addend: 0x0, symName: __ZNK13llama_hparams12is_recurrentEj, symObjAddr: 0x69C, symBinAddr: 0x494B8, symSize: 0x50 }
  - { offset: 0x217EF3, size: 0x8, addend: 0x0, symName: __ZNK13llama_hparams14n_pos_per_embdEv, symObjAddr: 0x6EC, symBinAddr: 0x49508, symSize: 0x1C }
  - { offset: 0x217F06, size: 0x8, addend: 0x0, symName: __ZNK13llama_hparams14n_pos_per_embdEv, symObjAddr: 0x6EC, symBinAddr: 0x49508, symSize: 0x1C }
  - { offset: 0x217F2F, size: 0x8, addend: 0x0, symName: __ZNK13llama_hparams6is_swaEj, symObjAddr: 0x708, symBinAddr: 0x49524, symSize: 0x40 }
  - { offset: 0x217F69, size: 0x8, addend: 0x0, symName: __ZNK13llama_hparams6is_mlaEv, symObjAddr: 0x748, symBinAddr: 0x49564, symSize: 0x20 }
  - { offset: 0x217F7C, size: 0x8, addend: 0x0, symName: __ZNK13llama_hparams6is_mlaEv, symObjAddr: 0x748, symBinAddr: 0x49564, symSize: 0x20 }
  - { offset: 0x217FB6, size: 0x8, addend: 0x0, symName: __ZNK13llama_hparams17n_embd_head_k_mlaEv, symObjAddr: 0x768, symBinAddr: 0x49584, symSize: 0x30 }
  - { offset: 0x217FE1, size: 0x8, addend: 0x0, symName: __ZNK13llama_hparams17n_embd_head_k_mlaEv, symObjAddr: 0x768, symBinAddr: 0x49584, symSize: 0x30 }
  - { offset: 0x217FFB, size: 0x8, addend: 0x0, symName: __ZNK13llama_hparams17n_embd_head_v_mlaEv, symObjAddr: 0x798, symBinAddr: 0x495B4, symSize: 0x30 }
  - { offset: 0x218026, size: 0x8, addend: 0x0, symName: __ZNK13llama_hparams17n_embd_head_v_mlaEv, symObjAddr: 0x798, symBinAddr: 0x495B4, symSize: 0x30 }
  - { offset: 0x218040, size: 0x8, addend: 0x0, symName: __ZNK13llama_hparams6has_kvEj, symObjAddr: 0x7C8, symBinAddr: 0x495E4, symSize: 0x14 }
  - { offset: 0x21808C, size: 0x8, addend: 0x0, symName: __ZNK13llama_hparams10n_layer_kvEv, symObjAddr: 0x7DC, symBinAddr: 0x495F8, symSize: 0xCC }
  - { offset: 0x2180F1, size: 0x8, addend: 0x0, symName: __ZNK13llama_hparams9use_mropeEv, symObjAddr: 0x8A8, symBinAddr: 0x496C4, symSize: 0x24 }
  - { offset: 0x21A047, size: 0x8, addend: 0x0, symName: __ZL14g_logger_state.0, symObjAddr: 0x17D8, symBinAddr: 0x2D42A8, symSize: 0x0 }
  - { offset: 0x21A052, size: 0x8, addend: 0x0, symName: __ZL14g_logger_state.1, symObjAddr: 0x2DE88, symBinAddr: 0x3600A8, symSize: 0x0 }
  - { offset: 0x221242, size: 0x8, addend: 0x0, symName: __ZN9time_measC2ERxb, symObjAddr: 0x0, symBinAddr: 0x496E8, symSize: 0x48 }
  - { offset: 0x2212C9, size: 0x8, addend: 0x0, symName: __ZN9time_measC1ERxb, symObjAddr: 0x48, symBinAddr: 0x49730, symSize: 0x48 }
  - { offset: 0x22134A, size: 0x8, addend: 0x0, symName: __ZN9time_measD2Ev, symObjAddr: 0x90, symBinAddr: 0x49778, symSize: 0x44 }
  - { offset: 0x221396, size: 0x8, addend: 0x0, symName: __ZN9time_measD1Ev, symObjAddr: 0xE4, symBinAddr: 0x497BC, symSize: 0x44 }
  - { offset: 0x2213E7, size: 0x8, addend: 0x0, symName: _llama_log_get, symObjAddr: 0x128, symBinAddr: 0x49800, symSize: 0x4 }
  - { offset: 0x22141D, size: 0x8, addend: 0x0, symName: _llama_log_get, symObjAddr: 0x128, symBinAddr: 0x49800, symSize: 0x4 }
  - { offset: 0x221450, size: 0x8, addend: 0x0, symName: _llama_log_set, symObjAddr: 0x12C, symBinAddr: 0x49804, symSize: 0x44 }
  - { offset: 0x2214B4, size: 0x8, addend: 0x0, symName: __Z26llama_log_callback_default14ggml_log_levelPKcPv, symObjAddr: 0x170, symBinAddr: 0x49848, symSize: 0x30 }
  - { offset: 0x22174C, size: 0x8, addend: 0x0, symName: __Z18llama_log_internal14ggml_log_levelPKcz, symObjAddr: 0x1A0, symBinAddr: 0x49878, symSize: 0xF8 }
  - { offset: 0x221B08, size: 0x8, addend: 0x0, symName: __Z11replace_allRNSt3__112basic_stringIcNS_11char_traitsIcEENS_9allocatorIcEEEERKS5_S8_, symObjAddr: 0x298, symBinAddr: 0x49970, symSize: 0x1F8 }
  - { offset: 0x222494, size: 0x8, addend: 0x0, symName: __Z6formatPKcz, symObjAddr: 0x490, symBinAddr: 0x49B68, symSize: 0x154 }
  - { offset: 0x222B4E, size: 0x8, addend: 0x0, symName: __Z25llama_format_tensor_shapeRKNSt3__16vectorIxNS_9allocatorIxEEEE, symObjAddr: 0x5E4, symBinAddr: 0x49CBC, symSize: 0x15C }
  - { offset: 0x222EF0, size: 0x8, addend: 0x0, symName: __ZNSt3__16vectorIxNS_9allocatorIxEEE20__throw_out_of_rangeB8ne200100Ev, symObjAddr: 0x12F0, symBinAddr: 0x4A724, symSize: 0x14 }
  - { offset: 0x222F28, size: 0x8, addend: 0x0, symName: __Z25llama_format_tensor_shapePK11ggml_tensor, symObjAddr: 0x740, symBinAddr: 0x49E18, symSize: 0x15C }
  - { offset: 0x22340A, size: 0x8, addend: 0x0, symName: __Z14gguf_kv_to_strPK12gguf_contexti, symObjAddr: 0x89C, symBinAddr: 0x49F74, symSize: 0x5B4 }
  - { offset: 0x224989, size: 0x8, addend: 0x0, symName: __ZL16gguf_data_to_str9gguf_typePKvi, symObjAddr: 0xFE4, symBinAddr: 0x4A528, symSize: 0x1FC }
  - { offset: 0x227412, size: 0x8, addend: 0x0, symName: __ZN16llama_io_write_i12write_stringERKNSt3__112basic_stringIcNS0_11char_traitsIcEENS0_9allocatorIcEEEE, symObjAddr: 0x0, symBinAddr: 0x4A738, symSize: 0x78 }
  - { offset: 0x229EEF, size: 0x8, addend: 0x0, symName: __ZN16llama_io_write_i12write_stringERKNSt3__112basic_stringIcNS0_11char_traitsIcEENS0_9allocatorIcEEEE, symObjAddr: 0x0, symBinAddr: 0x4A738, symSize: 0x78 }
  - { offset: 0x22A000, size: 0x8, addend: 0x0, symName: __ZN15llama_io_read_i11read_stringERNSt3__112basic_stringIcNS0_11char_traitsIcEENS0_9allocatorIcEEEE, symObjAddr: 0x78, symBinAddr: 0x4A7B0, symSize: 0x60 }
  - { offset: 0x22BF78, size: 0x8, addend: 0x0, symName: __ZN19llama_kv_cache_iswaC2ERK11llama_model9ggml_typeS3_bbbbjjjjRKNSt3__18functionIFbiEEERKNS5_IFiiEEE, symObjAddr: 0x0, symBinAddr: 0x4A810, symSize: 0x348 }
  - { offset: 0x250A1D, size: 0x8, addend: 0x0, symName: __ZNSt3__111make_uniqueB8ne200100I27llama_kv_cache_iswa_contextJP19llama_kv_cache_iswaNS_6vectorIN14llama_kv_cache9slot_infoENS_9allocatorIS6_EEEES9_NS4_I12llama_ubatchNS7_ISA_EEEEELi0EEENS_10unique_ptrIT_NS_14default_deleteISE_EEEEDpOT0_, symObjAddr: 0xF10, symBinAddr: 0x4B6BC, symSize: 0x264 }
  - { offset: 0x259E19, size: 0x8, addend: 0x0, symName: __ZN19llama_kv_cache_iswaC1ERK11llama_model9ggml_typeS3_bbbbjjjjRKNSt3__18functionIFbiEEERKNS5_IFiiEEE, symObjAddr: 0x348, symBinAddr: 0x4AB58, symSize: 0x20 }
  - { offset: 0x25A8F7, size: 0x8, addend: 0x0, symName: __ZN19llama_kv_cache_iswaC2ERK11llama_model9ggml_typeS3_bbbbjjjjRKNSt3__18functionIFbiEEERKNS5_IFiiEEE, symObjAddr: 0x0, symBinAddr: 0x4A810, symSize: 0x348 }
  - { offset: 0x25B160, size: 0x8, addend: 0x0, symName: __ZN19llama_kv_cache_iswa5clearEb, symObjAddr: 0x368, symBinAddr: 0x4AB78, symSize: 0x40 }
  - { offset: 0x25B1F4, size: 0x8, addend: 0x0, symName: __ZN19llama_kv_cache_iswa6seq_rmEiii, symObjAddr: 0x3A8, symBinAddr: 0x4ABB8, symSize: 0x6C }
  - { offset: 0x25B2D7, size: 0x8, addend: 0x0, symName: __ZN19llama_kv_cache_iswa6seq_cpEiiii, symObjAddr: 0x414, symBinAddr: 0x4AC24, symSize: 0x68 }
  - { offset: 0x25B3AD, size: 0x8, addend: 0x0, symName: __ZN19llama_kv_cache_iswa8seq_keepEi, symObjAddr: 0x47C, symBinAddr: 0x4AC8C, symSize: 0x40 }
  - { offset: 0x25B441, size: 0x8, addend: 0x0, symName: __ZN19llama_kv_cache_iswa7seq_addEiiii, symObjAddr: 0x4BC, symBinAddr: 0x4ACCC, symSize: 0x68 }
  - { offset: 0x25B517, size: 0x8, addend: 0x0, symName: __ZN19llama_kv_cache_iswa7seq_divEiiii, symObjAddr: 0x524, symBinAddr: 0x4AD34, symSize: 0x68 }
  - { offset: 0x25B5ED, size: 0x8, addend: 0x0, symName: __ZNK19llama_kv_cache_iswa11seq_pos_minEi, symObjAddr: 0x58C, symBinAddr: 0x4AD9C, symSize: 0x10 }
  - { offset: 0x25B626, size: 0x8, addend: 0x0, symName: __ZNK19llama_kv_cache_iswa11seq_pos_minEi, symObjAddr: 0x58C, symBinAddr: 0x4AD9C, symSize: 0x10 }
  - { offset: 0x25B656, size: 0x8, addend: 0x0, symName: __ZNK19llama_kv_cache_iswa11seq_pos_maxEi, symObjAddr: 0x59C, symBinAddr: 0x4ADAC, symSize: 0x10 }
  - { offset: 0x25B68F, size: 0x8, addend: 0x0, symName: __ZNK19llama_kv_cache_iswa11seq_pos_maxEi, symObjAddr: 0x59C, symBinAddr: 0x4ADAC, symSize: 0x10 }
  - { offset: 0x25BC66, size: 0x8, addend: 0x0, symName: __ZNK19llama_kv_cache_iswa16memory_breakdownEv, symObjAddr: 0x5AC, symBinAddr: 0x4ADBC, symSize: 0x1C0 }
  - { offset: 0x25CE14, size: 0x8, addend: 0x0, symName: __ZN19llama_kv_cache_iswa10init_batchER18llama_batch_allocrjb, symObjAddr: 0x76C, symBinAddr: 0x4AF7C, symSize: 0x740 }
  - { offset: 0x25F18C, size: 0x8, addend: 0x0, symName: __ZNSt3__16vectorI12llama_ubatchNS_9allocatorIS1_EEE24__emplace_back_slow_pathIJS1_EEEPS1_DpOT_, symObjAddr: 0x259C, symBinAddr: 0x4CB30, symSize: 0x1C8 }
  - { offset: 0x25F7BD, size: 0x8, addend: 0x0, symName: __ZNSt3__16vectorI12llama_ubatchNS_9allocatorIS1_EEE20__throw_length_errorB8ne200100Ev, symObjAddr: 0x2764, symBinAddr: 0x4CCF8, symSize: 0x14 }
  - { offset: 0x25F7D3, size: 0x8, addend: 0x0, symName: __ZNSt3__16vectorIN14llama_kv_cache9slot_infoENS_9allocatorIS2_EEED1B8ne200100Ev, symObjAddr: 0x1174, symBinAddr: 0x4B920, symSize: 0xC4 }
  - { offset: 0x25FD19, size: 0x8, addend: 0x0, symName: __ZNSt3__16vectorI12llama_ubatchNS_9allocatorIS1_EEED1B8ne200100Ev, symObjAddr: 0x1238, symBinAddr: 0x4B9E4, symSize: 0x98 }
  - { offset: 0x260118, size: 0x8, addend: 0x0, symName: __ZN27llama_kv_cache_iswa_contextC2EP19llama_kv_cache_iswaNSt3__16vectorIN14llama_kv_cache9slot_infoENS2_9allocatorIS5_EEEES8_NS3_I12llama_ubatchNS6_IS9_EEEE, symObjAddr: 0x1740, symBinAddr: 0x4BEEC, symSize: 0x5D4 }
  - { offset: 0x261D06, size: 0x8, addend: 0x0, symName: __ZN19llama_kv_cache_iswa9init_fullEv, symObjAddr: 0x12D0, symBinAddr: 0x4BA7C, symSize: 0x54 }
  - { offset: 0x261DAC, size: 0x8, addend: 0x0, symName: __ZN27llama_kv_cache_iswa_contextC2EP19llama_kv_cache_iswa, symObjAddr: 0x14D8, symBinAddr: 0x4BC84, symSize: 0x120 }
  - { offset: 0x262063, size: 0x8, addend: 0x0, symName: __ZN19llama_kv_cache_iswa11init_updateEP13llama_contextb, symObjAddr: 0x1324, symBinAddr: 0x4BAD0, symSize: 0x6C }
  - { offset: 0x262146, size: 0x8, addend: 0x0, symName: __ZN27llama_kv_cache_iswa_contextC2EP19llama_kv_cache_iswaP13llama_contextb, symObjAddr: 0x15FC, symBinAddr: 0x4BDA8, symSize: 0x140 }
  - { offset: 0x2623F3, size: 0x8, addend: 0x0, symName: __ZNK19llama_kv_cache_iswa13get_can_shiftEv, symObjAddr: 0x1390, symBinAddr: 0x4BB3C, symSize: 0x38 }
  - { offset: 0x262458, size: 0x8, addend: 0x0, symName: __ZNK19llama_kv_cache_iswa11state_writeER16llama_io_write_iij, symObjAddr: 0x13C8, symBinAddr: 0x4BB74, symSize: 0x5C }
  - { offset: 0x262502, size: 0x8, addend: 0x0, symName: __ZN19llama_kv_cache_iswa10state_readER15llama_io_read_iij, symObjAddr: 0x1424, symBinAddr: 0x4BBD0, symSize: 0x5C }
  - { offset: 0x2625C2, size: 0x8, addend: 0x0, symName: __ZNK19llama_kv_cache_iswa8get_baseEv, symObjAddr: 0x1480, symBinAddr: 0x4BC2C, symSize: 0x8 }
  - { offset: 0x2625E6, size: 0x8, addend: 0x0, symName: __ZNK19llama_kv_cache_iswa8get_baseEv, symObjAddr: 0x1480, symBinAddr: 0x4BC2C, symSize: 0x8 }
  - { offset: 0x262602, size: 0x8, addend: 0x0, symName: __ZNK19llama_kv_cache_iswa7get_swaEv, symObjAddr: 0x1488, symBinAddr: 0x4BC34, symSize: 0x8 }
  - { offset: 0x262626, size: 0x8, addend: 0x0, symName: __ZNK19llama_kv_cache_iswa7get_swaEv, symObjAddr: 0x1488, symBinAddr: 0x4BC34, symSize: 0x8 }
  - { offset: 0x262642, size: 0x8, addend: 0x0, symName: __ZN27llama_kv_cache_iswa_contextC2E19llama_memory_status, symObjAddr: 0x1490, symBinAddr: 0x4BC3C, symSize: 0x24 }
  - { offset: 0x2626A5, size: 0x8, addend: 0x0, symName: __ZN27llama_kv_cache_iswa_contextC1E19llama_memory_status, symObjAddr: 0x14B4, symBinAddr: 0x4BC60, symSize: 0x24 }
  - { offset: 0x2626CE, size: 0x8, addend: 0x0, symName: __ZN27llama_kv_cache_iswa_contextC1E19llama_memory_status, symObjAddr: 0x14B4, symBinAddr: 0x4BC60, symSize: 0x24 }
  - { offset: 0x262820, size: 0x8, addend: 0x0, symName: __ZN27llama_kv_cache_iswa_contextC1EP19llama_kv_cache_iswa, symObjAddr: 0x15F8, symBinAddr: 0x4BDA4, symSize: 0x4 }
  - { offset: 0x26284A, size: 0x8, addend: 0x0, symName: __ZN27llama_kv_cache_iswa_contextC1EP19llama_kv_cache_iswa, symObjAddr: 0x15F8, symBinAddr: 0x4BDA4, symSize: 0x4 }
  - { offset: 0x262864, size: 0x8, addend: 0x0, symName: __ZN27llama_kv_cache_iswa_contextC1EP19llama_kv_cache_iswaP13llama_contextb, symObjAddr: 0x173C, symBinAddr: 0x4BEE8, symSize: 0x4 }
  - { offset: 0x2628A1, size: 0x8, addend: 0x0, symName: __ZN27llama_kv_cache_iswa_contextC1EP19llama_kv_cache_iswaP13llama_contextb, symObjAddr: 0x173C, symBinAddr: 0x4BEE8, symSize: 0x4 }
  - { offset: 0x262C5B, size: 0x8, addend: 0x0, symName: __ZNSt3__16vectorI12llama_ubatchNS_9allocatorIS1_EEE20__throw_length_errorB8ne200100Ev, symObjAddr: 0x2764, symBinAddr: 0x4CCF8, symSize: 0x14 }
  - { offset: 0x262C7E, size: 0x8, addend: 0x0, symName: __ZNSt3__128__exception_guard_exceptionsINS_6vectorI12llama_ubatchNS_9allocatorIS2_EEE16__destroy_vectorEED1B8ne200100Ev, symObjAddr: 0x27EC, symBinAddr: 0x4CD0C, symSize: 0xB0 }
  - { offset: 0x262EB9, size: 0x8, addend: 0x0, symName: __ZN27llama_kv_cache_iswa_contextC1EP19llama_kv_cache_iswaNSt3__16vectorIN14llama_kv_cache9slot_infoENS2_9allocatorIS5_EEEES8_NS3_I12llama_ubatchNS6_IS9_EEEE, symObjAddr: 0x1D14, symBinAddr: 0x4C4C0, symSize: 0x4 }
  - { offset: 0x262EFB, size: 0x8, addend: 0x0, symName: __ZN27llama_kv_cache_iswa_contextC1EP19llama_kv_cache_iswaNSt3__16vectorIN14llama_kv_cache9slot_infoENS2_9allocatorIS5_EEEES8_NS3_I12llama_ubatchNS6_IS9_EEEE, symObjAddr: 0x1D14, symBinAddr: 0x4C4C0, symSize: 0x4 }
  - { offset: 0x262F2A, size: 0x8, addend: 0x0, symName: __ZN27llama_kv_cache_iswa_contextD2Ev, symObjAddr: 0x1D18, symBinAddr: 0x4C4C4, symSize: 0xD4 }
  - { offset: 0x2632D9, size: 0x8, addend: 0x0, symName: __ZN27llama_kv_cache_iswa_contextD1Ev, symObjAddr: 0x1DEC, symBinAddr: 0x4C598, symSize: 0xD4 }
  - { offset: 0x2636A5, size: 0x8, addend: 0x0, symName: __ZN27llama_kv_cache_iswa_contextD0Ev, symObjAddr: 0x1EC0, symBinAddr: 0x4C66C, symSize: 0xD4 }
  - { offset: 0x263A7D, size: 0x8, addend: 0x0, symName: __ZN27llama_kv_cache_iswa_context4nextEv, symObjAddr: 0x1F94, symBinAddr: 0x4C740, symSize: 0x70 }
  - { offset: 0x263B1C, size: 0x8, addend: 0x0, symName: __ZN27llama_kv_cache_iswa_context5applyEv, symObjAddr: 0x2004, symBinAddr: 0x4C7B0, symSize: 0x44 }
  - { offset: 0x263BAC, size: 0x8, addend: 0x0, symName: __ZNK27llama_kv_cache_iswa_context10get_statusEv, symObjAddr: 0x2048, symBinAddr: 0x4C7F4, symSize: 0x8 }
  - { offset: 0x263BF8, size: 0x8, addend: 0x0, symName: __ZNK27llama_kv_cache_iswa_context10get_ubatchEv, symObjAddr: 0x2050, symBinAddr: 0x4C7FC, symSize: 0x10 }
  - { offset: 0x263C5E, size: 0x8, addend: 0x0, symName: __ZNK27llama_kv_cache_iswa_context8get_baseEv, symObjAddr: 0x2060, symBinAddr: 0x4C80C, symSize: 0x8 }
  - { offset: 0x263C8A, size: 0x8, addend: 0x0, symName: __ZNK27llama_kv_cache_iswa_context8get_baseEv, symObjAddr: 0x2060, symBinAddr: 0x4C80C, symSize: 0x8 }
  - { offset: 0x263CA7, size: 0x8, addend: 0x0, symName: __ZNK27llama_kv_cache_iswa_context7get_swaEv, symObjAddr: 0x2068, symBinAddr: 0x4C814, symSize: 0x8 }
  - { offset: 0x263CD3, size: 0x8, addend: 0x0, symName: __ZNK27llama_kv_cache_iswa_context7get_swaEv, symObjAddr: 0x2068, symBinAddr: 0x4C814, symSize: 0x8 }
  - { offset: 0x263D0A, size: 0x8, addend: 0x0, symName: __ZN19llama_kv_cache_iswaD1Ev, symObjAddr: 0x2070, symBinAddr: 0x4C81C, symSize: 0x5C }
  - { offset: 0x263E9E, size: 0x8, addend: 0x0, symName: __ZN19llama_kv_cache_iswaD0Ev, symObjAddr: 0x20CC, symBinAddr: 0x4C878, symSize: 0x5C }
  - { offset: 0x26403D, size: 0x8, addend: 0x0, symName: '__ZNSt3__110__function6__funcIZN19llama_kv_cache_iswaC1ERK11llama_model9ggml_typeS6_bbbbjjjjRKNS_8functionIFbiEEERKNS7_IFiiEEEE3$_0NS_9allocatorISG_EES8_ED1Ev', symObjAddr: 0x2128, symBinAddr: 0x4C8D4, symSize: 0x4 }
  - { offset: 0x264069, size: 0x8, addend: 0x0, symName: '__ZNSt3__110__function6__funcIZN19llama_kv_cache_iswaC1ERK11llama_model9ggml_typeS6_bbbbjjjjRKNS_8functionIFbiEEERKNS7_IFiiEEEE3$_0NS_9allocatorISG_EES8_ED0Ev', symObjAddr: 0x212C, symBinAddr: 0x4C8D8, symSize: 0x4 }
  - { offset: 0x264180, size: 0x8, addend: 0x0, symName: '__ZNKSt3__110__function6__funcIZN19llama_kv_cache_iswaC1ERK11llama_model9ggml_typeS6_bbbbjjjjRKNS_8functionIFbiEEERKNS7_IFiiEEEE3$_0NS_9allocatorISG_EES8_E7__cloneEv', symObjAddr: 0x2130, symBinAddr: 0x4C8DC, symSize: 0x38 }
  - { offset: 0x264391, size: 0x8, addend: 0x0, symName: '__ZNKSt3__110__function6__funcIZN19llama_kv_cache_iswaC1ERK11llama_model9ggml_typeS6_bbbbjjjjRKNS_8functionIFbiEEERKNS7_IFiiEEEE3$_0NS_9allocatorISG_EES8_E7__cloneEPNS0_6__baseIS8_EE', symObjAddr: 0x2168, symBinAddr: 0x4C914, symSize: 0x18 }
  - { offset: 0x2643C6, size: 0x8, addend: 0x0, symName: '__ZNKSt3__110__function6__funcIZN19llama_kv_cache_iswaC1ERK11llama_model9ggml_typeS6_bbbbjjjjRKNS_8functionIFbiEEERKNS7_IFiiEEEE3$_0NS_9allocatorISG_EES8_E7__cloneEPNS0_6__baseIS8_EE', symObjAddr: 0x2168, symBinAddr: 0x4C914, symSize: 0x18 }
  - { offset: 0x2643EB, size: 0x8, addend: 0x0, symName: '__ZNKSt3__110__function6__funcIZN19llama_kv_cache_iswaC1ERK11llama_model9ggml_typeS6_bbbbjjjjRKNS_8functionIFbiEEERKNS7_IFiiEEEE3$_0NS_9allocatorISG_EES8_E7__cloneEPNS0_6__baseIS8_EE', symObjAddr: 0x2168, symBinAddr: 0x4C914, symSize: 0x18 }
  - { offset: 0x26445F, size: 0x8, addend: 0x0, symName: '__ZNSt3__110__function6__funcIZN19llama_kv_cache_iswaC1ERK11llama_model9ggml_typeS6_bbbbjjjjRKNS_8functionIFbiEEERKNS7_IFiiEEEE3$_0NS_9allocatorISG_EES8_E7destroyEv', symObjAddr: 0x2180, symBinAddr: 0x4C92C, symSize: 0x4 }
  - { offset: 0x2644B4, size: 0x8, addend: 0x0, symName: '__ZNSt3__110__function6__funcIZN19llama_kv_cache_iswaC1ERK11llama_model9ggml_typeS6_bbbbjjjjRKNS_8functionIFbiEEERKNS7_IFiiEEEE3$_0NS_9allocatorISG_EES8_E18destroy_deallocateEv', symObjAddr: 0x2184, symBinAddr: 0x4C930, symSize: 0x4 }
  - { offset: 0x2644E7, size: 0x8, addend: 0x0, symName: '__ZNSt3__110__function6__funcIZN19llama_kv_cache_iswaC1ERK11llama_model9ggml_typeS6_bbbbjjjjRKNS_8functionIFbiEEERKNS7_IFiiEEEE3$_0NS_9allocatorISG_EES8_E18destroy_deallocateEv', symObjAddr: 0x2184, symBinAddr: 0x4C930, symSize: 0x4 }
  - { offset: 0x26450A, size: 0x8, addend: 0x0, symName: '__ZNSt3__110__function6__funcIZN19llama_kv_cache_iswaC1ERK11llama_model9ggml_typeS6_bbbbjjjjRKNS_8functionIFbiEEERKNS7_IFiiEEEE3$_0NS_9allocatorISG_EES8_E18destroy_deallocateEv', symObjAddr: 0x2184, symBinAddr: 0x4C930, symSize: 0x4 }
  - { offset: 0x26453D, size: 0x8, addend: 0x0, symName: '__ZNSt3__110__function6__funcIZN19llama_kv_cache_iswaC1ERK11llama_model9ggml_typeS6_bbbbjjjjRKNS_8functionIFbiEEERKNS7_IFiiEEEE3$_0NS_9allocatorISG_EES8_E18destroy_deallocateEv', symObjAddr: 0x2184, symBinAddr: 0x4C930, symSize: 0x4 }
  - { offset: 0x26465D, size: 0x8, addend: 0x0, symName: '__ZNSt3__110__function6__funcIZN19llama_kv_cache_iswaC1ERK11llama_model9ggml_typeS6_bbbbjjjjRKNS_8functionIFbiEEERKNS7_IFiiEEEE3$_0NS_9allocatorISG_EES8_EclEOi', symObjAddr: 0x2188, symBinAddr: 0x4C934, symSize: 0x60 }
  - { offset: 0x264814, size: 0x8, addend: 0x0, symName: '__ZNKSt3__110__function6__funcIZN19llama_kv_cache_iswaC1ERK11llama_model9ggml_typeS6_bbbbjjjjRKNS_8functionIFbiEEERKNS7_IFiiEEEE3$_0NS_9allocatorISG_EES8_E6targetERKSt9type_info', symObjAddr: 0x21E8, symBinAddr: 0x4C994, symSize: 0x64 }
  - { offset: 0x2648DF, size: 0x8, addend: 0x0, symName: '__ZNKSt3__110__function6__funcIZN19llama_kv_cache_iswaC1ERK11llama_model9ggml_typeS6_bbbbjjjjRKNS_8functionIFbiEEERKNS7_IFiiEEEE3$_0NS_9allocatorISG_EES8_E11target_typeEv', symObjAddr: 0x224C, symBinAddr: 0x4C9F8, symSize: 0xC }
  - { offset: 0x264902, size: 0x8, addend: 0x0, symName: '__ZNSt3__110__function6__funcIZN19llama_kv_cache_iswaC1ERK11llama_model9ggml_typeS6_bbbbjjjjRKNS_8functionIFbiEEERKNS7_IFiiEEEE3$_1NS_9allocatorISG_EES8_ED1Ev', symObjAddr: 0x2280, symBinAddr: 0x4CA04, symSize: 0x4 }
  - { offset: 0x26492E, size: 0x8, addend: 0x0, symName: '__ZNSt3__110__function6__funcIZN19llama_kv_cache_iswaC1ERK11llama_model9ggml_typeS6_bbbbjjjjRKNS_8functionIFbiEEERKNS7_IFiiEEEE3$_1NS_9allocatorISG_EES8_ED0Ev', symObjAddr: 0x2284, symBinAddr: 0x4CA08, symSize: 0x4 }
  - { offset: 0x264A45, size: 0x8, addend: 0x0, symName: '__ZNKSt3__110__function6__funcIZN19llama_kv_cache_iswaC1ERK11llama_model9ggml_typeS6_bbbbjjjjRKNS_8functionIFbiEEERKNS7_IFiiEEEE3$_1NS_9allocatorISG_EES8_E7__cloneEv', symObjAddr: 0x2288, symBinAddr: 0x4CA0C, symSize: 0x38 }
  - { offset: 0x264C56, size: 0x8, addend: 0x0, symName: '__ZNKSt3__110__function6__funcIZN19llama_kv_cache_iswaC1ERK11llama_model9ggml_typeS6_bbbbjjjjRKNS_8functionIFbiEEERKNS7_IFiiEEEE3$_1NS_9allocatorISG_EES8_E7__cloneEPNS0_6__baseIS8_EE', symObjAddr: 0x22C0, symBinAddr: 0x4CA44, symSize: 0x18 }
  - { offset: 0x264C8B, size: 0x8, addend: 0x0, symName: '__ZNKSt3__110__function6__funcIZN19llama_kv_cache_iswaC1ERK11llama_model9ggml_typeS6_bbbbjjjjRKNS_8functionIFbiEEERKNS7_IFiiEEEE3$_1NS_9allocatorISG_EES8_E7__cloneEPNS0_6__baseIS8_EE', symObjAddr: 0x22C0, symBinAddr: 0x4CA44, symSize: 0x18 }
  - { offset: 0x264CB0, size: 0x8, addend: 0x0, symName: '__ZNKSt3__110__function6__funcIZN19llama_kv_cache_iswaC1ERK11llama_model9ggml_typeS6_bbbbjjjjRKNS_8functionIFbiEEERKNS7_IFiiEEEE3$_1NS_9allocatorISG_EES8_E7__cloneEPNS0_6__baseIS8_EE', symObjAddr: 0x22C0, symBinAddr: 0x4CA44, symSize: 0x18 }
  - { offset: 0x264D24, size: 0x8, addend: 0x0, symName: '__ZNSt3__110__function6__funcIZN19llama_kv_cache_iswaC1ERK11llama_model9ggml_typeS6_bbbbjjjjRKNS_8functionIFbiEEERKNS7_IFiiEEEE3$_1NS_9allocatorISG_EES8_E7destroyEv', symObjAddr: 0x22D8, symBinAddr: 0x4CA5C, symSize: 0x4 }
  - { offset: 0x264D79, size: 0x8, addend: 0x0, symName: '__ZNSt3__110__function6__funcIZN19llama_kv_cache_iswaC1ERK11llama_model9ggml_typeS6_bbbbjjjjRKNS_8functionIFbiEEERKNS7_IFiiEEEE3$_1NS_9allocatorISG_EES8_E18destroy_deallocateEv', symObjAddr: 0x22DC, symBinAddr: 0x4CA60, symSize: 0x4 }
  - { offset: 0x264DAC, size: 0x8, addend: 0x0, symName: '__ZNSt3__110__function6__funcIZN19llama_kv_cache_iswaC1ERK11llama_model9ggml_typeS6_bbbbjjjjRKNS_8functionIFbiEEERKNS7_IFiiEEEE3$_1NS_9allocatorISG_EES8_E18destroy_deallocateEv', symObjAddr: 0x22DC, symBinAddr: 0x4CA60, symSize: 0x4 }
  - { offset: 0x264DCF, size: 0x8, addend: 0x0, symName: '__ZNSt3__110__function6__funcIZN19llama_kv_cache_iswaC1ERK11llama_model9ggml_typeS6_bbbbjjjjRKNS_8functionIFbiEEERKNS7_IFiiEEEE3$_1NS_9allocatorISG_EES8_E18destroy_deallocateEv', symObjAddr: 0x22DC, symBinAddr: 0x4CA60, symSize: 0x4 }
  - { offset: 0x264E02, size: 0x8, addend: 0x0, symName: '__ZNSt3__110__function6__funcIZN19llama_kv_cache_iswaC1ERK11llama_model9ggml_typeS6_bbbbjjjjRKNS_8functionIFbiEEERKNS7_IFiiEEEE3$_1NS_9allocatorISG_EES8_E18destroy_deallocateEv', symObjAddr: 0x22DC, symBinAddr: 0x4CA60, symSize: 0x4 }
  - { offset: 0x264EA4, size: 0x8, addend: 0x0, symName: '__ZNSt3__110__function6__funcIZN19llama_kv_cache_iswaC1ERK11llama_model9ggml_typeS6_bbbbjjjjRKNS_8functionIFbiEEERKNS7_IFiiEEEE3$_1NS_9allocatorISG_EES8_EclEOi', symObjAddr: 0x22E0, symBinAddr: 0x4CA64, symSize: 0x5C }
  - { offset: 0x265002, size: 0x8, addend: 0x0, symName: '__ZNKSt3__110__function6__funcIZN19llama_kv_cache_iswaC1ERK11llama_model9ggml_typeS6_bbbbjjjjRKNS_8functionIFbiEEERKNS7_IFiiEEEE3$_1NS_9allocatorISG_EES8_E6targetERKSt9type_info', symObjAddr: 0x233C, symBinAddr: 0x4CAC0, symSize: 0x64 }
  - { offset: 0x2650B6, size: 0x8, addend: 0x0, symName: '__ZNKSt3__110__function6__funcIZN19llama_kv_cache_iswaC1ERK11llama_model9ggml_typeS6_bbbbjjjjRKNS_8functionIFbiEEERKNS7_IFiiEEEE3$_1NS_9allocatorISG_EES8_E11target_typeEv', symObjAddr: 0x23A0, symBinAddr: 0x4CB24, symSize: 0xC }
  - { offset: 0x2A3E95, size: 0x8, addend: 0x0, symName: __ZNSt3__135__uninitialized_allocator_copy_implB8ne200100INS_9allocatorINS_6vectorIjNS1_IjEEEEEEPS4_S6_S6_EET2_RT_T0_T1_S7_, symObjAddr: 0xFBA4, symBinAddr: 0x5BF8C, symSize: 0xF8 }
  - { offset: 0x2A50F4, size: 0x8, addend: 0x0, symName: __ZNSt3__134__uninitialized_allocator_relocateB8ne200100INS_9allocatorIN14llama_kv_cache9slot_infoEEEPS3_EEvRT_T0_S8_S8_, symObjAddr: 0x116D4, symBinAddr: 0x5D550, symSize: 0xF8 }
  - { offset: 0x2A514F, size: 0x8, addend: 0x0, symName: __ZNSt3__134__uninitialized_allocator_relocateB8ne200100INS_9allocatorIN14llama_kv_cache9slot_infoEEEPS3_EEvRT_T0_S8_S8_, symObjAddr: 0x116D4, symBinAddr: 0x5D550, symSize: 0xF8 }
  - { offset: 0x2AE419, size: 0x8, addend: 0x0, symName: __ZN14llama_kv_cacheC2ERK11llama_model9ggml_typeS3_bbbjjjj14llama_swa_typeRKNSt3__18functionIFbiEEERKNS6_IFiiEEE, symObjAddr: 0x0, symBinAddr: 0x4CDBC, symSize: 0x1210 }
  - { offset: 0x2B1CF7, size: 0x8, addend: 0x0, symName: __ZN14llama_kv_cache7prepareERKNSt3__16vectorI12llama_ubatchNS0_9allocatorIS2_EEEE, symObjAddr: 0x3524, symBinAddr: 0x5027C, symSize: 0xF40 }
  - { offset: 0x2B84A4, size: 0x8, addend: 0x0, symName: __ZNSt3__16vectorI14llama_kv_cellsNS_9allocatorIS1_EEE8__appendEm, symObjAddr: 0x103E8, symBinAddr: 0x5C4E4, symSize: 0x25C }
  - { offset: 0x2B8C09, size: 0x8, addend: 0x0, symName: __ZNSt3__16vectorI14llama_kv_cellsNS_9allocatorIS1_EEE20__throw_length_errorB8ne200100Ev, symObjAddr: 0x10644, symBinAddr: 0x5C740, symSize: 0x14 }
  - { offset: 0x2B8C14, size: 0x8, addend: 0x0, symName: __ZNSt3__19allocatorI14llama_kv_cellsE7destroyB8ne200100EPS1_, symObjAddr: 0x101D0, symBinAddr: 0x5C400, symSize: 0x90 }
  - { offset: 0x2B9278, size: 0x8, addend: 0x0, symName: __ZN14llama_kv_cells6resizeEj, symObjAddr: 0x1210, symBinAddr: 0x4DFCC, symSize: 0x178 }
  - { offset: 0x2B970C, size: 0x8, addend: 0x0, symName: __ZNSt3__16vectorIjNS_9allocatorIjEEE8__appendEmRKj, symObjAddr: 0x1077C, symBinAddr: 0x5C878, symSize: 0x1B4 }
  - { offset: 0x2B9C76, size: 0x8, addend: 0x0, symName: __ZNSt3__112__hash_tableINS_17__hash_value_typeIiiEENS_22__unordered_map_hasherIiS2_NS_4hashIiEENS_8equal_toIiEELb1EEENS_21__unordered_map_equalIiS2_S7_S5_Lb1EEENS_9allocatorIS2_EEE25__emplace_unique_key_argsIiJRKNS_21piecewise_construct_tENS_5tupleIJOiEEENSI_IJEEEEEENS_4pairINS_15__hash_iteratorIPNS_11__hash_nodeIS2_PvEEEEbEERKT_DpOT0_, symObjAddr: 0x10990, symBinAddr: 0x5CA2C, symSize: 0x324 }
  - { offset: 0x2BA3C3, size: 0x8, addend: 0x0, symName: __ZNSt3__16vectorIN14llama_kv_cache8kv_layerENS_9allocatorIS2_EEE24__emplace_back_slow_pathIJS2_EEEPS2_DpOT_, symObjAddr: 0x10E34, symBinAddr: 0x5CED0, symSize: 0x1D4 }
  - { offset: 0x2BAC15, size: 0x8, addend: 0x0, symName: __ZNSt3__16vectorIN14llama_kv_cache8kv_layerENS_9allocatorIS2_EEE20__throw_length_errorB8ne200100Ev, symObjAddr: 0x11008, symBinAddr: 0x5D0A4, symSize: 0x14 }
  - { offset: 0x2BAC2B, size: 0x8, addend: 0x0, symName: __ZNSt3__112__hash_tableINS_17__hash_value_typeIiiEENS_22__unordered_map_hasherIiS2_NS_4hashIiEENS_8equal_toIiEELb1EEENS_21__unordered_map_equalIiS2_S7_S5_Lb1EEENS_9allocatorIS2_EEE25__emplace_unique_key_argsIiJRKNS_21piecewise_construct_tENS_5tupleIJRKiEEENSI_IJEEEEEENS_4pairINS_15__hash_iteratorIPNS_11__hash_nodeIS2_PvEEEEbEERKT_DpOT0_, symObjAddr: 0x1101C, symBinAddr: 0x5D0B8, symSize: 0x324 }
  - { offset: 0x2BB467, size: 0x8, addend: 0x0, symName: __ZNSt3__16__treeINS_12__value_typeIP24ggml_backend_buffer_typeNS_10unique_ptrI12ggml_context20ggml_context_deleterEEEENS_19__map_value_compareIS3_S8_ZN14llama_kv_cacheC1ERK11llama_model9ggml_typeSE_bbbjjjj14llama_swa_typeRKNS_8functionIFbiEEERKNSG_IFiiEEEE28ggml_backend_buft_comparatorLb1EEENS_9allocatorIS8_EEE7destroyEPNS_11__tree_nodeIS8_PvEE, symObjAddr: 0x10260, symBinAddr: 0x5C490, symSize: 0x54 }
  - { offset: 0x2BB673, size: 0x8, addend: 0x0, symName: __ZNSt3__112__hash_tableINS_17__hash_value_typeIiiEENS_22__unordered_map_hasherIiS2_NS_4hashIiEENS_8equal_toIiEELb1EEENS_21__unordered_map_equalIiS2_S7_S5_Lb1EEENS_9allocatorIS2_EEE25__emplace_unique_key_argsIiJRKNS_21piecewise_construct_tENS_5tupleIJOiEEENSI_IJEEEEEENS_4pairINS_15__hash_iteratorIPNS_11__hash_nodeIS2_PvEEEEbEERKT_DpOT0_, symObjAddr: 0x10990, symBinAddr: 0x5CA2C, symSize: 0x324 }
  - { offset: 0x2BB67E, size: 0x8, addend: 0x0, symName: __ZNSt3__16vectorINS_4pairINS_10unique_ptrI12ggml_context20ggml_context_deleterEENS2_I19ggml_backend_buffer27ggml_backend_buffer_deleterEEEENS_9allocatorIS9_EEE20__throw_length_errorB8ne200100Ev, symObjAddr: 0x11340, symBinAddr: 0x5D3DC, symSize: 0x14 }
  - { offset: 0x2BB6A1, size: 0x8, addend: 0x0, symName: __ZN14llama_kv_cache8kv_layerD1Ev, symObjAddr: 0x1388, symBinAddr: 0x4E144, symSize: 0x40 }
  - { offset: 0x2BB929, size: 0x8, addend: 0x0, symName: __ZNSt3__113unordered_mapIiiNS_4hashIiEENS_8equal_toIiEENS_9allocatorINS_4pairIKiiEEEEED1B8ne200100Ev, symObjAddr: 0x1488, symBinAddr: 0x4E244, symSize: 0x48 }
  - { offset: 0x2BBBBC, size: 0x8, addend: 0x0, symName: __ZNSt3__16vectorIN14llama_kv_cache8kv_layerENS_9allocatorIS2_EEED1B8ne200100Ev, symObjAddr: 0x14D0, symBinAddr: 0x4E28C, symSize: 0x80 }
  - { offset: 0x2BBFAE, size: 0x8, addend: 0x0, symName: __ZN14llama_kv_cache16stream_copy_infoD1Ev, symObjAddr: 0x1550, symBinAddr: 0x4E30C, symSize: 0x40 }
  - { offset: 0x2BC22A, size: 0x8, addend: 0x0, symName: __ZNSt3__16vectorI14llama_kv_cellsNS_9allocatorIS1_EEED1B8ne200100Ev, symObjAddr: 0x1590, symBinAddr: 0x4E34C, symSize: 0x68 }
  - { offset: 0x2BC393, size: 0x8, addend: 0x0, symName: __ZNSt3__16vectorINS_4pairINS_10unique_ptrI12ggml_context20ggml_context_deleterEENS2_I19ggml_backend_buffer27ggml_backend_buffer_deleterEEEENS_9allocatorIS9_EEED1B8ne200100Ev, symObjAddr: 0x15F8, symBinAddr: 0x4E3B4, symSize: 0x84 }
  - { offset: 0x2BCC02, size: 0x8, addend: 0x0, symName: __ZNSt3__16vectorI17llama_kv_cell_extNS_9allocatorIS1_EEE8__appendEm, symObjAddr: 0xEEBC, symBinAddr: 0x5B8D0, symSize: 0x120 }
  - { offset: 0x2BD036, size: 0x8, addend: 0x0, symName: __ZNSt3__16vectorI17llama_kv_cell_extNS_9allocatorIS1_EEE20__throw_length_errorB8ne200100Ev, symObjAddr: 0xEFDC, symBinAddr: 0x5B9F0, symSize: 0x14 }
  - { offset: 0x2BD041, size: 0x8, addend: 0x0, symName: __ZNSt3__16vectorINS_6bitsetILm256EEENS_9allocatorIS2_EEE8__appendEm, symObjAddr: 0xEFF0, symBinAddr: 0x5BA04, symSize: 0x120 }
  - { offset: 0x2BD4AC, size: 0x8, addend: 0x0, symName: __ZNSt3__16__treeIjNS_4lessIjEENS_9allocatorIjEEE7destroyEPNS_11__tree_nodeIjPvEE, symObjAddr: 0xF2D0, symBinAddr: 0x5BB24, symSize: 0x44 }
  - { offset: 0x2BD679, size: 0x8, addend: 0x0, symName: __ZNK14llama_kv_cache12size_k_bytesEv, symObjAddr: 0x13C8, symBinAddr: 0x4E184, symSize: 0x64 }
  - { offset: 0x2BD727, size: 0x8, addend: 0x0, symName: __ZNK14llama_kv_cache12size_v_bytesEv, symObjAddr: 0x142C, symBinAddr: 0x4E1E8, symSize: 0x5C }
  - { offset: 0x2BDE0C, size: 0x8, addend: 0x0, symName: __ZN14llama_kv_cacheC1ERK11llama_model9ggml_typeS3_bbbjjjj14llama_swa_typeRKNSt3__18functionIFbiEEERKNS6_IFiiEEE, symObjAddr: 0x167C, symBinAddr: 0x4E438, symSize: 0x20 }
  - { offset: 0x2BDFB3, size: 0x8, addend: 0x0, symName: __ZN14llama_kv_cache5clearEb, symObjAddr: 0x169C, symBinAddr: 0x4E458, symSize: 0x148 }
  - { offset: 0x2BE948, size: 0x8, addend: 0x0, symName: __ZN14llama_kv_cache6seq_rmEiii, symObjAddr: 0x17E4, symBinAddr: 0x4E5A0, symSize: 0x444 }
  - { offset: 0x2BF4F1, size: 0x8, addend: 0x0, symName: __ZN14llama_kv_cells6seq_rmEji, symObjAddr: 0x1C28, symBinAddr: 0x4E9E4, symSize: 0x288 }
  - { offset: 0x2BF504, size: 0x8, addend: 0x0, symName: __ZN14llama_kv_cells6seq_rmEji, symObjAddr: 0x1C28, symBinAddr: 0x4E9E4, symSize: 0x288 }
  - { offset: 0x2BFC02, size: 0x8, addend: 0x0, symName: __ZN14llama_kv_cache6seq_cpEiiii, symObjAddr: 0x1EB0, symBinAddr: 0x4EC6C, symSize: 0x638 }
  - { offset: 0x2C0398, size: 0x8, addend: 0x0, symName: __ZN14llama_kv_cache6seq_cpEiiii, symObjAddr: 0x1EB0, symBinAddr: 0x4EC6C, symSize: 0x638 }
  - { offset: 0x2C1879, size: 0x8, addend: 0x0, symName: __ZN14llama_kv_cells7seq_addEji, symObjAddr: 0x24E8, symBinAddr: 0x4F2A4, symSize: 0x110 }
  - { offset: 0x2C1884, size: 0x8, addend: 0x0, symName: __ZN14llama_kv_cells7seq_addEji, symObjAddr: 0x24E8, symBinAddr: 0x4F2A4, symSize: 0x110 }
  - { offset: 0x2C1C41, size: 0x8, addend: 0x0, symName: __ZNK14llama_kv_cache8get_sizeEv, symObjAddr: 0x25F8, symBinAddr: 0x4F3B4, symSize: 0x24 }
  - { offset: 0x2C1C4C, size: 0x8, addend: 0x0, symName: __ZN14llama_kv_cells7pos_addEji, symObjAddr: 0x261C, symBinAddr: 0x4F3D8, symSize: 0x144 }
  - { offset: 0x2C2073, size: 0x8, addend: 0x0, symName: __ZNSt3__16vectorI14llama_kv_cellsNS_9allocatorIS1_EEE8__appendEm, symObjAddr: 0x103E8, symBinAddr: 0x5C4E4, symSize: 0x25C }
  - { offset: 0x2C24E6, size: 0x8, addend: 0x0, symName: __ZNK14llama_kv_cache8get_sizeEv, symObjAddr: 0x25F8, symBinAddr: 0x4F3B4, symSize: 0x24 }
  - { offset: 0x2C2513, size: 0x8, addend: 0x0, symName: __ZNK14llama_kv_cache8get_sizeEv, symObjAddr: 0x25F8, symBinAddr: 0x4F3B4, symSize: 0x24 }
  - { offset: 0x2C259C, size: 0x8, addend: 0x0, symName: __ZN14llama_kv_cells10seq_pos_rmEj, symObjAddr: 0xF780, symBinAddr: 0x5BB68, symSize: 0x128 }
  - { offset: 0x2C2972, size: 0x8, addend: 0x0, symName: __ZN14llama_kv_cells11seq_pos_addEj, symObjAddr: 0xF8A8, symBinAddr: 0x5BC90, symSize: 0x11C }
  - { offset: 0x2C2D64, size: 0x8, addend: 0x0, symName: __ZN14llama_kv_cache8seq_keepEi, symObjAddr: 0x2760, symBinAddr: 0x4F51C, symSize: 0xE4 }
  - { offset: 0x2C2EF6, size: 0x8, addend: 0x0, symName: __ZN14llama_kv_cells8seq_keepEji, symObjAddr: 0x2844, symBinAddr: 0x4F600, symSize: 0x25C }
  - { offset: 0x2C2F09, size: 0x8, addend: 0x0, symName: __ZN14llama_kv_cells8seq_keepEji, symObjAddr: 0x2844, symBinAddr: 0x4F600, symSize: 0x25C }
  - { offset: 0x2C3824, size: 0x8, addend: 0x0, symName: __ZN14llama_kv_cache7seq_addEiiii, symObjAddr: 0x2AA0, symBinAddr: 0x4F85C, symSize: 0x1F0 }
  - { offset: 0x2C382F, size: 0x8, addend: 0x0, symName: __ZN14llama_kv_cache7seq_addEiiii, symObjAddr: 0x2AA0, symBinAddr: 0x4F85C, symSize: 0x1F0 }
  - { offset: 0x2C3A53, size: 0x8, addend: 0x0, symName: __ZN14llama_kv_cache7seq_divEiiii, symObjAddr: 0x2C90, symBinAddr: 0x4FA4C, symSize: 0x1F0 }
  - { offset: 0x2C3AA5, size: 0x8, addend: 0x0, symName: __ZN14llama_kv_cache7seq_divEiiii, symObjAddr: 0x2C90, symBinAddr: 0x4FA4C, symSize: 0x1F0 }
  - { offset: 0x2C3D01, size: 0x8, addend: 0x0, symName: __ZNK14llama_kv_cache11seq_pos_minEi, symObjAddr: 0x2E80, symBinAddr: 0x4FC3C, symSize: 0x7C }
  - { offset: 0x2C3D7E, size: 0x8, addend: 0x0, symName: __ZNK14llama_kv_cache11seq_pos_minEi, symObjAddr: 0x2E80, symBinAddr: 0x4FC3C, symSize: 0x7C }
  - { offset: 0x2C3E70, size: 0x8, addend: 0x0, symName: __ZNK14llama_kv_cache11seq_pos_maxEi, symObjAddr: 0x2EFC, symBinAddr: 0x4FCB8, symSize: 0xB8 }
  - { offset: 0x2C3F1A, size: 0x8, addend: 0x0, symName: __ZNK14llama_kv_cache11seq_pos_maxEi, symObjAddr: 0x2EFC, symBinAddr: 0x4FCB8, symSize: 0xB8 }
  - { offset: 0x2C40A0, size: 0x8, addend: 0x0, symName: __ZNK14llama_kv_cache16memory_breakdownEv, symObjAddr: 0x2FB4, symBinAddr: 0x4FD70, symSize: 0x1F8 }
  - { offset: 0x2C4653, size: 0x8, addend: 0x0, symName: __ZNK14llama_kv_cache16memory_breakdownEv, symObjAddr: 0x2FB4, symBinAddr: 0x4FD70, symSize: 0x1F8 }
  - { offset: 0x2C54F0, size: 0x8, addend: 0x0, symName: __ZN14llama_kv_cache10init_batchER18llama_batch_allocrjb, symObjAddr: 0x31AC, symBinAddr: 0x4FF68, symSize: 0x314 }
  - { offset: 0x2C802D, size: 0x8, addend: 0x0, symName: __ZNK14llama_kv_cache9find_slotERK12llama_ubatchb, symObjAddr: 0x47E4, symBinAddr: 0x513E0, symSize: 0xC04 }
  - { offset: 0x2CA55E, size: 0x8, addend: 0x0, symName: __ZN14llama_kv_cache9slot_infoC2ERKS0_, symObjAddr: 0xF9C4, symBinAddr: 0x5BDAC, symSize: 0x148 }
  - { offset: 0x2CAB9D, size: 0x8, addend: 0x0, symName: __ZNSt3__16vectorIN14llama_kv_cache9slot_infoENS_9allocatorIS2_EEE24__emplace_back_slow_pathIJRKS2_EEEPS2_DpOT_, symObjAddr: 0x11574, symBinAddr: 0x5D3F0, symSize: 0x14C }
  - { offset: 0x2CAF7D, size: 0x8, addend: 0x0, symName: __ZZN14llama_kv_cache7prepareERKNSt3__16vectorI12llama_ubatchNS0_9allocatorIS2_EEEEEN7state_tD1Ev, symObjAddr: 0x5504, symBinAddr: 0x52100, symSize: 0xD4 }
  - { offset: 0x2CB62D, size: 0x8, addend: 0x0, symName: __ZN14llama_kv_cache12apply_ubatchERKNS_9slot_infoERK12llama_ubatch, symObjAddr: 0x55D8, symBinAddr: 0x521D4, symSize: 0xA2C }
  - { offset: 0x2CCFCF, size: 0x8, addend: 0x0, symName: __ZN14llama_kv_cells3setERKNSt3__16vectorIjNS0_9allocatorIjEEEERKS_, symObjAddr: 0x6004, symBinAddr: 0x52C00, symSize: 0x250 }
  - { offset: 0x2CD013, size: 0x8, addend: 0x0, symName: __ZN14llama_kv_cells3setERKNSt3__16vectorIjNS0_9allocatorIjEEEERKS_, symObjAddr: 0x6004, symBinAddr: 0x52C00, symSize: 0x250 }
  - { offset: 0x2CD6FE, size: 0x8, addend: 0x0, symName: __ZNSt3__16vectorI14llama_kv_cellsNS_9allocatorIS1_EEE20__throw_length_errorB8ne200100Ev, symObjAddr: 0x10644, symBinAddr: 0x5C740, symSize: 0x14 }
  - { offset: 0x2CD716, size: 0x8, addend: 0x0, symName: __ZNSt3__19allocatorI14llama_kv_cellsE9constructB8ne200100IS1_JS1_EEEvPT_DpOT0_, symObjAddr: 0x10658, symBinAddr: 0x5C754, symSize: 0x124 }
  - { offset: 0x2CD721, size: 0x8, addend: 0x0, symName: __ZNSt3__16vectorIZN14llama_kv_cache7prepareERKNS0_I12llama_ubatchNS_9allocatorIS2_EEEEE7state_tNS3_IS8_EEE20__throw_length_errorB8ne200100Ev, symObjAddr: 0x11884, symBinAddr: 0x5D700, symSize: 0x14 }
  - { offset: 0x2CD739, size: 0x8, addend: 0x0, symName: __ZNSt3__113unordered_mapIiNS_6vectorIjNS_9allocatorIjEEEENS_4hashIiEENS_8equal_toIiEENS2_INS_4pairIKiS4_EEEEED1B8ne200100Ev, symObjAddr: 0x11898, symBinAddr: 0x5D714, symSize: 0x68 }
  - { offset: 0x2CD744, size: 0x8, addend: 0x0, symName: __ZN14llama_kv_cache9slot_infoD1Ev, symObjAddr: 0x53E8, symBinAddr: 0x51FE4, symSize: 0x84 }
  - { offset: 0x2CDB26, size: 0x8, addend: 0x0, symName: __ZN14llama_kv_cellsD1Ev, symObjAddr: 0x546C, symBinAddr: 0x52068, symSize: 0x98 }
  - { offset: 0x2CE167, size: 0x8, addend: 0x0, symName: __ZNSt3__16vectorIZN14llama_kv_cache7prepareERKNS0_I12llama_ubatchNS_9allocatorIS2_EEEEE7state_tNS3_IS8_EEED1B8ne200100Ev, symObjAddr: 0x6254, symBinAddr: 0x52E50, symSize: 0x58 }
  - { offset: 0x2CE2ED, size: 0x8, addend: 0x0, symName: __ZN14llama_kv_cache9init_fullEv, symObjAddr: 0x45C0, symBinAddr: 0x511BC, symSize: 0x54 }
  - { offset: 0x2CE396, size: 0x8, addend: 0x0, symName: __ZN22llama_kv_cache_contextC2EP14llama_kv_cache, symObjAddr: 0xE22C, symBinAddr: 0x5AE28, symSize: 0x290 }
  - { offset: 0x2CED4D, size: 0x8, addend: 0x0, symName: __ZN14llama_kv_cache11init_updateEP13llama_contextb, symObjAddr: 0x4614, symBinAddr: 0x51210, symSize: 0x138 }
  - { offset: 0x2CF03D, size: 0x8, addend: 0x0, symName: __ZNK14llama_kv_cache13get_has_shiftEv, symObjAddr: 0x474C, symBinAddr: 0x51348, symSize: 0x98 }
  - { offset: 0x2CF727, size: 0x8, addend: 0x0, symName: __ZNSt3__16vectorINS0_IjNS_9allocatorIjEEEENS1_IS3_EEE8__appendEm, symObjAddr: 0x10050, symBinAddr: 0x5C280, symSize: 0x180 }
  - { offset: 0x2CFB6A, size: 0x8, addend: 0x0, symName: __ZNSt3__19allocatorI14llama_kv_cellsE7destroyB8ne200100EPS1_, symObjAddr: 0x101D0, symBinAddr: 0x5C400, symSize: 0x90 }
  - { offset: 0x2CFD10, size: 0x8, addend: 0x0, symName: __ZN14llama_kv_cache6updateEP13llama_contextbRKNS_16stream_copy_infoE, symObjAddr: 0x62AC, symBinAddr: 0x52EA8, symSize: 0x2F0 }
  - { offset: 0x2D00DE, size: 0x8, addend: 0x0, symName: __ZNK14llama_kv_cache17build_graph_shiftEP16llm_graph_resultP13llama_context, symObjAddr: 0x659C, symBinAddr: 0x53198, symSize: 0x2D0 }
  - { offset: 0x2D011F, size: 0x8, addend: 0x0, symName: __ZNK14llama_kv_cache17build_graph_shiftEP16llm_graph_resultP13llama_context, symObjAddr: 0x659C, symBinAddr: 0x53198, symSize: 0x2D0 }
  - { offset: 0x2D096D, size: 0x8, addend: 0x0, symName: __ZNK14llama_kv_cache16build_rope_shiftERK13llama_cparamsP12ggml_contextP11ggml_tensorS6_S6_ff, symObjAddr: 0xC228, symBinAddr: 0x58E24, symSize: 0x110 }
  - { offset: 0x2D0B05, size: 0x8, addend: 0x0, symName: __ZNK14llama_kv_cache13get_can_shiftEv, symObjAddr: 0x686C, symBinAddr: 0x53468, symSize: 0x8 }
  - { offset: 0x2D0B2B, size: 0x8, addend: 0x0, symName: __ZNK14llama_kv_cache12get_n_streamEv, symObjAddr: 0x6874, symBinAddr: 0x53470, symSize: 0x8 }
  - { offset: 0x2D0B4D, size: 0x8, addend: 0x0, symName: __ZNK14llama_kv_cache8get_n_kvERKNS_9slot_infoE, symObjAddr: 0x687C, symBinAddr: 0x53478, symSize: 0xCC }
  - { offset: 0x2D0B8C, size: 0x8, addend: 0x0, symName: __ZNK14llama_kv_cache8get_n_kvERKNS_9slot_infoE, symObjAddr: 0x687C, symBinAddr: 0x53478, symSize: 0xCC }
  - { offset: 0x2D0BAA, size: 0x8, addend: 0x0, symName: __ZNK14llama_kv_cache8get_n_kvERKNS_9slot_infoE, symObjAddr: 0x687C, symBinAddr: 0x53478, symSize: 0xCC }
  - { offset: 0x2D0BC7, size: 0x8, addend: 0x0, symName: __ZNK14llama_kv_cache8get_n_kvERKNS_9slot_infoE, symObjAddr: 0x687C, symBinAddr: 0x53478, symSize: 0xCC }
  - { offset: 0x2D0E3F, size: 0x8, addend: 0x0, symName: __ZNK14llama_kv_cache5get_kEP12ggml_contextijRKNS_9slot_infoE, symObjAddr: 0x6948, symBinAddr: 0x53544, symSize: 0x200 }
  - { offset: 0x2D11CB, size: 0x8, addend: 0x0, symName: __ZNK14llama_kv_cache5get_vEP12ggml_contextijRKNS_9slot_infoE, symObjAddr: 0x6B48, symBinAddr: 0x53744, symSize: 0x294 }
  - { offset: 0x2D1216, size: 0x8, addend: 0x0, symName: __ZNK14llama_kv_cache5get_vEP12ggml_contextijRKNS_9slot_infoE, symObjAddr: 0x6B48, symBinAddr: 0x53744, symSize: 0x294 }
  - { offset: 0x2D15BA, size: 0x8, addend: 0x0, symName: __ZNK14llama_kv_cache5cpy_kEP12ggml_contextP11ggml_tensorS3_iRKNS_9slot_infoE, symObjAddr: 0x6DDC, symBinAddr: 0x539D8, symSize: 0x1F8 }
  - { offset: 0x2D15C5, size: 0x8, addend: 0x0, symName: __ZNK14llama_kv_cache5cpy_kEP12ggml_contextP11ggml_tensorS3_iRKNS_9slot_infoE, symObjAddr: 0x6DDC, symBinAddr: 0x539D8, symSize: 0x1F8 }
  - { offset: 0x2D198C, size: 0x8, addend: 0x0, symName: __ZNK14llama_kv_cache5cpy_vEP12ggml_contextP11ggml_tensorS3_iRKNS_9slot_infoE, symObjAddr: 0x6FD4, symBinAddr: 0x53BD0, symSize: 0x2D0 }
  - { offset: 0x2D19E3, size: 0x8, addend: 0x0, symName: __ZNK14llama_kv_cache5cpy_vEP12ggml_contextP11ggml_tensorS3_iRKNS_9slot_infoE, symObjAddr: 0x6FD4, symBinAddr: 0x53BD0, symSize: 0x2D0 }
  - { offset: 0x2D1EA9, size: 0x8, addend: 0x0, symName: __ZNK14llama_kv_cache18build_input_k_idxsEP12ggml_contextRK12llama_ubatch, symObjAddr: 0x72A4, symBinAddr: 0x53EA0, symSize: 0x34 }
  - { offset: 0x2D1F1D, size: 0x8, addend: 0x0, symName: __ZNK14llama_kv_cache18build_input_k_idxsEP12ggml_contextRK12llama_ubatch, symObjAddr: 0x72A4, symBinAddr: 0x53EA0, symSize: 0x34 }
  - { offset: 0x2D1F88, size: 0x8, addend: 0x0, symName: __ZNK14llama_kv_cache18build_input_v_idxsEP12ggml_contextRK12llama_ubatch, symObjAddr: 0x72D8, symBinAddr: 0x53ED4, symSize: 0x54 }
  - { offset: 0x2D1FFB, size: 0x8, addend: 0x0, symName: __ZNK14llama_kv_cache16set_input_k_idxsEP11ggml_tensorPK12llama_ubatchRKNS_9slot_infoE, symObjAddr: 0x732C, symBinAddr: 0x53F28, symSize: 0x33C }
  - { offset: 0x2D21A1, size: 0x8, addend: 0x0, symName: __ZNK14llama_kv_cache16set_input_v_idxsEP11ggml_tensorPK12llama_ubatchRKNS_9slot_infoE, symObjAddr: 0x7668, symBinAddr: 0x54264, symSize: 0x538 }
  - { offset: 0x2D21C6, size: 0x8, addend: 0x0, symName: __ZNK14llama_kv_cache16set_input_v_idxsEP11ggml_tensorPK12llama_ubatchRKNS_9slot_infoE, symObjAddr: 0x7668, symBinAddr: 0x54264, symSize: 0x538 }
  - { offset: 0x2D24A5, size: 0x8, addend: 0x0, symName: __ZNK14llama_kv_cache17set_input_k_shiftEP11ggml_tensor, symObjAddr: 0x7BA0, symBinAddr: 0x5479C, symSize: 0xF0 }
  - { offset: 0x2D24B8, size: 0x8, addend: 0x0, symName: __ZNK14llama_kv_cache17set_input_k_shiftEP11ggml_tensor, symObjAddr: 0x7BA0, symBinAddr: 0x5479C, symSize: 0xF0 }
  - { offset: 0x2D25DA, size: 0x8, addend: 0x0, symName: __ZNK14llama_kv_cache17set_input_kq_maskEP11ggml_tensorPK12llama_ubatchb, symObjAddr: 0x7C90, symBinAddr: 0x5488C, symSize: 0x43F0 }
  - { offset: 0x2D4FB3, size: 0x8, addend: 0x0, symName: __ZNK14llama_kv_cache17set_input_kq_maskEP11ggml_tensorPK12llama_ubatchb, symObjAddr: 0x7C90, symBinAddr: 0x5488C, symSize: 0x43F0 }
  - { offset: 0x2E4D62, size: 0x8, addend: 0x0, symName: __ZNSt3__112__hash_tableINS_17__hash_value_typeIiNS_6vectorIjNS_9allocatorIjEEEEEENS_22__unordered_map_hasherIiS6_NS_4hashIiEENS_8equal_toIiEELb1EEENS_21__unordered_map_equalIiS6_SB_S9_Lb1EEENS3_IS6_EEE25__emplace_unique_key_argsIiJRKNS_21piecewise_construct_tENS_5tupleIJRKiEEENSL_IJEEEEEENS_4pairINS_15__hash_iteratorIPNS_11__hash_nodeIS6_PvEEEEbEERKT_DpOT0_, symObjAddr: 0x1195C, symBinAddr: 0x5D7D8, symSize: 0x334 }
  - { offset: 0x2E549A, size: 0x8, addend: 0x0, symName: __ZNSt3__112__hash_tableINS_17__hash_value_typeIijEENS_22__unordered_map_hasherIiS2_NS_4hashIiEENS_8equal_toIiEELb1EEENS_21__unordered_map_equalIiS2_S7_S5_Lb1EEENS_9allocatorIS2_EEE25__emplace_unique_key_argsIiJRKNS_21piecewise_construct_tENS_5tupleIJRKiEEENSI_IJEEEEEENS_4pairINS_15__hash_iteratorIPNS_11__hash_nodeIS2_PvEEEEbEERKT_DpOT0_, symObjAddr: 0x11E70, symBinAddr: 0x5DCEC, symSize: 0x324 }
  - { offset: 0x2E5BE7, size: 0x8, addend: 0x0, symName: __ZNSt3__16vectorI14llama_kv_cellsNS_9allocatorIS1_EEE20__throw_out_of_rangeB8ne200100Ev, symObjAddr: 0x11948, symBinAddr: 0x5D7C4, symSize: 0x14 }
  - { offset: 0x2E5BFF, size: 0x8, addend: 0x0, symName: __ZNSt3__112__hash_tableINS_17__hash_value_typeIiNS_6vectorIjNS_9allocatorIjEEEEEENS_22__unordered_map_hasherIiS6_NS_4hashIiEENS_8equal_toIiEELb1EEENS_21__unordered_map_equalIiS6_SB_S9_Lb1EEENS3_IS6_EEE25__emplace_unique_key_argsIiJRKNS_21piecewise_construct_tENS_5tupleIJRKiEEENSL_IJEEEEEENS_4pairINS_15__hash_iteratorIPNS_11__hash_nodeIS6_PvEEEEbEERKT_DpOT0_, symObjAddr: 0x1195C, symBinAddr: 0x5D7D8, symSize: 0x334 }
  - { offset: 0x2E5C0A, size: 0x8, addend: 0x0, symName: __ZNSt3__113unordered_mapIiNS_6vectorIjNS_9allocatorIjEEEENS_4hashIiEENS_8equal_toIiEENS2_INS_4pairIKiS4_EEEEED1B8ne200100Ev, symObjAddr: 0x11898, symBinAddr: 0x5D714, symSize: 0x68 }
  - { offset: 0x2E6025, size: 0x8, addend: 0x0, symName: __ZNSt3__113unordered_mapIijNS_4hashIiEENS_8equal_toIiEENS_9allocatorINS_4pairIKijEEEEED1B8ne200100Ev, symObjAddr: 0x11900, symBinAddr: 0x5D77C, symSize: 0x48 }
  - { offset: 0x2E62CE, size: 0x8, addend: 0x0, symName: __ZNK14llama_kv_cache20set_input_pos_bucketEP11ggml_tensorPK12llama_ubatch, symObjAddr: 0xC080, symBinAddr: 0x58C7C, symSize: 0x144 }
  - { offset: 0x2E6493, size: 0x8, addend: 0x0, symName: __ZNK14llama_kv_cache10total_sizeEv, symObjAddr: 0xC1C4, symBinAddr: 0x58DC0, symSize: 0x64 }
  - { offset: 0x2E64CB, size: 0x8, addend: 0x0, symName: __ZNK14llama_kv_cache10total_sizeEv, symObjAddr: 0xC1C4, symBinAddr: 0x58DC0, symSize: 0x64 }
  - { offset: 0x2E670C, size: 0x8, addend: 0x0, symName: __ZN23llm_graph_input_k_shift9set_inputEPK12llama_ubatch, symObjAddr: 0xC338, symBinAddr: 0x58F34, symSize: 0xF4 }
  - { offset: 0x2E6843, size: 0x8, addend: 0x0, symName: __ZNK14llama_kv_cache11state_writeER16llama_io_write_iij, symObjAddr: 0xC42C, symBinAddr: 0x59028, symSize: 0x4BC }
  - { offset: 0x2E6FCC, size: 0x8, addend: 0x0, symName: __ZNK14llama_kv_cache11state_writeER16llama_io_write_iij, symObjAddr: 0xC42C, symBinAddr: 0x59028, symSize: 0x4BC }
  - { offset: 0x2E7CA8, size: 0x8, addend: 0x0, symName: __ZNK14llama_kv_cache16state_write_metaER16llama_io_write_iRKNS_13cell_ranges_tEi, symObjAddr: 0xC8E8, symBinAddr: 0x594E4, symSize: 0x27C }
  - { offset: 0x2E8451, size: 0x8, addend: 0x0, symName: __ZNK14llama_kv_cache16state_write_dataER16llama_io_write_iRKNS_13cell_ranges_tE, symObjAddr: 0xCB64, symBinAddr: 0x59760, symSize: 0x384 }
  - { offset: 0x2E8C72, size: 0x8, addend: 0x0, symName: __ZNSt3__16vectorINS_4pairIjjEENS_9allocatorIS2_EEE20__throw_length_errorB8ne200100Ev, symObjAddr: 0x12314, symBinAddr: 0x5E190, symSize: 0x14 }
  - { offset: 0x2E8C8A, size: 0x8, addend: 0x0, symName: __ZNSt3__16vectorIN14llama_kv_cache9slot_infoENS_9allocatorIS2_EEE8__appendEm, symObjAddr: 0x12328, symBinAddr: 0x5E1A4, symSize: 0x1D8 }
  - { offset: 0x2E8F7B, size: 0x8, addend: 0x0, symName: __ZN14llama_kv_cache10state_readER15llama_io_read_iij, symObjAddr: 0xCEE8, symBinAddr: 0x59AE4, symSize: 0x2A0 }
  - { offset: 0x2E95C1, size: 0x8, addend: 0x0, symName: __ZN14llama_kv_cache15state_read_metaER15llama_io_read_ijjRNS_9slot_infoEi, symObjAddr: 0xD188, symBinAddr: 0x59D84, symSize: 0x780 }
  - { offset: 0x2EA789, size: 0x8, addend: 0x0, symName: __ZN14llama_kv_cache15state_read_dataER15llama_io_read_ijjRKNS_9slot_infoE, symObjAddr: 0xD908, symBinAddr: 0x5A504, symSize: 0x8B4 }
  - { offset: 0x2EB3F6, size: 0x8, addend: 0x0, symName: __ZN22llama_kv_cache_contextC2E19llama_memory_status, symObjAddr: 0xE1BC, symBinAddr: 0x5ADB8, symSize: 0x38 }
  - { offset: 0x2EC0CA, size: 0x8, addend: 0x0, symName: __ZN22llama_kv_cache_contextC2E19llama_memory_status, symObjAddr: 0xE1BC, symBinAddr: 0x5ADB8, symSize: 0x38 }
  - { offset: 0x2EC16E, size: 0x8, addend: 0x0, symName: __ZN22llama_kv_cache_contextC1E19llama_memory_status, symObjAddr: 0xE1F4, symBinAddr: 0x5ADF0, symSize: 0x38 }
  - { offset: 0x2EC197, size: 0x8, addend: 0x0, symName: __ZN22llama_kv_cache_contextC1E19llama_memory_status, symObjAddr: 0xE1F4, symBinAddr: 0x5ADF0, symSize: 0x38 }
  - { offset: 0x2EC3C4, size: 0x8, addend: 0x0, symName: __ZNSt3__16vectorIN14llama_kv_cache9slot_infoENS_9allocatorIS2_EEE6resizeEm, symObjAddr: 0xE4BC, symBinAddr: 0x5B0B8, symSize: 0xF0 }
  - { offset: 0x2EC8CB, size: 0x8, addend: 0x0, symName: __ZNSt3__16vectorIN14llama_kv_cache9slot_infoENS_9allocatorIS2_EEE8__appendEm, symObjAddr: 0x12328, symBinAddr: 0x5E1A4, symSize: 0x1D8 }
  - { offset: 0x2ECE12, size: 0x8, addend: 0x0, symName: __ZN22llama_kv_cache_contextC1EP14llama_kv_cache, symObjAddr: 0xE5AC, symBinAddr: 0x5B1A8, symSize: 0x4 }
  - { offset: 0x2ECE3C, size: 0x8, addend: 0x0, symName: __ZN22llama_kv_cache_contextC1EP14llama_kv_cache, symObjAddr: 0xE5AC, symBinAddr: 0x5B1A8, symSize: 0x4 }
  - { offset: 0x2ECE56, size: 0x8, addend: 0x0, symName: __ZN22llama_kv_cache_contextC2EP14llama_kv_cacheP13llama_contextbNS0_16stream_copy_infoE, symObjAddr: 0xE5B0, symBinAddr: 0x5B1AC, symSize: 0x8C }
  - { offset: 0x2ECFF5, size: 0x8, addend: 0x0, symName: __ZN22llama_kv_cache_contextC1EP14llama_kv_cacheP13llama_contextbNS0_16stream_copy_infoE, symObjAddr: 0xE63C, symBinAddr: 0x5B238, symSize: 0x8C }
  - { offset: 0x2ED1CC, size: 0x8, addend: 0x0, symName: __ZN22llama_kv_cache_contextC2EP14llama_kv_cacheNSt3__16vectorINS0_9slot_infoENS2_9allocatorIS4_EEEENS3_I12llama_ubatchNS5_IS8_EEEE, symObjAddr: 0xE6C8, symBinAddr: 0x5B2C4, symSize: 0x6C }
  - { offset: 0x2ED31C, size: 0x8, addend: 0x0, symName: __ZN22llama_kv_cache_contextC1EP14llama_kv_cacheNSt3__16vectorINS0_9slot_infoENS2_9allocatorIS4_EEEENS3_I12llama_ubatchNS5_IS8_EEEE, symObjAddr: 0xE734, symBinAddr: 0x5B330, symSize: 0x6C }
  - { offset: 0x2ED355, size: 0x8, addend: 0x0, symName: __ZN22llama_kv_cache_contextC1EP14llama_kv_cacheNSt3__16vectorINS0_9slot_infoENS2_9allocatorIS4_EEEENS3_I12llama_ubatchNS5_IS8_EEEE, symObjAddr: 0xE734, symBinAddr: 0x5B330, symSize: 0x6C }
  - { offset: 0x2ED4BC, size: 0x8, addend: 0x0, symName: __ZN22llama_kv_cache_contextD2Ev, symObjAddr: 0xE7A0, symBinAddr: 0x5B39C, symSize: 0x160 }
  - { offset: 0x2EDEFA, size: 0x8, addend: 0x0, symName: __ZN22llama_kv_cache_contextD1Ev, symObjAddr: 0xE900, symBinAddr: 0x5B4FC, symSize: 0x4 }
  - { offset: 0x2EDF1D, size: 0x8, addend: 0x0, symName: __ZN22llama_kv_cache_contextD1Ev, symObjAddr: 0xE900, symBinAddr: 0x5B4FC, symSize: 0x4 }
  - { offset: 0x2EDF4D, size: 0x8, addend: 0x0, symName: __ZN22llama_kv_cache_contextD0Ev, symObjAddr: 0xE904, symBinAddr: 0x5B500, symSize: 0x14 }
  - { offset: 0x2EDFAB, size: 0x8, addend: 0x0, symName: __ZN22llama_kv_cache_context4nextEv, symObjAddr: 0xE918, symBinAddr: 0x5B514, symSize: 0x38 }
  - { offset: 0x2EE086, size: 0x8, addend: 0x0, symName: __ZN22llama_kv_cache_context5applyEv, symObjAddr: 0xE950, symBinAddr: 0x5B54C, symSize: 0x13C }
  - { offset: 0x2EE37F, size: 0x8, addend: 0x0, symName: __ZNK22llama_kv_cache_context10get_statusEv, symObjAddr: 0xEA8C, symBinAddr: 0x5B688, symSize: 0x8 }
  - { offset: 0x2EE3CB, size: 0x8, addend: 0x0, symName: __ZNK22llama_kv_cache_context10get_ubatchEv, symObjAddr: 0xEA94, symBinAddr: 0x5B690, symSize: 0x14 }
  - { offset: 0x2EE41C, size: 0x8, addend: 0x0, symName: __ZNK22llama_kv_cache_context8get_n_kvEv, symObjAddr: 0xEAA8, symBinAddr: 0x5B6A4, symSize: 0x8 }
  - { offset: 0x2EE468, size: 0x8, addend: 0x0, symName: __ZNK22llama_kv_cache_context5get_kEP12ggml_contexti, symObjAddr: 0xEAB0, symBinAddr: 0x5B6AC, symSize: 0x1C }
  - { offset: 0x2EE4F2, size: 0x8, addend: 0x0, symName: __ZNK22llama_kv_cache_context5get_vEP12ggml_contexti, symObjAddr: 0xEACC, symBinAddr: 0x5B6C8, symSize: 0x1C }
  - { offset: 0x2EE57C, size: 0x8, addend: 0x0, symName: __ZNK22llama_kv_cache_context5cpy_kEP12ggml_contextP11ggml_tensorS3_i, symObjAddr: 0xEAE8, symBinAddr: 0x5B6E4, symSize: 0x8 }
  - { offset: 0x2EE609, size: 0x8, addend: 0x0, symName: __ZNK22llama_kv_cache_context5cpy_vEP12ggml_contextP11ggml_tensorS3_i, symObjAddr: 0xEAF0, symBinAddr: 0x5B6EC, symSize: 0x8 }
  - { offset: 0x2EE6DF, size: 0x8, addend: 0x0, symName: __ZNK22llama_kv_cache_context18build_input_k_idxsEP12ggml_contextRK12llama_ubatch, symObjAddr: 0xEAF8, symBinAddr: 0x5B6F4, symSize: 0x34 }
  - { offset: 0x2EE7CB, size: 0x8, addend: 0x0, symName: __ZNK22llama_kv_cache_context18build_input_v_idxsEP12ggml_contextRK12llama_ubatch, symObjAddr: 0xEB2C, symBinAddr: 0x5B728, symSize: 0x58 }
  - { offset: 0x2EE87C, size: 0x8, addend: 0x0, symName: __ZNK22llama_kv_cache_context17set_input_k_shiftEP11ggml_tensor, symObjAddr: 0xEB84, symBinAddr: 0x5B780, symSize: 0xF0 }
  - { offset: 0x2EE9B8, size: 0x8, addend: 0x0, symName: __ZNK22llama_kv_cache_context16set_input_k_idxsEP11ggml_tensorPK12llama_ubatch, symObjAddr: 0xEC74, symBinAddr: 0x5B870, symSize: 0x18 }
  - { offset: 0x2EE9CB, size: 0x8, addend: 0x0, symName: __ZNK22llama_kv_cache_context16set_input_k_idxsEP11ggml_tensorPK12llama_ubatch, symObjAddr: 0xEC74, symBinAddr: 0x5B870, symSize: 0x18 }
  - { offset: 0x2EEA55, size: 0x8, addend: 0x0, symName: __ZNK22llama_kv_cache_context16set_input_v_idxsEP11ggml_tensorPK12llama_ubatch, symObjAddr: 0xEC8C, symBinAddr: 0x5B888, symSize: 0x18 }
  - { offset: 0x2EEADF, size: 0x8, addend: 0x0, symName: __ZNK22llama_kv_cache_context17set_input_kq_maskEP11ggml_tensorPK12llama_ubatchb, symObjAddr: 0xECA4, symBinAddr: 0x5B8A0, symSize: 0x8 }
  - { offset: 0x2EEB5C, size: 0x8, addend: 0x0, symName: __ZNK22llama_kv_cache_context20set_input_pos_bucketEP11ggml_tensorPK12llama_ubatch, symObjAddr: 0xECAC, symBinAddr: 0x5B8A8, symSize: 0x8 }
  - { offset: 0x2EEBBF, size: 0x8, addend: 0x0, symName: __ZN14llama_kv_cacheD1Ev, symObjAddr: 0xECB4, symBinAddr: 0x5B8B0, symSize: 0x4 }
  - { offset: 0x2EEBE2, size: 0x8, addend: 0x0, symName: __ZN14llama_kv_cacheD1Ev, symObjAddr: 0xECB4, symBinAddr: 0x5B8B0, symSize: 0x4 }
  - { offset: 0x2EEBF5, size: 0x8, addend: 0x0, symName: __ZN14llama_kv_cacheD2Ev, symObjAddr: 0xFEC0, symBinAddr: 0x5C0F0, symSize: 0x190 }
  - { offset: 0x2EFBC7, size: 0x8, addend: 0x0, symName: __ZN14llama_kv_cacheD0Ev, symObjAddr: 0xECB8, symBinAddr: 0x5B8B4, symSize: 0x14 }
  - { offset: 0x2EFC21, size: 0x8, addend: 0x0, symName: __ZN23llm_graph_input_k_shiftD1Ev, symObjAddr: 0xECCC, symBinAddr: 0x5B8C8, symSize: 0x4 }
  - { offset: 0x2EFC4A, size: 0x8, addend: 0x0, symName: __ZN23llm_graph_input_k_shiftD0Ev, symObjAddr: 0xECD0, symBinAddr: 0x5B8CC, symSize: 0x4 }
  - { offset: 0x2F0049, size: 0x8, addend: 0x0, symName: __ZNSt3__16vectorI17llama_kv_cell_extNS_9allocatorIS1_EEE20__throw_length_errorB8ne200100Ev, symObjAddr: 0xEFDC, symBinAddr: 0x5B9F0, symSize: 0x14 }
  - { offset: 0x2F0061, size: 0x8, addend: 0x0, symName: __ZNSt3__16vectorINS_6bitsetILm256EEENS_9allocatorIS2_EEE8__appendEm, symObjAddr: 0xEFF0, symBinAddr: 0x5BA04, symSize: 0x120 }
  - { offset: 0x2F0771, size: 0x8, addend: 0x0, symName: __ZNSt3__16vectorINS0_IjNS_9allocatorIjEEEENS1_IS3_EEE20__throw_length_errorB8ne200100Ev, symObjAddr: 0xFB90, symBinAddr: 0x5BF78, symSize: 0x14 }
  - { offset: 0x2F0789, size: 0x8, addend: 0x0, symName: __ZNSt3__135__uninitialized_allocator_copy_implB8ne200100INS_9allocatorINS_6vectorIjNS1_IjEEEEEEPS4_S6_S6_EET2_RT_T0_T1_S7_, symObjAddr: 0xFBA4, symBinAddr: 0x5BF8C, symSize: 0xF8 }
  - { offset: 0x2F0794, size: 0x8, addend: 0x0, symName: __ZNSt3__128__exception_guard_exceptionsINS_6vectorINS1_IjNS_9allocatorIjEEEENS2_IS4_EEE16__destroy_vectorEED1B8ne200100Ev, symObjAddr: 0xFB0C, symBinAddr: 0x5BEF4, symSize: 0x84 }
  - { offset: 0x2F0B11, size: 0x8, addend: 0x0, symName: __ZNSt3__128__exception_guard_exceptionsINS_29_AllocatorDestroyRangeReverseINS_9allocatorINS_6vectorIjNS2_IjEEEEEEPS5_EEED1B8ne200100Ev, symObjAddr: 0xFC9C, symBinAddr: 0x5C084, symSize: 0x6C }
  - { offset: 0x2F1CA5, size: 0x8, addend: 0x0, symName: __ZNSt3__19allocatorI14llama_kv_cellsE9constructB8ne200100IS1_JS1_EEEvPT_DpOT0_, symObjAddr: 0x10658, symBinAddr: 0x5C754, symSize: 0x124 }
  - { offset: 0x2F1CD5, size: 0x8, addend: 0x0, symName: __ZNSt3__19allocatorI14llama_kv_cellsE9constructB8ne200100IS1_JS1_EEEvPT_DpOT0_, symObjAddr: 0x10658, symBinAddr: 0x5C754, symSize: 0x124 }
  - { offset: 0x2F1CF7, size: 0x8, addend: 0x0, symName: __ZNSt3__19allocatorI14llama_kv_cellsE9constructB8ne200100IS1_JS1_EEEvPT_DpOT0_, symObjAddr: 0x10658, symBinAddr: 0x5C754, symSize: 0x124 }
  - { offset: 0x2F24C5, size: 0x8, addend: 0x0, symName: __ZNSt3__112__hash_tableINS_17__hash_value_typeIiiEENS_22__unordered_map_hasherIiS2_NS_4hashIiEENS_8equal_toIiEELb1EEENS_21__unordered_map_equalIiS2_S7_S5_Lb1EEENS_9allocatorIS2_EEE11__do_rehashILb1EEEvm, symObjAddr: 0x10CB4, symBinAddr: 0x5CD50, symSize: 0x180 }
  - { offset: 0x2F2852, size: 0x8, addend: 0x0, symName: __ZNSt3__16vectorIN14llama_kv_cache8kv_layerENS_9allocatorIS2_EEE24__emplace_back_slow_pathIJS2_EEEPS2_DpOT_, symObjAddr: 0x10E34, symBinAddr: 0x5CED0, symSize: 0x1D4 }
  - { offset: 0x2F2A53, size: 0x8, addend: 0x0, symName: __ZNSt3__16vectorIN14llama_kv_cache8kv_layerENS_9allocatorIS2_EEE20__throw_length_errorB8ne200100Ev, symObjAddr: 0x11008, symBinAddr: 0x5D0A4, symSize: 0x14 }
  - { offset: 0x2F2A6B, size: 0x8, addend: 0x0, symName: __ZNSt3__112__hash_tableINS_17__hash_value_typeIiiEENS_22__unordered_map_hasherIiS2_NS_4hashIiEENS_8equal_toIiEELb1EEENS_21__unordered_map_equalIiS2_S7_S5_Lb1EEENS_9allocatorIS2_EEE25__emplace_unique_key_argsIiJRKNS_21piecewise_construct_tENS_5tupleIJRKiEEENSI_IJEEEEEENS_4pairINS_15__hash_iteratorIPNS_11__hash_nodeIS2_PvEEEEbEERKT_DpOT0_, symObjAddr: 0x1101C, symBinAddr: 0x5D0B8, symSize: 0x324 }
  - { offset: 0x2F2D8B, size: 0x8, addend: 0x0, symName: __ZNSt3__16vectorIN14llama_kv_cache9slot_infoENS_9allocatorIS2_EEE24__emplace_back_slow_pathIJRKS2_EEEPS2_DpOT_, symObjAddr: 0x11574, symBinAddr: 0x5D3F0, symSize: 0x14C }
  - { offset: 0x2F2F04, size: 0x8, addend: 0x0, symName: __ZNSt3__16vectorIN14llama_kv_cache9slot_infoENS_9allocatorIS2_EEE20__throw_length_errorB8ne200100Ev, symObjAddr: 0x116C0, symBinAddr: 0x5D53C, symSize: 0x14 }
  - { offset: 0x2F2F1C, size: 0x8, addend: 0x0, symName: __ZNSt3__134__uninitialized_allocator_relocateB8ne200100INS_9allocatorIN14llama_kv_cache9slot_infoEEEPS3_EEvRT_T0_S8_S8_, symObjAddr: 0x116D4, symBinAddr: 0x5D550, symSize: 0xF8 }
  - { offset: 0x2F2F27, size: 0x8, addend: 0x0, symName: __ZNSt3__114__split_bufferIN14llama_kv_cache9slot_infoERNS_9allocatorIS2_EEED2Ev, symObjAddr: 0x117CC, symBinAddr: 0x5D648, symSize: 0xB8 }
  - { offset: 0x2F3A32, size: 0x8, addend: 0x0, symName: __ZNSt3__112__hash_tableINS_17__hash_value_typeIiNS_6vectorIjNS_9allocatorIjEEEEEENS_22__unordered_map_hasherIiS6_NS_4hashIiEENS_8equal_toIiEELb1EEENS_21__unordered_map_equalIiS6_SB_S9_Lb1EEENS3_IS6_EEE11__do_rehashILb1EEEvm, symObjAddr: 0x11CF0, symBinAddr: 0x5DB6C, symSize: 0x180 }
  - { offset: 0x2F3DBF, size: 0x8, addend: 0x0, symName: __ZNSt3__112__hash_tableINS_17__hash_value_typeIijEENS_22__unordered_map_hasherIiS2_NS_4hashIiEENS_8equal_toIiEELb1EEENS_21__unordered_map_equalIiS2_S7_S5_Lb1EEENS_9allocatorIS2_EEE25__emplace_unique_key_argsIiJRKNS_21piecewise_construct_tENS_5tupleIJRKiEEENSI_IJEEEEEENS_4pairINS_15__hash_iteratorIPNS_11__hash_nodeIS2_PvEEEEbEERKT_DpOT0_, symObjAddr: 0x11E70, symBinAddr: 0x5DCEC, symSize: 0x324 }
  - { offset: 0x2F3DD4, size: 0x8, addend: 0x0, symName: __ZNSt3__110unique_ptrINS_11__hash_nodeINS_17__hash_value_typeIiNS_6vectorIjNS_9allocatorIjEEEEEEPvEENS_22__hash_node_destructorINS4_IS9_EEEEED1B8ne200100Ev, symObjAddr: 0x11C90, symBinAddr: 0x5DB0C, symSize: 0x60 }
  - { offset: 0x2F45E9, size: 0x8, addend: 0x0, symName: __ZNSt3__112__hash_tableINS_17__hash_value_typeIijEENS_22__unordered_map_hasherIiS2_NS_4hashIiEENS_8equal_toIiEELb1EEENS_21__unordered_map_equalIiS2_S7_S5_Lb1EEENS_9allocatorIS2_EEE11__do_rehashILb1EEEvm, symObjAddr: 0x12194, symBinAddr: 0x5E010, symSize: 0x180 }
  - { offset: 0x2F4976, size: 0x8, addend: 0x0, symName: __ZNSt3__16vectorINS_4pairIjjEENS_9allocatorIS2_EEE20__throw_length_errorB8ne200100Ev, symObjAddr: 0x12314, symBinAddr: 0x5E190, symSize: 0x14 }
  - { offset: 0x2F6A02, size: 0x8, addend: 0x0, symName: __ZN24llama_memory_hybrid_iswaC2ERK11llama_model9ggml_typeS3_bbjjjS3_S3_jjbbRKNSt3__18functionIFbiEEES9_, symObjAddr: 0x0, symBinAddr: 0x5E37C, symSize: 0x340 }
  - { offset: 0x322340, size: 0x8, addend: 0x0, symName: __ZNSt3__111make_uniqueB8ne200100I32llama_memory_hybrid_iswa_contextJP24llama_memory_hybrid_iswaNS_6vectorIN14llama_kv_cache9slot_infoENS_9allocatorIS6_EEEES9_NS4_I12llama_ubatchNS7_ISA_EEEEELi0EEENS_10unique_ptrIT_NS_14default_deleteISE_EEEEDpOT0_, symObjAddr: 0xA60, symBinAddr: 0x5ED78, symSize: 0x264 }
  - { offset: 0x32D0F8, size: 0x8, addend: 0x0, symName: __ZN24llama_memory_hybrid_iswaC1ERK11llama_model9ggml_typeS3_bbjjjS3_S3_jjbbRKNSt3__18functionIFbiEEES9_, symObjAddr: 0x340, symBinAddr: 0x5E6BC, symSize: 0x34 }
  - { offset: 0x32DD1B, size: 0x8, addend: 0x0, symName: __ZN24llama_memory_hybrid_iswaC2ERK11llama_model9ggml_typeS3_bbjjjS3_S3_jjbbRKNSt3__18functionIFbiEEES9_, symObjAddr: 0x0, symBinAddr: 0x5E37C, symSize: 0x340 }
  - { offset: 0x32F248, size: 0x8, addend: 0x0, symName: __ZN24llama_memory_hybrid_iswa10init_batchER18llama_batch_allocrjb, symObjAddr: 0x374, symBinAddr: 0x5E6F0, symSize: 0x688 }
  - { offset: 0x3316A4, size: 0x8, addend: 0x0, symName: __ZN32llama_memory_hybrid_iswa_contextC2EP24llama_memory_hybrid_iswaNSt3__16vectorIN14llama_kv_cache9slot_infoENS2_9allocatorIS5_EEEES8_NS3_I12llama_ubatchNS6_IS9_EEEE, symObjAddr: 0x16F4, symBinAddr: 0x5F8B0, symSize: 0x5C4 }
  - { offset: 0x33325E, size: 0x8, addend: 0x0, symName: __ZN24llama_memory_hybrid_iswa9init_fullEv, symObjAddr: 0xE20, symBinAddr: 0x5EFDC, symSize: 0x54 }
  - { offset: 0x333304, size: 0x8, addend: 0x0, symName: __ZN32llama_memory_hybrid_iswa_contextC2EP24llama_memory_hybrid_iswa, symObjAddr: 0x148C, symBinAddr: 0x5F648, symSize: 0x120 }
  - { offset: 0x3335B3, size: 0x8, addend: 0x0, symName: __ZN24llama_memory_hybrid_iswa11init_updateEP13llama_contextb, symObjAddr: 0xE74, symBinAddr: 0x5F030, symSize: 0x6C }
  - { offset: 0x333696, size: 0x8, addend: 0x0, symName: __ZN32llama_memory_hybrid_iswa_contextC2EP24llama_memory_hybrid_iswaP13llama_contextb, symObjAddr: 0x15B0, symBinAddr: 0x5F76C, symSize: 0x140 }
  - { offset: 0x33393A, size: 0x8, addend: 0x0, symName: __ZNK24llama_memory_hybrid_iswa13get_can_shiftEv, symObjAddr: 0xEE0, symBinAddr: 0x5F09C, symSize: 0x10 }
  - { offset: 0x333965, size: 0x8, addend: 0x0, symName: __ZNK24llama_memory_hybrid_iswa13get_can_shiftEv, symObjAddr: 0xEE0, symBinAddr: 0x5F09C, symSize: 0x10 }
  - { offset: 0x33398D, size: 0x8, addend: 0x0, symName: __ZN24llama_memory_hybrid_iswa5clearEb, symObjAddr: 0xEF0, symBinAddr: 0x5F0AC, symSize: 0x40 }
  - { offset: 0x333A21, size: 0x8, addend: 0x0, symName: __ZN24llama_memory_hybrid_iswa6seq_rmEiii, symObjAddr: 0xF30, symBinAddr: 0x5F0EC, symSize: 0x6C }
  - { offset: 0x333AE1, size: 0x8, addend: 0x0, symName: __ZN24llama_memory_hybrid_iswa6seq_cpEiiii, symObjAddr: 0xF9C, symBinAddr: 0x5F158, symSize: 0x68 }
  - { offset: 0x333BB7, size: 0x8, addend: 0x0, symName: __ZN24llama_memory_hybrid_iswa8seq_keepEi, symObjAddr: 0x1004, symBinAddr: 0x5F1C0, symSize: 0x40 }
  - { offset: 0x333C4B, size: 0x8, addend: 0x0, symName: __ZN24llama_memory_hybrid_iswa7seq_addEiiii, symObjAddr: 0x1044, symBinAddr: 0x5F200, symSize: 0x68 }
  - { offset: 0x333D21, size: 0x8, addend: 0x0, symName: __ZN24llama_memory_hybrid_iswa7seq_divEiiii, symObjAddr: 0x10AC, symBinAddr: 0x5F268, symSize: 0x68 }
  - { offset: 0x333DF7, size: 0x8, addend: 0x0, symName: __ZNK24llama_memory_hybrid_iswa11seq_pos_minEi, symObjAddr: 0x1114, symBinAddr: 0x5F2D0, symSize: 0x58 }
  - { offset: 0x333E92, size: 0x8, addend: 0x0, symName: __ZNK24llama_memory_hybrid_iswa11seq_pos_maxEi, symObjAddr: 0x116C, symBinAddr: 0x5F328, symSize: 0x58 }
  - { offset: 0x3344CF, size: 0x8, addend: 0x0, symName: __ZNK24llama_memory_hybrid_iswa16memory_breakdownEv, symObjAddr: 0x11C4, symBinAddr: 0x5F380, symSize: 0x1C0 }
  - { offset: 0x334C23, size: 0x8, addend: 0x0, symName: __ZNK24llama_memory_hybrid_iswa11state_writeER16llama_io_write_iij, symObjAddr: 0x1384, symBinAddr: 0x5F540, symSize: 0x58 }
  - { offset: 0x334CE3, size: 0x8, addend: 0x0, symName: __ZN24llama_memory_hybrid_iswa10state_readER15llama_io_read_iij, symObjAddr: 0x13DC, symBinAddr: 0x5F598, symSize: 0x58 }
  - { offset: 0x334DB9, size: 0x8, addend: 0x0, symName: __ZNK24llama_memory_hybrid_iswa12get_mem_attnEv, symObjAddr: 0x1434, symBinAddr: 0x5F5F0, symSize: 0x8 }
  - { offset: 0x334DDD, size: 0x8, addend: 0x0, symName: __ZNK24llama_memory_hybrid_iswa12get_mem_attnEv, symObjAddr: 0x1434, symBinAddr: 0x5F5F0, symSize: 0x8 }
  - { offset: 0x334E0F, size: 0x8, addend: 0x0, symName: __ZNK24llama_memory_hybrid_iswa12get_mem_recrEv, symObjAddr: 0x143C, symBinAddr: 0x5F5F8, symSize: 0x8 }
  - { offset: 0x334E33, size: 0x8, addend: 0x0, symName: __ZNK24llama_memory_hybrid_iswa12get_mem_recrEv, symObjAddr: 0x143C, symBinAddr: 0x5F5F8, symSize: 0x8 }
  - { offset: 0x334E4F, size: 0x8, addend: 0x0, symName: __ZN32llama_memory_hybrid_iswa_contextC2E19llama_memory_status, symObjAddr: 0x1444, symBinAddr: 0x5F600, symSize: 0x24 }
  - { offset: 0x334EB2, size: 0x8, addend: 0x0, symName: __ZN32llama_memory_hybrid_iswa_contextC1E19llama_memory_status, symObjAddr: 0x1468, symBinAddr: 0x5F624, symSize: 0x24 }
  - { offset: 0x334EDB, size: 0x8, addend: 0x0, symName: __ZN32llama_memory_hybrid_iswa_contextC1E19llama_memory_status, symObjAddr: 0x1468, symBinAddr: 0x5F624, symSize: 0x24 }
  - { offset: 0x33502D, size: 0x8, addend: 0x0, symName: __ZN32llama_memory_hybrid_iswa_contextC1EP24llama_memory_hybrid_iswa, symObjAddr: 0x15AC, symBinAddr: 0x5F768, symSize: 0x4 }
  - { offset: 0x335057, size: 0x8, addend: 0x0, symName: __ZN32llama_memory_hybrid_iswa_contextC1EP24llama_memory_hybrid_iswa, symObjAddr: 0x15AC, symBinAddr: 0x5F768, symSize: 0x4 }
  - { offset: 0x335071, size: 0x8, addend: 0x0, symName: __ZN32llama_memory_hybrid_iswa_contextC1EP24llama_memory_hybrid_iswaP13llama_contextb, symObjAddr: 0x16F0, symBinAddr: 0x5F8AC, symSize: 0x4 }
  - { offset: 0x3350AE, size: 0x8, addend: 0x0, symName: __ZN32llama_memory_hybrid_iswa_contextC1EP24llama_memory_hybrid_iswaP13llama_contextb, symObjAddr: 0x16F0, symBinAddr: 0x5F8AC, symSize: 0x4 }
  - { offset: 0x3355D0, size: 0x8, addend: 0x0, symName: __ZN32llama_memory_hybrid_iswa_contextC1EP24llama_memory_hybrid_iswaNSt3__16vectorIN14llama_kv_cache9slot_infoENS2_9allocatorIS5_EEEES8_NS3_I12llama_ubatchNS6_IS9_EEEE, symObjAddr: 0x1CB8, symBinAddr: 0x5FE74, symSize: 0x4 }
  - { offset: 0x335612, size: 0x8, addend: 0x0, symName: __ZN32llama_memory_hybrid_iswa_contextC1EP24llama_memory_hybrid_iswaNSt3__16vectorIN14llama_kv_cache9slot_infoENS2_9allocatorIS5_EEEES8_NS3_I12llama_ubatchNS6_IS9_EEEE, symObjAddr: 0x1CB8, symBinAddr: 0x5FE74, symSize: 0x4 }
  - { offset: 0x335641, size: 0x8, addend: 0x0, symName: __ZN32llama_memory_hybrid_iswa_context4nextEv, symObjAddr: 0x1CBC, symBinAddr: 0x5FE78, symSize: 0x70 }
  - { offset: 0x3356DC, size: 0x8, addend: 0x0, symName: __ZN32llama_memory_hybrid_iswa_context5applyEv, symObjAddr: 0x1D2C, symBinAddr: 0x5FEE8, symSize: 0x44 }
  - { offset: 0x335769, size: 0x8, addend: 0x0, symName: __ZNK32llama_memory_hybrid_iswa_context10get_statusEv, symObjAddr: 0x1D70, symBinAddr: 0x5FF2C, symSize: 0x8 }
  - { offset: 0x3357B5, size: 0x8, addend: 0x0, symName: __ZNK32llama_memory_hybrid_iswa_context10get_ubatchEv, symObjAddr: 0x1D78, symBinAddr: 0x5FF34, symSize: 0x10 }
  - { offset: 0x33581B, size: 0x8, addend: 0x0, symName: __ZNK32llama_memory_hybrid_iswa_context8get_attnEv, symObjAddr: 0x1D88, symBinAddr: 0x5FF44, symSize: 0x8 }
  - { offset: 0x335847, size: 0x8, addend: 0x0, symName: __ZNK32llama_memory_hybrid_iswa_context8get_attnEv, symObjAddr: 0x1D88, symBinAddr: 0x5FF44, symSize: 0x8 }
  - { offset: 0x335864, size: 0x8, addend: 0x0, symName: __ZNK32llama_memory_hybrid_iswa_context8get_recrEv, symObjAddr: 0x1D90, symBinAddr: 0x5FF4C, symSize: 0x8 }
  - { offset: 0x335890, size: 0x8, addend: 0x0, symName: __ZNK32llama_memory_hybrid_iswa_context8get_recrEv, symObjAddr: 0x1D90, symBinAddr: 0x5FF4C, symSize: 0x8 }
  - { offset: 0x335950, size: 0x8, addend: 0x0, symName: __ZN24llama_memory_hybrid_iswaD1Ev, symObjAddr: 0x1D98, symBinAddr: 0x5FF54, symSize: 0x5C }
  - { offset: 0x335AE4, size: 0x8, addend: 0x0, symName: __ZN24llama_memory_hybrid_iswaD0Ev, symObjAddr: 0x1DF4, symBinAddr: 0x5FFB0, symSize: 0x5C }
  - { offset: 0x335C9D, size: 0x8, addend: 0x0, symName: __ZN32llama_memory_hybrid_iswa_contextD1Ev, symObjAddr: 0x1E50, symBinAddr: 0x6000C, symSize: 0xD4 }
  - { offset: 0x336062, size: 0x8, addend: 0x0, symName: __ZN32llama_memory_hybrid_iswa_contextD0Ev, symObjAddr: 0x1F24, symBinAddr: 0x600E0, symSize: 0xD4 }
  - { offset: 0x336432, size: 0x8, addend: 0x0, symName: '__ZNSt3__110__function6__funcIZN24llama_memory_hybrid_iswaC1ERK11llama_model9ggml_typeS6_bbjjjS6_S6_jjbbRKNS_8functionIFbiEEESB_E3$_0NS_9allocatorISC_EES8_ED1Ev', symObjAddr: 0x1FF8, symBinAddr: 0x601B4, symSize: 0x4 }
  - { offset: 0x33645E, size: 0x8, addend: 0x0, symName: '__ZNSt3__110__function6__funcIZN24llama_memory_hybrid_iswaC1ERK11llama_model9ggml_typeS6_bbjjjS6_S6_jjbbRKNS_8functionIFbiEEESB_E3$_0NS_9allocatorISC_EES8_ED0Ev', symObjAddr: 0x1FFC, symBinAddr: 0x601B8, symSize: 0x4 }
  - { offset: 0x336515, size: 0x8, addend: 0x0, symName: '__ZNKSt3__110__function6__funcIZN24llama_memory_hybrid_iswaC1ERK11llama_model9ggml_typeS6_bbjjjS6_S6_jjbbRKNS_8functionIFbiEEESB_E3$_0NS_9allocatorISC_EES8_E7__cloneEv', symObjAddr: 0x2000, symBinAddr: 0x601BC, symSize: 0x34 }
  - { offset: 0x336665, size: 0x8, addend: 0x0, symName: '__ZNKSt3__110__function6__funcIZN24llama_memory_hybrid_iswaC1ERK11llama_model9ggml_typeS6_bbjjjS6_S6_jjbbRKNS_8functionIFbiEEESB_E3$_0NS_9allocatorISC_EES8_E7__cloneEPNS0_6__baseIS8_EE', symObjAddr: 0x2034, symBinAddr: 0x601F0, symSize: 0x14 }
  - { offset: 0x3366D2, size: 0x8, addend: 0x0, symName: '__ZNSt3__110__function6__funcIZN24llama_memory_hybrid_iswaC1ERK11llama_model9ggml_typeS6_bbjjjS6_S6_jjbbRKNS_8functionIFbiEEESB_E3$_0NS_9allocatorISC_EES8_E7destroyEv', symObjAddr: 0x2048, symBinAddr: 0x60204, symSize: 0x4 }
  - { offset: 0x336727, size: 0x8, addend: 0x0, symName: '__ZNSt3__110__function6__funcIZN24llama_memory_hybrid_iswaC1ERK11llama_model9ggml_typeS6_bbjjjS6_S6_jjbbRKNS_8functionIFbiEEESB_E3$_0NS_9allocatorISC_EES8_E18destroy_deallocateEv', symObjAddr: 0x204C, symBinAddr: 0x60208, symSize: 0x4 }
  - { offset: 0x33675A, size: 0x8, addend: 0x0, symName: '__ZNSt3__110__function6__funcIZN24llama_memory_hybrid_iswaC1ERK11llama_model9ggml_typeS6_bbjjjS6_S6_jjbbRKNS_8functionIFbiEEESB_E3$_0NS_9allocatorISC_EES8_E18destroy_deallocateEv', symObjAddr: 0x204C, symBinAddr: 0x60208, symSize: 0x4 }
  - { offset: 0x33677D, size: 0x8, addend: 0x0, symName: '__ZNSt3__110__function6__funcIZN24llama_memory_hybrid_iswaC1ERK11llama_model9ggml_typeS6_bbjjjS6_S6_jjbbRKNS_8functionIFbiEEESB_E3$_0NS_9allocatorISC_EES8_E18destroy_deallocateEv', symObjAddr: 0x204C, symBinAddr: 0x60208, symSize: 0x4 }
  - { offset: 0x3367B0, size: 0x8, addend: 0x0, symName: '__ZNSt3__110__function6__funcIZN24llama_memory_hybrid_iswaC1ERK11llama_model9ggml_typeS6_bbjjjS6_S6_jjbbRKNS_8functionIFbiEEESB_E3$_0NS_9allocatorISC_EES8_E18destroy_deallocateEv', symObjAddr: 0x204C, symBinAddr: 0x60208, symSize: 0x4 }
  - { offset: 0x336852, size: 0x8, addend: 0x0, symName: '__ZNSt3__110__function6__funcIZN24llama_memory_hybrid_iswaC1ERK11llama_model9ggml_typeS6_bbjjjS6_S6_jjbbRKNS_8functionIFbiEEESB_E3$_0NS_9allocatorISC_EES8_EclEOi', symObjAddr: 0x2050, symBinAddr: 0x6020C, symSize: 0x24 }
  - { offset: 0x336956, size: 0x8, addend: 0x0, symName: '__ZNKSt3__110__function6__funcIZN24llama_memory_hybrid_iswaC1ERK11llama_model9ggml_typeS6_bbjjjS6_S6_jjbbRKNS_8functionIFbiEEESB_E3$_0NS_9allocatorISC_EES8_E6targetERKSt9type_info', symObjAddr: 0x2074, symBinAddr: 0x60230, symSize: 0x64 }
  - { offset: 0x336A21, size: 0x8, addend: 0x0, symName: '__ZNKSt3__110__function6__funcIZN24llama_memory_hybrid_iswaC1ERK11llama_model9ggml_typeS6_bbjjjS6_S6_jjbbRKNS_8functionIFbiEEESB_E3$_0NS_9allocatorISC_EES8_E11target_typeEv', symObjAddr: 0x20D8, symBinAddr: 0x60294, symSize: 0xC }
  - { offset: 0x336A44, size: 0x8, addend: 0x0, symName: '__ZNSt3__110__function6__funcIZN24llama_memory_hybrid_iswaC1ERK11llama_model9ggml_typeS6_bbjjjS6_S6_jjbbRKNS_8functionIFbiEEESB_E3$_1NS_9allocatorISC_EES8_ED1Ev', symObjAddr: 0x210C, symBinAddr: 0x602A0, symSize: 0x4 }
  - { offset: 0x336A70, size: 0x8, addend: 0x0, symName: '__ZNSt3__110__function6__funcIZN24llama_memory_hybrid_iswaC1ERK11llama_model9ggml_typeS6_bbjjjS6_S6_jjbbRKNS_8functionIFbiEEESB_E3$_1NS_9allocatorISC_EES8_ED0Ev', symObjAddr: 0x2110, symBinAddr: 0x602A4, symSize: 0x4 }
  - { offset: 0x336B27, size: 0x8, addend: 0x0, symName: '__ZNKSt3__110__function6__funcIZN24llama_memory_hybrid_iswaC1ERK11llama_model9ggml_typeS6_bbjjjS6_S6_jjbbRKNS_8functionIFbiEEESB_E3$_1NS_9allocatorISC_EES8_E7__cloneEv', symObjAddr: 0x2114, symBinAddr: 0x602A8, symSize: 0x34 }
  - { offset: 0x336C77, size: 0x8, addend: 0x0, symName: '__ZNKSt3__110__function6__funcIZN24llama_memory_hybrid_iswaC1ERK11llama_model9ggml_typeS6_bbjjjS6_S6_jjbbRKNS_8functionIFbiEEESB_E3$_1NS_9allocatorISC_EES8_E7__cloneEPNS0_6__baseIS8_EE', symObjAddr: 0x2148, symBinAddr: 0x602DC, symSize: 0x14 }
  - { offset: 0x336CE4, size: 0x8, addend: 0x0, symName: '__ZNSt3__110__function6__funcIZN24llama_memory_hybrid_iswaC1ERK11llama_model9ggml_typeS6_bbjjjS6_S6_jjbbRKNS_8functionIFbiEEESB_E3$_1NS_9allocatorISC_EES8_E7destroyEv', symObjAddr: 0x215C, symBinAddr: 0x602F0, symSize: 0x4 }
  - { offset: 0x336D39, size: 0x8, addend: 0x0, symName: '__ZNSt3__110__function6__funcIZN24llama_memory_hybrid_iswaC1ERK11llama_model9ggml_typeS6_bbjjjS6_S6_jjbbRKNS_8functionIFbiEEESB_E3$_1NS_9allocatorISC_EES8_E18destroy_deallocateEv', symObjAddr: 0x2160, symBinAddr: 0x602F4, symSize: 0x4 }
  - { offset: 0x336D6C, size: 0x8, addend: 0x0, symName: '__ZNSt3__110__function6__funcIZN24llama_memory_hybrid_iswaC1ERK11llama_model9ggml_typeS6_bbjjjS6_S6_jjbbRKNS_8functionIFbiEEESB_E3$_1NS_9allocatorISC_EES8_E18destroy_deallocateEv', symObjAddr: 0x2160, symBinAddr: 0x602F4, symSize: 0x4 }
  - { offset: 0x336D8F, size: 0x8, addend: 0x0, symName: '__ZNSt3__110__function6__funcIZN24llama_memory_hybrid_iswaC1ERK11llama_model9ggml_typeS6_bbjjjS6_S6_jjbbRKNS_8functionIFbiEEESB_E3$_1NS_9allocatorISC_EES8_E18destroy_deallocateEv', symObjAddr: 0x2160, symBinAddr: 0x602F4, symSize: 0x4 }
  - { offset: 0x336DC2, size: 0x8, addend: 0x0, symName: '__ZNSt3__110__function6__funcIZN24llama_memory_hybrid_iswaC1ERK11llama_model9ggml_typeS6_bbjjjS6_S6_jjbbRKNS_8functionIFbiEEESB_E3$_1NS_9allocatorISC_EES8_E18destroy_deallocateEv', symObjAddr: 0x2160, symBinAddr: 0x602F4, symSize: 0x4 }
  - { offset: 0x336E64, size: 0x8, addend: 0x0, symName: '__ZNSt3__110__function6__funcIZN24llama_memory_hybrid_iswaC1ERK11llama_model9ggml_typeS6_bbjjjS6_S6_jjbbRKNS_8functionIFbiEEESB_E3$_1NS_9allocatorISC_EES8_EclEOi', symObjAddr: 0x2164, symBinAddr: 0x602F8, symSize: 0x10 }
  - { offset: 0x336F0D, size: 0x8, addend: 0x0, symName: '__ZNKSt3__110__function6__funcIZN24llama_memory_hybrid_iswaC1ERK11llama_model9ggml_typeS6_bbjjjS6_S6_jjbbRKNS_8functionIFbiEEESB_E3$_1NS_9allocatorISC_EES8_E6targetERKSt9type_info', symObjAddr: 0x2174, symBinAddr: 0x60308, symSize: 0x64 }
  - { offset: 0x336FC1, size: 0x8, addend: 0x0, symName: '__ZNKSt3__110__function6__funcIZN24llama_memory_hybrid_iswaC1ERK11llama_model9ggml_typeS6_bbjjjS6_S6_jjbbRKNS_8functionIFbiEEESB_E3$_1NS_9allocatorISC_EES8_E11target_typeEv', symObjAddr: 0x21D8, symBinAddr: 0x6036C, symSize: 0xC }
  - { offset: 0x3391B5, size: 0x8, addend: 0x0, symName: __ZN19llama_memory_hybridC2ERK11llama_model9ggml_typeS3_bjjj14llama_swa_typeS3_S3_jjbbRKNSt3__18functionIFbiEEESA_, symObjAddr: 0x0, symBinAddr: 0x60378, symSize: 0x340 }
  - { offset: 0x364962, size: 0x8, addend: 0x0, symName: __ZNSt3__111make_uniqueB8ne200100I27llama_memory_hybrid_contextJP19llama_memory_hybridNS_6vectorIN14llama_kv_cache9slot_infoENS_9allocatorIS6_EEEENS4_I12llama_ubatchNS7_ISA_EEEEELi0EEENS_10unique_ptrIT_NS_14default_deleteISE_EEEEDpOT0_, symObjAddr: 0x9C0, symBinAddr: 0x60CD4, symSize: 0x1B8 }
  - { offset: 0x36EC38, size: 0x8, addend: 0x0, symName: __ZN19llama_memory_hybridC1ERK11llama_model9ggml_typeS3_bjjj14llama_swa_typeS3_S3_jjbbRKNSt3__18functionIFbiEEESA_, symObjAddr: 0x340, symBinAddr: 0x606B8, symSize: 0x34 }
  - { offset: 0x36F856, size: 0x8, addend: 0x0, symName: __ZN19llama_memory_hybridC2ERK11llama_model9ggml_typeS3_bjjj14llama_swa_typeS3_S3_jjbbRKNSt3__18functionIFbiEEESA_, symObjAddr: 0x0, symBinAddr: 0x60378, symSize: 0x340 }
  - { offset: 0x370D83, size: 0x8, addend: 0x0, symName: __ZN19llama_memory_hybrid10init_batchER18llama_batch_allocrjb, symObjAddr: 0x374, symBinAddr: 0x606EC, symSize: 0x5E8 }
  - { offset: 0x372A01, size: 0x8, addend: 0x0, symName: __ZN27llama_memory_hybrid_contextC2EP19llama_memory_hybridNSt3__16vectorIN14llama_kv_cache9slot_infoENS2_9allocatorIS5_EEEENS3_I12llama_ubatchNS6_IS9_EEEE, symObjAddr: 0x15B0, symBinAddr: 0x61768, symSize: 0x508 }
  - { offset: 0x374007, size: 0x8, addend: 0x0, symName: __ZN19llama_memory_hybrid9init_fullEv, symObjAddr: 0xCD4, symBinAddr: 0x60E8C, symSize: 0x54 }
  - { offset: 0x3740AD, size: 0x8, addend: 0x0, symName: __ZN27llama_memory_hybrid_contextC2EP19llama_memory_hybrid, symObjAddr: 0x1348, symBinAddr: 0x61500, symSize: 0x120 }
  - { offset: 0x37435C, size: 0x8, addend: 0x0, symName: __ZN19llama_memory_hybrid11init_updateEP13llama_contextb, symObjAddr: 0xD28, symBinAddr: 0x60EE0, symSize: 0x6C }
  - { offset: 0x37443F, size: 0x8, addend: 0x0, symName: __ZN27llama_memory_hybrid_contextC2EP19llama_memory_hybridP13llama_contextb, symObjAddr: 0x146C, symBinAddr: 0x61624, symSize: 0x140 }
  - { offset: 0x3746E3, size: 0x8, addend: 0x0, symName: __ZNK19llama_memory_hybrid13get_can_shiftEv, symObjAddr: 0xD94, symBinAddr: 0x60F4C, symSize: 0x10 }
  - { offset: 0x37470E, size: 0x8, addend: 0x0, symName: __ZNK19llama_memory_hybrid13get_can_shiftEv, symObjAddr: 0xD94, symBinAddr: 0x60F4C, symSize: 0x10 }
  - { offset: 0x374736, size: 0x8, addend: 0x0, symName: __ZN19llama_memory_hybrid5clearEb, symObjAddr: 0xDA4, symBinAddr: 0x60F5C, symSize: 0x40 }
  - { offset: 0x3747CA, size: 0x8, addend: 0x0, symName: __ZN19llama_memory_hybrid6seq_rmEiii, symObjAddr: 0xDE4, symBinAddr: 0x60F9C, symSize: 0x6C }
  - { offset: 0x37488A, size: 0x8, addend: 0x0, symName: __ZN19llama_memory_hybrid6seq_cpEiiii, symObjAddr: 0xE50, symBinAddr: 0x61008, symSize: 0x68 }
  - { offset: 0x374960, size: 0x8, addend: 0x0, symName: __ZN19llama_memory_hybrid8seq_keepEi, symObjAddr: 0xEB8, symBinAddr: 0x61070, symSize: 0x40 }
  - { offset: 0x3749F4, size: 0x8, addend: 0x0, symName: __ZN19llama_memory_hybrid7seq_addEiiii, symObjAddr: 0xEF8, symBinAddr: 0x610B0, symSize: 0x68 }
  - { offset: 0x374ACA, size: 0x8, addend: 0x0, symName: __ZN19llama_memory_hybrid7seq_divEiiii, symObjAddr: 0xF60, symBinAddr: 0x61118, symSize: 0x68 }
  - { offset: 0x374BA0, size: 0x8, addend: 0x0, symName: __ZNK19llama_memory_hybrid11seq_pos_minEi, symObjAddr: 0xFC8, symBinAddr: 0x61180, symSize: 0x58 }
  - { offset: 0x374C3B, size: 0x8, addend: 0x0, symName: __ZNK19llama_memory_hybrid11seq_pos_maxEi, symObjAddr: 0x1020, symBinAddr: 0x611D8, symSize: 0x58 }
  - { offset: 0x375278, size: 0x8, addend: 0x0, symName: __ZNK19llama_memory_hybrid16memory_breakdownEv, symObjAddr: 0x1078, symBinAddr: 0x61230, symSize: 0x1C0 }
  - { offset: 0x3759CC, size: 0x8, addend: 0x0, symName: __ZNK19llama_memory_hybrid11state_writeER16llama_io_write_iij, symObjAddr: 0x1238, symBinAddr: 0x613F0, symSize: 0x5C }
  - { offset: 0x375A76, size: 0x8, addend: 0x0, symName: __ZN19llama_memory_hybrid10state_readER15llama_io_read_iij, symObjAddr: 0x1294, symBinAddr: 0x6144C, symSize: 0x5C }
  - { offset: 0x375B36, size: 0x8, addend: 0x0, symName: __ZNK19llama_memory_hybrid12get_mem_attnEv, symObjAddr: 0x12F0, symBinAddr: 0x614A8, symSize: 0x8 }
  - { offset: 0x375B5A, size: 0x8, addend: 0x0, symName: __ZNK19llama_memory_hybrid12get_mem_attnEv, symObjAddr: 0x12F0, symBinAddr: 0x614A8, symSize: 0x8 }
  - { offset: 0x375B8C, size: 0x8, addend: 0x0, symName: __ZNK19llama_memory_hybrid12get_mem_recrEv, symObjAddr: 0x12F8, symBinAddr: 0x614B0, symSize: 0x8 }
  - { offset: 0x375BB0, size: 0x8, addend: 0x0, symName: __ZNK19llama_memory_hybrid12get_mem_recrEv, symObjAddr: 0x12F8, symBinAddr: 0x614B0, symSize: 0x8 }
  - { offset: 0x375BCC, size: 0x8, addend: 0x0, symName: __ZN27llama_memory_hybrid_contextC2E19llama_memory_status, symObjAddr: 0x1300, symBinAddr: 0x614B8, symSize: 0x24 }
  - { offset: 0x375C2F, size: 0x8, addend: 0x0, symName: __ZN27llama_memory_hybrid_contextC1E19llama_memory_status, symObjAddr: 0x1324, symBinAddr: 0x614DC, symSize: 0x24 }
  - { offset: 0x375C58, size: 0x8, addend: 0x0, symName: __ZN27llama_memory_hybrid_contextC1E19llama_memory_status, symObjAddr: 0x1324, symBinAddr: 0x614DC, symSize: 0x24 }
  - { offset: 0x375DAA, size: 0x8, addend: 0x0, symName: __ZN27llama_memory_hybrid_contextC1EP19llama_memory_hybrid, symObjAddr: 0x1468, symBinAddr: 0x61620, symSize: 0x4 }
  - { offset: 0x375DD4, size: 0x8, addend: 0x0, symName: __ZN27llama_memory_hybrid_contextC1EP19llama_memory_hybrid, symObjAddr: 0x1468, symBinAddr: 0x61620, symSize: 0x4 }
  - { offset: 0x375DEE, size: 0x8, addend: 0x0, symName: __ZN27llama_memory_hybrid_contextC1EP19llama_memory_hybridP13llama_contextb, symObjAddr: 0x15AC, symBinAddr: 0x61764, symSize: 0x4 }
  - { offset: 0x375E2B, size: 0x8, addend: 0x0, symName: __ZN27llama_memory_hybrid_contextC1EP19llama_memory_hybridP13llama_contextb, symObjAddr: 0x15AC, symBinAddr: 0x61764, symSize: 0x4 }
  - { offset: 0x37634D, size: 0x8, addend: 0x0, symName: __ZN27llama_memory_hybrid_contextC1EP19llama_memory_hybridNSt3__16vectorIN14llama_kv_cache9slot_infoENS2_9allocatorIS5_EEEENS3_I12llama_ubatchNS6_IS9_EEEE, symObjAddr: 0x1AB8, symBinAddr: 0x61C70, symSize: 0x4 }
  - { offset: 0x376387, size: 0x8, addend: 0x0, symName: __ZN27llama_memory_hybrid_contextC1EP19llama_memory_hybridNSt3__16vectorIN14llama_kv_cache9slot_infoENS2_9allocatorIS5_EEEENS3_I12llama_ubatchNS6_IS9_EEEE, symObjAddr: 0x1AB8, symBinAddr: 0x61C70, symSize: 0x4 }
  - { offset: 0x3763AF, size: 0x8, addend: 0x0, symName: __ZN27llama_memory_hybrid_context4nextEv, symObjAddr: 0x1ABC, symBinAddr: 0x61C74, symSize: 0x70 }
  - { offset: 0x37644A, size: 0x8, addend: 0x0, symName: __ZN27llama_memory_hybrid_context5applyEv, symObjAddr: 0x1B2C, symBinAddr: 0x61CE4, symSize: 0x44 }
  - { offset: 0x3764D7, size: 0x8, addend: 0x0, symName: __ZNK27llama_memory_hybrid_context10get_statusEv, symObjAddr: 0x1B70, symBinAddr: 0x61D28, symSize: 0x8 }
  - { offset: 0x376522, size: 0x8, addend: 0x0, symName: __ZNK27llama_memory_hybrid_context10get_ubatchEv, symObjAddr: 0x1B78, symBinAddr: 0x61D30, symSize: 0x10 }
  - { offset: 0x376588, size: 0x8, addend: 0x0, symName: __ZNK27llama_memory_hybrid_context8get_attnEv, symObjAddr: 0x1B88, symBinAddr: 0x61D40, symSize: 0x8 }
  - { offset: 0x3765B4, size: 0x8, addend: 0x0, symName: __ZNK27llama_memory_hybrid_context8get_attnEv, symObjAddr: 0x1B88, symBinAddr: 0x61D40, symSize: 0x8 }
  - { offset: 0x3765D1, size: 0x8, addend: 0x0, symName: __ZNK27llama_memory_hybrid_context8get_recrEv, symObjAddr: 0x1B90, symBinAddr: 0x61D48, symSize: 0x8 }
  - { offset: 0x3765FD, size: 0x8, addend: 0x0, symName: __ZNK27llama_memory_hybrid_context8get_recrEv, symObjAddr: 0x1B90, symBinAddr: 0x61D48, symSize: 0x8 }
  - { offset: 0x3766BD, size: 0x8, addend: 0x0, symName: __ZN19llama_memory_hybridD1Ev, symObjAddr: 0x1B98, symBinAddr: 0x61D50, symSize: 0x5C }
  - { offset: 0x376851, size: 0x8, addend: 0x0, symName: __ZN19llama_memory_hybridD0Ev, symObjAddr: 0x1BF4, symBinAddr: 0x61DAC, symSize: 0x5C }
  - { offset: 0x376A0A, size: 0x8, addend: 0x0, symName: __ZN27llama_memory_hybrid_contextD1Ev, symObjAddr: 0x1C50, symBinAddr: 0x61E08, symSize: 0xD4 }
  - { offset: 0x376DCF, size: 0x8, addend: 0x0, symName: __ZN27llama_memory_hybrid_contextD0Ev, symObjAddr: 0x1D24, symBinAddr: 0x61EDC, symSize: 0xD4 }
  - { offset: 0x37719F, size: 0x8, addend: 0x0, symName: '__ZNSt3__110__function6__funcIZN19llama_memory_hybridC1ERK11llama_model9ggml_typeS6_bjjj14llama_swa_typeS6_S6_jjbbRKNS_8functionIFbiEEESC_E3$_0NS_9allocatorISD_EES9_ED1Ev', symObjAddr: 0x1DF8, symBinAddr: 0x61FB0, symSize: 0x4 }
  - { offset: 0x3771CB, size: 0x8, addend: 0x0, symName: '__ZNSt3__110__function6__funcIZN19llama_memory_hybridC1ERK11llama_model9ggml_typeS6_bjjj14llama_swa_typeS6_S6_jjbbRKNS_8functionIFbiEEESC_E3$_0NS_9allocatorISD_EES9_ED0Ev', symObjAddr: 0x1DFC, symBinAddr: 0x61FB4, symSize: 0x4 }
  - { offset: 0x377282, size: 0x8, addend: 0x0, symName: '__ZNKSt3__110__function6__funcIZN19llama_memory_hybridC1ERK11llama_model9ggml_typeS6_bjjj14llama_swa_typeS6_S6_jjbbRKNS_8functionIFbiEEESC_E3$_0NS_9allocatorISD_EES9_E7__cloneEv', symObjAddr: 0x1E00, symBinAddr: 0x61FB8, symSize: 0x34 }
  - { offset: 0x3773D2, size: 0x8, addend: 0x0, symName: '__ZNKSt3__110__function6__funcIZN19llama_memory_hybridC1ERK11llama_model9ggml_typeS6_bjjj14llama_swa_typeS6_S6_jjbbRKNS_8functionIFbiEEESC_E3$_0NS_9allocatorISD_EES9_E7__cloneEPNS0_6__baseIS9_EE', symObjAddr: 0x1E34, symBinAddr: 0x61FEC, symSize: 0x14 }
  - { offset: 0x37743F, size: 0x8, addend: 0x0, symName: '__ZNSt3__110__function6__funcIZN19llama_memory_hybridC1ERK11llama_model9ggml_typeS6_bjjj14llama_swa_typeS6_S6_jjbbRKNS_8functionIFbiEEESC_E3$_0NS_9allocatorISD_EES9_E7destroyEv', symObjAddr: 0x1E48, symBinAddr: 0x62000, symSize: 0x4 }
  - { offset: 0x377494, size: 0x8, addend: 0x0, symName: '__ZNSt3__110__function6__funcIZN19llama_memory_hybridC1ERK11llama_model9ggml_typeS6_bjjj14llama_swa_typeS6_S6_jjbbRKNS_8functionIFbiEEESC_E3$_0NS_9allocatorISD_EES9_E18destroy_deallocateEv', symObjAddr: 0x1E4C, symBinAddr: 0x62004, symSize: 0x4 }
  - { offset: 0x3774C7, size: 0x8, addend: 0x0, symName: '__ZNSt3__110__function6__funcIZN19llama_memory_hybridC1ERK11llama_model9ggml_typeS6_bjjj14llama_swa_typeS6_S6_jjbbRKNS_8functionIFbiEEESC_E3$_0NS_9allocatorISD_EES9_E18destroy_deallocateEv', symObjAddr: 0x1E4C, symBinAddr: 0x62004, symSize: 0x4 }
  - { offset: 0x3774EA, size: 0x8, addend: 0x0, symName: '__ZNSt3__110__function6__funcIZN19llama_memory_hybridC1ERK11llama_model9ggml_typeS6_bjjj14llama_swa_typeS6_S6_jjbbRKNS_8functionIFbiEEESC_E3$_0NS_9allocatorISD_EES9_E18destroy_deallocateEv', symObjAddr: 0x1E4C, symBinAddr: 0x62004, symSize: 0x4 }
  - { offset: 0x37751D, size: 0x8, addend: 0x0, symName: '__ZNSt3__110__function6__funcIZN19llama_memory_hybridC1ERK11llama_model9ggml_typeS6_bjjj14llama_swa_typeS6_S6_jjbbRKNS_8functionIFbiEEESC_E3$_0NS_9allocatorISD_EES9_E18destroy_deallocateEv', symObjAddr: 0x1E4C, symBinAddr: 0x62004, symSize: 0x4 }
  - { offset: 0x3775BF, size: 0x8, addend: 0x0, symName: '__ZNSt3__110__function6__funcIZN19llama_memory_hybridC1ERK11llama_model9ggml_typeS6_bjjj14llama_swa_typeS6_S6_jjbbRKNS_8functionIFbiEEESC_E3$_0NS_9allocatorISD_EES9_EclEOi', symObjAddr: 0x1E50, symBinAddr: 0x62008, symSize: 0x24 }
  - { offset: 0x3776C3, size: 0x8, addend: 0x0, symName: '__ZNKSt3__110__function6__funcIZN19llama_memory_hybridC1ERK11llama_model9ggml_typeS6_bjjj14llama_swa_typeS6_S6_jjbbRKNS_8functionIFbiEEESC_E3$_0NS_9allocatorISD_EES9_E6targetERKSt9type_info', symObjAddr: 0x1E74, symBinAddr: 0x6202C, symSize: 0x64 }
  - { offset: 0x37778E, size: 0x8, addend: 0x0, symName: '__ZNKSt3__110__function6__funcIZN19llama_memory_hybridC1ERK11llama_model9ggml_typeS6_bjjj14llama_swa_typeS6_S6_jjbbRKNS_8functionIFbiEEESC_E3$_0NS_9allocatorISD_EES9_E11target_typeEv', symObjAddr: 0x1ED8, symBinAddr: 0x62090, symSize: 0xC }
  - { offset: 0x3777B1, size: 0x8, addend: 0x0, symName: '__ZNSt3__110__function6__funcIZN19llama_memory_hybridC1ERK11llama_model9ggml_typeS6_bjjj14llama_swa_typeS6_S6_jjbbRKNS_8functionIFbiEEESC_E3$_1NS_9allocatorISD_EES9_ED1Ev', symObjAddr: 0x1F0C, symBinAddr: 0x6209C, symSize: 0x4 }
  - { offset: 0x3777DD, size: 0x8, addend: 0x0, symName: '__ZNSt3__110__function6__funcIZN19llama_memory_hybridC1ERK11llama_model9ggml_typeS6_bjjj14llama_swa_typeS6_S6_jjbbRKNS_8functionIFbiEEESC_E3$_1NS_9allocatorISD_EES9_ED0Ev', symObjAddr: 0x1F10, symBinAddr: 0x620A0, symSize: 0x4 }
  - { offset: 0x377894, size: 0x8, addend: 0x0, symName: '__ZNKSt3__110__function6__funcIZN19llama_memory_hybridC1ERK11llama_model9ggml_typeS6_bjjj14llama_swa_typeS6_S6_jjbbRKNS_8functionIFbiEEESC_E3$_1NS_9allocatorISD_EES9_E7__cloneEv', symObjAddr: 0x1F14, symBinAddr: 0x620A4, symSize: 0x34 }
  - { offset: 0x3779E4, size: 0x8, addend: 0x0, symName: '__ZNKSt3__110__function6__funcIZN19llama_memory_hybridC1ERK11llama_model9ggml_typeS6_bjjj14llama_swa_typeS6_S6_jjbbRKNS_8functionIFbiEEESC_E3$_1NS_9allocatorISD_EES9_E7__cloneEPNS0_6__baseIS9_EE', symObjAddr: 0x1F48, symBinAddr: 0x620D8, symSize: 0x14 }
  - { offset: 0x377A51, size: 0x8, addend: 0x0, symName: '__ZNSt3__110__function6__funcIZN19llama_memory_hybridC1ERK11llama_model9ggml_typeS6_bjjj14llama_swa_typeS6_S6_jjbbRKNS_8functionIFbiEEESC_E3$_1NS_9allocatorISD_EES9_E7destroyEv', symObjAddr: 0x1F5C, symBinAddr: 0x620EC, symSize: 0x4 }
  - { offset: 0x377AA6, size: 0x8, addend: 0x0, symName: '__ZNSt3__110__function6__funcIZN19llama_memory_hybridC1ERK11llama_model9ggml_typeS6_bjjj14llama_swa_typeS6_S6_jjbbRKNS_8functionIFbiEEESC_E3$_1NS_9allocatorISD_EES9_E18destroy_deallocateEv', symObjAddr: 0x1F60, symBinAddr: 0x620F0, symSize: 0x4 }
  - { offset: 0x377AD9, size: 0x8, addend: 0x0, symName: '__ZNSt3__110__function6__funcIZN19llama_memory_hybridC1ERK11llama_model9ggml_typeS6_bjjj14llama_swa_typeS6_S6_jjbbRKNS_8functionIFbiEEESC_E3$_1NS_9allocatorISD_EES9_E18destroy_deallocateEv', symObjAddr: 0x1F60, symBinAddr: 0x620F0, symSize: 0x4 }
  - { offset: 0x377AFC, size: 0x8, addend: 0x0, symName: '__ZNSt3__110__function6__funcIZN19llama_memory_hybridC1ERK11llama_model9ggml_typeS6_bjjj14llama_swa_typeS6_S6_jjbbRKNS_8functionIFbiEEESC_E3$_1NS_9allocatorISD_EES9_E18destroy_deallocateEv', symObjAddr: 0x1F60, symBinAddr: 0x620F0, symSize: 0x4 }
  - { offset: 0x377B2F, size: 0x8, addend: 0x0, symName: '__ZNSt3__110__function6__funcIZN19llama_memory_hybridC1ERK11llama_model9ggml_typeS6_bjjj14llama_swa_typeS6_S6_jjbbRKNS_8functionIFbiEEESC_E3$_1NS_9allocatorISD_EES9_E18destroy_deallocateEv', symObjAddr: 0x1F60, symBinAddr: 0x620F0, symSize: 0x4 }
  - { offset: 0x377BD1, size: 0x8, addend: 0x0, symName: '__ZNSt3__110__function6__funcIZN19llama_memory_hybridC1ERK11llama_model9ggml_typeS6_bjjj14llama_swa_typeS6_S6_jjbbRKNS_8functionIFbiEEESC_E3$_1NS_9allocatorISD_EES9_EclEOi', symObjAddr: 0x1F64, symBinAddr: 0x620F4, symSize: 0x10 }
  - { offset: 0x377C7A, size: 0x8, addend: 0x0, symName: '__ZNKSt3__110__function6__funcIZN19llama_memory_hybridC1ERK11llama_model9ggml_typeS6_bjjj14llama_swa_typeS6_S6_jjbbRKNS_8functionIFbiEEESC_E3$_1NS_9allocatorISD_EES9_E6targetERKSt9type_info', symObjAddr: 0x1F74, symBinAddr: 0x62104, symSize: 0x64 }
  - { offset: 0x377D2E, size: 0x8, addend: 0x0, symName: '__ZNKSt3__110__function6__funcIZN19llama_memory_hybridC1ERK11llama_model9ggml_typeS6_bjjj14llama_swa_typeS6_S6_jjbbRKNS_8functionIFbiEEESC_E3$_1NS_9allocatorISD_EES9_E11target_typeEv', symObjAddr: 0x1FD8, symBinAddr: 0x62168, symSize: 0xC }
  - { offset: 0x3A27D7, size: 0x8, addend: 0x0, symName: __ZN22llama_memory_recurrentC2ERK11llama_model9ggml_typeS3_bjjRKNSt3__18functionIFbiEEE, symObjAddr: 0x0, symBinAddr: 0x62174, symSize: 0x77C }
  - { offset: 0x3A52EA, size: 0x8, addend: 0x0, symName: __ZNSt3__16vectorIN22llama_memory_recurrent8mem_cellENS_9allocatorIS2_EEE8__appendEm, symObjAddr: 0x4438, symBinAddr: 0x66090, symSize: 0x220 }
  - { offset: 0x3A5AE6, size: 0x8, addend: 0x0, symName: __ZNSt3__16vectorIN22llama_memory_recurrent8mem_cellENS_9allocatorIS2_EEE20__throw_length_errorB8ne200100Ev, symObjAddr: 0x4658, symBinAddr: 0x662B0, symSize: 0x14 }
  - { offset: 0x3A5AF1, size: 0x8, addend: 0x0, symName: __ZNSt3__16vectorIP11ggml_tensorNS_9allocatorIS2_EEE8__appendEm, symObjAddr: 0x4794, symBinAddr: 0x66378, symSize: 0x120 }
  - { offset: 0x3A601F, size: 0x8, addend: 0x0, symName: __ZNSt3__16__treeINS_12__value_typeIP24ggml_backend_buffer_typeNS_10unique_ptrI12ggml_context20ggml_context_deleterEEEENS_19__map_value_compareIS3_S8_ZN22llama_memory_recurrentC1ERK11llama_model9ggml_typeSE_bjjRKNS_8functionIFbiEEEE28ggml_backend_buft_comparatorLb1EEENS_9allocatorIS8_EEE7destroyEPNS_11__tree_nodeIS8_PvEE, symObjAddr: 0x4740, symBinAddr: 0x66324, symSize: 0x54 }
  - { offset: 0x3A63E9, size: 0x8, addend: 0x0, symName: __ZNSt3__16vectorIN22llama_memory_recurrent8mem_cellENS_9allocatorIS2_EEED1B8ne200100Ev, symObjAddr: 0x8B8, symBinAddr: 0x629A8, symSize: 0x68 }
  - { offset: 0x3A664D, size: 0x8, addend: 0x0, symName: __ZNK22llama_memory_recurrent12size_r_bytesEv, symObjAddr: 0x77C, symBinAddr: 0x628F0, symSize: 0x5C }
  - { offset: 0x3A66FA, size: 0x8, addend: 0x0, symName: __ZNK22llama_memory_recurrent12size_s_bytesEv, symObjAddr: 0x7D8, symBinAddr: 0x6294C, symSize: 0x5C }
  - { offset: 0x3A6C6B, size: 0x8, addend: 0x0, symName: __ZN22llama_memory_recurrentC1ERK11llama_model9ggml_typeS3_bjjRKNSt3__18functionIFbiEEE, symObjAddr: 0x920, symBinAddr: 0x62A10, symSize: 0x4 }
  - { offset: 0x3A6CFF, size: 0x8, addend: 0x0, symName: __ZN22llama_memory_recurrentC1ERK11llama_model9ggml_typeS3_bjjRKNSt3__18functionIFbiEEE, symObjAddr: 0x920, symBinAddr: 0x62A10, symSize: 0x4 }
  - { offset: 0x3A6DF1, size: 0x8, addend: 0x0, symName: __ZN22llama_memory_recurrent5clearEb, symObjAddr: 0x924, symBinAddr: 0x62A14, symSize: 0xCC }
  - { offset: 0x3A72AF, size: 0x8, addend: 0x0, symName: __ZN22llama_memory_recurrent6seq_rmEiii, symObjAddr: 0x9F0, symBinAddr: 0x62AE0, symSize: 0x2F0 }
  - { offset: 0x3A7A69, size: 0x8, addend: 0x0, symName: __ZN22llama_memory_recurrent6seq_cpEiiii, symObjAddr: 0xCE0, symBinAddr: 0x62DD0, symSize: 0x1E8 }
  - { offset: 0x3A8062, size: 0x8, addend: 0x0, symName: __ZN22llama_memory_recurrent8seq_keepEi, symObjAddr: 0xEC8, symBinAddr: 0x62FB8, symSize: 0x1B8 }
  - { offset: 0x3A84AE, size: 0x8, addend: 0x0, symName: __ZN22llama_memory_recurrent7seq_addEiiii, symObjAddr: 0x1080, symBinAddr: 0x63170, symSize: 0xA0 }
  - { offset: 0x3A8689, size: 0x8, addend: 0x0, symName: __ZN22llama_memory_recurrent7seq_divEiiii, symObjAddr: 0x1120, symBinAddr: 0x63210, symSize: 0xA8 }
  - { offset: 0x3A88CF, size: 0x8, addend: 0x0, symName: __ZNK22llama_memory_recurrent11seq_pos_minEi, symObjAddr: 0x11C8, symBinAddr: 0x632B8, symSize: 0x8C }
  - { offset: 0x3A8AA7, size: 0x8, addend: 0x0, symName: __ZNK22llama_memory_recurrent11seq_pos_maxEi, symObjAddr: 0x1254, symBinAddr: 0x63344, symSize: 0x80 }
  - { offset: 0x3A9233, size: 0x8, addend: 0x0, symName: __ZNK22llama_memory_recurrent16memory_breakdownEv, symObjAddr: 0x12D4, symBinAddr: 0x633C4, symSize: 0x160 }
  - { offset: 0x3A9E6A, size: 0x8, addend: 0x0, symName: __ZN22llama_memory_recurrent10init_batchER18llama_batch_allocrjb, symObjAddr: 0x1434, symBinAddr: 0x63524, symSize: 0x4A0 }
  - { offset: 0x3AADCD, size: 0x8, addend: 0x0, symName: __ZN22llama_memory_recurrent7prepareERKNSt3__16vectorI12llama_ubatchNS0_9allocatorIS2_EEEE, symObjAddr: 0x1938, symBinAddr: 0x639C4, symSize: 0x128 }
  - { offset: 0x3AB491, size: 0x8, addend: 0x0, symName: __ZNSt3__16vectorIN22llama_memory_recurrent8mem_cellENS_9allocatorIS2_EEE16__init_with_sizeB8ne200100IPS2_S7_EEvT_T0_m, symObjAddr: 0x4EB0, symBinAddr: 0x66498, symSize: 0x150 }
  - { offset: 0x3AB9D4, size: 0x8, addend: 0x0, symName: __ZN22llama_memory_recurrent9find_slotERK12llama_ubatch, symObjAddr: 0x1B98, symBinAddr: 0x63B8C, symSize: 0xBFC }
  - { offset: 0x3AD351, size: 0x8, addend: 0x0, symName: __ZN22llama_memory_recurrent9init_fullEv, symObjAddr: 0x1AF8, symBinAddr: 0x63AEC, symSize: 0x54 }
  - { offset: 0x3AD44F, size: 0x8, addend: 0x0, symName: __ZN22llama_memory_recurrent11init_updateEP13llama_contextb, symObjAddr: 0x1B4C, symBinAddr: 0x63B40, symSize: 0x4C }
  - { offset: 0x3AD91A, size: 0x8, addend: 0x0, symName: __ZNK22llama_memory_recurrent13get_can_shiftEv, symObjAddr: 0x2794, symBinAddr: 0x64788, symSize: 0x8 }
  - { offset: 0x3AD940, size: 0x8, addend: 0x0, symName: __ZNK22llama_memory_recurrent10total_sizeEv, symObjAddr: 0x279C, symBinAddr: 0x64790, symSize: 0x64 }
  - { offset: 0x3AE15C, size: 0x8, addend: 0x0, symName: __ZNK22llama_memory_recurrent11state_writeER16llama_io_write_iij, symObjAddr: 0x2800, symBinAddr: 0x647F4, symSize: 0x424 }
  - { offset: 0x3AEF24, size: 0x8, addend: 0x0, symName: __ZNK22llama_memory_recurrent16state_write_metaER16llama_io_write_iRKNSt3__16vectorINS2_4pairIjjEENS2_9allocatorIS5_EEEEi, symObjAddr: 0x2C24, symBinAddr: 0x64C18, symSize: 0x15C }
  - { offset: 0x3AF248, size: 0x8, addend: 0x0, symName: __ZNK22llama_memory_recurrent16state_write_dataER16llama_io_write_iRKNSt3__16vectorINS2_4pairIjjEENS2_9allocatorIS5_EEEE, symObjAddr: 0x2D80, symBinAddr: 0x64D74, symSize: 0x22C }
  - { offset: 0x3AF7A8, size: 0x8, addend: 0x0, symName: __ZN22llama_memory_recurrent10state_readER15llama_io_read_iij, symObjAddr: 0x2FAC, symBinAddr: 0x64FA0, symSize: 0xF4 }
  - { offset: 0x3AF8A7, size: 0x8, addend: 0x0, symName: __ZN22llama_memory_recurrent15state_read_metaER15llama_io_read_iji, symObjAddr: 0x30A0, symBinAddr: 0x65094, symSize: 0x580 }
  - { offset: 0x3B01F0, size: 0x8, addend: 0x0, symName: __ZN22llama_memory_recurrent15state_read_dataER15llama_io_read_ij, symObjAddr: 0x3620, symBinAddr: 0x65614, symSize: 0x540 }
  - { offset: 0x3B1322, size: 0x8, addend: 0x0, symName: __ZN30llama_memory_recurrent_contextC2E19llama_memory_status, symObjAddr: 0x3B60, symBinAddr: 0x65B54, symSize: 0x24 }
  - { offset: 0x3B1386, size: 0x8, addend: 0x0, symName: __ZN30llama_memory_recurrent_contextC1E19llama_memory_status, symObjAddr: 0x3B84, symBinAddr: 0x65B78, symSize: 0x24 }
  - { offset: 0x3B13AF, size: 0x8, addend: 0x0, symName: __ZN30llama_memory_recurrent_contextC1E19llama_memory_status, symObjAddr: 0x3B84, symBinAddr: 0x65B78, symSize: 0x24 }
  - { offset: 0x3B140E, size: 0x8, addend: 0x0, symName: __ZN30llama_memory_recurrent_contextC2EP22llama_memory_recurrent, symObjAddr: 0x3BA8, symBinAddr: 0x65B9C, symSize: 0x2C }
  - { offset: 0x3B1472, size: 0x8, addend: 0x0, symName: __ZN30llama_memory_recurrent_contextC1EP22llama_memory_recurrent, symObjAddr: 0x3BD4, symBinAddr: 0x65BC8, symSize: 0x2C }
  - { offset: 0x3B149B, size: 0x8, addend: 0x0, symName: __ZN30llama_memory_recurrent_contextC1EP22llama_memory_recurrent, symObjAddr: 0x3BD4, symBinAddr: 0x65BC8, symSize: 0x2C }
  - { offset: 0x3B14FA, size: 0x8, addend: 0x0, symName: __ZN30llama_memory_recurrent_contextC2EP22llama_memory_recurrentNSt3__16vectorI12llama_ubatchNS2_9allocatorIS4_EEEE, symObjAddr: 0x3C00, symBinAddr: 0x65BF4, symSize: 0x40 }
  - { offset: 0x3B1575, size: 0x8, addend: 0x0, symName: __ZN30llama_memory_recurrent_contextC1EP22llama_memory_recurrentNSt3__16vectorI12llama_ubatchNS2_9allocatorIS4_EEEE, symObjAddr: 0x3C40, symBinAddr: 0x65C34, symSize: 0x40 }
  - { offset: 0x3B15A6, size: 0x8, addend: 0x0, symName: __ZN30llama_memory_recurrent_contextC1EP22llama_memory_recurrentNSt3__16vectorI12llama_ubatchNS2_9allocatorIS4_EEEE, symObjAddr: 0x3C40, symBinAddr: 0x65C34, symSize: 0x40 }
  - { offset: 0x3B161C, size: 0x8, addend: 0x0, symName: __ZN30llama_memory_recurrent_contextD2Ev, symObjAddr: 0x3C80, symBinAddr: 0x65C74, symSize: 0xA4 }
  - { offset: 0x3B188D, size: 0x8, addend: 0x0, symName: __ZN30llama_memory_recurrent_contextD1Ev, symObjAddr: 0x3D24, symBinAddr: 0x65D18, symSize: 0xA4 }
  - { offset: 0x3B1B1B, size: 0x8, addend: 0x0, symName: __ZN30llama_memory_recurrent_contextD0Ev, symObjAddr: 0x3DC8, symBinAddr: 0x65DBC, symSize: 0xA4 }
  - { offset: 0x3B1DB5, size: 0x8, addend: 0x0, symName: __ZN30llama_memory_recurrent_context4nextEv, symObjAddr: 0x3E6C, symBinAddr: 0x65E60, symSize: 0x38 }
  - { offset: 0x3B1E36, size: 0x8, addend: 0x0, symName: __ZN30llama_memory_recurrent_context5applyEv, symObjAddr: 0x3EA4, symBinAddr: 0x65E98, symSize: 0x34 }
  - { offset: 0x3B1E62, size: 0x8, addend: 0x0, symName: __ZN30llama_memory_recurrent_context5applyEv, symObjAddr: 0x3EA4, symBinAddr: 0x65E98, symSize: 0x34 }
  - { offset: 0x3B1EAA, size: 0x8, addend: 0x0, symName: __ZNK30llama_memory_recurrent_context10get_statusEv, symObjAddr: 0x3ED8, symBinAddr: 0x65ECC, symSize: 0x8 }
  - { offset: 0x3B1EF6, size: 0x8, addend: 0x0, symName: __ZNK30llama_memory_recurrent_context10get_ubatchEv, symObjAddr: 0x3EE0, symBinAddr: 0x65ED4, symSize: 0x10 }
  - { offset: 0x3B1F46, size: 0x8, addend: 0x0, symName: __ZNK30llama_memory_recurrent_context8get_n_rsEv, symObjAddr: 0x3EF0, symBinAddr: 0x65EE4, symSize: 0x20 }
  - { offset: 0x3B1F70, size: 0x8, addend: 0x0, symName: __ZNK30llama_memory_recurrent_context8get_headEv, symObjAddr: 0x3F10, symBinAddr: 0x65F04, symSize: 0x1C }
  - { offset: 0x3B1F9A, size: 0x8, addend: 0x0, symName: __ZNK30llama_memory_recurrent_context8get_rs_zEv, symObjAddr: 0x3F2C, symBinAddr: 0x65F20, symSize: 0x1C }
  - { offset: 0x3B1FC4, size: 0x8, addend: 0x0, symName: __ZNK30llama_memory_recurrent_context8get_sizeEv, symObjAddr: 0x3F48, symBinAddr: 0x65F3C, symSize: 0xC }
  - { offset: 0x3B1FEE, size: 0x8, addend: 0x0, symName: __ZNK30llama_memory_recurrent_context7get_r_lEi, symObjAddr: 0x3F54, symBinAddr: 0x65F48, symSize: 0x10 }
  - { offset: 0x3B2045, size: 0x8, addend: 0x0, symName: __ZNK30llama_memory_recurrent_context7get_s_lEi, symObjAddr: 0x3F64, symBinAddr: 0x65F58, symSize: 0x10 }
  - { offset: 0x3B209D, size: 0x8, addend: 0x0, symName: __ZNK30llama_memory_recurrent_context6s_copyEi, symObjAddr: 0x3F74, symBinAddr: 0x65F68, symSize: 0x20 }
  - { offset: 0x3B20F4, size: 0x8, addend: 0x0, symName: __ZN22llama_memory_recurrentD1Ev, symObjAddr: 0x3F94, symBinAddr: 0x65F88, symSize: 0x4 }
  - { offset: 0x3B2117, size: 0x8, addend: 0x0, symName: __ZN22llama_memory_recurrentD1Ev, symObjAddr: 0x3F94, symBinAddr: 0x65F88, symSize: 0x4 }
  - { offset: 0x3B212A, size: 0x8, addend: 0x0, symName: __ZN22llama_memory_recurrentD2Ev, symObjAddr: 0x4348, symBinAddr: 0x65FA0, symSize: 0xF0 }
  - { offset: 0x3B28C2, size: 0x8, addend: 0x0, symName: __ZN22llama_memory_recurrentD0Ev, symObjAddr: 0x3F98, symBinAddr: 0x65F8C, symSize: 0x14 }
  - { offset: 0x3B381B, size: 0x8, addend: 0x0, symName: __ZNSt3__16vectorIN22llama_memory_recurrent8mem_cellENS_9allocatorIS2_EEE20__throw_length_errorB8ne200100Ev, symObjAddr: 0x4658, symBinAddr: 0x662B0, symSize: 0x14 }
  - { offset: 0x3B3935, size: 0x8, addend: 0x0, symName: __ZNSt3__128__exception_guard_exceptionsINS_29_AllocatorDestroyRangeReverseINS_9allocatorIN22llama_memory_recurrent8mem_cellEEEPS4_EEED1B8ne200100Ev, symObjAddr: 0x46E0, symBinAddr: 0x662C4, symSize: 0x60 }
  - { offset: 0x3B40A1, size: 0x8, addend: 0x0, symName: __ZNSt3__16vectorIN22llama_memory_recurrent8mem_cellENS_9allocatorIS2_EEE16__init_with_sizeB8ne200100IPS2_S7_EEvT_T0_m, symObjAddr: 0x4EB0, symBinAddr: 0x66498, symSize: 0x150 }
  - { offset: 0x3B4381, size: 0x8, addend: 0x0, symName: __ZNSt3__13setIiNS_4lessIiEENS_9allocatorIiEEE6insertB8ne200100INS_21__tree_const_iteratorIiPNS_11__tree_nodeIiPvEElEEEEvT_SD_, symObjAddr: 0x5078, symBinAddr: 0x66660, symSize: 0xF4 }
  - { offset: 0x3B43C7, size: 0x8, addend: 0x0, symName: __ZNSt3__13setIiNS_4lessIiEENS_9allocatorIiEEE6insertB8ne200100INS_21__tree_const_iteratorIiPNS_11__tree_nodeIiPvEElEEEEvT_SD_, symObjAddr: 0x5078, symBinAddr: 0x66660, symSize: 0xF4 }
  - { offset: 0x3B46A9, size: 0x8, addend: 0x0, symName: __ZNSt3__128__exception_guard_exceptionsINS_6vectorIN22llama_memory_recurrent8mem_cellENS_9allocatorIS3_EEE16__destroy_vectorEED1B8ne200100Ev, symObjAddr: 0x5000, symBinAddr: 0x665E8, symSize: 0x78 }
  - { offset: 0x3B46D6, size: 0x8, addend: 0x0, symName: __ZNSt3__128__exception_guard_exceptionsINS_6vectorIN22llama_memory_recurrent8mem_cellENS_9allocatorIS3_EEE16__destroy_vectorEED1B8ne200100Ev, symObjAddr: 0x5000, symBinAddr: 0x665E8, symSize: 0x78 }
  - { offset: 0x3B4A39, size: 0x8, addend: 0x0, symName: __ZNSt3__16__treeIiNS_4lessIiEENS_9allocatorIiEEE12__find_equalIiEERPNS_16__tree_node_baseIPvEENS_21__tree_const_iteratorIiPNS_11__tree_nodeIiS8_EElEERPNS_15__tree_end_nodeISA_EESB_RKT_, symObjAddr: 0x516C, symBinAddr: 0x66754, symSize: 0x1B0 }
  - { offset: 0x3B4A9C, size: 0x8, addend: 0x0, symName: __ZNSt3__16__treeIiNS_4lessIiEENS_9allocatorIiEEE12__find_equalIiEERPNS_16__tree_node_baseIPvEENS_21__tree_const_iteratorIiPNS_11__tree_nodeIiS8_EElEERPNS_15__tree_end_nodeISA_EESB_RKT_, symObjAddr: 0x516C, symBinAddr: 0x66754, symSize: 0x1B0 }
  - { offset: 0x3B4AB8, size: 0x8, addend: 0x0, symName: __ZNSt3__16__treeIiNS_4lessIiEENS_9allocatorIiEEE12__find_equalIiEERPNS_16__tree_node_baseIPvEENS_21__tree_const_iteratorIiPNS_11__tree_nodeIiS8_EElEERPNS_15__tree_end_nodeISA_EESB_RKT_, symObjAddr: 0x516C, symBinAddr: 0x66754, symSize: 0x1B0 }
  - { offset: 0x3B6C77, size: 0x8, addend: 0x0, symName: __Z27llama_memory_status_combine19llama_memory_statusS_, symObjAddr: 0x0, symBinAddr: 0x66904, symSize: 0x38 }
  - { offset: 0x3B6C8C, size: 0x8, addend: 0x0, symName: __Z27llama_memory_status_combine19llama_memory_statusS_, symObjAddr: 0x0, symBinAddr: 0x66904, symSize: 0x38 }
  - { offset: 0x3B6CD8, size: 0x8, addend: 0x0, symName: __Z27llama_memory_status_is_fail19llama_memory_status, symObjAddr: 0x38, symBinAddr: 0x6693C, symSize: 0x10 }
  - { offset: 0x3B9867, size: 0x8, addend: 0x0, symName: __ZN10llama_mmap9SUPPORTEDE, symObjAddr: 0x1B20, symBinAddr: 0x29212A, symSize: 0x0 }
  - { offset: 0x3BEF78, size: 0x8, addend: 0x0, symName: __ZN11llama_mlock9SUPPORTEDE, symObjAddr: 0x1B21, symBinAddr: 0x29212B, symSize: 0x0 }
  - { offset: 0x3BF1C0, size: 0x8, addend: 0x0, symName: __ZN10llama_fileC2EPKcS1_b, symObjAddr: 0x0, symBinAddr: 0x6694C, symSize: 0x70 }
  - { offset: 0x3BF2A9, size: 0x8, addend: 0x0, symName: __ZN10llama_file4implC2EPKcS2_b, symObjAddr: 0x1508, symBinAddr: 0x67DA8, symSize: 0xF0 }
  - { offset: 0x3BF6B8, size: 0x8, addend: 0x0, symName: __ZN10llama_fileC1EPKcS1_b, symObjAddr: 0x70, symBinAddr: 0x669BC, symSize: 0x70 }
  - { offset: 0x3BF986, size: 0x8, addend: 0x0, symName: __ZN10llama_fileD2Ev, symObjAddr: 0xE0, symBinAddr: 0x66A2C, symSize: 0x6C }
  - { offset: 0x3BFBA4, size: 0x8, addend: 0x0, symName: __ZN10llama_fileD1Ev, symObjAddr: 0x14C, symBinAddr: 0x66A98, symSize: 0x6C }
  - { offset: 0x3BFDBC, size: 0x8, addend: 0x0, symName: __ZNK10llama_file4tellEv, symObjAddr: 0x1B8, symBinAddr: 0x66B04, symSize: 0x8 }
  - { offset: 0x3BFDE8, size: 0x8, addend: 0x0, symName: __ZNK10llama_file4tellEv, symObjAddr: 0x1B8, symBinAddr: 0x66B04, symSize: 0x8 }
  - { offset: 0x3BFE11, size: 0x8, addend: 0x0, symName: __ZNK10llama_file4impl4tellEv, symObjAddr: 0x1C0, symBinAddr: 0x66B0C, symSize: 0x158 }
  - { offset: 0x3C00A9, size: 0x8, addend: 0x0, symName: __ZNK10llama_file4sizeEv, symObjAddr: 0x318, symBinAddr: 0x66C64, symSize: 0xC }
  - { offset: 0x3C00CD, size: 0x8, addend: 0x0, symName: __ZNK10llama_file4sizeEv, symObjAddr: 0x318, symBinAddr: 0x66C64, symSize: 0xC }
  - { offset: 0x3C0104, size: 0x8, addend: 0x0, symName: __ZNK10llama_file14read_alignmentEv, symObjAddr: 0x324, symBinAddr: 0x66C70, symSize: 0xC }
  - { offset: 0x3C0130, size: 0x8, addend: 0x0, symName: __ZNK10llama_file14read_alignmentEv, symObjAddr: 0x324, symBinAddr: 0x66C70, symSize: 0xC }
  - { offset: 0x3C017E, size: 0x8, addend: 0x0, symName: __ZNK10llama_file13has_direct_ioEv, symObjAddr: 0x330, symBinAddr: 0x66C7C, symSize: 0x28 }
  - { offset: 0x3C01AA, size: 0x8, addend: 0x0, symName: __ZNK10llama_file13has_direct_ioEv, symObjAddr: 0x330, symBinAddr: 0x66C7C, symSize: 0x28 }
  - { offset: 0x3C01E4, size: 0x8, addend: 0x0, symName: __ZNK10llama_file7file_idEv, symObjAddr: 0x358, symBinAddr: 0x66CA4, symSize: 0x1C }
  - { offset: 0x3C0208, size: 0x8, addend: 0x0, symName: __ZNK10llama_file7file_idEv, symObjAddr: 0x358, symBinAddr: 0x66CA4, symSize: 0x1C }
  - { offset: 0x3C0244, size: 0x8, addend: 0x0, symName: __ZNK10llama_file4seekEmi, symObjAddr: 0x374, symBinAddr: 0x66CC0, symSize: 0x8 }
  - { offset: 0x3C028C, size: 0x8, addend: 0x0, symName: __ZNK10llama_file4seekEmi, symObjAddr: 0x374, symBinAddr: 0x66CC0, symSize: 0x8 }
  - { offset: 0x3C02C4, size: 0x8, addend: 0x0, symName: __ZNK10llama_file4impl4seekEmi, symObjAddr: 0x37C, symBinAddr: 0x66CC8, symSize: 0xEC }
  - { offset: 0x3C04B5, size: 0x8, addend: 0x0, symName: __ZN10llama_file8read_rawEPvm, symObjAddr: 0x468, symBinAddr: 0x66DB4, symSize: 0x24 }
  - { offset: 0x3C04FD, size: 0x8, addend: 0x0, symName: __ZN10llama_file8read_rawEPvm, symObjAddr: 0x468, symBinAddr: 0x66DB4, symSize: 0x24 }
  - { offset: 0x3C056E, size: 0x8, addend: 0x0, symName: __ZN10llama_file4impl18read_aligned_chunkEPvm, symObjAddr: 0x11D4, symBinAddr: 0x67B20, symSize: 0x15C }
  - { offset: 0x3C08CA, size: 0x8, addend: 0x0, symName: __ZN10llama_file4impl15read_raw_unsafeEPvm, symObjAddr: 0x494, symBinAddr: 0x66DE0, symSize: 0x378 }
  - { offset: 0x3C0CA2, size: 0x8, addend: 0x0, symName: __ZN10llama_file15read_raw_unsafeEPvm, symObjAddr: 0x48C, symBinAddr: 0x66DD8, symSize: 0x8 }
  - { offset: 0x3C0CEA, size: 0x8, addend: 0x0, symName: __ZN10llama_file15read_raw_unsafeEPvm, symObjAddr: 0x48C, symBinAddr: 0x66DD8, symSize: 0x8 }
  - { offset: 0x3C0D39, size: 0x8, addend: 0x0, symName: __ZN10llama_file4impl7init_fpEPKc, symObjAddr: 0x1340, symBinAddr: 0x67C7C, symSize: 0x118 }
  - { offset: 0x3C10A9, size: 0x8, addend: 0x0, symName: __ZN10llama_file8read_u32Ev, symObjAddr: 0x80C, symBinAddr: 0x67158, symSize: 0x60 }
  - { offset: 0x3C1186, size: 0x8, addend: 0x0, symName: __ZNK10llama_file9write_rawEPKvm, symObjAddr: 0x86C, symBinAddr: 0x671B8, symSize: 0x8 }
  - { offset: 0x3C11CE, size: 0x8, addend: 0x0, symName: __ZNK10llama_file9write_rawEPKvm, symObjAddr: 0x86C, symBinAddr: 0x671B8, symSize: 0x8 }
  - { offset: 0x3C1206, size: 0x8, addend: 0x0, symName: __ZNK10llama_file4impl9write_rawEPKvm, symObjAddr: 0x874, symBinAddr: 0x671C0, symSize: 0xF0 }
  - { offset: 0x3C1407, size: 0x8, addend: 0x0, symName: __ZNK10llama_file9write_u32Ej, symObjAddr: 0x964, symBinAddr: 0x672B0, symSize: 0x2C }
  - { offset: 0x3C1554, size: 0x8, addend: 0x0, symName: __ZN10llama_mmapC2EP10llama_filemb, symObjAddr: 0x990, symBinAddr: 0x672DC, symSize: 0x70 }
  - { offset: 0x3C163D, size: 0x8, addend: 0x0, symName: __ZN10llama_mmap4implC2EP10llama_filemb, symObjAddr: 0x160C, symBinAddr: 0x67E98, symSize: 0x298 }
  - { offset: 0x3C1F69, size: 0x8, addend: 0x0, symName: __ZN10llama_mmapC1EP10llama_filemb, symObjAddr: 0xA00, symBinAddr: 0x6734C, symSize: 0x70 }
  - { offset: 0x3C2148, size: 0x8, addend: 0x0, symName: __ZN10llama_mmapD2Ev, symObjAddr: 0xA70, symBinAddr: 0x673BC, symSize: 0x3C }
  - { offset: 0x3C2229, size: 0x8, addend: 0x0, symName: __ZN10llama_mmap4implD2Ev, symObjAddr: 0x18A4, symBinAddr: 0x68130, symSize: 0xA4 }
  - { offset: 0x3C244A, size: 0x8, addend: 0x0, symName: __ZN10llama_mmapD1Ev, symObjAddr: 0xAAC, symBinAddr: 0x673F8, symSize: 0x3C }
  - { offset: 0x3C2572, size: 0x8, addend: 0x0, symName: __ZNK10llama_mmap4sizeEv, symObjAddr: 0xAE8, symBinAddr: 0x67434, symSize: 0xC }
  - { offset: 0x3C259E, size: 0x8, addend: 0x0, symName: __ZNK10llama_mmap4sizeEv, symObjAddr: 0xAE8, symBinAddr: 0x67434, symSize: 0xC }
  - { offset: 0x3C25B9, size: 0x8, addend: 0x0, symName: __ZNK10llama_mmap4addrEv, symObjAddr: 0xAF4, symBinAddr: 0x67440, symSize: 0xC }
  - { offset: 0x3C25E5, size: 0x8, addend: 0x0, symName: __ZNK10llama_mmap4addrEv, symObjAddr: 0xAF4, symBinAddr: 0x67440, symSize: 0xC }
  - { offset: 0x3C2600, size: 0x8, addend: 0x0, symName: __ZN10llama_mmap14unmap_fragmentEmm, symObjAddr: 0xB00, symBinAddr: 0x6744C, symSize: 0x8 }
  - { offset: 0x3C2648, size: 0x8, addend: 0x0, symName: __ZN10llama_mmap14unmap_fragmentEmm, symObjAddr: 0xB00, symBinAddr: 0x6744C, symSize: 0x8 }
  - { offset: 0x3C2680, size: 0x8, addend: 0x0, symName: __ZN10llama_mmap4impl14unmap_fragmentEmm, symObjAddr: 0xB08, symBinAddr: 0x67454, symSize: 0x4AC }
  - { offset: 0x3C3F7B, size: 0x8, addend: 0x0, symName: __ZNSt3__16vectorINS_4pairImmEENS_9allocatorIS2_EEE20__throw_length_errorB8ne200100Ev, symObjAddr: 0x1458, symBinAddr: 0x67D94, symSize: 0x14 }
  - { offset: 0x3C4052, size: 0x8, addend: 0x0, symName: __ZN11llama_mlockC2Ev, symObjAddr: 0xFB4, symBinAddr: 0x67900, symSize: 0x34 }
  - { offset: 0x3C412E, size: 0x8, addend: 0x0, symName: __ZN11llama_mlockC1Ev, symObjAddr: 0xFE8, symBinAddr: 0x67934, symSize: 0x34 }
  - { offset: 0x3C4299, size: 0x8, addend: 0x0, symName: __ZN11llama_mlockD2Ev, symObjAddr: 0x101C, symBinAddr: 0x67968, symSize: 0x34 }
  - { offset: 0x3C42BD, size: 0x8, addend: 0x0, symName: __ZN11llama_mlockD2Ev, symObjAddr: 0x101C, symBinAddr: 0x67968, symSize: 0x34 }
  - { offset: 0x3C42DB, size: 0x8, addend: 0x0, symName: __ZN11llama_mlockD2Ev, symObjAddr: 0x101C, symBinAddr: 0x67968, symSize: 0x34 }
  - { offset: 0x3C42F9, size: 0x8, addend: 0x0, symName: __ZN11llama_mlockD2Ev, symObjAddr: 0x101C, symBinAddr: 0x67968, symSize: 0x34 }
  - { offset: 0x3C436D, size: 0x8, addend: 0x0, symName: __ZN11llama_mlockD1Ev, symObjAddr: 0x1050, symBinAddr: 0x6799C, symSize: 0x34 }
  - { offset: 0x3C439D, size: 0x8, addend: 0x0, symName: __ZN11llama_mlockD1Ev, symObjAddr: 0x1050, symBinAddr: 0x6799C, symSize: 0x34 }
  - { offset: 0x3C43BB, size: 0x8, addend: 0x0, symName: __ZN11llama_mlockD1Ev, symObjAddr: 0x1050, symBinAddr: 0x6799C, symSize: 0x34 }
  - { offset: 0x3C43D9, size: 0x8, addend: 0x0, symName: __ZN11llama_mlockD1Ev, symObjAddr: 0x1050, symBinAddr: 0x6799C, symSize: 0x34 }
  - { offset: 0x3C43F7, size: 0x8, addend: 0x0, symName: __ZN11llama_mlockD1Ev, symObjAddr: 0x1050, symBinAddr: 0x6799C, symSize: 0x34 }
  - { offset: 0x3C448D, size: 0x8, addend: 0x0, symName: __ZN11llama_mlock4initEPv, symObjAddr: 0x1084, symBinAddr: 0x679D0, symSize: 0x4C }
  - { offset: 0x3C44C9, size: 0x8, addend: 0x0, symName: __ZN11llama_mlock4initEPv, symObjAddr: 0x1084, symBinAddr: 0x679D0, symSize: 0x4C }
  - { offset: 0x3C44FD, size: 0x8, addend: 0x0, symName: __ZN11llama_mlock7grow_toEm, symObjAddr: 0x10D0, symBinAddr: 0x67A1C, symSize: 0x8 }
  - { offset: 0x3C4510, size: 0x8, addend: 0x0, symName: __ZN11llama_mlock7grow_toEm, symObjAddr: 0x10D0, symBinAddr: 0x67A1C, symSize: 0x8 }
  - { offset: 0x3C454A, size: 0x8, addend: 0x0, symName: __ZN11llama_mlock7grow_toEm, symObjAddr: 0x10D0, symBinAddr: 0x67A1C, symSize: 0x8 }
  - { offset: 0x3C457B, size: 0x8, addend: 0x0, symName: __ZN11llama_mlock4impl7grow_toEm, symObjAddr: 0x10D8, symBinAddr: 0x67A24, symSize: 0xF4 }
  - { offset: 0x3C4673, size: 0x8, addend: 0x0, symName: __Z14llama_path_maxv, symObjAddr: 0x11CC, symBinAddr: 0x67B18, symSize: 0x8 }
  - { offset: 0x3C46F0, size: 0x8, addend: 0x0, symName: __Z14llama_path_maxv, symObjAddr: 0x11CC, symBinAddr: 0x67B18, symSize: 0x8 }
  - { offset: 0x3C4AB7, size: 0x8, addend: 0x0, symName: __ZN10llama_mmap4implC2EP10llama_filemb, symObjAddr: 0x160C, symBinAddr: 0x67E98, symSize: 0x298 }
  - { offset: 0x3E6C10, size: 0x8, addend: 0x0, symName: __ZNSt3__120__throw_future_errorB8ne200100ENS_11future_errcE, symObjAddr: 0xB668, symBinAddr: 0x72D38, symSize: 0x5C }
  - { offset: 0x3E7D15, size: 0x8, addend: 0x0, symName: '__ZNSt3__114__thread_proxyB8ne200100INS_5tupleIJNS_10unique_ptrINS_15__thread_structENS_14default_deleteIS3_EEEEMNS_19__async_assoc_stateINS_4pairIP11ggml_tensorbEENS_12__async_funcIZN18llama_model_loader13load_all_dataEP12ggml_contextRNS_13unordered_mapIjP19ggml_backend_bufferNS_4hashIjEENS_8equal_toIjEENS_9allocatorINS8_IKjSI_EEEEEEPNS_6vectorINS2_I11llama_mlockNS4_ISU_EEEENSN_ISW_EEEEPFbfPvES10_E3$_0JEEEEEFvvEPS15_EEEEES10_S10_', symObjAddr: 0xB6C4, symBinAddr: 0x72D94, symSize: 0x8C }
  - { offset: 0x3E80E1, size: 0x8, addend: 0x0, symName: '__ZNSt3__114__thread_proxyB8ne200100INS_5tupleIJNS_10unique_ptrINS_15__thread_structENS_14default_deleteIS3_EEEEMNS_19__async_assoc_stateINS_4pairIP11ggml_tensorbEENS_12__async_funcIZN18llama_model_loader13load_all_dataEP12ggml_contextRNS_13unordered_mapIjP19ggml_backend_bufferNS_4hashIjEENS_8equal_toIjEENS_9allocatorINS8_IKjSI_EEEEEEPNS_6vectorINS2_I11llama_mlockNS4_ISU_EEEENSN_ISW_EEEEPFbfPvES10_E3$_1JEEEEEFvvEPS15_EEEEES10_S10_', symObjAddr: 0xB9D0, symBinAddr: 0x730A0, symSize: 0x8C }
  - { offset: 0x3ECD84, size: 0x8, addend: 0x0, symName: __ZN18llama_model_loader13load_all_dataEP12ggml_contextRNSt3__113unordered_mapIjP19ggml_backend_bufferNS2_4hashIjEENS2_8equal_toIjEENS2_9allocatorINS2_4pairIKjS5_EEEEEEPNS2_6vectorINS2_10unique_ptrI11llama_mlockNS2_14default_deleteISJ_EEEENSA_ISM_EEEEPFbfPvESQ_, symObjAddr: 0x5D9C, symBinAddr: 0x6DE28, symSize: 0x19E8 }
  - { offset: 0x3F14E0, size: 0x8, addend: 0x0, symName: __Z23llama_file_version_name10llama_fver, symObjAddr: 0x0, symBinAddr: 0x681D4, symSize: 0x28 }
  - { offset: 0x3F15CD, size: 0x8, addend: 0x0, symName: __ZN18llama_model_loader9get_arr_nIjEENSt3__19enable_ifIXsr3std11is_integralIT_EE5valueEbE4typeE6llm_kvRS3_b, symObjAddr: 0x28, symBinAddr: 0x681FC, symSize: 0xA0 }
  - { offset: 0x3F1859, size: 0x8, addend: 0x0, symName: __ZN18llama_model_loader9get_arr_nIjEENSt3__19enable_ifIXsr3std11is_integralIT_EE5valueEbE4typeERKNS1_12basic_stringIcNS1_11char_traitsIcEENS1_9allocatorIcEEEERS3_b, symObjAddr: 0xC8, symBinAddr: 0x6829C, symSize: 0x120 }
  - { offset: 0x3F1BCA, size: 0x8, addend: 0x0, symName: __ZN8GGUFMeta3GKVINS_9ArrayInfoEE6get_kvEPK12gguf_contexti, symObjAddr: 0x8184, symBinAddr: 0x700C4, symSize: 0x150 }
  - { offset: 0x3F1E06, size: 0x8, addend: 0x0, symName: __ZN18llama_model_loader7get_arrINSt3__16vectorINS1_12basic_stringIcNS1_11char_traitsIcEENS1_9allocatorIcEEEENS6_IS8_EEEEEEb6llm_kvRT_b, symObjAddr: 0x1E8, symBinAddr: 0x683BC, symSize: 0xA0 }
  - { offset: 0x3F2092, size: 0x8, addend: 0x0, symName: __ZN18llama_model_loader7get_arrINSt3__112basic_stringIcNS1_11char_traitsIcEENS1_9allocatorIcEEEEEEbRKS7_RNS1_6vectorIT_NS5_ISB_EEEEb, symObjAddr: 0x288, symBinAddr: 0x6845C, symSize: 0x3A0 }
  - { offset: 0x3F35BD, size: 0x8, addend: 0x0, symName: __ZNSt3__112__hash_tableINS_17__hash_value_typeINS_12basic_stringIcNS_11char_traitsIcEENS_9allocatorIcEEEE23llama_model_kv_overrideEENS_22__unordered_map_hasherIS7_S9_NS_4hashIS7_EENS_8equal_toIS7_EELb1EEENS_21__unordered_map_equalIS7_S9_SE_SC_Lb1EEENS5_IS9_EEE4findIS7_EENS_15__hash_iteratorIPNS_11__hash_nodeIS9_PvEEEERKT_, symObjAddr: 0x84B0, symBinAddr: 0x70214, symSize: 0x1B4 }
  - { offset: 0x3F35FD, size: 0x8, addend: 0x0, symName: __ZN18llama_model_loader7get_keyIbEEb6llm_kvRT_b, symObjAddr: 0x628, symBinAddr: 0x687FC, symSize: 0xA0 }
  - { offset: 0x3F3889, size: 0x8, addend: 0x0, symName: __ZN18llama_model_loader7get_keyIbEEbRKNSt3__112basic_stringIcNS1_11char_traitsIcEENS1_9allocatorIcEEEERT_b, symObjAddr: 0x6C8, symBinAddr: 0x6889C, symSize: 0x15C }
  - { offset: 0x3F3D4A, size: 0x8, addend: 0x0, symName: __ZNSt3__112__hash_tableINS_17__hash_value_typeINS_12basic_stringIcNS_11char_traitsIcEENS_9allocatorIcEEEE23llama_model_kv_overrideEENS_22__unordered_map_hasherIS7_S9_NS_4hashIS7_EENS_8equal_toIS7_EELb1EEENS_21__unordered_map_equalIS7_S9_SE_SC_Lb1EEENS5_IS9_EEE4findIS7_EENS_15__hash_iteratorIPNS_11__hash_nodeIS9_PvEEEERKT_, symObjAddr: 0x84B0, symBinAddr: 0x70214, symSize: 0x1B4 }
  - { offset: 0x3F4053, size: 0x8, addend: 0x0, symName: __ZN8GGUFMeta3GKVIbE17validate_overrideE28llama_model_kv_override_typePK23llama_model_kv_override, symObjAddr: 0x8BB0, symBinAddr: 0x704C8, symSize: 0x240 }
  - { offset: 0x3F4235, size: 0x8, addend: 0x0, symName: __ZN8GGUFMeta3GKVIbE6get_kvEPK12gguf_contexti, symObjAddr: 0x8AB0, symBinAddr: 0x703C8, symSize: 0x100 }
  - { offset: 0x3F4406, size: 0x8, addend: 0x0, symName: __ZN18llama_model_loader7get_keyIfEEb6llm_kvRT_b, symObjAddr: 0x824, symBinAddr: 0x689F8, symSize: 0xA0 }
  - { offset: 0x3F4692, size: 0x8, addend: 0x0, symName: __ZN18llama_model_loader7get_keyIfEEbRKNSt3__112basic_stringIcNS1_11char_traitsIcEENS1_9allocatorIcEEEERT_b, symObjAddr: 0x8C4, symBinAddr: 0x68A98, symSize: 0x160 }
  - { offset: 0x3F4B2B, size: 0x8, addend: 0x0, symName: __ZN8GGUFMeta3GKVIfE17validate_overrideE28llama_model_kv_override_typePK23llama_model_kv_override, symObjAddr: 0x8EF0, symBinAddr: 0x70808, symSize: 0x240 }
  - { offset: 0x3F4D0D, size: 0x8, addend: 0x0, symName: __ZN8GGUFMeta3GKVIfE6get_kvEPK12gguf_contexti, symObjAddr: 0x8DF0, symBinAddr: 0x70708, symSize: 0x100 }
  - { offset: 0x3F4EDE, size: 0x8, addend: 0x0, symName: __ZN18llama_model_loader7get_keyIjEEb6llm_kvRT_b, symObjAddr: 0xA24, symBinAddr: 0x68BF8, symSize: 0xA0 }
  - { offset: 0x3F5147, size: 0x8, addend: 0x0, symName: __ZN18llama_model_loader7get_keyIjEEbRKNSt3__112basic_stringIcNS1_11char_traitsIcEENS1_9allocatorIcEEEERT_b, symObjAddr: 0xAC4, symBinAddr: 0x68C98, symSize: 0x15C }
  - { offset: 0x3F55E0, size: 0x8, addend: 0x0, symName: __ZN8GGUFMeta3GKVIjE17validate_overrideE28llama_model_kv_override_typePK23llama_model_kv_override, symObjAddr: 0x9230, symBinAddr: 0x70B48, symSize: 0x240 }
  - { offset: 0x3F57C2, size: 0x8, addend: 0x0, symName: __ZN8GGUFMeta3GKVIjE6get_kvEPK12gguf_contexti, symObjAddr: 0x9130, symBinAddr: 0x70A48, symSize: 0x100 }
  - { offset: 0x3F5993, size: 0x8, addend: 0x0, symName: __ZN18llama_model_loader7get_keyINSt3__112basic_stringIcNS1_11char_traitsIcEENS1_9allocatorIcEEEEEEb6llm_kvRT_b, symObjAddr: 0xC20, symBinAddr: 0x68DF4, symSize: 0xA0 }
  - { offset: 0x3F5C1F, size: 0x8, addend: 0x0, symName: __ZN18llama_model_loader7get_keyINSt3__112basic_stringIcNS1_11char_traitsIcEENS1_9allocatorIcEEEEEEbRKS7_RT_b, symObjAddr: 0xCC0, symBinAddr: 0x68E94, symSize: 0x184 }
  - { offset: 0x3F626F, size: 0x8, addend: 0x0, symName: __ZN8GGUFMeta3GKVINSt3__112basic_stringIcNS1_11char_traitsIcEENS1_9allocatorIcEEEEE17validate_overrideE28llama_model_kv_override_typePK23llama_model_kv_override, symObjAddr: 0x95F4, symBinAddr: 0x70F0C, symSize: 0x240 }
  - { offset: 0x3F6451, size: 0x8, addend: 0x0, symName: __ZN8GGUFMeta3GKVINSt3__112basic_stringIcNS1_11char_traitsIcEENS1_9allocatorIcEEEEE6get_kvEPK12gguf_contexti, symObjAddr: 0x9470, symBinAddr: 0x70D88, symSize: 0x184 }
  - { offset: 0x3F68E7, size: 0x8, addend: 0x0, symName: __ZN18llama_model_loader7get_keyI18llama_pooling_typeEEb6llm_kvRT_b, symObjAddr: 0xE44, symBinAddr: 0x69018, symSize: 0x9C }
  - { offset: 0x3F6BD5, size: 0x8, addend: 0x0, symName: __ZN18llama_model_loader14get_key_or_arrE6llm_kvRjb, symObjAddr: 0xEE0, symBinAddr: 0x690B4, symSize: 0x1F4 }
  - { offset: 0x3F71C3, size: 0x8, addend: 0x0, symName: __ZN18llama_model_loader14get_key_or_arrINSt3__15arrayIiLm4EEEEEb6llm_kvRT_jb, symObjAddr: 0x10D4, symBinAddr: 0x692A8, symSize: 0xA8 }
  - { offset: 0x3F7465, size: 0x8, addend: 0x0, symName: __ZN18llama_model_loader14get_key_or_arrIiLm4EEEbRKNSt3__112basic_stringIcNS1_11char_traitsIcEENS1_9allocatorIcEEEERNS1_5arrayIT_XT0_EEEjb, symObjAddr: 0x117C, symBinAddr: 0x69350, symSize: 0x320 }
  - { offset: 0x3F7B35, size: 0x8, addend: 0x0, symName: __ZN18llama_model_loader7get_arrIiLm4EEEbRKNSt3__112basic_stringIcNS1_11char_traitsIcEENS1_9allocatorIcEEEERNS1_5arrayIT_XT0_EEEb, symObjAddr: 0x9834, symBinAddr: 0x7114C, symSize: 0x318 }
  - { offset: 0x3F81CD, size: 0x8, addend: 0x0, symName: __ZN18llama_model_loader7get_keyIiEEbRKNSt3__112basic_stringIcNS1_11char_traitsIcEENS1_9allocatorIcEEEERT_b, symObjAddr: 0x4694, symBinAddr: 0x6C720, symSize: 0x15C }
  - { offset: 0x3F8599, size: 0x8, addend: 0x0, symName: __ZN18llama_model_loader14get_key_or_arrINSt3__15arrayIjLm512EEEEEb6llm_kvRT_jb, symObjAddr: 0x149C, symBinAddr: 0x69670, symSize: 0xA8 }
  - { offset: 0x3F883B, size: 0x8, addend: 0x0, symName: __ZN18llama_model_loader14get_key_or_arrIjLm512EEEbRKNSt3__112basic_stringIcNS1_11char_traitsIcEENS1_9allocatorIcEEEERNS1_5arrayIT_XT0_EEEjb, symObjAddr: 0x1544, symBinAddr: 0x69718, symSize: 0x2EC }
  - { offset: 0x3F8E58, size: 0x8, addend: 0x0, symName: __ZN18llama_model_loader7get_arrIjLm512EEEbRKNSt3__112basic_stringIcNS1_11char_traitsIcEENS1_9allocatorIcEEEERNS1_5arrayIT_XT0_EEEb, symObjAddr: 0x9B4C, symBinAddr: 0x71464, symSize: 0x3DC }
  - { offset: 0x3F94EB, size: 0x8, addend: 0x0, symName: __ZN18llama_model_loader14get_key_or_arrINSt3__15arrayIfLm512EEEEEb6llm_kvRT_jb, symObjAddr: 0x1830, symBinAddr: 0x69A04, symSize: 0xA8 }
  - { offset: 0x3F978D, size: 0x8, addend: 0x0, symName: __ZN18llama_model_loader14get_key_or_arrIfLm512EEEbRKNSt3__112basic_stringIcNS1_11char_traitsIcEENS1_9allocatorIcEEEERNS1_5arrayIT_XT0_EEEjb, symObjAddr: 0x18D8, symBinAddr: 0x69AAC, symSize: 0x2EC }
  - { offset: 0x3F9DAA, size: 0x8, addend: 0x0, symName: __ZN18llama_model_loader7get_arrIfLm512EEEbRKNSt3__112basic_stringIcNS1_11char_traitsIcEENS1_9allocatorIcEEEERNS1_5arrayIT_XT0_EEEb, symObjAddr: 0x9F28, symBinAddr: 0x71840, symSize: 0x2D0 }
  - { offset: 0x3FC991, size: 0x8, addend: 0x0, symName: __ZN18llama_model_loaderC2ERKNSt3__112basic_stringIcNS0_11char_traitsIcEENS0_9allocatorIcEEEERNS0_6vectorIS6_NS4_IS6_EEEEbbbbPK23llama_model_kv_overridePK32llama_model_tensor_buft_override, symObjAddr: 0x1BC4, symBinAddr: 0x69D98, symSize: 0x282C }
  - { offset: 0x405CCD, size: 0x8, addend: 0x0, symName: __ZNSt3__112__hash_tableINS_17__hash_value_typeINS_12basic_stringIcNS_11char_traitsIcEENS_9allocatorIcEEEE23llama_model_kv_overrideEENS_22__unordered_map_hasherIS7_S9_NS_4hashIS7_EENS_8equal_toIS7_EELb1EEENS_21__unordered_map_equalIS7_S9_SE_SC_Lb1EEENS5_IS9_EEE25__emplace_unique_key_argsIS7_JNS_4pairIKS7_S8_EEEEENSL_INS_15__hash_iteratorIPNS_11__hash_nodeIS9_PvEEEEbEERKT_DpOT0_, symObjAddr: 0xA258, symBinAddr: 0x71B70, symSize: 0x42C }
  - { offset: 0x406649, size: 0x8, addend: 0x0, symName: __ZNK18llama_model_loader20weight_name_comparerclERKNSt3__112basic_stringIcNS1_11char_traitsIcEENS1_9allocatorIcEEEES9_, symObjAddr: 0xA88C, symBinAddr: 0x72190, symSize: 0xF4 }
  - { offset: 0x406906, size: 0x8, addend: 0x0, symName: __ZN18llama_model_loader19llama_tensor_weightC2EPK10llama_filetPK12gguf_contextP11ggml_tensor, symObjAddr: 0x7D64, symBinAddr: 0x6FDE0, symSize: 0x1B8 }
  - { offset: 0x406B8E, size: 0x8, addend: 0x0, symName: __ZNSt3__16__treeINS_12__value_typeINS_12basic_stringIcNS_11char_traitsIcEENS_9allocatorIcEEEEN18llama_model_loader19llama_tensor_weightEEENS_19__map_value_compareIS7_SA_NS8_20weight_name_comparerELb1EEENS5_ISA_EEE25__emplace_unique_key_argsIS7_JRS7_S9_EEENS_4pairINS_15__tree_iteratorISA_PNS_11__tree_nodeISA_PvEElEEbEERKT_DpOT0_, symObjAddr: 0xA980, symBinAddr: 0x72284, symSize: 0x158 }
  - { offset: 0x406F40, size: 0x8, addend: 0x0, symName: __ZN8GGUFMeta3GKVItE17validate_overrideE28llama_model_kv_override_typePK23llama_model_kv_override, symObjAddr: 0xADE4, symBinAddr: 0x7253C, symSize: 0x240 }
  - { offset: 0x407122, size: 0x8, addend: 0x0, symName: __ZN8GGUFMeta3GKVItE6get_kvEPK12gguf_contexti, symObjAddr: 0xACE4, symBinAddr: 0x7243C, symSize: 0x100 }
  - { offset: 0x407301, size: 0x8, addend: 0x0, symName: __ZN18llama_model_loader7get_keyItEEbRKNSt3__112basic_stringIcNS1_11char_traitsIcEENS1_9allocatorIcEEEERT_b, symObjAddr: 0x4494, symBinAddr: 0x6C5C4, symSize: 0x15C }
  - { offset: 0x4077DE, size: 0x8, addend: 0x0, symName: __ZNSt3__16__treeINS_12__value_typeI9ggml_typejEENS_19__map_value_compareIS2_S3_NS_4lessIS2_EELb1EEENS_9allocatorIS3_EEE7destroyEPNS_11__tree_nodeIS3_PvEE, symObjAddr: 0xB364, symBinAddr: 0x72ABC, symSize: 0x44 }
  - { offset: 0x4078FF, size: 0x8, addend: 0x0, symName: __ZNK18llama_model_loader20weight_name_comparerclERKNSt3__112basic_stringIcNS1_11char_traitsIcEENS1_9allocatorIcEEEES9_, symObjAddr: 0xA88C, symBinAddr: 0x72190, symSize: 0xF4 }
  - { offset: 0x40790A, size: 0x8, addend: 0x0, symName: __ZNSt3__16vectorINS_10unique_ptrI10llama_fileNS_14default_deleteIS2_EEEENS_9allocatorIS5_EEE20__throw_length_errorB8ne200100Ev, symObjAddr: 0xA864, symBinAddr: 0x7217C, symSize: 0x14 }
  - { offset: 0x407937, size: 0x8, addend: 0x0, symName: __ZNSt3__16vectorIP18ggml_backend_eventNS_9allocatorIS2_EEE12emplace_backIJRS2_EEES7_DpOT_, symObjAddr: 0x8058, symBinAddr: 0x6FF98, symSize: 0xF0 }
  - { offset: 0x407AD7, size: 0x8, addend: 0x0, symName: __ZNSt3__110unique_ptrINS_11__tree_nodeINS_12__value_typeINS_12basic_stringIcNS_11char_traitsIcEENS_9allocatorIcEEEEN18llama_model_loader19llama_tensor_weightEEEPvEENS_22__tree_node_destructorINS6_ISD_EEEEED1B8ne200100Ev, symObjAddr: 0xAAD8, symBinAddr: 0x723DC, symSize: 0x60 }
  - { offset: 0x407E05, size: 0x8, addend: 0x0, symName: __ZNSt3__16vectorINS_10unique_ptrI12ggml_context20ggml_context_deleterEENS_9allocatorIS4_EEED1B8ne200100Ev, symObjAddr: 0x47F0, symBinAddr: 0x6C87C, symSize: 0x70 }
  - { offset: 0x407FFC, size: 0x8, addend: 0x0, symName: __ZNSt3__113unordered_mapINS_12basic_stringIcNS_11char_traitsIcEENS_9allocatorIcEEEE23llama_model_kv_overrideNS_4hashIS6_EENS_8equal_toIS6_EENS4_INS_4pairIKS6_S7_EEEEED1B8ne200100Ev, symObjAddr: 0x4860, symBinAddr: 0x6C8EC, symSize: 0x68 }
  - { offset: 0x408402, size: 0x8, addend: 0x0, symName: __ZNSt3__16__treeINS_12__value_typeINS_12basic_stringIcNS_11char_traitsIcEENS_9allocatorIcEEEEN18llama_model_loader19llama_tensor_weightEEENS_19__map_value_compareIS7_SA_NS8_20weight_name_comparerELb1EEENS5_ISA_EEE7destroyEPNS_11__tree_nodeISA_PvEE, symObjAddr: 0xA1F8, symBinAddr: 0x71B10, symSize: 0x60 }
  - { offset: 0x408646, size: 0x8, addend: 0x0, symName: __ZNSt3__16vectorINS_10unique_ptrI10llama_mmapNS_14default_deleteIS2_EEEENS_9allocatorIS5_EEED1B8ne200100Ev, symObjAddr: 0x48C8, symBinAddr: 0x6C954, symSize: 0x70 }
  - { offset: 0x408863, size: 0x8, addend: 0x0, symName: __ZNSt3__16vectorINS_10unique_ptrI10llama_fileNS_14default_deleteIS2_EEEENS_9allocatorIS5_EEED1B8ne200100Ev, symObjAddr: 0x4938, symBinAddr: 0x6C9C4, symSize: 0x70 }
  - { offset: 0x408C05, size: 0x8, addend: 0x0, symName: __ZN18llama_model_loader7get_keyItEEbRKNSt3__112basic_stringIcNS1_11char_traitsIcEENS1_9allocatorIcEEEERT_b, symObjAddr: 0x4494, symBinAddr: 0x6C5C4, symSize: 0x15C }
  - { offset: 0x408D13, size: 0x8, addend: 0x0, symName: __ZN8GGUFMeta3GKVIiE17validate_overrideE28llama_model_kv_override_typePK23llama_model_kv_override, symObjAddr: 0xB124, symBinAddr: 0x7287C, symSize: 0x240 }
  - { offset: 0x408EF5, size: 0x8, addend: 0x0, symName: __ZN8GGUFMeta3GKVIiE6get_kvEPK12gguf_contexti, symObjAddr: 0xB024, symBinAddr: 0x7277C, symSize: 0x100 }
  - { offset: 0x409688, size: 0x8, addend: 0x0, symName: __ZN18llama_model_loaderC1ERKNSt3__112basic_stringIcNS0_11char_traitsIcEENS0_9allocatorIcEEEERNS0_6vectorIS6_NS4_IS6_EEEEbbbbPK23llama_model_kv_overridePK32llama_model_tensor_buft_override, symObjAddr: 0x49A8, symBinAddr: 0x6CA34, symSize: 0xC }
  - { offset: 0x409780, size: 0x8, addend: 0x0, symName: __ZNK18llama_model_loader13get_arch_nameEv, symObjAddr: 0x49B4, symBinAddr: 0x6CA40, symSize: 0x28 }
  - { offset: 0x4097C6, size: 0x8, addend: 0x0, symName: __ZNK18llama_model_loader13get_arch_nameEv, symObjAddr: 0x49B4, symBinAddr: 0x6CA40, symSize: 0x28 }
  - { offset: 0x4097FE, size: 0x8, addend: 0x0, symName: __ZNK18llama_model_loader8get_archEv, symObjAddr: 0x49DC, symBinAddr: 0x6CA68, symSize: 0x8 }
  - { offset: 0x4098E0, size: 0x8, addend: 0x0, symName: __ZNK18llama_model_loader10get_weightEPKc, symObjAddr: 0x49E4, symBinAddr: 0x6CA70, symSize: 0x14C }
  - { offset: 0x409EB4, size: 0x8, addend: 0x0, symName: __ZNK18llama_model_loader14require_weightEPKc, symObjAddr: 0x4B30, symBinAddr: 0x6CBBC, symSize: 0xC4 }
  - { offset: 0x40A035, size: 0x8, addend: 0x0, symName: __ZNK18llama_model_loader15get_tensor_metaEPKc, symObjAddr: 0x4BF4, symBinAddr: 0x6CC80, symSize: 0x1C }
  - { offset: 0x40A0BC, size: 0x8, addend: 0x0, symName: __ZNK18llama_model_loader19require_tensor_metaERKNSt3__112basic_stringIcNS0_11char_traitsIcEENS0_9allocatorIcEEEE, symObjAddr: 0x4C10, symBinAddr: 0x6CC9C, symSize: 0xEC }
  - { offset: 0x40A34F, size: 0x8, addend: 0x0, symName: __ZNK18llama_model_loader17check_tensor_dimsERKNSt3__112basic_stringIcNS0_11char_traitsIcEENS0_9allocatorIcEEEERKNS0_6vectorIxNS4_IxEEEEb, symObjAddr: 0x4CFC, symBinAddr: 0x6CD88, symSize: 0x2E0 }
  - { offset: 0x40AE11, size: 0x8, addend: 0x0, symName: __ZN18llama_model_loader13create_tensorEP12ggml_contextRKNSt3__112basic_stringIcNS2_11char_traitsIcEENS2_9allocatorIcEEEERKSt16initializer_listIxEi, symObjAddr: 0x4FDC, symBinAddr: 0x6D068, symSize: 0x174 }
  - { offset: 0x40B4A0, size: 0x8, addend: 0x0, symName: __ZNSt3__16vectorIxNS_9allocatorIxEEE20__throw_length_errorB8ne200100Ev, symObjAddr: 0xB41C, symBinAddr: 0x72B00, symSize: 0x14 }
  - { offset: 0x40B4B8, size: 0x8, addend: 0x0, symName: __ZNSt3__16vectorINS_10unique_ptrI10llama_mmapNS_14default_deleteIS2_EEEENS_9allocatorIS5_EEE20__throw_length_errorB8ne200100Ev, symObjAddr: 0xB430, symBinAddr: 0x72B14, symSize: 0x14 }
  - { offset: 0x40B4C3, size: 0x8, addend: 0x0, symName: __ZN18llama_model_loader21create_tensor_as_viewEP12ggml_contextP11ggml_tensorRKNSt3__112basic_stringIcNS4_11char_traitsIcEENS4_9allocatorIcEEEERKSt16initializer_listIxEmb, symObjAddr: 0x5150, symBinAddr: 0x6D1DC, symSize: 0x28C }
  - { offset: 0x40BD0E, size: 0x8, addend: 0x0, symName: __ZNK18llama_model_loader20done_getting_tensorsEv, symObjAddr: 0x53DC, symBinAddr: 0x6D468, symSize: 0xD0 }
  - { offset: 0x40CA54, size: 0x8, addend: 0x0, symName: __ZN18llama_model_loader13init_mappingsEbPNSt3__16vectorINS0_10unique_ptrI11llama_mlockNS0_14default_deleteIS3_EEEENS0_9allocatorIS6_EEEE, symObjAddr: 0x54AC, symBinAddr: 0x6D538, symSize: 0x528 }
  - { offset: 0x40E1BE, size: 0x8, addend: 0x0, symName: __ZNSt3__16vectorINS_10unique_ptrI10llama_mmapNS_14default_deleteIS2_EEEENS_9allocatorIS5_EEE20__throw_length_errorB8ne200100Ev, symObjAddr: 0xB430, symBinAddr: 0x72B14, symSize: 0x14 }
  - { offset: 0x40E1EB, size: 0x8, addend: 0x0, symName: __ZNSt3__16vectorINS_10unique_ptrI11llama_mlockNS_14default_deleteIS2_EEEENS_9allocatorIS5_EEE20__throw_length_errorB8ne200100Ev, symObjAddr: 0xB458, symBinAddr: 0x72B28, symSize: 0x14 }
  - { offset: 0x40E1F6, size: 0x8, addend: 0x0, symName: __ZNSt3__16vectorINS_10unique_ptrI11llama_mlockNS_14default_deleteIS2_EEEENS_9allocatorIS5_EEE20__throw_length_errorB8ne200100Ev, symObjAddr: 0xB458, symBinAddr: 0x72B28, symSize: 0x14 }
  - { offset: 0x40E20E, size: 0x8, addend: 0x0, symName: __ZNSt3__16vectorINS_10unique_ptrI10llama_mmapNS_14default_deleteIS2_EEEENS_9allocatorIS5_EEE20__throw_out_of_rangeB8ne200100Ev, symObjAddr: 0xB46C, symBinAddr: 0x72B3C, symSize: 0x14 }
  - { offset: 0x40E219, size: 0x8, addend: 0x0, symName: __ZNSt3__110unique_ptrI10llama_mmapNS_14default_deleteIS1_EEED1B8ne200100Ev, symObjAddr: 0x5A10, symBinAddr: 0x6DA9C, symSize: 0x3C }
  - { offset: 0x40E2B1, size: 0x8, addend: 0x0, symName: __ZNSt3__110unique_ptrI11llama_mlockNS_14default_deleteIS1_EEED1B8ne200100Ev, symObjAddr: 0x59D4, symBinAddr: 0x6DA60, symSize: 0x3C }
  - { offset: 0x40E464, size: 0x8, addend: 0x0, symName: __ZNK18llama_model_loader17get_mapping_rangeEPmS0_PPviP12ggml_context, symObjAddr: 0x5A4C, symBinAddr: 0x6DAD8, symSize: 0x134 }
  - { offset: 0x40E6F9, size: 0x8, addend: 0x0, symName: __ZNK18llama_model_loader13load_data_forEP11ggml_tensor, symObjAddr: 0x5B80, symBinAddr: 0x6DC0C, symSize: 0x21C }
  - { offset: 0x40E704, size: 0x8, addend: 0x0, symName: __ZNSt3__16vectorINS_10unique_ptrI10llama_mmapNS_14default_deleteIS2_EEEENS_9allocatorIS5_EEE20__throw_out_of_rangeB8ne200100Ev, symObjAddr: 0xB46C, symBinAddr: 0x72B3C, symSize: 0x14 }
  - { offset: 0x40E71C, size: 0x8, addend: 0x0, symName: __ZNSt3__16vectorINS_10unique_ptrI10llama_fileNS_14default_deleteIS2_EEEENS_9allocatorIS5_EEE20__throw_out_of_rangeB8ne200100Ev, symObjAddr: 0xB480, symBinAddr: 0x72B50, symSize: 0x14 }
  - { offset: 0x40E727, size: 0x8, addend: 0x0, symName: __ZNK18llama_model_loader13load_data_forEP11ggml_tensor, symObjAddr: 0x5B80, symBinAddr: 0x6DC0C, symSize: 0x21C }
  - { offset: 0x411179, size: 0x8, addend: 0x0, symName: __ZNSt3__113__assoc_stateINS_4pairIP11ggml_tensorbEEE4moveEv, symObjAddr: 0xBAB8, symBinAddr: 0x73188, symSize: 0xCC }
  - { offset: 0x411378, size: 0x8, addend: 0x0, symName: __ZNSt3__16vectorIP18ggml_backend_eventNS_9allocatorIS2_EEE12emplace_backIJRS2_EEES7_DpOT_, symObjAddr: 0x8058, symBinAddr: 0x6FF98, symSize: 0xF0 }
  - { offset: 0x411770, size: 0x8, addend: 0x0, symName: __ZNSt3__16vectorIP19ggml_backend_bufferNS_9allocatorIS2_EEE20__throw_length_errorB8ne200100Ev, symObjAddr: 0x8148, symBinAddr: 0x70088, symSize: 0x14 }
  - { offset: 0x4117C1, size: 0x8, addend: 0x0, symName: __ZNSt3__16vectorINS_10unique_ptrI10llama_fileNS_14default_deleteIS2_EEEENS_9allocatorIS5_EEE20__throw_out_of_rangeB8ne200100Ev, symObjAddr: 0xB480, symBinAddr: 0x72B50, symSize: 0x14 }
  - { offset: 0x4117D9, size: 0x8, addend: 0x0, symName: '__ZNSt3__119__async_assoc_stateINS_4pairIP11ggml_tensorbEENS_12__async_funcIZN18llama_model_loader13load_all_dataEP12ggml_contextRNS_13unordered_mapIjP19ggml_backend_bufferNS_4hashIjEENS_8equal_toIjEENS_9allocatorINS1_IKjSB_EEEEEEPNS_6vectorINS_10unique_ptrI11llama_mlockNS_14default_deleteISO_EEEENSG_ISR_EEEEPFbfPvESV_E3$_0JEEEED1Ev', symObjAddr: 0xB494, symBinAddr: 0x72B64, symSize: 0x4C }
  - { offset: 0x4117E4, size: 0x8, addend: 0x0, symName: __ZNSt3__16vectorINS_4pairImmEENS_9allocatorIS2_EEE20__throw_out_of_rangeB8ne200100Ev, symObjAddr: 0xBB84, symBinAddr: 0x73254, symSize: 0x14 }
  - { offset: 0x411807, size: 0x8, addend: 0x0, symName: __ZNSt3__16vectorINS_6futureINS_4pairIP11ggml_tensorbEEEENS_9allocatorIS6_EEE20__throw_length_errorB8ne200100Ev, symObjAddr: 0xB7D4, symBinAddr: 0x72EA4, symSize: 0x14 }
  - { offset: 0x41181F, size: 0x8, addend: 0x0, symName: __ZNSt3__16vectorINS_10unique_ptrI11llama_mlockNS_14default_deleteIS2_EEEENS_9allocatorIS5_EEE20__throw_out_of_rangeB8ne200100Ev, symObjAddr: 0xB7E8, symBinAddr: 0x72EB8, symSize: 0x14 }
  - { offset: 0x41182A, size: 0x8, addend: 0x0, symName: __ZNSt3__16vectorINS_10unique_ptrI11llama_mlockNS_14default_deleteIS2_EEEENS_9allocatorIS5_EEE20__throw_out_of_rangeB8ne200100Ev, symObjAddr: 0xB7E8, symBinAddr: 0x72EB8, symSize: 0x14 }
  - { offset: 0x411842, size: 0x8, addend: 0x0, symName: '__ZNSt3__119__async_assoc_stateINS_4pairIP11ggml_tensorbEENS_12__async_funcIZN18llama_model_loader13load_all_dataEP12ggml_contextRNS_13unordered_mapIjP19ggml_backend_bufferNS_4hashIjEENS_8equal_toIjEENS_9allocatorINS1_IKjSB_EEEEEEPNS_6vectorINS_10unique_ptrI11llama_mlockNS_14default_deleteISO_EEEENSG_ISR_EEEEPFbfPvESV_E3$_1JEEEED1Ev', symObjAddr: 0xB7FC, symBinAddr: 0x72ECC, symSize: 0x4C }
  - { offset: 0x41184D, size: 0x8, addend: 0x0, symName: __ZNSt3__16vectorI7no_initIhENS_9allocatorIS2_EEE20__throw_length_errorB8ne200100Ev, symObjAddr: 0xBAA4, symBinAddr: 0x73174, symSize: 0x14 }
  - { offset: 0x411865, size: 0x8, addend: 0x0, symName: __ZNSt3__113__assoc_stateINS_4pairIP11ggml_tensorbEEE4moveEv, symObjAddr: 0xBAB8, symBinAddr: 0x73188, symSize: 0xCC }
  - { offset: 0x411870, size: 0x8, addend: 0x0, symName: __ZNSt3__16vectorIP19ggml_backend_bufferNS_9allocatorIS2_EEE20__throw_length_errorB8ne200100Ev, symObjAddr: 0x8148, symBinAddr: 0x70088, symSize: 0x14 }
  - { offset: 0x411888, size: 0x8, addend: 0x0, symName: __ZNSt3__16vectorIPvNS_9allocatorIS1_EEE20__throw_length_errorB8ne200100Ev, symObjAddr: 0x815C, symBinAddr: 0x7009C, symSize: 0x14 }
  - { offset: 0x411893, size: 0x8, addend: 0x0, symName: __ZNSt3__16vectorIPvNS_9allocatorIS1_EEE20__throw_length_errorB8ne200100Ev, symObjAddr: 0x815C, symBinAddr: 0x7009C, symSize: 0x14 }
  - { offset: 0x4118AB, size: 0x8, addend: 0x0, symName: __ZNSt3__16vectorIP18ggml_backend_eventNS_9allocatorIS2_EEE20__throw_length_errorB8ne200100Ev, symObjAddr: 0x8170, symBinAddr: 0x700B0, symSize: 0x14 }
  - { offset: 0x4118B6, size: 0x8, addend: 0x0, symName: '__ZNSt3__110unique_ptrINS_5tupleIJNS0_INS_15__thread_structENS_14default_deleteIS2_EEEEMNS_19__async_assoc_stateINS_4pairIP11ggml_tensorbEENS_12__async_funcIZN18llama_model_loader13load_all_dataEP12ggml_contextRNS_13unordered_mapIjP19ggml_backend_bufferNS_4hashIjEENS_8equal_toIjEENS_9allocatorINS7_IKjSH_EEEEEEPNS_6vectorINS0_I11llama_mlockNS3_IST_EEEENSM_ISV_EEEEPFbfPvESZ_E3$_1JEEEEEFvvEPS14_EEENS3_IS18_EEED1B8ne200100Ev', symObjAddr: 0xBA5C, symBinAddr: 0x7312C, symSize: 0x48 }
  - { offset: 0x411A5E, size: 0x8, addend: 0x0, symName: __ZNSt3__110unique_ptrINS_15__thread_structENS_14default_deleteIS1_EEED1B8ne200100Ev, symObjAddr: 0xB798, symBinAddr: 0x72E68, symSize: 0x3C }
  - { offset: 0x411AF6, size: 0x8, addend: 0x0, symName: '__ZNSt3__110unique_ptrINS_5tupleIJNS0_INS_15__thread_structENS_14default_deleteIS2_EEEEMNS_19__async_assoc_stateINS_4pairIP11ggml_tensorbEENS_12__async_funcIZN18llama_model_loader13load_all_dataEP12ggml_contextRNS_13unordered_mapIjP19ggml_backend_bufferNS_4hashIjEENS_8equal_toIjEENS_9allocatorINS7_IKjSH_EEEEEEPNS_6vectorINS0_I11llama_mlockNS3_IST_EEEENSM_ISV_EEEEPFbfPvESZ_E3$_0JEEEEEFvvEPS14_EEENS3_IS18_EEED1B8ne200100Ev', symObjAddr: 0xB750, symBinAddr: 0x72E20, symSize: 0x48 }
  - { offset: 0x411C9E, size: 0x8, addend: 0x0, symName: __ZNSt3__16vectorINS_6futureINS_4pairIP11ggml_tensorbEEEENS_9allocatorIS6_EEED1B8ne200100Ev, symObjAddr: 0x7784, symBinAddr: 0x6F810, symSize: 0x88 }
  - { offset: 0x411EA4, size: 0x8, addend: 0x0, symName: __ZNK18llama_model_loader10ftype_nameEv, symObjAddr: 0x780C, symBinAddr: 0x6F898, symSize: 0xC }
  - { offset: 0x411EE4, size: 0x8, addend: 0x0, symName: __ZL22llama_model_ftype_name11llama_ftype, symObjAddr: 0x7818, symBinAddr: 0x6F8A4, symSize: 0x3EC }
  - { offset: 0x41236D, size: 0x8, addend: 0x0, symName: __ZNK18llama_model_loader10print_infoEv, symObjAddr: 0x7C04, symBinAddr: 0x6FC90, symSize: 0x150 }
  - { offset: 0x412B6E, size: 0x8, addend: 0x0, symName: __ZNSt3__16vectorIP18ggml_backend_eventNS_9allocatorIS2_EEE20__throw_length_errorB8ne200100Ev, symObjAddr: 0x8170, symBinAddr: 0x700B0, symSize: 0x14 }
  - { offset: 0x412B86, size: 0x8, addend: 0x0, symName: __ZN8GGUFMeta3GKVINS_9ArrayInfoEE6get_kvEPK12gguf_contexti, symObjAddr: 0x8184, symBinAddr: 0x700C4, symSize: 0x150 }
  - { offset: 0x413C22, size: 0x8, addend: 0x0, symName: __ZNSt3__112__hash_tableINS_17__hash_value_typeINS_12basic_stringIcNS_11char_traitsIcEENS_9allocatorIcEEEE23llama_model_kv_overrideEENS_22__unordered_map_hasherIS7_S9_NS_4hashIS7_EENS_8equal_toIS7_EELb1EEENS_21__unordered_map_equalIS7_S9_SE_SC_Lb1EEENS5_IS9_EEE11__do_rehashILb1EEEvm, symObjAddr: 0xA6E4, symBinAddr: 0x71FFC, symSize: 0x180 }
  - { offset: 0x413FAF, size: 0x8, addend: 0x0, symName: __ZNSt3__16vectorINS_10unique_ptrI10llama_fileNS_14default_deleteIS2_EEEENS_9allocatorIS5_EEE20__throw_length_errorB8ne200100Ev, symObjAddr: 0xA864, symBinAddr: 0x7217C, symSize: 0x14 }
  - { offset: 0x413FC4, size: 0x8, addend: 0x0, symName: __ZNSt3__110unique_ptrINS_11__hash_nodeINS_17__hash_value_typeINS_12basic_stringIcNS_11char_traitsIcEENS_9allocatorIcEEEE23llama_model_kv_overrideEEPvEENS_22__hash_node_destructorINS6_ISC_EEEEED1B8ne200100Ev, symObjAddr: 0xA684, symBinAddr: 0x71F9C, symSize: 0x60 }
  - { offset: 0x414569, size: 0x8, addend: 0x0, symName: '__ZNSt3__119__async_assoc_stateINS_4pairIP11ggml_tensorbEENS_12__async_funcIZN18llama_model_loader13load_all_dataEP12ggml_contextRNS_13unordered_mapIjP19ggml_backend_bufferNS_4hashIjEENS_8equal_toIjEENS_9allocatorINS1_IKjSB_EEEEEEPNS_6vectorINS_10unique_ptrI11llama_mlockNS_14default_deleteISO_EEEENSG_ISR_EEEEPFbfPvESV_E3$_0JEEEED1Ev', symObjAddr: 0xB494, symBinAddr: 0x72B64, symSize: 0x4C }
  - { offset: 0x414605, size: 0x8, addend: 0x0, symName: '__ZNSt3__119__async_assoc_stateINS_4pairIP11ggml_tensorbEENS_12__async_funcIZN18llama_model_loader13load_all_dataEP12ggml_contextRNS_13unordered_mapIjP19ggml_backend_bufferNS_4hashIjEENS_8equal_toIjEENS_9allocatorINS1_IKjSB_EEEEEEPNS_6vectorINS_10unique_ptrI11llama_mlockNS_14default_deleteISO_EEEENSG_ISR_EEEEPFbfPvESV_E3$_0JEEEED0Ev', symObjAddr: 0xB4E0, symBinAddr: 0x72BB0, symSize: 0x50 }
  - { offset: 0x4146BF, size: 0x8, addend: 0x0, symName: '__ZNSt3__119__async_assoc_stateINS_4pairIP11ggml_tensorbEENS_12__async_funcIZN18llama_model_loader13load_all_dataEP12ggml_contextRNS_13unordered_mapIjP19ggml_backend_bufferNS_4hashIjEENS_8equal_toIjEENS_9allocatorINS1_IKjSB_EEEEEEPNS_6vectorINS_10unique_ptrI11llama_mlockNS_14default_deleteISO_EEEENSG_ISR_EEEEPFbfPvESV_E3$_0JEEEE16__on_zero_sharedEv', symObjAddr: 0xB530, symBinAddr: 0x72C00, symSize: 0x30 }
  - { offset: 0x41492B, size: 0x8, addend: 0x0, symName: '__ZNSt3__119__async_assoc_stateINS_4pairIP11ggml_tensorbEENS_12__async_funcIZN18llama_model_loader13load_all_dataEP12ggml_contextRNS_13unordered_mapIjP19ggml_backend_bufferNS_4hashIjEENS_8equal_toIjEENS_9allocatorINS1_IKjSB_EEEEEEPNS_6vectorINS_10unique_ptrI11llama_mlockNS_14default_deleteISO_EEEENSG_ISR_EEEEPFbfPvESV_E3$_0JEEEE9__executeEv', symObjAddr: 0xB560, symBinAddr: 0x72C30, symSize: 0x108 }
  - { offset: 0x414DEF, size: 0x8, addend: 0x0, symName: '__ZNSt3__119__async_assoc_stateINS_4pairIP11ggml_tensorbEENS_12__async_funcIZN18llama_model_loader13load_all_dataEP12ggml_contextRNS_13unordered_mapIjP19ggml_backend_bufferNS_4hashIjEENS_8equal_toIjEENS_9allocatorINS1_IKjSB_EEEEEEPNS_6vectorINS_10unique_ptrI11llama_mlockNS_14default_deleteISO_EEEENSG_ISR_EEEEPFbfPvESV_E3$_1JEEEED1Ev', symObjAddr: 0xB7FC, symBinAddr: 0x72ECC, symSize: 0x4C }
  - { offset: 0x414E8B, size: 0x8, addend: 0x0, symName: '__ZNSt3__119__async_assoc_stateINS_4pairIP11ggml_tensorbEENS_12__async_funcIZN18llama_model_loader13load_all_dataEP12ggml_contextRNS_13unordered_mapIjP19ggml_backend_bufferNS_4hashIjEENS_8equal_toIjEENS_9allocatorINS1_IKjSB_EEEEEEPNS_6vectorINS_10unique_ptrI11llama_mlockNS_14default_deleteISO_EEEENSG_ISR_EEEEPFbfPvESV_E3$_1JEEEED0Ev', symObjAddr: 0xB848, symBinAddr: 0x72F18, symSize: 0x50 }
  - { offset: 0x414F2D, size: 0x8, addend: 0x0, symName: '__ZNSt3__119__async_assoc_stateINS_4pairIP11ggml_tensorbEENS_12__async_funcIZN18llama_model_loader13load_all_dataEP12ggml_contextRNS_13unordered_mapIjP19ggml_backend_bufferNS_4hashIjEENS_8equal_toIjEENS_9allocatorINS1_IKjSB_EEEEEEPNS_6vectorINS_10unique_ptrI11llama_mlockNS_14default_deleteISO_EEEENSG_ISR_EEEEPFbfPvESV_E3$_1JEEEE16__on_zero_sharedEv', symObjAddr: 0xB898, symBinAddr: 0x72F68, symSize: 0x30 }
  - { offset: 0x414FDF, size: 0x8, addend: 0x0, symName: '__ZNSt3__119__async_assoc_stateINS_4pairIP11ggml_tensorbEENS_12__async_funcIZN18llama_model_loader13load_all_dataEP12ggml_contextRNS_13unordered_mapIjP19ggml_backend_bufferNS_4hashIjEENS_8equal_toIjEENS_9allocatorINS1_IKjSB_EEEEEEPNS_6vectorINS_10unique_ptrI11llama_mlockNS_14default_deleteISO_EEEENSG_ISR_EEEEPFbfPvESV_E3$_1JEEEE9__executeEv', symObjAddr: 0xB8C8, symBinAddr: 0x72F98, symSize: 0x108 }
  - { offset: 0x430E05, size: 0x8, addend: 0x0, symName: __ZN17llama_model_saverC2ERK11llama_model, symObjAddr: 0x0, symBinAddr: 0x73268, symSize: 0x38 }
  - { offset: 0x430E77, size: 0x8, addend: 0x0, symName: __ZN17llama_model_saverC1ERK11llama_model, symObjAddr: 0x38, symBinAddr: 0x732A0, symSize: 0x38 }
  - { offset: 0x430EE6, size: 0x8, addend: 0x0, symName: __ZN17llama_model_saverD2Ev, symObjAddr: 0x70, symBinAddr: 0x732D8, symSize: 0x2C }
  - { offset: 0x430F3F, size: 0x8, addend: 0x0, symName: __ZN17llama_model_saverD1Ev, symObjAddr: 0xAC, symBinAddr: 0x73304, symSize: 0x2C }
  - { offset: 0x43109B, size: 0x8, addend: 0x0, symName: __ZN17llama_model_saver6add_kvE6llm_kvj, symObjAddr: 0xD8, symBinAddr: 0x73330, symSize: 0x98 }
  - { offset: 0x431377, size: 0x8, addend: 0x0, symName: __ZN17llama_model_saver6add_kvE6llm_kvi, symObjAddr: 0x170, symBinAddr: 0x733C8, symSize: 0x98 }
  - { offset: 0x431653, size: 0x8, addend: 0x0, symName: __ZN17llama_model_saver6add_kvE6llm_kvf, symObjAddr: 0x208, symBinAddr: 0x73460, symSize: 0x98 }
  - { offset: 0x431929, size: 0x8, addend: 0x0, symName: __ZN17llama_model_saver6add_kvE6llm_kvb, symObjAddr: 0x2A0, symBinAddr: 0x734F8, symSize: 0x98 }
  - { offset: 0x431C05, size: 0x8, addend: 0x0, symName: __ZN17llama_model_saver6add_kvE6llm_kvPKc, symObjAddr: 0x338, symBinAddr: 0x73590, symSize: 0x98 }
  - { offset: 0x431EF4, size: 0x8, addend: 0x0, symName: __ZN17llama_model_saver6add_kvE6llm_kvc, symObjAddr: 0x3D0, symBinAddr: 0x73628, symSize: 0x20 }
  - { offset: 0x431F31, size: 0x8, addend: 0x0, symName: __ZN17llama_model_saver6add_kvE6llm_kvRKNSt3__16vectorINS1_12basic_stringIcNS1_11char_traitsIcEENS1_9allocatorIcEEEENS6_IS8_EEEE, symObjAddr: 0x3F0, symBinAddr: 0x73648, symSize: 0x15C }
  - { offset: 0x4321DA, size: 0x8, addend: 0x0, symName: __ZN17llama_model_saver6add_kvE6llm_kvRKNSt3__16vectorINS1_12basic_stringIcNS1_11char_traitsIcEENS1_9allocatorIcEEEENS6_IS8_EEEE, symObjAddr: 0x3F0, symBinAddr: 0x73648, symSize: 0x15C }
  - { offset: 0x432879, size: 0x8, addend: 0x0, symName: __ZNSt3__16vectorIPKcNS_9allocatorIS2_EEE20__throw_length_errorB8ne200100Ev, symObjAddr: 0x2B50, symBinAddr: 0x75D38, symSize: 0x14 }
  - { offset: 0x432B18, size: 0x8, addend: 0x0, symName: __ZN17llama_model_saver10add_tensorEPK11ggml_tensor, symObjAddr: 0x54C, symBinAddr: 0x737A4, symSize: 0x1A0 }
  - { offset: 0x432EE9, size: 0x8, addend: 0x0, symName: __ZN17llama_model_saver17add_kv_from_modelEv, symObjAddr: 0x6EC, symBinAddr: 0x73944, symSize: 0x1E68 }
  - { offset: 0x433A53, size: 0x8, addend: 0x0, symName: __ZN17llama_model_saver17add_kv_from_modelEv, symObjAddr: 0x6EC, symBinAddr: 0x73944, symSize: 0x1E68 }
  - { offset: 0x43E4D8, size: 0x8, addend: 0x0, symName: __ZN17llama_model_saver6add_kvINSt3__112basic_stringIcNS1_11char_traitsIcEENS1_9allocatorIcEEEEEEv6llm_kvRKT_b, symObjAddr: 0x2554, symBinAddr: 0x757AC, symSize: 0x148 }
  - { offset: 0x43E90F, size: 0x8, addend: 0x0, symName: __ZN17llama_model_saver6add_kvINSt3__15arrayIjLm512EEEEEv6llm_kvRKT_b, symObjAddr: 0x269C, symBinAddr: 0x758F4, symSize: 0x13C }
  - { offset: 0x43EEC1, size: 0x8, addend: 0x0, symName: __ZN17llama_model_saver22add_tensors_from_modelEv, symObjAddr: 0x2848, symBinAddr: 0x75A30, symSize: 0x2EC }
  - { offset: 0x43F9A4, size: 0x8, addend: 0x0, symName: __ZN17llama_model_saver4saveERKNSt3__112basic_stringIcNS0_11char_traitsIcEENS0_9allocatorIcEEEE, symObjAddr: 0x2B34, symBinAddr: 0x75D1C, symSize: 0x1C }
  - { offset: 0x441A05, size: 0x8, addend: 0x0, symName: __ZL24LLAMA_ROPE_SCALING_TYPES, symObjAddr: 0x510C80, symBinAddr: 0x3600B0, symSize: 0x0 }
  - { offset: 0x49F784, size: 0x8, addend: 0x0, symName: __ZNSt3__111make_uniqueB8ne200100I20llm_build_nemotron_hJRK11llama_modelRK16llm_graph_paramsELi0EEENS_10unique_ptrIT_NS_14default_deleteIS9_EEEEDpOT0_, symObjAddr: 0x3E538, symBinAddr: 0xB4204, symSize: 0x5C }
  - { offset: 0x49F82A, size: 0x8, addend: 0x0, symName: __ZNSt3__111make_uniqueB8ne200100I14llm_build_phi3ILb1EEJRK11llama_modelRK16llm_graph_paramsELi0EEENS_10unique_ptrIT_NS_14default_deleteISA_EEEEDpOT0_, symObjAddr: 0x3D67C, symBinAddr: 0xB3348, symSize: 0x5C }
  - { offset: 0x49F8D0, size: 0x8, addend: 0x0, symName: __ZNSt3__111make_uniqueB8ne200100I15llm_build_mambaJRK11llama_modelRK16llm_graph_paramsELi0EEENS_10unique_ptrIT_NS_14default_deleteIS9_EEEEDpOT0_, symObjAddr: 0x3DCF4, symBinAddr: 0xB39C0, symSize: 0x5C }
  - { offset: 0x49F976, size: 0x8, addend: 0x0, symName: __ZNSt3__111make_uniqueB8ne200100I14llm_build_lfm2JRK11llama_modelRK16llm_graph_paramsELi0EEENS_10unique_ptrIT_NS_14default_deleteIS9_EEEEDpOT0_, symObjAddr: 0x3EE90, symBinAddr: 0xB4B5C, symSize: 0x5C }
  - { offset: 0x49FA1C, size: 0x8, addend: 0x0, symName: __ZNSt3__111make_uniqueB8ne200100I20llm_build_mimo2_iswaJRK11llama_modelRK16llm_graph_paramsELi0EEENS_10unique_ptrIT_NS_14default_deleteIS9_EEEEDpOT0_, symObjAddr: 0x3F228, symBinAddr: 0xB4EF4, symSize: 0x5C }
  - { offset: 0x49FAC2, size: 0x8, addend: 0x0, symName: __ZNSt3__111make_uniqueB8ne200100I14llm_build_rnd1JRK11llama_modelRK16llm_graph_paramsELi0EEENS_10unique_ptrIT_NS_14default_deleteIS9_EEEEDpOT0_, symObjAddr: 0x3D39C, symBinAddr: 0xB3068, symSize: 0x5C }
  - { offset: 0x49FB68, size: 0x8, addend: 0x0, symName: __ZNSt3__111make_uniqueB8ne200100I16llm_build_cogvlmJRK11llama_modelRK16llm_graph_paramsELi0EEENS_10unique_ptrIT_NS_14default_deleteIS9_EEEEDpOT0_, symObjAddr: 0x3F0B8, symBinAddr: 0xB4D84, symSize: 0x5C }
  - { offset: 0x49FC0E, size: 0x8, addend: 0x0, symName: __ZNSt3__111make_uniqueB8ne200100I17llm_build_smollm3JRK11llama_modelRK16llm_graph_paramsELi0EEENS_10unique_ptrIT_NS_14default_deleteIS9_EEEEDpOT0_, symObjAddr: 0x3ED7C, symBinAddr: 0xB4A48, symSize: 0x5C }
  - { offset: 0x49FCB4, size: 0x8, addend: 0x0, symName: __ZNSt3__111make_uniqueB8ne200100I15llm_build_afmoeJRK11llama_modelRK16llm_graph_paramsELi0EEENS_10unique_ptrIT_NS_14default_deleteIS9_EEEEDpOT0_, symObjAddr: 0x3EBB0, symBinAddr: 0xB487C, symSize: 0x5C }
  - { offset: 0x49FD5A, size: 0x8, addend: 0x0, symName: __ZNSt3__111make_uniqueB8ne200100I16llm_build_bitnetJRK11llama_modelRK16llm_graph_paramsELi0EEENS_10unique_ptrIT_NS_14default_deleteIS9_EEEEDpOT0_, symObjAddr: 0x3E36C, symBinAddr: 0xB4038, symSize: 0x5C }
  - { offset: 0x49FE00, size: 0x8, addend: 0x0, symName: __ZNSt3__111make_uniqueB8ne200100I20llm_build_exaone_moeJRK11llama_modelRK16llm_graph_paramsELi0EEENS_10unique_ptrIT_NS_14default_deleteIS9_EEEEDpOT0_, symObjAddr: 0x3E6A8, symBinAddr: 0xB4374, symSize: 0x5C }
  - { offset: 0x49FEA6, size: 0x8, addend: 0x0, symName: __ZNSt3__111make_uniqueB8ne200100I24llm_build_granite_hybridJRK11llama_modelRK16llm_graph_paramsELi0EEENS_10unique_ptrIT_NS_14default_deleteIS9_EEEEDpOT0_, symObjAddr: 0x3E874, symBinAddr: 0xB4540, symSize: 0x5C }
  - { offset: 0x49FF4C, size: 0x8, addend: 0x0, symName: __ZNSt3__111make_uniqueB8ne200100I18llm_build_grovemoeJRK11llama_modelRK16llm_graph_paramsELi0EEENS_10unique_ptrIT_NS_14default_deleteIS9_EEEEDpOT0_, symObjAddr: 0x3EFA4, symBinAddr: 0xB4C70, symSize: 0x5C }
  - { offset: 0x49FFF2, size: 0x8, addend: 0x0, symName: __ZNSt3__111make_uniqueB8ne200100I14llm_build_jaisJRK11llama_modelRK16llm_graph_paramsELi0EEENS_10unique_ptrIT_NS_14default_deleteIS9_EEEEDpOT0_, symObjAddr: 0x3E480, symBinAddr: 0xB414C, symSize: 0x5C }
  - { offset: 0x4A0098, size: 0x8, addend: 0x0, symName: __ZNSt3__111make_uniqueB8ne200100I18llm_build_mistral3JRK11llama_modelRK16llm_graph_paramsELi0EEENS_10unique_ptrIT_NS_14default_deleteIS9_EEEEDpOT0_, symObjAddr: 0x3F1CC, symBinAddr: 0xB4E98, symSize: 0x5C }
  - { offset: 0x4A013E, size: 0x8, addend: 0x0, symName: __ZNSt3__111make_uniqueB8ne200100I24llm_build_pangu_embeddedJRK11llama_modelRK16llm_graph_paramsELi0EEENS_10unique_ptrIT_NS_14default_deleteIS9_EEEEDpOT0_, symObjAddr: 0x3F114, symBinAddr: 0xB4DE0, symSize: 0x5C }
  - { offset: 0x4A01E4, size: 0x8, addend: 0x0, symName: __ZNSt3__111make_uniqueB8ne200100I15llm_build_olmoeJRK11llama_modelRK16llm_graph_paramsELi0EEENS_10unique_ptrIT_NS_14default_deleteIS9_EEEEDpOT0_, symObjAddr: 0x3E030, symBinAddr: 0xB3CFC, symSize: 0x5C }
  - { offset: 0x4A028A, size: 0x8, addend: 0x0, symName: __ZNSt3__111make_uniqueB8ne200100I16llm_build_arcticJRK11llama_modelRK16llm_graph_paramsELi0EEENS_10unique_ptrIT_NS_14default_deleteIS9_EEEEDpOT0_, symObjAddr: 0x3E144, symBinAddr: 0xB3E10, symSize: 0x5C }
  - { offset: 0x4A0330, size: 0x8, addend: 0x0, symName: __ZNSt3__111make_uniqueB8ne200100I14llm_build_glm4JRK11llama_modelRK16llm_graph_paramsELi0EEENS_10unique_ptrIT_NS_14default_deleteIS9_EEEEDpOT0_, symObjAddr: 0x3E2B4, symBinAddr: 0xB3F80, symSize: 0x5C }
  - { offset: 0x4A03D6, size: 0x8, addend: 0x0, symName: __ZNSt3__111make_uniqueB8ne200100I26llm_build_wavtokenizer_decJRK11llama_modelRK16llm_graph_paramsELi0EEENS_10unique_ptrIT_NS_14default_deleteIS9_EEEEDpOT0_, symObjAddr: 0x3E92C, symBinAddr: 0xB45F8, symSize: 0x5C }
  - { offset: 0x4A047C, size: 0x8, addend: 0x0, symName: __ZNSt3__111make_uniqueB8ne200100I17llm_build_chatglmJRK11llama_modelRK16llm_graph_paramsELi0EEENS_10unique_ptrIT_NS_14default_deleteIS9_EEEEDpOT0_, symObjAddr: 0x3E258, symBinAddr: 0xB3F24, symSize: 0x5C }
  - { offset: 0x4A0522, size: 0x8, addend: 0x0, symName: __ZNSt3__111make_uniqueB8ne200100I22llm_build_gemma3n_iswaJRK11llama_modelRK16llm_graph_paramsELi0EEENS_10unique_ptrIT_NS_14default_deleteIS9_EEEEDpOT0_, symObjAddr: 0x3DBE0, symBinAddr: 0xB38AC, symSize: 0x5C }
  - { offset: 0x4A05C8, size: 0x8, addend: 0x0, symName: __ZNSt3__111make_uniqueB8ne200100I19llm_build_chameleonJRK11llama_modelRK16llm_graph_paramsELi0EEENS_10unique_ptrIT_NS_14default_deleteIS9_EEEEDpOT0_, symObjAddr: 0x3E8D0, symBinAddr: 0xB459C, symSize: 0x5C }
  - { offset: 0x4A066E, size: 0x8, addend: 0x0, symName: __ZNSt3__111make_uniqueB8ne200100I15llm_build_gemmaJRK11llama_modelRK16llm_graph_paramsELi0EEENS_10unique_ptrIT_NS_14default_deleteIS9_EEEEDpOT0_, symObjAddr: 0x3DA70, symBinAddr: 0xB373C, symSize: 0x5C }
  - { offset: 0x4A0714, size: 0x8, addend: 0x0, symName: __ZNSt3__111make_uniqueB8ne200100I18llm_build_deepseekJRK11llama_modelRK16llm_graph_paramsELi0EEENS_10unique_ptrIT_NS_14default_deleteIS9_EEEEDpOT0_, symObjAddr: 0x3E1A0, symBinAddr: 0xB3E6C, symSize: 0x5C }
  - { offset: 0x4A07BA, size: 0x8, addend: 0x0, symName: __ZNSt3__111make_uniqueB8ne200100I18llm_build_glm4_moeJRK11llama_modelRK16llm_graph_paramsELi0EEENS_10unique_ptrIT_NS_14default_deleteIS9_EEEEDpOT0_, symObjAddr: 0x3E310, symBinAddr: 0xB3FDC, symSize: 0x5C }
  - { offset: 0x4A0860, size: 0x8, addend: 0x0, symName: __ZNSt3__111make_uniqueB8ne200100I19llm_build_deepseek2JRK11llama_modelRK16llm_graph_paramsELi0EEENS_10unique_ptrIT_NS_14default_deleteIS9_EEEEDpOT0_, symObjAddr: 0x3E1FC, symBinAddr: 0xB3EC8, symSize: 0x5C }
  - { offset: 0x4A0906, size: 0x8, addend: 0x0, symName: __ZNSt3__111make_uniqueB8ne200100I15llm_build_rwkv6JRK11llama_modelRK16llm_graph_paramsELi0EEENS_10unique_ptrIT_NS_14default_deleteIS9_EEEEDpOT0_, symObjAddr: 0x3E704, symBinAddr: 0xB43D0, symSize: 0x5C }
  - { offset: 0x4A09AC, size: 0x8, addend: 0x0, symName: __ZNSt3__111make_uniqueB8ne200100I17llm_build_qwen2vlJRK11llama_modelRK16llm_graph_paramsELi0EEENS_10unique_ptrIT_NS_14default_deleteIS9_EEEEDpOT0_, symObjAddr: 0x3D3F8, symBinAddr: 0xB30C4, symSize: 0x5C }
  - { offset: 0x4A0A52, size: 0x8, addend: 0x0, symName: __ZNSt3__111make_uniqueB8ne200100I23llm_build_hunyuan_denseJRK11llama_modelRK16llm_graph_paramsELi0EEENS_10unique_ptrIT_NS_14default_deleteIS9_EEEEDpOT0_, symObjAddr: 0x3ED20, symBinAddr: 0xB49EC, symSize: 0x5C }
  - { offset: 0x4A0AF8, size: 0x8, addend: 0x0, symName: __ZNSt3__111make_uniqueB8ne200100I15llm_build_olmo2ILb1EEJRK11llama_modelRK16llm_graph_paramsELi0EEENS_10unique_ptrIT_NS_14default_deleteISA_EEEEDpOT0_, symObjAddr: 0x3DF78, symBinAddr: 0xB3C44, symSize: 0x5C }
  - { offset: 0x4A0B9E, size: 0x8, addend: 0x0, symName: __ZNSt3__111make_uniqueB8ne200100I22llm_build_smallthinkerILb1EEJRK11llama_modelRK16llm_graph_paramsELi0EEENS_10unique_ptrIT_NS_14default_deleteISA_EEEEDpOT0_, symObjAddr: 0x3EEEC, symBinAddr: 0xB4BB8, symSize: 0x5C }
  - { offset: 0x4A0C44, size: 0x8, addend: 0x0, symName: __ZNSt3__111make_uniqueB8ne200100I17llm_build_openelmJRK11llama_modelRK16llm_graph_paramsELi0EEENS_10unique_ptrIT_NS_14default_deleteIS9_EEEEDpOT0_, symObjAddr: 0x3E08C, symBinAddr: 0xB3D58, symSize: 0x5C }
  - { offset: 0x4A0CEA, size: 0x8, addend: 0x0, symName: __ZNSt3__111make_uniqueB8ne200100I25llm_build_openai_moe_iswaJRK11llama_modelRK16llm_graph_paramsELi0EEENS_10unique_ptrIT_NS_14default_deleteIS9_EEEEDpOT0_, symObjAddr: 0x3EDD8, symBinAddr: 0xB4AA4, symSize: 0x5C }
  - { offset: 0x4A0D90, size: 0x8, addend: 0x0, symName: __ZNSt3__111make_uniqueB8ne200100I19llm_build_codeshellJRK11llama_modelRK16llm_graph_paramsELi0EEENS_10unique_ptrIT_NS_14default_deleteIS9_EEEEDpOT0_, symObjAddr: 0x3D900, symBinAddr: 0xB35CC, symSize: 0x5C }
  - { offset: 0x4A0E36, size: 0x8, addend: 0x0, symName: __ZNSt3__111make_uniqueB8ne200100I16llm_build_plamo3ILb1EEJRK11llama_modelRK16llm_graph_paramsELi0EEENS_10unique_ptrIT_NS_14default_deleteISA_EEEEDpOT0_, symObjAddr: 0x3D7EC, symBinAddr: 0xB34B8, symSize: 0x5C }
  - { offset: 0x4A0EDC, size: 0x8, addend: 0x0, symName: __ZNSt3__111make_uniqueB8ne200100I15llm_build_orionJRK11llama_modelRK16llm_graph_paramsELi0EEENS_10unique_ptrIT_NS_14default_deleteIS9_EEEEDpOT0_, symObjAddr: 0x3D95C, symBinAddr: 0xB3628, symSize: 0x5C }
  - { offset: 0x4A0F82, size: 0x8, addend: 0x0, symName: __ZNSt3__111make_uniqueB8ne200100I14llm_build_qwenJRK11llama_modelRK16llm_graph_paramsELi0EEENS_10unique_ptrIT_NS_14default_deleteIS9_EEEEDpOT0_, symObjAddr: 0x3D1D0, symBinAddr: 0xB2E9C, symSize: 0x5C }
  - { offset: 0x4A1028, size: 0x8, addend: 0x0, symName: __ZNSt3__111make_uniqueB8ne200100I19llm_build_internlm2JRK11llama_modelRK16llm_graph_paramsELi0EEENS_10unique_ptrIT_NS_14default_deleteIS9_EEEEDpOT0_, symObjAddr: 0x3D9B8, symBinAddr: 0xB3684, symSize: 0x5C }
  - { offset: 0x4A10CE, size: 0x8, addend: 0x0, symName: __ZNSt3__111make_uniqueB8ne200100I22llm_build_cohere2_iswaJRK11llama_modelRK16llm_graph_paramsELi0EEENS_10unique_ptrIT_NS_14default_deleteIS9_EEEEDpOT0_, symObjAddr: 0x3DE64, symBinAddr: 0xB3B30, symSize: 0x5C }
  - { offset: 0x4A1174, size: 0x8, addend: 0x0, symName: __ZNSt3__111make_uniqueB8ne200100I21llm_build_bailingmoe2JRK11llama_modelRK16llm_graph_paramsELi0EEENS_10unique_ptrIT_NS_14default_deleteIS9_EEEEDpOT0_, symObjAddr: 0x3EA40, symBinAddr: 0xB470C, symSize: 0x5C }
  - { offset: 0x4A121A, size: 0x8, addend: 0x0, symName: __ZNSt3__111make_uniqueB8ne200100I15llm_build_dots1JRK11llama_modelRK16llm_graph_paramsELi0EEENS_10unique_ptrIT_NS_14default_deleteIS9_EEEEDpOT0_, symObjAddr: 0x3EAF8, symBinAddr: 0xB47C4, symSize: 0x5C }
  - { offset: 0x4A12C0, size: 0x8, addend: 0x0, symName: __ZNSt3__111make_uniqueB8ne200100I19llm_build_starcoderJRK11llama_modelRK16llm_graph_paramsELi0EEENS_10unique_ptrIT_NS_14default_deleteIS9_EEEEDpOT0_, symObjAddr: 0x3CF4C, symBinAddr: 0xB2C18, symSize: 0x5C }
  - { offset: 0x4A1366, size: 0x8, addend: 0x0, symName: __ZNSt3__111make_uniqueB8ne200100I16llm_build_plamo2JRK11llama_modelRK16llm_graph_paramsELi0EEENS_10unique_ptrIT_NS_14default_deleteIS9_EEEEDpOT0_, symObjAddr: 0x3D790, symBinAddr: 0xB345C, symSize: 0x5C }
  - { offset: 0x4A140C, size: 0x8, addend: 0x0, symName: __ZNSt3__111make_uniqueB8ne200100I18llm_build_stablelmJRK11llama_modelRK16llm_graph_paramsELi0EEENS_10unique_ptrIT_NS_14default_deleteIS9_EEEEDpOT0_, symObjAddr: 0x3D174, symBinAddr: 0xB2E40, symSize: 0x5C }
  - { offset: 0x4A14B2, size: 0x8, addend: 0x0, symName: __ZNSt3__111make_uniqueB8ne200100I16llm_build_refactJRK11llama_modelRK16llm_graph_paramsELi0EEENS_10unique_ptrIT_NS_14default_deleteIS9_EEEEDpOT0_, symObjAddr: 0x3CFA8, symBinAddr: 0xB2C74, symSize: 0x5C }
  - { offset: 0x4A1558, size: 0x8, addend: 0x0, symName: __ZNSt3__111make_uniqueB8ne200100I14llm_build_gpt2JRK11llama_modelRK16llm_graph_paramsELi0EEENS_10unique_ptrIT_NS_14default_deleteIS9_EEEEDpOT0_, symObjAddr: 0x3D8A4, symBinAddr: 0xB3570, symSize: 0x5C }
  - { offset: 0x4A15FE, size: 0x8, addend: 0x0, symName: __ZNSt3__111make_uniqueB8ne200100I13llm_build_mptJRK11llama_modelRK16llm_graph_paramsELi0EEENS_10unique_ptrIT_NS_14default_deleteIS9_EEEEDpOT0_, symObjAddr: 0x3D118, symBinAddr: 0xB2DE4, symSize: 0x5C }
  - { offset: 0x4A16A4, size: 0x8, addend: 0x0, symName: __ZNSt3__111make_uniqueB8ne200100I14llm_build_deciJRK11llama_modelRK16llm_graph_paramsELi0EEENS_10unique_ptrIT_NS_14default_deleteIS9_EEEEDpOT0_, symObjAddr: 0x3CDDC, symBinAddr: 0xB2AA8, symSize: 0x5C }
  - { offset: 0x4A174A, size: 0x8, addend: 0x0, symName: __ZNSt3__111make_uniqueB8ne200100I16llm_build_falconJRK11llama_modelRK16llm_graph_paramsELi0EEENS_10unique_ptrIT_NS_14default_deleteIS9_EEEEDpOT0_, symObjAddr: 0x3CE94, symBinAddr: 0xB2B60, symSize: 0x5C }
  - { offset: 0x4A17F0, size: 0x8, addend: 0x0, symName: __ZNSt3__111make_uniqueB8ne200100I14llm_build_dbrxJRK11llama_modelRK16llm_graph_paramsELi0EEENS_10unique_ptrIT_NS_14default_deleteIS9_EEEEDpOT0_, symObjAddr: 0x3DEC0, symBinAddr: 0xB3B8C, symSize: 0x5C }
  - { offset: 0x4A1896, size: 0x8, addend: 0x0, symName: __ZNSt3__111make_uniqueB8ne200100I18llm_build_neo_bertJRK11llama_modelRK16llm_graph_paramsELi0EEENS_10unique_ptrIT_NS_14default_deleteIS9_EEEEDpOT0_, symObjAddr: 0x3D060, symBinAddr: 0xB2D2C, symSize: 0x5C }
  - { offset: 0x4A193C, size: 0x8, addend: 0x0, symName: __ZNSt3__111make_uniqueB8ne200100I20llm_build_llama_iswaJRK11llama_modelRK16llm_graph_paramsELi0EEENS_10unique_ptrIT_NS_14default_deleteIS9_EEEEDpOT0_, symObjAddr: 0x3CCC8, symBinAddr: 0xB2994, symSize: 0x5C }
  - { offset: 0x4A19E2, size: 0x8, addend: 0x0, symName: __ZNSt3__111make_uniqueB8ne200100I15llm_build_llamaILb0EEJRK11llama_modelRK16llm_graph_paramsELi0EEENS_10unique_ptrIT_NS_14default_deleteISA_EEEEDpOT0_, symObjAddr: 0x3CC6C, symBinAddr: 0xB2938, symSize: 0x5C }
  - { offset: 0x4A1A88, size: 0x8, addend: 0x0, symName: __ZNSt3__111make_uniqueB8ne200100I15llm_build_qwen2JRK11llama_modelRK16llm_graph_paramsELi0EEENS_10unique_ptrIT_NS_14default_deleteIS9_EEEEDpOT0_, symObjAddr: 0x3D22C, symBinAddr: 0xB2EF8, symSize: 0x5C }
  - { offset: 0x4A1B2E, size: 0x8, addend: 0x0, symName: __ZNSt3__111make_uniqueB8ne200100I25llm_build_gemma_embeddingJRK11llama_modelRK16llm_graph_paramsELi0EEENS_10unique_ptrIT_NS_14default_deleteIS9_EEEEDpOT0_, symObjAddr: 0x3DC3C, symBinAddr: 0xB3908, symSize: 0x5C }
  - { offset: 0x4A1BD4, size: 0x8, addend: 0x0, symName: __ZNSt3__111make_uniqueB8ne200100I21llm_build_modern_bertJRK11llama_modelRK16llm_graph_paramsELi0EEENS_10unique_ptrIT_NS_14default_deleteIS9_EEEEDpOT0_, symObjAddr: 0x3D004, symBinAddr: 0xB2CD0, symSize: 0x5C }
  - { offset: 0x4A1C7A, size: 0x8, addend: 0x0, symName: __ZNSt3__111make_uniqueB8ne200100I18llm_build_baichuanJRK11llama_modelRK16llm_graph_paramsELi0EEENS_10unique_ptrIT_NS_14default_deleteIS9_EEEEDpOT0_, symObjAddr: 0x3CE38, symBinAddr: 0xB2B04, symSize: 0x5C }
  - { offset: 0x4A1D20, size: 0x8, addend: 0x0, symName: __ZNSt3__111make_uniqueB8ne200100I19llm_build_qwen3nextJRK11llama_modelRK16llm_graph_paramsELi0EEENS_10unique_ptrIT_NS_14default_deleteIS9_EEEEDpOT0_, symObjAddr: 0x3F170, symBinAddr: 0xB4E3C, symSize: 0x5C }
  - { offset: 0x4A1DC6, size: 0x8, addend: 0x0, symName: __ZNSt3__111make_uniqueB8ne200100I21llm_build_gemma2_iswaJRK11llama_modelRK16llm_graph_paramsELi0EEENS_10unique_ptrIT_NS_14default_deleteIS9_EEEEDpOT0_, symObjAddr: 0x3DACC, symBinAddr: 0xB3798, symSize: 0x5C }
  - { offset: 0x4A1E6C, size: 0x8, addend: 0x0, symName: __ZNSt3__111make_uniqueB8ne200100I17llm_build_gptneoxJRK11llama_modelRK16llm_graph_paramsELi0EEENS_10unique_ptrIT_NS_14default_deleteIS9_EEEEDpOT0_, symObjAddr: 0x3E0E8, symBinAddr: 0xB3DB4, symSize: 0x5C }
  - { offset: 0x4A1F12, size: 0x8, addend: 0x0, symName: __ZNSt3__111make_uniqueB8ne200100I14llm_build_grokJRK11llama_modelRK16llm_graph_paramsELi0EEENS_10unique_ptrIT_NS_14default_deleteIS9_EEEEDpOT0_, symObjAddr: 0x3CEF0, symBinAddr: 0xB2BBC, symSize: 0x5C }
  - { offset: 0x4A1FB8, size: 0x8, addend: 0x0, symName: __ZNSt3__111make_uniqueB8ne200100I20llm_build_qwen3vlmoeJRK11llama_modelRK16llm_graph_paramsELi0EEENS_10unique_ptrIT_NS_14default_deleteIS9_EEEEDpOT0_, symObjAddr: 0x3D5C4, symBinAddr: 0xB3290, symSize: 0x5C }
  - { offset: 0x4A205E, size: 0x8, addend: 0x0, symName: __ZNSt3__111make_uniqueB8ne200100I16llm_build_xverseJRK11llama_modelRK16llm_graph_paramsELi0EEENS_10unique_ptrIT_NS_14default_deleteIS9_EEEEDpOT0_, symObjAddr: 0x3DDAC, symBinAddr: 0xB3A78, symSize: 0x5C }
  - { offset: 0x4A2104, size: 0x8, addend: 0x0, symName: __ZNSt3__111make_uniqueB8ne200100I14llm_build_phi2JRK11llama_modelRK16llm_graph_paramsELi0EEENS_10unique_ptrIT_NS_14default_deleteIS9_EEEEDpOT0_, symObjAddr: 0x3D620, symBinAddr: 0xB32EC, symSize: 0x5C }
  - { offset: 0x4A21AA, size: 0x8, addend: 0x0, symName: __ZNSt3__111make_uniqueB8ne200100I15llm_build_plamoJRK11llama_modelRK16llm_graph_paramsELi0EEENS_10unique_ptrIT_NS_14default_deleteIS9_EEEEDpOT0_, symObjAddr: 0x3D734, symBinAddr: 0xB3400, symSize: 0x5C }
  - { offset: 0x4A2250, size: 0x8, addend: 0x0, symName: __ZNSt3__111make_uniqueB8ne200100I19llm_build_falcon_h1JRK11llama_modelRK16llm_graph_paramsELi0EEENS_10unique_ptrIT_NS_14default_deleteIS9_EEEEDpOT0_, symObjAddr: 0x3EE34, symBinAddr: 0xB4B00, symSize: 0x5C }
  - { offset: 0x4A22F6, size: 0x8, addend: 0x0, symName: __ZNSt3__111make_uniqueB8ne200100I19llm_build_maincoderJRK11llama_modelRK16llm_graph_paramsELi0EEENS_10unique_ptrIT_NS_14default_deleteIS9_EEEEDpOT0_, symObjAddr: 0x3CD80, symBinAddr: 0xB2A4C, symSize: 0x5C }
  - { offset: 0x4A239C, size: 0x8, addend: 0x0, symName: __ZNSt3__111make_uniqueB8ne200100I15llm_build_bloomJRK11llama_modelRK16llm_graph_paramsELi0EEENS_10unique_ptrIT_NS_14default_deleteIS9_EEEEDpOT0_, symObjAddr: 0x3D0BC, symBinAddr: 0xB2D88, symSize: 0x5C }
  - { offset: 0x4A2442, size: 0x8, addend: 0x0, symName: __ZNSt3__111make_uniqueB8ne200100I15llm_build_jambaJRK11llama_modelRK16llm_graph_paramsELi0EEENS_10unique_ptrIT_NS_14default_deleteIS9_EEEEDpOT0_, symObjAddr: 0x3DD50, symBinAddr: 0xB3A1C, symSize: 0x5C }
  - { offset: 0x4A24E8, size: 0x8, addend: 0x0, symName: __ZNSt3__111make_uniqueB8ne200100I16llm_build_exaoneJRK11llama_modelRK16llm_graph_paramsELi0EEENS_10unique_ptrIT_NS_14default_deleteIS9_EEEEDpOT0_, symObjAddr: 0x3E594, symBinAddr: 0xB4260, symSize: 0x5C }
  - { offset: 0x4A258E, size: 0x8, addend: 0x0, symName: __ZNSt3__111make_uniqueB8ne200100I15llm_build_qwen3JRK11llama_modelRK16llm_graph_paramsELi0EEENS_10unique_ptrIT_NS_14default_deleteIS9_EEEEDpOT0_, symObjAddr: 0x3D4B0, symBinAddr: 0xB317C, symSize: 0x5C }
  - { offset: 0x4A2634, size: 0x8, addend: 0x0, symName: __ZNSt3__111make_uniqueB8ne200100I18llm_build_qwen2moeJRK11llama_modelRK16llm_graph_paramsELi0EEENS_10unique_ptrIT_NS_14default_deleteIS9_EEEEDpOT0_, symObjAddr: 0x3D454, symBinAddr: 0xB3120, symSize: 0x5C }
  - { offset: 0x4A26DA, size: 0x8, addend: 0x0, symName: __ZNSt3__111make_uniqueB8ne200100I17llm_build_qwen3vlJRK11llama_modelRK16llm_graph_paramsELi0EEENS_10unique_ptrIT_NS_14default_deleteIS9_EEEEDpOT0_, symObjAddr: 0x3D568, symBinAddr: 0xB3234, symSize: 0x5C }
  - { offset: 0x4A2780, size: 0x8, addend: 0x0, symName: __ZNSt3__111make_uniqueB8ne200100I17llm_build_exaone4ILb1EEJRK11llama_modelRK16llm_graph_paramsELi0EEENS_10unique_ptrIT_NS_14default_deleteISA_EEEEDpOT0_, symObjAddr: 0x3E5F0, symBinAddr: 0xB42BC, symSize: 0x5C }
  - { offset: 0x4A2826, size: 0x8, addend: 0x0, symName: __ZNSt3__111make_uniqueB8ne200100I18llm_build_qwen3moeJRK11llama_modelRK16llm_graph_paramsELi0EEENS_10unique_ptrIT_NS_14default_deleteIS9_EEEEDpOT0_, symObjAddr: 0x3D50C, symBinAddr: 0xB31D8, symSize: 0x5C }
  - { offset: 0x4A28CC, size: 0x8, addend: 0x0, symName: __ZNSt3__111make_uniqueB8ne200100I15llm_build_rwkv7JRK11llama_modelRK16llm_graph_paramsELi0EEENS_10unique_ptrIT_NS_14default_deleteIS9_EEEEDpOT0_, symObjAddr: 0x3E7BC, symBinAddr: 0xB4488, symSize: 0x5C }
  - { offset: 0x4A2972, size: 0x8, addend: 0x0, symName: __ZNSt3__111make_uniqueB8ne200100I20llm_build_starcoder2JRK11llama_modelRK16llm_graph_paramsELi0EEENS_10unique_ptrIT_NS_14default_deleteIS9_EEEEDpOT0_, symObjAddr: 0x3DC98, symBinAddr: 0xB3964, symSize: 0x5C }
  - { offset: 0x4A2A18, size: 0x8, addend: 0x0, symName: __ZNSt3__111make_uniqueB8ne200100I15llm_build_arceeJRK11llama_modelRK16llm_graph_paramsELi0EEENS_10unique_ptrIT_NS_14default_deleteIS9_EEEEDpOT0_, symObjAddr: 0x3EB54, symBinAddr: 0xB4820, symSize: 0x5C }
  - { offset: 0x4A2ABE, size: 0x8, addend: 0x0, symName: __ZNSt3__111make_uniqueB8ne200100I16llm_build_t5_decJRK11llama_modelRK16llm_graph_paramsELi0EEENS_10unique_ptrIT_NS_14default_deleteIS9_EEEEDpOT0_, symObjAddr: 0x3E424, symBinAddr: 0xB40F0, symSize: 0x5C }
  - { offset: 0x4A2B64, size: 0x8, addend: 0x0, symName: __ZNSt3__111make_uniqueB8ne200100I20llm_build_minimax_m2JRK11llama_modelRK16llm_graph_paramsELi0EEENS_10unique_ptrIT_NS_14default_deleteIS9_EEEEDpOT0_, symObjAddr: 0x3F05C, symBinAddr: 0xB4D28, symSize: 0x5C }
  - { offset: 0x4A2C0A, size: 0x8, addend: 0x0, symName: __ZNSt3__111make_uniqueB8ne200100I17llm_build_apertusJRK11llama_modelRK16llm_graph_paramsELi0EEENS_10unique_ptrIT_NS_14default_deleteIS9_EEEEDpOT0_, symObjAddr: 0x3F000, symBinAddr: 0xB4CCC, symSize: 0x5C }
  - { offset: 0x4A2CB0, size: 0x8, addend: 0x0, symName: __ZNSt3__111make_uniqueB8ne200100I16llm_build_gemma3ILb1EEJRK11llama_modelRK16llm_graph_paramsELi0EEENS_10unique_ptrIT_NS_14default_deleteISA_EEEEDpOT0_, symObjAddr: 0x3DB28, symBinAddr: 0xB37F4, symSize: 0x5C }
  - { offset: 0x4A2D56, size: 0x8, addend: 0x0, symName: __ZNSt3__111make_uniqueB8ne200100I18llm_build_seed_ossJRK11llama_modelRK16llm_graph_paramsELi0EEENS_10unique_ptrIT_NS_14default_deleteIS9_EEEEDpOT0_, symObjAddr: 0x3EA9C, symBinAddr: 0xB4768, symSize: 0x5C }
  - { offset: 0x4A2DFC, size: 0x8, addend: 0x0, symName: __ZNSt3__111make_uniqueB8ne200100I19llm_build_command_rJRK11llama_modelRK16llm_graph_paramsELi0EEENS_10unique_ptrIT_NS_14default_deleteIS9_EEEEDpOT0_, symObjAddr: 0x3DE08, symBinAddr: 0xB3AD4, symSize: 0x5C }
  - { offset: 0x4A2EA2, size: 0x8, addend: 0x0, symName: __ZNSt3__111make_uniqueB8ne200100I18llm_build_minicpm3JRK11llama_modelRK16llm_graph_paramsELi0EEENS_10unique_ptrIT_NS_14default_deleteIS9_EEEEDpOT0_, symObjAddr: 0x3DA14, symBinAddr: 0xB36E0, symSize: 0x5C }
  - { offset: 0x4A2F48, size: 0x8, addend: 0x0, symName: __ZNSt3__111make_uniqueB8ne200100I18llm_build_nemotronJRK11llama_modelRK16llm_graph_paramsELi0EEENS_10unique_ptrIT_NS_14default_deleteIS9_EEEEDpOT0_, symObjAddr: 0x3E4DC, symBinAddr: 0xB41A8, symSize: 0x5C }
  - { offset: 0x4A2FEE, size: 0x8, addend: 0x0, symName: __ZNSt3__111make_uniqueB8ne200100I19llm_build_llada_moeJRK11llama_modelRK16llm_graph_paramsELi0EEENS_10unique_ptrIT_NS_14default_deleteIS9_EEEEDpOT0_, symObjAddr: 0x3D340, symBinAddr: 0xB300C, symSize: 0x5C }
  - { offset: 0x4A3094, size: 0x8, addend: 0x0, symName: __ZNSt3__111make_uniqueB8ne200100I14llm_build_olmoJRK11llama_modelRK16llm_graph_paramsELi0EEENS_10unique_ptrIT_NS_14default_deleteIS9_EEEEDpOT0_, symObjAddr: 0x3DF1C, symBinAddr: 0xB3BE8, symSize: 0x5C }
  - { offset: 0x4A313A, size: 0x8, addend: 0x0, symName: __ZNSt3__111make_uniqueB8ne200100I22llm_build_ernie4_5_moeJRK11llama_modelRK16llm_graph_paramsELi0EEENS_10unique_ptrIT_NS_14default_deleteIS9_EEEEDpOT0_, symObjAddr: 0x3EC68, symBinAddr: 0xB4934, symSize: 0x5C }
  - { offset: 0x4A31E0, size: 0x8, addend: 0x0, symName: __ZNSt3__111make_uniqueB8ne200100I18llm_build_ernie4_5JRK11llama_modelRK16llm_graph_paramsELi0EEENS_10unique_ptrIT_NS_14default_deleteIS9_EEEEDpOT0_, symObjAddr: 0x3EC0C, symBinAddr: 0xB48D8, symSize: 0x5C }
  - { offset: 0x4A3286, size: 0x8, addend: 0x0, symName: __ZNSt3__111make_uniqueB8ne200100I20llm_build_bailingmoeJRK11llama_modelRK16llm_graph_paramsELi0EEENS_10unique_ptrIT_NS_14default_deleteIS9_EEEEDpOT0_, symObjAddr: 0x3E9E4, symBinAddr: 0xB46B0, symSize: 0x5C }
  - { offset: 0x4A332C, size: 0x8, addend: 0x0, symName: __ZNSt3__111make_uniqueB8ne200100I13llm_build_plmJRK11llama_modelRK16llm_graph_paramsELi0EEENS_10unique_ptrIT_NS_14default_deleteIS9_EEEEDpOT0_, symObjAddr: 0x3E988, symBinAddr: 0xB4654, symSize: 0x5C }
  - { offset: 0x4A33D2, size: 0x8, addend: 0x0, symName: __ZNSt3__111make_uniqueB8ne200100I15llm_build_dreamJRK11llama_modelRK16llm_graph_paramsELi0EEENS_10unique_ptrIT_NS_14default_deleteIS9_EEEEDpOT0_, symObjAddr: 0x3D288, symBinAddr: 0xB2F54, symSize: 0x5C }
  - { offset: 0x4A3478, size: 0x8, addend: 0x0, symName: __ZNSt3__111make_uniqueB8ne200100I16llm_build_arwkv7JRK11llama_modelRK16llm_graph_paramsELi0EEENS_10unique_ptrIT_NS_14default_deleteIS9_EEEEDpOT0_, symObjAddr: 0x3E818, symBinAddr: 0xB44E4, symSize: 0x5C }
  - { offset: 0x4A351E, size: 0x8, addend: 0x0, symName: __ZNSt3__111make_uniqueB8ne200100I20llm_build_rwkv6qwen2JRK11llama_modelRK16llm_graph_paramsELi0EEENS_10unique_ptrIT_NS_14default_deleteIS9_EEEEDpOT0_, symObjAddr: 0x3E760, symBinAddr: 0xB442C, symSize: 0x5C }
  - { offset: 0x4A35C4, size: 0x8, addend: 0x0, symName: __ZNSt3__111make_uniqueB8ne200100I15llm_build_lladaJRK11llama_modelRK16llm_graph_paramsELi0EEENS_10unique_ptrIT_NS_14default_deleteIS9_EEEEDpOT0_, symObjAddr: 0x3D2E4, symBinAddr: 0xB2FB0, symSize: 0x5C }
  - { offset: 0x4A366A, size: 0x8, addend: 0x0, symName: __ZNSt3__111make_uniqueB8ne200100I21llm_build_hunyuan_moeJRK11llama_modelRK16llm_graph_paramsELi0EEENS_10unique_ptrIT_NS_14default_deleteIS9_EEEEDpOT0_, symObjAddr: 0x3ECC4, symBinAddr: 0xB4990, symSize: 0x5C }
  - { offset: 0x4A3710, size: 0x8, addend: 0x0, symName: __ZNSt3__111make_uniqueB8ne200100I15llm_build_llamaILb1EEJRK11llama_modelRK16llm_graph_paramsELi0EEENS_10unique_ptrIT_NS_14default_deleteISA_EEEEDpOT0_, symObjAddr: 0x3CD24, symBinAddr: 0xB29F0, symSize: 0x5C }
  - { offset: 0x4A37B6, size: 0x8, addend: 0x0, symName: __ZNSt3__111make_uniqueB8ne200100I14llm_build_phi3ILb0EEJRK11llama_modelRK16llm_graph_paramsELi0EEENS_10unique_ptrIT_NS_14default_deleteISA_EEEEDpOT0_, symObjAddr: 0x3D6D8, symBinAddr: 0xB33A4, symSize: 0x5C }
  - { offset: 0x4A385C, size: 0x8, addend: 0x0, symName: __ZNSt3__111make_uniqueB8ne200100I15llm_build_olmo2ILb0EEJRK11llama_modelRK16llm_graph_paramsELi0EEENS_10unique_ptrIT_NS_14default_deleteISA_EEEEDpOT0_, symObjAddr: 0x3DFD4, symBinAddr: 0xB3CA0, symSize: 0x5C }
  - { offset: 0x4A3902, size: 0x8, addend: 0x0, symName: __ZNSt3__111make_uniqueB8ne200100I22llm_build_smallthinkerILb0EEJRK11llama_modelRK16llm_graph_paramsELi0EEENS_10unique_ptrIT_NS_14default_deleteISA_EEEEDpOT0_, symObjAddr: 0x3EF48, symBinAddr: 0xB4C14, symSize: 0x5C }
  - { offset: 0x4A39A8, size: 0x8, addend: 0x0, symName: __ZNSt3__111make_uniqueB8ne200100I17llm_build_exaone4ILb0EEJRK11llama_modelRK16llm_graph_paramsELi0EEENS_10unique_ptrIT_NS_14default_deleteISA_EEEEDpOT0_, symObjAddr: 0x3E64C, symBinAddr: 0xB4318, symSize: 0x5C }
  - { offset: 0x4A3A4E, size: 0x8, addend: 0x0, symName: __ZNSt3__111make_uniqueB8ne200100I16llm_build_gemma3ILb0EEJRK11llama_modelRK16llm_graph_paramsELi0EEENS_10unique_ptrIT_NS_14default_deleteISA_EEEEDpOT0_, symObjAddr: 0x3DB84, symBinAddr: 0xB3850, symSize: 0x5C }
  - { offset: 0x4A3AF4, size: 0x8, addend: 0x0, symName: __ZNSt3__111make_uniqueB8ne200100I16llm_build_plamo3ILb0EEJRK11llama_modelRK16llm_graph_paramsELi0EEENS_10unique_ptrIT_NS_14default_deleteISA_EEEEDpOT0_, symObjAddr: 0x3D848, symBinAddr: 0xB3514, symSize: 0x5C }
  - { offset: 0x4A3B9A, size: 0x8, addend: 0x0, symName: __ZNSt3__111make_uniqueB8ne200100I16llm_build_t5_encJRK11llama_modelRK16llm_graph_paramsELi0EEENS_10unique_ptrIT_NS_14default_deleteIS9_EEEEDpOT0_, symObjAddr: 0x3E3C8, symBinAddr: 0xB4094, symSize: 0x5C }
  - { offset: 0x4B3B5A, size: 0x8, addend: 0x0, symName: __ZN11llama_model12load_tensorsER18llama_model_loader, symObjAddr: 0x5A38, symBinAddr: 0x7B704, symSize: 0x332BC }
  - { offset: 0x5447B2, size: 0x8, addend: 0x0, symName: __ZNK11llama_model10print_infoEv, symObjAddr: 0x3A184, symBinAddr: 0xAFE50, symSize: 0x1274 }
  - { offset: 0x547AD0, size: 0x8, addend: 0x0, symName: __ZNK11llama_model13create_memoryERK19llama_memory_paramsRK13llama_cparams, symObjAddr: 0x3BB54, symBinAddr: 0xB1820, symSize: 0x5A0 }
  - { offset: 0x5504C1, size: 0x8, addend: 0x0, symName: __Z13llm_type_name8llm_type, symObjAddr: 0x0, symBinAddr: 0x75D4C, symSize: 0x28 }
  - { offset: 0x550563, size: 0x8, addend: 0x0, symName: __ZNSt3__13mapI23llama_rope_scaling_typePKcNS_4lessIS1_EENS_9allocatorINS_4pairIKS1_S3_EEEEED1B8ne200100Ev, symObjAddr: 0x28, symBinAddr: 0x75D74, symSize: 0x28 }
  - { offset: 0x550617, size: 0x8, addend: 0x0, symName: __ZNSt3__16__treeINS_12__value_typeI23llama_rope_scaling_typePKcEENS_19__map_value_compareIS2_S5_NS_4lessIS2_EELb1EEENS_9allocatorIS5_EEE7destroyEPNS_11__tree_nodeIS5_PvEE, symObjAddr: 0x4BD30, symBinAddr: 0xB9904, symSize: 0x44 }
  - { offset: 0x550A1E, size: 0x8, addend: 0x0, symName: __Z28llama_rope_scaling_type_name23llama_rope_scaling_type, symObjAddr: 0x50, symBinAddr: 0x75D9C, symSize: 0xE0 }
  - { offset: 0x550D40, size: 0x8, addend: 0x0, symName: __ZN11llama_modelC2ERK18llama_model_params, symObjAddr: 0x130, symBinAddr: 0x75E7C, symSize: 0x2EC }
  - { offset: 0x551298, size: 0x8, addend: 0x0, symName: __ZN11llama_modelC2ERK18llama_model_params, symObjAddr: 0x130, symBinAddr: 0x75E7C, symSize: 0x2EC }
  - { offset: 0x55195B, size: 0x8, addend: 0x0, symName: __ZNSt3__113unordered_setIP18llama_adapter_loraNS_4hashIS2_EENS_8equal_toIS2_EENS_9allocatorIS2_EEED1B8ne200100Ev, symObjAddr: 0x41C, symBinAddr: 0x76168, symSize: 0x48 }
  - { offset: 0x551BEE, size: 0x8, addend: 0x0, symName: __ZNSt3__16vectorINS_4pairINS_12basic_stringIcNS_11char_traitsIcEENS_9allocatorIcEEEEP11ggml_tensorEENS5_ISA_EEED1B8ne200100Ev, symObjAddr: 0x464, symBinAddr: 0x761B0, symSize: 0x70 }
  - { offset: 0x551E7A, size: 0x8, addend: 0x0, symName: __ZNSt3__113unordered_mapINS_12basic_stringIcNS_11char_traitsIcEENS_9allocatorIcEEEES6_NS_4hashIS6_EENS_8equal_toIS6_EENS4_INS_4pairIKS6_S6_EEEEED1B8ne200100Ev, symObjAddr: 0x4D4, symBinAddr: 0x76220, symSize: 0x84 }
  - { offset: 0x552C03, size: 0x8, addend: 0x0, symName: __ZN11llama_modelC1ERK18llama_model_params, symObjAddr: 0x5C8, symBinAddr: 0x762A4, symSize: 0x4 }
  - { offset: 0x552C40, size: 0x8, addend: 0x0, symName: __ZN11llama_modelC1ERK18llama_model_params, symObjAddr: 0x5C8, symBinAddr: 0x762A4, symSize: 0x4 }
  - { offset: 0x552D7F, size: 0x8, addend: 0x0, symName: __ZN11llama_modelD2Ev, symObjAddr: 0x5CC, symBinAddr: 0x762A8, symSize: 0x1C4 }
  - { offset: 0x553EAA, size: 0x8, addend: 0x0, symName: __ZN11llama_model4implD2Ev, symObjAddr: 0x4BD74, symBinAddr: 0xB9948, symSize: 0x16C }
  - { offset: 0x555295, size: 0x8, addend: 0x0, symName: __ZN11llama_modelD1Ev, symObjAddr: 0x7A0, symBinAddr: 0x7646C, symSize: 0x4 }
  - { offset: 0x5552B8, size: 0x8, addend: 0x0, symName: __ZN11llama_modelD1Ev, symObjAddr: 0x7A0, symBinAddr: 0x7646C, symSize: 0x4 }
  - { offset: 0x5552E7, size: 0x8, addend: 0x0, symName: __ZN11llama_model10load_statsER18llama_model_loader, symObjAddr: 0x7A4, symBinAddr: 0x76470, symSize: 0x10 }
  - { offset: 0x55531F, size: 0x8, addend: 0x0, symName: __ZN11llama_model10load_statsER18llama_model_loader, symObjAddr: 0x7A4, symBinAddr: 0x76470, symSize: 0x10 }
  - { offset: 0x555390, size: 0x8, addend: 0x0, symName: __ZN11llama_model9load_archER18llama_model_loader, symObjAddr: 0x7B4, symBinAddr: 0x76480, symSize: 0x174 }
  - { offset: 0x555A63, size: 0x8, addend: 0x0, symName: __ZN11llama_model12load_hparamsER18llama_model_loader, symObjAddr: 0x928, symBinAddr: 0x765F4, symSize: 0x4EB8 }
  - { offset: 0x5584F2, size: 0x8, addend: 0x0, symName: _llama_model_rope_type, symObjAddr: 0x5930, symBinAddr: 0x7B5FC, symSize: 0xBC }
  - { offset: 0x558520, size: 0x8, addend: 0x0, symName: __ZN11llama_model10load_vocabER18llama_model_loader, symObjAddr: 0x59EC, symBinAddr: 0x7B6B8, symSize: 0x4C }
  - { offset: 0x558548, size: 0x8, addend: 0x0, symName: __ZNK11llama_model9arch_nameEv, symObjAddr: 0x57E0, symBinAddr: 0x7B4AC, symSize: 0xA8 }
  - { offset: 0x5587B1, size: 0x8, addend: 0x0, symName: __ZNK11llama_model9type_nameEv, symObjAddr: 0x5888, symBinAddr: 0x7B554, symSize: 0xA8 }
  - { offset: 0x5587BC, size: 0x8, addend: 0x0, symName: __ZNK11llama_model9type_nameEv, symObjAddr: 0x5888, symBinAddr: 0x7B554, symSize: 0xA8 }
  - { offset: 0x558A25, size: 0x8, addend: 0x0, symName: _llama_model_rope_type, symObjAddr: 0x5930, symBinAddr: 0x7B5FC, symSize: 0xBC }
  - { offset: 0x558A30, size: 0x8, addend: 0x0, symName: __ZN11llama_model10load_vocabER18llama_model_loader, symObjAddr: 0x59EC, symBinAddr: 0x7B6B8, symSize: 0x4C }
  - { offset: 0x55C160, size: 0x8, addend: 0x0, symName: __ZNSt3__16vectorINS_4pairIP19ggml_backend_deviceP24ggml_backend_buffer_typeEENS_9allocatorIS6_EEE18__insert_with_sizeB8ne200100INS_11__wrap_iterIPS6_EESD_EESD_NSB_IPKS6_EET_T0_l, symObjAddr: 0x4CCFC, symBinAddr: 0xB9BAC, symSize: 0x510 }
  - { offset: 0x55CCCA, size: 0x8, addend: 0x0, symName: __ZNSt3__16vectorIN11llama_model4impl9layer_devENS_9allocatorIS3_EEE8__appendEm, symObjAddr: 0x4D220, symBinAddr: 0xBA0BC, symSize: 0x120 }
  - { offset: 0x55D0A8, size: 0x8, addend: 0x0, symName: __ZNSt3__16vectorIN11llama_model4impl9layer_devENS_9allocatorIS3_EEE20__throw_length_errorB8ne200100Ev, symObjAddr: 0x4D340, symBinAddr: 0xBA1DC, symSize: 0x14 }
  - { offset: 0x55D0C4, size: 0x8, addend: 0x0, symName: '__ZZN11llama_model12load_tensorsER18llama_model_loaderENK3$_1clEi', symObjAddr: 0x38D28, symBinAddr: 0xAE9F4, symSize: 0x1B8 }
  - { offset: 0x55D40B, size: 0x8, addend: 0x0, symName: __ZNSt3__16vectorI11llama_layerNS_9allocatorIS1_EEE6resizeEm, symObjAddr: 0x38EE0, symBinAddr: 0xAEBAC, symSize: 0x44 }
  - { offset: 0x55D423, size: 0x8, addend: 0x0, symName: __ZNSt3__16vectorI11llama_layerNS_9allocatorIS1_EEE8__appendEm, symObjAddr: 0x4D3BC, symBinAddr: 0xBA258, symSize: 0x1AC }
  - { offset: 0x55D838, size: 0x8, addend: 0x0, symName: __ZNSt3__16vectorI11llama_layerNS_9allocatorIS1_EEE20__throw_length_errorB8ne200100Ev, symObjAddr: 0x4D568, symBinAddr: 0xBA404, symSize: 0x14 }
  - { offset: 0x55D876, size: 0x8, addend: 0x0, symName: '__ZZN11llama_model12load_tensorsER18llama_model_loaderENK3$_3clERK11LLM_TN_IMPLRKSt16initializer_listIxEi', symObjAddr: 0x38F24, symBinAddr: 0xAEBF0, symSize: 0xB0C }
  - { offset: 0x55FA24, size: 0x8, addend: 0x0, symName: __ZNSt3__16vectorI11llama_layerNS_9allocatorIS1_EEE6resizeEm, symObjAddr: 0x38EE0, symBinAddr: 0xAEBAC, symSize: 0x44 }
  - { offset: 0x55FA58, size: 0x8, addend: 0x0, symName: __ZNSt3__16vectorI11llama_layerNS_9allocatorIS1_EEE6resizeEm, symObjAddr: 0x38EE0, symBinAddr: 0xAEBAC, symSize: 0x44 }
  - { offset: 0x55FAEE, size: 0x8, addend: 0x0, symName: __ZNSt3__16vectorINS_4pairIP12ggml_contextNS_13unordered_mapIjP19ggml_backend_bufferNS_4hashIjEENS_8equal_toIjEENS_9allocatorINS1_IKjS6_EEEEEEEENSB_ISG_EEE7reserveEm, symObjAddr: 0x39A30, symBinAddr: 0xAF6FC, symSize: 0x108 }
  - { offset: 0x5600B7, size: 0x8, addend: 0x0, symName: __ZNSt3__114__split_bufferINS_4pairINS_10unique_ptrI12ggml_context20ggml_context_deleterEENS_6vectorINS2_I19ggml_backend_buffer27ggml_backend_buffer_deleterEENS_9allocatorIS9_EEEEEERNSA_ISD_EEE17__destruct_at_endB8ne200100EPSD_, symObjAddr: 0x4D774, symBinAddr: 0xBA5FC, symSize: 0xB4 }
  - { offset: 0x5603EB, size: 0x8, addend: 0x0, symName: __ZNSt3__112__hash_tableINS_17__hash_value_typeIjP19ggml_backend_bufferEENS_22__unordered_map_hasherIjS4_NS_4hashIjEENS_8equal_toIjEELb1EEENS_21__unordered_map_equalIjS4_S9_S7_Lb1EEENS_9allocatorIS4_EEE11__do_rehashILb1EEEvm, symObjAddr: 0x4D870, symBinAddr: 0xBA6F8, symSize: 0x180 }
  - { offset: 0x5607B7, size: 0x8, addend: 0x0, symName: __ZNSt3__112__hash_tableINS_17__hash_value_typeIjP19ggml_backend_bufferEENS_22__unordered_map_hasherIjS4_NS_4hashIjEENS_8equal_toIjEELb1EEENS_21__unordered_map_equalIjS4_S9_S7_Lb1EEENS_9allocatorIS4_EEE25__emplace_unique_key_argsIjJRjRS3_EEENS_4pairINS_15__hash_iteratorIPNS_11__hash_nodeIS4_PvEEEEbEERKT_DpOT0_, symObjAddr: 0x4DA04, symBinAddr: 0xBA878, symSize: 0x300 }
  - { offset: 0x560FBC, size: 0x8, addend: 0x0, symName: __ZNSt3__16vectorINS_4pairINS_10unique_ptrI12ggml_context20ggml_context_deleterEENS0_INS2_I19ggml_backend_buffer27ggml_backend_buffer_deleterEENS_9allocatorIS8_EEEEEENS9_ISC_EEE24__emplace_back_slow_pathIJS5_SB_EEEPSC_DpOT_, symObjAddr: 0x4DD18, symBinAddr: 0xBAB78, symSize: 0x11C }
  - { offset: 0x56149A, size: 0x8, addend: 0x0, symName: __ZNSt3__16vectorINS_4pairIP12ggml_contextNS_13unordered_mapIjP19ggml_backend_bufferNS_4hashIjEENS_8equal_toIjEENS_9allocatorINS1_IKjS6_EEEEEEEENSB_ISG_EEE24__emplace_back_slow_pathIJRS3_RSF_EEEPSG_DpOT_, symObjAddr: 0x4DE34, symBinAddr: 0xBAC94, symSize: 0x170 }
  - { offset: 0x5614C7, size: 0x8, addend: 0x0, symName: __ZNSt3__113unordered_mapIjP19ggml_backend_bufferNS_4hashIjEENS_8equal_toIjEENS_9allocatorINS_4pairIKjS2_EEEEEC2ERKSC_, symObjAddr: 0x4DFA4, symBinAddr: 0xBAE04, symSize: 0x140 }
  - { offset: 0x56185F, size: 0x8, addend: 0x0, symName: __ZNSt3__16vectorINS_4pairIP12ggml_contextNS_13unordered_mapIjP19ggml_backend_bufferNS_4hashIjEENS_8equal_toIjEENS_9allocatorINS1_IKjS6_EEEEEEEENSB_ISG_EEE24__emplace_back_slow_pathIJRS3_RSF_EEEPSG_DpOT_, symObjAddr: 0x4DE34, symBinAddr: 0xBAC94, symSize: 0x170 }
  - { offset: 0x561FBB, size: 0x8, addend: 0x0, symName: __ZNSt3__16__treeINS_12__value_typeIP24ggml_backend_buffer_typeNS_10unique_ptrI12ggml_context20ggml_context_deleterEEEENS_19__map_value_compareIS3_S8_ZN11llama_model12load_tensorsER18llama_model_loaderE28ggml_backend_buft_comparatorLb1EEENS_9allocatorIS8_EEE7destroyEPNS_11__tree_nodeIS8_PvEE, symObjAddr: 0x4D354, symBinAddr: 0xBA1F0, symSize: 0x54 }
  - { offset: 0x5621A3, size: 0x8, addend: 0x0, symName: __ZNSt3__16vectorINS_4pairINS_12basic_stringIcNS_11char_traitsIcEENS_9allocatorIcEEEEP11ggml_tensorEENS5_ISA_EEE20__throw_length_errorB8ne200100Ev, symObjAddr: 0x4E448, symBinAddr: 0xBB2A8, symSize: 0x14 }
  - { offset: 0x5621D8, size: 0x8, addend: 0x0, symName: __ZNSt3__16vectorINS_4pairIP19ggml_backend_deviceP24ggml_backend_buffer_typeEENS_9allocatorIS6_EEE20__throw_length_errorB8ne200100Ev, symObjAddr: 0x3FAA4, symBinAddr: 0xB5548, symSize: 0x14 }
  - { offset: 0x562205, size: 0x8, addend: 0x0, symName: __ZNSt3__112__hash_tableINS_17__hash_value_typeIjP19ggml_backend_bufferEENS_22__unordered_map_hasherIjS4_NS_4hashIjEENS_8equal_toIjEELb1EEENS_21__unordered_map_equalIjS4_S9_S7_Lb1EEENS_9allocatorIS4_EEE25__emplace_unique_key_argsIjJRjRS3_EEENS_4pairINS_15__hash_iteratorIPNS_11__hash_nodeIS4_PvEEEEbEERKT_DpOT0_, symObjAddr: 0x4DA04, symBinAddr: 0xBA878, symSize: 0x300 }
  - { offset: 0x56221A, size: 0x8, addend: 0x0, symName: __ZNSt3__16vectorINS_4pairIP12ggml_contextNS_13unordered_mapIjP19ggml_backend_bufferNS_4hashIjEENS_8equal_toIjEENS_9allocatorINS1_IKjS6_EEEEEEEENSB_ISG_EEE20__throw_length_errorB8ne200100Ev, symObjAddr: 0x4D590, symBinAddr: 0xBA418, symSize: 0x14 }
  - { offset: 0x56222F, size: 0x8, addend: 0x0, symName: __ZNSt3__16vectorINS_4pairINS_10unique_ptrI12ggml_context20ggml_context_deleterEENS0_INS2_I19ggml_backend_buffer27ggml_backend_buffer_deleterEENS_9allocatorIS8_EEEEEENS9_ISC_EEE24__emplace_back_slow_pathIJS5_SB_EEEPSC_DpOT_, symObjAddr: 0x4DD18, symBinAddr: 0xBAB78, symSize: 0x11C }
  - { offset: 0x56223A, size: 0x8, addend: 0x0, symName: __ZNSt3__16vectorINS_4pairINS_10unique_ptrI12ggml_context20ggml_context_deleterEENS0_INS2_I19ggml_backend_buffer27ggml_backend_buffer_deleterEENS_9allocatorIS8_EEEEEENS9_ISC_EEE20__throw_length_errorB8ne200100Ev, symObjAddr: 0x4D760, symBinAddr: 0xBA5E8, symSize: 0x14 }
  - { offset: 0x562252, size: 0x8, addend: 0x0, symName: __ZNSt3__114__split_bufferINS_4pairINS_10unique_ptrI12ggml_context20ggml_context_deleterEENS_6vectorINS2_I19ggml_backend_buffer27ggml_backend_buffer_deleterEENS_9allocatorIS9_EEEEEERNSA_ISD_EEE17__destruct_at_endB8ne200100EPSD_, symObjAddr: 0x4D774, symBinAddr: 0xBA5FC, symSize: 0xB4 }
  - { offset: 0x562267, size: 0x8, addend: 0x0, symName: __ZNSt3__16vectorIN11llama_model4impl9layer_devENS_9allocatorIS3_EEE8__appendEm, symObjAddr: 0x4D220, symBinAddr: 0xBA0BC, symSize: 0x120 }
  - { offset: 0x562272, size: 0x8, addend: 0x0, symName: __ZNSt3__16vectorINS_10unique_ptrI19ggml_backend_buffer27ggml_backend_buffer_deleterEENS_9allocatorIS4_EEED1B8ne200100Ev, symObjAddr: 0x39B38, symBinAddr: 0xAF804, symSize: 0x70 }
  - { offset: 0x562460, size: 0x8, addend: 0x0, symName: __ZNSt3__113unordered_mapIjP19ggml_backend_bufferNS_4hashIjEENS_8equal_toIjEENS_9allocatorINS_4pairIKjS2_EEEEED1B8ne200100Ev, symObjAddr: 0x39BA8, symBinAddr: 0xAF874, symSize: 0x48 }
  - { offset: 0x5626F4, size: 0x8, addend: 0x0, symName: __ZNSt3__114__split_bufferINS_4pairINS_12basic_stringIcNS_11char_traitsIcEENS_9allocatorIcEEEEP11ggml_tensorEERNS5_ISA_EEED1Ev, symObjAddr: 0x4E3E4, symBinAddr: 0xBB244, symSize: 0x64 }
  - { offset: 0x562927, size: 0x8, addend: 0x0, symName: __ZNSt3__16vectorINS_4pairIP12ggml_contextNS_13unordered_mapIjP19ggml_backend_bufferNS_4hashIjEENS_8equal_toIjEENS_9allocatorINS1_IKjS6_EEEEEEEENSB_ISG_EEED1B8ne200100Ev, symObjAddr: 0x39BF0, symBinAddr: 0xAF8BC, symSize: 0x88 }
  - { offset: 0x562D75, size: 0x8, addend: 0x0, symName: __ZNK11llama_model12n_gpu_layersEv, symObjAddr: 0x38CF4, symBinAddr: 0xAE9C0, symSize: 0x20 }
  - { offset: 0x562D97, size: 0x8, addend: 0x0, symName: __ZNK11llama_model9n_devicesEv, symObjAddr: 0x38D14, symBinAddr: 0xAE9E0, symSize: 0x14 }
  - { offset: 0x562DBB, size: 0x8, addend: 0x0, symName: __ZNK11llama_model9n_devicesEv, symObjAddr: 0x38D14, symBinAddr: 0xAE9E0, symSize: 0x14 }
  - { offset: 0x562EE2, size: 0x8, addend: 0x0, symName: __ZNSt3__16vectorIP19ggml_backend_deviceNS_9allocatorIS2_EEE20__throw_out_of_rangeB8ne200100Ev, symObjAddr: 0x3FB54, symBinAddr: 0xB555C, symSize: 0x14 }
  - { offset: 0x562EFA, size: 0x8, addend: 0x0, symName: __ZL18select_weight_buftRK13llama_hparamsP11ggml_tensor7ggml_opRKNSt3__16vectorINS5_4pairIP19ggml_backend_deviceP24ggml_backend_buffer_typeEENS5_9allocatorISC_EEEE, symObjAddr: 0x3FB68, symBinAddr: 0xB5570, symSize: 0x6C8 }
  - { offset: 0x563828, size: 0x8, addend: 0x0, symName: __ZNSt3__111basic_regexIcNS_12regex_traitsIcEEEC2B8ne200100EPKcNS_15regex_constants18syntax_option_typeE, symObjAddr: 0x40294, symBinAddr: 0xB5C38, symSize: 0xC8 }
  - { offset: 0x563DC7, size: 0x8, addend: 0x0, symName: __ZL18select_weight_buftRK13llama_hparamsP11ggml_tensor7ggml_opRKNSt3__16vectorINS5_4pairIP19ggml_backend_deviceP24ggml_backend_buffer_typeEENS5_9allocatorISC_EEEE, symObjAddr: 0x3FB68, symBinAddr: 0xB5570, symSize: 0x6C8 }
  - { offset: 0x56496E, size: 0x8, addend: 0x0, symName: __ZNSt3__16vectorIN11llama_model4impl9layer_devENS_9allocatorIS3_EEE20__throw_out_of_rangeB8ne200100Ev, symObjAddr: 0x4D3A8, symBinAddr: 0xBA244, symSize: 0x14 }
  - { offset: 0x564986, size: 0x8, addend: 0x0, symName: __ZNSt3__16vectorI11llama_layerNS_9allocatorIS1_EEE8__appendEm, symObjAddr: 0x4D3BC, symBinAddr: 0xBA258, symSize: 0x1AC }
  - { offset: 0x564B98, size: 0x8, addend: 0x0, symName: __ZNSt3__16vectorINS_4pairIP12ggml_contextNS_13unordered_mapIjP19ggml_backend_bufferNS_4hashIjEENS_8equal_toIjEENS_9allocatorINS1_IKjS6_EEEEEEEENSB_ISG_EEE26__swap_out_circular_bufferERNS_14__split_bufferISG_RSH_EE, symObjAddr: 0x4D5A4, symBinAddr: 0xBA42C, symSize: 0x140 }
  - { offset: 0x5651BC, size: 0x8, addend: 0x0, symName: __ZNSt3__16vectorINS_4pairIP12ggml_contextNS_13unordered_mapIjP19ggml_backend_bufferNS_4hashIjEENS_8equal_toIjEENS_9allocatorINS1_IKjS6_EEEEEEEENSB_ISG_EEE20__throw_length_errorB8ne200100Ev, symObjAddr: 0x4D590, symBinAddr: 0xBA418, symSize: 0x14 }
  - { offset: 0x5651D4, size: 0x8, addend: 0x0, symName: __ZNSt3__16vectorINS_4pairIP12ggml_contextNS_13unordered_mapIjP19ggml_backend_bufferNS_4hashIjEENS_8equal_toIjEENS_9allocatorINS1_IKjS6_EEEEEEEENSB_ISG_EEE26__swap_out_circular_bufferERNS_14__split_bufferISG_RSH_EE, symObjAddr: 0x4D5A4, symBinAddr: 0xBA42C, symSize: 0x140 }
  - { offset: 0x5651DF, size: 0x8, addend: 0x0, symName: __ZNSt3__114__split_bufferINS_4pairIP12ggml_contextNS_13unordered_mapIjP19ggml_backend_bufferNS_4hashIjEENS_8equal_toIjEENS_9allocatorINS1_IKjS6_EEEEEEEERNSB_ISG_EEED1Ev, symObjAddr: 0x4D6E4, symBinAddr: 0xBA56C, symSize: 0x7C }
  - { offset: 0x565645, size: 0x8, addend: 0x0, symName: __ZNK11llama_model4descEv, symObjAddr: 0x39C78, symBinAddr: 0xAF944, symSize: 0x2C }
  - { offset: 0x565669, size: 0x8, addend: 0x0, symName: __ZNK11llama_model4descEv, symObjAddr: 0x39C78, symBinAddr: 0xAF944, symSize: 0x2C }
  - { offset: 0x5657FF, size: 0x8, addend: 0x0, symName: __ZNSt3__16vectorINS_4pairIP19ggml_backend_deviceP24ggml_backend_buffer_typeEENS_9allocatorIS6_EEE18__insert_with_sizeB8ne200100INS_11__wrap_iterIPS6_EESD_EESD_NSB_IPKS6_EET_T0_l, symObjAddr: 0x4CCFC, symBinAddr: 0xB9BAC, symSize: 0x510 }
  - { offset: 0x56580A, size: 0x8, addend: 0x0, symName: __ZNK11llama_model4sizeEv, symObjAddr: 0x39CA4, symBinAddr: 0xAF970, symSize: 0xC }
  - { offset: 0x56582E, size: 0x8, addend: 0x0, symName: __ZNK11llama_model4sizeEv, symObjAddr: 0x39CA4, symBinAddr: 0xAF970, symSize: 0xC }
  - { offset: 0x56584D, size: 0x8, addend: 0x0, symName: __ZNK11llama_model9n_tensorsEv, symObjAddr: 0x39CB0, symBinAddr: 0xAF97C, symSize: 0x14 }
  - { offset: 0x565879, size: 0x8, addend: 0x0, symName: __ZNK11llama_model9n_tensorsEv, symObjAddr: 0x39CB0, symBinAddr: 0xAF97C, symSize: 0x14 }
  - { offset: 0x565898, size: 0x8, addend: 0x0, symName: __ZNK11llama_model10split_modeEv, symObjAddr: 0x39CC4, symBinAddr: 0xAF990, symSize: 0xC }
  - { offset: 0x5661CE, size: 0x8, addend: 0x0, symName: __ZNK11llama_model16memory_breakdownEv, symObjAddr: 0x39CD0, symBinAddr: 0xAF99C, symSize: 0x4A8 }
  - { offset: 0x566EDB, size: 0x8, addend: 0x0, symName: __ZNK11llama_model10n_elementsEv, symObjAddr: 0x3A178, symBinAddr: 0xAFE44, symSize: 0xC }
  - { offset: 0x566EFF, size: 0x8, addend: 0x0, symName: __ZNK11llama_model10n_elementsEv, symObjAddr: 0x3A178, symBinAddr: 0xAFE44, symSize: 0xC }
  - { offset: 0x567BDD, size: 0x8, addend: 0x0, symName: '__ZZNK11llama_model10print_infoEvENK3$_6clERKNSt3__18functionIFjjEEEj', symObjAddr: 0x3B3F8, symBinAddr: 0xB10C4, symSize: 0x2B8 }
  - { offset: 0x568B7D, size: 0x8, addend: 0x0, symName: __ZNK11llama_model9dev_layerEi, symObjAddr: 0x3B6B0, symBinAddr: 0xB137C, symSize: 0x30 }
  - { offset: 0x568BB9, size: 0x8, addend: 0x0, symName: __ZNK11llama_model9dev_layerEi, symObjAddr: 0x3B6B0, symBinAddr: 0xB137C, symSize: 0x30 }
  - { offset: 0x568C1A, size: 0x8, addend: 0x0, symName: __ZNK11llama_model10dev_outputEv, symObjAddr: 0x3B6E0, symBinAddr: 0xB13AC, symSize: 0xC }
  - { offset: 0x568C25, size: 0x8, addend: 0x0, symName: __ZNK11llama_model10dev_outputEv, symObjAddr: 0x3B6E0, symBinAddr: 0xB13AC, symSize: 0xC }
  - { offset: 0x568C51, size: 0x8, addend: 0x0, symName: __ZNK11llama_model10dev_outputEv, symObjAddr: 0x3B6E0, symBinAddr: 0xB13AC, symSize: 0xC }
  - { offset: 0x568CEC, size: 0x8, addend: 0x0, symName: __ZNK11llama_model11select_buftEi, symObjAddr: 0x3B6EC, symBinAddr: 0xB13B8, symSize: 0x2D4 }
  - { offset: 0x569661, size: 0x8, addend: 0x0, symName: __ZNK11llama_model20has_tensor_overridesEv, symObjAddr: 0x3B9C0, symBinAddr: 0xB168C, symSize: 0xC }
  - { offset: 0x56968D, size: 0x8, addend: 0x0, symName: __ZNK11llama_model20has_tensor_overridesEv, symObjAddr: 0x3B9C0, symBinAddr: 0xB168C, symSize: 0xC }
  - { offset: 0x5696D8, size: 0x8, addend: 0x0, symName: __ZNK11llama_model10get_tensorEPKc, symObjAddr: 0x3B9CC, symBinAddr: 0xB1698, symSize: 0xC0 }
  - { offset: 0x569996, size: 0x8, addend: 0x0, symName: __ZNK11llama_model18get_rope_freq_baseERK13llama_cparamsi, symObjAddr: 0x3BA8C, symBinAddr: 0xB1758, symSize: 0x44 }
  - { offset: 0x5699E0, size: 0x8, addend: 0x0, symName: __ZNK11llama_model19get_rope_freq_scaleERK13llama_cparamsi, symObjAddr: 0x3BAD0, symBinAddr: 0xB179C, symSize: 0x44 }
  - { offset: 0x569A4C, size: 0x8, addend: 0x0, symName: __ZNK11llama_model16get_rope_factorsERK13llama_cparamsi, symObjAddr: 0x3BB14, symBinAddr: 0xB17E0, symSize: 0x40 }
  - { offset: 0x569AA4, size: 0x8, addend: 0x0, symName: __ZNK11llama_model16get_rope_factorsERK13llama_cparamsi, symObjAddr: 0x3BB14, symBinAddr: 0xB17E0, symSize: 0x40 }
  - { offset: 0x569CFB, size: 0x8, addend: 0x0, symName: '__ZNSt3__18functionIFbiEEaSIZNK11llama_model13create_memoryERK19llama_memory_paramsRK13llama_cparamsE3$_2vEERS2_OT_', symObjAddr: 0x3C22C, symBinAddr: 0xB1EF8, symSize: 0x9C }
  - { offset: 0x569EE7, size: 0x8, addend: 0x0, symName: '__ZNSt3__18functionIFbiEEaSIZNK11llama_model13create_memoryERK19llama_memory_paramsRK13llama_cparamsE3$_3vEERS2_OT_', symObjAddr: 0x3C2C8, symBinAddr: 0xB1F94, symSize: 0x9C }
  - { offset: 0x56A0D3, size: 0x8, addend: 0x0, symName: '__ZNSt3__18functionIFiiEEaSIZNK11llama_model13create_memoryERK19llama_memory_paramsRK13llama_cparamsE3$_4vEERS2_OT_', symObjAddr: 0x3C364, symBinAddr: 0xB2030, symSize: 0x9C }
  - { offset: 0x56A2BF, size: 0x8, addend: 0x0, symName: '__ZNSt3__18functionIFbiEEaSIZNK11llama_model13create_memoryERK19llama_memory_paramsRK13llama_cparamsE3$_0vEERS2_OT_', symObjAddr: 0x3C0F4, symBinAddr: 0xB1DC0, symSize: 0x9C }
  - { offset: 0x56A49D, size: 0x8, addend: 0x0, symName: '__ZNSt3__18functionIFbiEEaSIZNK11llama_model13create_memoryERK19llama_memory_paramsRK13llama_cparamsE3$_1vEERS2_OT_', symObjAddr: 0x3C190, symBinAddr: 0xB1E5C, symSize: 0x9C }
  - { offset: 0x56A869, size: 0x8, addend: 0x0, symName: __ZNSt3__110__function12__value_funcIFbiEE4swapB8ne200100ERS3_, symObjAddr: 0x4EA6C, symBinAddr: 0xBB888, symSize: 0x198 }
  - { offset: 0x56B0E9, size: 0x8, addend: 0x0, symName: __ZNSt3__110__function12__value_funcIFiiEE4swapB8ne200100ERS3_, symObjAddr: 0x4F004, symBinAddr: 0xBBE20, symSize: 0x198 }
  - { offset: 0x56B313, size: 0x8, addend: 0x0, symName: __ZNK11llama_model11build_graphERK16llm_graph_params, symObjAddr: 0x3C400, symBinAddr: 0xB20CC, symSize: 0x86C }
  - { offset: 0x56E9F4, size: 0x8, addend: 0x0, symName: _llama_model_default_params, symObjAddr: 0x3F284, symBinAddr: 0xB4F50, symSize: 0x2C }
  - { offset: 0x56EA20, size: 0x8, addend: 0x0, symName: _llama_model_get_vocab, symObjAddr: 0x3F2B0, symBinAddr: 0xB4F7C, symSize: 0xC }
  - { offset: 0x56EA80, size: 0x8, addend: 0x0, symName: _llama_free_model, symObjAddr: 0x3F2BC, symBinAddr: 0xB4F88, symSize: 0x1C }
  - { offset: 0x56EAA8, size: 0x8, addend: 0x0, symName: _llama_free_model, symObjAddr: 0x3F2BC, symBinAddr: 0xB4F88, symSize: 0x1C }
  - { offset: 0x56EAEE, size: 0x8, addend: 0x0, symName: _llama_model_free, symObjAddr: 0x3F2D8, symBinAddr: 0xB4FA4, symSize: 0x1C }
  - { offset: 0x56EB35, size: 0x8, addend: 0x0, symName: _llama_model_n_ctx_train, symObjAddr: 0x3F2F4, symBinAddr: 0xB4FC0, symSize: 0x8 }
  - { offset: 0x56EB53, size: 0x8, addend: 0x0, symName: _llama_model_n_embd, symObjAddr: 0x3F2FC, symBinAddr: 0xB4FC8, symSize: 0x8 }
  - { offset: 0x56EB71, size: 0x8, addend: 0x0, symName: _llama_model_n_embd_inp, symObjAddr: 0x3F304, symBinAddr: 0xB4FD0, symSize: 0x8 }
  - { offset: 0x56EB9D, size: 0x8, addend: 0x0, symName: _llama_model_n_embd_out, symObjAddr: 0x3F30C, symBinAddr: 0xB4FD8, symSize: 0x8 }
  - { offset: 0x56EBC9, size: 0x8, addend: 0x0, symName: _llama_model_n_layer, symObjAddr: 0x3F314, symBinAddr: 0xB4FE0, symSize: 0x8 }
  - { offset: 0x56EBE7, size: 0x8, addend: 0x0, symName: _llama_model_n_head, symObjAddr: 0x3F31C, symBinAddr: 0xB4FE8, symSize: 0xC }
  - { offset: 0x56EC05, size: 0x8, addend: 0x0, symName: _llama_model_n_head_kv, symObjAddr: 0x3F328, symBinAddr: 0xB4FF4, symSize: 0xC }
  - { offset: 0x56EC31, size: 0x8, addend: 0x0, symName: _llama_model_n_swa, symObjAddr: 0x3F334, symBinAddr: 0xB5000, symSize: 0x8 }
  - { offset: 0x56EC5D, size: 0x8, addend: 0x0, symName: _llama_model_n_cls_out, symObjAddr: 0x3F33C, symBinAddr: 0xB5008, symSize: 0x8 }
  - { offset: 0x56ECAB, size: 0x8, addend: 0x0, symName: _llama_model_cls_label, symObjAddr: 0x3F344, symBinAddr: 0xB5010, symSize: 0x4C }
  - { offset: 0x56EDBD, size: 0x8, addend: 0x0, symName: _llama_n_ctx_train, symObjAddr: 0x3F390, symBinAddr: 0xB505C, symSize: 0x8 }
  - { offset: 0x56EDEB, size: 0x8, addend: 0x0, symName: _llama_n_ctx_train, symObjAddr: 0x3F390, symBinAddr: 0xB505C, symSize: 0x8 }
  - { offset: 0x56EE21, size: 0x8, addend: 0x0, symName: _llama_n_embd, symObjAddr: 0x3F398, symBinAddr: 0xB5064, symSize: 0x8 }
  - { offset: 0x56EE4F, size: 0x8, addend: 0x0, symName: _llama_n_embd, symObjAddr: 0x3F398, symBinAddr: 0xB5064, symSize: 0x8 }
  - { offset: 0x56EE85, size: 0x8, addend: 0x0, symName: _llama_n_layer, symObjAddr: 0x3F3A0, symBinAddr: 0xB506C, symSize: 0x8 }
  - { offset: 0x56EEB3, size: 0x8, addend: 0x0, symName: _llama_n_layer, symObjAddr: 0x3F3A0, symBinAddr: 0xB506C, symSize: 0x8 }
  - { offset: 0x56EEE9, size: 0x8, addend: 0x0, symName: _llama_n_head, symObjAddr: 0x3F3A8, symBinAddr: 0xB5074, symSize: 0xC }
  - { offset: 0x56EF17, size: 0x8, addend: 0x0, symName: _llama_n_head, symObjAddr: 0x3F3A8, symBinAddr: 0xB5074, symSize: 0xC }
  - { offset: 0x56EF34, size: 0x8, addend: 0x0, symName: _llama_model_rope_freq_scale_train, symObjAddr: 0x3F3B4, symBinAddr: 0xB5080, symSize: 0x8 }
  - { offset: 0x56EF86, size: 0x8, addend: 0x0, symName: _llama_model_meta_val_str, symObjAddr: 0x3F3BC, symBinAddr: 0xB5088, symSize: 0x140 }
  - { offset: 0x56F7AC, size: 0x8, addend: 0x0, symName: _llama_model_meta_count, symObjAddr: 0x3F4FC, symBinAddr: 0xB51C8, symSize: 0xC }
  - { offset: 0x56F81A, size: 0x8, addend: 0x0, symName: _llama_model_meta_key_str, symObjAddr: 0x3F508, symBinAddr: 0xB51D4, symSize: 0x20 }
  - { offset: 0x56F8FA, size: 0x8, addend: 0x0, symName: _llama_model_meta_key_by_index, symObjAddr: 0x3F528, symBinAddr: 0xB51F4, symSize: 0x88 }
  - { offset: 0x56FB38, size: 0x8, addend: 0x0, symName: _llama_model_meta_val_str_by_index, symObjAddr: 0x3F5B0, symBinAddr: 0xB527C, symSize: 0x88 }
  - { offset: 0x56FD46, size: 0x8, addend: 0x0, symName: _llama_model_desc, symObjAddr: 0x3F638, symBinAddr: 0xB5304, symSize: 0xAC }
  - { offset: 0x56FFFC, size: 0x8, addend: 0x0, symName: _llama_model_size, symObjAddr: 0x3F6E4, symBinAddr: 0xB53B0, symSize: 0xC }
  - { offset: 0x57002A, size: 0x8, addend: 0x0, symName: _llama_model_size, symObjAddr: 0x3F6E4, symBinAddr: 0xB53B0, symSize: 0xC }
  - { offset: 0x570046, size: 0x8, addend: 0x0, symName: _llama_model_size, symObjAddr: 0x3F6E4, symBinAddr: 0xB53B0, symSize: 0xC }
  - { offset: 0x570066, size: 0x8, addend: 0x0, symName: _llama_model_chat_template, symObjAddr: 0x3F6F0, symBinAddr: 0xB53BC, symSize: 0x12C }
  - { offset: 0x5703BF, size: 0x8, addend: 0x0, symName: _llama_model_n_params, symObjAddr: 0x3F81C, symBinAddr: 0xB54E8, symSize: 0xC }
  - { offset: 0x5703ED, size: 0x8, addend: 0x0, symName: _llama_model_n_params, symObjAddr: 0x3F81C, symBinAddr: 0xB54E8, symSize: 0xC }
  - { offset: 0x570409, size: 0x8, addend: 0x0, symName: _llama_model_n_params, symObjAddr: 0x3F81C, symBinAddr: 0xB54E8, symSize: 0xC }
  - { offset: 0x570429, size: 0x8, addend: 0x0, symName: _llama_model_has_encoder, symObjAddr: 0x3F828, symBinAddr: 0xB54F4, symSize: 0x14 }
  - { offset: 0x570455, size: 0x8, addend: 0x0, symName: _llama_model_has_decoder, symObjAddr: 0x3F83C, symBinAddr: 0xB5508, symSize: 0x10 }
  - { offset: 0x570481, size: 0x8, addend: 0x0, symName: _llama_model_decoder_start_token, symObjAddr: 0x3F84C, symBinAddr: 0xB5518, symSize: 0xC }
  - { offset: 0x5704AD, size: 0x8, addend: 0x0, symName: _llama_model_is_recurrent, symObjAddr: 0x3F858, symBinAddr: 0xB5524, symSize: 0x8 }
  - { offset: 0x5704E7, size: 0x8, addend: 0x0, symName: _llama_model_is_hybrid, symObjAddr: 0x3F860, symBinAddr: 0xB552C, symSize: 0x8 }
  - { offset: 0x570521, size: 0x8, addend: 0x0, symName: _llama_model_is_diffusion, symObjAddr: 0x3F868, symBinAddr: 0xB5534, symSize: 0x8 }
  - { offset: 0x570571, size: 0x8, addend: 0x0, symName: __Z29llama_internal_get_tensor_mapPK11llama_model, symObjAddr: 0x3F870, symBinAddr: 0xB553C, symSize: 0xC }
  - { offset: 0x57110E, size: 0x8, addend: 0x0, symName: __ZNSt3__111basic_regexIcNS_12regex_traitsIcEEE7__parseIPKcEET_S7_S7_, symObjAddr: 0x403C0, symBinAddr: 0xB5D00, symSize: 0x348 }
  - { offset: 0x57206F, size: 0x8, addend: 0x0, symName: __ZNSt3__111basic_regexIcNS_12regex_traitsIcEEE13__parse_egrepIPKcEET_S7_S7_, symObjAddr: 0x40D74, symBinAddr: 0xB6668, symSize: 0x1A0 }
  - { offset: 0x5725AE, size: 0x8, addend: 0x0, symName: __ZNSt3__111basic_regexIcNS_12regex_traitsIcEEE24__parse_extended_reg_expIPKcEET_S7_S7_, symObjAddr: 0x40A78, symBinAddr: 0xB636C, symSize: 0x15C }
  - { offset: 0x5728CE, size: 0x8, addend: 0x0, symName: __ZNSt3__111basic_regexIcNS_12regex_traitsIcEEE12__parse_grepIPKcEET_S7_S7_, symObjAddr: 0x40BD4, symBinAddr: 0xB64C8, symSize: 0x1A0 }
  - { offset: 0x5728E2, size: 0x8, addend: 0x0, symName: __ZNSt3__111basic_regexIcNS_12regex_traitsIcEEE21__parse_basic_reg_expIPKcEET_S7_S7_, symObjAddr: 0x40900, symBinAddr: 0xB61F4, symSize: 0x178 }
  - { offset: 0x572C3E, size: 0x8, addend: 0x0, symName: __ZNSt3__111basic_regexIcNS_12regex_traitsIcEEE24__parse_extended_reg_expIPKcEET_S7_S7_, symObjAddr: 0x40A78, symBinAddr: 0xB636C, symSize: 0x15C }
  - { offset: 0x572C52, size: 0x8, addend: 0x0, symName: __ZNSt3__111basic_regexIcNS_12regex_traitsIcEEE12__parse_grepIPKcEET_S7_S7_, symObjAddr: 0x40BD4, symBinAddr: 0xB64C8, symSize: 0x1A0 }
  - { offset: 0x573191, size: 0x8, addend: 0x0, symName: __ZNSt3__111basic_regexIcNS_12regex_traitsIcEEE19__parse_alternativeIPKcEET_S7_S7_, symObjAddr: 0x41158, symBinAddr: 0xB6808, symSize: 0xA0 }
  - { offset: 0x5732D6, size: 0x8, addend: 0x0, symName: __ZNSt3__111basic_regexIcNS_12regex_traitsIcEEE16__parse_ecma_expIPKcEET_S7_S7_, symObjAddr: 0x40754, symBinAddr: 0xB6048, symSize: 0x1AC }
  - { offset: 0x5736C8, size: 0x8, addend: 0x0, symName: __ZNSt3__111basic_regexIcNS_12regex_traitsIcEEE12__parse_termIPKcEET_S7_S7_, symObjAddr: 0x411F8, symBinAddr: 0xB68A8, symSize: 0x94 }
  - { offset: 0x573963, size: 0x8, addend: 0x0, symName: __ZNSt3__111basic_regexIcNS_12regex_traitsIcEEE18__parse_nondupl_REIPKcEET_S7_S7_, symObjAddr: 0x4836C, symBinAddr: 0xB8CDC, symSize: 0x2F8 }
  - { offset: 0x573FEF, size: 0x8, addend: 0x0, symName: __ZNSt3__111basic_regexIcNS_12regex_traitsIcEEE22__parse_RE_dupl_symbolIPKcEET_S7_S7_PNS_16__owns_one_stateIcEEjj, symObjAddr: 0x48664, symBinAddr: 0xB8FD4, symSize: 0x274 }
  - { offset: 0x574003, size: 0x8, addend: 0x0, symName: __ZNSt3__111basic_regexIcNS_12regex_traitsIcEEE22__parse_RE_dupl_symbolIPKcEET_S7_S7_PNS_16__owns_one_stateIcEEjj, symObjAddr: 0x48664, symBinAddr: 0xB8FD4, symSize: 0x274 }
  - { offset: 0x5745B2, size: 0x8, addend: 0x0, symName: __ZNSt3__111basic_regexIcNS_12regex_traitsIcEEE22__parse_ERE_expressionIPKcEET_S7_S7_, symObjAddr: 0x48A08, symBinAddr: 0xB9248, symSize: 0x1F0 }
  - { offset: 0x57493A, size: 0x8, addend: 0x0, symName: __ZNSt3__111basic_regexIcNS_12regex_traitsIcEEE33__parse_one_char_or_coll_elem_EREIPKcEET_S7_S7_, symObjAddr: 0x48BF8, symBinAddr: 0xB9438, symSize: 0x158 }
  - { offset: 0x574A20, size: 0x8, addend: 0x0, symName: __ZNSt3__111basic_regexIcNS_12regex_traitsIcEEE23__parse_ERE_dupl_symbolIPKcEET_S7_S7_PNS_16__owns_one_stateIcEEjj, symObjAddr: 0x41828, symBinAddr: 0xB6ED8, symSize: 0x3E4 }
  - { offset: 0x574FBF, size: 0x8, addend: 0x0, symName: __ZNSt3__111basic_regexIcNS_12regex_traitsIcEEE17__parse_assertionIPKcEET_S7_S7_, symObjAddr: 0x4128C, symBinAddr: 0xB693C, symSize: 0x364 }
  - { offset: 0x5755D5, size: 0x8, addend: 0x0, symName: __ZNSt3__111basic_regexIcNS_12regex_traitsIcEEE12__parse_atomIPKcEET_S7_S7_, symObjAddr: 0x415F0, symBinAddr: 0xB6CA0, symSize: 0x238 }
  - { offset: 0x575936, size: 0x8, addend: 0x0, symName: __ZNSt3__111basic_regexIcNS_12regex_traitsIcEEE23__parse_ERE_dupl_symbolIPKcEET_S7_S7_PNS_16__owns_one_stateIcEEjj, symObjAddr: 0x41828, symBinAddr: 0xB6ED8, symSize: 0x3E4 }
  - { offset: 0x575DC5, size: 0x8, addend: 0x0, symName: __ZNSt3__111basic_regexIcNS_12regex_traitsIcEEE26__parse_bracket_expressionIPKcEET_S7_S7_, symObjAddr: 0x434AC, symBinAddr: 0xB743C, symSize: 0x160 }
  - { offset: 0x575F99, size: 0x8, addend: 0x0, symName: __ZNSt3__111basic_regexIcNS_12regex_traitsIcEEE19__parse_atom_escapeIPKcEET_S7_S7_, symObjAddr: 0x4332C, symBinAddr: 0xB72BC, symSize: 0x180 }
  - { offset: 0x576125, size: 0x8, addend: 0x0, symName: __ZNSt3__111basic_regexIcNS_12regex_traitsIcEEE26__parse_bracket_expressionIPKcEET_S7_S7_, symObjAddr: 0x434AC, symBinAddr: 0xB743C, symSize: 0x160 }
  - { offset: 0x576139, size: 0x8, addend: 0x0, symName: __ZNSt3__111basic_regexIcNS_12regex_traitsIcEEE25__parse_pattern_characterIPKcEET_S7_S7_, symObjAddr: 0x43658, symBinAddr: 0xB759C, symSize: 0x7C }
  - { offset: 0x57A4A6, size: 0x8, addend: 0x0, symName: __ZNSt3__111basic_regexIcNS_12regex_traitsIcEEE30__parse_character_class_escapeIPKcEET_S7_S7_, symObjAddr: 0x437B0, symBinAddr: 0xB7618, symSize: 0x25C }
  - { offset: 0x57A901, size: 0x8, addend: 0x0, symName: __ZNSt3__111basic_regexIcNS_12regex_traitsIcEEE24__parse_character_escapeIPKcEET_S7_S7_PNS_12basic_stringIcNS_11char_traitsIcEENS_9allocatorIcEEEE, symObjAddr: 0x43A0C, symBinAddr: 0xB7874, symSize: 0x40C }
  - { offset: 0x57B40F, size: 0x8, addend: 0x0, symName: __ZNSt3__111basic_regexIcNS_12regex_traitsIcEEE23__parse_expression_termIPKcEET_S7_S7_PNS_20__bracket_expressionIcS2_EE, symObjAddr: 0x45B04, symBinAddr: 0xB7C80, symSize: 0x54C }
  - { offset: 0x57D776, size: 0x8, addend: 0x0, symName: __ZNSt3__111basic_regexIcNS_12regex_traitsIcEEE25__parse_equivalence_classIPKcEET_S7_S7_PNS_20__bracket_expressionIcS2_EE, symObjAddr: 0x46050, symBinAddr: 0xB81CC, symSize: 0x258 }
  - { offset: 0x57E1EA, size: 0x8, addend: 0x0, symName: __ZNSt3__111basic_regexIcNS_12regex_traitsIcEEE18__parse_awk_escapeIPKcEET_S7_S7_PNS_12basic_stringIcNS_11char_traitsIcEENS_9allocatorIcEEEE, symObjAddr: 0x464FC, symBinAddr: 0xB8678, symSize: 0x2E4 }
  - { offset: 0x57E30F, size: 0x8, addend: 0x0, symName: __ZNSt3__111basic_regexIcNS_12regex_traitsIcEEE24__parse_collating_symbolIPKcEET_S7_S7_RNS_12basic_stringIcNS_11char_traitsIcEENS_9allocatorIcEEEE, symObjAddr: 0x462A8, symBinAddr: 0xB8424, symSize: 0xD0 }
  - { offset: 0x57E685, size: 0x8, addend: 0x0, symName: __ZNSt3__111basic_regexIcNS_12regex_traitsIcEEE20__parse_class_escapeIPKcEET_S7_S7_RNS_12basic_stringIcNS_11char_traitsIcEENS_9allocatorIcEEEEPNS_20__bracket_expressionIcS2_EE, symObjAddr: 0x46378, symBinAddr: 0xB84F4, symSize: 0x184 }
  - { offset: 0x57E690, size: 0x8, addend: 0x0, symName: __ZNKSt3__112regex_traitsIcE20__lookup_collatenameIPKcEENS_12basic_stringIcNS_11char_traitsIcEENS_9allocatorIcEEEET_SB_c, symObjAddr: 0x46E84, symBinAddr: 0xB895C, symSize: 0x234 }
  - { offset: 0x57F18B, size: 0x8, addend: 0x0, symName: __ZNKSt3__112regex_traitsIcE18__lookup_classnameIPKcEEjT_S5_bc, symObjAddr: 0x47460, symBinAddr: 0xB8B90, symSize: 0x14C }
  - { offset: 0x57FE7A, size: 0x8, addend: 0x0, symName: __ZNSt3__111basic_regexIcNS_12regex_traitsIcEEE20__parse_class_escapeIPKcEET_S7_S7_RNS_12basic_stringIcNS_11char_traitsIcEENS_9allocatorIcEEEEPNS_20__bracket_expressionIcS2_EE, symObjAddr: 0x46378, symBinAddr: 0xB84F4, symSize: 0x184 }
  - { offset: 0x580012, size: 0x8, addend: 0x0, symName: __ZNSt3__111basic_regexIcNS_12regex_traitsIcEEE18__parse_awk_escapeIPKcEET_S7_S7_PNS_12basic_stringIcNS_11char_traitsIcEENS_9allocatorIcEEEE, symObjAddr: 0x464FC, symBinAddr: 0xB8678, symSize: 0x2E4 }
  - { offset: 0x583175, size: 0x8, addend: 0x0, symName: __ZNSt3__111basic_regexIcNS_12regex_traitsIcEEE22__parse_ERE_expressionIPKcEET_S7_S7_, symObjAddr: 0x48A08, symBinAddr: 0xB9248, symSize: 0x1F0 }
  - { offset: 0x583180, size: 0x8, addend: 0x0, symName: __ZNSt3__111basic_regexIcNS_12regex_traitsIcEEE33__parse_one_char_or_coll_elem_EREIPKcEET_S7_S7_, symObjAddr: 0x48BF8, symBinAddr: 0xB9438, symSize: 0x158 }
  - { offset: 0x583369, size: 0x8, addend: 0x0, symName: __ZNSt3__111basic_regexIcNS_12regex_traitsIcEEE23__parse_QUOTED_CHAR_EREIPKcEET_S7_S7_, symObjAddr: 0x48D50, symBinAddr: 0xB9590, symSize: 0xD8 }
  - { offset: 0x5894D0, size: 0x8, addend: 0x0, symName: __ZNSt3__13mapI23llama_rope_scaling_typePKcNS_4lessIS1_EENS_9allocatorINS_4pairIKS1_S3_EEEEEC2B8ne200100ESt16initializer_listIS9_ERKS5_, symObjAddr: 0x4BA94, symBinAddr: 0xB9668, symSize: 0xEC }
  - { offset: 0x58985B, size: 0x8, addend: 0x0, symName: __ZNSt3__16__treeINS_12__value_typeI23llama_rope_scaling_typePKcEENS_19__map_value_compareIS2_S5_NS_4lessIS2_EELb1EEENS_9allocatorIS5_EEE12__find_equalIS2_EERPNS_16__tree_node_baseIPvEENS_21__tree_const_iteratorIS5_PNS_11__tree_nodeIS5_SF_EElEERPNS_15__tree_end_nodeISH_EESI_RKT_, symObjAddr: 0x4BB80, symBinAddr: 0xB9754, symSize: 0x1B0 }
  - { offset: 0x5898BE, size: 0x8, addend: 0x0, symName: __ZNSt3__16__treeINS_12__value_typeI23llama_rope_scaling_typePKcEENS_19__map_value_compareIS2_S5_NS_4lessIS2_EELb1EEENS_9allocatorIS5_EEE12__find_equalIS2_EERPNS_16__tree_node_baseIPvEENS_21__tree_const_iteratorIS5_PNS_11__tree_nodeIS5_SF_EElEERPNS_15__tree_end_nodeISH_EESI_RKT_, symObjAddr: 0x4BB80, symBinAddr: 0xB9754, symSize: 0x1B0 }
  - { offset: 0x5898DA, size: 0x8, addend: 0x0, symName: __ZNSt3__16__treeINS_12__value_typeI23llama_rope_scaling_typePKcEENS_19__map_value_compareIS2_S5_NS_4lessIS2_EELb1EEENS_9allocatorIS5_EEE12__find_equalIS2_EERPNS_16__tree_node_baseIPvEENS_21__tree_const_iteratorIS5_PNS_11__tree_nodeIS5_SF_EElEERPNS_15__tree_end_nodeISH_EESI_RKT_, symObjAddr: 0x4BB80, symBinAddr: 0xB9754, symSize: 0x1B0 }
  - { offset: 0x58A1A1, size: 0x8, addend: 0x0, symName: __ZNSt3__16__treeINS_12__value_typeIP19ggml_backend_deviceNS_6vectorINS_4pairIS3_P24ggml_backend_buffer_typeEENS_9allocatorIS8_EEEEEENS_19__map_value_compareIS3_SC_NS_4lessIS3_EELb1EEENS9_ISC_EEE7destroyEPNS_11__tree_nodeISC_PvEE, symObjAddr: 0x4BEE0, symBinAddr: 0xB9AB4, symSize: 0x50 }
  - { offset: 0x58A457, size: 0x8, addend: 0x0, symName: __ZNSt3__16vectorINS_4pairINS_10unique_ptrI12ggml_context20ggml_context_deleterEENS0_INS2_I19ggml_backend_buffer27ggml_backend_buffer_deleterEENS_9allocatorIS8_EEEEEENS9_ISC_EEE22__base_destruct_at_endB8ne200100EPSC_, symObjAddr: 0x4BF30, symBinAddr: 0xB9B04, symSize: 0xA8 }
  - { offset: 0x58C95C, size: 0x8, addend: 0x0, symName: __ZNSt3__16vectorIN11llama_model4impl9layer_devENS_9allocatorIS3_EEE20__throw_length_errorB8ne200100Ev, symObjAddr: 0x4D340, symBinAddr: 0xBA1DC, symSize: 0x14 }
  - { offset: 0x58C974, size: 0x8, addend: 0x0, symName: __ZNSt3__16__treeINS_12__value_typeIP24ggml_backend_buffer_typeNS_10unique_ptrI12ggml_context20ggml_context_deleterEEEENS_19__map_value_compareIS3_S8_ZN11llama_model12load_tensorsER18llama_model_loaderE28ggml_backend_buft_comparatorLb1EEENS_9allocatorIS8_EEE7destroyEPNS_11__tree_nodeIS8_PvEE, symObjAddr: 0x4D354, symBinAddr: 0xBA1F0, symSize: 0x54 }
  - { offset: 0x58CD35, size: 0x8, addend: 0x0, symName: __ZNSt3__16vectorI11llama_layerNS_9allocatorIS1_EEE20__throw_length_errorB8ne200100Ev, symObjAddr: 0x4D568, symBinAddr: 0xBA404, symSize: 0x14 }
  - { offset: 0x58CFC0, size: 0x8, addend: 0x0, symName: __ZNSt3__112__hash_tableINS_17__hash_value_typeIjP19ggml_backend_bufferEENS_22__unordered_map_hasherIjS4_NS_4hashIjEENS_8equal_toIjEELb1EEENS_21__unordered_map_equalIjS4_S9_S7_Lb1EEENS_9allocatorIS4_EEED1Ev, symObjAddr: 0x4D828, symBinAddr: 0xBA6B0, symSize: 0x48 }
  - { offset: 0x58D8B2, size: 0x8, addend: 0x0, symName: __ZNSt3__112__hash_tableINS_17__hash_value_typeIjP19ggml_backend_bufferEENS_22__unordered_map_hasherIjS4_NS_4hashIjEENS_8equal_toIjEELb1EEENS_21__unordered_map_equalIjS4_S9_S7_Lb1EEENS_9allocatorIS4_EEE25__emplace_unique_key_argsIjJRKNS_4pairIKjS3_EEEEENSH_INS_15__hash_iteratorIPNS_11__hash_nodeIS4_PvEEEEbEERKT_DpOT0_, symObjAddr: 0x4E0E4, symBinAddr: 0xBAF44, symSize: 0x300 }
  - { offset: 0x58E113, size: 0x8, addend: 0x0, symName: '__ZNSt3__110__function6__funcIZNK11llama_model10print_infoEvE3$_0NS_9allocatorIS3_EEFjjEED1Ev', symObjAddr: 0x4E4A0, symBinAddr: 0xBB2BC, symSize: 0x4 }
  - { offset: 0x58E13F, size: 0x8, addend: 0x0, symName: '__ZNSt3__110__function6__funcIZNK11llama_model10print_infoEvE3$_0NS_9allocatorIS3_EEFjjEED0Ev', symObjAddr: 0x4E4A4, symBinAddr: 0xBB2C0, symSize: 0x4 }
  - { offset: 0x58E1F6, size: 0x8, addend: 0x0, symName: '__ZNKSt3__110__function6__funcIZNK11llama_model10print_infoEvE3$_0NS_9allocatorIS3_EEFjjEE7__cloneEv', symObjAddr: 0x4E4A8, symBinAddr: 0xBB2C4, symSize: 0x34 }
  - { offset: 0x58E346, size: 0x8, addend: 0x0, symName: '__ZNKSt3__110__function6__funcIZNK11llama_model10print_infoEvE3$_0NS_9allocatorIS3_EEFjjEE7__cloneEPNS0_6__baseIS6_EE', symObjAddr: 0x4E4DC, symBinAddr: 0xBB2F8, symSize: 0x14 }
  - { offset: 0x58E3B3, size: 0x8, addend: 0x0, symName: '__ZNSt3__110__function6__funcIZNK11llama_model10print_infoEvE3$_0NS_9allocatorIS3_EEFjjEE7destroyEv', symObjAddr: 0x4E4F0, symBinAddr: 0xBB30C, symSize: 0x4 }
  - { offset: 0x58E408, size: 0x8, addend: 0x0, symName: '__ZNSt3__110__function6__funcIZNK11llama_model10print_infoEvE3$_0NS_9allocatorIS3_EEFjjEE18destroy_deallocateEv', symObjAddr: 0x4E4F4, symBinAddr: 0xBB310, symSize: 0x4 }
  - { offset: 0x58E43B, size: 0x8, addend: 0x0, symName: '__ZNSt3__110__function6__funcIZNK11llama_model10print_infoEvE3$_0NS_9allocatorIS3_EEFjjEE18destroy_deallocateEv', symObjAddr: 0x4E4F4, symBinAddr: 0xBB310, symSize: 0x4 }
  - { offset: 0x58E45E, size: 0x8, addend: 0x0, symName: '__ZNSt3__110__function6__funcIZNK11llama_model10print_infoEvE3$_0NS_9allocatorIS3_EEFjjEE18destroy_deallocateEv', symObjAddr: 0x4E4F4, symBinAddr: 0xBB310, symSize: 0x4 }
  - { offset: 0x58E491, size: 0x8, addend: 0x0, symName: '__ZNSt3__110__function6__funcIZNK11llama_model10print_infoEvE3$_0NS_9allocatorIS3_EEFjjEE18destroy_deallocateEv', symObjAddr: 0x4E4F4, symBinAddr: 0xBB310, symSize: 0x4 }
  - { offset: 0x58E534, size: 0x8, addend: 0x0, symName: '__ZNSt3__110__function6__funcIZNK11llama_model10print_infoEvE3$_0NS_9allocatorIS3_EEFjjEEclEOj', symObjAddr: 0x4E4F8, symBinAddr: 0xBB314, symSize: 0x10 }
  - { offset: 0x58E5DD, size: 0x8, addend: 0x0, symName: '__ZNKSt3__110__function6__funcIZNK11llama_model10print_infoEvE3$_0NS_9allocatorIS3_EEFjjEE6targetERKSt9type_info', symObjAddr: 0x4E508, symBinAddr: 0xBB324, symSize: 0x64 }
  - { offset: 0x58E691, size: 0x8, addend: 0x0, symName: '__ZNKSt3__110__function6__funcIZNK11llama_model10print_infoEvE3$_0NS_9allocatorIS3_EEFjjEE11target_typeEv', symObjAddr: 0x4E56C, symBinAddr: 0xBB388, symSize: 0xC }
  - { offset: 0x58E6B4, size: 0x8, addend: 0x0, symName: '__ZNSt3__110__function6__funcIZNK11llama_model10print_infoEvE3$_1NS_9allocatorIS3_EEFjjEED1Ev', symObjAddr: 0x4E578, symBinAddr: 0xBB394, symSize: 0x4 }
  - { offset: 0x58E6E0, size: 0x8, addend: 0x0, symName: '__ZNSt3__110__function6__funcIZNK11llama_model10print_infoEvE3$_1NS_9allocatorIS3_EEFjjEED0Ev', symObjAddr: 0x4E57C, symBinAddr: 0xBB398, symSize: 0x4 }
  - { offset: 0x58E797, size: 0x8, addend: 0x0, symName: '__ZNKSt3__110__function6__funcIZNK11llama_model10print_infoEvE3$_1NS_9allocatorIS3_EEFjjEE7__cloneEv', symObjAddr: 0x4E580, symBinAddr: 0xBB39C, symSize: 0x34 }
  - { offset: 0x58E8E7, size: 0x8, addend: 0x0, symName: '__ZNKSt3__110__function6__funcIZNK11llama_model10print_infoEvE3$_1NS_9allocatorIS3_EEFjjEE7__cloneEPNS0_6__baseIS6_EE', symObjAddr: 0x4E5B4, symBinAddr: 0xBB3D0, symSize: 0x14 }
  - { offset: 0x58E954, size: 0x8, addend: 0x0, symName: '__ZNSt3__110__function6__funcIZNK11llama_model10print_infoEvE3$_1NS_9allocatorIS3_EEFjjEE7destroyEv', symObjAddr: 0x4E5C8, symBinAddr: 0xBB3E4, symSize: 0x4 }
  - { offset: 0x58E9A9, size: 0x8, addend: 0x0, symName: '__ZNSt3__110__function6__funcIZNK11llama_model10print_infoEvE3$_1NS_9allocatorIS3_EEFjjEE18destroy_deallocateEv', symObjAddr: 0x4E5CC, symBinAddr: 0xBB3E8, symSize: 0x4 }
  - { offset: 0x58E9DC, size: 0x8, addend: 0x0, symName: '__ZNSt3__110__function6__funcIZNK11llama_model10print_infoEvE3$_1NS_9allocatorIS3_EEFjjEE18destroy_deallocateEv', symObjAddr: 0x4E5CC, symBinAddr: 0xBB3E8, symSize: 0x4 }
  - { offset: 0x58E9FF, size: 0x8, addend: 0x0, symName: '__ZNSt3__110__function6__funcIZNK11llama_model10print_infoEvE3$_1NS_9allocatorIS3_EEFjjEE18destroy_deallocateEv', symObjAddr: 0x4E5CC, symBinAddr: 0xBB3E8, symSize: 0x4 }
  - { offset: 0x58EA32, size: 0x8, addend: 0x0, symName: '__ZNSt3__110__function6__funcIZNK11llama_model10print_infoEvE3$_1NS_9allocatorIS3_EEFjjEE18destroy_deallocateEv', symObjAddr: 0x4E5CC, symBinAddr: 0xBB3E8, symSize: 0x4 }
  - { offset: 0x58EAD5, size: 0x8, addend: 0x0, symName: '__ZNSt3__110__function6__funcIZNK11llama_model10print_infoEvE3$_1NS_9allocatorIS3_EEFjjEEclEOj', symObjAddr: 0x4E5D0, symBinAddr: 0xBB3EC, symSize: 0x10 }
  - { offset: 0x58EB7E, size: 0x8, addend: 0x0, symName: '__ZNKSt3__110__function6__funcIZNK11llama_model10print_infoEvE3$_1NS_9allocatorIS3_EEFjjEE6targetERKSt9type_info', symObjAddr: 0x4E5E0, symBinAddr: 0xBB3FC, symSize: 0x64 }
  - { offset: 0x58EC32, size: 0x8, addend: 0x0, symName: '__ZNKSt3__110__function6__funcIZNK11llama_model10print_infoEvE3$_1NS_9allocatorIS3_EEFjjEE11target_typeEv', symObjAddr: 0x4E644, symBinAddr: 0xBB460, symSize: 0xC }
  - { offset: 0x58EC55, size: 0x8, addend: 0x0, symName: '__ZNSt3__110__function6__funcIZNK11llama_model10print_infoEvE3$_2NS_9allocatorIS3_EEFjjEED1Ev', symObjAddr: 0x4E650, symBinAddr: 0xBB46C, symSize: 0x4 }
  - { offset: 0x58EC81, size: 0x8, addend: 0x0, symName: '__ZNSt3__110__function6__funcIZNK11llama_model10print_infoEvE3$_2NS_9allocatorIS3_EEFjjEED0Ev', symObjAddr: 0x4E654, symBinAddr: 0xBB470, symSize: 0x4 }
  - { offset: 0x58ED38, size: 0x8, addend: 0x0, symName: '__ZNKSt3__110__function6__funcIZNK11llama_model10print_infoEvE3$_2NS_9allocatorIS3_EEFjjEE7__cloneEv', symObjAddr: 0x4E658, symBinAddr: 0xBB474, symSize: 0x34 }
  - { offset: 0x58EE88, size: 0x8, addend: 0x0, symName: '__ZNKSt3__110__function6__funcIZNK11llama_model10print_infoEvE3$_2NS_9allocatorIS3_EEFjjEE7__cloneEPNS0_6__baseIS6_EE', symObjAddr: 0x4E68C, symBinAddr: 0xBB4A8, symSize: 0x14 }
  - { offset: 0x58EEF5, size: 0x8, addend: 0x0, symName: '__ZNSt3__110__function6__funcIZNK11llama_model10print_infoEvE3$_2NS_9allocatorIS3_EEFjjEE7destroyEv', symObjAddr: 0x4E6A0, symBinAddr: 0xBB4BC, symSize: 0x4 }
  - { offset: 0x58EF4A, size: 0x8, addend: 0x0, symName: '__ZNSt3__110__function6__funcIZNK11llama_model10print_infoEvE3$_2NS_9allocatorIS3_EEFjjEE18destroy_deallocateEv', symObjAddr: 0x4E6A4, symBinAddr: 0xBB4C0, symSize: 0x4 }
  - { offset: 0x58EF7D, size: 0x8, addend: 0x0, symName: '__ZNSt3__110__function6__funcIZNK11llama_model10print_infoEvE3$_2NS_9allocatorIS3_EEFjjEE18destroy_deallocateEv', symObjAddr: 0x4E6A4, symBinAddr: 0xBB4C0, symSize: 0x4 }
  - { offset: 0x58EFA0, size: 0x8, addend: 0x0, symName: '__ZNSt3__110__function6__funcIZNK11llama_model10print_infoEvE3$_2NS_9allocatorIS3_EEFjjEE18destroy_deallocateEv', symObjAddr: 0x4E6A4, symBinAddr: 0xBB4C0, symSize: 0x4 }
  - { offset: 0x58EFD3, size: 0x8, addend: 0x0, symName: '__ZNSt3__110__function6__funcIZNK11llama_model10print_infoEvE3$_2NS_9allocatorIS3_EEFjjEE18destroy_deallocateEv', symObjAddr: 0x4E6A4, symBinAddr: 0xBB4C0, symSize: 0x4 }
  - { offset: 0x58F076, size: 0x8, addend: 0x0, symName: '__ZNSt3__110__function6__funcIZNK11llama_model10print_infoEvE3$_2NS_9allocatorIS3_EEFjjEEclEOj', symObjAddr: 0x4E6A8, symBinAddr: 0xBB4C4, symSize: 0x10 }
  - { offset: 0x58F11F, size: 0x8, addend: 0x0, symName: '__ZNKSt3__110__function6__funcIZNK11llama_model10print_infoEvE3$_2NS_9allocatorIS3_EEFjjEE6targetERKSt9type_info', symObjAddr: 0x4E6B8, symBinAddr: 0xBB4D4, symSize: 0x64 }
  - { offset: 0x58F1D3, size: 0x8, addend: 0x0, symName: '__ZNKSt3__110__function6__funcIZNK11llama_model10print_infoEvE3$_2NS_9allocatorIS3_EEFjjEE11target_typeEv', symObjAddr: 0x4E71C, symBinAddr: 0xBB538, symSize: 0xC }
  - { offset: 0x58F1F6, size: 0x8, addend: 0x0, symName: '__ZNSt3__110__function6__funcIZNK11llama_model10print_infoEvE3$_3NS_9allocatorIS3_EEFjjEED1Ev', symObjAddr: 0x4E728, symBinAddr: 0xBB544, symSize: 0x4 }
  - { offset: 0x58F222, size: 0x8, addend: 0x0, symName: '__ZNSt3__110__function6__funcIZNK11llama_model10print_infoEvE3$_3NS_9allocatorIS3_EEFjjEED0Ev', symObjAddr: 0x4E72C, symBinAddr: 0xBB548, symSize: 0x4 }
  - { offset: 0x58F2D9, size: 0x8, addend: 0x0, symName: '__ZNKSt3__110__function6__funcIZNK11llama_model10print_infoEvE3$_3NS_9allocatorIS3_EEFjjEE7__cloneEv', symObjAddr: 0x4E730, symBinAddr: 0xBB54C, symSize: 0x34 }
  - { offset: 0x58F429, size: 0x8, addend: 0x0, symName: '__ZNKSt3__110__function6__funcIZNK11llama_model10print_infoEvE3$_3NS_9allocatorIS3_EEFjjEE7__cloneEPNS0_6__baseIS6_EE', symObjAddr: 0x4E764, symBinAddr: 0xBB580, symSize: 0x14 }
  - { offset: 0x58F496, size: 0x8, addend: 0x0, symName: '__ZNSt3__110__function6__funcIZNK11llama_model10print_infoEvE3$_3NS_9allocatorIS3_EEFjjEE7destroyEv', symObjAddr: 0x4E778, symBinAddr: 0xBB594, symSize: 0x4 }
  - { offset: 0x58F4EB, size: 0x8, addend: 0x0, symName: '__ZNSt3__110__function6__funcIZNK11llama_model10print_infoEvE3$_3NS_9allocatorIS3_EEFjjEE18destroy_deallocateEv', symObjAddr: 0x4E77C, symBinAddr: 0xBB598, symSize: 0x4 }
  - { offset: 0x58F51E, size: 0x8, addend: 0x0, symName: '__ZNSt3__110__function6__funcIZNK11llama_model10print_infoEvE3$_3NS_9allocatorIS3_EEFjjEE18destroy_deallocateEv', symObjAddr: 0x4E77C, symBinAddr: 0xBB598, symSize: 0x4 }
  - { offset: 0x58F541, size: 0x8, addend: 0x0, symName: '__ZNSt3__110__function6__funcIZNK11llama_model10print_infoEvE3$_3NS_9allocatorIS3_EEFjjEE18destroy_deallocateEv', symObjAddr: 0x4E77C, symBinAddr: 0xBB598, symSize: 0x4 }
  - { offset: 0x58F574, size: 0x8, addend: 0x0, symName: '__ZNSt3__110__function6__funcIZNK11llama_model10print_infoEvE3$_3NS_9allocatorIS3_EEFjjEE18destroy_deallocateEv', symObjAddr: 0x4E77C, symBinAddr: 0xBB598, symSize: 0x4 }
  - { offset: 0x58F617, size: 0x8, addend: 0x0, symName: '__ZNSt3__110__function6__funcIZNK11llama_model10print_infoEvE3$_3NS_9allocatorIS3_EEFjjEEclEOj', symObjAddr: 0x4E780, symBinAddr: 0xBB59C, symSize: 0x10 }
  - { offset: 0x58F6C0, size: 0x8, addend: 0x0, symName: '__ZNKSt3__110__function6__funcIZNK11llama_model10print_infoEvE3$_3NS_9allocatorIS3_EEFjjEE6targetERKSt9type_info', symObjAddr: 0x4E790, symBinAddr: 0xBB5AC, symSize: 0x64 }
  - { offset: 0x58F774, size: 0x8, addend: 0x0, symName: '__ZNKSt3__110__function6__funcIZNK11llama_model10print_infoEvE3$_3NS_9allocatorIS3_EEFjjEE11target_typeEv', symObjAddr: 0x4E7F4, symBinAddr: 0xBB610, symSize: 0xC }
  - { offset: 0x58F797, size: 0x8, addend: 0x0, symName: '__ZNSt3__110__function6__funcIZNK11llama_model10print_infoEvE3$_4NS_9allocatorIS3_EEFjjEED1Ev', symObjAddr: 0x4E800, symBinAddr: 0xBB61C, symSize: 0x4 }
  - { offset: 0x58F7C3, size: 0x8, addend: 0x0, symName: '__ZNSt3__110__function6__funcIZNK11llama_model10print_infoEvE3$_4NS_9allocatorIS3_EEFjjEED0Ev', symObjAddr: 0x4E804, symBinAddr: 0xBB620, symSize: 0x4 }
  - { offset: 0x58F87A, size: 0x8, addend: 0x0, symName: '__ZNKSt3__110__function6__funcIZNK11llama_model10print_infoEvE3$_4NS_9allocatorIS3_EEFjjEE7__cloneEv', symObjAddr: 0x4E808, symBinAddr: 0xBB624, symSize: 0x34 }
  - { offset: 0x58F9CA, size: 0x8, addend: 0x0, symName: '__ZNKSt3__110__function6__funcIZNK11llama_model10print_infoEvE3$_4NS_9allocatorIS3_EEFjjEE7__cloneEPNS0_6__baseIS6_EE', symObjAddr: 0x4E83C, symBinAddr: 0xBB658, symSize: 0x14 }
  - { offset: 0x58FA37, size: 0x8, addend: 0x0, symName: '__ZNSt3__110__function6__funcIZNK11llama_model10print_infoEvE3$_4NS_9allocatorIS3_EEFjjEE7destroyEv', symObjAddr: 0x4E850, symBinAddr: 0xBB66C, symSize: 0x4 }
  - { offset: 0x58FA8C, size: 0x8, addend: 0x0, symName: '__ZNSt3__110__function6__funcIZNK11llama_model10print_infoEvE3$_4NS_9allocatorIS3_EEFjjEE18destroy_deallocateEv', symObjAddr: 0x4E854, symBinAddr: 0xBB670, symSize: 0x4 }
  - { offset: 0x58FABF, size: 0x8, addend: 0x0, symName: '__ZNSt3__110__function6__funcIZNK11llama_model10print_infoEvE3$_4NS_9allocatorIS3_EEFjjEE18destroy_deallocateEv', symObjAddr: 0x4E854, symBinAddr: 0xBB670, symSize: 0x4 }
  - { offset: 0x58FAE2, size: 0x8, addend: 0x0, symName: '__ZNSt3__110__function6__funcIZNK11llama_model10print_infoEvE3$_4NS_9allocatorIS3_EEFjjEE18destroy_deallocateEv', symObjAddr: 0x4E854, symBinAddr: 0xBB670, symSize: 0x4 }
  - { offset: 0x58FB15, size: 0x8, addend: 0x0, symName: '__ZNSt3__110__function6__funcIZNK11llama_model10print_infoEvE3$_4NS_9allocatorIS3_EEFjjEE18destroy_deallocateEv', symObjAddr: 0x4E854, symBinAddr: 0xBB670, symSize: 0x4 }
  - { offset: 0x58FBB8, size: 0x8, addend: 0x0, symName: '__ZNSt3__110__function6__funcIZNK11llama_model10print_infoEvE3$_4NS_9allocatorIS3_EEFjjEEclEOj', symObjAddr: 0x4E858, symBinAddr: 0xBB674, symSize: 0x10 }
  - { offset: 0x58FC61, size: 0x8, addend: 0x0, symName: '__ZNKSt3__110__function6__funcIZNK11llama_model10print_infoEvE3$_4NS_9allocatorIS3_EEFjjEE6targetERKSt9type_info', symObjAddr: 0x4E868, symBinAddr: 0xBB684, symSize: 0x64 }
  - { offset: 0x58FD15, size: 0x8, addend: 0x0, symName: '__ZNKSt3__110__function6__funcIZNK11llama_model10print_infoEvE3$_4NS_9allocatorIS3_EEFjjEE11target_typeEv', symObjAddr: 0x4E8CC, symBinAddr: 0xBB6E8, symSize: 0xC }
  - { offset: 0x58FD38, size: 0x8, addend: 0x0, symName: '__ZNSt3__110__function6__funcIZNK11llama_model10print_infoEvE3$_5NS_9allocatorIS3_EEFjjEED1Ev', symObjAddr: 0x4E8D8, symBinAddr: 0xBB6F4, symSize: 0x4 }
  - { offset: 0x58FD64, size: 0x8, addend: 0x0, symName: '__ZNSt3__110__function6__funcIZNK11llama_model10print_infoEvE3$_5NS_9allocatorIS3_EEFjjEED0Ev', symObjAddr: 0x4E8DC, symBinAddr: 0xBB6F8, symSize: 0x4 }
  - { offset: 0x58FE1B, size: 0x8, addend: 0x0, symName: '__ZNKSt3__110__function6__funcIZNK11llama_model10print_infoEvE3$_5NS_9allocatorIS3_EEFjjEE7__cloneEv', symObjAddr: 0x4E8E0, symBinAddr: 0xBB6FC, symSize: 0x34 }
  - { offset: 0x58FF6B, size: 0x8, addend: 0x0, symName: '__ZNKSt3__110__function6__funcIZNK11llama_model10print_infoEvE3$_5NS_9allocatorIS3_EEFjjEE7__cloneEPNS0_6__baseIS6_EE', symObjAddr: 0x4E914, symBinAddr: 0xBB730, symSize: 0x14 }
  - { offset: 0x58FFD8, size: 0x8, addend: 0x0, symName: '__ZNSt3__110__function6__funcIZNK11llama_model10print_infoEvE3$_5NS_9allocatorIS3_EEFjjEE7destroyEv', symObjAddr: 0x4E928, symBinAddr: 0xBB744, symSize: 0x4 }
  - { offset: 0x59002D, size: 0x8, addend: 0x0, symName: '__ZNSt3__110__function6__funcIZNK11llama_model10print_infoEvE3$_5NS_9allocatorIS3_EEFjjEE18destroy_deallocateEv', symObjAddr: 0x4E92C, symBinAddr: 0xBB748, symSize: 0x4 }
  - { offset: 0x590060, size: 0x8, addend: 0x0, symName: '__ZNSt3__110__function6__funcIZNK11llama_model10print_infoEvE3$_5NS_9allocatorIS3_EEFjjEE18destroy_deallocateEv', symObjAddr: 0x4E92C, symBinAddr: 0xBB748, symSize: 0x4 }
  - { offset: 0x590083, size: 0x8, addend: 0x0, symName: '__ZNSt3__110__function6__funcIZNK11llama_model10print_infoEvE3$_5NS_9allocatorIS3_EEFjjEE18destroy_deallocateEv', symObjAddr: 0x4E92C, symBinAddr: 0xBB748, symSize: 0x4 }
  - { offset: 0x5900B6, size: 0x8, addend: 0x0, symName: '__ZNSt3__110__function6__funcIZNK11llama_model10print_infoEvE3$_5NS_9allocatorIS3_EEFjjEE18destroy_deallocateEv', symObjAddr: 0x4E92C, symBinAddr: 0xBB748, symSize: 0x4 }
  - { offset: 0x590159, size: 0x8, addend: 0x0, symName: '__ZNSt3__110__function6__funcIZNK11llama_model10print_infoEvE3$_5NS_9allocatorIS3_EEFjjEEclEOj', symObjAddr: 0x4E930, symBinAddr: 0xBB74C, symSize: 0x10 }
  - { offset: 0x590202, size: 0x8, addend: 0x0, symName: '__ZNKSt3__110__function6__funcIZNK11llama_model10print_infoEvE3$_5NS_9allocatorIS3_EEFjjEE6targetERKSt9type_info', symObjAddr: 0x4E940, symBinAddr: 0xBB75C, symSize: 0x64 }
  - { offset: 0x5902B6, size: 0x8, addend: 0x0, symName: '__ZNKSt3__110__function6__funcIZNK11llama_model10print_infoEvE3$_5NS_9allocatorIS3_EEFjjEE11target_typeEv', symObjAddr: 0x4E9A4, symBinAddr: 0xBB7C0, symSize: 0xC }
  - { offset: 0x5902D9, size: 0x8, addend: 0x0, symName: '__ZNSt3__110__function6__funcIZNK11llama_model13create_memoryERK19llama_memory_paramsRK13llama_cparamsE3$_0NS_9allocatorIS9_EEFbiEED1Ev', symObjAddr: 0x4E9B0, symBinAddr: 0xBB7CC, symSize: 0x4 }
  - { offset: 0x590305, size: 0x8, addend: 0x0, symName: '__ZNSt3__110__function6__funcIZNK11llama_model13create_memoryERK19llama_memory_paramsRK13llama_cparamsE3$_0NS_9allocatorIS9_EEFbiEED0Ev', symObjAddr: 0x4E9B4, symBinAddr: 0xBB7D0, symSize: 0x4 }
  - { offset: 0x5903BC, size: 0x8, addend: 0x0, symName: '__ZNKSt3__110__function6__funcIZNK11llama_model13create_memoryERK19llama_memory_paramsRK13llama_cparamsE3$_0NS_9allocatorIS9_EEFbiEE7__cloneEv', symObjAddr: 0x4E9B8, symBinAddr: 0xBB7D4, symSize: 0x24 }
  - { offset: 0x590508, size: 0x8, addend: 0x0, symName: '__ZNKSt3__110__function6__funcIZNK11llama_model13create_memoryERK19llama_memory_paramsRK13llama_cparamsE3$_0NS_9allocatorIS9_EEFbiEE7__cloneEPNS0_6__baseISC_EE', symObjAddr: 0x4E9DC, symBinAddr: 0xBB7F8, symSize: 0x10 }
  - { offset: 0x59053B, size: 0x8, addend: 0x0, symName: '__ZNKSt3__110__function6__funcIZNK11llama_model13create_memoryERK19llama_memory_paramsRK13llama_cparamsE3$_0NS_9allocatorIS9_EEFbiEE7__cloneEPNS0_6__baseISC_EE', symObjAddr: 0x4E9DC, symBinAddr: 0xBB7F8, symSize: 0x10 }
  - { offset: 0x590557, size: 0x8, addend: 0x0, symName: '__ZNKSt3__110__function6__funcIZNK11llama_model13create_memoryERK19llama_memory_paramsRK13llama_cparamsE3$_0NS_9allocatorIS9_EEFbiEE7__cloneEPNS0_6__baseISC_EE', symObjAddr: 0x4E9DC, symBinAddr: 0xBB7F8, symSize: 0x10 }
  - { offset: 0x590573, size: 0x8, addend: 0x0, symName: '__ZNSt3__110__function6__funcIZNK11llama_model13create_memoryERK19llama_memory_paramsRK13llama_cparamsE3$_0NS_9allocatorIS9_EEFbiEE7destroyEv', symObjAddr: 0x4E9EC, symBinAddr: 0xBB808, symSize: 0x4 }
  - { offset: 0x5905C8, size: 0x8, addend: 0x0, symName: '__ZNSt3__110__function6__funcIZNK11llama_model13create_memoryERK19llama_memory_paramsRK13llama_cparamsE3$_0NS_9allocatorIS9_EEFbiEE18destroy_deallocateEv', symObjAddr: 0x4E9F0, symBinAddr: 0xBB80C, symSize: 0x4 }
  - { offset: 0x5905FB, size: 0x8, addend: 0x0, symName: '__ZNSt3__110__function6__funcIZNK11llama_model13create_memoryERK19llama_memory_paramsRK13llama_cparamsE3$_0NS_9allocatorIS9_EEFbiEE18destroy_deallocateEv', symObjAddr: 0x4E9F0, symBinAddr: 0xBB80C, symSize: 0x4 }
  - { offset: 0x59061E, size: 0x8, addend: 0x0, symName: '__ZNSt3__110__function6__funcIZNK11llama_model13create_memoryERK19llama_memory_paramsRK13llama_cparamsE3$_0NS_9allocatorIS9_EEFbiEE18destroy_deallocateEv', symObjAddr: 0x4E9F0, symBinAddr: 0xBB80C, symSize: 0x4 }
  - { offset: 0x590651, size: 0x8, addend: 0x0, symName: '__ZNSt3__110__function6__funcIZNK11llama_model13create_memoryERK19llama_memory_paramsRK13llama_cparamsE3$_0NS_9allocatorIS9_EEFbiEE18destroy_deallocateEv', symObjAddr: 0x4E9F0, symBinAddr: 0xBB80C, symSize: 0x4 }
  - { offset: 0x590679, size: 0x8, addend: 0x0, symName: '__ZNSt3__110__function6__funcIZNK11llama_model13create_memoryERK19llama_memory_paramsRK13llama_cparamsE3$_0NS_9allocatorIS9_EEFbiEEclEOi', symObjAddr: 0x4E9F4, symBinAddr: 0xBB810, symSize: 0x8 }
  - { offset: 0x5906A8, size: 0x8, addend: 0x0, symName: '__ZNKSt3__110__function6__funcIZNK11llama_model13create_memoryERK19llama_memory_paramsRK13llama_cparamsE3$_0NS_9allocatorIS9_EEFbiEE6targetERKSt9type_info', symObjAddr: 0x4E9FC, symBinAddr: 0xBB818, symSize: 0x64 }
  - { offset: 0x59075C, size: 0x8, addend: 0x0, symName: '__ZNKSt3__110__function6__funcIZNK11llama_model13create_memoryERK19llama_memory_paramsRK13llama_cparamsE3$_0NS_9allocatorIS9_EEFbiEE11target_typeEv', symObjAddr: 0x4EA60, symBinAddr: 0xBB87C, symSize: 0xC }
  - { offset: 0x590785, size: 0x8, addend: 0x0, symName: '__ZNSt3__110__function6__funcIZNK11llama_model13create_memoryERK19llama_memory_paramsRK13llama_cparamsE3$_1NS_9allocatorIS9_EEFbiEED1Ev', symObjAddr: 0x4EC04, symBinAddr: 0xBBA20, symSize: 0x4 }
  - { offset: 0x5907B1, size: 0x8, addend: 0x0, symName: '__ZNSt3__110__function6__funcIZNK11llama_model13create_memoryERK19llama_memory_paramsRK13llama_cparamsE3$_1NS_9allocatorIS9_EEFbiEED0Ev', symObjAddr: 0x4EC08, symBinAddr: 0xBBA24, symSize: 0x4 }
  - { offset: 0x590868, size: 0x8, addend: 0x0, symName: '__ZNKSt3__110__function6__funcIZNK11llama_model13create_memoryERK19llama_memory_paramsRK13llama_cparamsE3$_1NS_9allocatorIS9_EEFbiEE7__cloneEv', symObjAddr: 0x4EC0C, symBinAddr: 0xBBA28, symSize: 0x24 }
  - { offset: 0x5909B4, size: 0x8, addend: 0x0, symName: '__ZNKSt3__110__function6__funcIZNK11llama_model13create_memoryERK19llama_memory_paramsRK13llama_cparamsE3$_1NS_9allocatorIS9_EEFbiEE7__cloneEPNS0_6__baseISC_EE', symObjAddr: 0x4EC30, symBinAddr: 0xBBA4C, symSize: 0x10 }
  - { offset: 0x5909E7, size: 0x8, addend: 0x0, symName: '__ZNKSt3__110__function6__funcIZNK11llama_model13create_memoryERK19llama_memory_paramsRK13llama_cparamsE3$_1NS_9allocatorIS9_EEFbiEE7__cloneEPNS0_6__baseISC_EE', symObjAddr: 0x4EC30, symBinAddr: 0xBBA4C, symSize: 0x10 }
  - { offset: 0x590A03, size: 0x8, addend: 0x0, symName: '__ZNKSt3__110__function6__funcIZNK11llama_model13create_memoryERK19llama_memory_paramsRK13llama_cparamsE3$_1NS_9allocatorIS9_EEFbiEE7__cloneEPNS0_6__baseISC_EE', symObjAddr: 0x4EC30, symBinAddr: 0xBBA4C, symSize: 0x10 }
  - { offset: 0x590A1F, size: 0x8, addend: 0x0, symName: '__ZNSt3__110__function6__funcIZNK11llama_model13create_memoryERK19llama_memory_paramsRK13llama_cparamsE3$_1NS_9allocatorIS9_EEFbiEE7destroyEv', symObjAddr: 0x4EC40, symBinAddr: 0xBBA5C, symSize: 0x4 }
  - { offset: 0x590A74, size: 0x8, addend: 0x0, symName: '__ZNSt3__110__function6__funcIZNK11llama_model13create_memoryERK19llama_memory_paramsRK13llama_cparamsE3$_1NS_9allocatorIS9_EEFbiEE18destroy_deallocateEv', symObjAddr: 0x4EC44, symBinAddr: 0xBBA60, symSize: 0x4 }
  - { offset: 0x590AA7, size: 0x8, addend: 0x0, symName: '__ZNSt3__110__function6__funcIZNK11llama_model13create_memoryERK19llama_memory_paramsRK13llama_cparamsE3$_1NS_9allocatorIS9_EEFbiEE18destroy_deallocateEv', symObjAddr: 0x4EC44, symBinAddr: 0xBBA60, symSize: 0x4 }
  - { offset: 0x590ACA, size: 0x8, addend: 0x0, symName: '__ZNSt3__110__function6__funcIZNK11llama_model13create_memoryERK19llama_memory_paramsRK13llama_cparamsE3$_1NS_9allocatorIS9_EEFbiEE18destroy_deallocateEv', symObjAddr: 0x4EC44, symBinAddr: 0xBBA60, symSize: 0x4 }
  - { offset: 0x590AFD, size: 0x8, addend: 0x0, symName: '__ZNSt3__110__function6__funcIZNK11llama_model13create_memoryERK19llama_memory_paramsRK13llama_cparamsE3$_1NS_9allocatorIS9_EEFbiEE18destroy_deallocateEv', symObjAddr: 0x4EC44, symBinAddr: 0xBBA60, symSize: 0x4 }
  - { offset: 0x590B25, size: 0x8, addend: 0x0, symName: '__ZNSt3__110__function6__funcIZNK11llama_model13create_memoryERK19llama_memory_paramsRK13llama_cparamsE3$_1NS_9allocatorIS9_EEFbiEEclEOi', symObjAddr: 0x4EC48, symBinAddr: 0xBBA64, symSize: 0x8 }
  - { offset: 0x590B54, size: 0x8, addend: 0x0, symName: '__ZNKSt3__110__function6__funcIZNK11llama_model13create_memoryERK19llama_memory_paramsRK13llama_cparamsE3$_1NS_9allocatorIS9_EEFbiEE6targetERKSt9type_info', symObjAddr: 0x4EC50, symBinAddr: 0xBBA6C, symSize: 0x64 }
  - { offset: 0x590C08, size: 0x8, addend: 0x0, symName: '__ZNKSt3__110__function6__funcIZNK11llama_model13create_memoryERK19llama_memory_paramsRK13llama_cparamsE3$_1NS_9allocatorIS9_EEFbiEE11target_typeEv', symObjAddr: 0x4ECB4, symBinAddr: 0xBBAD0, symSize: 0xC }
  - { offset: 0x590C2B, size: 0x8, addend: 0x0, symName: '__ZNSt3__110__function6__funcIZNK11llama_model13create_memoryERK19llama_memory_paramsRK13llama_cparamsE3$_2NS_9allocatorIS9_EEFbiEED1Ev', symObjAddr: 0x4ECC0, symBinAddr: 0xBBADC, symSize: 0x4 }
  - { offset: 0x590C57, size: 0x8, addend: 0x0, symName: '__ZNSt3__110__function6__funcIZNK11llama_model13create_memoryERK19llama_memory_paramsRK13llama_cparamsE3$_2NS_9allocatorIS9_EEFbiEED0Ev', symObjAddr: 0x4ECC4, symBinAddr: 0xBBAE0, symSize: 0x4 }
  - { offset: 0x590D0E, size: 0x8, addend: 0x0, symName: '__ZNKSt3__110__function6__funcIZNK11llama_model13create_memoryERK19llama_memory_paramsRK13llama_cparamsE3$_2NS_9allocatorIS9_EEFbiEE7__cloneEv', symObjAddr: 0x4ECC8, symBinAddr: 0xBBAE4, symSize: 0x34 }
  - { offset: 0x590E5E, size: 0x8, addend: 0x0, symName: '__ZNKSt3__110__function6__funcIZNK11llama_model13create_memoryERK19llama_memory_paramsRK13llama_cparamsE3$_2NS_9allocatorIS9_EEFbiEE7__cloneEPNS0_6__baseISC_EE', symObjAddr: 0x4ECFC, symBinAddr: 0xBBB18, symSize: 0x14 }
  - { offset: 0x590ECB, size: 0x8, addend: 0x0, symName: '__ZNSt3__110__function6__funcIZNK11llama_model13create_memoryERK19llama_memory_paramsRK13llama_cparamsE3$_2NS_9allocatorIS9_EEFbiEE7destroyEv', symObjAddr: 0x4ED10, symBinAddr: 0xBBB2C, symSize: 0x4 }
  - { offset: 0x590F20, size: 0x8, addend: 0x0, symName: '__ZNSt3__110__function6__funcIZNK11llama_model13create_memoryERK19llama_memory_paramsRK13llama_cparamsE3$_2NS_9allocatorIS9_EEFbiEE18destroy_deallocateEv', symObjAddr: 0x4ED14, symBinAddr: 0xBBB30, symSize: 0x4 }
  - { offset: 0x590F53, size: 0x8, addend: 0x0, symName: '__ZNSt3__110__function6__funcIZNK11llama_model13create_memoryERK19llama_memory_paramsRK13llama_cparamsE3$_2NS_9allocatorIS9_EEFbiEE18destroy_deallocateEv', symObjAddr: 0x4ED14, symBinAddr: 0xBBB30, symSize: 0x4 }
  - { offset: 0x590F76, size: 0x8, addend: 0x0, symName: '__ZNSt3__110__function6__funcIZNK11llama_model13create_memoryERK19llama_memory_paramsRK13llama_cparamsE3$_2NS_9allocatorIS9_EEFbiEE18destroy_deallocateEv', symObjAddr: 0x4ED14, symBinAddr: 0xBBB30, symSize: 0x4 }
  - { offset: 0x590FA9, size: 0x8, addend: 0x0, symName: '__ZNSt3__110__function6__funcIZNK11llama_model13create_memoryERK19llama_memory_paramsRK13llama_cparamsE3$_2NS_9allocatorIS9_EEFbiEE18destroy_deallocateEv', symObjAddr: 0x4ED14, symBinAddr: 0xBBB30, symSize: 0x4 }
  - { offset: 0x59104C, size: 0x8, addend: 0x0, symName: '__ZNSt3__110__function6__funcIZNK11llama_model13create_memoryERK19llama_memory_paramsRK13llama_cparamsE3$_2NS_9allocatorIS9_EEFbiEEclEOi', symObjAddr: 0x4ED18, symBinAddr: 0xBBB34, symSize: 0x54 }
  - { offset: 0x5910CF, size: 0x8, addend: 0x0, symName: '__ZNKSt3__110__function6__funcIZNK11llama_model13create_memoryERK19llama_memory_paramsRK13llama_cparamsE3$_2NS_9allocatorIS9_EEFbiEE6targetERKSt9type_info', symObjAddr: 0x4ED6C, symBinAddr: 0xBBB88, symSize: 0x64 }
  - { offset: 0x591183, size: 0x8, addend: 0x0, symName: '__ZNKSt3__110__function6__funcIZNK11llama_model13create_memoryERK19llama_memory_paramsRK13llama_cparamsE3$_2NS_9allocatorIS9_EEFbiEE11target_typeEv', symObjAddr: 0x4EDD0, symBinAddr: 0xBBBEC, symSize: 0xC }
  - { offset: 0x5911A6, size: 0x8, addend: 0x0, symName: '__ZNSt3__110__function6__funcIZNK11llama_model13create_memoryERK19llama_memory_paramsRK13llama_cparamsE3$_3NS_9allocatorIS9_EEFbiEED1Ev', symObjAddr: 0x4EDDC, symBinAddr: 0xBBBF8, symSize: 0x4 }
  - { offset: 0x5911D2, size: 0x8, addend: 0x0, symName: '__ZNSt3__110__function6__funcIZNK11llama_model13create_memoryERK19llama_memory_paramsRK13llama_cparamsE3$_3NS_9allocatorIS9_EEFbiEED0Ev', symObjAddr: 0x4EDE0, symBinAddr: 0xBBBFC, symSize: 0x4 }
  - { offset: 0x591289, size: 0x8, addend: 0x0, symName: '__ZNKSt3__110__function6__funcIZNK11llama_model13create_memoryERK19llama_memory_paramsRK13llama_cparamsE3$_3NS_9allocatorIS9_EEFbiEE7__cloneEv', symObjAddr: 0x4EDE4, symBinAddr: 0xBBC00, symSize: 0x34 }
  - { offset: 0x5913D9, size: 0x8, addend: 0x0, symName: '__ZNKSt3__110__function6__funcIZNK11llama_model13create_memoryERK19llama_memory_paramsRK13llama_cparamsE3$_3NS_9allocatorIS9_EEFbiEE7__cloneEPNS0_6__baseISC_EE', symObjAddr: 0x4EE18, symBinAddr: 0xBBC34, symSize: 0x14 }
  - { offset: 0x591446, size: 0x8, addend: 0x0, symName: '__ZNSt3__110__function6__funcIZNK11llama_model13create_memoryERK19llama_memory_paramsRK13llama_cparamsE3$_3NS_9allocatorIS9_EEFbiEE7destroyEv', symObjAddr: 0x4EE2C, symBinAddr: 0xBBC48, symSize: 0x4 }
  - { offset: 0x59149B, size: 0x8, addend: 0x0, symName: '__ZNSt3__110__function6__funcIZNK11llama_model13create_memoryERK19llama_memory_paramsRK13llama_cparamsE3$_3NS_9allocatorIS9_EEFbiEE18destroy_deallocateEv', symObjAddr: 0x4EE30, symBinAddr: 0xBBC4C, symSize: 0x4 }
  - { offset: 0x5914CE, size: 0x8, addend: 0x0, symName: '__ZNSt3__110__function6__funcIZNK11llama_model13create_memoryERK19llama_memory_paramsRK13llama_cparamsE3$_3NS_9allocatorIS9_EEFbiEE18destroy_deallocateEv', symObjAddr: 0x4EE30, symBinAddr: 0xBBC4C, symSize: 0x4 }
  - { offset: 0x5914F1, size: 0x8, addend: 0x0, symName: '__ZNSt3__110__function6__funcIZNK11llama_model13create_memoryERK19llama_memory_paramsRK13llama_cparamsE3$_3NS_9allocatorIS9_EEFbiEE18destroy_deallocateEv', symObjAddr: 0x4EE30, symBinAddr: 0xBBC4C, symSize: 0x4 }
  - { offset: 0x591524, size: 0x8, addend: 0x0, symName: '__ZNSt3__110__function6__funcIZNK11llama_model13create_memoryERK19llama_memory_paramsRK13llama_cparamsE3$_3NS_9allocatorIS9_EEFbiEE18destroy_deallocateEv', symObjAddr: 0x4EE30, symBinAddr: 0xBBC4C, symSize: 0x4 }
  - { offset: 0x5915C7, size: 0x8, addend: 0x0, symName: '__ZNSt3__110__function6__funcIZNK11llama_model13create_memoryERK19llama_memory_paramsRK13llama_cparamsE3$_3NS_9allocatorIS9_EEFbiEEclEOi', symObjAddr: 0x4EE34, symBinAddr: 0xBBC50, symSize: 0x44 }
  - { offset: 0x591670, size: 0x8, addend: 0x0, symName: '__ZNKSt3__110__function6__funcIZNK11llama_model13create_memoryERK19llama_memory_paramsRK13llama_cparamsE3$_3NS_9allocatorIS9_EEFbiEE6targetERKSt9type_info', symObjAddr: 0x4EE78, symBinAddr: 0xBBC94, symSize: 0x64 }
  - { offset: 0x591724, size: 0x8, addend: 0x0, symName: '__ZNKSt3__110__function6__funcIZNK11llama_model13create_memoryERK19llama_memory_paramsRK13llama_cparamsE3$_3NS_9allocatorIS9_EEFbiEE11target_typeEv', symObjAddr: 0x4EEDC, symBinAddr: 0xBBCF8, symSize: 0xC }
  - { offset: 0x591747, size: 0x8, addend: 0x0, symName: '__ZNSt3__110__function6__funcIZNK11llama_model13create_memoryERK19llama_memory_paramsRK13llama_cparamsE3$_4NS_9allocatorIS9_EEFiiEED1Ev', symObjAddr: 0x4EEE8, symBinAddr: 0xBBD04, symSize: 0x4 }
  - { offset: 0x591773, size: 0x8, addend: 0x0, symName: '__ZNSt3__110__function6__funcIZNK11llama_model13create_memoryERK19llama_memory_paramsRK13llama_cparamsE3$_4NS_9allocatorIS9_EEFiiEED0Ev', symObjAddr: 0x4EEEC, symBinAddr: 0xBBD08, symSize: 0x4 }
  - { offset: 0x59182A, size: 0x8, addend: 0x0, symName: '__ZNKSt3__110__function6__funcIZNK11llama_model13create_memoryERK19llama_memory_paramsRK13llama_cparamsE3$_4NS_9allocatorIS9_EEFiiEE7__cloneEv', symObjAddr: 0x4EEF0, symBinAddr: 0xBBD0C, symSize: 0x34 }
  - { offset: 0x59197A, size: 0x8, addend: 0x0, symName: '__ZNKSt3__110__function6__funcIZNK11llama_model13create_memoryERK19llama_memory_paramsRK13llama_cparamsE3$_4NS_9allocatorIS9_EEFiiEE7__cloneEPNS0_6__baseISC_EE', symObjAddr: 0x4EF24, symBinAddr: 0xBBD40, symSize: 0x14 }
  - { offset: 0x5919E7, size: 0x8, addend: 0x0, symName: '__ZNSt3__110__function6__funcIZNK11llama_model13create_memoryERK19llama_memory_paramsRK13llama_cparamsE3$_4NS_9allocatorIS9_EEFiiEE7destroyEv', symObjAddr: 0x4EF38, symBinAddr: 0xBBD54, symSize: 0x4 }
  - { offset: 0x591A3C, size: 0x8, addend: 0x0, symName: '__ZNSt3__110__function6__funcIZNK11llama_model13create_memoryERK19llama_memory_paramsRK13llama_cparamsE3$_4NS_9allocatorIS9_EEFiiEE18destroy_deallocateEv', symObjAddr: 0x4EF3C, symBinAddr: 0xBBD58, symSize: 0x4 }
  - { offset: 0x591A6F, size: 0x8, addend: 0x0, symName: '__ZNSt3__110__function6__funcIZNK11llama_model13create_memoryERK19llama_memory_paramsRK13llama_cparamsE3$_4NS_9allocatorIS9_EEFiiEE18destroy_deallocateEv', symObjAddr: 0x4EF3C, symBinAddr: 0xBBD58, symSize: 0x4 }
  - { offset: 0x591A92, size: 0x8, addend: 0x0, symName: '__ZNSt3__110__function6__funcIZNK11llama_model13create_memoryERK19llama_memory_paramsRK13llama_cparamsE3$_4NS_9allocatorIS9_EEFiiEE18destroy_deallocateEv', symObjAddr: 0x4EF3C, symBinAddr: 0xBBD58, symSize: 0x4 }
  - { offset: 0x591AC5, size: 0x8, addend: 0x0, symName: '__ZNSt3__110__function6__funcIZNK11llama_model13create_memoryERK19llama_memory_paramsRK13llama_cparamsE3$_4NS_9allocatorIS9_EEFiiEE18destroy_deallocateEv', symObjAddr: 0x4EF3C, symBinAddr: 0xBBD58, symSize: 0x4 }
  - { offset: 0x591B68, size: 0x8, addend: 0x0, symName: '__ZNSt3__110__function6__funcIZNK11llama_model13create_memoryERK19llama_memory_paramsRK13llama_cparamsE3$_4NS_9allocatorIS9_EEFiiEEclEOi', symObjAddr: 0x4EF40, symBinAddr: 0xBBD5C, symSize: 0x54 }
  - { offset: 0x591BEB, size: 0x8, addend: 0x0, symName: '__ZNKSt3__110__function6__funcIZNK11llama_model13create_memoryERK19llama_memory_paramsRK13llama_cparamsE3$_4NS_9allocatorIS9_EEFiiEE6targetERKSt9type_info', symObjAddr: 0x4EF94, symBinAddr: 0xBBDB0, symSize: 0x64 }
  - { offset: 0x591C9F, size: 0x8, addend: 0x0, symName: '__ZNKSt3__110__function6__funcIZNK11llama_model13create_memoryERK19llama_memory_paramsRK13llama_cparamsE3$_4NS_9allocatorIS9_EEFiiEE11target_typeEv', symObjAddr: 0x4EFF8, symBinAddr: 0xBBE14, symSize: 0xC }
  - { offset: 0x591D51, size: 0x8, addend: 0x0, symName: __GLOBAL__sub_I_llama_model.cpp, symObjAddr: 0x5939C, symBinAddr: 0xBBFB8, symSize: 0x98 }
  - { offset: 0x593F9C, size: 0x8, addend: 0x0, symName: __ZL25llama_model_quantize_implRKNSt3__112basic_stringIcNS_11char_traitsIcEENS_9allocatorIcEEEES7_PK27llama_model_quantize_params, symObjAddr: 0x254, symBinAddr: 0xBC2A4, symSize: 0x5DE8 }
  - { offset: 0x5CBDF7, size: 0x8, addend: 0x0, symName: '__ZNSt3__111__introsortINS_17_ClassicAlgPolicyERZL25llama_model_quantize_implRKNS_12basic_stringIcNS_11char_traitsIcEENS_9allocatorIcEEEES9_PK27llama_model_quantize_paramsE3$_0PPKN18llama_model_loader19llama_tensor_weightELb0EEEvT1_SK_T0_NS_15iterator_traitsISK_E15difference_typeEb', symObjAddr: 0x1212C, symBinAddr: 0xC2880, symSize: 0xEA8 }
  - { offset: 0x5CDB6A, size: 0x8, addend: 0x0, symName: '__ZNSt3__127__insertion_sort_incompleteB8ne200100INS_17_ClassicAlgPolicyERZL25llama_model_quantize_implRKNS_12basic_stringIcNS_11char_traitsIcEENS_9allocatorIcEEEES9_PK27llama_model_quantize_paramsE3$_0PPKN18llama_model_loader19llama_tensor_weightEEEbT1_SK_T0_', symObjAddr: 0x13148, symBinAddr: 0xC389C, symSize: 0x41C }
  - { offset: 0x5E9ECF, size: 0x8, addend: 0x0, symName: '__ZNSt3__17__sort4B8ne200100INS_17_ClassicAlgPolicyERZL25llama_model_quantize_implRKNS_12basic_stringIcNS_11char_traitsIcEENS_9allocatorIcEEEES9_PK27llama_model_quantize_paramsE3$_0PPKN18llama_model_loader19llama_tensor_weightELi0EEEvT1_SK_SK_SK_T0_', symObjAddr: 0x12FD4, symBinAddr: 0xC3728, symSize: 0x174 }
  - { offset: 0x5EA9A2, size: 0x8, addend: 0x0, symName: '__ZNSt3__114__thread_proxyB8ne200100INS_5tupleIJNS_10unique_ptrINS_15__thread_structENS_14default_deleteIS3_EEEEZL28llama_tensor_dequantize_implP11ggml_tensorRNS_6vectorI7no_initIfENS_9allocatorISB_EEEERNS9_INS_6threadENSC_ISG_EEEEmiE3$_09ggml_typePhPfmEEEEEPvSP_', symObjAddr: 0x176F8, symBinAddr: 0xC41E8, symSize: 0xB4 }
  - { offset: 0x5EAD8D, size: 0x8, addend: 0x0, symName: '__ZNSt3__114__thread_proxyB8ne200100INS_5tupleIJNS_10unique_ptrINS_15__thread_structENS_14default_deleteIS3_EEEEZL26llama_tensor_quantize_impl9ggml_typePKfPvxxxS9_RNS_6vectorINS_6threadENS_9allocatorISC_EEEEiE3$_0EEEEESA_SA_', symObjAddr: 0x17930, symBinAddr: 0xC43E4, symSize: 0x78 }
  - { offset: 0x5EFBF5, size: 0x8, addend: 0x0, symName: _llama_model_quantize_default_params, symObjAddr: 0x0, symBinAddr: 0xBC050, symSize: 0x30 }
  - { offset: 0x5EFE9D, size: 0x8, addend: 0x0, symName: _llama_model_quantize, symObjAddr: 0x30, symBinAddr: 0xBC080, symSize: 0x224 }
  - { offset: 0x5F883C, size: 0x8, addend: 0x0, symName: __ZNSt3__16vectorIiNS_9allocatorIiEEE18__assign_with_sizeB8ne200100IPiS5_EEvT_T0_l, symObjAddr: 0x68D8, symBinAddr: 0xC2724, symSize: 0x148 }
  - { offset: 0x5F9C06, size: 0x8, addend: 0x0, symName: '__ZZL25llama_model_quantize_implRKNSt3__112basic_stringIcNS_11char_traitsIcEENS_9allocatorIcEEEES7_PK27llama_model_quantize_paramsENK3$_2clEi', symObjAddr: 0x6138, symBinAddr: 0xC208C, symSize: 0x38C }
  - { offset: 0x5FA884, size: 0x8, addend: 0x0, symName: '__ZZL25llama_model_quantize_implRKNSt3__112basic_stringIcNS_11char_traitsIcEENS_9allocatorIcEEEES7_PK27llama_model_quantize_paramsENK3$_1clEv', symObjAddr: 0x64C4, symBinAddr: 0xC2418, symSize: 0x1EC }
  - { offset: 0x5FB141, size: 0x8, addend: 0x0, symName: '__ZZL21llama_tensor_get_typeR19quantize_state_impl9ggml_typePK11ggml_tensor11llama_ftypeENK3$_1clEiiPKc', symObjAddr: 0x16F80, symBinAddr: 0xC3EBC, symSize: 0x164 }
  - { offset: 0x5FB34A, size: 0x8, addend: 0x0, symName: __ZNKSt3__112__hash_tableINS_17__hash_value_typeINS_12basic_stringIcNS_11char_traitsIcEENS_9allocatorIcEEEENS_6vectorIfNS5_IfEEEEEENS_22__unordered_map_hasherIS7_SB_NS_4hashIS7_EENS_8equal_toIS7_EELb1EEENS_21__unordered_map_equalIS7_SB_SG_SE_Lb1EEENS5_ISB_EEE4findIS7_EENS_21__hash_const_iteratorIPNS_11__hash_nodeISB_PvEEEERKT_, symObjAddr: 0x170E4, symBinAddr: 0xC4020, symSize: 0x1B4 }
  - { offset: 0x5FB7C6, size: 0x8, addend: 0x0, symName: __ZNSt3__16__treeINS_12__value_typeIiNS_12basic_stringIcNS_11char_traitsIcEENS_9allocatorIcEEEEEENS_19__map_value_compareIiS8_NS_4lessIiEELb1EEENS5_IS8_EEE7destroyEPNS_11__tree_nodeIS8_PvEE, symObjAddr: 0x179F0, symBinAddr: 0xC44A4, symSize: 0x60 }
  - { offset: 0x5FBA08, size: 0x8, addend: 0x0, symName: __ZN18llama_model_loaderD2Ev, symObjAddr: 0x17A50, symBinAddr: 0xC4504, symSize: 0x1AC }
  - { offset: 0x5FC730, size: 0x8, addend: 0x0, symName: __ZNSt3__16vectorINS_6threadENS_9allocatorIS1_EEE20__throw_length_errorB8ne200100Ev, symObjAddr: 0x135A8, symBinAddr: 0xC3CB8, symSize: 0x14 }
  - { offset: 0x5FC748, size: 0x8, addend: 0x0, symName: __ZNSt3__114__split_bufferINS_6threadERNS_9allocatorIS1_EEED1Ev, symObjAddr: 0x135BC, symBinAddr: 0xC3CCC, symSize: 0x50 }
  - { offset: 0x5FC783, size: 0x8, addend: 0x0, symName: __ZNSt3__16vectorIPKN18llama_model_loader19llama_tensor_weightENS_9allocatorIS4_EEE20__throw_length_errorB8ne200100Ev, symObjAddr: 0x6AD0, symBinAddr: 0xC286C, symSize: 0x14 }
  - { offset: 0x5FC7BB, size: 0x8, addend: 0x0, symName: __ZNSt3__16vectorI7no_initIfENS_9allocatorIS2_EEE20__throw_length_errorB8ne200100Ev, symObjAddr: 0x176E4, symBinAddr: 0xC41D4, symSize: 0x14 }
  - { offset: 0x5FC7D3, size: 0x8, addend: 0x0, symName: '__ZNSt3__114__thread_proxyB8ne200100INS_5tupleIJNS_10unique_ptrINS_15__thread_structENS_14default_deleteIS3_EEEEZL28llama_tensor_dequantize_implP11ggml_tensorRNS_6vectorI7no_initIfENS_9allocatorISB_EEEERNS9_INS_6threadENSC_ISG_EEEEmiE3$_09ggml_typePhPfmEEEEEPvSP_', symObjAddr: 0x176F8, symBinAddr: 0xC41E8, symSize: 0xB4 }
  - { offset: 0x5FC7DE, size: 0x8, addend: 0x0, symName: __ZNSt3__128__exception_guard_exceptionsINS_6vectorINS_10unique_ptrI12gguf_context20gguf_context_deleterEENS_9allocatorIS5_EEE16__destroy_vectorEED1B8ne200100Ev, symObjAddr: 0x1360C, symBinAddr: 0xC3D1C, symSize: 0x80 }
  - { offset: 0x5FC9DC, size: 0x8, addend: 0x0, symName: '__ZNSt3__110unique_ptrINS_5tupleIJNS0_INS_15__thread_structENS_14default_deleteIS2_EEEEZL28llama_tensor_dequantize_implP11ggml_tensorRNS_6vectorI7no_initIfENS_9allocatorISA_EEEERNS8_INS_6threadENSB_ISF_EEEEmiE3$_09ggml_typePhPfmEEENS3_ISN_EEED1B8ne200100Ev', symObjAddr: 0x177AC, symBinAddr: 0xC429C, symSize: 0x48 }
  - { offset: 0x5FCBDB, size: 0x8, addend: 0x0, symName: __ZNSt3__114__split_bufferINS_6threadERNS_9allocatorIS1_EEED1Ev, symObjAddr: 0x135BC, symBinAddr: 0xC3CCC, symSize: 0x50 }
  - { offset: 0x5FCD30, size: 0x8, addend: 0x0, symName: __ZNSt3__16vectorINS_10unique_ptrI12gguf_context20gguf_context_deleterEENS_9allocatorIS4_EEED1B8ne200100Ev, symObjAddr: 0x676C, symBinAddr: 0xC265C, symSize: 0x70 }
  - { offset: 0x5FCF1E, size: 0x8, addend: 0x0, symName: __ZNSt3__114basic_ofstreamIcNS_11char_traitsIcEEED1Ev, symObjAddr: 0x6714, symBinAddr: 0xC2604, symSize: 0x58 }
  - { offset: 0x5FD00F, size: 0x8, addend: 0x0, symName: '__ZNSt3__110unique_ptrINS_5tupleIJNS0_INS_15__thread_structENS_14default_deleteIS2_EEEEZL26llama_tensor_quantize_impl9ggml_typePKfPvxxxS8_RNS_6vectorINS_6threadENS_9allocatorISB_EEEEiE3$_0EEENS3_ISH_EEED1B8ne200100Ev', symObjAddr: 0x179A8, symBinAddr: 0xC445C, symSize: 0x48 }
  - { offset: 0x5FD1B7, size: 0x8, addend: 0x0, symName: __ZNSt3__16vectorINS_6threadENS_9allocatorIS1_EEED1B8ne200100Ev, symObjAddr: 0x67DC, symBinAddr: 0xC26CC, symSize: 0x58 }
  - { offset: 0x5FD83E, size: 0x8, addend: 0x0, symName: __ZNSt3__114basic_ofstreamIcNS_11char_traitsIcEEEC1ERKNS_12basic_stringIcS2_NS_9allocatorIcEEEEj, symObjAddr: 0x1368C, symBinAddr: 0xC3D9C, symSize: 0x120 }
  - { offset: 0x619C68, size: 0x8, addend: 0x0, symName: '__ZZL26llama_tensor_quantize_impl9ggml_typePKfPvxxxS1_RNSt3__16vectorINS3_6threadENS3_9allocatorIS5_EEEEiENK3$_0clEv', symObjAddr: 0x17830, symBinAddr: 0xC42E4, symSize: 0x100 }
  - { offset: 0x61C9C8, size: 0x8, addend: 0x0, symName: __MergedGlobals, symObjAddr: 0x1D2E8, symBinAddr: 0x2D43F0, symSize: 0x0 }
  - { offset: 0x61CBD7, size: 0x8, addend: 0x0, symName: __ZL22llama_sampler_greedy_i, symObjAddr: 0x1D1A8, symBinAddr: 0x2D42B0, symSize: 0x0 }
  - { offset: 0x61CBE5, size: 0x8, addend: 0x0, symName: __ZL12get_rng_seedj, symObjAddr: 0xA4C, symBinAddr: 0xC50FC, symSize: 0x15C }
  - { offset: 0x61CC11, size: 0x8, addend: 0x0, symName: __MergedGlobals.177, symObjAddr: 0x1FAA38, symBinAddr: 0x360158, symSize: 0x0 }
  - { offset: 0x61CFAC, size: 0x8, addend: 0x0, symName: __MergedGlobals, symObjAddr: 0x1D2E8, symBinAddr: 0x2D43F0, symSize: 0x0 }
  - { offset: 0x61CFC9, size: 0x8, addend: 0x0, symName: __MergedGlobals, symObjAddr: 0x1D2E8, symBinAddr: 0x2D43F0, symSize: 0x0 }
  - { offset: 0x61CFE7, size: 0x8, addend: 0x0, symName: __MergedGlobals, symObjAddr: 0x1D2E8, symBinAddr: 0x2D43F0, symSize: 0x0 }
  - { offset: 0x61CFF8, size: 0x8, addend: 0x0, symName: __ZL43llama_token_data_array_partial_sort_inplaceP22llama_token_data_arrayi, symObjAddr: 0x47F0, symBinAddr: 0xC8E14, symSize: 0x4BC }
  - { offset: 0x61D6EB, size: 0x8, addend: 0x0, symName: __ZL35llama_token_data_array_partial_sortRK22llama_token_data_arrayiRNSt3__16vectorI16llama_token_dataNS2_9allocatorIS4_EEEE, symObjAddr: 0x4CAC, symBinAddr: 0xC92D0, symSize: 0x5B8 }
  - { offset: 0x633008, size: 0x8, addend: 0x0, symName: '__ZNSt3__111__introsortINS_17_ClassicAlgPolicyERZL35llama_token_data_array_partial_sortRK22llama_token_data_arrayiRNS_6vectorI16llama_token_dataNS_9allocatorIS6_EEEEE3$_0PS6_Lb0EEEvT1_SE_T0_NS_15iterator_traitsISE_E15difference_typeEb', symObjAddr: 0x5328, symBinAddr: 0xC989C, symSize: 0xDA4 }
  - { offset: 0x63447A, size: 0x8, addend: 0x0, symName: '__ZNSt3__127__insertion_sort_incompleteB8ne200100INS_17_ClassicAlgPolicyERZL35llama_token_data_array_partial_sortRK22llama_token_data_arrayiRNS_6vectorI16llama_token_dataNS_9allocatorIS6_EEEEE3$_0PS6_EEbT1_SE_T0_', symObjAddr: 0x630C, symBinAddr: 0xCA880, symSize: 0x4B4 }
  - { offset: 0x6365DD, size: 0x8, addend: 0x0, symName: '__ZNSt3__111__introsortINS_17_ClassicAlgPolicyERZL27llama_sampler_typical_applyP13llama_samplerP22llama_token_data_arrayE3$_0PmLb0EEEvT1_S9_T0_NS_15iterator_traitsIS9_E15difference_typeEb', symObjAddr: 0x81E0, symBinAddr: 0xCC72C, symSize: 0xAD8 }
  - { offset: 0x6381F5, size: 0x8, addend: 0x0, symName: '__ZNSt3__127__insertion_sort_incompleteB8ne200100INS_17_ClassicAlgPolicyERZL27llama_sampler_typical_applyP13llama_samplerP22llama_token_data_arrayE3$_0PmEEbT1_S9_T0_', symObjAddr: 0x8E54, symBinAddr: 0xCD3A0, symSize: 0x358 }
  - { offset: 0x6434FC, size: 0x8, addend: 0x0, symName: __ZNSt3__113regex_replaceB8ne200100INS_20back_insert_iteratorINS_12basic_stringIcNS_11char_traitsIcEENS_9allocatorIcEEEEEEPKcNS_12regex_traitsIcEEcEET_SD_T0_SE_RKNS_11basic_regexIT2_T1_EEPKSG_NS_15regex_constants15match_flag_typeE, symObjAddr: 0x143A4, symBinAddr: 0xCFB78, symSize: 0x284 }
  - { offset: 0x645F60, size: 0x8, addend: 0x0, symName: '__ZNSt3__119__partial_sort_implB8ne200100INS_17_ClassicAlgPolicyERZL35llama_token_data_array_partial_sortRK22llama_token_data_arrayiRNS_6vectorI16llama_token_dataNS_9allocatorIS6_EEEEE3$_0PS6_SD_EET1_SE_SE_T2_OT0_', symObjAddr: 0x67C0, symBinAddr: 0xCAD34, symSize: 0x40C }
  - { offset: 0x64666F, size: 0x8, addend: 0x0, symName: '__ZNSt3__17__sort5B8ne200100INS_17_ClassicAlgPolicyERZL35llama_token_data_array_partial_sortRK22llama_token_data_arrayiRNS_6vectorI16llama_token_dataNS_9allocatorIS6_EEEEE3$_0PS6_Li0EEEvT1_SE_SE_SE_SE_T0_', symObjAddr: 0x60CC, symBinAddr: 0xCA640, symSize: 0x240 }
  - { offset: 0x647DA7, size: 0x8, addend: 0x0, symName: '__ZNSt3__17__sort5B8ne200100INS_17_ClassicAlgPolicyERZL27llama_sampler_typical_applyP13llama_samplerP22llama_token_data_arrayE3$_0PmLi0EEEvT1_S9_S9_S9_S9_T0_', symObjAddr: 0x8CB8, symBinAddr: 0xCD204, symSize: 0x19C }
  - { offset: 0x647E15, size: 0x8, addend: 0x0, symName: '__ZNSt3__17__sort5B8ne200100INS_17_ClassicAlgPolicyERZL27llama_sampler_typical_applyP13llama_samplerP22llama_token_data_arrayE3$_0PmLi0EEEvT1_S9_S9_S9_S9_T0_', symObjAddr: 0x8CB8, symBinAddr: 0xCD204, symSize: 0x19C }
  - { offset: 0x64E77C, size: 0x8, addend: 0x0, symName: __MergedGlobals, symObjAddr: 0x1D2E8, symBinAddr: 0x2D43F0, symSize: 0x0 }
  - { offset: 0x64E79A, size: 0x8, addend: 0x0, symName: __MergedGlobals, symObjAddr: 0x1D2E8, symBinAddr: 0x2D43F0, symSize: 0x0 }
  - { offset: 0x64E7B8, size: 0x8, addend: 0x0, symName: __MergedGlobals, symObjAddr: 0x1D2E8, symBinAddr: 0x2D43F0, symSize: 0x0 }
  - { offset: 0x64E7D6, size: 0x8, addend: 0x0, symName: __MergedGlobals, symObjAddr: 0x1D2E8, symBinAddr: 0x2D43F0, symSize: 0x0 }
  - { offset: 0x64E7F4, size: 0x8, addend: 0x0, symName: __MergedGlobals, symObjAddr: 0x1D2E8, symBinAddr: 0x2D43F0, symSize: 0x0 }
  - { offset: 0x64E812, size: 0x8, addend: 0x0, symName: __MergedGlobals, symObjAddr: 0x1D2E8, symBinAddr: 0x2D43F0, symSize: 0x0 }
  - { offset: 0x64E830, size: 0x8, addend: 0x0, symName: __MergedGlobals, symObjAddr: 0x1D2E8, symBinAddr: 0x2D43F0, symSize: 0x0 }
  - { offset: 0x64E84E, size: 0x8, addend: 0x0, symName: __MergedGlobals, symObjAddr: 0x1D2E8, symBinAddr: 0x2D43F0, symSize: 0x0 }
  - { offset: 0x64E85F, size: 0x8, addend: 0x0, symName: __ZL31llama_sampler_init_grammar_implPK11llama_vocabPKcS3_bPS3_mPKimS4_m, symObjAddr: 0x1238, symBinAddr: 0xC58E8, symSize: 0x600 }
  - { offset: 0x64E880, size: 0x8, addend: 0x0, symName: __MergedGlobals.177, symObjAddr: 0x1FAA38, symBinAddr: 0x360158, symSize: 0x0 }
  - { offset: 0x650213, size: 0x8, addend: 0x0, symName: __ZL23llama_sampler_grammar_i, symObjAddr: 0x1D298, symBinAddr: 0x2D43A0, symSize: 0x0 }
  - { offset: 0x65022E, size: 0x8, addend: 0x0, symName: __MergedGlobals, symObjAddr: 0x1D2E8, symBinAddr: 0x2D43F0, symSize: 0x0 }
  - { offset: 0x650251, size: 0x8, addend: 0x0, symName: __MergedGlobals, symObjAddr: 0x1D2E8, symBinAddr: 0x2D43F0, symSize: 0x0 }
  - { offset: 0x65026F, size: 0x8, addend: 0x0, symName: __MergedGlobals, symObjAddr: 0x1D2E8, symBinAddr: 0x2D43F0, symSize: 0x0 }
  - { offset: 0x65028D, size: 0x8, addend: 0x0, symName: __ZL26llama_sampler_adaptive_p_i, symObjAddr: 0x1D1F8, symBinAddr: 0x2D4300, symSize: 0x0 }
  - { offset: 0x6502E3, size: 0x8, addend: 0x0, symName: __MergedGlobals, symObjAddr: 0x1D2E8, symBinAddr: 0x2D43F0, symSize: 0x0 }
  - { offset: 0x650301, size: 0x8, addend: 0x0, symName: __ZL22llama_sampler_infill_i, symObjAddr: 0x1D248, symBinAddr: 0x2D4350, symSize: 0x0 }
  - { offset: 0x65180E, size: 0x8, addend: 0x0, symName: __ZL17llama_sample_distP22llama_token_data_arrayRNSt3__123mersenne_twister_engineIjLm32ELm624ELm397ELm31ELj2567483615ELm11ELj4294967295ELm7ELj2636928640ELm15ELj4022730752ELm18ELj1812433253EEE, symObjAddr: 0xAA98, symBinAddr: 0xCEFE4, symSize: 0x1D0 }
  - { offset: 0x65345D, size: 0x8, addend: 0x0, symName: _llama_sampler_init, symObjAddr: 0x0, symBinAddr: 0xC46B0, symSize: 0x2C }
  - { offset: 0x653484, size: 0x8, addend: 0x0, symName: _llama_sampler_name, symObjAddr: 0x2C, symBinAddr: 0xC46DC, symSize: 0x1C }
  - { offset: 0x6534BC, size: 0x8, addend: 0x0, symName: _llama_sampler_accept, symObjAddr: 0x48, symBinAddr: 0xC46F8, symSize: 0x18 }
  - { offset: 0x6534EB, size: 0x8, addend: 0x0, symName: _llama_sampler_apply, symObjAddr: 0x60, symBinAddr: 0xC4710, symSize: 0x48 }
  - { offset: 0x653520, size: 0x8, addend: 0x0, symName: _llama_sampler_reset, symObjAddr: 0xA8, symBinAddr: 0xC4758, symSize: 0x18 }
  - { offset: 0x65354D, size: 0x8, addend: 0x0, symName: _llama_sampler_reset, symObjAddr: 0xA8, symBinAddr: 0xC4758, symSize: 0x18 }
  - { offset: 0x65359C, size: 0x8, addend: 0x0, symName: _llama_sampler_clone, symObjAddr: 0xC0, symBinAddr: 0xC4770, symSize: 0x60 }
  - { offset: 0x6535EC, size: 0x8, addend: 0x0, symName: _llama_sampler_free, symObjAddr: 0x120, symBinAddr: 0xC47D0, symSize: 0x38 }
  - { offset: 0x6535FF, size: 0x8, addend: 0x0, symName: _llama_sampler_free, symObjAddr: 0x120, symBinAddr: 0xC47D0, symSize: 0x38 }
  - { offset: 0x653663, size: 0x8, addend: 0x0, symName: _llama_sampler_chain_init, symObjAddr: 0x158, symBinAddr: 0xC4808, symSize: 0x58 }
  - { offset: 0x653900, size: 0x8, addend: 0x0, symName: _llama_sampler_sample, symObjAddr: 0x1B0, symBinAddr: 0xC4860, symSize: 0x5AC }
  - { offset: 0x6541DB, size: 0x8, addend: 0x0, symName: __ZNSt3__16vectorI16llama_token_dataNS_9allocatorIS1_EEE8__appendEm, symObjAddr: 0x1B958, symBinAddr: 0xD4514, symSize: 0x180 }
  - { offset: 0x65459A, size: 0x8, addend: 0x0, symName: __ZNSt3__16vectorIN19llama_sampler_chain4infoENS_9allocatorIS2_EEE20__throw_length_errorB8ne200100Ev, symObjAddr: 0x1BAD8, symBinAddr: 0xD4694, symSize: 0x14 }
  - { offset: 0x65493E, size: 0x8, addend: 0x0, symName: _llama_sampler_chain_add, symObjAddr: 0x75C, symBinAddr: 0xC4E0C, symSize: 0xF4 }
  - { offset: 0x654D45, size: 0x8, addend: 0x0, symName: _llama_sampler_chain_get, symObjAddr: 0x850, symBinAddr: 0xC4F00, symSize: 0x50 }
  - { offset: 0x654D50, size: 0x8, addend: 0x0, symName: __ZNSt3__16vectorIN19llama_sampler_chain4infoENS_9allocatorIS2_EEE20__throw_length_errorB8ne200100Ev, symObjAddr: 0x1BAD8, symBinAddr: 0xD4694, symSize: 0x14 }
  - { offset: 0x654D73, size: 0x8, addend: 0x0, symName: _llama_sampler_chain_get, symObjAddr: 0x850, symBinAddr: 0xC4F00, symSize: 0x50 }
  - { offset: 0x654EF1, size: 0x8, addend: 0x0, symName: _llama_sampler_chain_remove, symObjAddr: 0x8A0, symBinAddr: 0xC4F50, symSize: 0x88 }
  - { offset: 0x655114, size: 0x8, addend: 0x0, symName: _llama_sampler_chain_n, symObjAddr: 0x928, symBinAddr: 0xC4FD8, symSize: 0x14 }
  - { offset: 0x65519B, size: 0x8, addend: 0x0, symName: _llama_sampler_init_greedy, symObjAddr: 0x93C, symBinAddr: 0xC4FEC, symSize: 0x58 }
  - { offset: 0x65520A, size: 0x8, addend: 0x0, symName: __ZN21llama_sampler_backendC2EPKc, symObjAddr: 0x38C8, symBinAddr: 0xC7EEC, symSize: 0x138 }
  - { offset: 0x655863, size: 0x8, addend: 0x0, symName: _llama_sampler_init_dist, symObjAddr: 0x994, symBinAddr: 0xC5044, symSize: 0xB8 }
  - { offset: 0x655B99, size: 0x8, addend: 0x0, symName: __ZNSt3__113random_deviceC1B8ne200100Ev, symObjAddr: 0x3A00, symBinAddr: 0xC8024, symSize: 0x98 }
  - { offset: 0x655EFA, size: 0x8, addend: 0x0, symName: __ZN21llama_sampler_backendD1Ev, symObjAddr: 0xBA8, symBinAddr: 0xC5258, symSize: 0x58 }
  - { offset: 0x65613E, size: 0x8, addend: 0x0, symName: _llama_sampler_init_top_k, symObjAddr: 0xC00, symBinAddr: 0xC52B0, symSize: 0xA0 }
  - { offset: 0x6561B5, size: 0x8, addend: 0x0, symName: _llama_sampler_init_top_p, symObjAddr: 0xCA0, symBinAddr: 0xC5350, symSize: 0xA4 }
  - { offset: 0x656274, size: 0x8, addend: 0x0, symName: _llama_sampler_init_min_p, symObjAddr: 0xD44, symBinAddr: 0xC53F4, symSize: 0x9C }
  - { offset: 0x6562F4, size: 0x8, addend: 0x0, symName: _llama_sampler_init_typical, symObjAddr: 0xDE0, symBinAddr: 0xC5490, symSize: 0x80 }
  - { offset: 0x656340, size: 0x8, addend: 0x0, symName: _llama_sampler_init_temp, symObjAddr: 0xE60, symBinAddr: 0xC5510, symSize: 0x98 }
  - { offset: 0x6563B7, size: 0x8, addend: 0x0, symName: _llama_sampler_init_temp_ext, symObjAddr: 0xEF8, symBinAddr: 0xC55A8, symSize: 0xB4 }
  - { offset: 0x656449, size: 0x8, addend: 0x0, symName: _llama_sampler_init_xtc, symObjAddr: 0xFAC, symBinAddr: 0xC565C, symSize: 0xE4 }
  - { offset: 0x65654A, size: 0x8, addend: 0x0, symName: _llama_sampler_init_mirostat, symObjAddr: 0x1090, symBinAddr: 0xC5740, symSize: 0xC8 }
  - { offset: 0x65665C, size: 0x8, addend: 0x0, symName: _llama_sampler_init_mirostat_v2, symObjAddr: 0x1158, symBinAddr: 0xC5808, symSize: 0xAC }
  - { offset: 0x65675C, size: 0x8, addend: 0x0, symName: _llama_sampler_init_grammar, symObjAddr: 0x1204, symBinAddr: 0xC58B4, symSize: 0x34 }
  - { offset: 0x656C54, size: 0x8, addend: 0x0, symName: _llama_sampler_init_grammar_lazy, symObjAddr: 0x1838, symBinAddr: 0xC5EE8, symSize: 0x34 }
  - { offset: 0x656D24, size: 0x8, addend: 0x0, symName: _llama_sampler_init_grammar_lazy_patterns, symObjAddr: 0x186C, symBinAddr: 0xC5F1C, symSize: 0x34 }
  - { offset: 0x65709B, size: 0x8, addend: 0x0, symName: _llama_sampler_init_penalties, symObjAddr: 0x18A0, symBinAddr: 0xC5F50, symSize: 0x11C }
  - { offset: 0x6573B5, size: 0x8, addend: 0x0, symName: _llama_sampler_init_top_n_sigma, symObjAddr: 0x19BC, symBinAddr: 0xC606C, symSize: 0x74 }
  - { offset: 0x658922, size: 0x8, addend: 0x0, symName: _llama_sampler_init_dry, symObjAddr: 0x1A30, symBinAddr: 0xC60E0, symSize: 0xB54 }
  - { offset: 0x65BAFF, size: 0x8, addend: 0x0, symName: __ZNSt3__112__hash_tableINS_17__hash_value_typeIiNS_6vectorIiNS_9allocatorIiEEEEEENS_22__unordered_map_hasherIiS6_NS_4hashIiEENS_8equal_toIiEELb1EEENS_21__unordered_map_equalIiS6_SB_S9_Lb1EEENS3_IS6_EEE27__node_insert_multi_prepareEmRS6_, symObjAddr: 0x1842C, symBinAddr: 0xD1108, symSize: 0x27C }
  - { offset: 0x65BDBE, size: 0x8, addend: 0x0, symName: __ZNSt3__112__hash_tableINS_17__hash_value_typeIiNS_6vectorIiNS_9allocatorIiEEEEEENS_22__unordered_map_hasherIiS6_NS_4hashIiEENS_8equal_toIiEELb1EEENS_21__unordered_map_equalIiS6_SB_S9_Lb1EEENS3_IS6_EEE19__node_insert_multiEPNS_11__hash_nodeIS6_PvEE, symObjAddr: 0x182A0, symBinAddr: 0xD0F7C, symSize: 0x12C }
  - { offset: 0x65C173, size: 0x8, addend: 0x0, symName: __ZNSt3__118unordered_multimapIiNS_6vectorIiNS_9allocatorIiEEEENS_4hashIiEENS_8equal_toIiEENS2_INS_4pairIKiS4_EEEEED1B8ne200100Ev, symObjAddr: 0x25CC, symBinAddr: 0xC6C34, symSize: 0x68 }
  - { offset: 0x65C58E, size: 0x8, addend: 0x0, symName: __ZNSt3__110unique_ptrINS_11__hash_nodeINS_17__hash_value_typeIiNS_6vectorIiNS_9allocatorIiEEEEEEPvEENS_22__hash_node_destructorINS4_IS9_EEEEED1B8ne200100Ev, symObjAddr: 0x183CC, symBinAddr: 0xD10A8, symSize: 0x60 }
  - { offset: 0x65CC73, size: 0x8, addend: 0x0, symName: __Z30llama_sampler_init_dry_testingiffiiRKNSt3__16vectorINS0_IiNS_9allocatorIiEEEENS1_IS3_EEEE, symObjAddr: 0x2634, symBinAddr: 0xC6C9C, symSize: 0x2B0 }
  - { offset: 0x65D741, size: 0x8, addend: 0x0, symName: _llama_sampler_init_adaptive_p, symObjAddr: 0x28E4, symBinAddr: 0xC6F4C, symSize: 0x108 }
  - { offset: 0x65DAFA, size: 0x8, addend: 0x0, symName: _llama_sampler_init_logit_bias, symObjAddr: 0x29EC, symBinAddr: 0xC7054, symSize: 0xF4 }
  - { offset: 0x65E055, size: 0x8, addend: 0x0, symName: _llama_sampler_init_infill, symObjAddr: 0x2AE0, symBinAddr: 0xC7148, symSize: 0x138 }
  - { offset: 0x65E548, size: 0x8, addend: 0x0, symName: _llama_sampler_get_seed, symObjAddr: 0x2C18, symBinAddr: 0xC7280, symSize: 0xD8 }
  - { offset: 0x65E6B5, size: 0x8, addend: 0x0, symName: _llama_perf_sampler, symObjAddr: 0x2CF0, symBinAddr: 0xC7358, symSize: 0x70 }
  - { offset: 0x65E745, size: 0x8, addend: 0x0, symName: _llama_perf_sampler_print, symObjAddr: 0x2D60, symBinAddr: 0xC73C8, symSize: 0x98 }
  - { offset: 0x65E7B0, size: 0x8, addend: 0x0, symName: _llama_perf_sampler_print, symObjAddr: 0x2D60, symBinAddr: 0xC73C8, symSize: 0x98 }
  - { offset: 0x65E884, size: 0x8, addend: 0x0, symName: _llama_perf_sampler_reset, symObjAddr: 0x2DF8, symBinAddr: 0xC7460, symSize: 0x58 }
  - { offset: 0x65E897, size: 0x8, addend: 0x0, symName: _llama_perf_sampler_reset, symObjAddr: 0x2DF8, symBinAddr: 0xC7460, symSize: 0x58 }
  - { offset: 0x65E8D1, size: 0x8, addend: 0x0, symName: __ZL24llama_sampler_chain_namePK13llama_sampler, symObjAddr: 0x2E50, symBinAddr: 0xC74B8, symSize: 0xC }
  - { offset: 0x65E8E4, size: 0x8, addend: 0x0, symName: __ZL24llama_sampler_chain_namePK13llama_sampler, symObjAddr: 0x2E50, symBinAddr: 0xC74B8, symSize: 0xC }
  - { offset: 0x65E93F, size: 0x8, addend: 0x0, symName: __ZL26llama_sampler_chain_acceptP13llama_sampleri, symObjAddr: 0x2E5C, symBinAddr: 0xC74C4, symSize: 0x9C }
  - { offset: 0x65EA5F, size: 0x8, addend: 0x0, symName: __ZL25llama_sampler_chain_applyP13llama_samplerP22llama_token_data_array, symObjAddr: 0x2EF8, symBinAddr: 0xC7560, symSize: 0xAC }
  - { offset: 0x65EB9B, size: 0x8, addend: 0x0, symName: __ZL25llama_sampler_chain_resetP13llama_sampler, symObjAddr: 0x2FA4, symBinAddr: 0xC760C, symSize: 0x4C }
  - { offset: 0x65ECEF, size: 0x8, addend: 0x0, symName: __ZL25llama_sampler_chain_clonePK13llama_sampler, symObjAddr: 0x2FF0, symBinAddr: 0xC7658, symSize: 0xE0 }
  - { offset: 0x65EE98, size: 0x8, addend: 0x0, symName: __ZL24llama_sampler_chain_freeP13llama_sampler, symObjAddr: 0x30D0, symBinAddr: 0xC7738, symSize: 0xA0 }
  - { offset: 0x65EF72, size: 0x8, addend: 0x0, symName: __ZL24llama_sampler_chain_freeP13llama_sampler, symObjAddr: 0x30D0, symBinAddr: 0xC7738, symSize: 0xA0 }
  - { offset: 0x65F2DE, size: 0x8, addend: 0x0, symName: __ZL32llama_sampler_chain_backend_initP13llama_samplerP24ggml_backend_buffer_type, symObjAddr: 0x3170, symBinAddr: 0xC77D8, symSize: 0xB4 }
  - { offset: 0x65F3D7, size: 0x8, addend: 0x0, symName: __ZL34llama_sampler_chain_backend_acceptP13llama_samplerP12ggml_contextP11ggml_cgraphP11ggml_tensor, symObjAddr: 0x3224, symBinAddr: 0xC788C, symSize: 0x84 }
  - { offset: 0x65F3EA, size: 0x8, addend: 0x0, symName: __ZL34llama_sampler_chain_backend_acceptP13llama_samplerP12ggml_contextP11ggml_cgraphP11ggml_tensor, symObjAddr: 0x3224, symBinAddr: 0xC788C, symSize: 0x84 }
  - { offset: 0x65F500, size: 0x8, addend: 0x0, symName: __ZL33llama_sampler_chain_backend_applyP13llama_samplerP12ggml_contextP11ggml_cgraphP18llama_sampler_data, symObjAddr: 0x32A8, symBinAddr: 0xC7910, symSize: 0xB8 }
  - { offset: 0x65F618, size: 0x8, addend: 0x0, symName: __ZL37llama_sampler_chain_backend_set_inputP13llama_sampler, symObjAddr: 0x3360, symBinAddr: 0xC79C8, symSize: 0x54 }
  - { offset: 0x65F62B, size: 0x8, addend: 0x0, symName: __ZL37llama_sampler_chain_backend_set_inputP13llama_sampler, symObjAddr: 0x3360, symBinAddr: 0xC79C8, symSize: 0x54 }
  - { offset: 0x65F714, size: 0x8, addend: 0x0, symName: __ZL25llama_sampler_greedy_namePK13llama_sampler, symObjAddr: 0x33C4, symBinAddr: 0xC7A1C, symSize: 0xC0 }
  - { offset: 0x65F979, size: 0x8, addend: 0x0, symName: __ZL26llama_sampler_greedy_applyP13llama_samplerP22llama_token_data_array, symObjAddr: 0x3484, symBinAddr: 0xC7ADC, symSize: 0x5C }
  - { offset: 0x65F9CB, size: 0x8, addend: 0x0, symName: __ZL26llama_sampler_greedy_resetP13llama_sampler, symObjAddr: 0x34E0, symBinAddr: 0xC7B38, symSize: 0x4 }
  - { offset: 0x65FA0D, size: 0x8, addend: 0x0, symName: __ZL26llama_sampler_greedy_clonePK13llama_sampler, symObjAddr: 0x34E4, symBinAddr: 0xC7B3C, symSize: 0x58 }
  - { offset: 0x65FAFD, size: 0x8, addend: 0x0, symName: __ZL25llama_sampler_greedy_freeP13llama_sampler, symObjAddr: 0x353C, symBinAddr: 0xC7B94, symSize: 0x68 }
  - { offset: 0x65FD70, size: 0x8, addend: 0x0, symName: __ZL33llama_sampler_greedy_backend_initP13llama_samplerP24ggml_backend_buffer_type, symObjAddr: 0x35A4, symBinAddr: 0xC7BFC, symSize: 0x60 }
  - { offset: 0x65FE01, size: 0x8, addend: 0x0, symName: __ZL34llama_sampler_greedy_backend_applyP13llama_samplerP12ggml_contextP11ggml_cgraphP18llama_sampler_data, symObjAddr: 0x3604, symBinAddr: 0xC7C5C, symSize: 0x3C }
  - { offset: 0x65FE14, size: 0x8, addend: 0x0, symName: __ZL29llama_sampler_backend_supportP13llama_samplerP24ggml_backend_buffer_type, symObjAddr: 0x3640, symBinAddr: 0xC7C98, symSize: 0x254 }
  - { offset: 0x6602B7, size: 0x8, addend: 0x0, symName: __ZL34llama_sampler_greedy_backend_applyP13llama_samplerP12ggml_contextP11ggml_cgraphP18llama_sampler_data, symObjAddr: 0x3604, symBinAddr: 0xC7C5C, symSize: 0x3C }
  - { offset: 0x6605EF, size: 0x8, addend: 0x0, symName: __ZL23llama_sampler_dist_namePK13llama_sampler, symObjAddr: 0x3A98, symBinAddr: 0xC80BC, symSize: 0xC0 }
  - { offset: 0x660979, size: 0x8, addend: 0x0, symName: __ZL24llama_sampler_dist_applyP13llama_samplerP22llama_token_data_array, symObjAddr: 0x3B58, symBinAddr: 0xC817C, symSize: 0x2CC }
  - { offset: 0x660BE6, size: 0x8, addend: 0x0, symName: __ZL24llama_sampler_dist_resetP13llama_sampler, symObjAddr: 0x3E24, symBinAddr: 0xC8448, symSize: 0x68 }
  - { offset: 0x660C96, size: 0x8, addend: 0x0, symName: __ZL24llama_sampler_dist_clonePK13llama_sampler, symObjAddr: 0x3E8C, symBinAddr: 0xC84B0, symSize: 0xE4 }
  - { offset: 0x660ED2, size: 0x8, addend: 0x0, symName: __ZL23llama_sampler_dist_freeP13llama_sampler, symObjAddr: 0x3F70, symBinAddr: 0xC8594, symSize: 0x90 }
  - { offset: 0x661280, size: 0x8, addend: 0x0, symName: __ZL31llama_sampler_dist_backend_initP13llama_samplerP24ggml_backend_buffer_type, symObjAddr: 0x4000, symBinAddr: 0xC8624, symSize: 0x134 }
  - { offset: 0x6615AF, size: 0x8, addend: 0x0, symName: __ZL32llama_sampler_dist_backend_applyP13llama_samplerP12ggml_contextP11ggml_cgraphP18llama_sampler_data, symObjAddr: 0x4134, symBinAddr: 0xC8758, symSize: 0x144 }
  - { offset: 0x66191E, size: 0x8, addend: 0x0, symName: __ZL36llama_sampler_dist_backend_set_inputP13llama_sampler, symObjAddr: 0x4278, symBinAddr: 0xC889C, symSize: 0x18C }
  - { offset: 0x661A9D, size: 0x8, addend: 0x0, symName: __ZL24llama_sampler_empty_namePK13llama_sampler, symObjAddr: 0x4404, symBinAddr: 0xC8A28, symSize: 0xC }
  - { offset: 0x661ACC, size: 0x8, addend: 0x0, symName: __ZL24llama_sampler_empty_namePK13llama_sampler, symObjAddr: 0x4404, symBinAddr: 0xC8A28, symSize: 0xC }
  - { offset: 0x661B0C, size: 0x8, addend: 0x0, symName: __ZL26llama_sampler_empty_acceptP13llama_sampleri, symObjAddr: 0x4410, symBinAddr: 0xC8A34, symSize: 0x4 }
  - { offset: 0x661B40, size: 0x8, addend: 0x0, symName: __ZL25llama_sampler_empty_applyP13llama_samplerP22llama_token_data_array, symObjAddr: 0x4414, symBinAddr: 0xC8A38, symSize: 0x4 }
  - { offset: 0x661B74, size: 0x8, addend: 0x0, symName: __ZL25llama_sampler_empty_resetP13llama_sampler, symObjAddr: 0x4418, symBinAddr: 0xC8A3C, symSize: 0x4 }
  - { offset: 0x661B9C, size: 0x8, addend: 0x0, symName: __ZL25llama_sampler_empty_clonePK13llama_sampler, symObjAddr: 0x441C, symBinAddr: 0xC8A40, symSize: 0x44 }
  - { offset: 0x661C1F, size: 0x8, addend: 0x0, symName: __ZL24llama_sampler_empty_freeP13llama_sampler, symObjAddr: 0x4460, symBinAddr: 0xC8A84, symSize: 0x10 }
  - { offset: 0x661C4B, size: 0x8, addend: 0x0, symName: __ZL32llama_sampler_empty_backend_initP13llama_samplerP24ggml_backend_buffer_type, symObjAddr: 0x4470, symBinAddr: 0xC8A94, symSize: 0x8 }
  - { offset: 0x661C83, size: 0x8, addend: 0x0, symName: __ZL34llama_sampler_empty_backend_acceptP13llama_samplerP12ggml_contextP11ggml_cgraphP11ggml_tensor, symObjAddr: 0x4478, symBinAddr: 0xC8A9C, symSize: 0x4 }
  - { offset: 0x661CCF, size: 0x8, addend: 0x0, symName: __ZL33llama_sampler_empty_backend_applyP13llama_samplerP12ggml_contextP11ggml_cgraphP18llama_sampler_data, symObjAddr: 0x447C, symBinAddr: 0xC8AA0, symSize: 0x4 }
  - { offset: 0x661D1B, size: 0x8, addend: 0x0, symName: __ZL37llama_sampler_empty_backend_set_inputP13llama_sampler, symObjAddr: 0x4480, symBinAddr: 0xC8AA4, symSize: 0x4 }
  - { offset: 0x661D43, size: 0x8, addend: 0x0, symName: __ZL24llama_sampler_top_k_namePK13llama_sampler, symObjAddr: 0x4484, symBinAddr: 0xC8AA8, symSize: 0xC0 }
  - { offset: 0x661FCF, size: 0x8, addend: 0x0, symName: __ZL25llama_sampler_top_k_applyP13llama_samplerP22llama_token_data_array, symObjAddr: 0x4544, symBinAddr: 0xC8B68, symSize: 0x58 }
  - { offset: 0x662075, size: 0x8, addend: 0x0, symName: __ZL25llama_sampler_top_k_clonePK13llama_sampler, symObjAddr: 0x459C, symBinAddr: 0xC8BC0, symSize: 0xA4 }
  - { offset: 0x66215F, size: 0x8, addend: 0x0, symName: __ZL24llama_sampler_top_k_freeP13llama_sampler, symObjAddr: 0x4640, symBinAddr: 0xC8C64, symSize: 0x68 }
  - { offset: 0x6623B0, size: 0x8, addend: 0x0, symName: __ZL32llama_sampler_top_k_backend_initP13llama_samplerP24ggml_backend_buffer_type, symObjAddr: 0x46A8, symBinAddr: 0xC8CCC, symSize: 0x60 }
  - { offset: 0x662441, size: 0x8, addend: 0x0, symName: __ZL33llama_sampler_top_k_backend_applyP13llama_samplerP12ggml_contextP11ggml_cgraphP18llama_sampler_data, symObjAddr: 0x4708, symBinAddr: 0xC8D2C, symSize: 0xE8 }
  - { offset: 0x662454, size: 0x8, addend: 0x0, symName: __ZL33llama_sampler_top_k_backend_applyP13llama_samplerP12ggml_contextP11ggml_cgraphP18llama_sampler_data, symObjAddr: 0x4708, symBinAddr: 0xC8D2C, symSize: 0xE8 }
  - { offset: 0x662CDD, size: 0x8, addend: 0x0, symName: __ZNSt3__16vectorIP16llama_token_dataNS_9allocatorIS2_EEE20__throw_length_errorB8ne200100Ev, symObjAddr: 0x5314, symBinAddr: 0xC9888, symSize: 0x14 }
  - { offset: 0x662CF5, size: 0x8, addend: 0x0, symName: '__ZNSt3__111__introsortINS_17_ClassicAlgPolicyERZL35llama_token_data_array_partial_sortRK22llama_token_data_arrayiRNS_6vectorI16llama_token_dataNS_9allocatorIS6_EEEEE3$_0PS6_Lb0EEEvT1_SE_T0_NS_15iterator_traitsISE_E15difference_typeEb', symObjAddr: 0x5328, symBinAddr: 0xC989C, symSize: 0xDA4 }
  - { offset: 0x662DB8, size: 0x8, addend: 0x0, symName: __ZL24llama_sampler_top_p_namePK13llama_sampler, symObjAddr: 0x6BCC, symBinAddr: 0xCB140, symSize: 0xC0 }
  - { offset: 0x663094, size: 0x8, addend: 0x0, symName: __ZL25llama_sampler_top_p_applyP13llama_samplerP22llama_token_data_array, symObjAddr: 0x6C8C, symBinAddr: 0xCB200, symSize: 0x2D8 }
  - { offset: 0x6633ED, size: 0x8, addend: 0x0, symName: __ZL25llama_sampler_top_p_clonePK13llama_sampler, symObjAddr: 0x6F64, symBinAddr: 0xCB4D8, symSize: 0xA8 }
  - { offset: 0x663433, size: 0x8, addend: 0x0, symName: __ZL25llama_sampler_top_p_clonePK13llama_sampler, symObjAddr: 0x6F64, symBinAddr: 0xCB4D8, symSize: 0xA8 }
  - { offset: 0x663565, size: 0x8, addend: 0x0, symName: __ZL24llama_sampler_top_p_freeP13llama_sampler, symObjAddr: 0x700C, symBinAddr: 0xCB580, symSize: 0x78 }
  - { offset: 0x6638E2, size: 0x8, addend: 0x0, symName: __ZL32llama_sampler_top_p_backend_initP13llama_samplerP24ggml_backend_buffer_type, symObjAddr: 0x7084, symBinAddr: 0xCB5F8, symSize: 0x60 }
  - { offset: 0x663973, size: 0x8, addend: 0x0, symName: __ZL33llama_sampler_top_p_backend_applyP13llama_samplerP12ggml_contextP11ggml_cgraphP18llama_sampler_data, symObjAddr: 0x70E4, symBinAddr: 0xCB658, symSize: 0x2A0 }
  - { offset: 0x663986, size: 0x8, addend: 0x0, symName: __ZL33llama_sampler_top_p_backend_applyP13llama_samplerP12ggml_contextP11ggml_cgraphP18llama_sampler_data, symObjAddr: 0x70E4, symBinAddr: 0xCB658, symSize: 0x2A0 }
  - { offset: 0x663E2A, size: 0x8, addend: 0x0, symName: __ZL24llama_sampler_min_p_namePK13llama_sampler, symObjAddr: 0x7384, symBinAddr: 0xCB8F8, symSize: 0xC0 }
  - { offset: 0x663F41, size: 0x8, addend: 0x0, symName: __ZL24llama_sampler_min_p_namePK13llama_sampler, symObjAddr: 0x7384, symBinAddr: 0xCB8F8, symSize: 0xC0 }
  - { offset: 0x6644A0, size: 0x8, addend: 0x0, symName: __ZL25llama_sampler_min_p_applyP13llama_samplerP22llama_token_data_array, symObjAddr: 0x7444, symBinAddr: 0xCB9B8, symSize: 0x2DC }
  - { offset: 0x664C15, size: 0x8, addend: 0x0, symName: __ZNSt3__16vectorI16llama_token_dataNS_9allocatorIS1_EEE20__throw_length_errorB8ne200100Ev, symObjAddr: 0x79AC, symBinAddr: 0xCBF20, symSize: 0x14 }
  - { offset: 0x664C2D, size: 0x8, addend: 0x0, symName: __ZL26llama_sampler_typical_namePK13llama_sampler, symObjAddr: 0x79C0, symBinAddr: 0xCBF34, symSize: 0xC }
  - { offset: 0x664C6B, size: 0x8, addend: 0x0, symName: __ZL25llama_sampler_min_p_clonePK13llama_sampler, symObjAddr: 0x7720, symBinAddr: 0xCBC94, symSize: 0xA0 }
  - { offset: 0x664D5E, size: 0x8, addend: 0x0, symName: __ZL24llama_sampler_min_p_freeP13llama_sampler, symObjAddr: 0x77C0, symBinAddr: 0xCBD34, symSize: 0x68 }
  - { offset: 0x664FAF, size: 0x8, addend: 0x0, symName: __ZL32llama_sampler_min_p_backend_initP13llama_samplerP24ggml_backend_buffer_type, symObjAddr: 0x7828, symBinAddr: 0xCBD9C, symSize: 0x60 }
  - { offset: 0x665040, size: 0x8, addend: 0x0, symName: __ZL33llama_sampler_min_p_backend_applyP13llama_samplerP12ggml_contextP11ggml_cgraphP18llama_sampler_data, symObjAddr: 0x7888, symBinAddr: 0xCBDFC, symSize: 0x124 }
  - { offset: 0x665053, size: 0x8, addend: 0x0, symName: __ZL33llama_sampler_min_p_backend_applyP13llama_samplerP12ggml_contextP11ggml_cgraphP18llama_sampler_data, symObjAddr: 0x7888, symBinAddr: 0xCBDFC, symSize: 0x124 }
  - { offset: 0x665256, size: 0x8, addend: 0x0, symName: __ZL26llama_sampler_typical_namePK13llama_sampler, symObjAddr: 0x79C0, symBinAddr: 0xCBF34, symSize: 0xC }
  - { offset: 0x665761, size: 0x8, addend: 0x0, symName: __ZL27llama_sampler_typical_applyP13llama_samplerP22llama_token_data_array, symObjAddr: 0x79CC, symBinAddr: 0xCBF40, symSize: 0x758 }
  - { offset: 0x666AEB, size: 0x8, addend: 0x0, symName: '__ZNSt3__111__introsortINS_17_ClassicAlgPolicyERZL27llama_sampler_typical_applyP13llama_samplerP22llama_token_data_arrayE3$_0PmLb0EEEvT1_S9_T0_NS_15iterator_traitsIS9_E15difference_typeEb', symObjAddr: 0x81E0, symBinAddr: 0xCC72C, symSize: 0xAD8 }
  - { offset: 0x666B29, size: 0x8, addend: 0x0, symName: __ZL27llama_sampler_typical_clonePK13llama_sampler, symObjAddr: 0x8124, symBinAddr: 0xCC698, symSize: 0x84 }
  - { offset: 0x666BA7, size: 0x8, addend: 0x0, symName: __ZL26llama_sampler_typical_freeP13llama_sampler, symObjAddr: 0x81A8, symBinAddr: 0xCC71C, symSize: 0x10 }
  - { offset: 0x666CA4, size: 0x8, addend: 0x0, symName: __ZL23llama_sampler_temp_namePK13llama_sampler, symObjAddr: 0x91AC, symBinAddr: 0xCD6F8, symSize: 0xC0 }
  - { offset: 0x666F66, size: 0x8, addend: 0x0, symName: __ZL24llama_sampler_temp_applyP13llama_samplerP22llama_token_data_array, symObjAddr: 0x926C, symBinAddr: 0xCD7B8, symSize: 0x114 }
  - { offset: 0x667033, size: 0x8, addend: 0x0, symName: __ZL24llama_sampler_temp_clonePK13llama_sampler, symObjAddr: 0x9380, symBinAddr: 0xCD8CC, symSize: 0x9C }
