---
triple:          'arm64-apple-darwin'
binary-path:     '/opt/UnitySrc/personal/ocs-test/llama_dart/src/native/llama_cpp/build-visionos/framework/llama.framework/llama'
relocations:
  - { offset: 0x25B1E, size: 0x8, addend: 0x0, symName: __ZNSt3__127__tree_balance_after_insertB8ne200100IPNS_16__tree_node_baseIPvEEEEvT_S5_, symObjAddr: 0x30E0, symBinAddr: 0x70E0, symSize: 0x1AC }
  - { offset: 0x26C72, size: 0x8, addend: 0x0, symName: __ZNSt3__120__throw_length_errorB8ne200100EPKc, symObjAddr: 0x32A0, symBinAddr: 0x72A0, symSize: 0x50 }
  - { offset: 0x271E9, size: 0x8, addend: 0x0, symName: __ZNSt3__120__throw_out_of_rangeB8ne200100EPKc, symObjAddr: 0x41AC, symBinAddr: 0x81AC, symSize: 0x50 }
  - { offset: 0x28D16, size: 0x8, addend: 0x0, symName: __ZSt28__throw_bad_array_new_lengthB8ne200100v, symObjAddr: 0x30B8, symBinAddr: 0x70B8, symSize: 0x28 }
  - { offset: 0x30203, size: 0x8, addend: 0x0, symName: __ZNK18llama_adapter_cvec10tensor_forEi, symObjAddr: 0x0, symBinAddr: 0x4000, symSize: 0x40 }
  - { offset: 0x3026D, size: 0x8, addend: 0x0, symName: __ZNK18llama_adapter_cvec8apply_toEP12ggml_contextP11ggml_tensori, symObjAddr: 0x40, symBinAddr: 0x4040, symSize: 0x50 }
  - { offset: 0x302D4, size: 0x8, addend: 0x0, symName: __ZNK18llama_adapter_cvec8apply_toEP12ggml_contextP11ggml_tensori, symObjAddr: 0x40, symBinAddr: 0x4040, symSize: 0x50 }
  - { offset: 0x3092F, size: 0x8, addend: 0x0, symName: __ZN18llama_adapter_cvec4initERK11llama_model, symObjAddr: 0x90, symBinAddr: 0x4090, symSize: 0x738 }
  - { offset: 0x336D4, size: 0x8, addend: 0x0, symName: __ZNSt3__16__treeINS_12__value_typeIP24ggml_backend_buffer_typeP12ggml_contextEENS_19__map_value_compareIS3_S6_NS_4lessIS3_EELb1EEENS_9allocatorIS6_EEE7destroyEPNS_11__tree_nodeIS6_PvEE, symObjAddr: 0x52EC, symBinAddr: 0x92EC, symSize: 0x44 }
  - { offset: 0x337EB, size: 0x8, addend: 0x0, symName: __ZNSt3__16vectorINS_10unique_ptrI19ggml_backend_buffer27ggml_backend_buffer_deleterEENS_9allocatorIS4_EEE20__throw_length_errorB8ne200100Ev, symObjAddr: 0x4C1C, symBinAddr: 0x8C1C, symSize: 0x14 }
  - { offset: 0x33803, size: 0x8, addend: 0x0, symName: __ZNSt3__16vectorIhNS_9allocatorIhEEE20__throw_length_errorB8ne200100Ev, symObjAddr: 0x4C30, symBinAddr: 0x8C30, symSize: 0x14 }
  - { offset: 0x3380E, size: 0x8, addend: 0x0, symName: __ZNSt3__16vectorIP11ggml_tensorNS_9allocatorIS2_EEE20__throw_length_errorB8ne200100Ev, symObjAddr: 0x5330, symBinAddr: 0x9330, symSize: 0x14 }
  - { offset: 0x33826, size: 0x8, addend: 0x0, symName: __ZNSt3__112__hash_tableINS_17__hash_value_typeINS_12basic_stringIcNS_11char_traitsIcEENS_9allocatorIcEEEE25llama_adapter_lora_weightEENS_22__unordered_map_hasherIS7_S9_NS_4hashIS7_EENS_8equal_toIS7_EELb1EEENS_21__unordered_map_equalIS7_S9_SE_SC_Lb1EEENS5_IS9_EEE4findIS7_EENS_15__hash_iteratorIPNS_11__hash_nodeIS9_PvEEEERKT_, symObjAddr: 0x5344, symBinAddr: 0x9344, symSize: 0x1B4 }
  - { offset: 0x33831, size: 0x8, addend: 0x0, symName: __ZNSt3__16vectorINS_10unique_ptrI12ggml_context20ggml_context_deleterEENS_9allocatorIS4_EEE20__throw_length_errorB8ne200100Ev, symObjAddr: 0x328C, symBinAddr: 0x728C, symSize: 0x14 }
  - { offset: 0x33849, size: 0x8, addend: 0x0, symName: __ZNSt3__120__throw_length_errorB8ne200100EPKc, symObjAddr: 0x32A0, symBinAddr: 0x72A0, symSize: 0x50 }
  - { offset: 0x33890, size: 0x8, addend: 0x0, symName: __ZN18llama_adapter_cvec5applyERK11llama_modelPKfmiii, symObjAddr: 0x7C8, symBinAddr: 0x47C8, symSize: 0x12C }
  - { offset: 0x33CD5, size: 0x8, addend: 0x0, symName: __ZN18llama_adapter_lora10get_weightEP11ggml_tensor, symObjAddr: 0x8F4, symBinAddr: 0x48F4, symSize: 0x100 }
  - { offset: 0x341C7, size: 0x8, addend: 0x0, symName: __ZNSt3__112__hash_tableINS_17__hash_value_typeINS_12basic_stringIcNS_11char_traitsIcEENS_9allocatorIcEEEE25llama_adapter_lora_weightEENS_22__unordered_map_hasherIS7_S9_NS_4hashIS7_EENS_8equal_toIS7_EELb1EEENS_21__unordered_map_equalIS7_S9_SE_SC_Lb1EEENS5_IS9_EEE4findIS7_EENS_15__hash_iteratorIPNS_11__hash_nodeIS9_PvEEEERKT_, symObjAddr: 0x5344, symBinAddr: 0x9344, symSize: 0x1B4 }
  - { offset: 0x344D0, size: 0x8, addend: 0x0, symName: __ZNSt3__112basic_stringIcNS_11char_traitsIcEENS_9allocatorIcEEE20__throw_length_errorB8ne200100Ev, symObjAddr: 0x4220, symBinAddr: 0x8220, symSize: 0x14 }
  - { offset: 0x344E8, size: 0x8, addend: 0x0, symName: __ZNSt3__112basic_stringIcNS_11char_traitsIcEENS_9allocatorIcEEE25__init_copy_ctor_externalEPKcm, symObjAddr: 0x4234, symBinAddr: 0x8234, symSize: 0x88 }
  - { offset: 0x344F3, size: 0x8, addend: 0x0, symName: __ZNSt3__112basic_stringIcNS_11char_traitsIcEENS_9allocatorIcEEEC1B8ne200100ILi0EEEPKc, symObjAddr: 0x9F4, symBinAddr: 0x49F4, symSize: 0xA4 }
  - { offset: 0x3475B, size: 0x8, addend: 0x0, symName: _llama_adapter_lora_init, symObjAddr: 0xA98, symBinAddr: 0x4A98, symSize: 0x100 }
  - { offset: 0x34940, size: 0x8, addend: 0x0, symName: _llama_adapter_lora_init, symObjAddr: 0xA98, symBinAddr: 0x4A98, symSize: 0x100 }
  - { offset: 0x34BC0, size: 0x8, addend: 0x0, symName: __ZL28llama_adapter_lora_init_implR11llama_modelPKcR18llama_adapter_lora, symObjAddr: 0xB98, symBinAddr: 0x4B98, symSize: 0x2270 }
  - { offset: 0x3D509, size: 0x8, addend: 0x0, symName: __ZN18llama_adapter_loraD2Ev, symObjAddr: 0x5180, symBinAddr: 0x9180, symSize: 0x16C }
  - { offset: 0x3F74F, size: 0x8, addend: 0x0, symName: __ZNSt3__112__hash_tableINS_17__hash_value_typeINS_12basic_stringIcNS_11char_traitsIcEENS_9allocatorIcEEEES7_EENS_22__unordered_map_hasherIS7_S8_NS_4hashIS7_EENS_8equal_toIS7_EELb1EEENS_21__unordered_map_equalIS7_S8_SD_SB_Lb1EEENS5_IS8_EEE21__emplace_unique_implIJRPKcRKS7_EEENS_4pairINS_15__hash_iteratorIPNS_11__hash_nodeIS8_PvEEEEbEEDpOT_, symObjAddr: 0x3530, symBinAddr: 0x7530, symSize: 0x140 }
  - { offset: 0x3FF52, size: 0x8, addend: 0x0, symName: __ZNSt3__112basic_stringIcNS_11char_traitsIcEENS_9allocatorIcEEE25__init_copy_ctor_externalEPKcm, symObjAddr: 0x4234, symBinAddr: 0x8234, symSize: 0x88 }
  - { offset: 0x40112, size: 0x8, addend: 0x0, symName: __ZNSt3__16vectorIiNS_9allocatorIiEEE8__appendEm, symObjAddr: 0x42BC, symBinAddr: 0x82BC, symSize: 0x120 }
  - { offset: 0x401B0, size: 0x8, addend: 0x0, symName: __ZNSt3__16vectorIiNS_9allocatorIiEEE8__appendEm, symObjAddr: 0x42BC, symBinAddr: 0x82BC, symSize: 0x120 }
  - { offset: 0x4058E, size: 0x8, addend: 0x0, symName: __ZNSt3__16vectorIiNS_9allocatorIiEEE20__throw_length_errorB8ne200100Ev, symObjAddr: 0x43DC, symBinAddr: 0x83DC, symSize: 0x14 }
  - { offset: 0x405FD, size: 0x8, addend: 0x0, symName: __ZNSt3__16__treeINS_12__value_typeINS_12basic_stringIcNS_11char_traitsIcEENS_9allocatorIcEEEE25llama_adapter_lora_weightEENS_19__map_value_compareIS7_S9_NS_4lessIS7_EELb1EEENS5_IS9_EEE25__emplace_unique_key_argsIS7_JRKNS_21piecewise_construct_tENS_5tupleIJRKS7_EEENSK_IJEEEEEENS_4pairINS_15__tree_iteratorIS9_PNS_11__tree_nodeIS9_PvEElEEbEERKT_DpOT0_, symObjAddr: 0x43F0, symBinAddr: 0x83F0, symSize: 0x1B0 }
  - { offset: 0x40D17, size: 0x8, addend: 0x0, symName: __ZNSt3__112__hash_tableINS_17__hash_value_typeINS_12basic_stringIcNS_11char_traitsIcEENS_9allocatorIcEEEE25llama_adapter_lora_weightEENS_22__unordered_map_hasherIS7_S9_NS_4hashIS7_EENS_8equal_toIS7_EELb1EEENS_21__unordered_map_equalIS7_S9_SE_SC_Lb1EEENS5_IS9_EEE25__emplace_unique_key_argsIS7_JRKNS_21piecewise_construct_tENS_5tupleIJRKS7_EEENSO_IJEEEEEENS_4pairINS_15__hash_iteratorIPNS_11__hash_nodeIS9_PvEEEEbEERKT_DpOT0_, symObjAddr: 0x4614, symBinAddr: 0x8614, symSize: 0x428 }
  - { offset: 0x4182A, size: 0x8, addend: 0x0, symName: '__ZZL28llama_adapter_lora_init_implR11llama_modelPKcR18llama_adapter_loraENK3$_4clEP11ggml_tensorS7_', symObjAddr: 0x337C, symBinAddr: 0x737C, symSize: 0x180 }
  - { offset: 0x41E17, size: 0x8, addend: 0x0, symName: __ZNSt3__110unique_ptrI12gguf_context20gguf_context_deleterED1B8ne200100Ev, symObjAddr: 0x34FC, symBinAddr: 0x74FC, symSize: 0x34 }
  - { offset: 0x41E28, size: 0x8, addend: 0x0, symName: __ZNSt3__112__hash_tableIP18llama_adapter_loraNS_4hashIS2_EENS_8equal_toIS2_EENS_9allocatorIS2_EEE25__emplace_unique_key_argsIS2_JS2_EEENS_4pairINS_15__hash_iteratorIPNS_11__hash_nodeIS2_PvEEEEbEERKT_DpOT0_, symObjAddr: 0x4C44, symBinAddr: 0x8C44, symSize: 0x35C }
  - { offset: 0x4257D, size: 0x8, addend: 0x0, symName: __ZNSt3__16__treeINS_12__value_typeINS_12basic_stringIcNS_11char_traitsIcEENS_9allocatorIcEEEE25llama_adapter_lora_weightEENS_19__map_value_compareIS7_S9_NS_4lessIS7_EELb1EEENS5_IS9_EEE7destroyEPNS_11__tree_nodeIS9_PvEE, symObjAddr: 0x5120, symBinAddr: 0x9120, symSize: 0x60 }
  - { offset: 0x427DA, size: 0x8, addend: 0x0, symName: __ZNSt3__112basic_stringIcNS_11char_traitsIcEENS_9allocatorIcEEE20__throw_out_of_rangeB8ne200100Ev, symObjAddr: 0x4198, symBinAddr: 0x8198, symSize: 0x14 }
  - { offset: 0x427F2, size: 0x8, addend: 0x0, symName: __ZNSt3__120__throw_out_of_rangeB8ne200100EPKc, symObjAddr: 0x41AC, symBinAddr: 0x81AC, symSize: 0x50 }
  - { offset: 0x427FD, size: 0x8, addend: 0x0, symName: __ZNSt3__16vectorIP24ggml_backend_buffer_typeNS_9allocatorIS2_EEE20__throw_length_errorB8ne200100Ev, symObjAddr: 0x4600, symBinAddr: 0x8600, symSize: 0x14 }
  - { offset: 0x42815, size: 0x8, addend: 0x0, symName: __ZNSt3__112__hash_tableINS_17__hash_value_typeINS_12basic_stringIcNS_11char_traitsIcEENS_9allocatorIcEEEE25llama_adapter_lora_weightEENS_22__unordered_map_hasherIS7_S9_NS_4hashIS7_EENS_8equal_toIS7_EELb1EEENS_21__unordered_map_equalIS7_S9_SE_SC_Lb1EEENS5_IS9_EEE25__emplace_unique_key_argsIS7_JRKNS_21piecewise_construct_tENS_5tupleIJRKS7_EEENSO_IJEEEEEENS_4pairINS_15__hash_iteratorIPNS_11__hash_nodeIS9_PvEEEEbEERKT_DpOT0_, symObjAddr: 0x4614, symBinAddr: 0x8614, symSize: 0x428 }
  - { offset: 0x42820, size: 0x8, addend: 0x0, symName: __ZNSt3__110unique_ptrI12gguf_context20gguf_context_deleterED1B8ne200100Ev, symObjAddr: 0x34FC, symBinAddr: 0x74FC, symSize: 0x34 }
  - { offset: 0x428B4, size: 0x8, addend: 0x0, symName: __ZNSt3__110unique_ptrI19ggml_backend_buffer27ggml_backend_buffer_deleterED1B8ne200100Ev, symObjAddr: 0x3348, symBinAddr: 0x7348, symSize: 0x34 }
  - { offset: 0x42948, size: 0x8, addend: 0x0, symName: __ZNSt3__110unique_ptrI12ggml_context20ggml_context_deleterED1B8ne200100Ev, symObjAddr: 0x3314, symBinAddr: 0x7314, symSize: 0x34 }
  - { offset: 0x42A04, size: 0x8, addend: 0x0, symName: _llama_adapter_meta_val_str, symObjAddr: 0x2E18, symBinAddr: 0x6E18, symSize: 0x13C }
  - { offset: 0x42FD4, size: 0x8, addend: 0x0, symName: __ZNKSt3__112__hash_tableINS_17__hash_value_typeINS_12basic_stringIcNS_11char_traitsIcEENS_9allocatorIcEEEES7_EENS_22__unordered_map_hasherIS7_S8_NS_4hashIS7_EENS_8equal_toIS7_EELb1EEENS_21__unordered_map_equalIS7_S8_SD_SB_Lb1EEENS5_IS8_EEE4findIS7_EENS_21__hash_const_iteratorIPNS_11__hash_nodeIS8_PvEEEERKT_, symObjAddr: 0x54F8, symBinAddr: 0x94F8, symSize: 0x1B4 }
  - { offset: 0x4332D, size: 0x8, addend: 0x0, symName: _llama_adapter_meta_count, symObjAddr: 0x2F54, symBinAddr: 0x6F54, symSize: 0x8 }
  - { offset: 0x4335B, size: 0x8, addend: 0x0, symName: _llama_adapter_meta_count, symObjAddr: 0x2F54, symBinAddr: 0x6F54, symSize: 0x8 }
  - { offset: 0x4337A, size: 0x8, addend: 0x0, symName: _llama_adapter_meta_count, symObjAddr: 0x2F54, symBinAddr: 0x6F54, symSize: 0x8 }
  - { offset: 0x4344D, size: 0x8, addend: 0x0, symName: _llama_adapter_meta_key_by_index, symObjAddr: 0x2F5C, symBinAddr: 0x6F5C, symSize: 0x84 }
  - { offset: 0x43687, size: 0x8, addend: 0x0, symName: _llama_adapter_meta_val_str_by_index, symObjAddr: 0x2FE0, symBinAddr: 0x6FE0, symSize: 0x84 }
  - { offset: 0x43878, size: 0x8, addend: 0x0, symName: _llama_adapter_lora_free, symObjAddr: 0x3064, symBinAddr: 0x7064, symSize: 0x4 }
  - { offset: 0x4389B, size: 0x8, addend: 0x0, symName: _llama_adapter_get_alora_n_invocation_tokens, symObjAddr: 0x3068, symBinAddr: 0x7068, symSize: 0x14 }
  - { offset: 0x438FD, size: 0x8, addend: 0x0, symName: _llama_adapter_get_alora_invocation_tokens, symObjAddr: 0x307C, symBinAddr: 0x707C, symSize: 0x3C }
  - { offset: 0x4394B, size: 0x8, addend: 0x0, symName: __ZSt28__throw_bad_array_new_lengthB8ne200100v, symObjAddr: 0x30B8, symBinAddr: 0x70B8, symSize: 0x28 }
  - { offset: 0x4399C, size: 0x8, addend: 0x0, symName: __ZNSt12length_errorC1B8ne200100EPKc, symObjAddr: 0x32F0, symBinAddr: 0x72F0, symSize: 0x24 }
  - { offset: 0x43F34, size: 0x8, addend: 0x0, symName: __ZNSt3__16vectorIhNS_9allocatorIhEEE20__throw_length_errorB8ne200100Ev, symObjAddr: 0x4C30, symBinAddr: 0x8C30, symSize: 0x14 }
  - { offset: 0x43F4C, size: 0x8, addend: 0x0, symName: __ZNSt3__112__hash_tableIP18llama_adapter_loraNS_4hashIS2_EENS_8equal_toIS2_EENS_9allocatorIS2_EEE25__emplace_unique_key_argsIS2_JS2_EEENS_4pairINS_15__hash_iteratorIPNS_11__hash_nodeIS2_PvEEEEbEERKT_DpOT0_, symObjAddr: 0x4C44, symBinAddr: 0x8C44, symSize: 0x35C }
  - { offset: 0x443DE, size: 0x8, addend: 0x0, symName: __ZNSt3__14pairIKNS_12basic_stringIcNS_11char_traitsIcEENS_9allocatorIcEEEES6_EC2B8ne200100IRPKcRS7_Li0EEEOT_OT0_, symObjAddr: 0x3820, symBinAddr: 0x7820, symSize: 0x108 }
  - { offset: 0x447E9, size: 0x8, addend: 0x0, symName: __ZNKSt3__121__murmur2_or_cityhashImLm64EEclB8ne200100EPKvm, symObjAddr: 0x3928, symBinAddr: 0x7928, symSize: 0x44C }
  - { offset: 0x45233, size: 0x8, addend: 0x0, symName: __ZNSt3__112__hash_tableINS_17__hash_value_typeINS_12basic_stringIcNS_11char_traitsIcEENS_9allocatorIcEEEES7_EENS_22__unordered_map_hasherIS7_S8_NS_4hashIS7_EENS_8equal_toIS7_EELb1EEENS_21__unordered_map_equalIS7_S8_SD_SB_Lb1EEENS5_IS8_EEE20__node_insert_uniqueEPNS_11__hash_nodeIS8_PvEE, symObjAddr: 0x3670, symBinAddr: 0x7670, symSize: 0x144 }
  - { offset: 0x454A6, size: 0x8, addend: 0x0, symName: __ZNSt3__110unique_ptrINS_11__hash_nodeINS_17__hash_value_typeINS_12basic_stringIcNS_11char_traitsIcEENS_9allocatorIcEEEES8_EEPvEENS_22__hash_node_destructorINS6_ISB_EEEEED1B8ne200100Ev, symObjAddr: 0x37B4, symBinAddr: 0x77B4, symSize: 0x6C }
  - { offset: 0x458C5, size: 0x8, addend: 0x0, symName: __ZNSt3__112__hash_tableINS_17__hash_value_typeINS_12basic_stringIcNS_11char_traitsIcEENS_9allocatorIcEEEES7_EENS_22__unordered_map_hasherIS7_S8_NS_4hashIS7_EENS_8equal_toIS7_EELb1EEENS_21__unordered_map_equalIS7_S8_SD_SB_Lb1EEENS5_IS8_EEE28__node_insert_unique_prepareB8ne200100EmRS8_, symObjAddr: 0x3D74, symBinAddr: 0x7D74, symSize: 0x2A4 }
  - { offset: 0x45F33, size: 0x8, addend: 0x0, symName: __ZNSt3__112__hash_tableINS_17__hash_value_typeINS_12basic_stringIcNS_11char_traitsIcEENS_9allocatorIcEEEES7_EENS_22__unordered_map_hasherIS7_S8_NS_4hashIS7_EENS_8equal_toIS7_EELb1EEENS_21__unordered_map_equalIS7_S8_SD_SB_Lb1EEENS5_IS8_EEE11__do_rehashILb1EEEvm, symObjAddr: 0x4018, symBinAddr: 0x8018, symSize: 0x180 }
  - { offset: 0x462C0, size: 0x8, addend: 0x0, symName: __ZNSt3__112basic_stringIcNS_11char_traitsIcEENS_9allocatorIcEEE20__throw_out_of_rangeB8ne200100Ev, symObjAddr: 0x4198, symBinAddr: 0x8198, symSize: 0x14 }
  - { offset: 0x463E5, size: 0x8, addend: 0x0, symName: __ZNSt12out_of_rangeC1B8ne200100EPKc, symObjAddr: 0x41FC, symBinAddr: 0x81FC, symSize: 0x24 }
  - { offset: 0x46780, size: 0x8, addend: 0x0, symName: __ZNSt3__16vectorIiNS_9allocatorIiEEE20__throw_length_errorB8ne200100Ev, symObjAddr: 0x43DC, symBinAddr: 0x83DC, symSize: 0x14 }
  - { offset: 0x46798, size: 0x8, addend: 0x0, symName: __ZNSt3__16__treeINS_12__value_typeINS_12basic_stringIcNS_11char_traitsIcEENS_9allocatorIcEEEE25llama_adapter_lora_weightEENS_19__map_value_compareIS7_S9_NS_4lessIS7_EELb1EEENS5_IS9_EEE25__emplace_unique_key_argsIS7_JRKNS_21piecewise_construct_tENS_5tupleIJRKS7_EEENSK_IJEEEEEENS_4pairINS_15__tree_iteratorIS9_PNS_11__tree_nodeIS9_PvEElEEbEERKT_DpOT0_, symObjAddr: 0x43F0, symBinAddr: 0x83F0, symSize: 0x1B0 }
  - { offset: 0x46BC3, size: 0x8, addend: 0x0, symName: __ZNSt3__110unique_ptrINS_11__tree_nodeINS_12__value_typeINS_12basic_stringIcNS_11char_traitsIcEENS_9allocatorIcEEEE25llama_adapter_lora_weightEEPvEENS_22__tree_node_destructorINS6_ISC_EEEEED1B8ne200100Ev, symObjAddr: 0x45A0, symBinAddr: 0x85A0, symSize: 0x60 }
  - { offset: 0x473EF, size: 0x8, addend: 0x0, symName: __ZNSt3__112__hash_tableINS_17__hash_value_typeINS_12basic_stringIcNS_11char_traitsIcEENS_9allocatorIcEEEE25llama_adapter_lora_weightEENS_22__unordered_map_hasherIS7_S9_NS_4hashIS7_EENS_8equal_toIS7_EELb1EEENS_21__unordered_map_equalIS7_S9_SE_SC_Lb1EEENS5_IS9_EEE11__do_rehashILb1EEEvm, symObjAddr: 0x4A9C, symBinAddr: 0x8A9C, symSize: 0x180 }
  - { offset: 0x4777C, size: 0x8, addend: 0x0, symName: __ZNSt3__16vectorINS_10unique_ptrI19ggml_backend_buffer27ggml_backend_buffer_deleterEENS_9allocatorIS4_EEE20__throw_length_errorB8ne200100Ev, symObjAddr: 0x4C1C, symBinAddr: 0x8C1C, symSize: 0x14 }
  - { offset: 0x47791, size: 0x8, addend: 0x0, symName: __ZNSt3__110unique_ptrINS_11__hash_nodeINS_17__hash_value_typeINS_12basic_stringIcNS_11char_traitsIcEENS_9allocatorIcEEEE25llama_adapter_lora_weightEEPvEENS_22__hash_node_destructorINS6_ISC_EEEEED1B8ne200100Ev, symObjAddr: 0x4A3C, symBinAddr: 0x8A3C, symSize: 0x60 }
  - { offset: 0x480CE, size: 0x8, addend: 0x0, symName: __ZNSt3__112__hash_tableIP18llama_adapter_loraNS_4hashIS2_EENS_8equal_toIS2_EENS_9allocatorIS2_EEE11__do_rehashILb1EEEvm, symObjAddr: 0x4FA0, symBinAddr: 0x8FA0, symSize: 0x180 }
  - { offset: 0x4845B, size: 0x8, addend: 0x0, symName: __ZNSt3__16__treeINS_12__value_typeINS_12basic_stringIcNS_11char_traitsIcEENS_9allocatorIcEEEE25llama_adapter_lora_weightEENS_19__map_value_compareIS7_S9_NS_4lessIS7_EELb1EEENS5_IS9_EEE7destroyEPNS_11__tree_nodeIS9_PvEE, symObjAddr: 0x5120, symBinAddr: 0x9120, symSize: 0x60 }
  - { offset: 0x4AE91, size: 0x8, addend: 0x0, symName: __MergedGlobals, symObjAddr: 0x71AE0, symBinAddr: 0x364030, symSize: 0x0 }
  - { offset: 0x5AA80, size: 0x8, addend: 0x0, symName: __MergedGlobals, symObjAddr: 0x71AE0, symBinAddr: 0x364030, symSize: 0x0 }
  - { offset: 0x5AEA8, size: 0x8, addend: 0x0, symName: __MergedGlobals, symObjAddr: 0x71AE0, symBinAddr: 0x364030, symSize: 0x0 }
  - { offset: 0x5B775, size: 0x8, addend: 0x0, symName: __MergedGlobals, symObjAddr: 0x71AE0, symBinAddr: 0x364030, symSize: 0x0 }
  - { offset: 0x5BF10, size: 0x8, addend: 0x0, symName: __ZNSt3__13mapI8llm_archPKcNS_4lessIS1_EENS_9allocatorINS_4pairIKS1_S3_EEEEED1B8ne200100Ev, symObjAddr: 0x0, symBinAddr: 0x96AC, symSize: 0x28 }
  - { offset: 0x5BFC4, size: 0x8, addend: 0x0, symName: __ZNSt3__16__treeINS_12__value_typeI8llm_archPKcEENS_19__map_value_compareIS2_S5_NS_4lessIS2_EELb1EEENS_9allocatorIS5_EEE7destroyEPNS_11__tree_nodeIS5_PvEE, symObjAddr: 0x1760, symBinAddr: 0xAC50, symSize: 0x44 }
  - { offset: 0x5C14F, size: 0x8, addend: 0x0, symName: __ZNSt3__13mapI6llm_kvPKcNS_4lessIS1_EENS_9allocatorINS_4pairIKS1_S3_EEEEED1B8ne200100Ev, symObjAddr: 0x28, symBinAddr: 0x96D4, symSize: 0x28 }
  - { offset: 0x5C203, size: 0x8, addend: 0x0, symName: __ZNSt3__16__treeINS_12__value_typeI6llm_kvPKcEENS_19__map_value_compareIS2_S5_NS_4lessIS2_EELb1EEENS_9allocatorIS5_EEE7destroyEPNS_11__tree_nodeIS5_PvEE, symObjAddr: 0x1A44, symBinAddr: 0xAF34, symSize: 0x44 }
  - { offset: 0x5C38E, size: 0x8, addend: 0x0, symName: __ZNSt3__13mapI10llm_tensorPKcNS_4lessIS1_EENS_9allocatorINS_4pairIKS1_S3_EEEEED1B8ne200100Ev, symObjAddr: 0x50, symBinAddr: 0x96FC, symSize: 0x28 }
  - { offset: 0x5C442, size: 0x8, addend: 0x0, symName: __ZNSt3__16__treeINS_12__value_typeI10llm_tensorPKcEENS_19__map_value_compareIS2_S5_NS_4lessIS2_EELb1EEENS_9allocatorIS5_EEE7destroyEPNS_11__tree_nodeIS5_PvEE, symObjAddr: 0x1D28, symBinAddr: 0xB218, symSize: 0x44 }
  - { offset: 0x5C5CD, size: 0x8, addend: 0x0, symName: __ZNSt3__13mapI10llm_tensor15llm_tensor_infoNS_4lessIS1_EENS_9allocatorINS_4pairIKS1_S2_EEEEED1B8ne200100Ev, symObjAddr: 0x78, symBinAddr: 0x9724, symSize: 0x28 }
  - { offset: 0x5C681, size: 0x8, addend: 0x0, symName: __ZNSt3__16__treeINS_12__value_typeI10llm_tensor15llm_tensor_infoEENS_19__map_value_compareIS2_S4_NS_4lessIS2_EELb1EEENS_9allocatorIS4_EEE7destroyEPNS_11__tree_nodeIS4_PvEE, symObjAddr: 0x2018, symBinAddr: 0xB508, symSize: 0x44 }
  - { offset: 0x5C79D, size: 0x8, addend: 0x0, symName: __ZN6LLM_KVC2E8llm_archPKc, symObjAddr: 0xA0, symBinAddr: 0x974C, symSize: 0xC }
  - { offset: 0x5C806, size: 0x8, addend: 0x0, symName: __ZN6LLM_KVC1E8llm_archPKc, symObjAddr: 0xAC, symBinAddr: 0x9758, symSize: 0xC }
  - { offset: 0x5C850, size: 0x8, addend: 0x0, symName: __ZN6LLM_KVC1E8llm_archPKc, symObjAddr: 0xAC, symBinAddr: 0x9758, symSize: 0xC }
  - { offset: 0x5CBD0, size: 0x8, addend: 0x0, symName: __ZNK6LLM_KVclE6llm_kv, symObjAddr: 0xB8, symBinAddr: 0x9764, symSize: 0xFC }
  - { offset: 0x5D105, size: 0x8, addend: 0x0, symName: __ZN11LLM_TN_IMPLC2E8llm_arch10llm_tensorPKcii, symObjAddr: 0x1B4, symBinAddr: 0x9860, symSize: 0xA38 }
  - { offset: 0x5D2C7, size: 0x8, addend: 0x0, symName: __ZN11LLM_TN_IMPLC1E8llm_arch10llm_tensorPKcii, symObjAddr: 0xBEC, symBinAddr: 0xA298, symSize: 0x4 }
  - { offset: 0x5D2DA, size: 0x8, addend: 0x0, symName: __ZNSt3__13setI10llm_tensorNS_4lessIS1_EENS_9allocatorIS1_EEEC2B8ne200100ESt16initializer_listIS1_ERKS3_, symObjAddr: 0x1020, symBinAddr: 0xA6CC, symSize: 0xF0 }
  - { offset: 0x5D64D, size: 0x8, addend: 0x0, symName: __ZN11LLM_TN_IMPLC1E8llm_arch10llm_tensorPKcii, symObjAddr: 0xBEC, symBinAddr: 0xA298, symSize: 0x4 }
  - { offset: 0x5D6C2, size: 0x8, addend: 0x0, symName: __ZN11LLM_TN_IMPLC1E8llm_arch10llm_tensorPKcii, symObjAddr: 0xBEC, symBinAddr: 0xA298, symSize: 0x4 }
  - { offset: 0x5DB6B, size: 0x8, addend: 0x0, symName: __ZNK11LLM_TN_IMPL3strEv, symObjAddr: 0xBF0, symBinAddr: 0xA29C, symSize: 0x200 }
  - { offset: 0x5E3FF, size: 0x8, addend: 0x0, symName: __Z13llm_arch_name8llm_arch, symObjAddr: 0xDF0, symBinAddr: 0xA49C, symSize: 0x58 }
  - { offset: 0x5E441, size: 0x8, addend: 0x0, symName: __Z13llm_arch_name8llm_arch, symObjAddr: 0xDF0, symBinAddr: 0xA49C, symSize: 0x58 }
  - { offset: 0x5E456, size: 0x8, addend: 0x0, symName: __Z13llm_arch_name8llm_arch, symObjAddr: 0xDF0, symBinAddr: 0xA49C, symSize: 0x58 }
  - { offset: 0x5E474, size: 0x8, addend: 0x0, symName: __Z13llm_arch_name8llm_arch, symObjAddr: 0xDF0, symBinAddr: 0xA49C, symSize: 0x58 }
  - { offset: 0x5E63A, size: 0x8, addend: 0x0, symName: __Z20llm_arch_from_stringRKNSt3__112basic_stringIcNS_11char_traitsIcEENS_9allocatorIcEEEE, symObjAddr: 0xE48, symBinAddr: 0xA4F4, symSize: 0x108 }
  - { offset: 0x5E9D9, size: 0x8, addend: 0x0, symName: __Z19llm_tensor_info_for10llm_tensor, symObjAddr: 0xF50, symBinAddr: 0xA5FC, symSize: 0x50 }
  - { offset: 0x5EAC5, size: 0x8, addend: 0x0, symName: __Z21llm_arch_is_recurrentRK8llm_arch, symObjAddr: 0xFA0, symBinAddr: 0xA64C, symSize: 0x20 }
  - { offset: 0x5EAF5, size: 0x8, addend: 0x0, symName: __Z18llm_arch_is_hybridRK8llm_arch, symObjAddr: 0xFC0, symBinAddr: 0xA66C, symSize: 0x40 }
  - { offset: 0x5EB25, size: 0x8, addend: 0x0, symName: __Z21llm_arch_is_diffusionRK8llm_arch, symObjAddr: 0x1000, symBinAddr: 0xA6AC, symSize: 0x20 }
  - { offset: 0x5EDE6, size: 0x8, addend: 0x0, symName: __ZNSt3__16__treeI10llm_tensorNS_4lessIS1_EENS_9allocatorIS1_EEE12__find_equalIS1_EERPNS_16__tree_node_baseIPvEENS_21__tree_const_iteratorIS1_PNS_11__tree_nodeIS1_S9_EElEERPNS_15__tree_end_nodeISB_EESC_RKT_, symObjAddr: 0x1110, symBinAddr: 0xA7BC, symSize: 0x1B0 }
  - { offset: 0x5EE49, size: 0x8, addend: 0x0, symName: __ZNSt3__16__treeI10llm_tensorNS_4lessIS1_EENS_9allocatorIS1_EEE12__find_equalIS1_EERPNS_16__tree_node_baseIPvEENS_21__tree_const_iteratorIS1_PNS_11__tree_nodeIS1_S9_EElEERPNS_15__tree_end_nodeISB_EESC_RKT_, symObjAddr: 0x1110, symBinAddr: 0xA7BC, symSize: 0x1B0 }
  - { offset: 0x5EE65, size: 0x8, addend: 0x0, symName: __ZNSt3__16__treeI10llm_tensorNS_4lessIS1_EENS_9allocatorIS1_EEE12__find_equalIS1_EERPNS_16__tree_node_baseIPvEENS_21__tree_const_iteratorIS1_PNS_11__tree_nodeIS1_S9_EElEERPNS_15__tree_end_nodeISB_EESC_RKT_, symObjAddr: 0x1110, symBinAddr: 0xA7BC, symSize: 0x1B0 }
  - { offset: 0x5F0F0, size: 0x8, addend: 0x0, symName: __ZNSt3__16__treeI10llm_tensorNS_4lessIS1_EENS_9allocatorIS1_EEE7destroyEPNS_11__tree_nodeIS1_PvEE, symObjAddr: 0x147C, symBinAddr: 0xA96C, symSize: 0x44 }
  - { offset: 0x5F63D, size: 0x8, addend: 0x0, symName: __ZNSt3__13mapI8llm_archPKcNS_4lessIS1_EENS_9allocatorINS_4pairIKS1_S3_EEEEEC2B8ne200100ESt16initializer_listIS9_ERKS5_, symObjAddr: 0x14C0, symBinAddr: 0xA9B0, symSize: 0xF0 }
  - { offset: 0x5F9BF, size: 0x8, addend: 0x0, symName: __ZNSt3__16__treeINS_12__value_typeI8llm_archPKcEENS_19__map_value_compareIS2_S5_NS_4lessIS2_EELb1EEENS_9allocatorIS5_EEE12__find_equalIS2_EERPNS_16__tree_node_baseIPvEENS_21__tree_const_iteratorIS5_PNS_11__tree_nodeIS5_SF_EElEERPNS_15__tree_end_nodeISH_EESI_RKT_, symObjAddr: 0x15B0, symBinAddr: 0xAAA0, symSize: 0x1B0 }
  - { offset: 0x5FA22, size: 0x8, addend: 0x0, symName: __ZNSt3__16__treeINS_12__value_typeI8llm_archPKcEENS_19__map_value_compareIS2_S5_NS_4lessIS2_EELb1EEENS_9allocatorIS5_EEE12__find_equalIS2_EERPNS_16__tree_node_baseIPvEENS_21__tree_const_iteratorIS5_PNS_11__tree_nodeIS5_SF_EElEERPNS_15__tree_end_nodeISH_EESI_RKT_, symObjAddr: 0x15B0, symBinAddr: 0xAAA0, symSize: 0x1B0 }
  - { offset: 0x5FA3E, size: 0x8, addend: 0x0, symName: __ZNSt3__16__treeINS_12__value_typeI8llm_archPKcEENS_19__map_value_compareIS2_S5_NS_4lessIS2_EELb1EEENS_9allocatorIS5_EEE12__find_equalIS2_EERPNS_16__tree_node_baseIPvEENS_21__tree_const_iteratorIS5_PNS_11__tree_nodeIS5_SF_EElEERPNS_15__tree_end_nodeISH_EESI_RKT_, symObjAddr: 0x15B0, symBinAddr: 0xAAA0, symSize: 0x1B0 }
  - { offset: 0x60108, size: 0x8, addend: 0x0, symName: __ZNSt3__13mapI6llm_kvPKcNS_4lessIS1_EENS_9allocatorINS_4pairIKS1_S3_EEEEEC2B8ne200100ESt16initializer_listIS9_ERKS5_, symObjAddr: 0x17A4, symBinAddr: 0xAC94, symSize: 0xF0 }
  - { offset: 0x6048A, size: 0x8, addend: 0x0, symName: __ZNSt3__16__treeINS_12__value_typeI6llm_kvPKcEENS_19__map_value_compareIS2_S5_NS_4lessIS2_EELb1EEENS_9allocatorIS5_EEE12__find_equalIS2_EERPNS_16__tree_node_baseIPvEENS_21__tree_const_iteratorIS5_PNS_11__tree_nodeIS5_SF_EElEERPNS_15__tree_end_nodeISH_EESI_RKT_, symObjAddr: 0x1894, symBinAddr: 0xAD84, symSize: 0x1B0 }
  - { offset: 0x604ED, size: 0x8, addend: 0x0, symName: __ZNSt3__16__treeINS_12__value_typeI6llm_kvPKcEENS_19__map_value_compareIS2_S5_NS_4lessIS2_EELb1EEENS_9allocatorIS5_EEE12__find_equalIS2_EERPNS_16__tree_node_baseIPvEENS_21__tree_const_iteratorIS5_PNS_11__tree_nodeIS5_SF_EElEERPNS_15__tree_end_nodeISH_EESI_RKT_, symObjAddr: 0x1894, symBinAddr: 0xAD84, symSize: 0x1B0 }
  - { offset: 0x60509, size: 0x8, addend: 0x0, symName: __ZNSt3__16__treeINS_12__value_typeI6llm_kvPKcEENS_19__map_value_compareIS2_S5_NS_4lessIS2_EELb1EEENS_9allocatorIS5_EEE12__find_equalIS2_EERPNS_16__tree_node_baseIPvEENS_21__tree_const_iteratorIS5_PNS_11__tree_nodeIS5_SF_EElEERPNS_15__tree_end_nodeISH_EESI_RKT_, symObjAddr: 0x1894, symBinAddr: 0xAD84, symSize: 0x1B0 }
  - { offset: 0x60C1D, size: 0x8, addend: 0x0, symName: __ZNSt3__13mapI10llm_tensorPKcNS_4lessIS1_EENS_9allocatorINS_4pairIKS1_S3_EEEEEC2B8ne200100ESt16initializer_listIS9_ERKS5_, symObjAddr: 0x1A88, symBinAddr: 0xAF78, symSize: 0xF0 }
  - { offset: 0x60F9F, size: 0x8, addend: 0x0, symName: __ZNSt3__16__treeINS_12__value_typeI10llm_tensorPKcEENS_19__map_value_compareIS2_S5_NS_4lessIS2_EELb1EEENS_9allocatorIS5_EEE12__find_equalIS2_EERPNS_16__tree_node_baseIPvEENS_21__tree_const_iteratorIS5_PNS_11__tree_nodeIS5_SF_EElEERPNS_15__tree_end_nodeISH_EESI_RKT_, symObjAddr: 0x1B78, symBinAddr: 0xB068, symSize: 0x1B0 }
  - { offset: 0x61002, size: 0x8, addend: 0x0, symName: __ZNSt3__16__treeINS_12__value_typeI10llm_tensorPKcEENS_19__map_value_compareIS2_S5_NS_4lessIS2_EELb1EEENS_9allocatorIS5_EEE12__find_equalIS2_EERPNS_16__tree_node_baseIPvEENS_21__tree_const_iteratorIS5_PNS_11__tree_nodeIS5_SF_EElEERPNS_15__tree_end_nodeISH_EESI_RKT_, symObjAddr: 0x1B78, symBinAddr: 0xB068, symSize: 0x1B0 }
  - { offset: 0x6101E, size: 0x8, addend: 0x0, symName: __ZNSt3__16__treeINS_12__value_typeI10llm_tensorPKcEENS_19__map_value_compareIS2_S5_NS_4lessIS2_EELb1EEENS_9allocatorIS5_EEE12__find_equalIS2_EERPNS_16__tree_node_baseIPvEENS_21__tree_const_iteratorIS5_PNS_11__tree_nodeIS5_SF_EElEERPNS_15__tree_end_nodeISH_EESI_RKT_, symObjAddr: 0x1B78, symBinAddr: 0xB068, symSize: 0x1B0 }
  - { offset: 0x61704, size: 0x8, addend: 0x0, symName: __ZNSt3__13mapI10llm_tensor15llm_tensor_infoNS_4lessIS1_EENS_9allocatorINS_4pairIKS1_S2_EEEEEC2B8ne200100ESt16initializer_listIS8_ERKS4_, symObjAddr: 0x1D6C, symBinAddr: 0xB25C, symSize: 0xFC }
  - { offset: 0x61A86, size: 0x8, addend: 0x0, symName: __ZNSt3__16__treeINS_12__value_typeI10llm_tensor15llm_tensor_infoEENS_19__map_value_compareIS2_S4_NS_4lessIS2_EELb1EEENS_9allocatorIS4_EEE12__find_equalIS2_EERPNS_16__tree_node_baseIPvEENS_21__tree_const_iteratorIS4_PNS_11__tree_nodeIS4_SE_EElEERPNS_15__tree_end_nodeISG_EESH_RKT_, symObjAddr: 0x1E68, symBinAddr: 0xB358, symSize: 0x1B0 }
  - { offset: 0x61AE9, size: 0x8, addend: 0x0, symName: __ZNSt3__16__treeINS_12__value_typeI10llm_tensor15llm_tensor_infoEENS_19__map_value_compareIS2_S4_NS_4lessIS2_EELb1EEENS_9allocatorIS4_EEE12__find_equalIS2_EERPNS_16__tree_node_baseIPvEENS_21__tree_const_iteratorIS4_PNS_11__tree_nodeIS4_SE_EElEERPNS_15__tree_end_nodeISG_EESH_RKT_, symObjAddr: 0x1E68, symBinAddr: 0xB358, symSize: 0x1B0 }
  - { offset: 0x61B05, size: 0x8, addend: 0x0, symName: __ZNSt3__16__treeINS_12__value_typeI10llm_tensor15llm_tensor_infoEENS_19__map_value_compareIS2_S4_NS_4lessIS2_EELb1EEENS_9allocatorIS4_EEE12__find_equalIS2_EERPNS_16__tree_node_baseIPvEENS_21__tree_const_iteratorIS4_PNS_11__tree_nodeIS4_SE_EElEERPNS_15__tree_end_nodeISG_EESH_RKT_, symObjAddr: 0x1E68, symBinAddr: 0xB358, symSize: 0x1B0 }
  - { offset: 0x620F0, size: 0x8, addend: 0x0, symName: __GLOBAL__sub_I_llama_arch.cpp, symObjAddr: 0x4278, symBinAddr: 0xB54C, symSize: 0x154 }
  - { offset: 0x73CCC, size: 0x8, addend: 0x0, symName: __ZNSt3__124__put_character_sequenceB8ne200100IcNS_11char_traitsIcEEEERNS_13basic_ostreamIT_T0_EES7_PKS4_m, symObjAddr: 0x5B6C, symBinAddr: 0x10FB8, symSize: 0x170 }
  - { offset: 0x7B026, size: 0x8, addend: 0x0, symName: __ZNSt3__116__pad_and_outputB8ne200100IcNS_11char_traitsIcEEEENS_19ostreambuf_iteratorIT_T0_EES6_PKS4_S8_S8_RNS_8ios_baseES4_, symObjAddr: 0x5CDC, symBinAddr: 0x11128, symSize: 0x1A4 }
  - { offset: 0x7F68D, size: 0x8, addend: 0x0, symName: __ZN18llama_batch_allocrC2Ej, symObjAddr: 0x0, symBinAddr: 0xB6A0, symSize: 0x2D0 }
  - { offset: 0x8046D, size: 0x8, addend: 0x0, symName: __ZNSt3__16vectorINS_3setIiNS_4lessIiEENS_9allocatorIiEEEENS4_IS6_EEE8__appendEm, symObjAddr: 0x4B74, symBinAddr: 0x10204, symSize: 0x224 }
  - { offset: 0x80B11, size: 0x8, addend: 0x0, symName: __ZNSt3__16vectorINS_3setIiNS_4lessIiEENS_9allocatorIiEEEENS4_IS6_EEE20__throw_length_errorB8ne200100Ev, symObjAddr: 0x4D98, symBinAddr: 0x10428, symSize: 0x14 }
  - { offset: 0x80B1C, size: 0x8, addend: 0x0, symName: __ZNSt3__16vectorINS0_IbNS_9allocatorIbEEEENS1_IS3_EEE8__appendEm, symObjAddr: 0x4E48, symBinAddr: 0x1043C, symSize: 0x1CC }
  - { offset: 0x8117F, size: 0x8, addend: 0x0, symName: __ZNSt3__16vectorINS0_IbNS_9allocatorIbEEEENS1_IS3_EEE20__throw_length_errorB8ne200100Ev, symObjAddr: 0x5014, symBinAddr: 0x10608, symSize: 0x14 }
  - { offset: 0x8118A, size: 0x8, addend: 0x0, symName: __ZNSt3__16vectorIbNS_9allocatorIbEEE6resizeEmb, symObjAddr: 0x2D0, symBinAddr: 0xB970, symSize: 0x264 }
  - { offset: 0x8196E, size: 0x8, addend: 0x0, symName: __ZNSt3__16vectorIiNS_9allocatorIiEEE8__appendEmRKi, symObjAddr: 0x5144, symBinAddr: 0x10738, symSize: 0x1B4 }
  - { offset: 0x81DC9, size: 0x8, addend: 0x0, symName: __ZNSt3__113unordered_mapINS_6bitsetILm256EEENS_6vectorIiNS_9allocatorIiEEEENS_4hashIS2_EENS_8equal_toIS2_EENS4_INS_4pairIKS2_S6_EEEEED1B8ne200100Ev, symObjAddr: 0x534, symBinAddr: 0xBBD4, symSize: 0x68 }
  - { offset: 0x821ED, size: 0x8, addend: 0x0, symName: __ZNSt3__16vectorINS0_IbNS_9allocatorIbEEEENS1_IS3_EEED1B8ne200100Ev, symObjAddr: 0x59C, symBinAddr: 0xBC3C, symSize: 0x68 }
  - { offset: 0x8245B, size: 0x8, addend: 0x0, symName: __ZNSt3__16vectorINS_3setIiNS_4lessIiEENS_9allocatorIiEEEENS4_IS6_EEED1B8ne200100Ev, symObjAddr: 0x604, symBinAddr: 0xBCA4, symSize: 0x68 }
  - { offset: 0x82888, size: 0x8, addend: 0x0, symName: __ZNSt3__16vectorIbNS_9allocatorIbEEE7reserveEm, symObjAddr: 0x5028, symBinAddr: 0x1061C, symSize: 0x108 }
  - { offset: 0x82C9D, size: 0x8, addend: 0x0, symName: __ZNSt3__16vectorIbNS_9allocatorIbEEE20__throw_length_errorB8ne200100Ev, symObjAddr: 0x5130, symBinAddr: 0x10724, symSize: 0x14 }
  - { offset: 0x82CA8, size: 0x8, addend: 0x0, symName: __ZNSt3__16vectorIbNS_9allocatorIbEEE20__throw_length_errorB8ne200100Ev, symObjAddr: 0x5130, symBinAddr: 0x10724, symSize: 0x14 }
  - { offset: 0x82CC0, size: 0x8, addend: 0x0, symName: __ZNSt3__16vectorIiNS_9allocatorIiEEE8__appendEmRKi, symObjAddr: 0x5144, symBinAddr: 0x10738, symSize: 0x1B4 }
  - { offset: 0x831BB, size: 0x8, addend: 0x0, symName: __ZNSt3__16__treeIiNS_4lessIiEENS_9allocatorIiEEE7destroyEPNS_11__tree_nodeIiPvEE, symObjAddr: 0x4B30, symBinAddr: 0x101C0, symSize: 0x44 }
  - { offset: 0x832D2, size: 0x8, addend: 0x0, symName: __ZN18llama_batch_allocrC1Ej, symObjAddr: 0x66C, symBinAddr: 0xBD0C, symSize: 0x4 }
  - { offset: 0x8330E, size: 0x8, addend: 0x0, symName: __ZN18llama_batch_allocrC1Ej, symObjAddr: 0x66C, symBinAddr: 0xBD0C, symSize: 0x4 }
  - { offset: 0x84A68, size: 0x8, addend: 0x0, symName: __ZN18llama_batch_allocr4initERK11llama_batchRK11llama_vocabPK14llama_memory_ijjb, symObjAddr: 0x670, symBinAddr: 0xBD10, symSize: 0x18A8 }
  - { offset: 0x886E9, size: 0x8, addend: 0x0, symName: __ZN18llama_batch_allocr5clearEv, symObjAddr: 0x1F18, symBinAddr: 0xD5B8, symSize: 0x194 }
  - { offset: 0x892A8, size: 0x8, addend: 0x0, symName: __ZNSt3__16vectorIPiNS_9allocatorIS1_EEE8__appendEm, symObjAddr: 0x542C, symBinAddr: 0x108EC, symSize: 0x120 }
  - { offset: 0x892B3, size: 0x8, addend: 0x0, symName: __ZNSt3__16vectorIPiNS_9allocatorIS1_EEE8__appendEm, symObjAddr: 0x542C, symBinAddr: 0x108EC, symSize: 0x120 }
  - { offset: 0x89691, size: 0x8, addend: 0x0, symName: __ZNSt3__16vectorIPiNS_9allocatorIS1_EEE20__throw_length_errorB8ne200100Ev, symObjAddr: 0x554C, symBinAddr: 0x10A0C, symSize: 0x14 }
  - { offset: 0x896AE, size: 0x8, addend: 0x0, symName: __ZNSt3__112__hash_tableINS_17__hash_value_typeINS_6bitsetILm256EEENS_6vectorIiNS_9allocatorIiEEEEEENS_22__unordered_map_hasherIS3_S8_NS_4hashIS3_EENS_8equal_toIS3_EELb1EEENS_21__unordered_map_equalIS3_S8_SD_SB_Lb1EEENS5_IS8_EEE25__emplace_unique_key_argsIS3_JRKNS_21piecewise_construct_tENS_5tupleIJRKS3_EEENSN_IJEEEEEENS_4pairINS_15__hash_iteratorIPNS_11__hash_nodeIS8_PvEEEEbEERKT_DpOT0_, symObjAddr: 0x55FC, symBinAddr: 0x10A48, symSize: 0x390 }
  - { offset: 0x89EC8, size: 0x8, addend: 0x0, symName: __ZN18llama_batch_allocr12ubatch_printERK12llama_ubatchi, symObjAddr: 0x2198, symBinAddr: 0xD838, symSize: 0xBF0 }
  - { offset: 0x8B296, size: 0x8, addend: 0x0, symName: __ZNSt3__118basic_stringstreamIcNS_11char_traitsIcEENS_9allocatorIcEEEC1B8ne200100Ev, symObjAddr: 0x2D88, symBinAddr: 0xE428, symSize: 0x194 }
  - { offset: 0x8B601, size: 0x8, addend: 0x0, symName: __ZNSt3__16vectorINS_6bitsetILm256EEENS_9allocatorIS2_EEE20__throw_length_errorB8ne200100Ev, symObjAddr: 0x55E8, symBinAddr: 0x10A34, symSize: 0x14 }
  - { offset: 0x8B619, size: 0x8, addend: 0x0, symName: __ZNSt3__112__hash_tableINS_17__hash_value_typeINS_6bitsetILm256EEENS_6vectorIiNS_9allocatorIiEEEEEENS_22__unordered_map_hasherIS3_S8_NS_4hashIS3_EENS_8equal_toIS3_EELb1EEENS_21__unordered_map_equalIS3_S8_SD_SB_Lb1EEENS5_IS8_EEE25__emplace_unique_key_argsIS3_JRKNS_21piecewise_construct_tENS_5tupleIJRKS3_EEENSN_IJEEEEEENS_4pairINS_15__hash_iteratorIPNS_11__hash_nodeIS8_PvEEEEbEERKT_DpOT0_, symObjAddr: 0x55FC, symBinAddr: 0x10A48, symSize: 0x390 }
  - { offset: 0x8B63E, size: 0x8, addend: 0x0, symName: __ZNSt3__16vectorIaNS_9allocatorIaEEE20__throw_length_errorB8ne200100Ev, symObjAddr: 0x5560, symBinAddr: 0x10A20, symSize: 0x14 }
  - { offset: 0x8B667, size: 0x8, addend: 0x0, symName: __ZN12llama_ubatchD1Ev, symObjAddr: 0x301C, symBinAddr: 0xE6BC, symSize: 0x5C }
  - { offset: 0x8B733, size: 0x8, addend: 0x0, symName: __ZNSt3__118basic_stringstreamIcNS_11char_traitsIcEENS_9allocatorIcEEED1Ev, symObjAddr: 0x2F94, symBinAddr: 0xE634, symSize: 0x88 }
  - { offset: 0x8B9D2, size: 0x8, addend: 0x0, symName: __ZNSt3__16vectorIiNS_9allocatorIiEEE9push_backB8ne200100ERKi, symObjAddr: 0x20AC, symBinAddr: 0xD74C, symSize: 0xEC }
  - { offset: 0x8BDD7, size: 0x8, addend: 0x0, symName: __ZN18llama_batch_allocr12ubatch_printERK12llama_ubatchi, symObjAddr: 0x2198, symBinAddr: 0xD838, symSize: 0xBF0 }
  - { offset: 0x8C1C4, size: 0x8, addend: 0x0, symName: __ZNK18llama_batch_allocr11seq_pos_minEi, symObjAddr: 0x2F1C, symBinAddr: 0xE5BC, symSize: 0x28 }
  - { offset: 0x8C1EF, size: 0x8, addend: 0x0, symName: __ZNK18llama_batch_allocr11seq_pos_minEi, symObjAddr: 0x2F1C, symBinAddr: 0xE5BC, symSize: 0x28 }
  - { offset: 0x8C264, size: 0x8, addend: 0x0, symName: __ZNK18llama_batch_allocr11seq_pos_maxEi, symObjAddr: 0x2F44, symBinAddr: 0xE5E4, symSize: 0x50 }
  - { offset: 0x8C28F, size: 0x8, addend: 0x0, symName: __ZNK18llama_batch_allocr11seq_pos_maxEi, symObjAddr: 0x2F44, symBinAddr: 0xE5E4, symSize: 0x50 }
  - { offset: 0x8C3FF, size: 0x8, addend: 0x0, symName: __ZN18llama_batch_allocr11split_resetEv, symObjAddr: 0x3078, symBinAddr: 0xE718, symSize: 0x20 }
  - { offset: 0x8C423, size: 0x8, addend: 0x0, symName: __ZN18llama_batch_allocr11split_resetEv, symObjAddr: 0x3078, symBinAddr: 0xE718, symSize: 0x20 }
  - { offset: 0x8C442, size: 0x8, addend: 0x0, symName: __ZN18llama_batch_allocr11split_resetEv, symObjAddr: 0x3078, symBinAddr: 0xE718, symSize: 0x20 }
  - { offset: 0x8C915, size: 0x8, addend: 0x0, symName: __ZN18llama_batch_allocr14ubatch_reserveEjj, symObjAddr: 0x3098, symBinAddr: 0xE738, symSize: 0x458 }
  - { offset: 0x8DA5C, size: 0x8, addend: 0x0, symName: __ZNSt3__110shared_ptrIN12llama_ubatch6data_tEED1B8ne200100Ev, symObjAddr: 0x34F0, symBinAddr: 0xEB90, symSize: 0x5C }
  - { offset: 0x8DAF1, size: 0x8, addend: 0x0, symName: __ZNK18llama_batch_allocr9get_batchEv, symObjAddr: 0x354C, symBinAddr: 0xEBEC, symSize: 0x4 }
  - { offset: 0x8DB19, size: 0x8, addend: 0x0, symName: __ZNK18llama_batch_allocr12get_n_tokensEv, symObjAddr: 0x3550, symBinAddr: 0xEBF0, symSize: 0x8 }
  - { offset: 0x8DB3B, size: 0x8, addend: 0x0, symName: __ZNK18llama_batch_allocr13get_n_outputsEv, symObjAddr: 0x3558, symBinAddr: 0xEBF8, symSize: 0x8 }
  - { offset: 0x8DB65, size: 0x8, addend: 0x0, symName: __ZNK18llama_batch_allocr10get_n_usedEv, symObjAddr: 0x3560, symBinAddr: 0xEC00, symSize: 0x8 }
  - { offset: 0x8DB8F, size: 0x8, addend: 0x0, symName: __ZN18llama_batch_allocr11get_out_idsEv, symObjAddr: 0x3568, symBinAddr: 0xEC08, symSize: 0x8 }
  - { offset: 0x8DBB9, size: 0x8, addend: 0x0, symName: __ZN18llama_batch_allocr12split_simpleEj, symObjAddr: 0x3570, symBinAddr: 0xEC10, symSize: 0x200 }
  - { offset: 0x8E31D, size: 0x8, addend: 0x0, symName: __ZN18llama_batch_allocr10ubatch_addERKNSt3__16vectorIiNS0_9allocatorIiEEEEjb, symObjAddr: 0x3770, symBinAddr: 0xEE10, symSize: 0x8A0 }
  - { offset: 0x9003E, size: 0x8, addend: 0x0, symName: __ZNSt3__16vectorIfNS_9allocatorIfEEE8__appendEm, symObjAddr: 0x63B0, symBinAddr: 0x117E8, symSize: 0x120 }
  - { offset: 0x9041C, size: 0x8, addend: 0x0, symName: __ZNSt3__16vectorIfNS_9allocatorIfEEE20__throw_length_errorB8ne200100Ev, symObjAddr: 0x64D0, symBinAddr: 0x11908, symSize: 0x14 }
  - { offset: 0x90930, size: 0x8, addend: 0x0, symName: __ZN18llama_batch_allocr11split_equalEjb, symObjAddr: 0x4010, symBinAddr: 0xF6B0, symSize: 0x678 }
  - { offset: 0x9228D, size: 0x8, addend: 0x0, symName: __ZNSt3__16vectorIiNS_9allocatorIiEEE18__insert_with_sizeB8ne200100INS_11__wrap_iterIPiEES7_EES7_NS5_IPKiEET_T0_l, symObjAddr: 0x600C, symBinAddr: 0x11444, symSize: 0x3A4 }
  - { offset: 0x92D5F, size: 0x8, addend: 0x0, symName: __ZNSt3__16vectorIfNS_9allocatorIfEEE8__appendEm, symObjAddr: 0x63B0, symBinAddr: 0x117E8, symSize: 0x120 }
  - { offset: 0x92D7C, size: 0x8, addend: 0x0, symName: __ZNSt3__128__exception_guard_exceptionsINS_6vectorINS1_IiNS_9allocatorIiEEEENS2_IS4_EEE16__destroy_vectorEED1B8ne200100Ev, symObjAddr: 0x5F88, symBinAddr: 0x113C0, symSize: 0x84 }
  - { offset: 0x93009, size: 0x8, addend: 0x0, symName: __ZNSt3__16vectorINS0_IiNS_9allocatorIiEEEENS1_IS3_EEED1B8ne200100Ev, symObjAddr: 0x4688, symBinAddr: 0xFD28, symSize: 0x74 }
  - { offset: 0x932D0, size: 0x8, addend: 0x0, symName: __ZN18llama_batch_allocr9split_seqEj, symObjAddr: 0x46FC, symBinAddr: 0xFD9C, symSize: 0x2A8 }
  - { offset: 0x93BEA, size: 0x8, addend: 0x0, symName: _llama_batch_get_one, symObjAddr: 0x49A4, symBinAddr: 0x10044, symSize: 0x1C }
  - { offset: 0x93C22, size: 0x8, addend: 0x0, symName: _llama_batch_init, symObjAddr: 0x49C0, symBinAddr: 0x10060, symSize: 0xD0 }
  - { offset: 0x93D1B, size: 0x8, addend: 0x0, symName: _llama_batch_free, symObjAddr: 0x4A90, symBinAddr: 0x10130, symSize: 0x90 }
  - { offset: 0x942EA, size: 0x8, addend: 0x0, symName: __ZNSt3__16vectorINS_3setIiNS_4lessIiEENS_9allocatorIiEEEENS4_IS6_EEE20__throw_length_errorB8ne200100Ev, symObjAddr: 0x4D98, symBinAddr: 0x10428, symSize: 0x14 }
  - { offset: 0x946F5, size: 0x8, addend: 0x0, symName: __ZNSt3__16vectorINS0_IbNS_9allocatorIbEEEENS1_IS3_EEE20__throw_length_errorB8ne200100Ev, symObjAddr: 0x5014, symBinAddr: 0x10608, symSize: 0x14 }
  - { offset: 0x9470D, size: 0x8, addend: 0x0, symName: __ZNSt3__16vectorIbNS_9allocatorIbEEE7reserveEm, symObjAddr: 0x5028, symBinAddr: 0x1061C, symSize: 0x108 }
  - { offset: 0x94D18, size: 0x8, addend: 0x0, symName: __ZNSt3__16vectorIPiNS_9allocatorIS1_EEE20__throw_length_errorB8ne200100Ev, symObjAddr: 0x554C, symBinAddr: 0x10A0C, symSize: 0x14 }
  - { offset: 0x94D30, size: 0x8, addend: 0x0, symName: __ZNSt3__16vectorIaNS_9allocatorIaEEE20__throw_length_errorB8ne200100Ev, symObjAddr: 0x5560, symBinAddr: 0x10A20, symSize: 0x14 }
  - { offset: 0x9534C, size: 0x8, addend: 0x0, symName: __ZNSt3__112__hash_tableINS_17__hash_value_typeINS_6bitsetILm256EEENS_6vectorIiNS_9allocatorIiEEEEEENS_22__unordered_map_hasherIS3_S8_NS_4hashIS3_EENS_8equal_toIS3_EELb1EEENS_21__unordered_map_equalIS3_S8_SD_SB_Lb1EEENS5_IS8_EEE11__do_rehashILb1EEEvm, symObjAddr: 0x59EC, symBinAddr: 0x10E38, symSize: 0x180 }
  - { offset: 0x956D9, size: 0x8, addend: 0x0, symName: __ZNSt3__124__put_character_sequenceB8ne200100IcNS_11char_traitsIcEEEERNS_13basic_ostreamIT_T0_EES7_PKS4_m, symObjAddr: 0x5B6C, symBinAddr: 0x10FB8, symSize: 0x170 }
  - { offset: 0x956EE, size: 0x8, addend: 0x0, symName: __ZNSt3__110unique_ptrINS_11__hash_nodeINS_17__hash_value_typeINS_6bitsetILm256EEENS_6vectorIiNS_9allocatorIiEEEEEEPvEENS_22__hash_node_destructorINS6_ISB_EEEEED1B8ne200100Ev, symObjAddr: 0x598C, symBinAddr: 0x10DD8, symSize: 0x60 }
  - { offset: 0x95F22, size: 0x8, addend: 0x0, symName: __ZNSt3__120__shared_ptr_emplaceIN12llama_ubatch6data_tENS_9allocatorIS2_EEED1Ev, symObjAddr: 0x5E94, symBinAddr: 0x112CC, symSize: 0x14 }
  - { offset: 0x95F49, size: 0x8, addend: 0x0, symName: __ZNSt3__120__shared_ptr_emplaceIN12llama_ubatch6data_tENS_9allocatorIS2_EEED1Ev, symObjAddr: 0x5E94, symBinAddr: 0x112CC, symSize: 0x14 }
  - { offset: 0x95F6B, size: 0x8, addend: 0x0, symName: __ZNSt3__120__shared_ptr_emplaceIN12llama_ubatch6data_tENS_9allocatorIS2_EEED1Ev, symObjAddr: 0x5E94, symBinAddr: 0x112CC, symSize: 0x14 }
  - { offset: 0x95FA1, size: 0x8, addend: 0x0, symName: __ZNSt3__120__shared_ptr_emplaceIN12llama_ubatch6data_tENS_9allocatorIS2_EEED0Ev, symObjAddr: 0x5EA8, symBinAddr: 0x112E0, symSize: 0x24 }
  - { offset: 0x960C1, size: 0x8, addend: 0x0, symName: __ZNSt3__120__shared_ptr_emplaceIN12llama_ubatch6data_tENS_9allocatorIS2_EEE16__on_zero_sharedEv, symObjAddr: 0x5ECC, symBinAddr: 0x11304, symSize: 0x8 }
  - { offset: 0x960EA, size: 0x8, addend: 0x0, symName: __ZNSt3__120__shared_ptr_emplaceIN12llama_ubatch6data_tENS_9allocatorIS2_EEE16__on_zero_sharedEv, symObjAddr: 0x5ECC, symBinAddr: 0x11304, symSize: 0x8 }
  - { offset: 0x9610E, size: 0x8, addend: 0x0, symName: __ZNSt3__120__shared_ptr_emplaceIN12llama_ubatch6data_tENS_9allocatorIS2_EEE16__on_zero_sharedEv, symObjAddr: 0x5ECC, symBinAddr: 0x11304, symSize: 0x8 }
  - { offset: 0x96177, size: 0x8, addend: 0x0, symName: __ZN12llama_ubatch6data_tD2Ev, symObjAddr: 0x5ED8, symBinAddr: 0x11310, symSize: 0xB0 }
  - { offset: 0x96C67, size: 0x8, addend: 0x0, symName: __ZNSt3__120__shared_ptr_emplaceIN12llama_ubatch6data_tENS_9allocatorIS2_EEE21__on_zero_shared_weakEv, symObjAddr: 0x5ED4, symBinAddr: 0x1130C, symSize: 0x4 }
  - { offset: 0x96C9B, size: 0x8, addend: 0x0, symName: __ZNSt3__120__shared_ptr_emplaceIN12llama_ubatch6data_tENS_9allocatorIS2_EEE21__on_zero_shared_weakEv, symObjAddr: 0x5ED4, symBinAddr: 0x1130C, symSize: 0x4 }
  - { offset: 0x96CBD, size: 0x8, addend: 0x0, symName: __ZNSt3__120__shared_ptr_emplaceIN12llama_ubatch6data_tENS_9allocatorIS2_EEE21__on_zero_shared_weakEv, symObjAddr: 0x5ED4, symBinAddr: 0x1130C, symSize: 0x4 }
  - { offset: 0x96CE0, size: 0x8, addend: 0x0, symName: __ZNSt3__120__shared_ptr_emplaceIN12llama_ubatch6data_tENS_9allocatorIS2_EEE21__on_zero_shared_weakEv, symObjAddr: 0x5ED4, symBinAddr: 0x1130C, symSize: 0x4 }
  - { offset: 0x96D15, size: 0x8, addend: 0x0, symName: __ZNSt3__120__shared_ptr_emplaceIN12llama_ubatch6data_tENS_9allocatorIS2_EEE21__on_zero_shared_weakEv, symObjAddr: 0x5ED4, symBinAddr: 0x1130C, symSize: 0x4 }
  - { offset: 0x9738C, size: 0x8, addend: 0x0, symName: __ZNSt3__16vectorIfNS_9allocatorIfEEE20__throw_length_errorB8ne200100Ev, symObjAddr: 0x64D0, symBinAddr: 0x11908, symSize: 0x14 }
  - { offset: 0x99299, size: 0x8, addend: 0x0, symName: __ZL18LLM_CHAT_TEMPLATES, symObjAddr: 0x87E40, symBinAddr: 0x364090, symSize: 0x0 }
  - { offset: 0xA1079, size: 0x8, addend: 0x0, symName: __ZNSt3__1eqB8ne200100IcNS_11char_traitsIcEENS_9allocatorIcEEEEbRKNS_12basic_stringIT_T0_T1_EEPKS6_, symObjAddr: 0x612C, symBinAddr: 0x17810, symSize: 0x88 }
  - { offset: 0xA1219, size: 0x8, addend: 0x0, symName: __ZNSt3__1neB8ne200100IcNS_11char_traitsIcEENS_9allocatorIcEEEEbRKNS_12basic_stringIT_T0_T1_EEPKS6_, symObjAddr: 0x6374, symBinAddr: 0x17A58, symSize: 0x88 }
  - { offset: 0xA3502, size: 0x8, addend: 0x0, symName: __ZNSt3__13mapINS_12basic_stringIcNS_11char_traitsIcEENS_9allocatorIcEEEE17llm_chat_templateNS_4lessIS6_EENS4_INS_4pairIKS6_S7_EEEEED1B8ne200100Ev, symObjAddr: 0x0, symBinAddr: 0x1191C, symSize: 0x28 }
  - { offset: 0xA35B6, size: 0x8, addend: 0x0, symName: __ZNSt3__16__treeINS_12__value_typeINS_12basic_stringIcNS_11char_traitsIcEENS_9allocatorIcEEEE17llm_chat_templateEENS_19__map_value_compareIS7_S9_NS_4lessIS7_EELb1EEENS5_IS9_EEE7destroyEPNS_11__tree_nodeIS9_PvEE, symObjAddr: 0x6D34, symBinAddr: 0x180C4, symSize: 0x60 }
  - { offset: 0xA3A64, size: 0x8, addend: 0x0, symName: __Z26llm_chat_template_from_strRKNSt3__112basic_stringIcNS_11char_traitsIcEENS_9allocatorIcEEEE, symObjAddr: 0x28, symBinAddr: 0x11944, symSize: 0xF0 }
  - { offset: 0xA3D9E, size: 0x8, addend: 0x0, symName: __Z24llm_chat_detect_templateRKNSt3__112basic_stringIcNS_11char_traitsIcEENS_9allocatorIcEEEE, symObjAddr: 0x118, symBinAddr: 0x11A34, symSize: 0x920 }
  - { offset: 0xA4446, size: 0x8, addend: 0x0, symName: '__ZZ24llm_chat_detect_templateRKNSt3__112basic_stringIcNS_11char_traitsIcEENS_9allocatorIcEEEEENK3$_0clEPKc', symObjAddr: 0xA38, symBinAddr: 0x12354, symSize: 0xD8 }
  - { offset: 0xA46A3, size: 0x8, addend: 0x0, symName: __ZNKSt3__112basic_stringIcNS_11char_traitsIcEENS_9allocatorIcEEE4findB8ne200100EPKcm, symObjAddr: 0xB10, symBinAddr: 0x1242C, symSize: 0xEC }
  - { offset: 0xA5090, size: 0x8, addend: 0x0, symName: __Z23llm_chat_apply_template17llm_chat_templateRKNSt3__16vectorIPK18llama_chat_messageNS0_9allocatorIS4_EEEERNS0_12basic_stringIcNS0_11char_traitsIcEENS5_IcEEEEb, symObjAddr: 0xBFC, symBinAddr: 0x12518, symSize: 0x52F8 }
  - { offset: 0xB65F7, size: 0x8, addend: 0x0, symName: __ZL4trimRKNSt3__112basic_stringIcNS_11char_traitsIcEENS_9allocatorIcEEEE, symObjAddr: 0x61B4, symBinAddr: 0x17898, symSize: 0x1C0 }
  - { offset: 0xB6A27, size: 0x8, addend: 0x0, symName: __ZNSt3__1neB8ne200100IcNS_11char_traitsIcEENS_9allocatorIcEEEEbRKNS_12basic_stringIT_T0_T1_EEPKS6_, symObjAddr: 0x6374, symBinAddr: 0x17A58, symSize: 0x88 }
  - { offset: 0xB6CE5, size: 0x8, addend: 0x0, symName: __ZNSt3__1eqB8ne200100IcNS_11char_traitsIcEENS_9allocatorIcEEEEbRKNS_12basic_stringIT_T0_T1_EEPKS6_, symObjAddr: 0x612C, symBinAddr: 0x17810, symSize: 0x88 }
  - { offset: 0xB7270, size: 0x8, addend: 0x0, symName: _llama_chat_builtin_templates, symObjAddr: 0x6484, symBinAddr: 0x17AE0, symSize: 0x90 }
  - { offset: 0xB777B, size: 0x8, addend: 0x0, symName: __ZNSt3__16__treeINS_12__value_typeINS_12basic_stringIcNS_11char_traitsIcEENS_9allocatorIcEEEE17llm_chat_templateEENS_19__map_value_compareIS7_S9_NS_4lessIS7_EELb1EEENS5_IS9_EEE30__emplace_hint_unique_key_argsIS7_JRKNS_4pairIKS7_S8_EEEEENSH_INS_15__tree_iteratorIS9_PNS_11__tree_nodeIS9_PvEElEEbEENS_21__tree_const_iteratorIS9_SQ_lEERKT_DpOT0_, symObjAddr: 0x6634, symBinAddr: 0x17B70, symSize: 0xFC }
  - { offset: 0xB7B08, size: 0x8, addend: 0x0, symName: __ZNSt3__16__treeINS_12__value_typeINS_12basic_stringIcNS_11char_traitsIcEENS_9allocatorIcEEEE17llm_chat_templateEENS_19__map_value_compareIS7_S9_NS_4lessIS7_EELb1EEENS5_IS9_EEE12__find_equalIS7_EERPNS_16__tree_node_baseIPvEENS_21__tree_const_iteratorIS9_PNS_11__tree_nodeIS9_SI_EElEERPNS_15__tree_end_nodeISK_EESL_RKT_, symObjAddr: 0x6730, symBinAddr: 0x17C6C, symSize: 0x3F8 }
  - { offset: 0xB87D0, size: 0x8, addend: 0x0, symName: __ZNSt3__110unique_ptrINS_11__tree_nodeINS_12__value_typeINS_12basic_stringIcNS_11char_traitsIcEENS_9allocatorIcEEEE17llm_chat_templateEEPvEENS_22__tree_node_destructorINS6_ISC_EEEEED1B8ne200100Ev, symObjAddr: 0x6B28, symBinAddr: 0x18064, symSize: 0x60 }
  - { offset: 0xB98D5, size: 0x8, addend: 0x0, symName: __GLOBAL__sub_I_llama_chat.cpp, symObjAddr: 0x7944, symBinAddr: 0x18124, symSize: 0x8A8 }
  - { offset: 0xEC098, size: 0x8, addend: 0x0, symName: __ZNSt3__119piecewise_constructE, symObjAddr: 0x12FE0, symBinAddr: 0x293E20, symSize: 0x0 }
  - { offset: 0xF3306, size: 0x8, addend: 0x0, symName: __ZNSt3__113__tree_removeB8ne200100IPNS_16__tree_node_baseIPvEEEEvT_S5_, symObjAddr: 0xE57C, symBinAddr: 0x26AAC, symSize: 0x3B4 }
  - { offset: 0xFE6DA, size: 0x8, addend: 0x0, symName: __ZN13llama_contextC2ERK11llama_model20llama_context_params, symObjAddr: 0x0, symBinAddr: 0x189CC, symSize: 0x168C }
  - { offset: 0x1027B9, size: 0x8, addend: 0x0, symName: __ZNK13llama_context12graph_get_cbEv, symObjAddr: 0x7914, symBinAddr: 0x20240, symSize: 0x14 }
  - { offset: 0x102814, size: 0x8, addend: 0x0, symName: __ZNK13llama_context12graph_get_cbEv, symObjAddr: 0x7914, symBinAddr: 0x20240, symSize: 0x14 }
  - { offset: 0x102837, size: 0x8, addend: 0x0, symName: __ZNK13llama_context12graph_get_cbEv, symObjAddr: 0x7914, symBinAddr: 0x20240, symSize: 0x14 }
  - { offset: 0x10285A, size: 0x8, addend: 0x0, symName: __ZNK13llama_context12graph_get_cbEv, symObjAddr: 0x7914, symBinAddr: 0x20240, symSize: 0x14 }
  - { offset: 0x102876, size: 0x8, addend: 0x0, symName: __ZNK13llama_context12graph_get_cbEv, symObjAddr: 0x7914, symBinAddr: 0x20240, symSize: 0x14 }
  - { offset: 0x102892, size: 0x8, addend: 0x0, symName: __ZNK13llama_context12graph_get_cbEv, symObjAddr: 0x7914, symBinAddr: 0x20240, symSize: 0x14 }
  - { offset: 0x1028AB, size: 0x8, addend: 0x0, symName: __ZNK13llama_context12graph_get_cbEv, symObjAddr: 0x7914, symBinAddr: 0x20240, symSize: 0x14 }
  - { offset: 0x1028C3, size: 0x8, addend: 0x0, symName: __ZNK13llama_context12graph_get_cbEv, symObjAddr: 0x7914, symBinAddr: 0x20240, symSize: 0x14 }
  - { offset: 0x1028DF, size: 0x8, addend: 0x0, symName: __ZNK13llama_context12graph_get_cbEv, symObjAddr: 0x7914, symBinAddr: 0x20240, symSize: 0x14 }
  - { offset: 0x104D6B, size: 0x8, addend: 0x0, symName: __ZN13llama_context11set_samplerEiP13llama_sampler, symObjAddr: 0x168C, symBinAddr: 0x1A058, symSize: 0x360 }
  - { offset: 0x1058E4, size: 0x8, addend: 0x0, symName: __ZN13llama_context14output_reserveEi, symObjAddr: 0x1A9C, symBinAddr: 0x1A468, symSize: 0x360 }
  - { offset: 0x1061A1, size: 0x8, addend: 0x0, symName: __ZN13llama_context13sched_reserveEv, symObjAddr: 0x1DFC, symBinAddr: 0x1A7C8, symSize: 0x8BC }
  - { offset: 0x1074DF, size: 0x8, addend: 0x0, symName: __ZNSt3__16vectorINS_10unique_ptrI12ggml_backend20ggml_backend_deleterEENS_9allocatorIS4_EEE20__throw_length_errorB8ne200100Ev, symObjAddr: 0xE3D0, symBinAddr: 0x26A5C, symSize: 0x14 }
  - { offset: 0x1074F7, size: 0x8, addend: 0x0, symName: __ZNSt3__16vectorINS_4pairIP12ggml_backendPFvS3_iEEENS_9allocatorIS6_EEE20__throw_length_errorB8ne200100Ev, symObjAddr: 0xE3E4, symBinAddr: 0x26A70, symSize: 0x14 }
  - { offset: 0x107502, size: 0x8, addend: 0x0, symName: __ZNSt3__16vectorIP12ggml_backendNS_9allocatorIS2_EEE20__throw_length_errorB8ne200100Ev, symObjAddr: 0xE40C, symBinAddr: 0x26A84, symSize: 0x14 }
  - { offset: 0x10751A, size: 0x8, addend: 0x0, symName: __ZNSt3__16vectorImNS_9allocatorImEEE20__throw_length_errorB8ne200100Ev, symObjAddr: 0xE420, symBinAddr: 0x26A98, symSize: 0x14 }
  - { offset: 0x107525, size: 0x8, addend: 0x0, symName: __ZNSt3__16vectorImNS_9allocatorImEEE20__throw_length_errorB8ne200100Ev, symObjAddr: 0xE420, symBinAddr: 0x26A98, symSize: 0x14 }
  - { offset: 0x107552, size: 0x8, addend: 0x0, symName: __ZNSt3__16vectorIP12ggml_backendNS_9allocatorIS2_EEE20__throw_length_errorB8ne200100Ev, symObjAddr: 0xE40C, symBinAddr: 0x26A84, symSize: 0x14 }
  - { offset: 0x10755D, size: 0x8, addend: 0x0, symName: __ZNSt3__16vectorINS_4pairIP12ggml_backendPFvS3_iEEENS_9allocatorIS6_EEE20__throw_length_errorB8ne200100Ev, symObjAddr: 0xE3E4, symBinAddr: 0x26A70, symSize: 0x14 }
  - { offset: 0x1075E4, size: 0x8, addend: 0x0, symName: __ZNSt3__16vectorINS_10unique_ptrI12ggml_backend20ggml_backend_deleterEENS_9allocatorIS4_EEED1B8ne200100Ev, symObjAddr: 0x26EC, symBinAddr: 0x1B084, symSize: 0x70 }
  - { offset: 0x1077D2, size: 0x8, addend: 0x0, symName: __ZNSt3__110unique_ptrI18ggml_backend_sched26ggml_backend_sched_deleterED1B8ne200100Ev, symObjAddr: 0x275C, symBinAddr: 0x1B0F4, symSize: 0x34 }
  - { offset: 0x107866, size: 0x8, addend: 0x0, symName: __ZNSt3__110unique_ptrI18llama_batch_allocrNS_14default_deleteIS1_EEED1B8ne200100Ev, symObjAddr: 0x2790, symBinAddr: 0x1B128, symSize: 0x3C }
  - { offset: 0x107928, size: 0x8, addend: 0x0, symName: __ZNSt3__16__treeINS_12__value_typeIiNS_6vectorIfNS_9allocatorIfEEEEEENS_19__map_value_compareIiS6_NS_4lessIiEELb1EEENS3_IS6_EEE7destroyEPNS_11__tree_nodeIS6_PvEE, symObjAddr: 0xE380, symBinAddr: 0x26A0C, symSize: 0x50 }
  - { offset: 0x107BDE, size: 0x8, addend: 0x0, symName: __ZN13llama_context13sampling_infoD1Ev, symObjAddr: 0x27CC, symBinAddr: 0x1B164, symSize: 0x6C }
  - { offset: 0x108178, size: 0x8, addend: 0x0, symName: __ZN11llama_crossD1Ev, symObjAddr: 0x2838, symBinAddr: 0x1B1D0, symSize: 0x78 }
  - { offset: 0x10850F, size: 0x8, addend: 0x0, symName: __ZNSt3__113unordered_mapIP18llama_adapter_lorafNS_4hashIS2_EENS_8equal_toIS2_EENS_9allocatorINS_4pairIKS2_fEEEEED1B8ne200100Ev, symObjAddr: 0x28B0, symBinAddr: 0x1B248, symSize: 0x48 }
  - { offset: 0x1087A3, size: 0x8, addend: 0x0, symName: __ZN18llama_adapter_cvecD2Ev, symObjAddr: 0xD840, symBinAddr: 0x26128, symSize: 0xC8 }
  - { offset: 0x1093B8, size: 0x8, addend: 0x0, symName: _llama_set_abort_callback, symObjAddr: 0x19EC, symBinAddr: 0x1A3B8, symSize: 0xB0 }
  - { offset: 0x109722, size: 0x8, addend: 0x0, symName: __ZN13llama_context11synchronizeEv, symObjAddr: 0x2C20, symBinAddr: 0x1B5A8, symSize: 0xE4 }
  - { offset: 0x1097E7, size: 0x8, addend: 0x0, symName: __ZNSt3__16vectorIjNS_9allocatorIjEEE8__appendEm, symObjAddr: 0xF420, symBinAddr: 0x275E4, symSize: 0x120 }
  - { offset: 0x109BC5, size: 0x8, addend: 0x0, symName: __ZNSt3__16vectorIjNS_9allocatorIjEEE20__throw_length_errorB8ne200100Ev, symObjAddr: 0xF540, symBinAddr: 0x27704, symSize: 0x14 }
  - { offset: 0x10A092, size: 0x8, addend: 0x0, symName: __ZN13llama_context13graph_reserveEjjjPK22llama_memory_context_ibPm, symObjAddr: 0x2D8C, symBinAddr: 0x1B714, symSize: 0x544 }
  - { offset: 0x10AE3D, size: 0x8, addend: 0x0, symName: __ZNSt3__113__tree_removeB8ne200100IPNS_16__tree_node_baseIPvEEEEvT_S5_, symObjAddr: 0xE57C, symBinAddr: 0x26AAC, symSize: 0x3B4 }
  - { offset: 0x10B08D, size: 0x8, addend: 0x0, symName: __ZN18llama_batch_allocrD2Ev, symObjAddr: 0xDADC, symBinAddr: 0x261F0, symSize: 0x174 }
  - { offset: 0x10C4FF, size: 0x8, addend: 0x0, symName: __ZNSt3__16__treeINS_12__value_typeIiP13llama_samplerEENS_19__map_value_compareIiS4_NS_4lessIiEELb1EEENS_9allocatorIS4_EEE7destroyEPNS_11__tree_nodeIS4_PvEE, symObjAddr: 0xE33C, symBinAddr: 0x269C8, symSize: 0x44 }
  - { offset: 0x10CBED, size: 0x8, addend: 0x0, symName: __ZN13llama_contextC1ERK11llama_model20llama_context_params, symObjAddr: 0x28F8, symBinAddr: 0x1B290, symSize: 0x4 }
  - { offset: 0x10CC1F, size: 0x8, addend: 0x0, symName: __ZN13llama_contextC1ERK11llama_model20llama_context_params, symObjAddr: 0x28F8, symBinAddr: 0x1B290, symSize: 0x4 }
  - { offset: 0x10CCFB, size: 0x8, addend: 0x0, symName: __ZN13llama_contextD2Ev, symObjAddr: 0x28FC, symBinAddr: 0x1B294, symSize: 0x310 }
  - { offset: 0x10E723, size: 0x8, addend: 0x0, symName: __ZN13llama_contextD1Ev, symObjAddr: 0x2C1C, symBinAddr: 0x1B5A4, symSize: 0x4 }
  - { offset: 0x10E746, size: 0x8, addend: 0x0, symName: __ZN13llama_contextD1Ev, symObjAddr: 0x2C1C, symBinAddr: 0x1B5A4, symSize: 0x4 }
  - { offset: 0x10E77D, size: 0x8, addend: 0x0, symName: __ZNK13llama_context15graph_max_nodesEj, symObjAddr: 0x2D04, symBinAddr: 0x1B68C, symSize: 0x88 }
  - { offset: 0x10EFF0, size: 0x8, addend: 0x0, symName: __ZNSt3__13mapIiP13llama_samplerNS_4lessIiEENS_9allocatorINS_4pairIKiS2_EEEEE6insertB8ne200100INS_20__map_const_iteratorINS_21__tree_const_iteratorINS_12__value_typeIiS2_EEPNS_11__tree_nodeISF_PvEElEEEEEEvT_SM_, symObjAddr: 0xF554, symBinAddr: 0x27718, symSize: 0xF8 }
  - { offset: 0x10F036, size: 0x8, addend: 0x0, symName: __ZNSt3__13mapIiP13llama_samplerNS_4lessIiEENS_9allocatorINS_4pairIKiS2_EEEEE6insertB8ne200100INS_20__map_const_iteratorINS_21__tree_const_iteratorINS_12__value_typeIiS2_EEPNS_11__tree_nodeISF_PvEElEEEEEEvT_SM_, symObjAddr: 0xF554, symBinAddr: 0x27718, symSize: 0xF8 }
  - { offset: 0x10F412, size: 0x8, addend: 0x0, symName: __ZN16llm_graph_paramsD1Ev, symObjAddr: 0x53C4, symBinAddr: 0x1DD4C, symSize: 0xA0 }
  - { offset: 0x10F5E4, size: 0x8, addend: 0x0, symName: __ZNK13llama_context9get_modelEv, symObjAddr: 0x32D0, symBinAddr: 0x1BC58, symSize: 0x8 }
  - { offset: 0x10F606, size: 0x8, addend: 0x0, symName: __ZNK13llama_context11get_cparamsEv, symObjAddr: 0x32D8, symBinAddr: 0x1BC60, symSize: 0x8 }
  - { offset: 0x10F630, size: 0x8, addend: 0x0, symName: __ZNK13llama_context9get_schedEv, symObjAddr: 0x32E0, symBinAddr: 0x1BC68, symSize: 0x8 }
  - { offset: 0x10F65C, size: 0x8, addend: 0x0, symName: __ZNK13llama_context9get_schedEv, symObjAddr: 0x32E0, symBinAddr: 0x1BC68, symSize: 0x8 }
  - { offset: 0x10F67A, size: 0x8, addend: 0x0, symName: __ZNK13llama_context5n_ctxEv, symObjAddr: 0x32E8, symBinAddr: 0x1BC70, symSize: 0x8 }
  - { offset: 0x10F69C, size: 0x8, addend: 0x0, symName: __ZNK13llama_context9n_ctx_seqEv, symObjAddr: 0x32F0, symBinAddr: 0x1BC78, symSize: 0x8 }
  - { offset: 0x10F6BE, size: 0x8, addend: 0x0, symName: __ZNK13llama_context7n_batchEv, symObjAddr: 0x32F8, symBinAddr: 0x1BC80, symSize: 0x8 }
  - { offset: 0x10F6E0, size: 0x8, addend: 0x0, symName: __ZNK13llama_context8n_ubatchEv, symObjAddr: 0x3300, symBinAddr: 0x1BC88, symSize: 0x8 }
  - { offset: 0x10F702, size: 0x8, addend: 0x0, symName: __ZNK13llama_context9n_seq_maxEv, symObjAddr: 0x3308, symBinAddr: 0x1BC90, symSize: 0x8 }
  - { offset: 0x10F724, size: 0x8, addend: 0x0, symName: __ZNK13llama_context9n_threadsEv, symObjAddr: 0x3310, symBinAddr: 0x1BC98, symSize: 0x8 }
  - { offset: 0x10F746, size: 0x8, addend: 0x0, symName: __ZNK13llama_context15n_threads_batchEv, symObjAddr: 0x3318, symBinAddr: 0x1BCA0, symSize: 0x8 }
  - { offset: 0x10F77E, size: 0x8, addend: 0x0, symName: __ZNK13llama_context10get_memoryEv, symObjAddr: 0x3320, symBinAddr: 0x1BCA8, symSize: 0x8 }
  - { offset: 0x10F7A2, size: 0x8, addend: 0x0, symName: __ZNK13llama_context10get_memoryEv, symObjAddr: 0x3320, symBinAddr: 0x1BCA8, symSize: 0x8 }
  - { offset: 0x10F7F2, size: 0x8, addend: 0x0, symName: __ZN13llama_context13memory_updateEb, symObjAddr: 0x3328, symBinAddr: 0x1BCB0, symSize: 0x1FC }
  - { offset: 0x10FBE0, size: 0x8, addend: 0x0, symName: __ZNK13llama_context12pooling_typeEv, symObjAddr: 0x3524, symBinAddr: 0x1BEAC, symSize: 0x8 }
  - { offset: 0x10FC02, size: 0x8, addend: 0x0, symName: __ZN13llama_context10get_logitsEv, symObjAddr: 0x352C, symBinAddr: 0x1BEB4, symSize: 0x24 }
  - { offset: 0x10FC39, size: 0x8, addend: 0x0, symName: __ZN13llama_context14output_reorderEv, symObjAddr: 0x3550, symBinAddr: 0x1BED8, symSize: 0x524 }
  - { offset: 0x10FEBC, size: 0x8, addend: 0x0, symName: __ZNK13llama_context18output_resolve_rowEi, symObjAddr: 0x3A74, symBinAddr: 0x1C3FC, symSize: 0x1DC }
  - { offset: 0x11012F, size: 0x8, addend: 0x0, symName: __ZN13llama_context14get_logits_ithEi, symObjAddr: 0x3C50, symBinAddr: 0x1C5D8, symSize: 0x2C0 }
  - { offset: 0x1103E6, size: 0x8, addend: 0x0, symName: __ZN13llama_context14get_embeddingsEv, symObjAddr: 0x3F10, symBinAddr: 0x1C898, symSize: 0x24 }
  - { offset: 0x11041D, size: 0x8, addend: 0x0, symName: __ZNK13llama_context18get_sampled_tokensEv, symObjAddr: 0x3F34, symBinAddr: 0x1C8BC, symSize: 0x8 }
  - { offset: 0x110447, size: 0x8, addend: 0x0, symName: __ZN13llama_context18get_embeddings_ithEi, symObjAddr: 0x3F3C, symBinAddr: 0x1C8C4, symSize: 0x2C4 }
  - { offset: 0x110828, size: 0x8, addend: 0x0, symName: __ZN13llama_context18get_embeddings_seqEi, symObjAddr: 0x4200, symBinAddr: 0x1CB88, symSize: 0x4C }
  - { offset: 0x11085C, size: 0x8, addend: 0x0, symName: __ZN13llama_context18get_embeddings_seqEi, symObjAddr: 0x4200, symBinAddr: 0x1CB88, symSize: 0x4C }
  - { offset: 0x11087B, size: 0x8, addend: 0x0, symName: __ZN13llama_context18get_embeddings_seqEi, symObjAddr: 0x4200, symBinAddr: 0x1CB88, symSize: 0x4C }
  - { offset: 0x1108A3, size: 0x8, addend: 0x0, symName: __ZN13llama_context18get_embeddings_seqEi, symObjAddr: 0x4200, symBinAddr: 0x1CB88, symSize: 0x4C }
  - { offset: 0x11098E, size: 0x8, addend: 0x0, symName: __ZN13llama_context21get_sampled_token_ithEi, symObjAddr: 0x424C, symBinAddr: 0x1CBD4, symSize: 0xFC }
  - { offset: 0x110A51, size: 0x8, addend: 0x0, symName: __ZN13llama_context21get_sampled_probs_ithEi, symObjAddr: 0x4348, symBinAddr: 0x1CCD0, symSize: 0xF4 }
  - { offset: 0x110B1F, size: 0x8, addend: 0x0, symName: __ZN13llama_context22get_sampled_logits_ithEi, symObjAddr: 0x443C, symBinAddr: 0x1CDC4, symSize: 0xF4 }
  - { offset: 0x110C03, size: 0x8, addend: 0x0, symName: __ZN13llama_context26get_sampled_candidates_ithEi, symObjAddr: 0x4530, symBinAddr: 0x1CEB8, symSize: 0xA0 }
  - { offset: 0x110CB2, size: 0x8, addend: 0x0, symName: __ZN13llama_context28get_sampled_candidates_countEi, symObjAddr: 0x45D0, symBinAddr: 0x1CF58, symSize: 0xD4 }
  - { offset: 0x110D80, size: 0x8, addend: 0x0, symName: __ZN13llama_context24get_sampled_logits_countEi, symObjAddr: 0x46A4, symBinAddr: 0x1D02C, symSize: 0x104 }
  - { offset: 0x110E4E, size: 0x8, addend: 0x0, symName: __ZN13llama_context23get_sampled_probs_countEi, symObjAddr: 0x47A8, symBinAddr: 0x1D130, symSize: 0xD4 }
  - { offset: 0x110F1C, size: 0x8, addend: 0x0, symName: __ZN13llama_context17attach_threadpoolEP15ggml_threadpoolS1_, symObjAddr: 0x487C, symBinAddr: 0x1D204, symSize: 0x60 }
  - { offset: 0x110F63, size: 0x8, addend: 0x0, symName: __ZN13llama_context17detach_threadpoolEv, symObjAddr: 0x48DC, symBinAddr: 0x1D264, symSize: 0x4C }
  - { offset: 0x110F98, size: 0x8, addend: 0x0, symName: __ZN13llama_context13set_n_threadsEii, symObjAddr: 0x4928, symBinAddr: 0x1D2B0, symSize: 0x58 }
  - { offset: 0x110FDF, size: 0x8, addend: 0x0, symName: __ZN13llama_context18set_abort_callbackEPFbPvES0_, symObjAddr: 0x4980, symBinAddr: 0x1D308, symSize: 0xB0 }
  - { offset: 0x111153, size: 0x8, addend: 0x0, symName: __ZN13llama_context14set_embeddingsEb, symObjAddr: 0x4A30, symBinAddr: 0x1D3B8, symSize: 0x48 }
  - { offset: 0x11118E, size: 0x8, addend: 0x0, symName: __ZN13llama_context15set_causal_attnEb, symObjAddr: 0x4A78, symBinAddr: 0x1D400, symSize: 0x64 }
  - { offset: 0x1111CC, size: 0x8, addend: 0x0, symName: __ZN13llama_context10set_warmupEb, symObjAddr: 0x4ADC, symBinAddr: 0x1D464, symSize: 0x54 }
  - { offset: 0x111250, size: 0x8, addend: 0x0, symName: __ZN13llama_context16set_adapter_loraEP18llama_adapter_loraf, symObjAddr: 0x4B30, symBinAddr: 0x1D4B8, symSize: 0xC4 }
  - { offset: 0x11131E, size: 0x8, addend: 0x0, symName: __ZNSt3__112__hash_tableINS_17__hash_value_typeIP18llama_adapter_lorafEENS_22__unordered_map_hasherIS3_S4_NS_4hashIS3_EENS_8equal_toIS3_EELb1EEENS_21__unordered_map_equalIS3_S4_S9_S7_Lb1EEENS_9allocatorIS4_EEE4findIS3_EENS_15__hash_iteratorIPNS_11__hash_nodeIS4_PvEEEERKT_, symObjAddr: 0xE930, symBinAddr: 0x26E60, symSize: 0x110 }
  - { offset: 0x111375, size: 0x8, addend: 0x0, symName: __ZNSt3__112__hash_tableINS_17__hash_value_typeIP18llama_adapter_lorafEENS_22__unordered_map_hasherIS3_S4_NS_4hashIS3_EENS_8equal_toIS3_EELb1EEENS_21__unordered_map_equalIS3_S4_S9_S7_Lb1EEENS_9allocatorIS4_EEE4findIS3_EENS_15__hash_iteratorIPNS_11__hash_nodeIS4_PvEEEERKT_, symObjAddr: 0xE930, symBinAddr: 0x26E60, symSize: 0x110 }
  - { offset: 0x111391, size: 0x8, addend: 0x0, symName: __ZNSt3__112__hash_tableINS_17__hash_value_typeIP18llama_adapter_lorafEENS_22__unordered_map_hasherIS3_S4_NS_4hashIS3_EENS_8equal_toIS3_EELb1EEENS_21__unordered_map_equalIS3_S4_S9_S7_Lb1EEENS_9allocatorIS4_EEE4findIS3_EENS_15__hash_iteratorIPNS_11__hash_nodeIS4_PvEEEERKT_, symObjAddr: 0xE930, symBinAddr: 0x26E60, symSize: 0x110 }
  - { offset: 0x11148B, size: 0x8, addend: 0x0, symName: __ZNSt3__112__hash_tableINS_17__hash_value_typeIP18llama_adapter_lorafEENS_22__unordered_map_hasherIS3_S4_NS_4hashIS3_EENS_8equal_toIS3_EELb1EEENS_21__unordered_map_equalIS3_S4_S9_S7_Lb1EEENS_9allocatorIS4_EEE25__emplace_unique_key_argsIS3_JRKNS_21piecewise_construct_tENS_5tupleIJRKS3_EEENSK_IJEEEEEENS_4pairINS_15__hash_iteratorIPNS_11__hash_nodeIS4_PvEEEEbEERKT_DpOT0_, symObjAddr: 0xEA40, symBinAddr: 0x26F70, symSize: 0x364 }
  - { offset: 0x111DAF, size: 0x8, addend: 0x0, symName: __ZN13llama_context15rm_adapter_loraEP18llama_adapter_lora, symObjAddr: 0x4BF4, symBinAddr: 0x1D57C, symSize: 0x88 }
  - { offset: 0x111FF1, size: 0x8, addend: 0x0, symName: __ZNSt3__112__hash_tableINS_17__hash_value_typeIP18llama_adapter_lorafEENS_22__unordered_map_hasherIS3_S4_NS_4hashIS3_EENS_8equal_toIS3_EELb1EEENS_21__unordered_map_equalIS3_S4_S9_S7_Lb1EEENS_9allocatorIS4_EEE6removeENS_21__hash_const_iteratorIPNS_11__hash_nodeIS4_PvEEEE, symObjAddr: 0xEF24, symBinAddr: 0x27454, symSize: 0x138 }
  - { offset: 0x112067, size: 0x8, addend: 0x0, symName: __ZNSt3__112__hash_tableINS_17__hash_value_typeIP18llama_adapter_lorafEENS_22__unordered_map_hasherIS3_S4_NS_4hashIS3_EENS_8equal_toIS3_EELb1EEENS_21__unordered_map_equalIS3_S4_S9_S7_Lb1EEENS_9allocatorIS4_EEE6removeENS_21__hash_const_iteratorIPNS_11__hash_nodeIS4_PvEEEE, symObjAddr: 0xEF24, symBinAddr: 0x27454, symSize: 0x138 }
  - { offset: 0x112083, size: 0x8, addend: 0x0, symName: __ZNSt3__112__hash_tableINS_17__hash_value_typeIP18llama_adapter_lorafEENS_22__unordered_map_hasherIS3_S4_NS_4hashIS3_EENS_8equal_toIS3_EELb1EEENS_21__unordered_map_equalIS3_S4_S9_S7_Lb1EEENS_9allocatorIS4_EEE6removeENS_21__hash_const_iteratorIPNS_11__hash_nodeIS4_PvEEEE, symObjAddr: 0xEF24, symBinAddr: 0x27454, symSize: 0x138 }
  - { offset: 0x112329, size: 0x8, addend: 0x0, symName: __ZN13llama_context18clear_adapter_loraEv, symObjAddr: 0x4C7C, symBinAddr: 0x1D604, symSize: 0x84 }
  - { offset: 0x112557, size: 0x8, addend: 0x0, symName: __ZN13llama_context18apply_adapter_cvecEPKfmiii, symObjAddr: 0x4D00, symBinAddr: 0x1D688, symSize: 0x84 }
  - { offset: 0x1125D5, size: 0x8, addend: 0x0, symName: __ZN13llama_context14process_ubatchERK12llama_ubatch14llm_graph_typeP22llama_memory_context_iR11ggml_status, symObjAddr: 0x4D84, symBinAddr: 0x1D70C, symSize: 0x3DC }
  - { offset: 0x112DEE, size: 0x8, addend: 0x0, symName: __ZN13llama_context13graph_computeEP11ggml_cgraphb, symObjAddr: 0x52E0, symBinAddr: 0x1DC68, symSize: 0xE4 }
  - { offset: 0x112FC7, size: 0x8, addend: 0x0, symName: __ZNK13llama_context12graph_paramsEP16llm_graph_resultRK12llama_ubatchPK22llama_memory_context_i14llm_graph_type, symObjAddr: 0x5160, symBinAddr: 0x1DAE8, symSize: 0x180 }
  - { offset: 0x113C7A, size: 0x8, addend: 0x0, symName: __ZN13llama_context6encodeERK11llama_batch, symObjAddr: 0x5464, symBinAddr: 0x1DDEC, symSize: 0xB34 }
  - { offset: 0x116689, size: 0x8, addend: 0x0, symName: __ZN13llama_context6decodeERK11llama_batch, symObjAddr: 0x5FF4, symBinAddr: 0x1E920, symSize: 0x168C }
  - { offset: 0x11919A, size: 0x8, addend: 0x0, symName: __ZL24copy_tensor_async_floatsRKNSt3__13mapIiP11ggml_tensorNS_4lessIiEENS_9allocatorINS_4pairIKiS2_EEEEEEPfmRNS_6vectorIjNS5_IjEEEERKNS0_IijS4_NS5_INS6_IS7_jEEEEEEP18ggml_backend_sched, symObjAddr: 0x7680, symBinAddr: 0x1FFAC, symSize: 0x1A0 }
  - { offset: 0x119538, size: 0x8, addend: 0x0, symName: __ZNSt3__16vectorIN13llama_context9swap_infoENS_9allocatorIS2_EEE9push_backB8ne200100EOS2_, symObjAddr: 0x7820, symBinAddr: 0x2014C, symSize: 0xEC }
  - { offset: 0x11955E, size: 0x8, addend: 0x0, symName: __ZNSt3__16__treeINS_12__value_typeIijEENS_19__map_value_compareIiS2_NS_4lessIiEELb1EEENS_9allocatorIS2_EEE7destroyEPNS_11__tree_nodeIS2_PvEE, symObjAddr: 0xF3C8, symBinAddr: 0x2758C, symSize: 0x44 }
  - { offset: 0x119675, size: 0x8, addend: 0x0, symName: __ZNSt3__16vectorIN13llama_context9swap_infoENS_9allocatorIS2_EEE9push_backB8ne200100EOS2_, symObjAddr: 0x7820, symBinAddr: 0x2014C, symSize: 0xEC }
  - { offset: 0x119A86, size: 0x8, addend: 0x0, symName: __ZNK13llama_context18get_gf_res_reserveEv, symObjAddr: 0x790C, symBinAddr: 0x20238, symSize: 0x8 }
  - { offset: 0x119D58, size: 0x8, addend: 0x0, symName: __ZNSt3__16vectorIN13llama_context9swap_infoENS_9allocatorIS2_EEE20__throw_length_errorB8ne200100Ev, symObjAddr: 0xF40C, symBinAddr: 0x275D0, symSize: 0x14 }
  - { offset: 0x119D70, size: 0x8, addend: 0x0, symName: __ZNSt3__16vectorIjNS_9allocatorIjEEE8__appendEm, symObjAddr: 0xF420, symBinAddr: 0x275E4, symSize: 0x120 }
  - { offset: 0x119D7B, size: 0x8, addend: 0x0, symName: __ZNK13llama_context18get_gf_res_reserveEv, symObjAddr: 0x790C, symBinAddr: 0x20238, symSize: 0x8 }
  - { offset: 0x119DA7, size: 0x8, addend: 0x0, symName: __ZNK13llama_context18get_gf_res_reserveEv, symObjAddr: 0x790C, symBinAddr: 0x20238, symSize: 0x8 }
  - { offset: 0x119EBE, size: 0x8, addend: 0x0, symName: __ZN13llama_context14state_get_sizeEv, symObjAddr: 0x7928, symBinAddr: 0x20254, symSize: 0xA0 }
  - { offset: 0x119F80, size: 0x8, addend: 0x0, symName: __ZN13llama_context16state_write_dataER16llama_io_write_i, symObjAddr: 0x79C8, symBinAddr: 0x202F4, symSize: 0x35C }
  - { offset: 0x11AAB7, size: 0x8, addend: 0x0, symName: __ZN20llama_io_write_dummyD1Ev, symObjAddr: 0x7D24, symBinAddr: 0x20650, symSize: 0x4 }
  - { offset: 0x11AC30, size: 0x8, addend: 0x0, symName: __ZN13llama_context14state_get_dataEPhm, symObjAddr: 0x7D28, symBinAddr: 0x20654, symSize: 0xA4 }
  - { offset: 0x11AD2E, size: 0x8, addend: 0x0, symName: __ZN21llama_io_write_bufferD1Ev, symObjAddr: 0x7DCC, symBinAddr: 0x206F8, symSize: 0x4 }
  - { offset: 0x11AEA1, size: 0x8, addend: 0x0, symName: __ZN13llama_context14state_set_dataEPKhm, symObjAddr: 0x7DD0, symBinAddr: 0x206FC, symSize: 0xA4 }
  - { offset: 0x11AF9F, size: 0x8, addend: 0x0, symName: __ZN13llama_context15state_read_dataER15llama_io_read_i, symObjAddr: 0x7E74, symBinAddr: 0x207A0, symSize: 0x554 }
  - { offset: 0x11C042, size: 0x8, addend: 0x0, symName: __ZN20llama_io_read_bufferD1Ev, symObjAddr: 0x83C8, symBinAddr: 0x20CF4, symSize: 0x4 }
  - { offset: 0x11C0AB, size: 0x8, addend: 0x0, symName: __ZN13llama_context18state_seq_get_sizeEij, symObjAddr: 0x83CC, symBinAddr: 0x20CF8, symSize: 0xC8 }
  - { offset: 0x11C1E0, size: 0x8, addend: 0x0, symName: __ZN13llama_context20state_seq_write_dataER16llama_io_write_iij, symObjAddr: 0x8494, symBinAddr: 0x20DC0, symSize: 0x40 }
  - { offset: 0x11C25C, size: 0x8, addend: 0x0, symName: __ZN13llama_context18state_seq_get_dataEiPhmj, symObjAddr: 0x84D4, symBinAddr: 0x20E00, symSize: 0xD4 }
  - { offset: 0x11C40A, size: 0x8, addend: 0x0, symName: __ZN13llama_context18state_seq_set_dataEiPKhmj, symObjAddr: 0x85A8, symBinAddr: 0x20ED4, symSize: 0xD4 }
  - { offset: 0x11C57B, size: 0x8, addend: 0x0, symName: __ZN13llama_context19state_seq_read_dataER15llama_io_read_iij, symObjAddr: 0x867C, symBinAddr: 0x20FA8, symSize: 0x40 }
  - { offset: 0x11CA4A, size: 0x8, addend: 0x0, symName: __ZN13llama_context15state_load_fileEPKcPimPm, symObjAddr: 0x86BC, symBinAddr: 0x20FE8, symSize: 0x1D4 }
  - { offset: 0x11CEDF, size: 0x8, addend: 0x0, symName: __ZN18llama_io_read_fileD1Ev, symObjAddr: 0x8890, symBinAddr: 0x211BC, symSize: 0x44 }
  - { offset: 0x11CF03, size: 0x8, addend: 0x0, symName: __ZN18llama_io_read_fileD1Ev, symObjAddr: 0x8890, symBinAddr: 0x211BC, symSize: 0x44 }
  - { offset: 0x11D1B4, size: 0x8, addend: 0x0, symName: __ZN13llama_context15state_save_fileEPKcPKim, symObjAddr: 0x88D4, symBinAddr: 0x21200, symSize: 0x108 }
  - { offset: 0x11D58D, size: 0x8, addend: 0x0, symName: __ZN19llama_io_write_fileD1Ev, symObjAddr: 0x89DC, symBinAddr: 0x21308, symSize: 0x44 }
  - { offset: 0x11D5B1, size: 0x8, addend: 0x0, symName: __ZN19llama_io_write_fileD1Ev, symObjAddr: 0x89DC, symBinAddr: 0x21308, symSize: 0x44 }
  - { offset: 0x11D6F8, size: 0x8, addend: 0x0, symName: __ZN13llama_context19state_seq_load_fileEiPKcPimPm, symObjAddr: 0x8A20, symBinAddr: 0x2134C, symSize: 0x27C }
  - { offset: 0x11DC1E, size: 0x8, addend: 0x0, symName: __ZN13llama_context19state_seq_save_fileEiPKcPKim, symObjAddr: 0x8C9C, symBinAddr: 0x215C8, symSize: 0x19C }
  - { offset: 0x11E0B6, size: 0x8, addend: 0x0, symName: __ZN19llama_io_write_file7n_bytesEv, symObjAddr: 0x8E38, symBinAddr: 0x21764, symSize: 0x8 }
  - { offset: 0x11E0D8, size: 0x8, addend: 0x0, symName: __ZNK13llama_context13perf_get_dataEv, symObjAddr: 0x8E40, symBinAddr: 0x2176C, symSize: 0x54 }
  - { offset: 0x11E1BC, size: 0x8, addend: 0x0, symName: __ZN13llama_context10perf_resetEv, symObjAddr: 0x8E94, symBinAddr: 0x217C0, symSize: 0x38 }
  - { offset: 0x11E93C, size: 0x8, addend: 0x0, symName: __ZNK13llama_context16memory_breakdownEv, symObjAddr: 0x8ECC, symBinAddr: 0x217F8, symSize: 0x500 }
  - { offset: 0x11FD31, size: 0x8, addend: 0x0, symName: __ZNSt3__16__treeINS_12__value_typeIP24ggml_backend_buffer_typemEENS_19__map_value_compareIS3_S4_NS_4lessIS3_EELb1EEENS_9allocatorIS4_EEE7destroyEPNS_11__tree_nodeIS4_PvEE, symObjAddr: 0xFA30, symBinAddr: 0x27BF4, symSize: 0x44 }
  - { offset: 0x11FE60, size: 0x8, addend: 0x0, symName: __ZNSt3__16__treeINS_12__value_typeIP24ggml_backend_buffer_type27llama_memory_breakdown_dataEENS_19__map_value_compareIS3_S5_NS_4lessIS3_EELb1EEENS_9allocatorIS5_EEE7destroyEPNS_11__tree_nodeIS5_PvEE, symObjAddr: 0xF9EC, symBinAddr: 0x27BB0, symSize: 0x44 }
  - { offset: 0x120011, size: 0x8, addend: 0x0, symName: __ZN13llama_context8opt_initEP11llama_model16llama_opt_params, symObjAddr: 0x93CC, symBinAddr: 0x21CF8, symSize: 0x5F8 }
  - { offset: 0x12094B, size: 0x8, addend: 0x0, symName: __ZN13llama_context14opt_epoch_iterEP16ggml_opt_datasetP15ggml_opt_resultRKNSt3__16vectorIiNS4_9allocatorIiEEEESA_R11llama_batchPFvbP16ggml_opt_contextS1_S3_xxxEbxxx, symObjAddr: 0x99C4, symBinAddr: 0x222F0, symSize: 0x7B8 }
  - { offset: 0x120A7C, size: 0x8, addend: 0x0, symName: __ZN13llama_context14opt_epoch_iterEP16ggml_opt_datasetP15ggml_opt_resultRKNSt3__16vectorIiNS4_9allocatorIiEEEESA_R11llama_batchPFvbP16ggml_opt_contextS1_S3_xxxEbxxx, symObjAddr: 0x99C4, symBinAddr: 0x222F0, symSize: 0x7B8 }
  - { offset: 0x121A11, size: 0x8, addend: 0x0, symName: __ZN13llama_context9opt_epochEP16ggml_opt_datasetP15ggml_opt_resultS3_xPFvbP16ggml_opt_contextS1_S3_xxxES7_, symObjAddr: 0xA17C, symBinAddr: 0x22AA8, symSize: 0x2D4 }
  - { offset: 0x12255E, size: 0x8, addend: 0x0, symName: _llama_context_default_params, symObjAddr: 0xA450, symBinAddr: 0x22D7C, symSize: 0x34 }
  - { offset: 0x1225BC, size: 0x8, addend: 0x0, symName: _llama_init_from_model, symObjAddr: 0xA484, symBinAddr: 0x22DB0, symSize: 0x2D4 }
  - { offset: 0x122780, size: 0x8, addend: 0x0, symName: _llama_new_context_with_model, symObjAddr: 0xA758, symBinAddr: 0x23084, symSize: 0x48 }
  - { offset: 0x1227F4, size: 0x8, addend: 0x0, symName: _llama_free, symObjAddr: 0xA7A0, symBinAddr: 0x230CC, symSize: 0x1C }
  - { offset: 0x122845, size: 0x8, addend: 0x0, symName: _llama_n_ctx, symObjAddr: 0xA7BC, symBinAddr: 0x230E8, symSize: 0x8 }
  - { offset: 0x122873, size: 0x8, addend: 0x0, symName: _llama_n_ctx, symObjAddr: 0xA7BC, symBinAddr: 0x230E8, symSize: 0x8 }
  - { offset: 0x1228A7, size: 0x8, addend: 0x0, symName: _llama_n_ctx_seq, symObjAddr: 0xA7C4, symBinAddr: 0x230F0, symSize: 0x8 }
  - { offset: 0x1228D5, size: 0x8, addend: 0x0, symName: _llama_n_ctx_seq, symObjAddr: 0xA7C4, symBinAddr: 0x230F0, symSize: 0x8 }
  - { offset: 0x1228F0, size: 0x8, addend: 0x0, symName: _llama_n_batch, symObjAddr: 0xA7CC, symBinAddr: 0x230F8, symSize: 0x8 }
  - { offset: 0x12291E, size: 0x8, addend: 0x0, symName: _llama_n_batch, symObjAddr: 0xA7CC, symBinAddr: 0x230F8, symSize: 0x8 }
  - { offset: 0x122952, size: 0x8, addend: 0x0, symName: _llama_n_ubatch, symObjAddr: 0xA7D4, symBinAddr: 0x23100, symSize: 0x8 }
  - { offset: 0x122980, size: 0x8, addend: 0x0, symName: _llama_n_ubatch, symObjAddr: 0xA7D4, symBinAddr: 0x23100, symSize: 0x8 }
  - { offset: 0x12299B, size: 0x8, addend: 0x0, symName: _llama_n_seq_max, symObjAddr: 0xA7DC, symBinAddr: 0x23108, symSize: 0x8 }
  - { offset: 0x1229C9, size: 0x8, addend: 0x0, symName: _llama_n_seq_max, symObjAddr: 0xA7DC, symBinAddr: 0x23108, symSize: 0x8 }
  - { offset: 0x1229FD, size: 0x8, addend: 0x0, symName: _llama_get_model, symObjAddr: 0xA7E4, symBinAddr: 0x23110, symSize: 0x8 }
  - { offset: 0x122A2B, size: 0x8, addend: 0x0, symName: _llama_get_model, symObjAddr: 0xA7E4, symBinAddr: 0x23110, symSize: 0x8 }
  - { offset: 0x122A5F, size: 0x8, addend: 0x0, symName: _llama_pooling_type, symObjAddr: 0xA7EC, symBinAddr: 0x23118, symSize: 0x8 }
  - { offset: 0x122A8D, size: 0x8, addend: 0x0, symName: _llama_pooling_type, symObjAddr: 0xA7EC, symBinAddr: 0x23118, symSize: 0x8 }
  - { offset: 0x122AD9, size: 0x8, addend: 0x0, symName: _llama_attach_threadpool, symObjAddr: 0xA7F4, symBinAddr: 0x23120, symSize: 0x60 }
  - { offset: 0x122B78, size: 0x8, addend: 0x0, symName: _llama_detach_threadpool, symObjAddr: 0xA854, symBinAddr: 0x23180, symSize: 0x4C }
  - { offset: 0x122C01, size: 0x8, addend: 0x0, symName: _llama_set_n_threads, symObjAddr: 0xA8A0, symBinAddr: 0x231CC, symSize: 0x58 }
  - { offset: 0x122CA0, size: 0x8, addend: 0x0, symName: _llama_n_threads, symObjAddr: 0xA8F8, symBinAddr: 0x23224, symSize: 0x8 }
  - { offset: 0x122CCE, size: 0x8, addend: 0x0, symName: _llama_n_threads, symObjAddr: 0xA8F8, symBinAddr: 0x23224, symSize: 0x8 }
  - { offset: 0x122D02, size: 0x8, addend: 0x0, symName: _llama_n_threads_batch, symObjAddr: 0xA900, symBinAddr: 0x2322C, symSize: 0x8 }
  - { offset: 0x122D30, size: 0x8, addend: 0x0, symName: _llama_n_threads_batch, symObjAddr: 0xA900, symBinAddr: 0x2322C, symSize: 0x8 }
  - { offset: 0x122D70, size: 0x8, addend: 0x0, symName: _llama_set_embeddings, symObjAddr: 0xA908, symBinAddr: 0x23234, symSize: 0x48 }
  - { offset: 0x122DFD, size: 0x8, addend: 0x0, symName: _llama_set_causal_attn, symObjAddr: 0xA950, symBinAddr: 0x2327C, symSize: 0x64 }
  - { offset: 0x122E93, size: 0x8, addend: 0x0, symName: _llama_set_warmup, symObjAddr: 0xA9B4, symBinAddr: 0x232E0, symSize: 0x54 }
  - { offset: 0x122F04, size: 0x8, addend: 0x0, symName: _llama_synchronize, symObjAddr: 0xAA08, symBinAddr: 0x23334, symSize: 0x4 }
  - { offset: 0x122F2D, size: 0x8, addend: 0x0, symName: _llama_synchronize, symObjAddr: 0xAA08, symBinAddr: 0x23334, symSize: 0x4 }
  - { offset: 0x122F59, size: 0x8, addend: 0x0, symName: _llama_get_logits, symObjAddr: 0xAA0C, symBinAddr: 0x23338, symSize: 0x2C }
  - { offset: 0x122FCB, size: 0x8, addend: 0x0, symName: _llama_get_logits_ith, symObjAddr: 0xAA38, symBinAddr: 0x23364, symSize: 0x48 }
  - { offset: 0x12306D, size: 0x8, addend: 0x0, symName: _llama_get_embeddings, symObjAddr: 0xAA80, symBinAddr: 0x233AC, symSize: 0x2C }
  - { offset: 0x1230DF, size: 0x8, addend: 0x0, symName: _llama_get_embeddings_ith, symObjAddr: 0xAAAC, symBinAddr: 0x233D8, symSize: 0x2C }
  - { offset: 0x12316F, size: 0x8, addend: 0x0, symName: _llama_get_embeddings_seq, symObjAddr: 0xAAD8, symBinAddr: 0x23404, symSize: 0x74 }
  - { offset: 0x123314, size: 0x8, addend: 0x0, symName: _llama_set_sampler, symObjAddr: 0xAB4C, symBinAddr: 0x23478, symSize: 0x4 }
  - { offset: 0x12335D, size: 0x8, addend: 0x0, symName: _llama_set_sampler, symObjAddr: 0xAB4C, symBinAddr: 0x23478, symSize: 0x4 }
  - { offset: 0x12337E, size: 0x8, addend: 0x0, symName: _llama_get_sampled_token_ith, symObjAddr: 0xAB50, symBinAddr: 0x2347C, symSize: 0x2C }
  - { offset: 0x1233DD, size: 0x8, addend: 0x0, symName: _llama_get_sampled_probs_ith, symObjAddr: 0xAB7C, symBinAddr: 0x234A8, symSize: 0x2C }
  - { offset: 0x12343C, size: 0x8, addend: 0x0, symName: _llama_get_sampled_logits_ith, symObjAddr: 0xABA8, symBinAddr: 0x234D4, symSize: 0x2C }
  - { offset: 0x1234DF, size: 0x8, addend: 0x0, symName: _llama_get_sampled_candidates_ith, symObjAddr: 0xABD4, symBinAddr: 0x23500, symSize: 0xA8 }
  - { offset: 0x1235CD, size: 0x8, addend: 0x0, symName: _llama_get_sampled_candidates_count_ith, symObjAddr: 0xAC7C, symBinAddr: 0x235A8, symSize: 0x30 }
  - { offset: 0x123638, size: 0x8, addend: 0x0, symName: _llama_get_sampled_logits_count_ith, symObjAddr: 0xACAC, symBinAddr: 0x235D8, symSize: 0x30 }
  - { offset: 0x1236A3, size: 0x8, addend: 0x0, symName: _llama_get_sampled_probs_count_ith, symObjAddr: 0xACDC, symBinAddr: 0x23608, symSize: 0x30 }
  - { offset: 0x12374D, size: 0x8, addend: 0x0, symName: _llama_set_adapter_lora, symObjAddr: 0xAD0C, symBinAddr: 0x23638, symSize: 0xB0 }
  - { offset: 0x123892, size: 0x8, addend: 0x0, symName: _llama_rm_adapter_lora, symObjAddr: 0xADBC, symBinAddr: 0x236E8, symSize: 0x88 }
  - { offset: 0x123AF3, size: 0x8, addend: 0x0, symName: _llama_clear_adapter_lora, symObjAddr: 0xAE44, symBinAddr: 0x23770, symSize: 0x84 }
  - { offset: 0x123D99, size: 0x8, addend: 0x0, symName: _llama_apply_adapter_cvec, symObjAddr: 0xAEC8, symBinAddr: 0x237F4, symSize: 0x8C }
  - { offset: 0x123E99, size: 0x8, addend: 0x0, symName: _llama_get_memory, symObjAddr: 0xAF54, symBinAddr: 0x23880, symSize: 0x8 }
  - { offset: 0x123EC7, size: 0x8, addend: 0x0, symName: _llama_get_memory, symObjAddr: 0xAF54, symBinAddr: 0x23880, symSize: 0x8 }
  - { offset: 0x123EE3, size: 0x8, addend: 0x0, symName: _llama_get_memory, symObjAddr: 0xAF54, symBinAddr: 0x23880, symSize: 0x8 }
  - { offset: 0x123F02, size: 0x8, addend: 0x0, symName: _llama_memory_clear, symObjAddr: 0xAF5C, symBinAddr: 0x23888, symSize: 0x14 }
  - { offset: 0x123F47, size: 0x8, addend: 0x0, symName: _llama_memory_seq_rm, symObjAddr: 0xAF70, symBinAddr: 0x2389C, symSize: 0x18 }
  - { offset: 0x123FA9, size: 0x8, addend: 0x0, symName: _llama_memory_seq_cp, symObjAddr: 0xAF88, symBinAddr: 0x238B4, symSize: 0x14 }
  - { offset: 0x124013, size: 0x8, addend: 0x0, symName: _llama_memory_seq_keep, symObjAddr: 0xAF9C, symBinAddr: 0x238C8, symSize: 0x14 }
  - { offset: 0x124053, size: 0x8, addend: 0x0, symName: _llama_memory_seq_add, symObjAddr: 0xAFB0, symBinAddr: 0x238DC, symSize: 0x14 }
  - { offset: 0x1240BD, size: 0x8, addend: 0x0, symName: _llama_memory_seq_div, symObjAddr: 0xAFC4, symBinAddr: 0x238F0, symSize: 0x14 }
  - { offset: 0x124127, size: 0x8, addend: 0x0, symName: _llama_memory_seq_pos_min, symObjAddr: 0xAFD8, symBinAddr: 0x23904, symSize: 0x18 }
  - { offset: 0x12416D, size: 0x8, addend: 0x0, symName: _llama_memory_seq_pos_max, symObjAddr: 0xAFF0, symBinAddr: 0x2391C, symSize: 0x18 }
  - { offset: 0x1241B3, size: 0x8, addend: 0x0, symName: _llama_memory_can_shift, symObjAddr: 0xB008, symBinAddr: 0x23934, symSize: 0x14 }
  - { offset: 0x124204, size: 0x8, addend: 0x0, symName: _llama_get_state_size, symObjAddr: 0xB01C, symBinAddr: 0x23948, symSize: 0x4 }
  - { offset: 0x124230, size: 0x8, addend: 0x0, symName: _llama_get_state_size, symObjAddr: 0xB01C, symBinAddr: 0x23948, symSize: 0x4 }
  - { offset: 0x12424E, size: 0x8, addend: 0x0, symName: _llama_get_state_size, symObjAddr: 0xB01C, symBinAddr: 0x23948, symSize: 0x4 }
  - { offset: 0x124261, size: 0x8, addend: 0x0, symName: _llama_state_get_size, symObjAddr: 0xB020, symBinAddr: 0x2394C, symSize: 0x4 }
  - { offset: 0x124280, size: 0x8, addend: 0x0, symName: _llama_state_get_size, symObjAddr: 0xB020, symBinAddr: 0x2394C, symSize: 0x4 }
  - { offset: 0x1242C6, size: 0x8, addend: 0x0, symName: _llama_copy_state_data, symObjAddr: 0xB024, symBinAddr: 0x23950, symSize: 0x30 }
  - { offset: 0x12435D, size: 0x8, addend: 0x0, symName: _llama_state_get_data, symObjAddr: 0xB054, symBinAddr: 0x23980, symSize: 0x3C }
  - { offset: 0x1243E3, size: 0x8, addend: 0x0, symName: _llama_set_state_data, symObjAddr: 0xB090, symBinAddr: 0x239BC, symSize: 0x30 }
  - { offset: 0x12447A, size: 0x8, addend: 0x0, symName: _llama_state_set_data, symObjAddr: 0xB0C0, symBinAddr: 0x239EC, symSize: 0x3C }
  - { offset: 0x1244CD, size: 0x8, addend: 0x0, symName: _llama_load_session_file, symObjAddr: 0xB0FC, symBinAddr: 0x23A28, symSize: 0x4 }
  - { offset: 0x124532, size: 0x8, addend: 0x0, symName: _llama_load_session_file, symObjAddr: 0xB0FC, symBinAddr: 0x23A28, symSize: 0x4 }
  - { offset: 0x124561, size: 0x8, addend: 0x0, symName: _llama_state_load_file, symObjAddr: 0xB100, symBinAddr: 0x23A2C, symSize: 0xD0 }
  - { offset: 0x12463D, size: 0x8, addend: 0x0, symName: _llama_save_session_file, symObjAddr: 0xB1D0, symBinAddr: 0x23AFC, symSize: 0x4 }
  - { offset: 0x124694, size: 0x8, addend: 0x0, symName: _llama_save_session_file, symObjAddr: 0xB1D0, symBinAddr: 0x23AFC, symSize: 0x4 }
  - { offset: 0x1246BC, size: 0x8, addend: 0x0, symName: _llama_state_save_file, symObjAddr: 0xB1D4, symBinAddr: 0x23B00, symSize: 0xC0 }
  - { offset: 0x1247B5, size: 0x8, addend: 0x0, symName: _llama_state_seq_get_size, symObjAddr: 0xB294, symBinAddr: 0x23BC0, symSize: 0x8 }
  - { offset: 0x1247EF, size: 0x8, addend: 0x0, symName: _llama_state_seq_get_size, symObjAddr: 0xB294, symBinAddr: 0x23BC0, symSize: 0x8 }
  - { offset: 0x12483A, size: 0x8, addend: 0x0, symName: _llama_state_seq_get_size_ext, symObjAddr: 0xB29C, symBinAddr: 0x23BC8, symSize: 0x4 }
  - { offset: 0x124867, size: 0x8, addend: 0x0, symName: _llama_state_seq_get_size_ext, symObjAddr: 0xB29C, symBinAddr: 0x23BC8, symSize: 0x4 }
  - { offset: 0x1248D3, size: 0x8, addend: 0x0, symName: _llama_state_seq_get_data, symObjAddr: 0xB2A0, symBinAddr: 0x23BCC, symSize: 0x48 }
  - { offset: 0x124999, size: 0x8, addend: 0x0, symName: _llama_state_seq_get_data_ext, symObjAddr: 0xB2E8, symBinAddr: 0x23C14, symSize: 0x54 }
  - { offset: 0x124A49, size: 0x8, addend: 0x0, symName: _llama_state_seq_set_data, symObjAddr: 0xB33C, symBinAddr: 0x23C68, symSize: 0x48 }
  - { offset: 0x124B0F, size: 0x8, addend: 0x0, symName: _llama_state_seq_set_data_ext, symObjAddr: 0xB384, symBinAddr: 0x23CB0, symSize: 0x54 }
  - { offset: 0x124B74, size: 0x8, addend: 0x0, symName: _llama_state_seq_save_file, symObjAddr: 0xB3D8, symBinAddr: 0x23D04, symSize: 0xD0 }
  - { offset: 0x124C50, size: 0x8, addend: 0x0, symName: _llama_state_seq_load_file, symObjAddr: 0xB4A8, symBinAddr: 0x23DD4, symSize: 0xD8 }
  - { offset: 0x124D42, size: 0x8, addend: 0x0, symName: _llama_encode, symObjAddr: 0xB580, symBinAddr: 0x23EAC, symSize: 0x4C }
  - { offset: 0x124DBD, size: 0x8, addend: 0x0, symName: _llama_decode, symObjAddr: 0xB5CC, symBinAddr: 0x23EF8, symSize: 0x50 }
  - { offset: 0x124E5D, size: 0x8, addend: 0x0, symName: _llama_perf_context, symObjAddr: 0xB61C, symBinAddr: 0x23F48, symSize: 0x60 }
  - { offset: 0x124F82, size: 0x8, addend: 0x0, symName: _llama_perf_context_print, symObjAddr: 0xB67C, symBinAddr: 0x23FA8, symSize: 0x19C }
  - { offset: 0x125158, size: 0x8, addend: 0x0, symName: _llama_perf_context_reset, symObjAddr: 0xB818, symBinAddr: 0x24144, symSize: 0x38 }
  - { offset: 0x1264D1, size: 0x8, addend: 0x0, symName: _llama_memory_breakdown_print, symObjAddr: 0xB850, symBinAddr: 0x2417C, symSize: 0x1EA8 }
  - { offset: 0x12D763, size: 0x8, addend: 0x0, symName: __ZNSt3__128__exception_guard_exceptionsINS_6vectorINS_12basic_stringIcNS_11char_traitsIcEENS_9allocatorIcEEEENS5_IS7_EEE16__destroy_vectorEED1B8ne200100Ev, symObjAddr: 0xFB10, symBinAddr: 0x27C4C, symSize: 0x80 }
  - { offset: 0x12D76E, size: 0x8, addend: 0x0, symName: __ZNSt3__15arrayINS_12basic_stringIcNS_11char_traitsIcEENS_9allocatorIcEEEELm9EED2Ev, symObjAddr: 0xE23C, symBinAddr: 0x268C8, symSize: 0x100 }
  - { offset: 0x12D8B8, size: 0x8, addend: 0x0, symName: __ZNSt3__16__treeIP24ggml_backend_buffer_typeNS_4lessIS2_EENS_9allocatorIS2_EEE7destroyEPNS_11__tree_nodeIS2_PvEE, symObjAddr: 0xFB90, symBinAddr: 0x27CCC, symSize: 0x44 }
  - { offset: 0x12D9E4, size: 0x8, addend: 0x0, symName: __ZNSt3__16vectorINS_5arrayINS_12basic_stringIcNS_11char_traitsIcEENS_9allocatorIcEEEELm9EEENS5_IS8_EEE20__throw_length_errorB8ne200100Ev, symObjAddr: 0xFA74, symBinAddr: 0x27C38, symSize: 0x14 }
  - { offset: 0x12DA07, size: 0x8, addend: 0x0, symName: __ZNSt3__16vectorI27llama_memory_breakdown_dataNS_9allocatorIS1_EEE20__throw_length_errorB8ne200100Ev, symObjAddr: 0xFBD4, symBinAddr: 0x27D10, symSize: 0x14 }
  - { offset: 0x12DA2A, size: 0x8, addend: 0x0, symName: __ZNSt3__128__exception_guard_exceptionsINS_6vectorINS_12basic_stringIcNS_11char_traitsIcEENS_9allocatorIcEEEENS5_IS7_EEE16__destroy_vectorEED1B8ne200100Ev, symObjAddr: 0xFB10, symBinAddr: 0x27C4C, symSize: 0x80 }
  - { offset: 0x12DC98, size: 0x8, addend: 0x0, symName: __ZNSt3__16vectorINS_12basic_stringIcNS_11char_traitsIcEENS_9allocatorIcEEEENS4_IS6_EEED1B8ne200100Ev, symObjAddr: 0xD6F8, symBinAddr: 0x26024, symSize: 0x70 }
  - { offset: 0x12DEF8, size: 0x8, addend: 0x0, symName: __ZNSt3__16vectorINS_5arrayINS_12basic_stringIcNS_11char_traitsIcEENS_9allocatorIcEEEELm9EEENS5_IS8_EEED1B8ne200100Ev, symObjAddr: 0xD768, symBinAddr: 0x26094, symSize: 0x58 }
  - { offset: 0x12E0A0, size: 0x8, addend: 0x0, symName: _llama_opt_param_filter_all, symObjAddr: 0xD7C0, symBinAddr: 0x260EC, symSize: 0x8 }
  - { offset: 0x12E0DA, size: 0x8, addend: 0x0, symName: _llama_opt_init, symObjAddr: 0xD7C8, symBinAddr: 0x260F4, symSize: 0x30 }
  - { offset: 0x12E144, size: 0x8, addend: 0x0, symName: _llama_opt_epoch, symObjAddr: 0xD7F8, symBinAddr: 0x26124, symSize: 0x4 }
  - { offset: 0x12E1C1, size: 0x8, addend: 0x0, symName: _llama_opt_epoch, symObjAddr: 0xD7F8, symBinAddr: 0x26124, symSize: 0x4 }
  - { offset: 0x12EE7F, size: 0x8, addend: 0x0, symName: __ZN20llama_io_write_dummyD0Ev, symObjAddr: 0xDC50, symBinAddr: 0x26364, symSize: 0x4 }
  - { offset: 0x12EEAB, size: 0x8, addend: 0x0, symName: __ZN20llama_io_write_dummy5writeEPKvm, symObjAddr: 0xDC54, symBinAddr: 0x26368, symSize: 0x10 }
  - { offset: 0x12EEE9, size: 0x8, addend: 0x0, symName: __ZN20llama_io_write_dummy12write_tensorEPK11ggml_tensormm, symObjAddr: 0xDC64, symBinAddr: 0x26378, symSize: 0x10 }
  - { offset: 0x12EF32, size: 0x8, addend: 0x0, symName: __ZN20llama_io_write_dummy7n_bytesEv, symObjAddr: 0xDC74, symBinAddr: 0x26388, symSize: 0x8 }
  - { offset: 0x12EF59, size: 0x8, addend: 0x0, symName: __ZN21llama_io_write_bufferD0Ev, symObjAddr: 0xDC7C, symBinAddr: 0x26390, symSize: 0x4 }
  - { offset: 0x12EF85, size: 0x8, addend: 0x0, symName: __ZN21llama_io_write_buffer5writeEPKvm, symObjAddr: 0xDC80, symBinAddr: 0x26394, symSize: 0x94 }
  - { offset: 0x12EFCC, size: 0x8, addend: 0x0, symName: __ZN21llama_io_write_buffer12write_tensorEPK11ggml_tensormm, symObjAddr: 0xDD14, symBinAddr: 0x26428, symSize: 0x9C }
  - { offset: 0x12F04D, size: 0x8, addend: 0x0, symName: __ZN21llama_io_write_buffer7n_bytesEv, symObjAddr: 0xDDB0, symBinAddr: 0x264C4, symSize: 0x8 }
  - { offset: 0x12F074, size: 0x8, addend: 0x0, symName: __ZN20llama_io_read_bufferD0Ev, symObjAddr: 0xDDB8, symBinAddr: 0x264CC, symSize: 0x4 }
  - { offset: 0x12F0A0, size: 0x8, addend: 0x0, symName: __ZN20llama_io_read_buffer4readEm, symObjAddr: 0xDDBC, symBinAddr: 0x264D0, symSize: 0x84 }
  - { offset: 0x12F0E7, size: 0x8, addend: 0x0, symName: __ZN20llama_io_read_buffer7read_toEPvm, symObjAddr: 0xDE40, symBinAddr: 0x26554, symSize: 0x3C }
  - { offset: 0x12F149, size: 0x8, addend: 0x0, symName: __ZN20llama_io_read_buffer7n_bytesEv, symObjAddr: 0xDE7C, symBinAddr: 0x26590, symSize: 0x8 }
  - { offset: 0x12F170, size: 0x8, addend: 0x0, symName: __ZN18llama_io_read_fileD0Ev, symObjAddr: 0xDE84, symBinAddr: 0x26598, symSize: 0x44 }
  - { offset: 0x12F1A0, size: 0x8, addend: 0x0, symName: __ZN18llama_io_read_fileD0Ev, symObjAddr: 0xDE84, symBinAddr: 0x26598, symSize: 0x44 }
  - { offset: 0x12F1BE, size: 0x8, addend: 0x0, symName: __ZN18llama_io_read_fileD0Ev, symObjAddr: 0xDE84, symBinAddr: 0x26598, symSize: 0x44 }
  - { offset: 0x12F73C, size: 0x8, addend: 0x0, symName: __ZN18llama_io_read_file4readEm, symObjAddr: 0xDEC8, symBinAddr: 0x265DC, symSize: 0x108 }
  - { offset: 0x12FC85, size: 0x8, addend: 0x0, symName: __ZN18llama_io_read_file7read_toEPvm, symObjAddr: 0xDFD0, symBinAddr: 0x266E4, symSize: 0x34 }
  - { offset: 0x12FCA5, size: 0x8, addend: 0x0, symName: __ZN18llama_io_read_file7read_toEPvm, symObjAddr: 0xDFD0, symBinAddr: 0x266E4, symSize: 0x34 }
  - { offset: 0x12FCEC, size: 0x8, addend: 0x0, symName: __ZN18llama_io_read_file7n_bytesEv, symObjAddr: 0xE004, symBinAddr: 0x26718, symSize: 0x8 }
  - { offset: 0x12FD78, size: 0x8, addend: 0x0, symName: __ZN19llama_io_write_fileD0Ev, symObjAddr: 0xE094, symBinAddr: 0x26720, symSize: 0x44 }
  - { offset: 0x12FDA8, size: 0x8, addend: 0x0, symName: __ZN19llama_io_write_fileD0Ev, symObjAddr: 0xE094, symBinAddr: 0x26720, symSize: 0x44 }
  - { offset: 0x12FDC6, size: 0x8, addend: 0x0, symName: __ZN19llama_io_write_fileD0Ev, symObjAddr: 0xE094, symBinAddr: 0x26720, symSize: 0x44 }
  - { offset: 0x12FF0E, size: 0x8, addend: 0x0, symName: __ZN19llama_io_write_file5writeEPKvm, symObjAddr: 0xE0D8, symBinAddr: 0x26764, symSize: 0x34 }
  - { offset: 0x12FF55, size: 0x8, addend: 0x0, symName: __ZN19llama_io_write_file12write_tensorEPK11ggml_tensormm, symObjAddr: 0xE10C, symBinAddr: 0x26798, symSize: 0x130 }
  - { offset: 0x1304EC, size: 0x8, addend: 0x0, symName: __ZNSt3__15arrayINS_12basic_stringIcNS_11char_traitsIcEENS_9allocatorIcEEEELm9EED2Ev, symObjAddr: 0xE23C, symBinAddr: 0x268C8, symSize: 0x100 }
  - { offset: 0x130C7E, size: 0x8, addend: 0x0, symName: __ZNSt3__112__hash_tableINS_17__hash_value_typeIP18llama_adapter_lorafEENS_22__unordered_map_hasherIS3_S4_NS_4hashIS3_EENS_8equal_toIS3_EELb1EEENS_21__unordered_map_equalIS3_S4_S9_S7_Lb1EEENS_9allocatorIS4_EEE11__do_rehashILb1EEEvm, symObjAddr: 0xEDA4, symBinAddr: 0x272D4, symSize: 0x180 }
  - { offset: 0x13100B, size: 0x8, addend: 0x0, symName: __ZNSt3__112__hash_tableINS_17__hash_value_typeIP18llama_adapter_lorafEENS_22__unordered_map_hasherIS3_S4_NS_4hashIS3_EENS_8equal_toIS3_EELb1EEENS_21__unordered_map_equalIS3_S4_S9_S7_Lb1EEENS_9allocatorIS4_EEE6removeENS_21__hash_const_iteratorIPNS_11__hash_nodeIS4_PvEEEE, symObjAddr: 0xEF24, symBinAddr: 0x27454, symSize: 0x138 }
  - { offset: 0x1318DC, size: 0x8, addend: 0x0, symName: __ZNSt3__16__treeINS_12__value_typeIijEENS_19__map_value_compareIiS2_NS_4lessIiEELb1EEENS_9allocatorIS2_EEE7destroyEPNS_11__tree_nodeIS2_PvEE, symObjAddr: 0xF3C8, symBinAddr: 0x2758C, symSize: 0x44 }
  - { offset: 0x131BFA, size: 0x8, addend: 0x0, symName: __ZNSt3__16vectorIjNS_9allocatorIjEEE20__throw_length_errorB8ne200100Ev, symObjAddr: 0xF540, symBinAddr: 0x27704, symSize: 0x14 }
  - { offset: 0x131C12, size: 0x8, addend: 0x0, symName: __ZNSt3__13mapIiP13llama_samplerNS_4lessIiEENS_9allocatorINS_4pairIKiS2_EEEEE6insertB8ne200100INS_20__map_const_iteratorINS_21__tree_const_iteratorINS_12__value_typeIiS2_EEPNS_11__tree_nodeISF_PvEElEEEEEEvT_SM_, symObjAddr: 0xF554, symBinAddr: 0x27718, symSize: 0xF8 }
  - { offset: 0x131E62, size: 0x8, addend: 0x0, symName: __ZNSt3__16__treeINS_12__value_typeIiP13llama_samplerEENS_19__map_value_compareIiS4_NS_4lessIiEELb1EEENS_9allocatorIS4_EEE12__find_equalIiEERPNS_16__tree_node_baseIPvEENS_21__tree_const_iteratorIS4_PNS_11__tree_nodeIS4_SE_EElEERPNS_15__tree_end_nodeISG_EESH_RKT_, symObjAddr: 0xF64C, symBinAddr: 0x27810, symSize: 0x1B0 }
  - { offset: 0x131EC5, size: 0x8, addend: 0x0, symName: __ZNSt3__16__treeINS_12__value_typeIiP13llama_samplerEENS_19__map_value_compareIiS4_NS_4lessIiEELb1EEENS_9allocatorIS4_EEE12__find_equalIiEERPNS_16__tree_node_baseIPvEENS_21__tree_const_iteratorIS4_PNS_11__tree_nodeIS4_SE_EElEERPNS_15__tree_end_nodeISG_EESH_RKT_, symObjAddr: 0xF64C, symBinAddr: 0x27810, symSize: 0x1B0 }
  - { offset: 0x131EE1, size: 0x8, addend: 0x0, symName: __ZNSt3__16__treeINS_12__value_typeIiP13llama_samplerEENS_19__map_value_compareIiS4_NS_4lessIiEELb1EEENS_9allocatorIS4_EEE12__find_equalIiEERPNS_16__tree_node_baseIPvEENS_21__tree_const_iteratorIS4_PNS_11__tree_nodeIS4_SE_EElEERPNS_15__tree_end_nodeISG_EESH_RKT_, symObjAddr: 0xF64C, symBinAddr: 0x27810, symSize: 0x1B0 }
  - { offset: 0x132276, size: 0x8, addend: 0x0, symName: '__ZNSt3__110__function6__funcIZNK13llama_context12graph_get_cbEvE3$_0NS_9allocatorIS3_EEFvRK12llama_ubatchP11ggml_tensorPKciEED1Ev', symObjAddr: 0xF7FC, symBinAddr: 0x279C0, symSize: 0x4 }
  - { offset: 0x1322A2, size: 0x8, addend: 0x0, symName: '__ZNSt3__110__function6__funcIZNK13llama_context12graph_get_cbEvE3$_0NS_9allocatorIS3_EEFvRK12llama_ubatchP11ggml_tensorPKciEED0Ev', symObjAddr: 0xF800, symBinAddr: 0x279C4, symSize: 0x4 }
  - { offset: 0x132359, size: 0x8, addend: 0x0, symName: '__ZNKSt3__110__function6__funcIZNK13llama_context12graph_get_cbEvE3$_0NS_9allocatorIS3_EEFvRK12llama_ubatchP11ggml_tensorPKciEE7__cloneEv', symObjAddr: 0xF804, symBinAddr: 0x279C8, symSize: 0x34 }
  - { offset: 0x1324AB, size: 0x8, addend: 0x0, symName: '__ZNKSt3__110__function6__funcIZNK13llama_context12graph_get_cbEvE3$_0NS_9allocatorIS3_EEFvRK12llama_ubatchP11ggml_tensorPKciEE7__cloneEPNS0_6__baseISD_EE', symObjAddr: 0xF838, symBinAddr: 0x279FC, symSize: 0x14 }
  - { offset: 0x132518, size: 0x8, addend: 0x0, symName: '__ZNSt3__110__function6__funcIZNK13llama_context12graph_get_cbEvE3$_0NS_9allocatorIS3_EEFvRK12llama_ubatchP11ggml_tensorPKciEE7destroyEv', symObjAddr: 0xF84C, symBinAddr: 0x27A10, symSize: 0x4 }
  - { offset: 0x13256D, size: 0x8, addend: 0x0, symName: '__ZNSt3__110__function6__funcIZNK13llama_context12graph_get_cbEvE3$_0NS_9allocatorIS3_EEFvRK12llama_ubatchP11ggml_tensorPKciEE18destroy_deallocateEv', symObjAddr: 0xF850, symBinAddr: 0x27A14, symSize: 0x4 }
  - { offset: 0x1325A2, size: 0x8, addend: 0x0, symName: '__ZNSt3__110__function6__funcIZNK13llama_context12graph_get_cbEvE3$_0NS_9allocatorIS3_EEFvRK12llama_ubatchP11ggml_tensorPKciEE18destroy_deallocateEv', symObjAddr: 0xF850, symBinAddr: 0x27A14, symSize: 0x4 }
  - { offset: 0x1325C5, size: 0x8, addend: 0x0, symName: '__ZNSt3__110__function6__funcIZNK13llama_context12graph_get_cbEvE3$_0NS_9allocatorIS3_EEFvRK12llama_ubatchP11ggml_tensorPKciEE18destroy_deallocateEv', symObjAddr: 0xF850, symBinAddr: 0x27A14, symSize: 0x4 }
  - { offset: 0x1325F8, size: 0x8, addend: 0x0, symName: '__ZNSt3__110__function6__funcIZNK13llama_context12graph_get_cbEvE3$_0NS_9allocatorIS3_EEFvRK12llama_ubatchP11ggml_tensorPKciEE18destroy_deallocateEv', symObjAddr: 0xF850, symBinAddr: 0x27A14, symSize: 0x4 }
  - { offset: 0x132763, size: 0x8, addend: 0x0, symName: '__ZNSt3__110__function6__funcIZNK13llama_context12graph_get_cbEvE3$_0NS_9allocatorIS3_EEFvRK12llama_ubatchP11ggml_tensorPKciEEclES8_OSA_OSC_Oi', symObjAddr: 0xF854, symBinAddr: 0x27A18, symSize: 0x128 }
  - { offset: 0x132A75, size: 0x8, addend: 0x0, symName: '__ZNKSt3__110__function6__funcIZNK13llama_context12graph_get_cbEvE3$_0NS_9allocatorIS3_EEFvRK12llama_ubatchP11ggml_tensorPKciEE6targetERKSt9type_info', symObjAddr: 0xF97C, symBinAddr: 0x27B40, symSize: 0x64 }
  - { offset: 0x132B29, size: 0x8, addend: 0x0, symName: '__ZNKSt3__110__function6__funcIZNK13llama_context12graph_get_cbEvE3$_0NS_9allocatorIS3_EEFvRK12llama_ubatchP11ggml_tensorPKciEE11target_typeEv', symObjAddr: 0xF9E0, symBinAddr: 0x27BA4, symSize: 0xC }
  - { offset: 0x134CE3, size: 0x8, addend: 0x0, symName: _llama_max_parallel_sequences, symObjAddr: 0x0, symBinAddr: 0x27D24, symSize: 0x8 }
  - { offset: 0x134CF1, size: 0x8, addend: 0x0, symName: _llama_max_parallel_sequences, symObjAddr: 0x0, symBinAddr: 0x27D24, symSize: 0x8 }
  - { offset: 0x134E47, size: 0x8, addend: 0x0, symName: __ZNK29llama_grammar_trigger_pattern4findERKNSt3__112basic_stringIcNS0_11char_traitsIcEENS0_9allocatorIcEEEE, symObjAddr: 0x0, symBinAddr: 0x27D2C, symSize: 0x348 }
  - { offset: 0x15A91C, size: 0x8, addend: 0x0, symName: __ZNSt3__135__uninitialized_allocator_copy_implB8ne200100INS_9allocatorINS_6vectorI21llama_grammar_elementNS1_IS3_EEEEEEPS5_S7_S7_EET2_RT_T0_T1_S8_, symObjAddr: 0x166F8, symBinAddr: 0x3DF7C, symSize: 0xF8 }
  - { offset: 0x15AE5F, size: 0x8, addend: 0x0, symName: __ZNSt3__135__uninitialized_allocator_copy_implB8ne200100INS_9allocatorINS_6vectorIPK21llama_grammar_elementNS1_IS5_EEEEEEPS7_S9_S9_EET2_RT_T0_T1_SA_, symObjAddr: 0x168E0, symBinAddr: 0x3E164, symSize: 0xF8 }
  - { offset: 0x15C350, size: 0x8, addend: 0x0, symName: __ZNSt3__119__throw_regex_errorB8ne200100ILNS_15regex_constants10error_typeE12EEEvv, symObjAddr: 0xC138, symBinAddr: 0x33C88, symSize: 0x4C }
  - { offset: 0x15C376, size: 0x8, addend: 0x0, symName: __ZNSt3__119__throw_regex_errorB8ne200100ILNS_15regex_constants10error_typeE16EEEvv, symObjAddr: 0xC184, symBinAddr: 0x33CD4, symSize: 0x4C }
  - { offset: 0x15DD89, size: 0x8, addend: 0x0, symName: __ZNSt3__134__uninitialized_allocator_relocateB8ne200100INS_9allocatorI29llama_grammar_trigger_patternEEPS2_EEvRT_T0_S7_S7_, symObjAddr: 0xEA64, symBinAddr: 0x363F4, symSize: 0xFC }
  - { offset: 0x15DDE4, size: 0x8, addend: 0x0, symName: __ZNSt3__134__uninitialized_allocator_relocateB8ne200100INS_9allocatorI29llama_grammar_trigger_patternEEPS2_EEvRT_T0_S7_S7_, symObjAddr: 0xEA64, symBinAddr: 0x363F4, symSize: 0xFC }
  - { offset: 0x15E280, size: 0x8, addend: 0x0, symName: __ZNSt3__119__throw_regex_errorB8ne200100ILNS_15regex_constants10error_typeE17EEEvv, symObjAddr: 0xEEEC, symBinAddr: 0x3687C, symSize: 0x4C }
  - { offset: 0x15E9BB, size: 0x8, addend: 0x0, symName: __ZNSt3__119__throw_regex_errorB8ne200100ILNS_15regex_constants10error_typeE14EEEvv, symObjAddr: 0xF7A4, symBinAddr: 0x37134, symSize: 0x4C }
  - { offset: 0x15ECA4, size: 0x8, addend: 0x0, symName: __ZNSt3__119__throw_regex_errorB8ne200100ILNS_15regex_constants10error_typeE15EEEvv, symObjAddr: 0x15AD8, symBinAddr: 0x3D3E4, symSize: 0x4C }
  - { offset: 0x15F0A0, size: 0x8, addend: 0x0, symName: __ZNSt3__119__throw_regex_errorB8ne200100ILNS_15regex_constants10error_typeE6EEEvv, symObjAddr: 0x10400, symBinAddr: 0x37D90, symSize: 0x4C }
  - { offset: 0x15F24F, size: 0x8, addend: 0x0, symName: __ZNSt3__119__throw_regex_errorB8ne200100ILNS_15regex_constants10error_typeE11EEEvv, symObjAddr: 0x10D5C, symBinAddr: 0x386EC, symSize: 0x4C }
  - { offset: 0x15F293, size: 0x8, addend: 0x0, symName: __ZNSt3__119__throw_regex_errorB8ne200100ILNS_15regex_constants10error_typeE8EEEvv, symObjAddr: 0x154C8, symBinAddr: 0x3CDD4, symSize: 0x4C }
  - { offset: 0x15F2B9, size: 0x8, addend: 0x0, symName: __ZNSt3__119__throw_regex_errorB8ne200100ILNS_15regex_constants10error_typeE7EEEvv, symObjAddr: 0x15514, symBinAddr: 0x3CE20, symSize: 0x4C }
  - { offset: 0x15F3EA, size: 0x8, addend: 0x0, symName: __ZNSt3__119__throw_regex_errorB8ne200100ILNS_15regex_constants10error_typeE4EEEvv, symObjAddr: 0x1162C, symBinAddr: 0x38FBC, symSize: 0x4C }
  - { offset: 0x15F410, size: 0x8, addend: 0x0, symName: __ZNSt3__119__throw_regex_errorB8ne200100ILNS_15regex_constants10error_typeE3EEEvv, symObjAddr: 0x10EB4, symBinAddr: 0x38844, symSize: 0x4C }
  - { offset: 0x15F436, size: 0x8, addend: 0x0, symName: __ZNSt3__119__throw_regex_errorB8ne200100ILNS_15regex_constants10error_typeE5EEEvv, symObjAddr: 0x13238, symBinAddr: 0x3AB44, symSize: 0x4C }
  - { offset: 0x16004A, size: 0x8, addend: 0x0, symName: __ZNSt3__119__throw_regex_errorB8ne200100ILNS_15regex_constants10error_typeE1EEEvv, symObjAddr: 0x145C8, symBinAddr: 0x3BED4, symSize: 0x4C }
  - { offset: 0x160070, size: 0x8, addend: 0x0, symName: __ZNSt3__119__throw_regex_errorB8ne200100ILNS_15regex_constants10error_typeE2EEEvv, symObjAddr: 0x14BBC, symBinAddr: 0x3C4C8, symSize: 0x4C }
  - { offset: 0x1600D2, size: 0x8, addend: 0x0, symName: __ZNSt3__119__throw_regex_errorB8ne200100ILNS_15regex_constants10error_typeE9EEEvv, symObjAddr: 0x15190, symBinAddr: 0x3CA9C, symSize: 0x4C }
  - { offset: 0x161EF2, size: 0x8, addend: 0x0, symName: __ZL11decode_utf8RKNSt3__112basic_stringIcNS_11char_traitsIcEENS_9allocatorIcEEEE18llama_partial_utf8, symObjAddr: 0x86D8, symBinAddr: 0x30360, symSize: 0x498 }
  - { offset: 0x161F1C, size: 0x8, addend: 0x0, symName: __ZZL11decode_utf8RKNSt3__112basic_stringIcNS_11char_traitsIcEENS_9allocatorIcEEEE18llama_partial_utf8E6lookup, symObjAddr: 0x183F0, symBinAddr: 0x293FF0, symSize: 0x0 }
  - { offset: 0x1656E5, size: 0x8, addend: 0x0, symName: __ZNK29llama_grammar_trigger_pattern4findERKNSt3__112basic_stringIcNS0_11char_traitsIcEENS0_9allocatorIcEEEE, symObjAddr: 0x0, symBinAddr: 0x27D2C, symSize: 0x348 }
  - { offset: 0x166901, size: 0x8, addend: 0x0, symName: __ZNKSt3__111basic_regexIcNS_12regex_traitsIcEEE8__searchINS_9allocatorINS_9sub_matchIPKcEEEEEEbS8_S8_RNS_13match_resultsIS8_T_EENS_15regex_constants15match_flag_typeE, symObjAddr: 0xA7C0, symBinAddr: 0x32310, symSize: 0x308 }
  - { offset: 0x166E5C, size: 0x8, addend: 0x0, symName: __ZNSt3__113match_resultsINS_11__wrap_iterIPKcEENS_9allocatorINS_9sub_matchIS4_EEEEE8__assignB8ne200100IS3_NS5_INS6_IS3_EEEEEEvS4_S4_RKNS0_IT_T0_EEb, symObjAddr: 0xAAC8, symBinAddr: 0x32618, symSize: 0x168 }
  - { offset: 0x167DB5, size: 0x8, addend: 0x0, symName: __ZN20llama_grammar_parser13get_symbol_idEPKcm, symObjAddr: 0x348, symBinAddr: 0x28074, symSize: 0x104 }
  - { offset: 0x1682A6, size: 0x8, addend: 0x0, symName: __ZNSt3__16__treeINS_12__value_typeINS_12basic_stringIcNS_11char_traitsIcEENS_9allocatorIcEEEEjEENS_19__map_value_compareIS7_S8_NS_4lessIS7_EELb1EEENS5_IS8_EEE25__emplace_unique_key_argsIS7_JS7_RjEEENS_4pairINS_15__tree_iteratorIS8_PNS_11__tree_nodeIS8_PvEElEEbEERKT_DpOT0_, symObjAddr: 0xDEE0, symBinAddr: 0x35A30, symSize: 0x180 }
  - { offset: 0x168872, size: 0x8, addend: 0x0, symName: __ZNKSt3__111basic_regexIcNS_12regex_traitsIcEEE8__searchINS_9allocatorINS_9sub_matchIPKcEEEEEEbS8_S8_RNS_13match_resultsIS8_T_EENS_15regex_constants15match_flag_typeE, symObjAddr: 0xA7C0, symBinAddr: 0x32310, symSize: 0x308 }
  - { offset: 0x16887D, size: 0x8, addend: 0x0, symName: __ZNSt3__112basic_stringIcNS_11char_traitsIcEENS_9allocatorIcEEEC1B8ne200100EPKcm, symObjAddr: 0x44C, symBinAddr: 0x28178, symSize: 0xA8 }
  - { offset: 0x168AA7, size: 0x8, addend: 0x0, symName: __ZN20llama_grammar_parser18generate_symbol_idERKNSt3__112basic_stringIcNS0_11char_traitsIcEENS0_9allocatorIcEEEE, symObjAddr: 0x4F4, symBinAddr: 0x28220, symSize: 0x200 }
  - { offset: 0x168C20, size: 0x8, addend: 0x0, symName: __ZN20llama_grammar_parser18generate_symbol_idERKNSt3__112basic_stringIcNS0_11char_traitsIcEENS0_9allocatorIcEEEE, symObjAddr: 0x4F4, symBinAddr: 0x28220, symSize: 0x200 }
  - { offset: 0x16968C, size: 0x8, addend: 0x0, symName: __ZNSt3__16__treeINS_12__value_typeINS_12basic_stringIcNS_11char_traitsIcEENS_9allocatorIcEEEEjEENS_19__map_value_compareIS7_S8_NS_4lessIS7_EELb1EEENS5_IS8_EEE25__emplace_unique_key_argsIS7_JRKNS_21piecewise_construct_tENS_5tupleIJOS7_EEENSJ_IJEEEEEENS_4pairINS_15__tree_iteratorIS8_PNS_11__tree_nodeIS8_PvEElEEbEERKT_DpOT0_, symObjAddr: 0xE20C, symBinAddr: 0x35BB0, symSize: 0x174 }
  - { offset: 0x169EE4, size: 0x8, addend: 0x0, symName: __ZN20llama_grammar_parser8add_ruleEjRKNSt3__16vectorI21llama_grammar_elementNS0_9allocatorIS2_EEEE, symObjAddr: 0x6F4, symBinAddr: 0x28420, symSize: 0xE4 }
  - { offset: 0x16A1E2, size: 0x8, addend: 0x0, symName: __ZNSt3__16vectorINS0_I21llama_grammar_elementNS_9allocatorIS1_EEEENS2_IS4_EEE8__appendEm, symObjAddr: 0xE380, symBinAddr: 0x35D24, symSize: 0x180 }
  - { offset: 0x16A625, size: 0x8, addend: 0x0, symName: __ZNSt3__16vectorINS0_I21llama_grammar_elementNS_9allocatorIS1_EEEENS2_IS4_EEE20__throw_length_errorB8ne200100Ev, symObjAddr: 0xE500, symBinAddr: 0x35EA4, symSize: 0x14 }
  - { offset: 0x16A630, size: 0x8, addend: 0x0, symName: __ZNSt3__16vectorI21llama_grammar_elementNS_9allocatorIS1_EEE18__assign_with_sizeB8ne200100IPS1_S6_EEvT_T0_l, symObjAddr: 0xE514, symBinAddr: 0x35EB8, symSize: 0x148 }
  - { offset: 0x16B03E, size: 0x8, addend: 0x0, symName: __ZNSt3__16__treeINS_12__value_typeIjNS_12basic_stringIcNS_11char_traitsIcEENS_9allocatorIcEEEEEENS_19__map_value_compareIjS8_NS_4lessIjEELb1EEENS5_IS8_EEE7destroyEPNS_11__tree_nodeIS8_PvEE, symObjAddr: 0xE65C, symBinAddr: 0x36000, symSize: 0x60 }
  - { offset: 0x16B3F8, size: 0x8, addend: 0x0, symName: __ZN20llama_grammar_parser16parse_alternatesEPKcRKNSt3__112basic_stringIcNS2_11char_traitsIcEENS2_9allocatorIcEEEEjb, symObjAddr: 0x7D8, symBinAddr: 0x28504, symSize: 0x34C }
  - { offset: 0x16C24B, size: 0x8, addend: 0x0, symName: __ZN20llama_grammar_parser14parse_sequenceEPKcRKNSt3__112basic_stringIcNS2_11char_traitsIcEENS2_9allocatorIcEEEERNS2_6vectorI21llama_grammar_elementNS6_ISC_EEEEb, symObjAddr: 0xB24, symBinAddr: 0x28850, symSize: 0x1E84 }
  - { offset: 0x16FB42, size: 0x8, addend: 0x0, symName: __ZNSt3__16vectorI21llama_grammar_elementNS_9allocatorIS1_EEE20__throw_length_errorB8ne200100Ev, symObjAddr: 0x9D90, symBinAddr: 0x31A18, symSize: 0x14 }
  - { offset: 0x16FCE4, size: 0x8, addend: 0x0, symName: __ZL10parse_charPKc, symObjAddr: 0x29A8, symBinAddr: 0x2A6D4, symSize: 0x288 }
  - { offset: 0x16FFE6, size: 0x8, addend: 0x0, symName: __ZL9parse_intPKc, symObjAddr: 0x3588, symBinAddr: 0x2B210, symSize: 0x124 }
  - { offset: 0x170294, size: 0x8, addend: 0x0, symName: __ZL10parse_namePKc, symObjAddr: 0x2C30, symBinAddr: 0x2A95C, symSize: 0x13C }
  - { offset: 0x170560, size: 0x8, addend: 0x0, symName: '__ZZN20llama_grammar_parser14parse_sequenceEPKcRKNSt3__112basic_stringIcNS2_11char_traitsIcEENS2_9allocatorIcEEEERNS2_6vectorI21llama_grammar_elementNS6_ISC_EEEEbENK3$_0clEyy', symObjAddr: 0x2E10, symBinAddr: 0x2AA98, symSize: 0x778 }
  - { offset: 0x17268E, size: 0x8, addend: 0x0, symName: '__ZZN20llama_grammar_parser14parse_sequenceEPKcRKNSt3__112basic_stringIcNS2_11char_traitsIcEENS2_9allocatorIcEEEERNS2_6vectorI21llama_grammar_elementNS6_ISC_EEEEbENK3$_0clEyy', symObjAddr: 0x2E10, symBinAddr: 0x2AA98, symSize: 0x778 }
  - { offset: 0x172703, size: 0x8, addend: 0x0, symName: __ZL9parse_hexPKci, symObjAddr: 0x9B50, symBinAddr: 0x317D8, symSize: 0x240 }
  - { offset: 0x17322E, size: 0x8, addend: 0x0, symName: __ZNSt3__16vectorI21llama_grammar_elementNS_9allocatorIS1_EEE18__insert_with_sizeB8ne200100INS_11__wrap_iterIPS1_EES8_EES8_NS6_IPKS1_EET_T0_l, symObjAddr: 0x9F60, symBinAddr: 0x31B4C, symSize: 0x38C }
  - { offset: 0x173D1F, size: 0x8, addend: 0x0, symName: __ZNSt3__16vectorI21llama_grammar_elementNS_9allocatorIS1_EEE8__appendEm, symObjAddr: 0x9E40, symBinAddr: 0x31A2C, symSize: 0x120 }
  - { offset: 0x1740E8, size: 0x8, addend: 0x0, symName: __ZNSt3__16vectorI21llama_grammar_elementNS_9allocatorIS1_EEE18__insert_with_sizeB8ne200100INS_11__wrap_iterIPS1_EES8_EES8_NS6_IPKS1_EET_T0_l, symObjAddr: 0x9F60, symBinAddr: 0x31B4C, symSize: 0x38C }
  - { offset: 0x1740F3, size: 0x8, addend: 0x0, symName: __ZN20llama_grammar_parser10parse_ruleEPKc, symObjAddr: 0x36AC, symBinAddr: 0x2B334, symSize: 0x448 }
  - { offset: 0x174C76, size: 0x8, addend: 0x0, symName: __ZN20llama_grammar_parser5parseEPKc, symObjAddr: 0x3AF4, symBinAddr: 0x2B77C, symSize: 0x350 }
  - { offset: 0x175B11, size: 0x8, addend: 0x0, symName: __ZN20llama_grammar_parser5printEP7__sFILE, symObjAddr: 0x3E44, symBinAddr: 0x2BACC, symSize: 0xA40 }
  - { offset: 0x177516, size: 0x8, addend: 0x0, symName: __ZNSt3__16__treeINS_12__value_typeIjNS_12basic_stringIcNS_11char_traitsIcEENS_9allocatorIcEEEEEENS_19__map_value_compareIjS8_NS_4lessIjEELb1EEENS5_IS8_EEE7destroyEPNS_11__tree_nodeIS8_PvEE, symObjAddr: 0xE65C, symBinAddr: 0x36000, symSize: 0x60 }
  - { offset: 0x177BEF, size: 0x8, addend: 0x0, symName: __ZNK20llama_grammar_parser7c_rulesEv, symObjAddr: 0x4884, symBinAddr: 0x2C50C, symSize: 0x1B8 }
  - { offset: 0x178355, size: 0x8, addend: 0x0, symName: __ZNSt3__16vectorIPK21llama_grammar_elementNS_9allocatorIS3_EEE20__throw_length_errorB8ne200100Ev, symObjAddr: 0xE6BC, symBinAddr: 0x36060, symSize: 0x14 }
  - { offset: 0x17836D, size: 0x8, addend: 0x0, symName: __ZNSt3__16vectorI23llama_grammar_candidateNS_9allocatorIS1_EEE20__throw_length_errorB8ne200100Ev, symObjAddr: 0xE6D0, symBinAddr: 0x36074, symSize: 0x14 }
  - { offset: 0x178378, size: 0x8, addend: 0x0, symName: __Z23llama_grammar_get_rulesPK13llama_grammar, symObjAddr: 0x4A3C, symBinAddr: 0x2C6C4, symSize: 0x8 }
  - { offset: 0x1783A8, size: 0x8, addend: 0x0, symName: __Z24llama_grammar_get_stacksP13llama_grammar, symObjAddr: 0x4A44, symBinAddr: 0x2C6CC, symSize: 0x8 }
  - { offset: 0x1786C6, size: 0x8, addend: 0x0, symName: __Z20llama_grammar_acceptP13llama_grammarj, symObjAddr: 0x4A4C, symBinAddr: 0x2C6D4, symSize: 0x144 }
  - { offset: 0x178C72, size: 0x8, addend: 0x0, symName: __ZL24llama_grammar_accept_chrR13llama_grammarRKNSt3__16vectorIPK21llama_grammar_elementNS1_9allocatorIS5_EEEEjRNS2_IS8_NS6_IS8_EEEE, symObjAddr: 0x4B90, symBinAddr: 0x2C818, symSize: 0x300 }
  - { offset: 0x1796A1, size: 0x8, addend: 0x0, symName: __ZNSt3__16vectorINS0_IPK21llama_grammar_elementNS_9allocatorIS3_EEEENS4_IS6_EEE20__throw_length_errorB8ne200100Ev, symObjAddr: 0xA540, symBinAddr: 0x320B8, symSize: 0x14 }
  - { offset: 0x1796B9, size: 0x8, addend: 0x0, symName: __ZNSt3__110shared_ptrINS_13__empty_stateIcEEED1B8ne200100Ev, symObjAddr: 0xA554, symBinAddr: 0x320CC, symSize: 0x5C }
  - { offset: 0x1796C4, size: 0x8, addend: 0x0, symName: __ZNSt3__16vectorINS0_IPK21llama_grammar_elementNS_9allocatorIS3_EEEENS4_IS6_EEED1B8ne200100Ev, symObjAddr: 0x4E90, symBinAddr: 0x2CB18, symSize: 0x74 }
  - { offset: 0x179D1A, size: 0x8, addend: 0x0, symName: __ZL27llama_grammar_advance_stackRKNSt3__16vectorINS0_I21llama_grammar_elementNS_9allocatorIS1_EEEENS2_IS4_EEEERKNS0_IPKS1_NS2_ISA_EEEERNS0_ISC_NS2_ISC_EEEE, symObjAddr: 0x5EC0, symBinAddr: 0x2DB48, symSize: 0x52C }
  - { offset: 0x17BEC5, size: 0x8, addend: 0x0, symName: __Z41llama_grammar_reject_candidates_for_stackRKNSt3__16vectorINS0_I21llama_grammar_elementNS_9allocatorIS1_EEEENS2_IS4_EEEERKNS0_IPKS1_NS2_ISA_EEEERKNS0_I23llama_grammar_candidateNS2_ISF_EEEE, symObjAddr: 0x4F04, symBinAddr: 0x2CB8C, symSize: 0xFBC }
  - { offset: 0x17EFC5, size: 0x8, addend: 0x0, symName: __ZL31llama_grammar_reject_candidatesRKNSt3__16vectorINS0_I21llama_grammar_elementNS_9allocatorIS1_EEEENS2_IS4_EEEERKNS0_INS0_IPKS1_NS2_ISA_EEEENS2_ISC_EEEERKNS0_I23llama_grammar_candidateNS2_ISH_EEEE, symObjAddr: 0x63EC, symBinAddr: 0x2E074, symSize: 0x120 }
  - { offset: 0x17F34C, size: 0x8, addend: 0x0, symName: __ZNSt3__16vectorI23llama_grammar_candidateNS_9allocatorIS1_EEE20__throw_length_errorB8ne200100Ev, symObjAddr: 0xE6D0, symBinAddr: 0x36074, symSize: 0x14 }
  - { offset: 0x17F364, size: 0x8, addend: 0x0, symName: __ZNSt3__128__exception_guard_exceptionsINS_6vectorINS1_I21llama_grammar_elementNS_9allocatorIS2_EEEENS3_IS5_EEE16__destroy_vectorEED1B8ne200100Ev, symObjAddr: 0xE6E4, symBinAddr: 0x36088, symSize: 0x84 }
  - { offset: 0x17F685, size: 0x8, addend: 0x0, symName: __ZNSt3__16vectorINS0_IPK21llama_grammar_elementNS_9allocatorIS3_EEEENS4_IS6_EEE24__emplace_back_slow_pathIJRKS6_EEEPS6_DpOT_, symObjAddr: 0xA360, symBinAddr: 0x31ED8, symSize: 0x174 }
  - { offset: 0x1805F0, size: 0x8, addend: 0x0, symName: __Z23llama_grammar_init_implPK11llama_vocabPPK21llama_grammar_elementmm, symObjAddr: 0x650C, symBinAddr: 0x2E194, symSize: 0x688 }
  - { offset: 0x182732, size: 0x8, addend: 0x0, symName: __ZL35llama_grammar_detect_left_recursionRKNSt3__16vectorINS0_I21llama_grammar_elementNS_9allocatorIS1_EEEENS2_IS4_EEEEmPNS0_IbNS2_IbEEEESB_SB_, symObjAddr: 0x6B94, symBinAddr: 0x2E81C, symSize: 0x190 }
  - { offset: 0x182AA2, size: 0x8, addend: 0x0, symName: __ZNSt3__16vectorINS0_I21llama_grammar_elementNS_9allocatorIS1_EEEENS2_IS4_EEE20__throw_length_errorB8ne200100Ev, symObjAddr: 0xE500, symBinAddr: 0x35EA4, symSize: 0x14 }
  - { offset: 0x182ABA, size: 0x8, addend: 0x0, symName: __ZNSt3__16vectorI21llama_grammar_elementNS_9allocatorIS1_EEE18__assign_with_sizeB8ne200100IPS1_S6_EEvT_T0_l, symObjAddr: 0xE514, symBinAddr: 0x35EB8, symSize: 0x148 }
  - { offset: 0x182AC5, size: 0x8, addend: 0x0, symName: __ZNSt3__16vectorINS0_I21llama_grammar_elementNS_9allocatorIS1_EEEENS2_IS4_EEED1B8ne200100Ev, symObjAddr: 0x6D24, symBinAddr: 0x2E9AC, symSize: 0x74 }
  - { offset: 0x182D44, size: 0x8, addend: 0x0, symName: __ZNSt3__128__exception_guard_exceptionsINS_6vectorINS1_I21llama_grammar_elementNS_9allocatorIS2_EEEENS3_IS5_EEE16__destroy_vectorEED1B8ne200100Ev, symObjAddr: 0xE6E4, symBinAddr: 0x36088, symSize: 0x84 }
  - { offset: 0x183D76, size: 0x8, addend: 0x0, symName: __Z23llama_grammar_init_implPK11llama_vocabPKcS3_bPS3_mPKim, symObjAddr: 0x6D98, symBinAddr: 0x2EA20, symSize: 0xD40 }
  - { offset: 0x187B78, size: 0x8, addend: 0x0, symName: __ZNSt3__16__treeINS_12__value_typeINS_12basic_stringIcNS_11char_traitsIcEENS_9allocatorIcEEEEjEENS_19__map_value_compareIS7_S8_NS_4lessIS7_EELb1EEENS5_IS8_EEE7destroyEPNS_11__tree_nodeIS8_PvEE, symObjAddr: 0xA5B0, symBinAddr: 0x32128, symSize: 0x60 }
  - { offset: 0x187DBC, size: 0x8, addend: 0x0, symName: __ZNSt3__16vectorI29llama_grammar_trigger_patternNS_9allocatorIS1_EEE24__emplace_back_slow_pathIJEEEPS1_DpOT_, symObjAddr: 0xE77C, symBinAddr: 0x3610C, symSize: 0x1B0 }
  - { offset: 0x1882E6, size: 0x8, addend: 0x0, symName: __ZNSt3__111basic_regexIcNS_12regex_traitsIcEEEC2B8ne200100INS_11char_traitsIcEENS_9allocatorIcEEEERKNS_12basic_stringIcT_T0_EENS_15regex_constants18syntax_option_typeE, symObjAddr: 0xEC18, symBinAddr: 0x365A8, symSize: 0xD4 }
  - { offset: 0x1884B8, size: 0x8, addend: 0x0, symName: __ZNSt3__16vectorI29llama_grammar_trigger_patternNS_9allocatorIS1_EEE24__emplace_back_slow_pathIJEEEPS1_DpOT_, symObjAddr: 0xE77C, symBinAddr: 0x3610C, symSize: 0x1B0 }
  - { offset: 0x1884C3, size: 0x8, addend: 0x0, symName: __ZN20llama_grammar_parserD1Ev, symObjAddr: 0x7BF4, symBinAddr: 0x2F87C, symSize: 0x80 }
  - { offset: 0x1887E0, size: 0x8, addend: 0x0, symName: __ZNSt3__16vectorI29llama_grammar_trigger_patternNS_9allocatorIS1_EEED1B8ne200100Ev, symObjAddr: 0x7B34, symBinAddr: 0x2F7BC, symSize: 0xC0 }
  - { offset: 0x188B6F, size: 0x8, addend: 0x0, symName: __ZNSt3__111basic_regexIcNS_12regex_traitsIcEEED1Ev, symObjAddr: 0x7AD8, symBinAddr: 0x2F760, symSize: 0x5C }
  - { offset: 0x188EB5, size: 0x8, addend: 0x0, symName: __Z23llama_grammar_free_implP13llama_grammar, symObjAddr: 0x7C74, symBinAddr: 0x2F8FC, symSize: 0x1C }
  - { offset: 0x188F0A, size: 0x8, addend: 0x0, symName: __ZN13llama_grammarD2Ev, symObjAddr: 0xA610, symBinAddr: 0x32188, symSize: 0x188 }
  - { offset: 0x18A3D9, size: 0x8, addend: 0x0, symName: __Z24llama_grammar_clone_implRK13llama_grammar, symObjAddr: 0x7C90, symBinAddr: 0x2F918, symSize: 0x4D8 }
  - { offset: 0x18B4A6, size: 0x8, addend: 0x0, symName: __ZNSt3__135__uninitialized_allocator_copy_implB8ne200100INS_9allocatorINS_6vectorI21llama_grammar_elementNS1_IS3_EEEEEEPS5_S7_S7_EET2_RT_T0_T1_S8_, symObjAddr: 0x166F8, symBinAddr: 0x3DF7C, symSize: 0xF8 }
  - { offset: 0x18B4B1, size: 0x8, addend: 0x0, symName: __ZNSt3__16vectorI29llama_grammar_trigger_patternNS_9allocatorIS1_EEE18__construct_at_endIPS1_S6_EEvT_T0_m, symObjAddr: 0x16A58, symBinAddr: 0x3E2DC, symSize: 0x10C }
  - { offset: 0x18B885, size: 0x8, addend: 0x0, symName: __ZNSt3__16vectorINS_4pairIiNS1_ImmEEEENS_9allocatorIS3_EEE20__throw_length_errorB8ne200100Ev, symObjAddr: 0x16A44, symBinAddr: 0x3E2C8, symSize: 0x14 }
  - { offset: 0x18B89D, size: 0x8, addend: 0x0, symName: __ZNSt3__16vectorI29llama_grammar_trigger_patternNS_9allocatorIS1_EEE18__construct_at_endIPS1_S6_EEvT_T0_m, symObjAddr: 0x16A58, symBinAddr: 0x3E2DC, symSize: 0x10C }
  - { offset: 0x18B8A8, size: 0x8, addend: 0x0, symName: __ZNSt3__16vectorI29llama_grammar_trigger_patternNS_9allocatorIS1_EEE20__throw_length_errorB8ne200100Ev, symObjAddr: 0xEA50, symBinAddr: 0x363E0, symSize: 0x14 }
  - { offset: 0x18B8C0, size: 0x8, addend: 0x0, symName: __ZNSt3__134__uninitialized_allocator_relocateB8ne200100INS_9allocatorI29llama_grammar_trigger_patternEEPS2_EEvRT_T0_S7_S7_, symObjAddr: 0xEA64, symBinAddr: 0x363F4, symSize: 0xFC }
  - { offset: 0x18B8CB, size: 0x8, addend: 0x0, symName: __ZNSt3__128__exception_guard_exceptionsINS_6vectorINS1_IPK21llama_grammar_elementNS_9allocatorIS4_EEEENS5_IS7_EEE16__destroy_vectorEED1B8ne200100Ev, symObjAddr: 0x1685C, symBinAddr: 0x3E0E0, symSize: 0x84 }
  - { offset: 0x18BB58, size: 0x8, addend: 0x0, symName: __ZNSt3__128__exception_guard_exceptionsINS_6vectorI29llama_grammar_trigger_patternNS_9allocatorIS2_EEE16__destroy_vectorEED1B8ne200100Ev, symObjAddr: 0x16B64, symBinAddr: 0x3E3E8, symSize: 0xD0 }
  - { offset: 0x18BB85, size: 0x8, addend: 0x0, symName: __ZNSt3__128__exception_guard_exceptionsINS_6vectorI29llama_grammar_trigger_patternNS_9allocatorIS2_EEE16__destroy_vectorEED1B8ne200100Ev, symObjAddr: 0x16B64, symBinAddr: 0x3E3E8, symSize: 0xD0 }
  - { offset: 0x18C5F8, size: 0x8, addend: 0x0, symName: __Z24llama_grammar_apply_implRK13llama_grammarP22llama_token_data_array, symObjAddr: 0x8168, symBinAddr: 0x2FDF0, symSize: 0x570 }
  - { offset: 0x18DBE1, size: 0x8, addend: 0x0, symName: __ZNSt3__16vectorINS_4pairINS0_IjNS_9allocatorIjEEEE18llama_partial_utf8EENS2_IS6_EEE20__throw_length_errorB8ne200100Ev, symObjAddr: 0x16C34, symBinAddr: 0x3E4B8, symSize: 0x14 }
  - { offset: 0x18DBF9, size: 0x8, addend: 0x0, symName: __ZNSt3__16vectorINS0_IPK21llama_grammar_elementNS_9allocatorIS3_EEEENS4_IS6_EEE24__emplace_back_slow_pathIJRS6_EEEPS6_DpOT_, symObjAddr: 0x16C48, symBinAddr: 0x3E4CC, symSize: 0x174 }
  - { offset: 0x18DC04, size: 0x8, addend: 0x0, symName: __ZNSt3__16vectorINS_4pairINS0_IjNS_9allocatorIjEEEE18llama_partial_utf8EENS2_IS6_EEED1B8ne200100Ev, symObjAddr: 0x8B70, symBinAddr: 0x307F8, symSize: 0x74 }
  - { offset: 0x18E670, size: 0x8, addend: 0x0, symName: __Z25llama_grammar_accept_implR13llama_grammari, symObjAddr: 0x8BE4, symBinAddr: 0x3086C, symSize: 0x478 }
  - { offset: 0x18F867, size: 0x8, addend: 0x0, symName: __ZNSt3__16vectorINS_4pairIiNS1_ImmEEEENS_9allocatorIS3_EEE9push_backB8ne200100EOS3_, symObjAddr: 0x98D4, symBinAddr: 0x3155C, symSize: 0x134 }
  - { offset: 0x18FC49, size: 0x8, addend: 0x0, symName: __Z24llama_grammar_accept_strR13llama_grammarRKNSt3__112basic_stringIcNS1_11char_traitsIcEENS1_9allocatorIcEEEE, symObjAddr: 0x9A08, symBinAddr: 0x31690, symSize: 0x148 }
  - { offset: 0x18FC54, size: 0x8, addend: 0x0, symName: __Z26llama_grammar_accept_tokenR13llama_grammariRKNSt3__112basic_stringIcNS1_11char_traitsIcEENS1_9allocatorIcEEEE, symObjAddr: 0x905C, symBinAddr: 0x30CE4, symSize: 0x878 }
  - { offset: 0x192B27, size: 0x8, addend: 0x0, symName: __ZNSt3__14pairINS_12basic_stringIcNS_11char_traitsIcEENS_9allocatorIcEEEES6_ED1Ev, symObjAddr: 0x12B74, symBinAddr: 0x3A480, symSize: 0x58 }
  - { offset: 0x192DDE, size: 0x8, addend: 0x0, symName: __ZNSt3__16vectorINS0_IPK21llama_grammar_elementNS_9allocatorIS3_EEEENS4_IS6_EEE24__emplace_back_slow_pathIJRS6_EEEPS6_DpOT_, symObjAddr: 0x16C48, symBinAddr: 0x3E4CC, symSize: 0x174 }
  - { offset: 0x1935AC, size: 0x8, addend: 0x0, symName: __ZNSt3__128__exception_guard_exceptionsINS_29_AllocatorDestroyRangeReverseINS_9allocatorINS_6vectorIPK21llama_grammar_elementNS2_IS6_EEEEEEPS8_EEED1B8ne200100Ev, symObjAddr: 0x169D8, symBinAddr: 0x3E25C, symSize: 0x6C }
  - { offset: 0x193A4E, size: 0x8, addend: 0x0, symName: __Z24llama_grammar_accept_strR13llama_grammarRKNSt3__112basic_stringIcNS1_11char_traitsIcEENS1_9allocatorIcEEEE, symObjAddr: 0x9A08, symBinAddr: 0x31690, symSize: 0x148 }
  - { offset: 0x194302, size: 0x8, addend: 0x0, symName: __ZNSt3__114__split_bufferINS_6vectorIPK21llama_grammar_elementNS_9allocatorIS4_EEEERNS5_IS7_EEED1Ev, symObjAddr: 0xA4D4, symBinAddr: 0x3204C, symSize: 0x6C }
  - { offset: 0x194591, size: 0x8, addend: 0x0, symName: __ZNSt3__110shared_ptrINS_13__empty_stateIcEEED1B8ne200100Ev, symObjAddr: 0xA554, symBinAddr: 0x320CC, symSize: 0x5C }
  - { offset: 0x194911, size: 0x8, addend: 0x0, symName: __ZNSt3__16vectorINS_9sub_matchIPKcEENS_9allocatorIS4_EEE6assignEmRKS4_, symObjAddr: 0xAC30, symBinAddr: 0x32780, symSize: 0x1D4 }
  - { offset: 0x194E6E, size: 0x8, addend: 0x0, symName: __ZNKSt3__111basic_regexIcNS_12regex_traitsIcEEE21__match_at_start_ecmaINS_9allocatorINS_9sub_matchIPKcEEEEEEbS8_S8_RNS_13match_resultsIS8_T_EENS_15regex_constants15match_flag_typeEb, symObjAddr: 0xAE04, symBinAddr: 0x32954, symSize: 0x484 }
  - { offset: 0x194E79, size: 0x8, addend: 0x0, symName: __ZNKSt3__111basic_regexIcNS_12regex_traitsIcEEE27__match_at_start_posix_subsINS_9allocatorINS_9sub_matchIPKcEEEEEEbS8_S8_RNS_13match_resultsIS8_T_EENS_15regex_constants15match_flag_typeEb, symObjAddr: 0xBB4C, symBinAddr: 0x3369C, symSize: 0x5AC }
  - { offset: 0x196B53, size: 0x8, addend: 0x0, symName: __ZNKSt3__111basic_regexIcNS_12regex_traitsIcEEE21__match_at_start_ecmaINS_9allocatorINS_9sub_matchIPKcEEEEEEbS8_S8_RNS_13match_resultsIS8_T_EENS_15regex_constants15match_flag_typeEb, symObjAddr: 0xAE04, symBinAddr: 0x32954, symSize: 0x484 }
  - { offset: 0x197D06, size: 0x8, addend: 0x0, symName: __ZNKSt3__111basic_regexIcNS_12regex_traitsIcEEE29__match_at_start_posix_nosubsINS_9allocatorINS_9sub_matchIPKcEEEEEEbS8_S8_RNS_13match_resultsIS8_T_EENS_15regex_constants15match_flag_typeEb, symObjAddr: 0xB288, symBinAddr: 0x32DD8, symSize: 0x8C4 }
  - { offset: 0x199B03, size: 0x8, addend: 0x0, symName: __ZNSt3__16vectorINS_9sub_matchINS_11__wrap_iterIPKcEEEENS_9allocatorIS6_EEE8__appendEm, symObjAddr: 0xDD2C, symBinAddr: 0x3587C, symSize: 0x1A0 }
  - { offset: 0x19A042, size: 0x8, addend: 0x0, symName: __ZNSt3__16vectorINS_9sub_matchINS_11__wrap_iterIPKcEEEENS_9allocatorIS6_EEE20__throw_length_errorB8ne200100Ev, symObjAddr: 0xDECC, symBinAddr: 0x35A1C, symSize: 0x14 }
  - { offset: 0x19A2A1, size: 0x8, addend: 0x0, symName: __ZNSt3__16vectorINS_9sub_matchIPKcEENS_9allocatorIS4_EEE20__throw_length_errorB8ne200100Ev, symObjAddr: 0xC728, symBinAddr: 0x34278, symSize: 0x14 }
  - { offset: 0x19A2B9, size: 0x8, addend: 0x0, symName: __ZNSt3__16vectorINS_4pairImPKcEENS_9allocatorIS4_EEE8__appendEm, symObjAddr: 0xC73C, symBinAddr: 0x3428C, symSize: 0x120 }
  - { offset: 0x19A9D0, size: 0x8, addend: 0x0, symName: __ZNSt3__16vectorINS_7__stateIcEENS_9allocatorIS2_EEE24__emplace_back_slow_pathIJS2_EEEPS2_DpOT_, symObjAddr: 0xC250, symBinAddr: 0x33DA0, symSize: 0x17C }
  - { offset: 0x19B05C, size: 0x8, addend: 0x0, symName: __ZNSt3__16vectorINS_9sub_matchIPKcEENS_9allocatorIS4_EEE8__appendEmRKS4_, symObjAddr: 0xC578, symBinAddr: 0x340C8, symSize: 0x1B0 }
  - { offset: 0x19B563, size: 0x8, addend: 0x0, symName: __ZNSt3__16vectorINS_9sub_matchIPKcEENS_9allocatorIS4_EEE20__throw_length_errorB8ne200100Ev, symObjAddr: 0xC728, symBinAddr: 0x34278, symSize: 0x14 }
  - { offset: 0x19B56E, size: 0x8, addend: 0x0, symName: __ZNSt3__16vectorINS_4pairImPKcEENS_9allocatorIS4_EEE8__appendEm, symObjAddr: 0xC73C, symBinAddr: 0x3428C, symSize: 0x120 }
  - { offset: 0x19B9A2, size: 0x8, addend: 0x0, symName: __ZNSt3__16vectorINS_4pairImPKcEENS_9allocatorIS4_EEE20__throw_length_errorB8ne200100Ev, symObjAddr: 0xC85C, symBinAddr: 0x343AC, symSize: 0x14 }
  - { offset: 0x19B9AD, size: 0x8, addend: 0x0, symName: __ZNSt3__17__stateIcEC2ERKS1_, symObjAddr: 0xC870, symBinAddr: 0x343C0, symSize: 0x16C }
  - { offset: 0x19BFEF, size: 0x8, addend: 0x0, symName: __ZNSt3__16vectorINS_7__stateIcEENS_9allocatorIS2_EEED1B8ne200100Ev, symObjAddr: 0xC1D0, symBinAddr: 0x33D20, symSize: 0x80 }
  - { offset: 0x19C3DE, size: 0x8, addend: 0x0, symName: __ZNSt3__17__stateIcED1Ev, symObjAddr: 0xC0F8, symBinAddr: 0x33C48, symSize: 0x40 }
  - { offset: 0x19CAC3, size: 0x8, addend: 0x0, symName: __ZNSt3__15dequeINS_7__stateIcEENS_9allocatorIS2_EEE19__add_back_capacityEv, symObjAddr: 0xCBAC, symBinAddr: 0x346FC, symSize: 0x338 }
  - { offset: 0x19D730, size: 0x8, addend: 0x0, symName: __ZNSt3__15dequeINS_7__stateIcEENS_9allocatorIS2_EEE20__add_front_capacityEv, symObjAddr: 0xD364, symBinAddr: 0x34EB4, symSize: 0x374 }
  - { offset: 0x19E496, size: 0x8, addend: 0x0, symName: __ZNSt3__15dequeINS_7__stateIcEENS_9allocatorIS2_EEED1B8ne200100Ev, symObjAddr: 0xCB38, symBinAddr: 0x34688, symSize: 0x74 }
  - { offset: 0x19E7E2, size: 0x8, addend: 0x0, symName: __ZNSt3__16vectorINS_9sub_matchIPKcEENS_9allocatorIS4_EEE18__assign_with_sizeB8ne200100IPS4_S9_EEvT_T0_l, symObjAddr: 0xD860, symBinAddr: 0x353B0, symSize: 0x200 }
  - { offset: 0x19EF77, size: 0x8, addend: 0x0, symName: __ZNSt3__16vectorINS_4pairImPKcEENS_9allocatorIS4_EEE18__assign_with_sizeB8ne200100IPS4_S9_EEvT_T0_l, symObjAddr: 0xDA60, symBinAddr: 0x355B0, symSize: 0x2CC }
  - { offset: 0x19EF94, size: 0x8, addend: 0x0, symName: __ZNSt3__16vectorINS_4pairImPKcEENS_9allocatorIS4_EEE18__assign_with_sizeB8ne200100IPS4_S9_EEvT_T0_l, symObjAddr: 0xDA60, symBinAddr: 0x355B0, symSize: 0x2CC }
  - { offset: 0x19F6EF, size: 0x8, addend: 0x0, symName: __ZNSt3__16vectorINS_9sub_matchINS_11__wrap_iterIPKcEEEENS_9allocatorIS6_EEE8__appendEm, symObjAddr: 0xDD2C, symBinAddr: 0x3587C, symSize: 0x1A0 }
  - { offset: 0x19F89F, size: 0x8, addend: 0x0, symName: __ZNSt3__16vectorINS_7__stateIcEENS_9allocatorIS2_EEE26__swap_out_circular_bufferERNS_14__split_bufferIS2_RS4_EE, symObjAddr: 0xC3CC, symBinAddr: 0x33F1C, symSize: 0x124 }
  - { offset: 0x19FE0C, size: 0x8, addend: 0x0, symName: __ZNSt3__16vectorINS_7__stateIcEENS_9allocatorIS2_EEE20__throw_length_errorB8ne200100Ev, symObjAddr: 0xC564, symBinAddr: 0x340B4, symSize: 0x14 }
  - { offset: 0x19FE24, size: 0x8, addend: 0x0, symName: __ZNSt3__16vectorINS_9sub_matchIPKcEENS_9allocatorIS4_EEE8__appendEmRKS4_, symObjAddr: 0xC578, symBinAddr: 0x340C8, symSize: 0x1B0 }
  - { offset: 0x19FE2F, size: 0x8, addend: 0x0, symName: __ZNSt3__114__split_bufferINS_7__stateIcEERNS_9allocatorIS2_EEED1Ev, symObjAddr: 0xC4F0, symBinAddr: 0x34040, symSize: 0x74 }
  - { offset: 0x1A0713, size: 0x8, addend: 0x0, symName: __ZNSt3__16vectorINS_4pairImPKcEENS_9allocatorIS4_EEE20__throw_length_errorB8ne200100Ev, symObjAddr: 0xC85C, symBinAddr: 0x343AC, symSize: 0x14 }
  - { offset: 0x1A072B, size: 0x8, addend: 0x0, symName: __ZNSt3__17__stateIcEC2ERKS1_, symObjAddr: 0xC870, symBinAddr: 0x343C0, symSize: 0x16C }
  - { offset: 0x1A0B2E, size: 0x8, addend: 0x0, symName: __ZNSt3__15dequeINS_7__stateIcEENS_9allocatorIS2_EEE5clearEv, symObjAddr: 0xC9DC, symBinAddr: 0x3452C, symSize: 0x15C }
  - { offset: 0x1A14C9, size: 0x8, addend: 0x0, symName: __ZNSt3__114__split_bufferIPNS_7__stateIcEENS_9allocatorIS3_EEE12emplace_backIJRS3_EEEvDpOT_, symObjAddr: 0xCEE4, symBinAddr: 0x34A34, symSize: 0x17C }
  - { offset: 0x1A193C, size: 0x8, addend: 0x0, symName: __ZNSt3__114__split_bufferIPNS_7__stateIcEENS_9allocatorIS3_EEE12emplace_backIJS3_EEEvDpOT_, symObjAddr: 0xD060, symBinAddr: 0x34BB0, symSize: 0x17C }
  - { offset: 0x1A1952, size: 0x8, addend: 0x0, symName: __ZNSt3__114__split_bufferIPNS_7__stateIcEENS_9allocatorIS3_EEE12emplace_backIJS3_EEEvDpOT_, symObjAddr: 0xD060, symBinAddr: 0x34BB0, symSize: 0x17C }
  - { offset: 0x1A1DC5, size: 0x8, addend: 0x0, symName: __ZNSt3__114__split_bufferIPNS_7__stateIcEENS_9allocatorIS3_EEE13emplace_frontIJS3_EEEvDpOT_, symObjAddr: 0xD1DC, symBinAddr: 0x34D2C, symSize: 0x188 }
  - { offset: 0x1A1DDB, size: 0x8, addend: 0x0, symName: __ZNSt3__114__split_bufferIPNS_7__stateIcEENS_9allocatorIS3_EEE13emplace_frontIJS3_EEEvDpOT_, symObjAddr: 0xD1DC, symBinAddr: 0x34D2C, symSize: 0x188 }
  - { offset: 0x1A2270, size: 0x8, addend: 0x0, symName: __ZNSt3__15dequeINS_7__stateIcEENS_9allocatorIS2_EEE20__add_front_capacityEv, symObjAddr: 0xD364, symBinAddr: 0x34EB4, symSize: 0x374 }
  - { offset: 0x1A2350, size: 0x8, addend: 0x0, symName: __ZNSt3__114__split_bufferIPNS_7__stateIcEENS_9allocatorIS3_EEE13emplace_frontIJRS3_EEEvDpOT_, symObjAddr: 0xD6D8, symBinAddr: 0x35228, symSize: 0x188 }
  - { offset: 0x1A27E5, size: 0x8, addend: 0x0, symName: __ZNSt3__16vectorINS_9sub_matchIPKcEENS_9allocatorIS4_EEE18__assign_with_sizeB8ne200100IPS4_S9_EEvT_T0_l, symObjAddr: 0xD860, symBinAddr: 0x353B0, symSize: 0x200 }
  - { offset: 0x1A2C79, size: 0x8, addend: 0x0, symName: __ZNSt3__16vectorINS_9sub_matchINS_11__wrap_iterIPKcEEEENS_9allocatorIS6_EEE20__throw_length_errorB8ne200100Ev, symObjAddr: 0xDECC, symBinAddr: 0x35A1C, symSize: 0x14 }
  - { offset: 0x1A2C91, size: 0x8, addend: 0x0, symName: __ZNSt3__16__treeINS_12__value_typeINS_12basic_stringIcNS_11char_traitsIcEENS_9allocatorIcEEEEjEENS_19__map_value_compareIS7_S8_NS_4lessIS7_EELb1EEENS5_IS8_EEE25__emplace_unique_key_argsIS7_JS7_RjEEENS_4pairINS_15__tree_iteratorIS8_PNS_11__tree_nodeIS8_PvEElEEbEERKT_DpOT0_, symObjAddr: 0xDEE0, symBinAddr: 0x35A30, symSize: 0x180 }
  - { offset: 0x1A3507, size: 0x8, addend: 0x0, symName: __ZNSt3__114__split_bufferI29llama_grammar_trigger_patternRNS_9allocatorIS1_EEED1Ev, symObjAddr: 0xE998, symBinAddr: 0x36328, symSize: 0xB8 }
  - { offset: 0x1A3857, size: 0x8, addend: 0x0, symName: __ZNSt3__111basic_regexIcNS_12regex_traitsIcEEEC1B8ne200100Ev, symObjAddr: 0xE92C, symBinAddr: 0x362BC, symSize: 0x6C }
  - { offset: 0x1A3B08, size: 0x8, addend: 0x0, symName: __ZNSt3__128__exception_guard_exceptionsINS_29_AllocatorDestroyRangeReverseINS_9allocatorI29llama_grammar_trigger_patternEEPS3_EEED1B8ne200100Ev, symObjAddr: 0xEB60, symBinAddr: 0x364F0, symSize: 0xB8 }
  - { offset: 0x1A3E21, size: 0x8, addend: 0x0, symName: __ZNSt3__111basic_regexIcNS_12regex_traitsIcEEE7__parseINS_11__wrap_iterIPKcEEEET_S9_S9_, symObjAddr: 0xECEC, symBinAddr: 0x3667C, symSize: 0x200 }
  - { offset: 0x1A47A4, size: 0x8, addend: 0x0, symName: __ZNSt3__111basic_regexIcNS_12regex_traitsIcEEE13__parse_egrepINS_11__wrap_iterIPKcEEEET_S9_S9_, symObjAddr: 0xF604, symBinAddr: 0x36F94, symSize: 0x1A0 }
  - { offset: 0x1A4D37, size: 0x8, addend: 0x0, symName: __ZNSt3__111basic_regexIcNS_12regex_traitsIcEEE24__parse_extended_reg_expINS_11__wrap_iterIPKcEEEET_S9_S9_, symObjAddr: 0xF300, symBinAddr: 0x36C90, symSize: 0x164 }
  - { offset: 0x1A506C, size: 0x8, addend: 0x0, symName: __ZNSt3__111basic_regexIcNS_12regex_traitsIcEEE12__parse_grepINS_11__wrap_iterIPKcEEEET_S9_S9_, symObjAddr: 0xF464, symBinAddr: 0x36DF4, symSize: 0x1A0 }
  - { offset: 0x1A5080, size: 0x8, addend: 0x0, symName: __ZNSt3__111basic_regexIcNS_12regex_traitsIcEEE21__parse_basic_reg_expINS_11__wrap_iterIPKcEEEET_S9_S9_, symObjAddr: 0xF180, symBinAddr: 0x36B10, symSize: 0x180 }
  - { offset: 0x1A53A1, size: 0x8, addend: 0x0, symName: __ZNSt3__111basic_regexIcNS_12regex_traitsIcEEE24__parse_extended_reg_expINS_11__wrap_iterIPKcEEEET_S9_S9_, symObjAddr: 0xF300, symBinAddr: 0x36C90, symSize: 0x164 }
  - { offset: 0x1A53B5, size: 0x8, addend: 0x0, symName: __ZNSt3__111basic_regexIcNS_12regex_traitsIcEEE12__parse_grepINS_11__wrap_iterIPKcEEEET_S9_S9_, symObjAddr: 0xF464, symBinAddr: 0x36DF4, symSize: 0x1A0 }
  - { offset: 0x1A5948, size: 0x8, addend: 0x0, symName: __ZNSt3__111basic_regexIcNS_12regex_traitsIcEEE16__parse_ecma_expINS_11__wrap_iterIPKcEEEET_S9_S9_, symObjAddr: 0xEF38, symBinAddr: 0x368C8, symSize: 0x248 }
  - { offset: 0x1A6107, size: 0x8, addend: 0x0, symName: __ZNSt3__111basic_regexIcNS_12regex_traitsIcEEE17__parse_assertionINS_11__wrap_iterIPKcEEEET_S9_S9_, symObjAddr: 0xF9E8, symBinAddr: 0x37378, symSize: 0x324 }
  - { offset: 0x1A661F, size: 0x8, addend: 0x0, symName: __ZNSt3__111basic_regexIcNS_12regex_traitsIcEEE12__parse_atomINS_11__wrap_iterIPKcEEEET_S9_S9_, symObjAddr: 0xFD0C, symBinAddr: 0x3769C, symSize: 0x268 }
  - { offset: 0x1A698C, size: 0x8, addend: 0x0, symName: __ZNSt3__111basic_regexIcNS_12regex_traitsIcEEE23__parse_ERE_dupl_symbolINS_11__wrap_iterIPKcEEEET_S9_S9_PNS_16__owns_one_stateIcEEjj, symObjAddr: 0xFF74, symBinAddr: 0x37904, symSize: 0x378 }
  - { offset: 0x1A69A0, size: 0x8, addend: 0x0, symName: __ZNSt3__111basic_regexIcNS_12regex_traitsIcEEE23__parse_ERE_dupl_symbolINS_11__wrap_iterIPKcEEEET_S9_S9_PNS_16__owns_one_stateIcEEjj, symObjAddr: 0xFF74, symBinAddr: 0x37904, symSize: 0x378 }
  - { offset: 0x1A6FBC, size: 0x8, addend: 0x0, symName: __ZNSt3__111basic_regexIcNS_12regex_traitsIcEEE20__push_word_boundaryEb, symObjAddr: 0x102EC, symBinAddr: 0x37C7C, symSize: 0x6C }
  - { offset: 0x1A71BA, size: 0x8, addend: 0x0, symName: __ZNSt3__111basic_regexIcNS_12regex_traitsIcEEE18__parse_nondupl_REINS_11__wrap_iterIPKcEEEET_S9_S9_, symObjAddr: 0x15B24, symBinAddr: 0x3D430, symSize: 0x20C }
  - { offset: 0x1A7676, size: 0x8, addend: 0x0, symName: __ZNSt3__111basic_regexIcNS_12regex_traitsIcEEE22__parse_RE_dupl_symbolINS_11__wrap_iterIPKcEEEET_S9_S9_PNS_16__owns_one_stateIcEEjj, symObjAddr: 0x15D30, symBinAddr: 0x3D63C, symSize: 0x274 }
  - { offset: 0x1A768A, size: 0x8, addend: 0x0, symName: __ZNSt3__111basic_regexIcNS_12regex_traitsIcEEE22__parse_RE_dupl_symbolINS_11__wrap_iterIPKcEEEET_S9_S9_PNS_16__owns_one_stateIcEEjj, symObjAddr: 0x15D30, symBinAddr: 0x3D63C, symSize: 0x274 }
  - { offset: 0x1A7B7E, size: 0x8, addend: 0x0, symName: __ZNSt3__111basic_regexIcNS_12regex_traitsIcEEE32__parse_one_char_or_coll_elem_REINS_11__wrap_iterIPKcEEEET_S9_S9_, symObjAddr: 0x15FA4, symBinAddr: 0x3D8B0, symSize: 0x18C }
  - { offset: 0x1A7BD5, size: 0x8, addend: 0x0, symName: __ZNSt3__111basic_regexIcNS_12regex_traitsIcEEE22__parse_ERE_expressionINS_11__wrap_iterIPKcEEEET_S9_S9_, symObjAddr: 0x16260, symBinAddr: 0x3DB6C, symSize: 0x1F0 }
  - { offset: 0x1A7F7E, size: 0x8, addend: 0x0, symName: __ZNSt3__111basic_regexIcNS_12regex_traitsIcEEE33__parse_one_char_or_coll_elem_EREINS_11__wrap_iterIPKcEEEET_S9_S9_, symObjAddr: 0x16450, symBinAddr: 0x3DD5C, symSize: 0x158 }
  - { offset: 0x1A7FAE, size: 0x8, addend: 0x0, symName: __ZNSt3__111__end_stateIcED1Ev, symObjAddr: 0xF7F0, symBinAddr: 0x37180, symSize: 0x4 }
  - { offset: 0x1A7FDA, size: 0x8, addend: 0x0, symName: __ZNSt3__111__end_stateIcED0Ev, symObjAddr: 0xF7F4, symBinAddr: 0x37184, symSize: 0x4 }
  - { offset: 0x1A7FFA, size: 0x8, addend: 0x0, symName: __ZNKSt3__111__end_stateIcE6__execERNS_7__stateIcEE, symObjAddr: 0xF7F8, symBinAddr: 0x37188, symSize: 0xC }
  - { offset: 0x1A802D, size: 0x8, addend: 0x0, symName: __ZNKSt3__16__nodeIcE12__exec_splitEbRNS_7__stateIcEE, symObjAddr: 0xF804, symBinAddr: 0x37194, symSize: 0x4 }
  - { offset: 0x1A806D, size: 0x8, addend: 0x0, symName: __ZNKSt3__16__nodeIcE6__execERNS_7__stateIcEE, symObjAddr: 0xF808, symBinAddr: 0x37198, symSize: 0x4 }
  - { offset: 0x1A80B9, size: 0x8, addend: 0x0, symName: __ZNSt3__120__shared_ptr_pointerIPNS_13__empty_stateIcEENS_10shared_ptrIS2_E27__shared_ptr_default_deleteIS2_S2_EENS_9allocatorIS2_EEED1Ev, symObjAddr: 0xF80C, symBinAddr: 0x3719C, symSize: 0x4 }
  - { offset: 0x1A80DB, size: 0x8, addend: 0x0, symName: __ZNSt3__120__shared_ptr_pointerIPNS_13__empty_stateIcEENS_10shared_ptrIS2_E27__shared_ptr_default_deleteIS2_S2_EENS_9allocatorIS2_EEED1Ev, symObjAddr: 0xF80C, symBinAddr: 0x3719C, symSize: 0x4 }
  - { offset: 0x1A8111, size: 0x8, addend: 0x0, symName: __ZNSt3__120__shared_ptr_pointerIPNS_13__empty_stateIcEENS_10shared_ptrIS2_E27__shared_ptr_default_deleteIS2_S2_EENS_9allocatorIS2_EEED0Ev, symObjAddr: 0xF810, symBinAddr: 0x371A0, symSize: 0x14 }
  - { offset: 0x1A8174, size: 0x8, addend: 0x0, symName: __ZNSt3__120__shared_ptr_pointerIPNS_13__empty_stateIcEENS_10shared_ptrIS2_E27__shared_ptr_default_deleteIS2_S2_EENS_9allocatorIS2_EEE16__on_zero_sharedEv, symObjAddr: 0xF824, symBinAddr: 0x371B4, symSize: 0x18 }
  - { offset: 0x1A821C, size: 0x8, addend: 0x0, symName: __ZNKSt3__120__shared_ptr_pointerIPNS_13__empty_stateIcEENS_10shared_ptrIS2_E27__shared_ptr_default_deleteIS2_S2_EENS_9allocatorIS2_EEE13__get_deleterERKSt9type_info, symObjAddr: 0xF83C, symBinAddr: 0x371CC, symSize: 0x74 }
  - { offset: 0x1A8340, size: 0x8, addend: 0x0, symName: __ZNSt3__120__shared_ptr_pointerIPNS_13__empty_stateIcEENS_10shared_ptrIS2_E27__shared_ptr_default_deleteIS2_S2_EENS_9allocatorIS2_EEE21__on_zero_shared_weakEv, symObjAddr: 0xF8B0, symBinAddr: 0x37240, symSize: 0x4 }
  - { offset: 0x1A8374, size: 0x8, addend: 0x0, symName: __ZNSt3__120__shared_ptr_pointerIPNS_13__empty_stateIcEENS_10shared_ptrIS2_E27__shared_ptr_default_deleteIS2_S2_EENS_9allocatorIS2_EEE21__on_zero_shared_weakEv, symObjAddr: 0xF8B0, symBinAddr: 0x37240, symSize: 0x4 }
  - { offset: 0x1A8396, size: 0x8, addend: 0x0, symName: __ZNSt3__120__shared_ptr_pointerIPNS_13__empty_stateIcEENS_10shared_ptrIS2_E27__shared_ptr_default_deleteIS2_S2_EENS_9allocatorIS2_EEE21__on_zero_shared_weakEv, symObjAddr: 0xF8B0, symBinAddr: 0x37240, symSize: 0x4 }
  - { offset: 0x1A83CA, size: 0x8, addend: 0x0, symName: __ZNSt3__120__shared_ptr_pointerIPNS_13__empty_stateIcEENS_10shared_ptrIS2_E27__shared_ptr_default_deleteIS2_S2_EENS_9allocatorIS2_EEE21__on_zero_shared_weakEv, symObjAddr: 0xF8B0, symBinAddr: 0x37240, symSize: 0x4 }
  - { offset: 0x1A83F1, size: 0x8, addend: 0x0, symName: __ZNSt3__113__empty_stateIcED1Ev, symObjAddr: 0xF8B4, symBinAddr: 0x37244, symSize: 0x48 }
  - { offset: 0x1A8415, size: 0x8, addend: 0x0, symName: __ZNSt3__113__empty_stateIcED1Ev, symObjAddr: 0xF8B4, symBinAddr: 0x37244, symSize: 0x48 }
  - { offset: 0x1A8433, size: 0x8, addend: 0x0, symName: __ZNSt3__113__empty_stateIcED1Ev, symObjAddr: 0xF8B4, symBinAddr: 0x37244, symSize: 0x48 }
  - { offset: 0x1A845D, size: 0x8, addend: 0x0, symName: __ZNSt3__113__empty_stateIcED0Ev, symObjAddr: 0xF8FC, symBinAddr: 0x3728C, symSize: 0x48 }
  - { offset: 0x1A8481, size: 0x8, addend: 0x0, symName: __ZNSt3__113__empty_stateIcED0Ev, symObjAddr: 0xF8FC, symBinAddr: 0x3728C, symSize: 0x48 }
  - { offset: 0x1A849F, size: 0x8, addend: 0x0, symName: __ZNSt3__113__empty_stateIcED0Ev, symObjAddr: 0xF8FC, symBinAddr: 0x3728C, symSize: 0x48 }
  - { offset: 0x1A84BD, size: 0x8, addend: 0x0, symName: __ZNSt3__113__empty_stateIcED0Ev, symObjAddr: 0xF8FC, symBinAddr: 0x3728C, symSize: 0x48 }
  - { offset: 0x1A8504, size: 0x8, addend: 0x0, symName: __ZNKSt3__113__empty_stateIcE6__execERNS_7__stateIcEE, symObjAddr: 0xF944, symBinAddr: 0x372D4, symSize: 0x14 }
  - { offset: 0x1A8556, size: 0x8, addend: 0x0, symName: __ZNSt3__116__owns_one_stateIcED1Ev, symObjAddr: 0xF958, symBinAddr: 0x372E8, symSize: 0x48 }
  - { offset: 0x1A857A, size: 0x8, addend: 0x0, symName: __ZNSt3__116__owns_one_stateIcED1Ev, symObjAddr: 0xF958, symBinAddr: 0x372E8, symSize: 0x48 }
  - { offset: 0x1A85BF, size: 0x8, addend: 0x0, symName: __ZNSt3__116__owns_one_stateIcED0Ev, symObjAddr: 0xF9A0, symBinAddr: 0x37330, symSize: 0x48 }
  - { offset: 0x1A85EE, size: 0x8, addend: 0x0, symName: __ZNSt3__116__owns_one_stateIcED0Ev, symObjAddr: 0xF9A0, symBinAddr: 0x37330, symSize: 0x48 }
  - { offset: 0x1A860C, size: 0x8, addend: 0x0, symName: __ZNSt3__116__owns_one_stateIcED0Ev, symObjAddr: 0xF9A0, symBinAddr: 0x37330, symSize: 0x48 }
  - { offset: 0x1A8737, size: 0x8, addend: 0x0, symName: __ZNSt3__111basic_regexIcNS_12regex_traitsIcEEE16__push_lookaheadERKS3_bj, symObjAddr: 0x10358, symBinAddr: 0x37CE8, symSize: 0xA8 }
  - { offset: 0x1A894F, size: 0x8, addend: 0x0, symName: __ZNSt3__111basic_regexIcNS_12regex_traitsIcEEE20__push_word_boundaryEb, symObjAddr: 0x102EC, symBinAddr: 0x37C7C, symSize: 0x6C }
  - { offset: 0x1A8C21, size: 0x8, addend: 0x0, symName: __ZNSt3__111basic_regexIcNS_12regex_traitsIcEEE26__parse_bracket_expressionINS_11__wrap_iterIPKcEEEET_S9_S9_, symObjAddr: 0x10C04, symBinAddr: 0x38594, symSize: 0x158 }
  - { offset: 0x1A8E49, size: 0x8, addend: 0x0, symName: __ZNSt3__111basic_regexIcNS_12regex_traitsIcEEE19__parse_atom_escapeINS_11__wrap_iterIPKcEEEET_S9_S9_, symObjAddr: 0x10AB8, symBinAddr: 0x38448, symSize: 0x14C }
  - { offset: 0x1A8FB5, size: 0x8, addend: 0x0, symName: __ZNSt3__111basic_regexIcNS_12regex_traitsIcEEE26__parse_bracket_expressionINS_11__wrap_iterIPKcEEEET_S9_S9_, symObjAddr: 0x10C04, symBinAddr: 0x38594, symSize: 0x158 }
  - { offset: 0x1A8FC9, size: 0x8, addend: 0x0, symName: __ZNSt3__111basic_regexIcNS_12regex_traitsIcEEE25__parse_pattern_characterINS_11__wrap_iterIPKcEEEET_S9_S9_, symObjAddr: 0x10DA8, symBinAddr: 0x38738, symSize: 0x7C }
  - { offset: 0x1A919D, size: 0x8, addend: 0x0, symName: __ZNSt3__111basic_regexIcNS_12regex_traitsIcEEE11__push_loopEmmPNS_16__owns_one_stateIcEEmmb, symObjAddr: 0x1538C, symBinAddr: 0x3CC98, symSize: 0x13C }
  - { offset: 0x1A9750, size: 0x8, addend: 0x0, symName: __ZNSt3__120__l_anchor_multilineIcED1Ev, symObjAddr: 0x1044C, symBinAddr: 0x37DDC, symSize: 0x48 }
  - { offset: 0x1A9774, size: 0x8, addend: 0x0, symName: __ZNSt3__120__l_anchor_multilineIcED1Ev, symObjAddr: 0x1044C, symBinAddr: 0x37DDC, symSize: 0x48 }
  - { offset: 0x1A9792, size: 0x8, addend: 0x0, symName: __ZNSt3__120__l_anchor_multilineIcED1Ev, symObjAddr: 0x1044C, symBinAddr: 0x37DDC, symSize: 0x48 }
  - { offset: 0x1A97D9, size: 0x8, addend: 0x0, symName: __ZNSt3__120__l_anchor_multilineIcED0Ev, symObjAddr: 0x10494, symBinAddr: 0x37E24, symSize: 0x48 }
  - { offset: 0x1A9809, size: 0x8, addend: 0x0, symName: __ZNSt3__120__l_anchor_multilineIcED0Ev, symObjAddr: 0x10494, symBinAddr: 0x37E24, symSize: 0x48 }
  - { offset: 0x1A9827, size: 0x8, addend: 0x0, symName: __ZNSt3__120__l_anchor_multilineIcED0Ev, symObjAddr: 0x10494, symBinAddr: 0x37E24, symSize: 0x48 }
  - { offset: 0x1A9845, size: 0x8, addend: 0x0, symName: __ZNSt3__120__l_anchor_multilineIcED0Ev, symObjAddr: 0x10494, symBinAddr: 0x37E24, symSize: 0x48 }
  - { offset: 0x1A9870, size: 0x8, addend: 0x0, symName: __ZNKSt3__120__l_anchor_multilineIcE6__execERNS_7__stateIcEE, symObjAddr: 0x104DC, symBinAddr: 0x37E6C, symSize: 0x68 }
  - { offset: 0x1A98D4, size: 0x8, addend: 0x0, symName: __ZNSt3__120__r_anchor_multilineIcED1Ev, symObjAddr: 0x10544, symBinAddr: 0x37ED4, symSize: 0x48 }
  - { offset: 0x1A98F8, size: 0x8, addend: 0x0, symName: __ZNSt3__120__r_anchor_multilineIcED1Ev, symObjAddr: 0x10544, symBinAddr: 0x37ED4, symSize: 0x48 }
  - { offset: 0x1A9916, size: 0x8, addend: 0x0, symName: __ZNSt3__120__r_anchor_multilineIcED1Ev, symObjAddr: 0x10544, symBinAddr: 0x37ED4, symSize: 0x48 }
  - { offset: 0x1A995D, size: 0x8, addend: 0x0, symName: __ZNSt3__120__r_anchor_multilineIcED0Ev, symObjAddr: 0x1058C, symBinAddr: 0x37F1C, symSize: 0x48 }
  - { offset: 0x1A998D, size: 0x8, addend: 0x0, symName: __ZNSt3__120__r_anchor_multilineIcED0Ev, symObjAddr: 0x1058C, symBinAddr: 0x37F1C, symSize: 0x48 }
  - { offset: 0x1A99AB, size: 0x8, addend: 0x0, symName: __ZNSt3__120__r_anchor_multilineIcED0Ev, symObjAddr: 0x1058C, symBinAddr: 0x37F1C, symSize: 0x48 }
  - { offset: 0x1A99C9, size: 0x8, addend: 0x0, symName: __ZNSt3__120__r_anchor_multilineIcED0Ev, symObjAddr: 0x1058C, symBinAddr: 0x37F1C, symSize: 0x48 }
  - { offset: 0x1A99F4, size: 0x8, addend: 0x0, symName: __ZNKSt3__120__r_anchor_multilineIcE6__execERNS_7__stateIcEE, symObjAddr: 0x105D4, symBinAddr: 0x37F64, symSize: 0x54 }
  - { offset: 0x1A9A58, size: 0x8, addend: 0x0, symName: __ZNSt3__115__word_boundaryIcNS_12regex_traitsIcEEED1Ev, symObjAddr: 0x10628, symBinAddr: 0x37FB8, symSize: 0x58 }
  - { offset: 0x1A9B08, size: 0x8, addend: 0x0, symName: __ZNSt3__115__word_boundaryIcNS_12regex_traitsIcEEED0Ev, symObjAddr: 0x10680, symBinAddr: 0x38010, symSize: 0x58 }
  - { offset: 0x1A9C22, size: 0x8, addend: 0x0, symName: __ZNKSt3__115__word_boundaryIcNS_12regex_traitsIcEEE6__execERNS_7__stateIcEE, symObjAddr: 0x106D8, symBinAddr: 0x38068, symSize: 0x154 }
  - { offset: 0x1A9DE0, size: 0x8, addend: 0x0, symName: __ZNSt3__111__lookaheadIcNS_12regex_traitsIcEEED1Ev, symObjAddr: 0x1082C, symBinAddr: 0x381BC, symSize: 0x8C }
  - { offset: 0x1A9F40, size: 0x8, addend: 0x0, symName: __ZNSt3__111__lookaheadIcNS_12regex_traitsIcEEED0Ev, symObjAddr: 0x108B8, symBinAddr: 0x38248, symSize: 0x8C }
  - { offset: 0x1AA0AC, size: 0x8, addend: 0x0, symName: __ZNKSt3__111__lookaheadIcNS_12regex_traitsIcEEE6__execERNS_7__stateIcEE, symObjAddr: 0x10944, symBinAddr: 0x382D4, symSize: 0x174 }
  - { offset: 0x1AA612, size: 0x8, addend: 0x0, symName: __ZNSt3__111basic_regexIcNS_12regex_traitsIcEEE11__push_charEc, symObjAddr: 0x114E8, symBinAddr: 0x38E78, symSize: 0x144 }
  - { offset: 0x1AA97D, size: 0x8, addend: 0x0, symName: __ZNSt3__111basic_regexIcNS_12regex_traitsIcEEE15__push_back_refEi, symObjAddr: 0x11678, symBinAddr: 0x39008, symSize: 0xD4 }
  - { offset: 0x1AAB31, size: 0x8, addend: 0x0, symName: __ZNSt3__111basic_regexIcNS_12regex_traitsIcEEE30__parse_character_class_escapeINS_11__wrap_iterIPKcEEEET_S9_S9_, symObjAddr: 0x10F00, symBinAddr: 0x38890, symSize: 0x25C }
  - { offset: 0x1AAFA0, size: 0x8, addend: 0x0, symName: __ZNSt3__111basic_regexIcNS_12regex_traitsIcEEE24__parse_character_escapeINS_11__wrap_iterIPKcEEEET_S9_S9_PNS_12basic_stringIcNS_11char_traitsIcEENS_9allocatorIcEEEE, symObjAddr: 0x1115C, symBinAddr: 0x38AEC, symSize: 0x38C }
  - { offset: 0x1AB36A, size: 0x8, addend: 0x0, symName: __ZNSt3__111basic_regexIcNS_12regex_traitsIcEEE11__push_charEc, symObjAddr: 0x114E8, symBinAddr: 0x38E78, symSize: 0x144 }
  - { offset: 0x1AB455, size: 0x8, addend: 0x0, symName: __ZNSt3__120__bracket_expressionIcNS_12regex_traitsIcEEEC2B8ne200100ERKS2_PNS_6__nodeIcEEbbb, symObjAddr: 0x12024, symBinAddr: 0x399B4, symSize: 0x19C }
  - { offset: 0x1ABA87, size: 0x8, addend: 0x0, symName: __ZNSt3__120__bracket_expressionIcNS_12regex_traitsIcEEE10__add_charB8ne200100Ec, symObjAddr: 0x11E98, symBinAddr: 0x39828, symSize: 0x18C }
  - { offset: 0x1ABDAF, size: 0x8, addend: 0x0, symName: __ZNSt3__120__bracket_expressionIcNS_12regex_traitsIcEEEC2B8ne200100ERKS2_PNS_6__nodeIcEEbbb, symObjAddr: 0x12024, symBinAddr: 0x399B4, symSize: 0x19C }
  - { offset: 0x1ABDBA, size: 0x8, addend: 0x0, symName: __ZNSt3__111basic_regexIcNS_12regex_traitsIcEEE23__parse_expression_termINS_11__wrap_iterIPKcEEEET_S9_S9_PNS_20__bracket_expressionIcS2_EE, symObjAddr: 0x13284, symBinAddr: 0x3AB90, symSize: 0x454 }
  - { offset: 0x1ACA38, size: 0x8, addend: 0x0, symName: __ZNSt3__123__match_any_but_newlineIcED1Ev, symObjAddr: 0x10E24, symBinAddr: 0x387B4, symSize: 0x48 }
  - { offset: 0x1ACA5C, size: 0x8, addend: 0x0, symName: __ZNSt3__123__match_any_but_newlineIcED1Ev, symObjAddr: 0x10E24, symBinAddr: 0x387B4, symSize: 0x48 }
  - { offset: 0x1ACA7A, size: 0x8, addend: 0x0, symName: __ZNSt3__123__match_any_but_newlineIcED1Ev, symObjAddr: 0x10E24, symBinAddr: 0x387B4, symSize: 0x48 }
  - { offset: 0x1ACAC1, size: 0x8, addend: 0x0, symName: __ZNSt3__123__match_any_but_newlineIcED0Ev, symObjAddr: 0x10E6C, symBinAddr: 0x387FC, symSize: 0x48 }
  - { offset: 0x1ACAF1, size: 0x8, addend: 0x0, symName: __ZNSt3__123__match_any_but_newlineIcED0Ev, symObjAddr: 0x10E6C, symBinAddr: 0x387FC, symSize: 0x48 }
  - { offset: 0x1ACB0F, size: 0x8, addend: 0x0, symName: __ZNSt3__123__match_any_but_newlineIcED0Ev, symObjAddr: 0x10E6C, symBinAddr: 0x387FC, symSize: 0x48 }
  - { offset: 0x1ACB2D, size: 0x8, addend: 0x0, symName: __ZNSt3__123__match_any_but_newlineIcED0Ev, symObjAddr: 0x10E6C, symBinAddr: 0x387FC, symSize: 0x48 }
  - { offset: 0x1ACF7D, size: 0x8, addend: 0x0, symName: __ZNSt3__118__match_char_icaseIcNS_12regex_traitsIcEEED1Ev, symObjAddr: 0x1174C, symBinAddr: 0x390DC, symSize: 0x58 }
  - { offset: 0x1AD02D, size: 0x8, addend: 0x0, symName: __ZNSt3__118__match_char_icaseIcNS_12regex_traitsIcEEED0Ev, symObjAddr: 0x117A4, symBinAddr: 0x39134, symSize: 0x58 }
  - { offset: 0x1AD0E9, size: 0x8, addend: 0x0, symName: __ZNKSt3__118__match_char_icaseIcNS_12regex_traitsIcEEE6__execERNS_7__stateIcEE, symObjAddr: 0x117FC, symBinAddr: 0x3918C, symSize: 0x84 }
  - { offset: 0x1AD1A2, size: 0x8, addend: 0x0, symName: __ZNSt3__120__match_char_collateIcNS_12regex_traitsIcEEED1Ev, symObjAddr: 0x11880, symBinAddr: 0x39210, symSize: 0x58 }
  - { offset: 0x1AD252, size: 0x8, addend: 0x0, symName: __ZNSt3__120__match_char_collateIcNS_12regex_traitsIcEEED0Ev, symObjAddr: 0x118D8, symBinAddr: 0x39268, symSize: 0x58 }
  - { offset: 0x1AD30E, size: 0x8, addend: 0x0, symName: __ZNKSt3__120__match_char_collateIcNS_12regex_traitsIcEEE6__execERNS_7__stateIcEE, symObjAddr: 0x11930, symBinAddr: 0x392C0, symSize: 0x48 }
  - { offset: 0x1AD37B, size: 0x8, addend: 0x0, symName: __ZNSt3__112__match_charIcED1Ev, symObjAddr: 0x11978, symBinAddr: 0x39308, symSize: 0x48 }
  - { offset: 0x1AD39F, size: 0x8, addend: 0x0, symName: __ZNSt3__112__match_charIcED1Ev, symObjAddr: 0x11978, symBinAddr: 0x39308, symSize: 0x48 }
  - { offset: 0x1AD3BD, size: 0x8, addend: 0x0, symName: __ZNSt3__112__match_charIcED1Ev, symObjAddr: 0x11978, symBinAddr: 0x39308, symSize: 0x48 }
  - { offset: 0x1AD404, size: 0x8, addend: 0x0, symName: __ZNSt3__112__match_charIcED0Ev, symObjAddr: 0x119C0, symBinAddr: 0x39350, symSize: 0x48 }
  - { offset: 0x1AD434, size: 0x8, addend: 0x0, symName: __ZNSt3__112__match_charIcED0Ev, symObjAddr: 0x119C0, symBinAddr: 0x39350, symSize: 0x48 }
  - { offset: 0x1AD452, size: 0x8, addend: 0x0, symName: __ZNSt3__112__match_charIcED0Ev, symObjAddr: 0x119C0, symBinAddr: 0x39350, symSize: 0x48 }
  - { offset: 0x1AD470, size: 0x8, addend: 0x0, symName: __ZNSt3__112__match_charIcED0Ev, symObjAddr: 0x119C0, symBinAddr: 0x39350, symSize: 0x48 }
  - { offset: 0x1AD49B, size: 0x8, addend: 0x0, symName: __ZNKSt3__112__match_charIcE6__execERNS_7__stateIcEE, symObjAddr: 0x11A08, symBinAddr: 0x39398, symSize: 0x48 }
  - { offset: 0x1AD508, size: 0x8, addend: 0x0, symName: __ZNSt3__116__back_ref_icaseIcNS_12regex_traitsIcEEED1Ev, symObjAddr: 0x11A50, symBinAddr: 0x393E0, symSize: 0x58 }
  - { offset: 0x1AD5B8, size: 0x8, addend: 0x0, symName: __ZNSt3__116__back_ref_icaseIcNS_12regex_traitsIcEEED0Ev, symObjAddr: 0x11AA8, symBinAddr: 0x39438, symSize: 0x58 }
  - { offset: 0x1AD674, size: 0x8, addend: 0x0, symName: __ZNKSt3__116__back_ref_icaseIcNS_12regex_traitsIcEEE6__execERNS_7__stateIcEE, symObjAddr: 0x11B00, symBinAddr: 0x39490, symSize: 0xFC }
  - { offset: 0x1AD7DB, size: 0x8, addend: 0x0, symName: __ZNSt3__118__back_ref_collateIcNS_12regex_traitsIcEEED1Ev, symObjAddr: 0x11BFC, symBinAddr: 0x3958C, symSize: 0x58 }
  - { offset: 0x1AD88B, size: 0x8, addend: 0x0, symName: __ZNSt3__118__back_ref_collateIcNS_12regex_traitsIcEEED0Ev, symObjAddr: 0x11C54, symBinAddr: 0x395E4, symSize: 0x58 }
  - { offset: 0x1AD947, size: 0x8, addend: 0x0, symName: __ZNKSt3__118__back_ref_collateIcNS_12regex_traitsIcEEE6__execERNS_7__stateIcEE, symObjAddr: 0x11CAC, symBinAddr: 0x3963C, symSize: 0x8C }
  - { offset: 0x1ADA18, size: 0x8, addend: 0x0, symName: __ZNSt3__110__back_refIcED1Ev, symObjAddr: 0x11D38, symBinAddr: 0x396C8, symSize: 0x48 }
  - { offset: 0x1ADA3C, size: 0x8, addend: 0x0, symName: __ZNSt3__110__back_refIcED1Ev, symObjAddr: 0x11D38, symBinAddr: 0x396C8, symSize: 0x48 }
  - { offset: 0x1ADA5A, size: 0x8, addend: 0x0, symName: __ZNSt3__110__back_refIcED1Ev, symObjAddr: 0x11D38, symBinAddr: 0x396C8, symSize: 0x48 }
  - { offset: 0x1ADAA1, size: 0x8, addend: 0x0, symName: __ZNSt3__110__back_refIcED0Ev, symObjAddr: 0x11D80, symBinAddr: 0x39710, symSize: 0x48 }
  - { offset: 0x1ADAD1, size: 0x8, addend: 0x0, symName: __ZNSt3__110__back_refIcED0Ev, symObjAddr: 0x11D80, symBinAddr: 0x39710, symSize: 0x48 }
  - { offset: 0x1ADAEF, size: 0x8, addend: 0x0, symName: __ZNSt3__110__back_refIcED0Ev, symObjAddr: 0x11D80, symBinAddr: 0x39710, symSize: 0x48 }
  - { offset: 0x1ADB0D, size: 0x8, addend: 0x0, symName: __ZNSt3__110__back_refIcED0Ev, symObjAddr: 0x11D80, symBinAddr: 0x39710, symSize: 0x48 }
  - { offset: 0x1ADB38, size: 0x8, addend: 0x0, symName: __ZNKSt3__110__back_refIcE6__execERNS_7__stateIcEE, symObjAddr: 0x11DC8, symBinAddr: 0x39758, symSize: 0xD0 }
  - { offset: 0x1ADCB0, size: 0x8, addend: 0x0, symName: __ZNSt3__120__bracket_expressionIcNS_12regex_traitsIcEEE10__add_charB8ne200100Ec, symObjAddr: 0x11E98, symBinAddr: 0x39828, symSize: 0x18C }
  - { offset: 0x1ADF37, size: 0x8, addend: 0x0, symName: __ZNSt3__16vectorIcNS_9allocatorIcEEE20__throw_length_errorB8ne200100Ev, symObjAddr: 0x13224, symBinAddr: 0x3AB30, symSize: 0x14 }
  - { offset: 0x1ADF4F, size: 0x8, addend: 0x0, symName: __ZNSt3__119__throw_regex_errorB8ne200100ILNS_15regex_constants10error_typeE5EEEvv, symObjAddr: 0x13238, symBinAddr: 0x3AB44, symSize: 0x4C }
  - { offset: 0x1AE332, size: 0x8, addend: 0x0, symName: __ZNSt3__16vectorINS_4pairINS_12basic_stringIcNS_11char_traitsIcEENS_9allocatorIcEEEES7_EENS5_IS8_EEED1B8ne200100Ev, symObjAddr: 0x12230, symBinAddr: 0x39B50, symSize: 0x94 }
  - { offset: 0x1AE99C, size: 0x8, addend: 0x0, symName: __ZNSt3__120__bracket_expressionIcNS_12regex_traitsIcEEED1Ev, symObjAddr: 0x122C4, symBinAddr: 0x39BE4, symSize: 0x4 }
  - { offset: 0x1AE9BF, size: 0x8, addend: 0x0, symName: __ZNSt3__120__bracket_expressionIcNS_12regex_traitsIcEEED1Ev, symObjAddr: 0x122C4, symBinAddr: 0x39BE4, symSize: 0x4 }
  - { offset: 0x1AE9D2, size: 0x8, addend: 0x0, symName: __ZNSt3__120__bracket_expressionIcNS_12regex_traitsIcEEED2Ev, symObjAddr: 0x12BCC, symBinAddr: 0x3A4D8, symSize: 0x148 }
  - { offset: 0x1AF3D7, size: 0x8, addend: 0x0, symName: __ZNSt3__120__bracket_expressionIcNS_12regex_traitsIcEEED0Ev, symObjAddr: 0x122C8, symBinAddr: 0x39BE8, symSize: 0x14 }
  - { offset: 0x1AF815, size: 0x8, addend: 0x0, symName: __ZNKSt3__120__bracket_expressionIcNS_12regex_traitsIcEEE6__execERNS_7__stateIcEE, symObjAddr: 0x122DC, symBinAddr: 0x39BFC, symSize: 0x884 }
  - { offset: 0x1B103F, size: 0x8, addend: 0x0, symName: __ZNKSt3__112regex_traitsIcE20__lookup_collatenameIPcEENS_12basic_stringIcNS_11char_traitsIcEENS_9allocatorIcEEEET_SA_c, symObjAddr: 0x12E48, symBinAddr: 0x3A754, symSize: 0x23C }
  - { offset: 0x1B1B3A, size: 0x8, addend: 0x0, symName: __ZNKSt3__112regex_traitsIcE9transformIPcEENS_12basic_stringIcNS_11char_traitsIcEENS_9allocatorIcEEEET_SA_, symObjAddr: 0x12D14, symBinAddr: 0x3A620, symSize: 0x134 }
  - { offset: 0x1B20F7, size: 0x8, addend: 0x0, symName: __ZNKSt3__112regex_traitsIcE19__transform_primaryIPcEENS_12basic_stringIcNS_11char_traitsIcEENS_9allocatorIcEEEET_SA_c, symObjAddr: 0x13084, symBinAddr: 0x3A990, symSize: 0x1A0 }
  - { offset: 0x1B2837, size: 0x8, addend: 0x0, symName: __ZNSt3__14pairINS_12basic_stringIcNS_11char_traitsIcEENS_9allocatorIcEEEES6_ED1Ev, symObjAddr: 0x12B74, symBinAddr: 0x3A480, symSize: 0x58 }
  - { offset: 0x1B2B36, size: 0x8, addend: 0x0, symName: __ZNSt3__111basic_regexIcNS_12regex_traitsIcEEE25__parse_equivalence_classINS_11__wrap_iterIPKcEEEET_S9_S9_PNS_20__bracket_expressionIcS2_EE, symObjAddr: 0x136D8, symBinAddr: 0x3AFE4, symSize: 0x28C }
  - { offset: 0x1B356F, size: 0x8, addend: 0x0, symName: __ZNSt3__111basic_regexIcNS_12regex_traitsIcEEE18__parse_awk_escapeINS_11__wrap_iterIPKcEEEET_S9_S9_PNS_12basic_stringIcNS_11char_traitsIcEENS_9allocatorIcEEEE, symObjAddr: 0x13C78, symBinAddr: 0x3B584, symSize: 0x2F8 }
  - { offset: 0x1B374C, size: 0x8, addend: 0x0, symName: __ZNSt3__120__bracket_expressionIcNS_12regex_traitsIcEEE11__add_rangeB8ne200100ENS_12basic_stringIcNS_11char_traitsIcEENS_9allocatorIcEEEES9_, symObjAddr: 0x13F70, symBinAddr: 0x3B87C, symSize: 0x438 }
  - { offset: 0x1B3760, size: 0x8, addend: 0x0, symName: __ZNSt3__111basic_regexIcNS_12regex_traitsIcEEE24__parse_collating_symbolINS_11__wrap_iterIPKcEEEET_S9_S9_RNS_12basic_stringIcNS_11char_traitsIcEENS_9allocatorIcEEEE, symObjAddr: 0x13A10, symBinAddr: 0x3B31C, symSize: 0xE0 }
  - { offset: 0x1B3AAB, size: 0x8, addend: 0x0, symName: __ZNSt3__111basic_regexIcNS_12regex_traitsIcEEE20__parse_class_escapeINS_11__wrap_iterIPKcEEEET_S9_S9_RNS_12basic_stringIcNS_11char_traitsIcEENS_9allocatorIcEEEEPNS_20__bracket_expressionIcS2_EE, symObjAddr: 0x13AF0, symBinAddr: 0x3B3FC, symSize: 0x188 }
  - { offset: 0x1B3ABF, size: 0x8, addend: 0x0, symName: __ZNSt3__111basic_regexIcNS_12regex_traitsIcEEE23__parse_character_classINS_11__wrap_iterIPKcEEEET_S9_S9_PNS_20__bracket_expressionIcS2_EE, symObjAddr: 0x13964, symBinAddr: 0x3B270, symSize: 0xAC }
  - { offset: 0x1B3D15, size: 0x8, addend: 0x0, symName: __ZNSt3__111basic_regexIcNS_12regex_traitsIcEEE24__parse_collating_symbolINS_11__wrap_iterIPKcEEEET_S9_S9_RNS_12basic_stringIcNS_11char_traitsIcEENS_9allocatorIcEEEE, symObjAddr: 0x13A10, symBinAddr: 0x3B31C, symSize: 0xE0 }
  - { offset: 0x1B3D35, size: 0x8, addend: 0x0, symName: __ZNSt3__120__bracket_expressionIcNS_12regex_traitsIcEEE13__add_digraphB8ne200100Ecc, symObjAddr: 0x143A8, symBinAddr: 0x3BCB4, symSize: 0x220 }
  - { offset: 0x1B4802, size: 0x8, addend: 0x0, symName: __ZNSt3__119__throw_regex_errorB8ne200100ILNS_15regex_constants10error_typeE1EEEvv, symObjAddr: 0x145C8, symBinAddr: 0x3BED4, symSize: 0x4C }
  - { offset: 0x1B480D, size: 0x8, addend: 0x0, symName: __ZNSt3__111basic_regexIcNS_12regex_traitsIcEEE20__parse_class_escapeINS_11__wrap_iterIPKcEEEET_S9_S9_RNS_12basic_stringIcNS_11char_traitsIcEENS_9allocatorIcEEEEPNS_20__bracket_expressionIcS2_EE, symObjAddr: 0x13AF0, symBinAddr: 0x3B3FC, symSize: 0x188 }
  - { offset: 0x1B49E1, size: 0x8, addend: 0x0, symName: __ZNSt3__111basic_regexIcNS_12regex_traitsIcEEE18__parse_awk_escapeINS_11__wrap_iterIPKcEEEET_S9_S9_PNS_12basic_stringIcNS_11char_traitsIcEENS_9allocatorIcEEEE, symObjAddr: 0x13C78, symBinAddr: 0x3B584, symSize: 0x2F8 }
  - { offset: 0x1B49F5, size: 0x8, addend: 0x0, symName: __ZNSt3__120__bracket_expressionIcNS_12regex_traitsIcEEE11__add_rangeB8ne200100ENS_12basic_stringIcNS_11char_traitsIcEENS_9allocatorIcEEEES9_, symObjAddr: 0x13F70, symBinAddr: 0x3B87C, symSize: 0x438 }
  - { offset: 0x1B5DF3, size: 0x8, addend: 0x0, symName: __ZNKSt3__112regex_traitsIcE20__lookup_collatenameINS_11__wrap_iterIPKcEEEENS_12basic_stringIcNS_11char_traitsIcEENS_9allocatorIcEEEET_SD_c, symObjAddr: 0x14614, symBinAddr: 0x3BF20, symSize: 0x23C }
  - { offset: 0x1B6903, size: 0x8, addend: 0x0, symName: __ZNKSt3__112regex_traitsIcE19__transform_primaryINS_11__wrap_iterIPcEEEENS_12basic_stringIcNS_11char_traitsIcEENS_9allocatorIcEEEET_SC_c, symObjAddr: 0x14850, symBinAddr: 0x3C15C, symSize: 0x1A0 }
  - { offset: 0x1B7058, size: 0x8, addend: 0x0, symName: __ZNSt3__16vectorINS_12basic_stringIcNS_11char_traitsIcEENS_9allocatorIcEEEENS4_IS6_EEE24__emplace_back_slow_pathIJRKS6_EEEPS6_DpOT_, symObjAddr: 0x149F0, symBinAddr: 0x3C2FC, symSize: 0x154 }
  - { offset: 0x1B74CA, size: 0x8, addend: 0x0, symName: __ZNKSt3__112regex_traitsIcE18__lookup_classnameINS_11__wrap_iterIPKcEEEEjT_S7_bc, symObjAddr: 0x14C08, symBinAddr: 0x3C514, symSize: 0x154 }
  - { offset: 0x1B7B97, size: 0x8, addend: 0x0, symName: __ZNSt3__120__bracket_expressionIcNS_12regex_traitsIcEEE14__add_neg_charB8ne200100Ec, symObjAddr: 0x14D5C, symBinAddr: 0x3C668, symSize: 0x18C }
  - { offset: 0x1B7EC9, size: 0x8, addend: 0x0, symName: __ZNSt3__16vectorINS_4pairINS_12basic_stringIcNS_11char_traitsIcEENS_9allocatorIcEEEES7_EENS5_IS8_EEE9push_backB8ne200100EOS8_, symObjAddr: 0x14EE8, symBinAddr: 0x3C7F4, symSize: 0x174 }
  - { offset: 0x1B7F8C, size: 0x8, addend: 0x0, symName: __ZNKSt3__112regex_traitsIcE9transformINS_11__wrap_iterIPcEEEENS_12basic_stringIcNS_11char_traitsIcEENS_9allocatorIcEEEET_SC_, symObjAddr: 0x1505C, symBinAddr: 0x3C968, symSize: 0x134 }
  - { offset: 0x1B8582, size: 0x8, addend: 0x0, symName: __ZNSt3__16vectorINS_4pairINS_12basic_stringIcNS_11char_traitsIcEENS_9allocatorIcEEEES7_EENS5_IS8_EEE9push_backB8ne200100EOS8_, symObjAddr: 0x14EE8, symBinAddr: 0x3C7F4, symSize: 0x174 }
  - { offset: 0x1B8B0D, size: 0x8, addend: 0x0, symName: __ZNKSt3__112regex_traitsIcE9transformINS_11__wrap_iterIPcEEEENS_12basic_stringIcNS_11char_traitsIcEENS_9allocatorIcEEEET_SC_, symObjAddr: 0x1505C, symBinAddr: 0x3C968, symSize: 0x134 }
  - { offset: 0x1B8E17, size: 0x8, addend: 0x0, symName: __ZNSt3__16vectorINS_4pairIccEENS_9allocatorIS2_EEE20__throw_length_errorB8ne200100Ev, symObjAddr: 0x151F0, symBinAddr: 0x3CAFC, symSize: 0x14 }
  - { offset: 0x1B8E2F, size: 0x8, addend: 0x0, symName: __ZNSt3__128__begin_marked_subexpressionIcED1Ev, symObjAddr: 0x15204, symBinAddr: 0x3CB10, symSize: 0x48 }
  - { offset: 0x1B92AE, size: 0x8, addend: 0x0, symName: __ZNSt3__16vectorINS_12basic_stringIcNS_11char_traitsIcEENS_9allocatorIcEEEENS4_IS6_EEE20__throw_length_errorB8ne200100Ev, symObjAddr: 0x14BA8, symBinAddr: 0x3C4B4, symSize: 0x14 }
  - { offset: 0x1B92C6, size: 0x8, addend: 0x0, symName: __ZNSt3__119__throw_regex_errorB8ne200100ILNS_15regex_constants10error_typeE2EEEvv, symObjAddr: 0x14BBC, symBinAddr: 0x3C4C8, symSize: 0x4C }
  - { offset: 0x1B92D1, size: 0x8, addend: 0x0, symName: __ZNSt3__114__split_bufferINS_12basic_stringIcNS_11char_traitsIcEENS_9allocatorIcEEEERNS4_IS6_EEED1Ev, symObjAddr: 0x14B44, symBinAddr: 0x3C450, symSize: 0x64 }
  - { offset: 0x1B986C, size: 0x8, addend: 0x0, symName: __ZNSt3__16vectorINS_4pairINS_12basic_stringIcNS_11char_traitsIcEENS_9allocatorIcEEEES7_EENS5_IS8_EEE20__throw_length_errorB8ne200100Ev, symObjAddr: 0x151DC, symBinAddr: 0x3CAE8, symSize: 0x14 }
  - { offset: 0x1B9884, size: 0x8, addend: 0x0, symName: __ZNSt3__16vectorINS_4pairIccEENS_9allocatorIS2_EEE20__throw_length_errorB8ne200100Ev, symObjAddr: 0x151F0, symBinAddr: 0x3CAFC, symSize: 0x14 }
  - { offset: 0x1B98AC, size: 0x8, addend: 0x0, symName: __ZNSt3__128__begin_marked_subexpressionIcED1Ev, symObjAddr: 0x15204, symBinAddr: 0x3CB10, symSize: 0x48 }
  - { offset: 0x1B98D0, size: 0x8, addend: 0x0, symName: __ZNSt3__128__begin_marked_subexpressionIcED1Ev, symObjAddr: 0x15204, symBinAddr: 0x3CB10, symSize: 0x48 }
  - { offset: 0x1B98EE, size: 0x8, addend: 0x0, symName: __ZNSt3__128__begin_marked_subexpressionIcED1Ev, symObjAddr: 0x15204, symBinAddr: 0x3CB10, symSize: 0x48 }
  - { offset: 0x1B9935, size: 0x8, addend: 0x0, symName: __ZNSt3__128__begin_marked_subexpressionIcED0Ev, symObjAddr: 0x1524C, symBinAddr: 0x3CB58, symSize: 0x48 }
  - { offset: 0x1B9965, size: 0x8, addend: 0x0, symName: __ZNSt3__128__begin_marked_subexpressionIcED0Ev, symObjAddr: 0x1524C, symBinAddr: 0x3CB58, symSize: 0x48 }
  - { offset: 0x1B9983, size: 0x8, addend: 0x0, symName: __ZNSt3__128__begin_marked_subexpressionIcED0Ev, symObjAddr: 0x1524C, symBinAddr: 0x3CB58, symSize: 0x48 }
  - { offset: 0x1B99A1, size: 0x8, addend: 0x0, symName: __ZNSt3__128__begin_marked_subexpressionIcED0Ev, symObjAddr: 0x1524C, symBinAddr: 0x3CB58, symSize: 0x48 }
  - { offset: 0x1B99CC, size: 0x8, addend: 0x0, symName: __ZNKSt3__128__begin_marked_subexpressionIcE6__execERNS_7__stateIcEE, symObjAddr: 0x15294, symBinAddr: 0x3CBA0, symSize: 0x30 }
  - { offset: 0x1B9A58, size: 0x8, addend: 0x0, symName: __ZNSt3__126__end_marked_subexpressionIcED1Ev, symObjAddr: 0x152C4, symBinAddr: 0x3CBD0, symSize: 0x48 }
  - { offset: 0x1B9A7C, size: 0x8, addend: 0x0, symName: __ZNSt3__126__end_marked_subexpressionIcED1Ev, symObjAddr: 0x152C4, symBinAddr: 0x3CBD0, symSize: 0x48 }
  - { offset: 0x1B9A9A, size: 0x8, addend: 0x0, symName: __ZNSt3__126__end_marked_subexpressionIcED1Ev, symObjAddr: 0x152C4, symBinAddr: 0x3CBD0, symSize: 0x48 }
  - { offset: 0x1B9AE1, size: 0x8, addend: 0x0, symName: __ZNSt3__126__end_marked_subexpressionIcED0Ev, symObjAddr: 0x1530C, symBinAddr: 0x3CC18, symSize: 0x48 }
  - { offset: 0x1B9B11, size: 0x8, addend: 0x0, symName: __ZNSt3__126__end_marked_subexpressionIcED0Ev, symObjAddr: 0x1530C, symBinAddr: 0x3CC18, symSize: 0x48 }
  - { offset: 0x1B9B2F, size: 0x8, addend: 0x0, symName: __ZNSt3__126__end_marked_subexpressionIcED0Ev, symObjAddr: 0x1530C, symBinAddr: 0x3CC18, symSize: 0x48 }
  - { offset: 0x1B9B4D, size: 0x8, addend: 0x0, symName: __ZNSt3__126__end_marked_subexpressionIcED0Ev, symObjAddr: 0x1530C, symBinAddr: 0x3CC18, symSize: 0x48 }
  - { offset: 0x1B9B78, size: 0x8, addend: 0x0, symName: __ZNKSt3__126__end_marked_subexpressionIcE6__execERNS_7__stateIcEE, symObjAddr: 0x15354, symBinAddr: 0x3CC60, symSize: 0x38 }
  - { offset: 0x1B9E35, size: 0x8, addend: 0x0, symName: __ZNSt3__16__loopIcED0Ev, symObjAddr: 0x155C8, symBinAddr: 0x3CED4, symSize: 0x68 }
  - { offset: 0x1B9F26, size: 0x8, addend: 0x0, symName: __ZNSt3__16__loopIcED1Ev, symObjAddr: 0x15560, symBinAddr: 0x3CE6C, symSize: 0x68 }
  - { offset: 0x1BA048, size: 0x8, addend: 0x0, symName: __ZNKSt3__16__loopIcE6__execERNS_7__stateIcEE, symObjAddr: 0x15630, symBinAddr: 0x3CF3C, symSize: 0x1D8 }
  - { offset: 0x1BA17B, size: 0x8, addend: 0x0, symName: __ZNKSt3__16__loopIcE12__exec_splitEbRNS_7__stateIcEE, symObjAddr: 0x15808, symBinAddr: 0x3D114, symSize: 0xC8 }
  - { offset: 0x1BA24C, size: 0x8, addend: 0x0, symName: __ZNSt3__117__owns_two_statesIcED1Ev, symObjAddr: 0x158D0, symBinAddr: 0x3D1DC, symSize: 0x68 }
  - { offset: 0x1BA2DA, size: 0x8, addend: 0x0, symName: __ZNSt3__117__owns_two_statesIcED0Ev, symObjAddr: 0x15938, symBinAddr: 0x3D244, symSize: 0x68 }
  - { offset: 0x1BA374, size: 0x8, addend: 0x0, symName: __ZNSt3__117__repeat_one_loopIcED1Ev, symObjAddr: 0x159A0, symBinAddr: 0x3D2AC, symSize: 0x4 }
  - { offset: 0x1BA3A0, size: 0x8, addend: 0x0, symName: __ZNSt3__117__repeat_one_loopIcED0Ev, symObjAddr: 0x159A4, symBinAddr: 0x3D2B0, symSize: 0x4 }
  - { offset: 0x1BA3CC, size: 0x8, addend: 0x0, symName: __ZNKSt3__117__repeat_one_loopIcE6__execERNS_7__stateIcEE, symObjAddr: 0x159A8, symBinAddr: 0x3D2B4, symSize: 0x14 }
  - { offset: 0x1BA439, size: 0x8, addend: 0x0, symName: __ZNSt3__111__alternateIcED1Ev, symObjAddr: 0x159BC, symBinAddr: 0x3D2C8, symSize: 0x68 }
  - { offset: 0x1BA4E7, size: 0x8, addend: 0x0, symName: __ZNSt3__111__alternateIcED0Ev, symObjAddr: 0x15A24, symBinAddr: 0x3D330, symSize: 0x68 }
  - { offset: 0x1BA5A1, size: 0x8, addend: 0x0, symName: __ZNKSt3__111__alternateIcE6__execERNS_7__stateIcEE, symObjAddr: 0x15A8C, symBinAddr: 0x3D398, symSize: 0xC }
  - { offset: 0x1BA5D4, size: 0x8, addend: 0x0, symName: __ZNKSt3__111__alternateIcE12__exec_splitEbRNS_7__stateIcEE, symObjAddr: 0x15A98, symBinAddr: 0x3D3A4, symSize: 0x24 }
  - { offset: 0x1BA61A, size: 0x8, addend: 0x0, symName: __ZNSt3__121__empty_non_own_stateIcED1Ev, symObjAddr: 0x15ABC, symBinAddr: 0x3D3C8, symSize: 0x4 }
  - { offset: 0x1BA646, size: 0x8, addend: 0x0, symName: __ZNSt3__121__empty_non_own_stateIcED0Ev, symObjAddr: 0x15AC0, symBinAddr: 0x3D3CC, symSize: 0x4 }
  - { offset: 0x1BA672, size: 0x8, addend: 0x0, symName: __ZNKSt3__121__empty_non_own_stateIcE6__execERNS_7__stateIcEE, symObjAddr: 0x15AC4, symBinAddr: 0x3D3D0, symSize: 0x14 }
  - { offset: 0x1BA7C1, size: 0x8, addend: 0x0, symName: __ZNSt3__111basic_regexIcNS_12regex_traitsIcEEE32__parse_one_char_or_coll_elem_REINS_11__wrap_iterIPKcEEEET_S9_S9_, symObjAddr: 0x15FA4, symBinAddr: 0x3D8B0, symSize: 0x18C }
  - { offset: 0x1BAB50, size: 0x8, addend: 0x0, symName: __ZNSt3__111__match_anyIcED1Ev, symObjAddr: 0x16130, symBinAddr: 0x3DA3C, symSize: 0x48 }
  - { offset: 0x1BAB74, size: 0x8, addend: 0x0, symName: __ZNSt3__111__match_anyIcED1Ev, symObjAddr: 0x16130, symBinAddr: 0x3DA3C, symSize: 0x48 }
  - { offset: 0x1BAB92, size: 0x8, addend: 0x0, symName: __ZNSt3__111__match_anyIcED1Ev, symObjAddr: 0x16130, symBinAddr: 0x3DA3C, symSize: 0x48 }
  - { offset: 0x1BABD9, size: 0x8, addend: 0x0, symName: __ZNSt3__111__match_anyIcED0Ev, symObjAddr: 0x16178, symBinAddr: 0x3DA84, symSize: 0x48 }
  - { offset: 0x1BAC09, size: 0x8, addend: 0x0, symName: __ZNSt3__111__match_anyIcED0Ev, symObjAddr: 0x16178, symBinAddr: 0x3DA84, symSize: 0x48 }
  - { offset: 0x1BAC27, size: 0x8, addend: 0x0, symName: __ZNSt3__111__match_anyIcED0Ev, symObjAddr: 0x16178, symBinAddr: 0x3DA84, symSize: 0x48 }
  - { offset: 0x1BAC45, size: 0x8, addend: 0x0, symName: __ZNSt3__111__match_anyIcED0Ev, symObjAddr: 0x16178, symBinAddr: 0x3DA84, symSize: 0x48 }
  - { offset: 0x1BAC70, size: 0x8, addend: 0x0, symName: __ZNKSt3__111__match_anyIcE6__execERNS_7__stateIcEE, symObjAddr: 0x161C0, symBinAddr: 0x3DACC, symSize: 0x40 }
  - { offset: 0x1BACC0, size: 0x8, addend: 0x0, symName: __ZNSt3__111basic_regexIcNS_12regex_traitsIcEEE15__test_back_refEc, symObjAddr: 0x16200, symBinAddr: 0x3DB0C, symSize: 0x60 }
  - { offset: 0x1BADB9, size: 0x8, addend: 0x0, symName: __ZNSt3__111basic_regexIcNS_12regex_traitsIcEEE22__parse_ERE_expressionINS_11__wrap_iterIPKcEEEET_S9_S9_, symObjAddr: 0x16260, symBinAddr: 0x3DB6C, symSize: 0x1F0 }
  - { offset: 0x1BADC4, size: 0x8, addend: 0x0, symName: __ZNSt3__111basic_regexIcNS_12regex_traitsIcEEE33__parse_one_char_or_coll_elem_EREINS_11__wrap_iterIPKcEEEET_S9_S9_, symObjAddr: 0x16450, symBinAddr: 0x3DD5C, symSize: 0x158 }
  - { offset: 0x1BAFE0, size: 0x8, addend: 0x0, symName: __ZNSt3__111basic_regexIcNS_12regex_traitsIcEEE23__parse_QUOTED_CHAR_EREINS_11__wrap_iterIPKcEEEET_S9_S9_, symObjAddr: 0x165A8, symBinAddr: 0x3DEB4, symSize: 0xC8 }
  - { offset: 0x1BB170, size: 0x8, addend: 0x0, symName: __ZNSt3__128__exception_guard_exceptionsINS_29_AllocatorDestroyRangeReverseINS_9allocatorINS_6vectorI21llama_grammar_elementNS2_IS4_EEEEEEPS6_EEED1B8ne200100Ev, symObjAddr: 0x167F0, symBinAddr: 0x3E074, symSize: 0x6C }
  - { offset: 0x1E9037, size: 0x8, addend: 0x0, symName: __ZNSt3__125__throw_bad_function_callB8ne200100Ev, symObjAddr: 0xAE68, symBinAddr: 0x48E74, symSize: 0x34 }
  - { offset: 0x1E942F, size: 0x8, addend: 0x0, symName: __ZNSt3__111make_uniqueB8ne200100I24llm_graph_input_samplingJRKNS_3mapIiP13llama_samplerNS_4lessIiEENS_9allocatorINS_4pairIKiS4_EEEEEEELi0EEENS_10unique_ptrIT_NS_14default_deleteISG_EEEEDpOT0_, symObjAddr: 0x9B1C, symBinAddr: 0x48088, symSize: 0xF4 }
  - { offset: 0x1F3366, size: 0x8, addend: 0x0, symName: __ZN20llm_graph_input_embd9set_inputEPK12llama_ubatch, symObjAddr: 0x0, symBinAddr: 0x3E640, symSize: 0xD8 }
  - { offset: 0x1F3430, size: 0x8, addend: 0x0, symName: __ZN20llm_graph_input_embd9can_reuseERK16llm_graph_params, symObjAddr: 0xD8, symBinAddr: 0x3E718, symSize: 0x68 }
  - { offset: 0x1F3495, size: 0x8, addend: 0x0, symName: __ZN20llm_graph_input_embd9can_reuseERK16llm_graph_params, symObjAddr: 0xD8, symBinAddr: 0x3E718, symSize: 0x68 }
  - { offset: 0x1F3726, size: 0x8, addend: 0x0, symName: __ZN19llm_graph_input_pos9set_inputEPK12llama_ubatch, symObjAddr: 0x140, symBinAddr: 0x3E780, symSize: 0x1FC }
  - { offset: 0x1F3ADD, size: 0x8, addend: 0x0, symName: __ZN19llm_graph_input_pos9can_reuseERK16llm_graph_params, symObjAddr: 0x33C, symBinAddr: 0x3E97C, symSize: 0x24 }
  - { offset: 0x1F3D98, size: 0x8, addend: 0x0, symName: __ZN25llm_graph_input_attn_temp9set_inputEPK12llama_ubatch, symObjAddr: 0x360, symBinAddr: 0x3E9A0, symSize: 0x274 }
  - { offset: 0x1F41F8, size: 0x8, addend: 0x0, symName: __ZN26llm_graph_input_pos_bucket9set_inputEPK12llama_ubatch, symObjAddr: 0x5D4, symBinAddr: 0x3EC14, symSize: 0x3E0 }
  - { offset: 0x1F4332, size: 0x8, addend: 0x0, symName: __Z30llama_relative_position_bucketiiyb, symObjAddr: 0x9B4, symBinAddr: 0x3EFF4, symSize: 0xAC }
  - { offset: 0x1F4361, size: 0x8, addend: 0x0, symName: __Z30llama_relative_position_bucketiiyb, symObjAddr: 0x9B4, symBinAddr: 0x3EFF4, symSize: 0xAC }
  - { offset: 0x1F43C6, size: 0x8, addend: 0x0, symName: __ZN29llm_graph_input_pos_bucket_kv9set_inputEPK12llama_ubatch, symObjAddr: 0xA60, symBinAddr: 0x3F0A0, symSize: 0x18 }
  - { offset: 0x1F43FE, size: 0x8, addend: 0x0, symName: __ZN23llm_graph_input_out_ids9set_inputEPK12llama_ubatch, symObjAddr: 0xA78, symBinAddr: 0x3F0B8, symSize: 0x164 }
  - { offset: 0x1F44CE, size: 0x8, addend: 0x0, symName: __ZN23llm_graph_input_out_ids9can_reuseERK16llm_graph_params, symObjAddr: 0xBDC, symBinAddr: 0x3F21C, symSize: 0x1C }
  - { offset: 0x1F44E1, size: 0x8, addend: 0x0, symName: __ZN23llm_graph_input_out_ids9can_reuseERK16llm_graph_params, symObjAddr: 0xBDC, symBinAddr: 0x3F21C, symSize: 0x1C }
  - { offset: 0x1F479C, size: 0x8, addend: 0x0, symName: __ZN20llm_graph_input_mean9set_inputEPK12llama_ubatch, symObjAddr: 0xBF8, symBinAddr: 0x3F238, symSize: 0x3DC }
  - { offset: 0x1F4FD0, size: 0x8, addend: 0x0, symName: __ZN19llm_graph_input_cls9set_inputEPK12llama_ubatch, symObjAddr: 0xFD4, symBinAddr: 0x3F614, symSize: 0x370 }
  - { offset: 0x1F55FC, size: 0x8, addend: 0x0, symName: __ZN18llm_graph_input_rs9set_inputEPK12llama_ubatch, symObjAddr: 0x1344, symBinAddr: 0x3F984, symSize: 0xA0 }
  - { offset: 0x1F567C, size: 0x8, addend: 0x0, symName: __ZN18llm_graph_input_rs9can_reuseERK16llm_graph_params, symObjAddr: 0x13E4, symBinAddr: 0x3FA24, symSize: 0xB4 }
  - { offset: 0x1F568F, size: 0x8, addend: 0x0, symName: __ZN18llm_graph_input_rs9can_reuseERK16llm_graph_params, symObjAddr: 0x13E4, symBinAddr: 0x3FA24, symSize: 0xB4 }
  - { offset: 0x1F5705, size: 0x8, addend: 0x0, symName: __ZN26llm_graph_input_cross_embd9set_inputEPK12llama_ubatch, symObjAddr: 0x1498, symBinAddr: 0x3FAD8, symSize: 0x54 }
  - { offset: 0x1F5795, size: 0x8, addend: 0x0, symName: __ZN29llm_graph_input_attn_no_cache9set_inputEPK12llama_ubatch, symObjAddr: 0x14EC, symBinAddr: 0x3FB2C, symSize: 0x350 }
  - { offset: 0x1F5B6A, size: 0x8, addend: 0x0, symName: __ZL10print_maskPKfxxx14llama_swa_type, symObjAddr: 0x183C, symBinAddr: 0x3FE7C, symSize: 0x20C }
  - { offset: 0x1F5CB6, size: 0x8, addend: 0x0, symName: __ZL10print_maskPKfxxx14llama_swa_type, symObjAddr: 0x183C, symBinAddr: 0x3FE7C, symSize: 0x20C }
  - { offset: 0x1F5EBD, size: 0x8, addend: 0x0, symName: __ZN23llm_graph_input_attn_kv9set_inputEPK12llama_ubatch, symObjAddr: 0x1A48, symBinAddr: 0x40088, symSize: 0x54 }
  - { offset: 0x1F5EF7, size: 0x8, addend: 0x0, symName: __ZN23llm_graph_input_attn_kv9can_reuseERK16llm_graph_params, symObjAddr: 0x1A9C, symBinAddr: 0x400DC, symSize: 0x74 }
  - { offset: 0x1F5F51, size: 0x8, addend: 0x0, symName: __ZN22llm_graph_input_attn_k9set_inputEPK12llama_ubatch, symObjAddr: 0x1B10, symBinAddr: 0x40150, symSize: 0x44 }
  - { offset: 0x1F5F8B, size: 0x8, addend: 0x0, symName: __ZN22llm_graph_input_attn_k9can_reuseERK16llm_graph_params, symObjAddr: 0x1B54, symBinAddr: 0x40194, symSize: 0x70 }
  - { offset: 0x1F5FE5, size: 0x8, addend: 0x0, symName: __ZN28llm_graph_input_attn_kv_iswa9set_inputEPK12llama_ubatch, symObjAddr: 0x1BC4, symBinAddr: 0x40204, symSize: 0xA8 }
  - { offset: 0x1F601F, size: 0x8, addend: 0x0, symName: __ZN28llm_graph_input_attn_kv_iswa9can_reuseERK16llm_graph_params, symObjAddr: 0x1C6C, symBinAddr: 0x402AC, symSize: 0xE0 }
  - { offset: 0x1F614F, size: 0x8, addend: 0x0, symName: __ZN26llm_graph_input_attn_cross9set_inputEPK12llama_ubatch, symObjAddr: 0x1D4C, symBinAddr: 0x4038C, symSize: 0x1E4 }
  - { offset: 0x1F636C, size: 0x8, addend: 0x0, symName: __ZN26llm_graph_input_mem_hybrid9set_inputEPK12llama_ubatch, symObjAddr: 0x1F30, symBinAddr: 0x40570, symSize: 0x100 }
  - { offset: 0x1F63B7, size: 0x8, addend: 0x0, symName: __ZN26llm_graph_input_mem_hybrid9set_inputEPK12llama_ubatch, symObjAddr: 0x1F30, symBinAddr: 0x40570, symSize: 0x100 }
  - { offset: 0x1F64B9, size: 0x8, addend: 0x0, symName: __ZN26llm_graph_input_mem_hybrid9can_reuseERK16llm_graph_params, symObjAddr: 0x2030, symBinAddr: 0x40670, symSize: 0x13C }
  - { offset: 0x1F64CC, size: 0x8, addend: 0x0, symName: __ZN26llm_graph_input_mem_hybrid9can_reuseERK16llm_graph_params, symObjAddr: 0x2030, symBinAddr: 0x40670, symSize: 0x13C }
  - { offset: 0x1F65DD, size: 0x8, addend: 0x0, symName: __ZN31llm_graph_input_mem_hybrid_iswa9set_inputEPK12llama_ubatch, symObjAddr: 0x216C, symBinAddr: 0x407AC, symSize: 0x180 }
  - { offset: 0x1F6780, size: 0x8, addend: 0x0, symName: __ZN31llm_graph_input_mem_hybrid_iswa9can_reuseERK16llm_graph_params, symObjAddr: 0x22EC, symBinAddr: 0x4092C, symSize: 0x190 }
  - { offset: 0x1F6793, size: 0x8, addend: 0x0, symName: __ZN31llm_graph_input_mem_hybrid_iswa9can_reuseERK16llm_graph_params, symObjAddr: 0x22EC, symBinAddr: 0x4092C, symSize: 0x190 }
  - { offset: 0x1F71FD, size: 0x8, addend: 0x0, symName: __ZN24llm_graph_input_sampling9set_inputEPK12llama_ubatch, symObjAddr: 0x247C, symBinAddr: 0x40ABC, symSize: 0x200 }
  - { offset: 0x1F7AA4, size: 0x8, addend: 0x0, symName: __ZNSt3__112__hash_tableIiNS_4hashIiEENS_8equal_toIiEENS_9allocatorIiEEE25__emplace_unique_key_argsIiJRKiEEENS_4pairINS_15__hash_iteratorIPNS_11__hash_nodeIiPvEEEEbEERKT_DpOT0_, symObjAddr: 0xA6B0, symBinAddr: 0x48978, symSize: 0x324 }
  - { offset: 0x1F8114, size: 0x8, addend: 0x0, symName: __ZNSt3__113unordered_setIiNS_4hashIiEENS_8equal_toIiEENS_9allocatorIiEEED1B8ne200100Ev, symObjAddr: 0x267C, symBinAddr: 0x40CBC, symSize: 0x48 }
  - { offset: 0x1F8469, size: 0x8, addend: 0x0, symName: __ZN24llm_graph_input_sampling9can_reuseERK16llm_graph_params, symObjAddr: 0x26C4, symBinAddr: 0x40D04, symSize: 0x150 }
  - { offset: 0x1F84A5, size: 0x8, addend: 0x0, symName: __ZN24llm_graph_input_sampling9can_reuseERK16llm_graph_params, symObjAddr: 0x26C4, symBinAddr: 0x40D04, symSize: 0x150 }
  - { offset: 0x1F8D89, size: 0x8, addend: 0x0, symName: __ZN16llm_graph_resultC2Ex, symObjAddr: 0x2814, symBinAddr: 0x40E54, symSize: 0x268 }
  - { offset: 0x1F9569, size: 0x8, addend: 0x0, symName: __ZN16llm_graph_result5resetEv, symObjAddr: 0x2A7C, symBinAddr: 0x410BC, symSize: 0x5B4 }
  - { offset: 0x1FA402, size: 0x8, addend: 0x0, symName: __ZNSt3__16vectorINS_10unique_ptrI17llm_graph_input_iNS_14default_deleteIS2_EEEENS_9allocatorIS5_EEED1B8ne200100Ev, symObjAddr: 0x3104, symBinAddr: 0x41670, symSize: 0x74 }
  - { offset: 0x1FA622, size: 0x8, addend: 0x0, symName: __ZNSt3__16__treeINS_12__value_typeIiP11ggml_tensorEENS_19__map_value_compareIiS4_NS_4lessIiEELb1EEENS_9allocatorIS4_EEE7destroyEPNS_11__tree_nodeIS4_PvEE, symObjAddr: 0xAB54, symBinAddr: 0x48E1C, symSize: 0x44 }
  - { offset: 0x1FB205, size: 0x8, addend: 0x0, symName: __ZNSt3__16vectorINS_10unique_ptrI17llm_graph_input_iNS_14default_deleteIS2_EEEENS_9allocatorIS5_EEE20__throw_length_errorB8ne200100Ev, symObjAddr: 0xABAC, symBinAddr: 0x48E60, symSize: 0x14 }
  - { offset: 0x1FB2BE, size: 0x8, addend: 0x0, symName: __ZN16llm_graph_resultC1Ex, symObjAddr: 0x3178, symBinAddr: 0x416E4, symSize: 0x4 }
  - { offset: 0x1FB2FB, size: 0x8, addend: 0x0, symName: __ZN16llm_graph_resultC1Ex, symObjAddr: 0x3178, symBinAddr: 0x416E4, symSize: 0x4 }
  - { offset: 0x1FB315, size: 0x8, addend: 0x0, symName: __ZNK16llm_graph_result13get_max_nodesEv, symObjAddr: 0x317C, symBinAddr: 0x416E8, symSize: 0x8 }
  - { offset: 0x1FB36B, size: 0x8, addend: 0x0, symName: __ZN16llm_graph_result10set_inputsEPK12llama_ubatch, symObjAddr: 0x3184, symBinAddr: 0x416F0, symSize: 0x4C }
  - { offset: 0x1FB4F3, size: 0x8, addend: 0x0, symName: __ZN16llm_graph_result11set_outputsEv, symObjAddr: 0x31D0, symBinAddr: 0x4173C, symSize: 0x1A8 }
  - { offset: 0x1FBB8C, size: 0x8, addend: 0x0, symName: __ZN16llm_graph_result9can_reuseERK16llm_graph_params, symObjAddr: 0x3378, symBinAddr: 0x418E4, symSize: 0x150 }
  - { offset: 0x1FBD24, size: 0x8, addend: 0x0, symName: __ZNK16llm_graph_params11allow_reuseERKS_, symObjAddr: 0x34C8, symBinAddr: 0x41A34, symSize: 0x3A8 }
  - { offset: 0x1FC64E, size: 0x8, addend: 0x0, symName: __ZN16llm_graph_result9add_inputENSt3__110unique_ptrI17llm_graph_input_iNS0_14default_deleteIS2_EEEE, symObjAddr: 0x3870, symBinAddr: 0x41DDC, symSize: 0xF8 }
  - { offset: 0x1FCB54, size: 0x8, addend: 0x0, symName: __ZN16llm_graph_result10set_paramsERK16llm_graph_params, symObjAddr: 0x3968, symBinAddr: 0x41ED4, symSize: 0x8 }
  - { offset: 0x1FCB5F, size: 0x8, addend: 0x0, symName: __ZNSt3__16vectorINS_10unique_ptrI17llm_graph_input_iNS_14default_deleteIS2_EEEENS_9allocatorIS5_EEE20__throw_length_errorB8ne200100Ev, symObjAddr: 0xABAC, symBinAddr: 0x48E60, symSize: 0x14 }
  - { offset: 0x1FCB82, size: 0x8, addend: 0x0, symName: __ZN16llm_graph_result10set_paramsERK16llm_graph_params, symObjAddr: 0x3968, symBinAddr: 0x41ED4, symSize: 0x8 }
  - { offset: 0x1FCBC1, size: 0x8, addend: 0x0, symName: __ZN16llm_graph_paramsaSERKS_, symObjAddr: 0x3970, symBinAddr: 0x41EDC, symSize: 0x1C8 }
  - { offset: 0x1FD1E7, size: 0x8, addend: 0x0, symName: __ZNSt3__16__treeINS_12__value_typeIiP13llama_samplerEENS_19__map_value_compareIiS4_NS_4lessIiEELb1EEENS_9allocatorIS4_EEE14__assign_multiINS_21__tree_const_iteratorIS4_PNS_11__tree_nodeIS4_PvEElEEEEvT_SJ_, symObjAddr: 0x9F54, symBinAddr: 0x4846C, symSize: 0x328 }
  - { offset: 0x1FD866, size: 0x8, addend: 0x0, symName: __ZNSt3__110__function12__value_funcIFvRK12llama_ubatchP11ggml_tensorPKciEE4swapB8ne200100ERSA_, symObjAddr: 0xA450, symBinAddr: 0x48794, symSize: 0x1A0 }
  - { offset: 0x1FE3FA, size: 0x8, addend: 0x0, symName: __ZN17llm_graph_contextC2ERK16llm_graph_params, symObjAddr: 0x3B38, symBinAddr: 0x420A4, symSize: 0x1DC }
  - { offset: 0x1FE886, size: 0x8, addend: 0x0, symName: __ZN17llm_graph_contextC1ERK16llm_graph_params, symObjAddr: 0x3D14, symBinAddr: 0x42280, symSize: 0x4 }
  - { offset: 0x1FE8C3, size: 0x8, addend: 0x0, symName: __ZN17llm_graph_contextC1ERK16llm_graph_params, symObjAddr: 0x3D14, symBinAddr: 0x42280, symSize: 0x4 }
  - { offset: 0x1FE9A3, size: 0x8, addend: 0x0, symName: __ZNK17llm_graph_context2cbEP11ggml_tensorPKci, symObjAddr: 0x3D18, symBinAddr: 0x42284, symSize: 0x54 }
  - { offset: 0x1FEAAA, size: 0x8, addend: 0x0, symName: __ZNK17llm_graph_context10build_cvecEP11ggml_tensori, symObjAddr: 0x3D6C, symBinAddr: 0x422D8, symSize: 0x18 }
  - { offset: 0x1FEB3C, size: 0x8, addend: 0x0, symName: __ZNK17llm_graph_context13build_lora_mmEP11ggml_tensorS1_, symObjAddr: 0x3D84, symBinAddr: 0x422F0, symSize: 0xEC }
  - { offset: 0x1FED23, size: 0x8, addend: 0x0, symName: __ZNK17llm_graph_context16build_lora_mm_idEP11ggml_tensorS1_S1_, symObjAddr: 0x3E70, symBinAddr: 0x423DC, symSize: 0x100 }
  - { offset: 0x1FEF13, size: 0x8, addend: 0x0, symName: __ZNK17llm_graph_context10build_normEP11ggml_tensorS1_S1_13llm_norm_typei, symObjAddr: 0x3F70, symBinAddr: 0x424DC, symSize: 0x180 }
  - { offset: 0x1FF2C2, size: 0x8, addend: 0x0, symName: __ZNK17llm_graph_context9build_ffnEP11ggml_tensorS1_S1_S1_S1_S1_S1_S1_S1_S1_S1_15llm_ffn_op_type17llm_ffn_gate_typei, symObjAddr: 0x40F0, symBinAddr: 0x4265C, symSize: 0x6BC }
  - { offset: 0x2003EE, size: 0x8, addend: 0x0, symName: __ZNK17llm_graph_context13build_moe_ffnEP11ggml_tensorS1_S1_S1_S1_S1_xx15llm_ffn_op_typebbf29llama_expert_gating_func_typeiS1_, symObjAddr: 0x47AC, symBinAddr: 0x42D18, symSize: 0x6C }
  - { offset: 0x200530, size: 0x8, addend: 0x0, symName: __ZNK17llm_graph_context13build_moe_ffnEP11ggml_tensorS1_S1_S1_S1_S1_xx15llm_ffn_op_typebbf29llama_expert_gating_func_typeiS1_, symObjAddr: 0x47AC, symBinAddr: 0x42D18, symSize: 0x6C }
  - { offset: 0x20068E, size: 0x8, addend: 0x0, symName: __ZNK17llm_graph_context13build_moe_ffnEP11ggml_tensorS1_S1_S1_S1_S1_S1_S1_S1_S1_xx15llm_ffn_op_typebbf29llama_expert_gating_func_typeiS1_, symObjAddr: 0x4818, symBinAddr: 0x42D84, symSize: 0xE2C }
  - { offset: 0x202A4A, size: 0x8, addend: 0x0, symName: __ZNK17llm_graph_context14build_inp_embdEP11ggml_tensor, symObjAddr: 0x5644, symBinAddr: 0x43BB0, symSize: 0x410 }
  - { offset: 0x202CF6, size: 0x8, addend: 0x0, symName: __ZNK17llm_graph_context14build_inp_embdEP11ggml_tensor, symObjAddr: 0x5644, symBinAddr: 0x43BB0, symSize: 0x410 }
  - { offset: 0x203879, size: 0x8, addend: 0x0, symName: __ZNK17llm_graph_context13build_inp_posEv, symObjAddr: 0x5A54, symBinAddr: 0x43FC0, symSize: 0x17C }
  - { offset: 0x203E61, size: 0x8, addend: 0x0, symName: __ZNK17llm_graph_context20build_inp_attn_scaleEv, symObjAddr: 0x5BD0, symBinAddr: 0x4413C, symSize: 0x180 }
  - { offset: 0x204495, size: 0x8, addend: 0x0, symName: __ZNK17llm_graph_context17build_inp_out_idsEv, symObjAddr: 0x5D50, symBinAddr: 0x442BC, symSize: 0x19C }
  - { offset: 0x204A5F, size: 0x8, addend: 0x0, symName: __ZNK17llm_graph_context14build_inp_meanEv, symObjAddr: 0x5EEC, symBinAddr: 0x44458, symSize: 0x188 }
  - { offset: 0x205019, size: 0x8, addend: 0x0, symName: __ZNK17llm_graph_context13build_inp_clsEv, symObjAddr: 0x6074, symBinAddr: 0x445E0, symSize: 0x18C }
  - { offset: 0x2055D2, size: 0x8, addend: 0x0, symName: __ZNK17llm_graph_context20build_inp_cross_embdEv, symObjAddr: 0x6200, symBinAddr: 0x4476C, symSize: 0x1A0 }
  - { offset: 0x205BD5, size: 0x8, addend: 0x0, symName: __ZNK17llm_graph_context24build_inp_pos_bucket_encEv, symObjAddr: 0x63A0, symBinAddr: 0x4490C, symSize: 0x170 }
  - { offset: 0x2061A0, size: 0x8, addend: 0x0, symName: __ZNK17llm_graph_context24build_inp_pos_bucket_decEv, symObjAddr: 0x6510, symBinAddr: 0x44A7C, symSize: 0x1A4 }
  - { offset: 0x206746, size: 0x8, addend: 0x0, symName: __ZNK17llm_graph_context14build_pos_biasEP11ggml_tensorS1_, symObjAddr: 0x66B4, symBinAddr: 0x44C20, symSize: 0x118 }
  - { offset: 0x206A50, size: 0x8, addend: 0x0, symName: __ZNK17llm_graph_context14build_attn_mhaEP11ggml_tensorS1_S1_S1_S1_S1_S1_fi, symObjAddr: 0x67CC, symBinAddr: 0x44D38, symSize: 0x6FC }
  - { offset: 0x207CC2, size: 0x8, addend: 0x0, symName: __ZNK17llm_graph_context23build_attn_inp_no_cacheEv, symObjAddr: 0x6EC8, symBinAddr: 0x45434, symSize: 0x254 }
  - { offset: 0x2082BF, size: 0x8, addend: 0x0, symName: __ZNK17llm_graph_context10build_attnEP29llm_graph_input_attn_no_cacheP11ggml_tensorS3_S3_S3_S3_S3_S3_S3_fi, symObjAddr: 0x711C, symBinAddr: 0x45688, symSize: 0x150 }
  - { offset: 0x20862A, size: 0x8, addend: 0x0, symName: __ZNK17llm_graph_context17build_attn_inp_kvEv, symObjAddr: 0x726C, symBinAddr: 0x457D8, symSize: 0x134 }
  - { offset: 0x208BC3, size: 0x8, addend: 0x0, symName: __ZL22build_attn_inp_kv_implP12ggml_contextRK12llama_ubatchRK13llama_hparamsRK13llama_cparamsPK22llama_kv_cache_context, symObjAddr: 0x73A0, symBinAddr: 0x4590C, symSize: 0x1C0 }
  - { offset: 0x208FF3, size: 0x8, addend: 0x0, symName: __ZNK17llm_graph_context10build_attnEP23llm_graph_input_attn_kvP11ggml_tensorS3_S3_S3_S3_S3_S3_S3_fi, symObjAddr: 0x7560, symBinAddr: 0x45ACC, symSize: 0x1EC }
  - { offset: 0x209360, size: 0x8, addend: 0x0, symName: __ZNK17llm_graph_context16build_attn_inp_kEv, symObjAddr: 0x774C, symBinAddr: 0x45CB8, symSize: 0x25C }
  - { offset: 0x209470, size: 0x8, addend: 0x0, symName: __ZNK17llm_graph_context16build_attn_inp_kEv, symObjAddr: 0x774C, symBinAddr: 0x45CB8, symSize: 0x25C }
  - { offset: 0x209AC8, size: 0x8, addend: 0x0, symName: __ZNK17llm_graph_context10build_attnEP22llm_graph_input_attn_kP11ggml_tensorS3_S3_S3_S3_S3_S3_S3_fi, symObjAddr: 0x79A8, symBinAddr: 0x45F14, symSize: 0x1B0 }
  - { offset: 0x209E2F, size: 0x8, addend: 0x0, symName: __ZNK17llm_graph_context10build_attnEP28llm_graph_input_attn_kv_iswaP11ggml_tensorS3_S3_S3_S3_S3_S3_S3_fi, symObjAddr: 0x7B58, symBinAddr: 0x460C4, symSize: 0x274 }
  - { offset: 0x20A1BD, size: 0x8, addend: 0x0, symName: __ZNK17llm_graph_context20build_attn_inp_crossEv, symObjAddr: 0x7DCC, symBinAddr: 0x46338, symSize: 0x1C8 }
  - { offset: 0x20A7AC, size: 0x8, addend: 0x0, symName: __ZNK17llm_graph_context10build_attnEP26llm_graph_input_attn_crossP11ggml_tensorS3_S3_S3_S3_S3_S3_S3_fi, symObjAddr: 0x7F94, symBinAddr: 0x46500, symSize: 0x134 }
  - { offset: 0x20AB08, size: 0x8, addend: 0x0, symName: __ZNK17llm_graph_context22build_attn_inp_kv_iswaEv, symObjAddr: 0x80C8, symBinAddr: 0x46634, symSize: 0x350 }
  - { offset: 0x20B228, size: 0x8, addend: 0x0, symName: __ZNK17llm_graph_context8build_rsEP11ggml_tensorS1_S1_iijjjiRKNSt3__18functionIFS1_P12ggml_contextS1_S1_EEE, symObjAddr: 0x8418, symBinAddr: 0x46984, symSize: 0x168 }
  - { offset: 0x20B490, size: 0x8, addend: 0x0, symName: __ZNK17llm_graph_context12build_rs_inpEv, symObjAddr: 0x8580, symBinAddr: 0x46AEC, symSize: 0x130 }
  - { offset: 0x20B591, size: 0x8, addend: 0x0, symName: __ZNK17llm_graph_context12build_rs_inpEv, symObjAddr: 0x8580, symBinAddr: 0x46AEC, symSize: 0x130 }
  - { offset: 0x20BB2A, size: 0x8, addend: 0x0, symName: __ZL17build_rs_inp_implP12ggml_contextRK12llama_ubatchPK30llama_memory_recurrent_context, symObjAddr: 0x86B0, symBinAddr: 0x46C1C, symSize: 0x108 }
  - { offset: 0x20BEBE, size: 0x8, addend: 0x0, symName: __ZNK17llm_graph_context8build_rsEP18llm_graph_input_rsP11ggml_tensoriiRKNSt3__18functionIFS3_P12ggml_contextS3_S3_EEE, symObjAddr: 0x87B8, symBinAddr: 0x46D24, symSize: 0xB4 }
  - { offset: 0x20C259, size: 0x8, addend: 0x0, symName: __ZNK17llm_graph_context27build_rwkv_token_shift_loadEP18llm_graph_input_rsRK12llama_ubatchi, symObjAddr: 0x886C, symBinAddr: 0x46DD8, symSize: 0x1C8 }
  - { offset: 0x20C5EB, size: 0x8, addend: 0x0, symName: __ZNK17llm_graph_context28build_rwkv_token_shift_storeEP11ggml_tensorRK12llama_ubatchi, symObjAddr: 0x8A34, symBinAddr: 0x46FA0, symSize: 0xE0 }
  - { offset: 0x20C816, size: 0x8, addend: 0x0, symName: __ZNK17llm_graph_context20build_inp_mem_hybridEv, symObjAddr: 0x8B14, symBinAddr: 0x47080, symSize: 0x21C }
  - { offset: 0x20D1E6, size: 0x8, addend: 0x0, symName: __ZNK17llm_graph_context25build_inp_mem_hybrid_iswaEv, symObjAddr: 0x8D30, symBinAddr: 0x4729C, symSize: 0x3AC }
  - { offset: 0x20DB6A, size: 0x8, addend: 0x0, symName: __ZNK17llm_graph_context15build_dense_outEP11ggml_tensorS1_, symObjAddr: 0x90DC, symBinAddr: 0x47648, symSize: 0x114 }
  - { offset: 0x20DCF3, size: 0x8, addend: 0x0, symName: __ZNK17llm_graph_context13build_poolingEP11ggml_tensorS1_S1_S1_, symObjAddr: 0x91F0, symBinAddr: 0x4775C, symSize: 0x210 }
  - { offset: 0x20DD06, size: 0x8, addend: 0x0, symName: __ZNK17llm_graph_context13build_poolingEP11ggml_tensorS1_S1_S1_, symObjAddr: 0x91F0, symBinAddr: 0x4775C, symSize: 0x210 }
  - { offset: 0x20E039, size: 0x8, addend: 0x0, symName: __ZNK17llm_graph_context14build_samplingEv, symObjAddr: 0x9400, symBinAddr: 0x4796C, symSize: 0x71C }
  - { offset: 0x20EBAB, size: 0x8, addend: 0x0, symName: __ZNK17llm_graph_context14build_samplingEv, symObjAddr: 0x9400, symBinAddr: 0x4796C, symSize: 0x71C }
  - { offset: 0x210741, size: 0x8, addend: 0x0, symName: __ZNSt3__16__treeINS_12__value_typeIiiEENS_19__map_value_compareIiS2_NS_4lessIiEELb1EEENS_9allocatorIS2_EEE7destroyEPNS_11__tree_nodeIS2_PvEE, symObjAddr: 0xA5F8, symBinAddr: 0x48934, symSize: 0x44 }
  - { offset: 0x2109A0, size: 0x8, addend: 0x0, symName: __ZN20llm_graph_input_embdD1Ev, symObjAddr: 0x9C10, symBinAddr: 0x4817C, symSize: 0x4 }
  - { offset: 0x2109C9, size: 0x8, addend: 0x0, symName: __ZN20llm_graph_input_embdD0Ev, symObjAddr: 0x9C14, symBinAddr: 0x48180, symSize: 0x4 }
  - { offset: 0x2109F2, size: 0x8, addend: 0x0, symName: __ZN19llm_graph_input_posD1Ev, symObjAddr: 0x9C18, symBinAddr: 0x48184, symSize: 0x4 }
  - { offset: 0x210A1B, size: 0x8, addend: 0x0, symName: __ZN19llm_graph_input_posD0Ev, symObjAddr: 0x9C1C, symBinAddr: 0x48188, symSize: 0x4 }
  - { offset: 0x210A44, size: 0x8, addend: 0x0, symName: __ZN25llm_graph_input_attn_tempD1Ev, symObjAddr: 0x9C20, symBinAddr: 0x4818C, symSize: 0x4 }
  - { offset: 0x210A6D, size: 0x8, addend: 0x0, symName: __ZN25llm_graph_input_attn_tempD0Ev, symObjAddr: 0x9C24, symBinAddr: 0x48190, symSize: 0x4 }
  - { offset: 0x210A96, size: 0x8, addend: 0x0, symName: __ZN17llm_graph_input_i9can_reuseERK16llm_graph_params, symObjAddr: 0x9C28, symBinAddr: 0x48194, symSize: 0x8 }
  - { offset: 0x210ACB, size: 0x8, addend: 0x0, symName: __ZN26llm_graph_input_pos_bucketD1Ev, symObjAddr: 0x9C30, symBinAddr: 0x4819C, symSize: 0x4 }
  - { offset: 0x210AF4, size: 0x8, addend: 0x0, symName: __ZN26llm_graph_input_pos_bucketD0Ev, symObjAddr: 0x9C34, symBinAddr: 0x481A0, symSize: 0x4 }
  - { offset: 0x210B1D, size: 0x8, addend: 0x0, symName: __ZN29llm_graph_input_pos_bucket_kvD1Ev, symObjAddr: 0x9C38, symBinAddr: 0x481A4, symSize: 0x4 }
  - { offset: 0x210B46, size: 0x8, addend: 0x0, symName: __ZN29llm_graph_input_pos_bucket_kvD0Ev, symObjAddr: 0x9C3C, symBinAddr: 0x481A8, symSize: 0x4 }
  - { offset: 0x210B6F, size: 0x8, addend: 0x0, symName: __ZN23llm_graph_input_out_idsD1Ev, symObjAddr: 0x9C40, symBinAddr: 0x481AC, symSize: 0x4 }
  - { offset: 0x210B98, size: 0x8, addend: 0x0, symName: __ZN23llm_graph_input_out_idsD0Ev, symObjAddr: 0x9C44, symBinAddr: 0x481B0, symSize: 0x4 }
  - { offset: 0x210BC1, size: 0x8, addend: 0x0, symName: __ZN20llm_graph_input_meanD1Ev, symObjAddr: 0x9C48, symBinAddr: 0x481B4, symSize: 0x4 }
  - { offset: 0x210BEA, size: 0x8, addend: 0x0, symName: __ZN20llm_graph_input_meanD0Ev, symObjAddr: 0x9C4C, symBinAddr: 0x481B8, symSize: 0x4 }
  - { offset: 0x210C13, size: 0x8, addend: 0x0, symName: __ZN19llm_graph_input_clsD1Ev, symObjAddr: 0x9C50, symBinAddr: 0x481BC, symSize: 0x4 }
  - { offset: 0x210C3C, size: 0x8, addend: 0x0, symName: __ZN19llm_graph_input_clsD0Ev, symObjAddr: 0x9C54, symBinAddr: 0x481C0, symSize: 0x4 }
  - { offset: 0x210C65, size: 0x8, addend: 0x0, symName: __ZN18llm_graph_input_rsD1Ev, symObjAddr: 0x9C58, symBinAddr: 0x481C4, symSize: 0x4 }
  - { offset: 0x210C8E, size: 0x8, addend: 0x0, symName: __ZN18llm_graph_input_rsD0Ev, symObjAddr: 0x9C5C, symBinAddr: 0x481C8, symSize: 0x4 }
  - { offset: 0x210CB7, size: 0x8, addend: 0x0, symName: __ZN26llm_graph_input_cross_embdD1Ev, symObjAddr: 0x9C60, symBinAddr: 0x481CC, symSize: 0x4 }
  - { offset: 0x210CE0, size: 0x8, addend: 0x0, symName: __ZN26llm_graph_input_cross_embdD0Ev, symObjAddr: 0x9C64, symBinAddr: 0x481D0, symSize: 0x4 }
  - { offset: 0x210D09, size: 0x8, addend: 0x0, symName: __ZN29llm_graph_input_attn_no_cacheD1Ev, symObjAddr: 0x9C68, symBinAddr: 0x481D4, symSize: 0x4 }
  - { offset: 0x210D32, size: 0x8, addend: 0x0, symName: __ZN29llm_graph_input_attn_no_cacheD0Ev, symObjAddr: 0x9C6C, symBinAddr: 0x481D8, symSize: 0x4 }
  - { offset: 0x210D5B, size: 0x8, addend: 0x0, symName: __ZN23llm_graph_input_attn_kvD1Ev, symObjAddr: 0x9C70, symBinAddr: 0x481DC, symSize: 0x4 }
  - { offset: 0x210D84, size: 0x8, addend: 0x0, symName: __ZN23llm_graph_input_attn_kvD0Ev, symObjAddr: 0x9C74, symBinAddr: 0x481E0, symSize: 0x4 }
  - { offset: 0x210DAD, size: 0x8, addend: 0x0, symName: __ZN22llm_graph_input_attn_kD1Ev, symObjAddr: 0x9C78, symBinAddr: 0x481E4, symSize: 0x4 }
  - { offset: 0x210DD6, size: 0x8, addend: 0x0, symName: __ZN22llm_graph_input_attn_kD0Ev, symObjAddr: 0x9C7C, symBinAddr: 0x481E8, symSize: 0x4 }
  - { offset: 0x210DFF, size: 0x8, addend: 0x0, symName: __ZN28llm_graph_input_attn_kv_iswaD1Ev, symObjAddr: 0x9C80, symBinAddr: 0x481EC, symSize: 0x4 }
  - { offset: 0x210E28, size: 0x8, addend: 0x0, symName: __ZN28llm_graph_input_attn_kv_iswaD0Ev, symObjAddr: 0x9C84, symBinAddr: 0x481F0, symSize: 0x4 }
  - { offset: 0x210E51, size: 0x8, addend: 0x0, symName: __ZN26llm_graph_input_attn_crossD1Ev, symObjAddr: 0x9C88, symBinAddr: 0x481F4, symSize: 0x4 }
  - { offset: 0x210E7A, size: 0x8, addend: 0x0, symName: __ZN26llm_graph_input_attn_crossD0Ev, symObjAddr: 0x9C8C, symBinAddr: 0x481F8, symSize: 0x4 }
  - { offset: 0x210EBD, size: 0x8, addend: 0x0, symName: __ZN26llm_graph_input_mem_hybridD1Ev, symObjAddr: 0x9C90, symBinAddr: 0x481FC, symSize: 0x5C }
  - { offset: 0x211054, size: 0x8, addend: 0x0, symName: __ZN26llm_graph_input_mem_hybridD0Ev, symObjAddr: 0x9CEC, symBinAddr: 0x48258, symSize: 0x5C }
  - { offset: 0x211211, size: 0x8, addend: 0x0, symName: __ZN31llm_graph_input_mem_hybrid_iswaD1Ev, symObjAddr: 0x9D48, symBinAddr: 0x482B4, symSize: 0x5C }
  - { offset: 0x2113A8, size: 0x8, addend: 0x0, symName: __ZN31llm_graph_input_mem_hybrid_iswaD0Ev, symObjAddr: 0x9DA4, symBinAddr: 0x48310, symSize: 0x5C }
  - { offset: 0x211565, size: 0x8, addend: 0x0, symName: __ZN24llm_graph_input_samplingD1Ev, symObjAddr: 0x9E00, symBinAddr: 0x4836C, symSize: 0x38 }
  - { offset: 0x211619, size: 0x8, addend: 0x0, symName: __ZN24llm_graph_input_samplingD0Ev, symObjAddr: 0x9E38, symBinAddr: 0x483A4, symSize: 0x38 }
  - { offset: 0x2116D9, size: 0x8, addend: 0x0, symName: __ZN16llm_graph_resultD1Ev, symObjAddr: 0x9E70, symBinAddr: 0x483DC, symSize: 0x4 }
  - { offset: 0x2116FC, size: 0x8, addend: 0x0, symName: __ZN16llm_graph_resultD1Ev, symObjAddr: 0x9E70, symBinAddr: 0x483DC, symSize: 0x4 }
  - { offset: 0x21170F, size: 0x8, addend: 0x0, symName: __ZN16llm_graph_resultD2Ev, symObjAddr: 0xAF90, symBinAddr: 0x48F9C, symSize: 0x148 }
  - { offset: 0x211ECA, size: 0x8, addend: 0x0, symName: __ZN16llm_graph_resultD0Ev, symObjAddr: 0x9E74, symBinAddr: 0x483E0, symSize: 0x14 }
  - { offset: 0x211F45, size: 0x8, addend: 0x0, symName: __ZN17llm_graph_contextD1Ev, symObjAddr: 0x9E88, symBinAddr: 0x483F4, symSize: 0x3C }
  - { offset: 0x211FF9, size: 0x8, addend: 0x0, symName: __ZN17llm_graph_contextD0Ev, symObjAddr: 0x9EC4, symBinAddr: 0x48430, symSize: 0x3C }
  - { offset: 0x212468, size: 0x8, addend: 0x0, symName: __ZN17llm_graph_input_iD1Ev, symObjAddr: 0xA5F0, symBinAddr: 0x25AFAC, symSize: 0x4 }
  - { offset: 0x212491, size: 0x8, addend: 0x0, symName: __ZN17llm_graph_input_iD0Ev, symObjAddr: 0xA5F4, symBinAddr: 0x25AFB0, symSize: 0x4 }
  - { offset: 0x2128BD, size: 0x8, addend: 0x0, symName: __ZNSt3__112__hash_tableIiNS_4hashIiEENS_8equal_toIiEENS_9allocatorIiEEE11__do_rehashILb1EEEvm, symObjAddr: 0xA9D4, symBinAddr: 0x48C9C, symSize: 0x180 }
  - { offset: 0x212C4A, size: 0x8, addend: 0x0, symName: __ZNSt3__16__treeINS_12__value_typeIiP11ggml_tensorEENS_19__map_value_compareIiS4_NS_4lessIiEELb1EEENS_9allocatorIS4_EEE7destroyEPNS_11__tree_nodeIS4_PvEE, symObjAddr: 0xAB54, symBinAddr: 0x48E1C, symSize: 0x44 }
  - { offset: 0x21316B, size: 0x8, addend: 0x0, symName: __ZNSt3__110__function6__funcIPFP11ggml_tensorP12ggml_contextS3_S3_ENS_9allocatorIS7_EES6_ED1Ev, symObjAddr: 0xAE9C, symBinAddr: 0x48EA8, symSize: 0x4 }
  - { offset: 0x213197, size: 0x8, addend: 0x0, symName: __ZNSt3__110__function6__funcIPFP11ggml_tensorP12ggml_contextS3_S3_ENS_9allocatorIS7_EES6_ED0Ev, symObjAddr: 0xAEA0, symBinAddr: 0x48EAC, symSize: 0x4 }
  - { offset: 0x2132AE, size: 0x8, addend: 0x0, symName: __ZNKSt3__110__function6__funcIPFP11ggml_tensorP12ggml_contextS3_S3_ENS_9allocatorIS7_EES6_E7__cloneEv, symObjAddr: 0xAEA4, symBinAddr: 0x48EB0, symSize: 0x38 }
  - { offset: 0x2134AF, size: 0x8, addend: 0x0, symName: __ZNKSt3__110__function6__funcIPFP11ggml_tensorP12ggml_contextS3_S3_ENS_9allocatorIS7_EES6_E7__cloneEPNS0_6__baseIS6_EE, symObjAddr: 0xAEDC, symBinAddr: 0x48EE8, symSize: 0x18 }
  - { offset: 0x2134E4, size: 0x8, addend: 0x0, symName: __ZNKSt3__110__function6__funcIPFP11ggml_tensorP12ggml_contextS3_S3_ENS_9allocatorIS7_EES6_E7__cloneEPNS0_6__baseIS6_EE, symObjAddr: 0xAEDC, symBinAddr: 0x48EE8, symSize: 0x18 }
  - { offset: 0x213512, size: 0x8, addend: 0x0, symName: __ZNKSt3__110__function6__funcIPFP11ggml_tensorP12ggml_contextS3_S3_ENS_9allocatorIS7_EES6_E7__cloneEPNS0_6__baseIS6_EE, symObjAddr: 0xAEDC, symBinAddr: 0x48EE8, symSize: 0x18 }
  - { offset: 0x21356B, size: 0x8, addend: 0x0, symName: __ZNSt3__110__function6__funcIPFP11ggml_tensorP12ggml_contextS3_S3_ENS_9allocatorIS7_EES6_E7destroyEv, symObjAddr: 0xAEF4, symBinAddr: 0x48F00, symSize: 0x4 }
  - { offset: 0x2135C2, size: 0x8, addend: 0x0, symName: __ZNSt3__110__function6__funcIPFP11ggml_tensorP12ggml_contextS3_S3_ENS_9allocatorIS7_EES6_E18destroy_deallocateEv, symObjAddr: 0xAEF8, symBinAddr: 0x48F04, symSize: 0x4 }
  - { offset: 0x2135F7, size: 0x8, addend: 0x0, symName: __ZNSt3__110__function6__funcIPFP11ggml_tensorP12ggml_contextS3_S3_ENS_9allocatorIS7_EES6_E18destroy_deallocateEv, symObjAddr: 0xAEF8, symBinAddr: 0x48F04, symSize: 0x4 }
  - { offset: 0x21361A, size: 0x8, addend: 0x0, symName: __ZNSt3__110__function6__funcIPFP11ggml_tensorP12ggml_contextS3_S3_ENS_9allocatorIS7_EES6_E18destroy_deallocateEv, symObjAddr: 0xAEF8, symBinAddr: 0x48F04, symSize: 0x4 }
  - { offset: 0x21364D, size: 0x8, addend: 0x0, symName: __ZNSt3__110__function6__funcIPFP11ggml_tensorP12ggml_contextS3_S3_ENS_9allocatorIS7_EES6_E18destroy_deallocateEv, symObjAddr: 0xAEF8, symBinAddr: 0x48F04, symSize: 0x4 }
  - { offset: 0x2136FA, size: 0x8, addend: 0x0, symName: __ZNSt3__110__function6__funcIPFP11ggml_tensorP12ggml_contextS3_S3_ENS_9allocatorIS7_EES6_EclEOS5_OS3_SC_, symObjAddr: 0xAEFC, symBinAddr: 0x48F08, symSize: 0x14 }
  - { offset: 0x213751, size: 0x8, addend: 0x0, symName: __ZNSt3__110__function6__funcIPFP11ggml_tensorP12ggml_contextS3_S3_ENS_9allocatorIS7_EES6_EclEOS5_OS3_SC_, symObjAddr: 0xAEFC, symBinAddr: 0x48F08, symSize: 0x14 }
  - { offset: 0x213788, size: 0x8, addend: 0x0, symName: __ZNSt3__110__function6__funcIPFP11ggml_tensorP12ggml_contextS3_S3_ENS_9allocatorIS7_EES6_EclEOS5_OS3_SC_, symObjAddr: 0xAEFC, symBinAddr: 0x48F08, symSize: 0x14 }
  - { offset: 0x2137BE, size: 0x8, addend: 0x0, symName: __ZNSt3__110__function6__funcIPFP11ggml_tensorP12ggml_contextS3_S3_ENS_9allocatorIS7_EES6_EclEOS5_OS3_SC_, symObjAddr: 0xAEFC, symBinAddr: 0x48F08, symSize: 0x14 }
  - { offset: 0x2137F5, size: 0x8, addend: 0x0, symName: __ZNSt3__110__function6__funcIPFP11ggml_tensorP12ggml_contextS3_S3_ENS_9allocatorIS7_EES6_EclEOS5_OS3_SC_, symObjAddr: 0xAEFC, symBinAddr: 0x48F08, symSize: 0x14 }
  - { offset: 0x213892, size: 0x8, addend: 0x0, symName: __ZNKSt3__110__function6__funcIPFP11ggml_tensorP12ggml_contextS3_S3_ENS_9allocatorIS7_EES6_E6targetERKSt9type_info, symObjAddr: 0xAF10, symBinAddr: 0x48F1C, symSize: 0x74 }
  - { offset: 0x213957, size: 0x8, addend: 0x0, symName: __ZNKSt3__110__function6__funcIPFP11ggml_tensorP12ggml_contextS3_S3_ENS_9allocatorIS7_EES6_E11target_typeEv, symObjAddr: 0xAF84, symBinAddr: 0x48F90, symSize: 0xC }
  - { offset: 0x215915, size: 0x8, addend: 0x0, symName: __ZN13llama_hparams15set_swa_patternEjb, symObjAddr: 0x0, symBinAddr: 0x490E4, symSize: 0x1C8 }
  - { offset: 0x217ABA, size: 0x8, addend: 0x0, symName: __ZN13llama_hparams15set_swa_patternEjb, symObjAddr: 0x0, symBinAddr: 0x490E4, symSize: 0x1C8 }
  - { offset: 0x217B2D, size: 0x8, addend: 0x0, symName: __ZNK13llama_hparams10is_swa_anyEv, symObjAddr: 0x1C8, symBinAddr: 0x492AC, symSize: 0x50 }
  - { offset: 0x217B6C, size: 0x8, addend: 0x0, symName: __ZNK13llama_hparams6n_headEj, symObjAddr: 0x218, symBinAddr: 0x492FC, symSize: 0x38 }
  - { offset: 0x217B99, size: 0x8, addend: 0x0, symName: __ZNK13llama_hparams9n_head_kvEj, symObjAddr: 0x250, symBinAddr: 0x49334, symSize: 0x38 }
  - { offset: 0x217BCB, size: 0x8, addend: 0x0, symName: __ZNK13llama_hparams9n_head_kvEj, symObjAddr: 0x250, symBinAddr: 0x49334, symSize: 0x38 }
  - { offset: 0x217BF8, size: 0x8, addend: 0x0, symName: __ZNK13llama_hparams4n_ffEj, symObjAddr: 0x288, symBinAddr: 0x4936C, symSize: 0x38 }
  - { offset: 0x217C0A, size: 0x8, addend: 0x0, symName: __ZNK13llama_hparams4n_ffEj, symObjAddr: 0x288, symBinAddr: 0x4936C, symSize: 0x38 }
  - { offset: 0x217C44, size: 0x8, addend: 0x0, symName: __ZNK13llama_hparams5n_gqaEj, symObjAddr: 0x2C0, symBinAddr: 0x493A4, symSize: 0x54 }
  - { offset: 0x217CA2, size: 0x8, addend: 0x0, symName: __ZNK13llama_hparams5n_gqaEj, symObjAddr: 0x2C0, symBinAddr: 0x493A4, symSize: 0x54 }
  - { offset: 0x217D3E, size: 0x8, addend: 0x0, symName: __ZNK13llama_hparams10n_embd_inpEv, symObjAddr: 0x314, symBinAddr: 0x493F8, symSize: 0x14 }
  - { offset: 0x217D50, size: 0x8, addend: 0x0, symName: __ZNK13llama_hparams10n_embd_inpEv, symObjAddr: 0x314, symBinAddr: 0x493F8, symSize: 0x14 }
  - { offset: 0x217D89, size: 0x8, addend: 0x0, symName: __ZNK13llama_hparams10n_embd_outEv, symObjAddr: 0x328, symBinAddr: 0x4940C, symSize: 0x18 }
  - { offset: 0x217DB2, size: 0x8, addend: 0x0, symName: __ZNK13llama_hparams12n_embd_k_gqaEj, symObjAddr: 0x340, symBinAddr: 0x49424, symSize: 0x40 }
  - { offset: 0x217E07, size: 0x8, addend: 0x0, symName: __ZNK13llama_hparams12n_embd_v_gqaEj, symObjAddr: 0x380, symBinAddr: 0x49464, symSize: 0x40 }
  - { offset: 0x217E19, size: 0x8, addend: 0x0, symName: __ZNK13llama_hparams12n_embd_v_gqaEj, symObjAddr: 0x380, symBinAddr: 0x49464, symSize: 0x40 }
  - { offset: 0x217E6E, size: 0x8, addend: 0x0, symName: __ZNK13llama_hparams24is_n_embd_k_gqa_variableEv, symObjAddr: 0x3C0, symBinAddr: 0x494A4, symSize: 0x6C }
  - { offset: 0x217EB3, size: 0x8, addend: 0x0, symName: __ZNK13llama_hparams24is_n_embd_k_gqa_variableEv, symObjAddr: 0x3C0, symBinAddr: 0x494A4, symSize: 0x6C }
  - { offset: 0x217F95, size: 0x8, addend: 0x0, symName: __ZNK13llama_hparams24is_n_embd_v_gqa_variableEv, symObjAddr: 0x42C, symBinAddr: 0x49510, symSize: 0x6C }
  - { offset: 0x217FD5, size: 0x8, addend: 0x0, symName: __ZNK13llama_hparams24is_n_embd_v_gqa_variableEv, symObjAddr: 0x42C, symBinAddr: 0x49510, symSize: 0x6C }
  - { offset: 0x2180B7, size: 0x8, addend: 0x0, symName: __ZNK13llama_hparams16n_embd_k_gqa_maxEv, symObjAddr: 0x498, symBinAddr: 0x4957C, symSize: 0xC0 }
  - { offset: 0x2180C9, size: 0x8, addend: 0x0, symName: __ZNK13llama_hparams16n_embd_k_gqa_maxEv, symObjAddr: 0x498, symBinAddr: 0x4957C, symSize: 0xC0 }
  - { offset: 0x21818D, size: 0x8, addend: 0x0, symName: __ZNK13llama_hparams16n_embd_v_gqa_maxEv, symObjAddr: 0x558, symBinAddr: 0x4963C, symSize: 0xC0 }
  - { offset: 0x21819F, size: 0x8, addend: 0x0, symName: __ZNK13llama_hparams16n_embd_v_gqa_maxEv, symObjAddr: 0x558, symBinAddr: 0x4963C, symSize: 0xC0 }
  - { offset: 0x218263, size: 0x8, addend: 0x0, symName: __ZNK13llama_hparams8n_embd_rEv, symObjAddr: 0x618, symBinAddr: 0x496FC, symSize: 0x58 }
  - { offset: 0x218275, size: 0x8, addend: 0x0, symName: __ZNK13llama_hparams8n_embd_rEv, symObjAddr: 0x618, symBinAddr: 0x496FC, symSize: 0x58 }
  - { offset: 0x21829E, size: 0x8, addend: 0x0, symName: __ZNK13llama_hparams8n_embd_sEv, symObjAddr: 0x670, symBinAddr: 0x49754, symSize: 0x2C }
  - { offset: 0x2182C7, size: 0x8, addend: 0x0, symName: __ZNK13llama_hparams12is_recurrentEj, symObjAddr: 0x69C, symBinAddr: 0x49780, symSize: 0x50 }
  - { offset: 0x218301, size: 0x8, addend: 0x0, symName: __ZNK13llama_hparams14n_pos_per_embdEv, symObjAddr: 0x6EC, symBinAddr: 0x497D0, symSize: 0x1C }
  - { offset: 0x218314, size: 0x8, addend: 0x0, symName: __ZNK13llama_hparams14n_pos_per_embdEv, symObjAddr: 0x6EC, symBinAddr: 0x497D0, symSize: 0x1C }
  - { offset: 0x21833D, size: 0x8, addend: 0x0, symName: __ZNK13llama_hparams6is_swaEj, symObjAddr: 0x708, symBinAddr: 0x497EC, symSize: 0x40 }
  - { offset: 0x218377, size: 0x8, addend: 0x0, symName: __ZNK13llama_hparams6is_mlaEv, symObjAddr: 0x748, symBinAddr: 0x4982C, symSize: 0x20 }
  - { offset: 0x21838A, size: 0x8, addend: 0x0, symName: __ZNK13llama_hparams6is_mlaEv, symObjAddr: 0x748, symBinAddr: 0x4982C, symSize: 0x20 }
  - { offset: 0x2183C4, size: 0x8, addend: 0x0, symName: __ZNK13llama_hparams17n_embd_head_k_mlaEv, symObjAddr: 0x768, symBinAddr: 0x4984C, symSize: 0x30 }
  - { offset: 0x2183EF, size: 0x8, addend: 0x0, symName: __ZNK13llama_hparams17n_embd_head_k_mlaEv, symObjAddr: 0x768, symBinAddr: 0x4984C, symSize: 0x30 }
  - { offset: 0x218409, size: 0x8, addend: 0x0, symName: __ZNK13llama_hparams17n_embd_head_v_mlaEv, symObjAddr: 0x798, symBinAddr: 0x4987C, symSize: 0x30 }
  - { offset: 0x218434, size: 0x8, addend: 0x0, symName: __ZNK13llama_hparams17n_embd_head_v_mlaEv, symObjAddr: 0x798, symBinAddr: 0x4987C, symSize: 0x30 }
  - { offset: 0x21844E, size: 0x8, addend: 0x0, symName: __ZNK13llama_hparams6has_kvEj, symObjAddr: 0x7C8, symBinAddr: 0x498AC, symSize: 0x14 }
  - { offset: 0x21849A, size: 0x8, addend: 0x0, symName: __ZNK13llama_hparams10n_layer_kvEv, symObjAddr: 0x7DC, symBinAddr: 0x498C0, symSize: 0xCC }
  - { offset: 0x2184FF, size: 0x8, addend: 0x0, symName: __ZNK13llama_hparams9use_mropeEv, symObjAddr: 0x8A8, symBinAddr: 0x4998C, symSize: 0x24 }
  - { offset: 0x21A455, size: 0x8, addend: 0x0, symName: __ZL14g_logger_state.0, symObjAddr: 0x1878, symBinAddr: 0x2D82A8, symSize: 0x0 }
  - { offset: 0x21A460, size: 0x8, addend: 0x0, symName: __ZL14g_logger_state.1, symObjAddr: 0x2E120, symBinAddr: 0x3640A8, symSize: 0x0 }
  - { offset: 0x221650, size: 0x8, addend: 0x0, symName: __ZN9time_measC2ERxb, symObjAddr: 0x0, symBinAddr: 0x499B0, symSize: 0x48 }
  - { offset: 0x2216D7, size: 0x8, addend: 0x0, symName: __ZN9time_measC1ERxb, symObjAddr: 0x48, symBinAddr: 0x499F8, symSize: 0x48 }
  - { offset: 0x221758, size: 0x8, addend: 0x0, symName: __ZN9time_measD2Ev, symObjAddr: 0x90, symBinAddr: 0x49A40, symSize: 0x44 }
  - { offset: 0x2217A4, size: 0x8, addend: 0x0, symName: __ZN9time_measD1Ev, symObjAddr: 0xE4, symBinAddr: 0x49A84, symSize: 0x44 }
  - { offset: 0x2217F5, size: 0x8, addend: 0x0, symName: _llama_log_get, symObjAddr: 0x128, symBinAddr: 0x49AC8, symSize: 0x4 }
  - { offset: 0x22182B, size: 0x8, addend: 0x0, symName: _llama_log_get, symObjAddr: 0x128, symBinAddr: 0x49AC8, symSize: 0x4 }
  - { offset: 0x22185E, size: 0x8, addend: 0x0, symName: _llama_log_set, symObjAddr: 0x12C, symBinAddr: 0x49ACC, symSize: 0x44 }
  - { offset: 0x2218C2, size: 0x8, addend: 0x0, symName: __Z26llama_log_callback_default14ggml_log_levelPKcPv, symObjAddr: 0x170, symBinAddr: 0x49B10, symSize: 0x30 }
  - { offset: 0x221B5A, size: 0x8, addend: 0x0, symName: __Z18llama_log_internal14ggml_log_levelPKcz, symObjAddr: 0x1A0, symBinAddr: 0x49B40, symSize: 0x10C }
  - { offset: 0x221F16, size: 0x8, addend: 0x0, symName: __Z11replace_allRNSt3__112basic_stringIcNS_11char_traitsIcEENS_9allocatorIcEEEERKS5_S8_, symObjAddr: 0x2AC, symBinAddr: 0x49C4C, symSize: 0x1F8 }
  - { offset: 0x2228A2, size: 0x8, addend: 0x0, symName: __Z6formatPKcz, symObjAddr: 0x4A4, symBinAddr: 0x49E44, symSize: 0x158 }
  - { offset: 0x222F5A, size: 0x8, addend: 0x0, symName: __Z25llama_format_tensor_shapeRKNSt3__16vectorIxNS_9allocatorIxEEEE, symObjAddr: 0x5FC, symBinAddr: 0x49F9C, symSize: 0x180 }
  - { offset: 0x2232FC, size: 0x8, addend: 0x0, symName: __ZNSt3__16vectorIxNS_9allocatorIxEEE20__throw_out_of_rangeB8ne200100Ev, symObjAddr: 0x1388, symBinAddr: 0x4AA84, symSize: 0x14 }
  - { offset: 0x223334, size: 0x8, addend: 0x0, symName: __Z25llama_format_tensor_shapePK11ggml_tensor, symObjAddr: 0x77C, symBinAddr: 0x4A11C, symSize: 0x180 }
  - { offset: 0x223816, size: 0x8, addend: 0x0, symName: __Z14gguf_kv_to_strPK12gguf_contexti, symObjAddr: 0x8FC, symBinAddr: 0x4A29C, symSize: 0x5EC }
  - { offset: 0x224D8C, size: 0x8, addend: 0x0, symName: __ZL16gguf_data_to_str9gguf_typePKvi, symObjAddr: 0x107C, symBinAddr: 0x4A888, symSize: 0x1FC }
  - { offset: 0x227815, size: 0x8, addend: 0x0, symName: __ZN16llama_io_write_i12write_stringERKNSt3__112basic_stringIcNS0_11char_traitsIcEENS0_9allocatorIcEEEE, symObjAddr: 0x0, symBinAddr: 0x4AA98, symSize: 0x78 }
  - { offset: 0x22A2F2, size: 0x8, addend: 0x0, symName: __ZN16llama_io_write_i12write_stringERKNSt3__112basic_stringIcNS0_11char_traitsIcEENS0_9allocatorIcEEEE, symObjAddr: 0x0, symBinAddr: 0x4AA98, symSize: 0x78 }
  - { offset: 0x22A403, size: 0x8, addend: 0x0, symName: __ZN15llama_io_read_i11read_stringERNSt3__112basic_stringIcNS0_11char_traitsIcEENS0_9allocatorIcEEEE, symObjAddr: 0x78, symBinAddr: 0x4AB10, symSize: 0x64 }
  - { offset: 0x22C37B, size: 0x8, addend: 0x0, symName: __ZN19llama_kv_cache_iswaC2ERK11llama_model9ggml_typeS3_bbbbjjjjRKNSt3__18functionIFbiEEERKNS5_IFiiEEE, symObjAddr: 0x0, symBinAddr: 0x4AB74, symSize: 0x348 }
  - { offset: 0x250E20, size: 0x8, addend: 0x0, symName: __ZNSt3__111make_uniqueB8ne200100I27llama_kv_cache_iswa_contextJP19llama_kv_cache_iswaNS_6vectorIN14llama_kv_cache9slot_infoENS_9allocatorIS6_EEEES9_NS4_I12llama_ubatchNS7_ISA_EEEEELi0EEENS_10unique_ptrIT_NS_14default_deleteISE_EEEEDpOT0_, symObjAddr: 0xF28, symBinAddr: 0x4BA40, symSize: 0x25C }
  - { offset: 0x25A21C, size: 0x8, addend: 0x0, symName: __ZN19llama_kv_cache_iswaC1ERK11llama_model9ggml_typeS3_bbbbjjjjRKNSt3__18functionIFbiEEERKNS5_IFiiEEE, symObjAddr: 0x348, symBinAddr: 0x4AEBC, symSize: 0x20 }
  - { offset: 0x25ACFA, size: 0x8, addend: 0x0, symName: __ZN19llama_kv_cache_iswaC2ERK11llama_model9ggml_typeS3_bbbbjjjjRKNSt3__18functionIFbiEEERKNS5_IFiiEEE, symObjAddr: 0x0, symBinAddr: 0x4AB74, symSize: 0x348 }
  - { offset: 0x25B58F, size: 0x8, addend: 0x0, symName: __ZN19llama_kv_cache_iswa5clearEb, symObjAddr: 0x368, symBinAddr: 0x4AEDC, symSize: 0x40 }
  - { offset: 0x25B623, size: 0x8, addend: 0x0, symName: __ZN19llama_kv_cache_iswa6seq_rmEiii, symObjAddr: 0x3A8, symBinAddr: 0x4AF1C, symSize: 0x6C }
  - { offset: 0x25B706, size: 0x8, addend: 0x0, symName: __ZN19llama_kv_cache_iswa6seq_cpEiiii, symObjAddr: 0x414, symBinAddr: 0x4AF88, symSize: 0x68 }
  - { offset: 0x25B7DC, size: 0x8, addend: 0x0, symName: __ZN19llama_kv_cache_iswa8seq_keepEi, symObjAddr: 0x47C, symBinAddr: 0x4AFF0, symSize: 0x40 }
  - { offset: 0x25B870, size: 0x8, addend: 0x0, symName: __ZN19llama_kv_cache_iswa7seq_addEiiii, symObjAddr: 0x4BC, symBinAddr: 0x4B030, symSize: 0x68 }
  - { offset: 0x25B946, size: 0x8, addend: 0x0, symName: __ZN19llama_kv_cache_iswa7seq_divEiiii, symObjAddr: 0x524, symBinAddr: 0x4B098, symSize: 0x68 }
  - { offset: 0x25BA1C, size: 0x8, addend: 0x0, symName: __ZNK19llama_kv_cache_iswa11seq_pos_minEi, symObjAddr: 0x58C, symBinAddr: 0x4B100, symSize: 0x10 }
  - { offset: 0x25BA55, size: 0x8, addend: 0x0, symName: __ZNK19llama_kv_cache_iswa11seq_pos_minEi, symObjAddr: 0x58C, symBinAddr: 0x4B100, symSize: 0x10 }
  - { offset: 0x25BA85, size: 0x8, addend: 0x0, symName: __ZNK19llama_kv_cache_iswa11seq_pos_maxEi, symObjAddr: 0x59C, symBinAddr: 0x4B110, symSize: 0x10 }
  - { offset: 0x25BABE, size: 0x8, addend: 0x0, symName: __ZNK19llama_kv_cache_iswa11seq_pos_maxEi, symObjAddr: 0x59C, symBinAddr: 0x4B110, symSize: 0x10 }
  - { offset: 0x25C095, size: 0x8, addend: 0x0, symName: __ZNK19llama_kv_cache_iswa16memory_breakdownEv, symObjAddr: 0x5AC, symBinAddr: 0x4B120, symSize: 0x1C8 }
  - { offset: 0x25D243, size: 0x8, addend: 0x0, symName: __ZN19llama_kv_cache_iswa10init_batchER18llama_batch_allocrjb, symObjAddr: 0x774, symBinAddr: 0x4B2E8, symSize: 0x758 }
  - { offset: 0x25F5BB, size: 0x8, addend: 0x0, symName: __ZNSt3__16vectorI12llama_ubatchNS_9allocatorIS1_EEE24__emplace_back_slow_pathIJS1_EEEPS1_DpOT_, symObjAddr: 0x258C, symBinAddr: 0x4CE8C, symSize: 0x1C0 }
  - { offset: 0x25FBEC, size: 0x8, addend: 0x0, symName: __ZNSt3__16vectorI12llama_ubatchNS_9allocatorIS1_EEE20__throw_length_errorB8ne200100Ev, symObjAddr: 0x274C, symBinAddr: 0x4D04C, symSize: 0x14 }
  - { offset: 0x25FC02, size: 0x8, addend: 0x0, symName: __ZNSt3__16vectorIN14llama_kv_cache9slot_infoENS_9allocatorIS2_EEED1B8ne200100Ev, symObjAddr: 0x1184, symBinAddr: 0x4BC9C, symSize: 0xC4 }
  - { offset: 0x260148, size: 0x8, addend: 0x0, symName: __ZNSt3__16vectorI12llama_ubatchNS_9allocatorIS1_EEED1B8ne200100Ev, symObjAddr: 0x1248, symBinAddr: 0x4BD60, symSize: 0x98 }
  - { offset: 0x260547, size: 0x8, addend: 0x0, symName: __ZN27llama_kv_cache_iswa_contextC2EP19llama_kv_cache_iswaNSt3__16vectorIN14llama_kv_cache9slot_infoENS2_9allocatorIS5_EEEES8_NS3_I12llama_ubatchNS6_IS9_EEEE, symObjAddr: 0x1750, symBinAddr: 0x4C268, symSize: 0x5B4 }
  - { offset: 0x262139, size: 0x8, addend: 0x0, symName: __ZN19llama_kv_cache_iswa9init_fullEv, symObjAddr: 0x12E0, symBinAddr: 0x4BDF8, symSize: 0x54 }
  - { offset: 0x2621DF, size: 0x8, addend: 0x0, symName: __ZN27llama_kv_cache_iswa_contextC2EP19llama_kv_cache_iswa, symObjAddr: 0x14E8, symBinAddr: 0x4C000, symSize: 0x120 }
  - { offset: 0x262496, size: 0x8, addend: 0x0, symName: __ZN19llama_kv_cache_iswa11init_updateEP13llama_contextb, symObjAddr: 0x1334, symBinAddr: 0x4BE4C, symSize: 0x6C }
  - { offset: 0x262579, size: 0x8, addend: 0x0, symName: __ZN27llama_kv_cache_iswa_contextC2EP19llama_kv_cache_iswaP13llama_contextb, symObjAddr: 0x160C, symBinAddr: 0x4C124, symSize: 0x140 }
  - { offset: 0x262826, size: 0x8, addend: 0x0, symName: __ZNK19llama_kv_cache_iswa13get_can_shiftEv, symObjAddr: 0x13A0, symBinAddr: 0x4BEB8, symSize: 0x38 }
  - { offset: 0x26288B, size: 0x8, addend: 0x0, symName: __ZNK19llama_kv_cache_iswa11state_writeER16llama_io_write_iij, symObjAddr: 0x13D8, symBinAddr: 0x4BEF0, symSize: 0x5C }
  - { offset: 0x262935, size: 0x8, addend: 0x0, symName: __ZN19llama_kv_cache_iswa10state_readER15llama_io_read_iij, symObjAddr: 0x1434, symBinAddr: 0x4BF4C, symSize: 0x5C }
  - { offset: 0x2629F5, size: 0x8, addend: 0x0, symName: __ZNK19llama_kv_cache_iswa8get_baseEv, symObjAddr: 0x1490, symBinAddr: 0x4BFA8, symSize: 0x8 }
  - { offset: 0x262A19, size: 0x8, addend: 0x0, symName: __ZNK19llama_kv_cache_iswa8get_baseEv, symObjAddr: 0x1490, symBinAddr: 0x4BFA8, symSize: 0x8 }
  - { offset: 0x262A35, size: 0x8, addend: 0x0, symName: __ZNK19llama_kv_cache_iswa7get_swaEv, symObjAddr: 0x1498, symBinAddr: 0x4BFB0, symSize: 0x8 }
  - { offset: 0x262A59, size: 0x8, addend: 0x0, symName: __ZNK19llama_kv_cache_iswa7get_swaEv, symObjAddr: 0x1498, symBinAddr: 0x4BFB0, symSize: 0x8 }
  - { offset: 0x262A75, size: 0x8, addend: 0x0, symName: __ZN27llama_kv_cache_iswa_contextC2E19llama_memory_status, symObjAddr: 0x14A0, symBinAddr: 0x4BFB8, symSize: 0x24 }
  - { offset: 0x262AD8, size: 0x8, addend: 0x0, symName: __ZN27llama_kv_cache_iswa_contextC1E19llama_memory_status, symObjAddr: 0x14C4, symBinAddr: 0x4BFDC, symSize: 0x24 }
  - { offset: 0x262B01, size: 0x8, addend: 0x0, symName: __ZN27llama_kv_cache_iswa_contextC1E19llama_memory_status, symObjAddr: 0x14C4, symBinAddr: 0x4BFDC, symSize: 0x24 }
  - { offset: 0x262C53, size: 0x8, addend: 0x0, symName: __ZN27llama_kv_cache_iswa_contextC1EP19llama_kv_cache_iswa, symObjAddr: 0x1608, symBinAddr: 0x4C120, symSize: 0x4 }
  - { offset: 0x262C7D, size: 0x8, addend: 0x0, symName: __ZN27llama_kv_cache_iswa_contextC1EP19llama_kv_cache_iswa, symObjAddr: 0x1608, symBinAddr: 0x4C120, symSize: 0x4 }
  - { offset: 0x262C97, size: 0x8, addend: 0x0, symName: __ZN27llama_kv_cache_iswa_contextC1EP19llama_kv_cache_iswaP13llama_contextb, symObjAddr: 0x174C, symBinAddr: 0x4C264, symSize: 0x4 }
  - { offset: 0x262CD4, size: 0x8, addend: 0x0, symName: __ZN27llama_kv_cache_iswa_contextC1EP19llama_kv_cache_iswaP13llama_contextb, symObjAddr: 0x174C, symBinAddr: 0x4C264, symSize: 0x4 }
  - { offset: 0x26308E, size: 0x8, addend: 0x0, symName: __ZNSt3__16vectorI12llama_ubatchNS_9allocatorIS1_EEE20__throw_length_errorB8ne200100Ev, symObjAddr: 0x274C, symBinAddr: 0x4D04C, symSize: 0x14 }
  - { offset: 0x2630B1, size: 0x8, addend: 0x0, symName: __ZNSt3__128__exception_guard_exceptionsINS_6vectorI12llama_ubatchNS_9allocatorIS2_EEE16__destroy_vectorEED1B8ne200100Ev, symObjAddr: 0x27D4, symBinAddr: 0x4D060, symSize: 0xA8 }
  - { offset: 0x2632EC, size: 0x8, addend: 0x0, symName: __ZN27llama_kv_cache_iswa_contextC1EP19llama_kv_cache_iswaNSt3__16vectorIN14llama_kv_cache9slot_infoENS2_9allocatorIS5_EEEES8_NS3_I12llama_ubatchNS6_IS9_EEEE, symObjAddr: 0x1D04, symBinAddr: 0x4C81C, symSize: 0x4 }
  - { offset: 0x26332E, size: 0x8, addend: 0x0, symName: __ZN27llama_kv_cache_iswa_contextC1EP19llama_kv_cache_iswaNSt3__16vectorIN14llama_kv_cache9slot_infoENS2_9allocatorIS5_EEEES8_NS3_I12llama_ubatchNS6_IS9_EEEE, symObjAddr: 0x1D04, symBinAddr: 0x4C81C, symSize: 0x4 }
  - { offset: 0x26335D, size: 0x8, addend: 0x0, symName: __ZN27llama_kv_cache_iswa_contextD2Ev, symObjAddr: 0x1D08, symBinAddr: 0x4C820, symSize: 0xD4 }
  - { offset: 0x26370C, size: 0x8, addend: 0x0, symName: __ZN27llama_kv_cache_iswa_contextD1Ev, symObjAddr: 0x1DDC, symBinAddr: 0x4C8F4, symSize: 0xD4 }
  - { offset: 0x263AD8, size: 0x8, addend: 0x0, symName: __ZN27llama_kv_cache_iswa_contextD0Ev, symObjAddr: 0x1EB0, symBinAddr: 0x4C9C8, symSize: 0xD4 }
  - { offset: 0x263EB0, size: 0x8, addend: 0x0, symName: __ZN27llama_kv_cache_iswa_context4nextEv, symObjAddr: 0x1F84, symBinAddr: 0x4CA9C, symSize: 0x70 }
  - { offset: 0x263F4F, size: 0x8, addend: 0x0, symName: __ZN27llama_kv_cache_iswa_context5applyEv, symObjAddr: 0x1FF4, symBinAddr: 0x4CB0C, symSize: 0x44 }
  - { offset: 0x263FDF, size: 0x8, addend: 0x0, symName: __ZNK27llama_kv_cache_iswa_context10get_statusEv, symObjAddr: 0x2038, symBinAddr: 0x4CB50, symSize: 0x8 }
  - { offset: 0x26402B, size: 0x8, addend: 0x0, symName: __ZNK27llama_kv_cache_iswa_context10get_ubatchEv, symObjAddr: 0x2040, symBinAddr: 0x4CB58, symSize: 0x10 }
  - { offset: 0x264091, size: 0x8, addend: 0x0, symName: __ZNK27llama_kv_cache_iswa_context8get_baseEv, symObjAddr: 0x2050, symBinAddr: 0x4CB68, symSize: 0x8 }
  - { offset: 0x2640BD, size: 0x8, addend: 0x0, symName: __ZNK27llama_kv_cache_iswa_context8get_baseEv, symObjAddr: 0x2050, symBinAddr: 0x4CB68, symSize: 0x8 }
  - { offset: 0x2640DA, size: 0x8, addend: 0x0, symName: __ZNK27llama_kv_cache_iswa_context7get_swaEv, symObjAddr: 0x2058, symBinAddr: 0x4CB70, symSize: 0x8 }
  - { offset: 0x264106, size: 0x8, addend: 0x0, symName: __ZNK27llama_kv_cache_iswa_context7get_swaEv, symObjAddr: 0x2058, symBinAddr: 0x4CB70, symSize: 0x8 }
  - { offset: 0x26413D, size: 0x8, addend: 0x0, symName: __ZN19llama_kv_cache_iswaD1Ev, symObjAddr: 0x2060, symBinAddr: 0x4CB78, symSize: 0x5C }
  - { offset: 0x2642D1, size: 0x8, addend: 0x0, symName: __ZN19llama_kv_cache_iswaD0Ev, symObjAddr: 0x20BC, symBinAddr: 0x4CBD4, symSize: 0x5C }
  - { offset: 0x264470, size: 0x8, addend: 0x0, symName: '__ZNSt3__110__function6__funcIZN19llama_kv_cache_iswaC1ERK11llama_model9ggml_typeS6_bbbbjjjjRKNS_8functionIFbiEEERKNS7_IFiiEEEE3$_0NS_9allocatorISG_EES8_ED1Ev', symObjAddr: 0x2118, symBinAddr: 0x4CC30, symSize: 0x4 }
  - { offset: 0x26449C, size: 0x8, addend: 0x0, symName: '__ZNSt3__110__function6__funcIZN19llama_kv_cache_iswaC1ERK11llama_model9ggml_typeS6_bbbbjjjjRKNS_8functionIFbiEEERKNS7_IFiiEEEE3$_0NS_9allocatorISG_EES8_ED0Ev', symObjAddr: 0x211C, symBinAddr: 0x4CC34, symSize: 0x4 }
  - { offset: 0x2645B3, size: 0x8, addend: 0x0, symName: '__ZNKSt3__110__function6__funcIZN19llama_kv_cache_iswaC1ERK11llama_model9ggml_typeS6_bbbbjjjjRKNS_8functionIFbiEEERKNS7_IFiiEEEE3$_0NS_9allocatorISG_EES8_E7__cloneEv', symObjAddr: 0x2120, symBinAddr: 0x4CC38, symSize: 0x38 }
  - { offset: 0x2647C6, size: 0x8, addend: 0x0, symName: '__ZNKSt3__110__function6__funcIZN19llama_kv_cache_iswaC1ERK11llama_model9ggml_typeS6_bbbbjjjjRKNS_8functionIFbiEEERKNS7_IFiiEEEE3$_0NS_9allocatorISG_EES8_E7__cloneEPNS0_6__baseIS8_EE', symObjAddr: 0x2158, symBinAddr: 0x4CC70, symSize: 0x18 }
  - { offset: 0x2647FB, size: 0x8, addend: 0x0, symName: '__ZNKSt3__110__function6__funcIZN19llama_kv_cache_iswaC1ERK11llama_model9ggml_typeS6_bbbbjjjjRKNS_8functionIFbiEEERKNS7_IFiiEEEE3$_0NS_9allocatorISG_EES8_E7__cloneEPNS0_6__baseIS8_EE', symObjAddr: 0x2158, symBinAddr: 0x4CC70, symSize: 0x18 }
  - { offset: 0x264820, size: 0x8, addend: 0x0, symName: '__ZNKSt3__110__function6__funcIZN19llama_kv_cache_iswaC1ERK11llama_model9ggml_typeS6_bbbbjjjjRKNS_8functionIFbiEEERKNS7_IFiiEEEE3$_0NS_9allocatorISG_EES8_E7__cloneEPNS0_6__baseIS8_EE', symObjAddr: 0x2158, symBinAddr: 0x4CC70, symSize: 0x18 }
  - { offset: 0x264894, size: 0x8, addend: 0x0, symName: '__ZNSt3__110__function6__funcIZN19llama_kv_cache_iswaC1ERK11llama_model9ggml_typeS6_bbbbjjjjRKNS_8functionIFbiEEERKNS7_IFiiEEEE3$_0NS_9allocatorISG_EES8_E7destroyEv', symObjAddr: 0x2170, symBinAddr: 0x4CC88, symSize: 0x4 }
  - { offset: 0x2648E9, size: 0x8, addend: 0x0, symName: '__ZNSt3__110__function6__funcIZN19llama_kv_cache_iswaC1ERK11llama_model9ggml_typeS6_bbbbjjjjRKNS_8functionIFbiEEERKNS7_IFiiEEEE3$_0NS_9allocatorISG_EES8_E18destroy_deallocateEv', symObjAddr: 0x2174, symBinAddr: 0x4CC8C, symSize: 0x4 }
  - { offset: 0x26491E, size: 0x8, addend: 0x0, symName: '__ZNSt3__110__function6__funcIZN19llama_kv_cache_iswaC1ERK11llama_model9ggml_typeS6_bbbbjjjjRKNS_8functionIFbiEEERKNS7_IFiiEEEE3$_0NS_9allocatorISG_EES8_E18destroy_deallocateEv', symObjAddr: 0x2174, symBinAddr: 0x4CC8C, symSize: 0x4 }
  - { offset: 0x264941, size: 0x8, addend: 0x0, symName: '__ZNSt3__110__function6__funcIZN19llama_kv_cache_iswaC1ERK11llama_model9ggml_typeS6_bbbbjjjjRKNS_8functionIFbiEEERKNS7_IFiiEEEE3$_0NS_9allocatorISG_EES8_E18destroy_deallocateEv', symObjAddr: 0x2174, symBinAddr: 0x4CC8C, symSize: 0x4 }
  - { offset: 0x264974, size: 0x8, addend: 0x0, symName: '__ZNSt3__110__function6__funcIZN19llama_kv_cache_iswaC1ERK11llama_model9ggml_typeS6_bbbbjjjjRKNS_8functionIFbiEEERKNS7_IFiiEEEE3$_0NS_9allocatorISG_EES8_E18destroy_deallocateEv', symObjAddr: 0x2174, symBinAddr: 0x4CC8C, symSize: 0x4 }
  - { offset: 0x264A94, size: 0x8, addend: 0x0, symName: '__ZNSt3__110__function6__funcIZN19llama_kv_cache_iswaC1ERK11llama_model9ggml_typeS6_bbbbjjjjRKNS_8functionIFbiEEERKNS7_IFiiEEEE3$_0NS_9allocatorISG_EES8_EclEOi', symObjAddr: 0x2178, symBinAddr: 0x4CC90, symSize: 0x60 }
  - { offset: 0x264C4B, size: 0x8, addend: 0x0, symName: '__ZNKSt3__110__function6__funcIZN19llama_kv_cache_iswaC1ERK11llama_model9ggml_typeS6_bbbbjjjjRKNS_8functionIFbiEEERKNS7_IFiiEEEE3$_0NS_9allocatorISG_EES8_E6targetERKSt9type_info', symObjAddr: 0x21D8, symBinAddr: 0x4CCF0, symSize: 0x64 }
  - { offset: 0x264D16, size: 0x8, addend: 0x0, symName: '__ZNKSt3__110__function6__funcIZN19llama_kv_cache_iswaC1ERK11llama_model9ggml_typeS6_bbbbjjjjRKNS_8functionIFbiEEERKNS7_IFiiEEEE3$_0NS_9allocatorISG_EES8_E11target_typeEv', symObjAddr: 0x223C, symBinAddr: 0x4CD54, symSize: 0xC }
  - { offset: 0x264D39, size: 0x8, addend: 0x0, symName: '__ZNSt3__110__function6__funcIZN19llama_kv_cache_iswaC1ERK11llama_model9ggml_typeS6_bbbbjjjjRKNS_8functionIFbiEEERKNS7_IFiiEEEE3$_1NS_9allocatorISG_EES8_ED1Ev', symObjAddr: 0x2270, symBinAddr: 0x4CD60, symSize: 0x4 }
  - { offset: 0x264D65, size: 0x8, addend: 0x0, symName: '__ZNSt3__110__function6__funcIZN19llama_kv_cache_iswaC1ERK11llama_model9ggml_typeS6_bbbbjjjjRKNS_8functionIFbiEEERKNS7_IFiiEEEE3$_1NS_9allocatorISG_EES8_ED0Ev', symObjAddr: 0x2274, symBinAddr: 0x4CD64, symSize: 0x4 }
  - { offset: 0x264E7C, size: 0x8, addend: 0x0, symName: '__ZNKSt3__110__function6__funcIZN19llama_kv_cache_iswaC1ERK11llama_model9ggml_typeS6_bbbbjjjjRKNS_8functionIFbiEEERKNS7_IFiiEEEE3$_1NS_9allocatorISG_EES8_E7__cloneEv', symObjAddr: 0x2278, symBinAddr: 0x4CD68, symSize: 0x38 }
  - { offset: 0x26508F, size: 0x8, addend: 0x0, symName: '__ZNKSt3__110__function6__funcIZN19llama_kv_cache_iswaC1ERK11llama_model9ggml_typeS6_bbbbjjjjRKNS_8functionIFbiEEERKNS7_IFiiEEEE3$_1NS_9allocatorISG_EES8_E7__cloneEPNS0_6__baseIS8_EE', symObjAddr: 0x22B0, symBinAddr: 0x4CDA0, symSize: 0x18 }
  - { offset: 0x2650C4, size: 0x8, addend: 0x0, symName: '__ZNKSt3__110__function6__funcIZN19llama_kv_cache_iswaC1ERK11llama_model9ggml_typeS6_bbbbjjjjRKNS_8functionIFbiEEERKNS7_IFiiEEEE3$_1NS_9allocatorISG_EES8_E7__cloneEPNS0_6__baseIS8_EE', symObjAddr: 0x22B0, symBinAddr: 0x4CDA0, symSize: 0x18 }
  - { offset: 0x2650E9, size: 0x8, addend: 0x0, symName: '__ZNKSt3__110__function6__funcIZN19llama_kv_cache_iswaC1ERK11llama_model9ggml_typeS6_bbbbjjjjRKNS_8functionIFbiEEERKNS7_IFiiEEEE3$_1NS_9allocatorISG_EES8_E7__cloneEPNS0_6__baseIS8_EE', symObjAddr: 0x22B0, symBinAddr: 0x4CDA0, symSize: 0x18 }
  - { offset: 0x26515D, size: 0x8, addend: 0x0, symName: '__ZNSt3__110__function6__funcIZN19llama_kv_cache_iswaC1ERK11llama_model9ggml_typeS6_bbbbjjjjRKNS_8functionIFbiEEERKNS7_IFiiEEEE3$_1NS_9allocatorISG_EES8_E7destroyEv', symObjAddr: 0x22C8, symBinAddr: 0x4CDB8, symSize: 0x4 }
  - { offset: 0x2651B2, size: 0x8, addend: 0x0, symName: '__ZNSt3__110__function6__funcIZN19llama_kv_cache_iswaC1ERK11llama_model9ggml_typeS6_bbbbjjjjRKNS_8functionIFbiEEERKNS7_IFiiEEEE3$_1NS_9allocatorISG_EES8_E18destroy_deallocateEv', symObjAddr: 0x22CC, symBinAddr: 0x4CDBC, symSize: 0x4 }
  - { offset: 0x2651E7, size: 0x8, addend: 0x0, symName: '__ZNSt3__110__function6__funcIZN19llama_kv_cache_iswaC1ERK11llama_model9ggml_typeS6_bbbbjjjjRKNS_8functionIFbiEEERKNS7_IFiiEEEE3$_1NS_9allocatorISG_EES8_E18destroy_deallocateEv', symObjAddr: 0x22CC, symBinAddr: 0x4CDBC, symSize: 0x4 }
  - { offset: 0x26520A, size: 0x8, addend: 0x0, symName: '__ZNSt3__110__function6__funcIZN19llama_kv_cache_iswaC1ERK11llama_model9ggml_typeS6_bbbbjjjjRKNS_8functionIFbiEEERKNS7_IFiiEEEE3$_1NS_9allocatorISG_EES8_E18destroy_deallocateEv', symObjAddr: 0x22CC, symBinAddr: 0x4CDBC, symSize: 0x4 }
  - { offset: 0x26523D, size: 0x8, addend: 0x0, symName: '__ZNSt3__110__function6__funcIZN19llama_kv_cache_iswaC1ERK11llama_model9ggml_typeS6_bbbbjjjjRKNS_8functionIFbiEEERKNS7_IFiiEEEE3$_1NS_9allocatorISG_EES8_E18destroy_deallocateEv', symObjAddr: 0x22CC, symBinAddr: 0x4CDBC, symSize: 0x4 }
  - { offset: 0x2652DF, size: 0x8, addend: 0x0, symName: '__ZNSt3__110__function6__funcIZN19llama_kv_cache_iswaC1ERK11llama_model9ggml_typeS6_bbbbjjjjRKNS_8functionIFbiEEERKNS7_IFiiEEEE3$_1NS_9allocatorISG_EES8_EclEOi', symObjAddr: 0x22D0, symBinAddr: 0x4CDC0, symSize: 0x5C }
  - { offset: 0x26543D, size: 0x8, addend: 0x0, symName: '__ZNKSt3__110__function6__funcIZN19llama_kv_cache_iswaC1ERK11llama_model9ggml_typeS6_bbbbjjjjRKNS_8functionIFbiEEERKNS7_IFiiEEEE3$_1NS_9allocatorISG_EES8_E6targetERKSt9type_info', symObjAddr: 0x232C, symBinAddr: 0x4CE1C, symSize: 0x64 }
  - { offset: 0x2654F1, size: 0x8, addend: 0x0, symName: '__ZNKSt3__110__function6__funcIZN19llama_kv_cache_iswaC1ERK11llama_model9ggml_typeS6_bbbbjjjjRKNS_8functionIFbiEEERKNS7_IFiiEEEE3$_1NS_9allocatorISG_EES8_E11target_typeEv', symObjAddr: 0x2390, symBinAddr: 0x4CE80, symSize: 0xC }
  - { offset: 0x2A42D0, size: 0x8, addend: 0x0, symName: __ZNSt3__135__uninitialized_allocator_copy_implB8ne200100INS_9allocatorINS_6vectorIjNS1_IjEEEEEEPS4_S6_S6_EET2_RT_T0_T1_S7_, symObjAddr: 0xFC74, symBinAddr: 0x5C3B0, symSize: 0xF8 }
  - { offset: 0x2A5500, size: 0x8, addend: 0x0, symName: __ZNSt3__134__uninitialized_allocator_relocateB8ne200100INS_9allocatorIN14llama_kv_cache9slot_infoEEEPS3_EEvRT_T0_S8_S8_, symObjAddr: 0x1178C, symBinAddr: 0x5D97C, symSize: 0xF8 }
  - { offset: 0x2A555B, size: 0x8, addend: 0x0, symName: __ZNSt3__134__uninitialized_allocator_relocateB8ne200100INS_9allocatorIN14llama_kv_cache9slot_infoEEEPS3_EEvRT_T0_S8_S8_, symObjAddr: 0x1178C, symBinAddr: 0x5D97C, symSize: 0xF8 }
  - { offset: 0x2AE825, size: 0x8, addend: 0x0, symName: __ZN14llama_kv_cacheC2ERK11llama_model9ggml_typeS3_bbbjjjj14llama_swa_typeRKNSt3__18functionIFbiEEERKNS6_IFiiEEE, symObjAddr: 0x0, symBinAddr: 0x4D108, symSize: 0x120C }
  - { offset: 0x2B2139, size: 0x8, addend: 0x0, symName: __ZN14llama_kv_cache7prepareERKNSt3__16vectorI12llama_ubatchNS0_9allocatorIS2_EEEE, symObjAddr: 0x351C, symBinAddr: 0x505C8, symSize: 0xF1C }
  - { offset: 0x2B8940, size: 0x8, addend: 0x0, symName: __ZNSt3__16vectorI14llama_kv_cellsNS_9allocatorIS1_EEE8__appendEm, symObjAddr: 0x104B8, symBinAddr: 0x5C908, symSize: 0x25C }
  - { offset: 0x2B90A5, size: 0x8, addend: 0x0, symName: __ZNSt3__16vectorI14llama_kv_cellsNS_9allocatorIS1_EEE20__throw_length_errorB8ne200100Ev, symObjAddr: 0x10714, symBinAddr: 0x5CB64, symSize: 0x14 }
  - { offset: 0x2B90B0, size: 0x8, addend: 0x0, symName: __ZNSt3__19allocatorI14llama_kv_cellsE7destroyB8ne200100EPS1_, symObjAddr: 0x102A0, symBinAddr: 0x5C824, symSize: 0x90 }
  - { offset: 0x2B9714, size: 0x8, addend: 0x0, symName: __ZN14llama_kv_cells6resizeEj, symObjAddr: 0x120C, symBinAddr: 0x4E314, symSize: 0x178 }
  - { offset: 0x2B9BA8, size: 0x8, addend: 0x0, symName: __ZNSt3__16vectorIjNS_9allocatorIjEEE8__appendEmRKj, symObjAddr: 0x1084C, symBinAddr: 0x5CC9C, symSize: 0x1B4 }
  - { offset: 0x2BA112, size: 0x8, addend: 0x0, symName: __ZNSt3__112__hash_tableINS_17__hash_value_typeIiiEENS_22__unordered_map_hasherIiS2_NS_4hashIiEENS_8equal_toIiEELb1EEENS_21__unordered_map_equalIiS2_S7_S5_Lb1EEENS_9allocatorIS2_EEE25__emplace_unique_key_argsIiJRKNS_21piecewise_construct_tENS_5tupleIJOiEEENSI_IJEEEEEENS_4pairINS_15__hash_iteratorIPNS_11__hash_nodeIS2_PvEEEEbEERKT_DpOT0_, symObjAddr: 0x10A48, symBinAddr: 0x5CE50, symSize: 0x328 }
  - { offset: 0x2BA856, size: 0x8, addend: 0x0, symName: __ZNSt3__16vectorIN14llama_kv_cache8kv_layerENS_9allocatorIS2_EEE24__emplace_back_slow_pathIJS2_EEEPS2_DpOT_, symObjAddr: 0x10EF0, symBinAddr: 0x5D2F8, symSize: 0x1D4 }
  - { offset: 0x2BB0A8, size: 0x8, addend: 0x0, symName: __ZNSt3__16vectorIN14llama_kv_cache8kv_layerENS_9allocatorIS2_EEE20__throw_length_errorB8ne200100Ev, symObjAddr: 0x110C4, symBinAddr: 0x5D4CC, symSize: 0x14 }
  - { offset: 0x2BB0BE, size: 0x8, addend: 0x0, symName: __ZNSt3__112__hash_tableINS_17__hash_value_typeIiiEENS_22__unordered_map_hasherIiS2_NS_4hashIiEENS_8equal_toIiEELb1EEENS_21__unordered_map_equalIiS2_S7_S5_Lb1EEENS_9allocatorIS2_EEE25__emplace_unique_key_argsIiJRKNS_21piecewise_construct_tENS_5tupleIJRKiEEENSI_IJEEEEEENS_4pairINS_15__hash_iteratorIPNS_11__hash_nodeIS2_PvEEEEbEERKT_DpOT0_, symObjAddr: 0x110D8, symBinAddr: 0x5D4E0, symSize: 0x328 }
  - { offset: 0x2BB8F1, size: 0x8, addend: 0x0, symName: __ZNSt3__16__treeINS_12__value_typeIP24ggml_backend_buffer_typeNS_10unique_ptrI12ggml_context20ggml_context_deleterEEEENS_19__map_value_compareIS3_S8_ZN14llama_kv_cacheC1ERK11llama_model9ggml_typeSE_bbbjjjj14llama_swa_typeRKNS_8functionIFbiEEERKNSG_IFiiEEEE28ggml_backend_buft_comparatorLb1EEENS_9allocatorIS8_EEE7destroyEPNS_11__tree_nodeIS8_PvEE, symObjAddr: 0x10330, symBinAddr: 0x5C8B4, symSize: 0x54 }
  - { offset: 0x2BBAFD, size: 0x8, addend: 0x0, symName: __ZNSt3__112__hash_tableINS_17__hash_value_typeIiiEENS_22__unordered_map_hasherIiS2_NS_4hashIiEENS_8equal_toIiEELb1EEENS_21__unordered_map_equalIiS2_S7_S5_Lb1EEENS_9allocatorIS2_EEE25__emplace_unique_key_argsIiJRKNS_21piecewise_construct_tENS_5tupleIJOiEEENSI_IJEEEEEENS_4pairINS_15__hash_iteratorIPNS_11__hash_nodeIS2_PvEEEEbEERKT_DpOT0_, symObjAddr: 0x10A48, symBinAddr: 0x5CE50, symSize: 0x328 }
  - { offset: 0x2BBB08, size: 0x8, addend: 0x0, symName: __ZNSt3__16vectorINS_4pairINS_10unique_ptrI12ggml_context20ggml_context_deleterEENS2_I19ggml_backend_buffer27ggml_backend_buffer_deleterEEEENS_9allocatorIS9_EEE20__throw_length_errorB8ne200100Ev, symObjAddr: 0x11400, symBinAddr: 0x5D808, symSize: 0x14 }
  - { offset: 0x2BBB2B, size: 0x8, addend: 0x0, symName: __ZN14llama_kv_cache8kv_layerD1Ev, symObjAddr: 0x1384, symBinAddr: 0x4E48C, symSize: 0x40 }
  - { offset: 0x2BBDB3, size: 0x8, addend: 0x0, symName: __ZNSt3__113unordered_mapIiiNS_4hashIiEENS_8equal_toIiEENS_9allocatorINS_4pairIKiiEEEEED1B8ne200100Ev, symObjAddr: 0x1484, symBinAddr: 0x4E58C, symSize: 0x48 }
  - { offset: 0x2BC046, size: 0x8, addend: 0x0, symName: __ZNSt3__16vectorIN14llama_kv_cache8kv_layerENS_9allocatorIS2_EEED1B8ne200100Ev, symObjAddr: 0x14CC, symBinAddr: 0x4E5D4, symSize: 0x80 }
  - { offset: 0x2BC438, size: 0x8, addend: 0x0, symName: __ZN14llama_kv_cache16stream_copy_infoD1Ev, symObjAddr: 0x154C, symBinAddr: 0x4E654, symSize: 0x40 }
  - { offset: 0x2BC6B4, size: 0x8, addend: 0x0, symName: __ZNSt3__16vectorI14llama_kv_cellsNS_9allocatorIS1_EEED1B8ne200100Ev, symObjAddr: 0x158C, symBinAddr: 0x4E694, symSize: 0x68 }
  - { offset: 0x2BC81D, size: 0x8, addend: 0x0, symName: __ZNSt3__16vectorINS_4pairINS_10unique_ptrI12ggml_context20ggml_context_deleterEENS2_I19ggml_backend_buffer27ggml_backend_buffer_deleterEEEENS_9allocatorIS9_EEED1B8ne200100Ev, symObjAddr: 0x15F4, symBinAddr: 0x4E6FC, symSize: 0x84 }
  - { offset: 0x2BD08C, size: 0x8, addend: 0x0, symName: __ZNSt3__16vectorI17llama_kv_cell_extNS_9allocatorIS1_EEE8__appendEm, symObjAddr: 0xEF8C, symBinAddr: 0x5BCF4, symSize: 0x120 }
  - { offset: 0x2BD4C0, size: 0x8, addend: 0x0, symName: __ZNSt3__16vectorI17llama_kv_cell_extNS_9allocatorIS1_EEE20__throw_length_errorB8ne200100Ev, symObjAddr: 0xF0AC, symBinAddr: 0x5BE14, symSize: 0x14 }
  - { offset: 0x2BD4CB, size: 0x8, addend: 0x0, symName: __ZNSt3__16vectorINS_6bitsetILm256EEENS_9allocatorIS2_EEE8__appendEm, symObjAddr: 0xF0C0, symBinAddr: 0x5BE28, symSize: 0x120 }
  - { offset: 0x2BD936, size: 0x8, addend: 0x0, symName: __ZNSt3__16__treeIjNS_4lessIjEENS_9allocatorIjEEE7destroyEPNS_11__tree_nodeIjPvEE, symObjAddr: 0xF3A0, symBinAddr: 0x5BF48, symSize: 0x44 }
  - { offset: 0x2BDB03, size: 0x8, addend: 0x0, symName: __ZNK14llama_kv_cache12size_k_bytesEv, symObjAddr: 0x13C4, symBinAddr: 0x4E4CC, symSize: 0x64 }
  - { offset: 0x2BDBB1, size: 0x8, addend: 0x0, symName: __ZNK14llama_kv_cache12size_v_bytesEv, symObjAddr: 0x1428, symBinAddr: 0x4E530, symSize: 0x5C }
  - { offset: 0x2BE296, size: 0x8, addend: 0x0, symName: __ZN14llama_kv_cacheC1ERK11llama_model9ggml_typeS3_bbbjjjj14llama_swa_typeRKNSt3__18functionIFbiEEERKNS6_IFiiEEE, symObjAddr: 0x1678, symBinAddr: 0x4E780, symSize: 0x20 }
  - { offset: 0x2BE43D, size: 0x8, addend: 0x0, symName: __ZN14llama_kv_cache5clearEb, symObjAddr: 0x1698, symBinAddr: 0x4E7A0, symSize: 0x148 }
  - { offset: 0x2BEDD2, size: 0x8, addend: 0x0, symName: __ZN14llama_kv_cache6seq_rmEiii, symObjAddr: 0x17E0, symBinAddr: 0x4E8E8, symSize: 0x444 }
  - { offset: 0x2BF98D, size: 0x8, addend: 0x0, symName: __ZN14llama_kv_cells6seq_rmEji, symObjAddr: 0x1C24, symBinAddr: 0x4ED2C, symSize: 0x288 }
  - { offset: 0x2BF9A0, size: 0x8, addend: 0x0, symName: __ZN14llama_kv_cells6seq_rmEji, symObjAddr: 0x1C24, symBinAddr: 0x4ED2C, symSize: 0x288 }
  - { offset: 0x2C00B0, size: 0x8, addend: 0x0, symName: __ZN14llama_kv_cache6seq_cpEiiii, symObjAddr: 0x1EAC, symBinAddr: 0x4EFB4, symSize: 0x638 }
  - { offset: 0x2C0846, size: 0x8, addend: 0x0, symName: __ZN14llama_kv_cache6seq_cpEiiii, symObjAddr: 0x1EAC, symBinAddr: 0x4EFB4, symSize: 0x638 }
  - { offset: 0x2C1D27, size: 0x8, addend: 0x0, symName: __ZN14llama_kv_cells7seq_addEji, symObjAddr: 0x24E4, symBinAddr: 0x4F5EC, symSize: 0x110 }
  - { offset: 0x2C1D32, size: 0x8, addend: 0x0, symName: __ZN14llama_kv_cells7seq_addEji, symObjAddr: 0x24E4, symBinAddr: 0x4F5EC, symSize: 0x110 }
  - { offset: 0x2C20EF, size: 0x8, addend: 0x0, symName: __ZNK14llama_kv_cache8get_sizeEv, symObjAddr: 0x25F4, symBinAddr: 0x4F6FC, symSize: 0x24 }
  - { offset: 0x2C20FA, size: 0x8, addend: 0x0, symName: __ZN14llama_kv_cells7pos_addEji, symObjAddr: 0x2618, symBinAddr: 0x4F720, symSize: 0x144 }
  - { offset: 0x2C252A, size: 0x8, addend: 0x0, symName: __ZNSt3__16vectorI14llama_kv_cellsNS_9allocatorIS1_EEE8__appendEm, symObjAddr: 0x104B8, symBinAddr: 0x5C908, symSize: 0x25C }
  - { offset: 0x2C299D, size: 0x8, addend: 0x0, symName: __ZNK14llama_kv_cache8get_sizeEv, symObjAddr: 0x25F4, symBinAddr: 0x4F6FC, symSize: 0x24 }
  - { offset: 0x2C29CA, size: 0x8, addend: 0x0, symName: __ZNK14llama_kv_cache8get_sizeEv, symObjAddr: 0x25F4, symBinAddr: 0x4F6FC, symSize: 0x24 }
  - { offset: 0x2C2A53, size: 0x8, addend: 0x0, symName: __ZN14llama_kv_cells10seq_pos_rmEj, symObjAddr: 0xF850, symBinAddr: 0x5BF8C, symSize: 0x128 }
  - { offset: 0x2C2E32, size: 0x8, addend: 0x0, symName: __ZN14llama_kv_cells11seq_pos_addEj, symObjAddr: 0xF978, symBinAddr: 0x5C0B4, symSize: 0x11C }
  - { offset: 0x2C3224, size: 0x8, addend: 0x0, symName: __ZN14llama_kv_cache8seq_keepEi, symObjAddr: 0x275C, symBinAddr: 0x4F864, symSize: 0xE4 }
  - { offset: 0x2C33B6, size: 0x8, addend: 0x0, symName: __ZN14llama_kv_cells8seq_keepEji, symObjAddr: 0x2840, symBinAddr: 0x4F948, symSize: 0x25C }
  - { offset: 0x2C33C9, size: 0x8, addend: 0x0, symName: __ZN14llama_kv_cells8seq_keepEji, symObjAddr: 0x2840, symBinAddr: 0x4F948, symSize: 0x25C }
  - { offset: 0x2C3CED, size: 0x8, addend: 0x0, symName: __ZN14llama_kv_cache7seq_addEiiii, symObjAddr: 0x2A9C, symBinAddr: 0x4FBA4, symSize: 0x1F0 }
  - { offset: 0x2C3CF8, size: 0x8, addend: 0x0, symName: __ZN14llama_kv_cache7seq_addEiiii, symObjAddr: 0x2A9C, symBinAddr: 0x4FBA4, symSize: 0x1F0 }
  - { offset: 0x2C3F1C, size: 0x8, addend: 0x0, symName: __ZN14llama_kv_cache7seq_divEiiii, symObjAddr: 0x2C8C, symBinAddr: 0x4FD94, symSize: 0x1F0 }
  - { offset: 0x2C3F6E, size: 0x8, addend: 0x0, symName: __ZN14llama_kv_cache7seq_divEiiii, symObjAddr: 0x2C8C, symBinAddr: 0x4FD94, symSize: 0x1F0 }
  - { offset: 0x2C41CA, size: 0x8, addend: 0x0, symName: __ZNK14llama_kv_cache11seq_pos_minEi, symObjAddr: 0x2E7C, symBinAddr: 0x4FF84, symSize: 0x7C }
  - { offset: 0x2C4247, size: 0x8, addend: 0x0, symName: __ZNK14llama_kv_cache11seq_pos_minEi, symObjAddr: 0x2E7C, symBinAddr: 0x4FF84, symSize: 0x7C }
  - { offset: 0x2C4339, size: 0x8, addend: 0x0, symName: __ZNK14llama_kv_cache11seq_pos_maxEi, symObjAddr: 0x2EF8, symBinAddr: 0x50000, symSize: 0xB8 }
  - { offset: 0x2C43E3, size: 0x8, addend: 0x0, symName: __ZNK14llama_kv_cache11seq_pos_maxEi, symObjAddr: 0x2EF8, symBinAddr: 0x50000, symSize: 0xB8 }
  - { offset: 0x2C4569, size: 0x8, addend: 0x0, symName: __ZNK14llama_kv_cache16memory_breakdownEv, symObjAddr: 0x2FB0, symBinAddr: 0x500B8, symSize: 0x1F8 }
  - { offset: 0x2C4B1C, size: 0x8, addend: 0x0, symName: __ZNK14llama_kv_cache16memory_breakdownEv, symObjAddr: 0x2FB0, symBinAddr: 0x500B8, symSize: 0x1F8 }
  - { offset: 0x2C5A05, size: 0x8, addend: 0x0, symName: __ZN14llama_kv_cache10init_batchER18llama_batch_allocrjb, symObjAddr: 0x31A8, symBinAddr: 0x502B0, symSize: 0x318 }
  - { offset: 0x2C8522, size: 0x8, addend: 0x0, symName: __ZNK14llama_kv_cache9find_slotERK12llama_ubatchb, symObjAddr: 0x47B8, symBinAddr: 0x51708, symSize: 0xC04 }
  - { offset: 0x2CAA97, size: 0x8, addend: 0x0, symName: __ZN14llama_kv_cache9slot_infoC2ERKS0_, symObjAddr: 0xFA94, symBinAddr: 0x5C1D0, symSize: 0x148 }
  - { offset: 0x2CB0F3, size: 0x8, addend: 0x0, symName: __ZNSt3__16vectorIN14llama_kv_cache9slot_infoENS_9allocatorIS2_EEE24__emplace_back_slow_pathIJRKS2_EEEPS2_DpOT_, symObjAddr: 0x1162C, symBinAddr: 0x5D81C, symSize: 0x14C }
  - { offset: 0x2CB4D3, size: 0x8, addend: 0x0, symName: __ZZN14llama_kv_cache7prepareERKNSt3__16vectorI12llama_ubatchNS0_9allocatorIS2_EEEEEN7state_tD1Ev, symObjAddr: 0x54D8, symBinAddr: 0x52428, symSize: 0xD4 }
  - { offset: 0x2CBB83, size: 0x8, addend: 0x0, symName: __ZN14llama_kv_cache12apply_ubatchERKNS_9slot_infoERK12llama_ubatch, symObjAddr: 0x55AC, symBinAddr: 0x524FC, symSize: 0xA2C }
  - { offset: 0x2CD53F, size: 0x8, addend: 0x0, symName: __ZN14llama_kv_cells3setERKNSt3__16vectorIjNS0_9allocatorIjEEEERKS_, symObjAddr: 0x5FD8, symBinAddr: 0x52F28, symSize: 0x250 }
  - { offset: 0x2CD583, size: 0x8, addend: 0x0, symName: __ZN14llama_kv_cells3setERKNSt3__16vectorIjNS0_9allocatorIjEEEERKS_, symObjAddr: 0x5FD8, symBinAddr: 0x52F28, symSize: 0x250 }
  - { offset: 0x2CDC75, size: 0x8, addend: 0x0, symName: __ZNSt3__16vectorI14llama_kv_cellsNS_9allocatorIS1_EEE20__throw_length_errorB8ne200100Ev, symObjAddr: 0x10714, symBinAddr: 0x5CB64, symSize: 0x14 }
  - { offset: 0x2CDC8D, size: 0x8, addend: 0x0, symName: __ZNSt3__19allocatorI14llama_kv_cellsE9constructB8ne200100IS1_JS1_EEEvPT_DpOT0_, symObjAddr: 0x10728, symBinAddr: 0x5CB78, symSize: 0x124 }
  - { offset: 0x2CDC98, size: 0x8, addend: 0x0, symName: __ZNSt3__16vectorIZN14llama_kv_cache7prepareERKNS0_I12llama_ubatchNS_9allocatorIS2_EEEEE7state_tNS3_IS8_EEE20__throw_length_errorB8ne200100Ev, symObjAddr: 0x1193C, symBinAddr: 0x5DB2C, symSize: 0x14 }
  - { offset: 0x2CDCB0, size: 0x8, addend: 0x0, symName: __ZNSt3__113unordered_mapIiNS_6vectorIjNS_9allocatorIjEEEENS_4hashIiEENS_8equal_toIiEENS2_INS_4pairIKiS4_EEEEED1B8ne200100Ev, symObjAddr: 0x11950, symBinAddr: 0x5DB40, symSize: 0x68 }
  - { offset: 0x2CDCBB, size: 0x8, addend: 0x0, symName: __ZN14llama_kv_cache9slot_infoD1Ev, symObjAddr: 0x53BC, symBinAddr: 0x5230C, symSize: 0x84 }
  - { offset: 0x2CE09D, size: 0x8, addend: 0x0, symName: __ZN14llama_kv_cellsD1Ev, symObjAddr: 0x5440, symBinAddr: 0x52390, symSize: 0x98 }
  - { offset: 0x2CE6DE, size: 0x8, addend: 0x0, symName: __ZNSt3__16vectorIZN14llama_kv_cache7prepareERKNS0_I12llama_ubatchNS_9allocatorIS2_EEEEE7state_tNS3_IS8_EEED1B8ne200100Ev, symObjAddr: 0x6228, symBinAddr: 0x53178, symSize: 0x58 }
  - { offset: 0x2CE864, size: 0x8, addend: 0x0, symName: __ZN14llama_kv_cache9init_fullEv, symObjAddr: 0x4594, symBinAddr: 0x514E4, symSize: 0x54 }
  - { offset: 0x2CE90D, size: 0x8, addend: 0x0, symName: __ZN22llama_kv_cache_contextC2EP14llama_kv_cache, symObjAddr: 0xE304, symBinAddr: 0x5B254, symSize: 0x290 }
  - { offset: 0x2CF2D3, size: 0x8, addend: 0x0, symName: __ZN14llama_kv_cache11init_updateEP13llama_contextb, symObjAddr: 0x45E8, symBinAddr: 0x51538, symSize: 0x138 }
  - { offset: 0x2CF5C3, size: 0x8, addend: 0x0, symName: __ZNK14llama_kv_cache13get_has_shiftEv, symObjAddr: 0x4720, symBinAddr: 0x51670, symSize: 0x98 }
  - { offset: 0x2CFCAD, size: 0x8, addend: 0x0, symName: __ZNSt3__16vectorINS0_IjNS_9allocatorIjEEEENS1_IS3_EEE8__appendEm, symObjAddr: 0x10120, symBinAddr: 0x5C6A4, symSize: 0x180 }
  - { offset: 0x2D00F0, size: 0x8, addend: 0x0, symName: __ZNSt3__19allocatorI14llama_kv_cellsE7destroyB8ne200100EPS1_, symObjAddr: 0x102A0, symBinAddr: 0x5C824, symSize: 0x90 }
  - { offset: 0x2D0296, size: 0x8, addend: 0x0, symName: __ZN14llama_kv_cache6updateEP13llama_contextbRKNS_16stream_copy_infoE, symObjAddr: 0x6280, symBinAddr: 0x531D0, symSize: 0x2F0 }
  - { offset: 0x2D0664, size: 0x8, addend: 0x0, symName: __ZNK14llama_kv_cache17build_graph_shiftEP16llm_graph_resultP13llama_context, symObjAddr: 0x6570, symBinAddr: 0x534C0, symSize: 0x2D0 }
  - { offset: 0x2D06A5, size: 0x8, addend: 0x0, symName: __ZNK14llama_kv_cache17build_graph_shiftEP16llm_graph_resultP13llama_context, symObjAddr: 0x6570, symBinAddr: 0x534C0, symSize: 0x2D0 }
  - { offset: 0x2D0EF3, size: 0x8, addend: 0x0, symName: __ZNK14llama_kv_cache16build_rope_shiftERK13llama_cparamsP12ggml_contextP11ggml_tensorS6_S6_ff, symObjAddr: 0xC284, symBinAddr: 0x591D4, symSize: 0x110 }
  - { offset: 0x2D108F, size: 0x8, addend: 0x0, symName: __ZNK14llama_kv_cache13get_can_shiftEv, symObjAddr: 0x6840, symBinAddr: 0x53790, symSize: 0x8 }
  - { offset: 0x2D10B5, size: 0x8, addend: 0x0, symName: __ZNK14llama_kv_cache12get_n_streamEv, symObjAddr: 0x6848, symBinAddr: 0x53798, symSize: 0x8 }
  - { offset: 0x2D10D7, size: 0x8, addend: 0x0, symName: __ZNK14llama_kv_cache8get_n_kvERKNS_9slot_infoE, symObjAddr: 0x6850, symBinAddr: 0x537A0, symSize: 0xCC }
  - { offset: 0x2D1116, size: 0x8, addend: 0x0, symName: __ZNK14llama_kv_cache8get_n_kvERKNS_9slot_infoE, symObjAddr: 0x6850, symBinAddr: 0x537A0, symSize: 0xCC }
  - { offset: 0x2D1134, size: 0x8, addend: 0x0, symName: __ZNK14llama_kv_cache8get_n_kvERKNS_9slot_infoE, symObjAddr: 0x6850, symBinAddr: 0x537A0, symSize: 0xCC }
  - { offset: 0x2D1151, size: 0x8, addend: 0x0, symName: __ZNK14llama_kv_cache8get_n_kvERKNS_9slot_infoE, symObjAddr: 0x6850, symBinAddr: 0x537A0, symSize: 0xCC }
  - { offset: 0x2D13C9, size: 0x8, addend: 0x0, symName: __ZNK14llama_kv_cache5get_kEP12ggml_contextijRKNS_9slot_infoE, symObjAddr: 0x691C, symBinAddr: 0x5386C, symSize: 0x200 }
  - { offset: 0x2D1755, size: 0x8, addend: 0x0, symName: __ZNK14llama_kv_cache5get_vEP12ggml_contextijRKNS_9slot_infoE, symObjAddr: 0x6B1C, symBinAddr: 0x53A6C, symSize: 0x294 }
  - { offset: 0x2D17A0, size: 0x8, addend: 0x0, symName: __ZNK14llama_kv_cache5get_vEP12ggml_contextijRKNS_9slot_infoE, symObjAddr: 0x6B1C, symBinAddr: 0x53A6C, symSize: 0x294 }
  - { offset: 0x2D1B44, size: 0x8, addend: 0x0, symName: __ZNK14llama_kv_cache5cpy_kEP12ggml_contextP11ggml_tensorS3_iRKNS_9slot_infoE, symObjAddr: 0x6DB0, symBinAddr: 0x53D00, symSize: 0x1F8 }
  - { offset: 0x2D1B4F, size: 0x8, addend: 0x0, symName: __ZNK14llama_kv_cache5cpy_kEP12ggml_contextP11ggml_tensorS3_iRKNS_9slot_infoE, symObjAddr: 0x6DB0, symBinAddr: 0x53D00, symSize: 0x1F8 }
  - { offset: 0x2D1F16, size: 0x8, addend: 0x0, symName: __ZNK14llama_kv_cache5cpy_vEP12ggml_contextP11ggml_tensorS3_iRKNS_9slot_infoE, symObjAddr: 0x6FA8, symBinAddr: 0x53EF8, symSize: 0x2D0 }
  - { offset: 0x2D1F6D, size: 0x8, addend: 0x0, symName: __ZNK14llama_kv_cache5cpy_vEP12ggml_contextP11ggml_tensorS3_iRKNS_9slot_infoE, symObjAddr: 0x6FA8, symBinAddr: 0x53EF8, symSize: 0x2D0 }
  - { offset: 0x2D2433, size: 0x8, addend: 0x0, symName: __ZNK14llama_kv_cache18build_input_k_idxsEP12ggml_contextRK12llama_ubatch, symObjAddr: 0x7278, symBinAddr: 0x541C8, symSize: 0x34 }
  - { offset: 0x2D24A7, size: 0x8, addend: 0x0, symName: __ZNK14llama_kv_cache18build_input_k_idxsEP12ggml_contextRK12llama_ubatch, symObjAddr: 0x7278, symBinAddr: 0x541C8, symSize: 0x34 }
  - { offset: 0x2D2512, size: 0x8, addend: 0x0, symName: __ZNK14llama_kv_cache18build_input_v_idxsEP12ggml_contextRK12llama_ubatch, symObjAddr: 0x72AC, symBinAddr: 0x541FC, symSize: 0x54 }
  - { offset: 0x2D2585, size: 0x8, addend: 0x0, symName: __ZNK14llama_kv_cache16set_input_k_idxsEP11ggml_tensorPK12llama_ubatchRKNS_9slot_infoE, symObjAddr: 0x7300, symBinAddr: 0x54250, symSize: 0x33C }
  - { offset: 0x2D272B, size: 0x8, addend: 0x0, symName: __ZNK14llama_kv_cache16set_input_v_idxsEP11ggml_tensorPK12llama_ubatchRKNS_9slot_infoE, symObjAddr: 0x763C, symBinAddr: 0x5458C, symSize: 0x538 }
  - { offset: 0x2D2750, size: 0x8, addend: 0x0, symName: __ZNK14llama_kv_cache16set_input_v_idxsEP11ggml_tensorPK12llama_ubatchRKNS_9slot_infoE, symObjAddr: 0x763C, symBinAddr: 0x5458C, symSize: 0x538 }
  - { offset: 0x2D2A2F, size: 0x8, addend: 0x0, symName: __ZNK14llama_kv_cache17set_input_k_shiftEP11ggml_tensor, symObjAddr: 0x7B74, symBinAddr: 0x54AC4, symSize: 0xF0 }
  - { offset: 0x2D2A42, size: 0x8, addend: 0x0, symName: __ZNK14llama_kv_cache17set_input_k_shiftEP11ggml_tensor, symObjAddr: 0x7B74, symBinAddr: 0x54AC4, symSize: 0xF0 }
  - { offset: 0x2D2B64, size: 0x8, addend: 0x0, symName: __ZNK14llama_kv_cache17set_input_kq_maskEP11ggml_tensorPK12llama_ubatchb, symObjAddr: 0x7C64, symBinAddr: 0x54BB4, symSize: 0x4478 }
  - { offset: 0x2D553D, size: 0x8, addend: 0x0, symName: __ZNK14llama_kv_cache17set_input_kq_maskEP11ggml_tensorPK12llama_ubatchb, symObjAddr: 0x7C64, symBinAddr: 0x54BB4, symSize: 0x4478 }
  - { offset: 0x2E54DC, size: 0x8, addend: 0x0, symName: __ZNSt3__112__hash_tableINS_17__hash_value_typeIiNS_6vectorIjNS_9allocatorIjEEEEEENS_22__unordered_map_hasherIiS6_NS_4hashIiEENS_8equal_toIiEELb1EEENS_21__unordered_map_equalIiS6_SB_S9_Lb1EEENS3_IS6_EEE25__emplace_unique_key_argsIiJRKNS_21piecewise_construct_tENS_5tupleIJRKiEEENSL_IJEEEEEENS_4pairINS_15__hash_iteratorIPNS_11__hash_nodeIS6_PvEEEEbEERKT_DpOT0_, symObjAddr: 0x11A14, symBinAddr: 0x5DC04, symSize: 0x338 }
  - { offset: 0x2E5C14, size: 0x8, addend: 0x0, symName: __ZNSt3__112__hash_tableINS_17__hash_value_typeIijEENS_22__unordered_map_hasherIiS2_NS_4hashIiEENS_8equal_toIiEELb1EEENS_21__unordered_map_equalIiS2_S7_S5_Lb1EEENS_9allocatorIS2_EEE25__emplace_unique_key_argsIiJRKNS_21piecewise_construct_tENS_5tupleIJRKiEEENSI_IJEEEEEENS_4pairINS_15__hash_iteratorIPNS_11__hash_nodeIS2_PvEEEEbEERKT_DpOT0_, symObjAddr: 0x11F2C, symBinAddr: 0x5E11C, symSize: 0x328 }
  - { offset: 0x2E6358, size: 0x8, addend: 0x0, symName: __ZNSt3__16vectorI14llama_kv_cellsNS_9allocatorIS1_EEE20__throw_out_of_rangeB8ne200100Ev, symObjAddr: 0x11A00, symBinAddr: 0x5DBF0, symSize: 0x14 }
  - { offset: 0x2E6370, size: 0x8, addend: 0x0, symName: __ZNSt3__112__hash_tableINS_17__hash_value_typeIiNS_6vectorIjNS_9allocatorIjEEEEEENS_22__unordered_map_hasherIiS6_NS_4hashIiEENS_8equal_toIiEELb1EEENS_21__unordered_map_equalIiS6_SB_S9_Lb1EEENS3_IS6_EEE25__emplace_unique_key_argsIiJRKNS_21piecewise_construct_tENS_5tupleIJRKiEEENSL_IJEEEEEENS_4pairINS_15__hash_iteratorIPNS_11__hash_nodeIS6_PvEEEEbEERKT_DpOT0_, symObjAddr: 0x11A14, symBinAddr: 0x5DC04, symSize: 0x338 }
  - { offset: 0x2E637B, size: 0x8, addend: 0x0, symName: __ZNSt3__113unordered_mapIiNS_6vectorIjNS_9allocatorIjEEEENS_4hashIiEENS_8equal_toIiEENS2_INS_4pairIKiS4_EEEEED1B8ne200100Ev, symObjAddr: 0x11950, symBinAddr: 0x5DB40, symSize: 0x68 }
  - { offset: 0x2E6796, size: 0x8, addend: 0x0, symName: __ZNSt3__113unordered_mapIijNS_4hashIiEENS_8equal_toIiEENS_9allocatorINS_4pairIKijEEEEED1B8ne200100Ev, symObjAddr: 0x119B8, symBinAddr: 0x5DBA8, symSize: 0x48 }
  - { offset: 0x2E6A3F, size: 0x8, addend: 0x0, symName: __ZNK14llama_kv_cache20set_input_pos_bucketEP11ggml_tensorPK12llama_ubatch, symObjAddr: 0xC0DC, symBinAddr: 0x5902C, symSize: 0x144 }
  - { offset: 0x2E6C04, size: 0x8, addend: 0x0, symName: __ZNK14llama_kv_cache10total_sizeEv, symObjAddr: 0xC220, symBinAddr: 0x59170, symSize: 0x64 }
  - { offset: 0x2E6C3C, size: 0x8, addend: 0x0, symName: __ZNK14llama_kv_cache10total_sizeEv, symObjAddr: 0xC220, symBinAddr: 0x59170, symSize: 0x64 }
  - { offset: 0x2E6E7D, size: 0x8, addend: 0x0, symName: __ZN23llm_graph_input_k_shift9set_inputEPK12llama_ubatch, symObjAddr: 0xC394, symBinAddr: 0x592E4, symSize: 0xF4 }
  - { offset: 0x2E6FB4, size: 0x8, addend: 0x0, symName: __ZNK14llama_kv_cache11state_writeER16llama_io_write_iij, symObjAddr: 0xC488, symBinAddr: 0x593D8, symSize: 0x4C0 }
  - { offset: 0x2E773D, size: 0x8, addend: 0x0, symName: __ZNK14llama_kv_cache11state_writeER16llama_io_write_iij, symObjAddr: 0xC488, symBinAddr: 0x593D8, symSize: 0x4C0 }
  - { offset: 0x2E8437, size: 0x8, addend: 0x0, symName: __ZNK14llama_kv_cache16state_write_metaER16llama_io_write_iRKNS_13cell_ranges_tEi, symObjAddr: 0xC948, symBinAddr: 0x59898, symSize: 0x27C }
  - { offset: 0x2E8BEF, size: 0x8, addend: 0x0, symName: __ZNK14llama_kv_cache16state_write_dataER16llama_io_write_iRKNS_13cell_ranges_tE, symObjAddr: 0xCBC4, symBinAddr: 0x59B14, symSize: 0x384 }
  - { offset: 0x2E9410, size: 0x8, addend: 0x0, symName: __ZNSt3__16vectorINS_4pairIjjEENS_9allocatorIS2_EEE20__throw_length_errorB8ne200100Ev, symObjAddr: 0x123D4, symBinAddr: 0x5E5C4, symSize: 0x14 }
  - { offset: 0x2E9428, size: 0x8, addend: 0x0, symName: __ZNSt3__16vectorIN14llama_kv_cache9slot_infoENS_9allocatorIS2_EEE8__appendEm, symObjAddr: 0x123E8, symBinAddr: 0x5E5D8, symSize: 0x1D8 }
  - { offset: 0x2E9719, size: 0x8, addend: 0x0, symName: __ZN14llama_kv_cache10state_readER15llama_io_read_iij, symObjAddr: 0xCF48, symBinAddr: 0x59E98, symSize: 0x29C }
  - { offset: 0x2E9D9F, size: 0x8, addend: 0x0, symName: __ZN14llama_kv_cache15state_read_metaER15llama_io_read_ijjRNS_9slot_infoEi, symObjAddr: 0xD1E4, symBinAddr: 0x5A134, symSize: 0x7D4 }
  - { offset: 0x2EAF6B, size: 0x8, addend: 0x0, symName: __ZN14llama_kv_cache15state_read_dataER15llama_io_read_ijjRKNS_9slot_infoE, symObjAddr: 0xD9B8, symBinAddr: 0x5A908, symSize: 0x8DC }
  - { offset: 0x2EBBD8, size: 0x8, addend: 0x0, symName: __ZN22llama_kv_cache_contextC2E19llama_memory_status, symObjAddr: 0xE294, symBinAddr: 0x5B1E4, symSize: 0x38 }
  - { offset: 0x2EC8AC, size: 0x8, addend: 0x0, symName: __ZN22llama_kv_cache_contextC2E19llama_memory_status, symObjAddr: 0xE294, symBinAddr: 0x5B1E4, symSize: 0x38 }
  - { offset: 0x2EC950, size: 0x8, addend: 0x0, symName: __ZN22llama_kv_cache_contextC1E19llama_memory_status, symObjAddr: 0xE2CC, symBinAddr: 0x5B21C, symSize: 0x38 }
  - { offset: 0x2EC979, size: 0x8, addend: 0x0, symName: __ZN22llama_kv_cache_contextC1E19llama_memory_status, symObjAddr: 0xE2CC, symBinAddr: 0x5B21C, symSize: 0x38 }
  - { offset: 0x2ECBA6, size: 0x8, addend: 0x0, symName: __ZNSt3__16vectorIN14llama_kv_cache9slot_infoENS_9allocatorIS2_EEE6resizeEm, symObjAddr: 0xE594, symBinAddr: 0x5B4E4, symSize: 0xF0 }
  - { offset: 0x2ED0AD, size: 0x8, addend: 0x0, symName: __ZNSt3__16vectorIN14llama_kv_cache9slot_infoENS_9allocatorIS2_EEE8__appendEm, symObjAddr: 0x123E8, symBinAddr: 0x5E5D8, symSize: 0x1D8 }
  - { offset: 0x2ED5F4, size: 0x8, addend: 0x0, symName: __ZN22llama_kv_cache_contextC1EP14llama_kv_cache, symObjAddr: 0xE684, symBinAddr: 0x5B5D4, symSize: 0x4 }
  - { offset: 0x2ED61E, size: 0x8, addend: 0x0, symName: __ZN22llama_kv_cache_contextC1EP14llama_kv_cache, symObjAddr: 0xE684, symBinAddr: 0x5B5D4, symSize: 0x4 }
  - { offset: 0x2ED638, size: 0x8, addend: 0x0, symName: __ZN22llama_kv_cache_contextC2EP14llama_kv_cacheP13llama_contextbNS0_16stream_copy_infoE, symObjAddr: 0xE688, symBinAddr: 0x5B5D8, symSize: 0x8C }
  - { offset: 0x2ED7D7, size: 0x8, addend: 0x0, symName: __ZN22llama_kv_cache_contextC1EP14llama_kv_cacheP13llama_contextbNS0_16stream_copy_infoE, symObjAddr: 0xE714, symBinAddr: 0x5B664, symSize: 0x8C }
  - { offset: 0x2ED9AE, size: 0x8, addend: 0x0, symName: __ZN22llama_kv_cache_contextC2EP14llama_kv_cacheNSt3__16vectorINS0_9slot_infoENS2_9allocatorIS4_EEEENS3_I12llama_ubatchNS5_IS8_EEEE, symObjAddr: 0xE7A0, symBinAddr: 0x5B6F0, symSize: 0x6C }
  - { offset: 0x2EDAFE, size: 0x8, addend: 0x0, symName: __ZN22llama_kv_cache_contextC1EP14llama_kv_cacheNSt3__16vectorINS0_9slot_infoENS2_9allocatorIS4_EEEENS3_I12llama_ubatchNS5_IS8_EEEE, symObjAddr: 0xE80C, symBinAddr: 0x5B75C, symSize: 0x6C }
  - { offset: 0x2EDB37, size: 0x8, addend: 0x0, symName: __ZN22llama_kv_cache_contextC1EP14llama_kv_cacheNSt3__16vectorINS0_9slot_infoENS2_9allocatorIS4_EEEENS3_I12llama_ubatchNS5_IS8_EEEE, symObjAddr: 0xE80C, symBinAddr: 0x5B75C, symSize: 0x6C }
  - { offset: 0x2EDC9E, size: 0x8, addend: 0x0, symName: __ZN22llama_kv_cache_contextD2Ev, symObjAddr: 0xE878, symBinAddr: 0x5B7C8, symSize: 0x158 }
  - { offset: 0x2EE6DC, size: 0x8, addend: 0x0, symName: __ZN22llama_kv_cache_contextD1Ev, symObjAddr: 0xE9D0, symBinAddr: 0x5B920, symSize: 0x4 }
  - { offset: 0x2EE6FF, size: 0x8, addend: 0x0, symName: __ZN22llama_kv_cache_contextD1Ev, symObjAddr: 0xE9D0, symBinAddr: 0x5B920, symSize: 0x4 }
  - { offset: 0x2EE72F, size: 0x8, addend: 0x0, symName: __ZN22llama_kv_cache_contextD0Ev, symObjAddr: 0xE9D4, symBinAddr: 0x5B924, symSize: 0x14 }
  - { offset: 0x2EE78D, size: 0x8, addend: 0x0, symName: __ZN22llama_kv_cache_context4nextEv, symObjAddr: 0xE9E8, symBinAddr: 0x5B938, symSize: 0x38 }
  - { offset: 0x2EE868, size: 0x8, addend: 0x0, symName: __ZN22llama_kv_cache_context5applyEv, symObjAddr: 0xEA20, symBinAddr: 0x5B970, symSize: 0x13C }
  - { offset: 0x2EEB61, size: 0x8, addend: 0x0, symName: __ZNK22llama_kv_cache_context10get_statusEv, symObjAddr: 0xEB5C, symBinAddr: 0x5BAAC, symSize: 0x8 }
  - { offset: 0x2EEBAD, size: 0x8, addend: 0x0, symName: __ZNK22llama_kv_cache_context10get_ubatchEv, symObjAddr: 0xEB64, symBinAddr: 0x5BAB4, symSize: 0x14 }
  - { offset: 0x2EEBFE, size: 0x8, addend: 0x0, symName: __ZNK22llama_kv_cache_context8get_n_kvEv, symObjAddr: 0xEB78, symBinAddr: 0x5BAC8, symSize: 0x8 }
  - { offset: 0x2EEC4A, size: 0x8, addend: 0x0, symName: __ZNK22llama_kv_cache_context5get_kEP12ggml_contexti, symObjAddr: 0xEB80, symBinAddr: 0x5BAD0, symSize: 0x1C }
  - { offset: 0x2EECD4, size: 0x8, addend: 0x0, symName: __ZNK22llama_kv_cache_context5get_vEP12ggml_contexti, symObjAddr: 0xEB9C, symBinAddr: 0x5BAEC, symSize: 0x1C }
  - { offset: 0x2EED5E, size: 0x8, addend: 0x0, symName: __ZNK22llama_kv_cache_context5cpy_kEP12ggml_contextP11ggml_tensorS3_i, symObjAddr: 0xEBB8, symBinAddr: 0x5BB08, symSize: 0x8 }
  - { offset: 0x2EEDEB, size: 0x8, addend: 0x0, symName: __ZNK22llama_kv_cache_context5cpy_vEP12ggml_contextP11ggml_tensorS3_i, symObjAddr: 0xEBC0, symBinAddr: 0x5BB10, symSize: 0x8 }
  - { offset: 0x2EEEC1, size: 0x8, addend: 0x0, symName: __ZNK22llama_kv_cache_context18build_input_k_idxsEP12ggml_contextRK12llama_ubatch, symObjAddr: 0xEBC8, symBinAddr: 0x5BB18, symSize: 0x34 }
  - { offset: 0x2EEFAD, size: 0x8, addend: 0x0, symName: __ZNK22llama_kv_cache_context18build_input_v_idxsEP12ggml_contextRK12llama_ubatch, symObjAddr: 0xEBFC, symBinAddr: 0x5BB4C, symSize: 0x58 }
  - { offset: 0x2EF05E, size: 0x8, addend: 0x0, symName: __ZNK22llama_kv_cache_context17set_input_k_shiftEP11ggml_tensor, symObjAddr: 0xEC54, symBinAddr: 0x5BBA4, symSize: 0xF0 }
  - { offset: 0x2EF19A, size: 0x8, addend: 0x0, symName: __ZNK22llama_kv_cache_context16set_input_k_idxsEP11ggml_tensorPK12llama_ubatch, symObjAddr: 0xED44, symBinAddr: 0x5BC94, symSize: 0x18 }
  - { offset: 0x2EF1AD, size: 0x8, addend: 0x0, symName: __ZNK22llama_kv_cache_context16set_input_k_idxsEP11ggml_tensorPK12llama_ubatch, symObjAddr: 0xED44, symBinAddr: 0x5BC94, symSize: 0x18 }
  - { offset: 0x2EF237, size: 0x8, addend: 0x0, symName: __ZNK22llama_kv_cache_context16set_input_v_idxsEP11ggml_tensorPK12llama_ubatch, symObjAddr: 0xED5C, symBinAddr: 0x5BCAC, symSize: 0x18 }
  - { offset: 0x2EF2C1, size: 0x8, addend: 0x0, symName: __ZNK22llama_kv_cache_context17set_input_kq_maskEP11ggml_tensorPK12llama_ubatchb, symObjAddr: 0xED74, symBinAddr: 0x5BCC4, symSize: 0x8 }
  - { offset: 0x2EF33E, size: 0x8, addend: 0x0, symName: __ZNK22llama_kv_cache_context20set_input_pos_bucketEP11ggml_tensorPK12llama_ubatch, symObjAddr: 0xED7C, symBinAddr: 0x5BCCC, symSize: 0x8 }
  - { offset: 0x2EF3A1, size: 0x8, addend: 0x0, symName: __ZN14llama_kv_cacheD1Ev, symObjAddr: 0xED84, symBinAddr: 0x5BCD4, symSize: 0x4 }
  - { offset: 0x2EF3C4, size: 0x8, addend: 0x0, symName: __ZN14llama_kv_cacheD1Ev, symObjAddr: 0xED84, symBinAddr: 0x5BCD4, symSize: 0x4 }
  - { offset: 0x2EF3D7, size: 0x8, addend: 0x0, symName: __ZN14llama_kv_cacheD2Ev, symObjAddr: 0xFF90, symBinAddr: 0x5C514, symSize: 0x190 }
  - { offset: 0x2F03A9, size: 0x8, addend: 0x0, symName: __ZN14llama_kv_cacheD0Ev, symObjAddr: 0xED88, symBinAddr: 0x5BCD8, symSize: 0x14 }
  - { offset: 0x2F0403, size: 0x8, addend: 0x0, symName: __ZN23llm_graph_input_k_shiftD1Ev, symObjAddr: 0xED9C, symBinAddr: 0x5BCEC, symSize: 0x4 }
  - { offset: 0x2F042C, size: 0x8, addend: 0x0, symName: __ZN23llm_graph_input_k_shiftD0Ev, symObjAddr: 0xEDA0, symBinAddr: 0x5BCF0, symSize: 0x4 }
  - { offset: 0x2F082B, size: 0x8, addend: 0x0, symName: __ZNSt3__16vectorI17llama_kv_cell_extNS_9allocatorIS1_EEE20__throw_length_errorB8ne200100Ev, symObjAddr: 0xF0AC, symBinAddr: 0x5BE14, symSize: 0x14 }
  - { offset: 0x2F0843, size: 0x8, addend: 0x0, symName: __ZNSt3__16vectorINS_6bitsetILm256EEENS_9allocatorIS2_EEE8__appendEm, symObjAddr: 0xF0C0, symBinAddr: 0x5BE28, symSize: 0x120 }
  - { offset: 0x2F0F53, size: 0x8, addend: 0x0, symName: __ZNSt3__16vectorINS0_IjNS_9allocatorIjEEEENS1_IS3_EEE20__throw_length_errorB8ne200100Ev, symObjAddr: 0xFC60, symBinAddr: 0x5C39C, symSize: 0x14 }
  - { offset: 0x2F0F6B, size: 0x8, addend: 0x0, symName: __ZNSt3__135__uninitialized_allocator_copy_implB8ne200100INS_9allocatorINS_6vectorIjNS1_IjEEEEEEPS4_S6_S6_EET2_RT_T0_T1_S7_, symObjAddr: 0xFC74, symBinAddr: 0x5C3B0, symSize: 0xF8 }
  - { offset: 0x2F0F76, size: 0x8, addend: 0x0, symName: __ZNSt3__128__exception_guard_exceptionsINS_6vectorINS1_IjNS_9allocatorIjEEEENS2_IS4_EEE16__destroy_vectorEED1B8ne200100Ev, symObjAddr: 0xFBDC, symBinAddr: 0x5C318, symSize: 0x84 }
  - { offset: 0x2F12A3, size: 0x8, addend: 0x0, symName: __ZNSt3__128__exception_guard_exceptionsINS_29_AllocatorDestroyRangeReverseINS_9allocatorINS_6vectorIjNS2_IjEEEEEEPS5_EEED1B8ne200100Ev, symObjAddr: 0xFD6C, symBinAddr: 0x5C4A8, symSize: 0x6C }
  - { offset: 0x2F243D, size: 0x8, addend: 0x0, symName: __ZNSt3__19allocatorI14llama_kv_cellsE9constructB8ne200100IS1_JS1_EEEvPT_DpOT0_, symObjAddr: 0x10728, symBinAddr: 0x5CB78, symSize: 0x124 }
  - { offset: 0x2F246D, size: 0x8, addend: 0x0, symName: __ZNSt3__19allocatorI14llama_kv_cellsE9constructB8ne200100IS1_JS1_EEEvPT_DpOT0_, symObjAddr: 0x10728, symBinAddr: 0x5CB78, symSize: 0x124 }
  - { offset: 0x2F248F, size: 0x8, addend: 0x0, symName: __ZNSt3__19allocatorI14llama_kv_cellsE9constructB8ne200100IS1_JS1_EEEvPT_DpOT0_, symObjAddr: 0x10728, symBinAddr: 0x5CB78, symSize: 0x124 }
  - { offset: 0x2F2C5D, size: 0x8, addend: 0x0, symName: __ZNSt3__112__hash_tableINS_17__hash_value_typeIiiEENS_22__unordered_map_hasherIiS2_NS_4hashIiEENS_8equal_toIiEELb1EEENS_21__unordered_map_equalIiS2_S7_S5_Lb1EEENS_9allocatorIS2_EEE11__do_rehashILb1EEEvm, symObjAddr: 0x10D70, symBinAddr: 0x5D178, symSize: 0x180 }
  - { offset: 0x2F2FEA, size: 0x8, addend: 0x0, symName: __ZNSt3__16vectorIN14llama_kv_cache8kv_layerENS_9allocatorIS2_EEE24__emplace_back_slow_pathIJS2_EEEPS2_DpOT_, symObjAddr: 0x10EF0, symBinAddr: 0x5D2F8, symSize: 0x1D4 }
  - { offset: 0x2F31EB, size: 0x8, addend: 0x0, symName: __ZNSt3__16vectorIN14llama_kv_cache8kv_layerENS_9allocatorIS2_EEE20__throw_length_errorB8ne200100Ev, symObjAddr: 0x110C4, symBinAddr: 0x5D4CC, symSize: 0x14 }
  - { offset: 0x2F3203, size: 0x8, addend: 0x0, symName: __ZNSt3__112__hash_tableINS_17__hash_value_typeIiiEENS_22__unordered_map_hasherIiS2_NS_4hashIiEENS_8equal_toIiEELb1EEENS_21__unordered_map_equalIiS2_S7_S5_Lb1EEENS_9allocatorIS2_EEE25__emplace_unique_key_argsIiJRKNS_21piecewise_construct_tENS_5tupleIJRKiEEENSI_IJEEEEEENS_4pairINS_15__hash_iteratorIPNS_11__hash_nodeIS2_PvEEEEbEERKT_DpOT0_, symObjAddr: 0x110D8, symBinAddr: 0x5D4E0, symSize: 0x328 }
  - { offset: 0x2F3523, size: 0x8, addend: 0x0, symName: __ZNSt3__16vectorIN14llama_kv_cache9slot_infoENS_9allocatorIS2_EEE24__emplace_back_slow_pathIJRKS2_EEEPS2_DpOT_, symObjAddr: 0x1162C, symBinAddr: 0x5D81C, symSize: 0x14C }
  - { offset: 0x2F369C, size: 0x8, addend: 0x0, symName: __ZNSt3__16vectorIN14llama_kv_cache9slot_infoENS_9allocatorIS2_EEE20__throw_length_errorB8ne200100Ev, symObjAddr: 0x11778, symBinAddr: 0x5D968, symSize: 0x14 }
  - { offset: 0x2F36B4, size: 0x8, addend: 0x0, symName: __ZNSt3__134__uninitialized_allocator_relocateB8ne200100INS_9allocatorIN14llama_kv_cache9slot_infoEEEPS3_EEvRT_T0_S8_S8_, symObjAddr: 0x1178C, symBinAddr: 0x5D97C, symSize: 0xF8 }
  - { offset: 0x2F36BF, size: 0x8, addend: 0x0, symName: __ZNSt3__114__split_bufferIN14llama_kv_cache9slot_infoERNS_9allocatorIS2_EEED2Ev, symObjAddr: 0x11884, symBinAddr: 0x5DA74, symSize: 0xB8 }
  - { offset: 0x2F41CA, size: 0x8, addend: 0x0, symName: __ZNSt3__112__hash_tableINS_17__hash_value_typeIiNS_6vectorIjNS_9allocatorIjEEEEEENS_22__unordered_map_hasherIiS6_NS_4hashIiEENS_8equal_toIiEELb1EEENS_21__unordered_map_equalIiS6_SB_S9_Lb1EEENS3_IS6_EEE11__do_rehashILb1EEEvm, symObjAddr: 0x11DAC, symBinAddr: 0x5DF9C, symSize: 0x180 }
  - { offset: 0x2F4557, size: 0x8, addend: 0x0, symName: __ZNSt3__112__hash_tableINS_17__hash_value_typeIijEENS_22__unordered_map_hasherIiS2_NS_4hashIiEENS_8equal_toIiEELb1EEENS_21__unordered_map_equalIiS2_S7_S5_Lb1EEENS_9allocatorIS2_EEE25__emplace_unique_key_argsIiJRKNS_21piecewise_construct_tENS_5tupleIJRKiEEENSI_IJEEEEEENS_4pairINS_15__hash_iteratorIPNS_11__hash_nodeIS2_PvEEEEbEERKT_DpOT0_, symObjAddr: 0x11F2C, symBinAddr: 0x5E11C, symSize: 0x328 }
  - { offset: 0x2F456C, size: 0x8, addend: 0x0, symName: __ZNSt3__110unique_ptrINS_11__hash_nodeINS_17__hash_value_typeIiNS_6vectorIjNS_9allocatorIjEEEEEEPvEENS_22__hash_node_destructorINS4_IS9_EEEEED1B8ne200100Ev, symObjAddr: 0x11D4C, symBinAddr: 0x5DF3C, symSize: 0x60 }
  - { offset: 0x2F4D81, size: 0x8, addend: 0x0, symName: __ZNSt3__112__hash_tableINS_17__hash_value_typeIijEENS_22__unordered_map_hasherIiS2_NS_4hashIiEENS_8equal_toIiEELb1EEENS_21__unordered_map_equalIiS2_S7_S5_Lb1EEENS_9allocatorIS2_EEE11__do_rehashILb1EEEvm, symObjAddr: 0x12254, symBinAddr: 0x5E444, symSize: 0x180 }
  - { offset: 0x2F510E, size: 0x8, addend: 0x0, symName: __ZNSt3__16vectorINS_4pairIjjEENS_9allocatorIS2_EEE20__throw_length_errorB8ne200100Ev, symObjAddr: 0x123D4, symBinAddr: 0x5E5C4, symSize: 0x14 }
  - { offset: 0x2F719A, size: 0x8, addend: 0x0, symName: __ZN24llama_memory_hybrid_iswaC2ERK11llama_model9ggml_typeS3_bbjjjS3_S3_jjbbRKNSt3__18functionIFbiEEES9_, symObjAddr: 0x0, symBinAddr: 0x5E7B0, symSize: 0x340 }
  - { offset: 0x322AD8, size: 0x8, addend: 0x0, symName: __ZNSt3__111make_uniqueB8ne200100I32llama_memory_hybrid_iswa_contextJP24llama_memory_hybrid_iswaNS_6vectorIN14llama_kv_cache9slot_infoENS_9allocatorIS6_EEEES9_NS4_I12llama_ubatchNS7_ISA_EEEEELi0EEENS_10unique_ptrIT_NS_14default_deleteISE_EEEEDpOT0_, symObjAddr: 0x98C, symBinAddr: 0x5F0E0, symSize: 0x25C }
  - { offset: 0x32D890, size: 0x8, addend: 0x0, symName: __ZN24llama_memory_hybrid_iswaC1ERK11llama_model9ggml_typeS3_bbjjjS3_S3_jjbbRKNSt3__18functionIFbiEEES9_, symObjAddr: 0x340, symBinAddr: 0x5EAF0, symSize: 0x34 }
  - { offset: 0x32E4B3, size: 0x8, addend: 0x0, symName: __ZN24llama_memory_hybrid_iswaC2ERK11llama_model9ggml_typeS3_bbjjjS3_S3_jjbbRKNSt3__18functionIFbiEEES9_, symObjAddr: 0x0, symBinAddr: 0x5E7B0, symSize: 0x340 }
  - { offset: 0x32FA0C, size: 0x8, addend: 0x0, symName: __ZN24llama_memory_hybrid_iswa10init_batchER18llama_batch_allocrjb, symObjAddr: 0x374, symBinAddr: 0x5EB24, symSize: 0x5BC }
  - { offset: 0x331B62, size: 0x8, addend: 0x0, symName: __ZN32llama_memory_hybrid_iswa_contextC2EP24llama_memory_hybrid_iswaNSt3__16vectorIN14llama_kv_cache9slot_infoENS2_9allocatorIS5_EEEES8_NS3_I12llama_ubatchNS6_IS9_EEEE, symObjAddr: 0x1620, symBinAddr: 0x5FC18, symSize: 0x5A4 }
  - { offset: 0x333720, size: 0x8, addend: 0x0, symName: __ZN24llama_memory_hybrid_iswa9init_fullEv, symObjAddr: 0xD44, symBinAddr: 0x5F33C, symSize: 0x54 }
  - { offset: 0x3337C6, size: 0x8, addend: 0x0, symName: __ZN32llama_memory_hybrid_iswa_contextC2EP24llama_memory_hybrid_iswa, symObjAddr: 0x13B8, symBinAddr: 0x5F9B0, symSize: 0x120 }
  - { offset: 0x333A75, size: 0x8, addend: 0x0, symName: __ZN24llama_memory_hybrid_iswa11init_updateEP13llama_contextb, symObjAddr: 0xD98, symBinAddr: 0x5F390, symSize: 0x6C }
  - { offset: 0x333B58, size: 0x8, addend: 0x0, symName: __ZN32llama_memory_hybrid_iswa_contextC2EP24llama_memory_hybrid_iswaP13llama_contextb, symObjAddr: 0x14DC, symBinAddr: 0x5FAD4, symSize: 0x140 }
  - { offset: 0x333DFC, size: 0x8, addend: 0x0, symName: __ZNK24llama_memory_hybrid_iswa13get_can_shiftEv, symObjAddr: 0xE04, symBinAddr: 0x5F3FC, symSize: 0x10 }
  - { offset: 0x333E27, size: 0x8, addend: 0x0, symName: __ZNK24llama_memory_hybrid_iswa13get_can_shiftEv, symObjAddr: 0xE04, symBinAddr: 0x5F3FC, symSize: 0x10 }
  - { offset: 0x333E4F, size: 0x8, addend: 0x0, symName: __ZN24llama_memory_hybrid_iswa5clearEb, symObjAddr: 0xE14, symBinAddr: 0x5F40C, symSize: 0x40 }
  - { offset: 0x333EE3, size: 0x8, addend: 0x0, symName: __ZN24llama_memory_hybrid_iswa6seq_rmEiii, symObjAddr: 0xE54, symBinAddr: 0x5F44C, symSize: 0x6C }
  - { offset: 0x333FA3, size: 0x8, addend: 0x0, symName: __ZN24llama_memory_hybrid_iswa6seq_cpEiiii, symObjAddr: 0xEC0, symBinAddr: 0x5F4B8, symSize: 0x68 }
  - { offset: 0x334079, size: 0x8, addend: 0x0, symName: __ZN24llama_memory_hybrid_iswa8seq_keepEi, symObjAddr: 0xF28, symBinAddr: 0x5F520, symSize: 0x40 }
  - { offset: 0x33410D, size: 0x8, addend: 0x0, symName: __ZN24llama_memory_hybrid_iswa7seq_addEiiii, symObjAddr: 0xF68, symBinAddr: 0x5F560, symSize: 0x68 }
  - { offset: 0x3341E3, size: 0x8, addend: 0x0, symName: __ZN24llama_memory_hybrid_iswa7seq_divEiiii, symObjAddr: 0xFD0, symBinAddr: 0x5F5C8, symSize: 0x68 }
  - { offset: 0x3342B9, size: 0x8, addend: 0x0, symName: __ZNK24llama_memory_hybrid_iswa11seq_pos_minEi, symObjAddr: 0x1038, symBinAddr: 0x5F630, symSize: 0x58 }
  - { offset: 0x334354, size: 0x8, addend: 0x0, symName: __ZNK24llama_memory_hybrid_iswa11seq_pos_maxEi, symObjAddr: 0x1090, symBinAddr: 0x5F688, symSize: 0x58 }
  - { offset: 0x334991, size: 0x8, addend: 0x0, symName: __ZNK24llama_memory_hybrid_iswa16memory_breakdownEv, symObjAddr: 0x10E8, symBinAddr: 0x5F6E0, symSize: 0x1C8 }
  - { offset: 0x3350E5, size: 0x8, addend: 0x0, symName: __ZNK24llama_memory_hybrid_iswa11state_writeER16llama_io_write_iij, symObjAddr: 0x12B0, symBinAddr: 0x5F8A8, symSize: 0x58 }
  - { offset: 0x3351A5, size: 0x8, addend: 0x0, symName: __ZN24llama_memory_hybrid_iswa10state_readER15llama_io_read_iij, symObjAddr: 0x1308, symBinAddr: 0x5F900, symSize: 0x58 }
  - { offset: 0x33527B, size: 0x8, addend: 0x0, symName: __ZNK24llama_memory_hybrid_iswa12get_mem_attnEv, symObjAddr: 0x1360, symBinAddr: 0x5F958, symSize: 0x8 }
  - { offset: 0x33529F, size: 0x8, addend: 0x0, symName: __ZNK24llama_memory_hybrid_iswa12get_mem_attnEv, symObjAddr: 0x1360, symBinAddr: 0x5F958, symSize: 0x8 }
  - { offset: 0x3352D1, size: 0x8, addend: 0x0, symName: __ZNK24llama_memory_hybrid_iswa12get_mem_recrEv, symObjAddr: 0x1368, symBinAddr: 0x5F960, symSize: 0x8 }
  - { offset: 0x3352F5, size: 0x8, addend: 0x0, symName: __ZNK24llama_memory_hybrid_iswa12get_mem_recrEv, symObjAddr: 0x1368, symBinAddr: 0x5F960, symSize: 0x8 }
  - { offset: 0x335311, size: 0x8, addend: 0x0, symName: __ZN32llama_memory_hybrid_iswa_contextC2E19llama_memory_status, symObjAddr: 0x1370, symBinAddr: 0x5F968, symSize: 0x24 }
  - { offset: 0x335374, size: 0x8, addend: 0x0, symName: __ZN32llama_memory_hybrid_iswa_contextC1E19llama_memory_status, symObjAddr: 0x1394, symBinAddr: 0x5F98C, symSize: 0x24 }
  - { offset: 0x33539D, size: 0x8, addend: 0x0, symName: __ZN32llama_memory_hybrid_iswa_contextC1E19llama_memory_status, symObjAddr: 0x1394, symBinAddr: 0x5F98C, symSize: 0x24 }
  - { offset: 0x3354EF, size: 0x8, addend: 0x0, symName: __ZN32llama_memory_hybrid_iswa_contextC1EP24llama_memory_hybrid_iswa, symObjAddr: 0x14D8, symBinAddr: 0x5FAD0, symSize: 0x4 }
  - { offset: 0x335519, size: 0x8, addend: 0x0, symName: __ZN32llama_memory_hybrid_iswa_contextC1EP24llama_memory_hybrid_iswa, symObjAddr: 0x14D8, symBinAddr: 0x5FAD0, symSize: 0x4 }
  - { offset: 0x335533, size: 0x8, addend: 0x0, symName: __ZN32llama_memory_hybrid_iswa_contextC1EP24llama_memory_hybrid_iswaP13llama_contextb, symObjAddr: 0x161C, symBinAddr: 0x5FC14, symSize: 0x4 }
  - { offset: 0x335570, size: 0x8, addend: 0x0, symName: __ZN32llama_memory_hybrid_iswa_contextC1EP24llama_memory_hybrid_iswaP13llama_contextb, symObjAddr: 0x161C, symBinAddr: 0x5FC14, symSize: 0x4 }
  - { offset: 0x335A92, size: 0x8, addend: 0x0, symName: __ZN32llama_memory_hybrid_iswa_contextC1EP24llama_memory_hybrid_iswaNSt3__16vectorIN14llama_kv_cache9slot_infoENS2_9allocatorIS5_EEEES8_NS3_I12llama_ubatchNS6_IS9_EEEE, symObjAddr: 0x1BC4, symBinAddr: 0x601BC, symSize: 0x4 }
  - { offset: 0x335AD4, size: 0x8, addend: 0x0, symName: __ZN32llama_memory_hybrid_iswa_contextC1EP24llama_memory_hybrid_iswaNSt3__16vectorIN14llama_kv_cache9slot_infoENS2_9allocatorIS5_EEEES8_NS3_I12llama_ubatchNS6_IS9_EEEE, symObjAddr: 0x1BC4, symBinAddr: 0x601BC, symSize: 0x4 }
  - { offset: 0x335B03, size: 0x8, addend: 0x0, symName: __ZN32llama_memory_hybrid_iswa_context4nextEv, symObjAddr: 0x1BC8, symBinAddr: 0x601C0, symSize: 0x70 }
  - { offset: 0x335B9E, size: 0x8, addend: 0x0, symName: __ZN32llama_memory_hybrid_iswa_context5applyEv, symObjAddr: 0x1C38, symBinAddr: 0x60230, symSize: 0x44 }
  - { offset: 0x335C2B, size: 0x8, addend: 0x0, symName: __ZNK32llama_memory_hybrid_iswa_context10get_statusEv, symObjAddr: 0x1C7C, symBinAddr: 0x60274, symSize: 0x8 }
  - { offset: 0x335C77, size: 0x8, addend: 0x0, symName: __ZNK32llama_memory_hybrid_iswa_context10get_ubatchEv, symObjAddr: 0x1C84, symBinAddr: 0x6027C, symSize: 0x10 }
  - { offset: 0x335CDD, size: 0x8, addend: 0x0, symName: __ZNK32llama_memory_hybrid_iswa_context8get_attnEv, symObjAddr: 0x1C94, symBinAddr: 0x6028C, symSize: 0x8 }
  - { offset: 0x335D09, size: 0x8, addend: 0x0, symName: __ZNK32llama_memory_hybrid_iswa_context8get_attnEv, symObjAddr: 0x1C94, symBinAddr: 0x6028C, symSize: 0x8 }
  - { offset: 0x335D26, size: 0x8, addend: 0x0, symName: __ZNK32llama_memory_hybrid_iswa_context8get_recrEv, symObjAddr: 0x1C9C, symBinAddr: 0x60294, symSize: 0x8 }
  - { offset: 0x335D52, size: 0x8, addend: 0x0, symName: __ZNK32llama_memory_hybrid_iswa_context8get_recrEv, symObjAddr: 0x1C9C, symBinAddr: 0x60294, symSize: 0x8 }
  - { offset: 0x335E12, size: 0x8, addend: 0x0, symName: __ZN24llama_memory_hybrid_iswaD1Ev, symObjAddr: 0x1CA4, symBinAddr: 0x6029C, symSize: 0x5C }
  - { offset: 0x335FA6, size: 0x8, addend: 0x0, symName: __ZN24llama_memory_hybrid_iswaD0Ev, symObjAddr: 0x1D00, symBinAddr: 0x602F8, symSize: 0x5C }
  - { offset: 0x33615F, size: 0x8, addend: 0x0, symName: __ZN32llama_memory_hybrid_iswa_contextD1Ev, symObjAddr: 0x1D5C, symBinAddr: 0x60354, symSize: 0xD4 }
  - { offset: 0x336524, size: 0x8, addend: 0x0, symName: __ZN32llama_memory_hybrid_iswa_contextD0Ev, symObjAddr: 0x1E30, symBinAddr: 0x60428, symSize: 0xD4 }
  - { offset: 0x3368F4, size: 0x8, addend: 0x0, symName: '__ZNSt3__110__function6__funcIZN24llama_memory_hybrid_iswaC1ERK11llama_model9ggml_typeS6_bbjjjS6_S6_jjbbRKNS_8functionIFbiEEESB_E3$_0NS_9allocatorISC_EES8_ED1Ev', symObjAddr: 0x1F04, symBinAddr: 0x604FC, symSize: 0x4 }
  - { offset: 0x336920, size: 0x8, addend: 0x0, symName: '__ZNSt3__110__function6__funcIZN24llama_memory_hybrid_iswaC1ERK11llama_model9ggml_typeS6_bbjjjS6_S6_jjbbRKNS_8functionIFbiEEESB_E3$_0NS_9allocatorISC_EES8_ED0Ev', symObjAddr: 0x1F08, symBinAddr: 0x60500, symSize: 0x4 }
  - { offset: 0x3369D7, size: 0x8, addend: 0x0, symName: '__ZNKSt3__110__function6__funcIZN24llama_memory_hybrid_iswaC1ERK11llama_model9ggml_typeS6_bbjjjS6_S6_jjbbRKNS_8functionIFbiEEESB_E3$_0NS_9allocatorISC_EES8_E7__cloneEv', symObjAddr: 0x1F0C, symBinAddr: 0x60504, symSize: 0x34 }
  - { offset: 0x336B29, size: 0x8, addend: 0x0, symName: '__ZNKSt3__110__function6__funcIZN24llama_memory_hybrid_iswaC1ERK11llama_model9ggml_typeS6_bbjjjS6_S6_jjbbRKNS_8functionIFbiEEESB_E3$_0NS_9allocatorISC_EES8_E7__cloneEPNS0_6__baseIS8_EE', symObjAddr: 0x1F40, symBinAddr: 0x60538, symSize: 0x14 }
  - { offset: 0x336B96, size: 0x8, addend: 0x0, symName: '__ZNSt3__110__function6__funcIZN24llama_memory_hybrid_iswaC1ERK11llama_model9ggml_typeS6_bbjjjS6_S6_jjbbRKNS_8functionIFbiEEESB_E3$_0NS_9allocatorISC_EES8_E7destroyEv', symObjAddr: 0x1F54, symBinAddr: 0x6054C, symSize: 0x4 }
  - { offset: 0x336BEB, size: 0x8, addend: 0x0, symName: '__ZNSt3__110__function6__funcIZN24llama_memory_hybrid_iswaC1ERK11llama_model9ggml_typeS6_bbjjjS6_S6_jjbbRKNS_8functionIFbiEEESB_E3$_0NS_9allocatorISC_EES8_E18destroy_deallocateEv', symObjAddr: 0x1F58, symBinAddr: 0x60550, symSize: 0x4 }
  - { offset: 0x336C20, size: 0x8, addend: 0x0, symName: '__ZNSt3__110__function6__funcIZN24llama_memory_hybrid_iswaC1ERK11llama_model9ggml_typeS6_bbjjjS6_S6_jjbbRKNS_8functionIFbiEEESB_E3$_0NS_9allocatorISC_EES8_E18destroy_deallocateEv', symObjAddr: 0x1F58, symBinAddr: 0x60550, symSize: 0x4 }
  - { offset: 0x336C43, size: 0x8, addend: 0x0, symName: '__ZNSt3__110__function6__funcIZN24llama_memory_hybrid_iswaC1ERK11llama_model9ggml_typeS6_bbjjjS6_S6_jjbbRKNS_8functionIFbiEEESB_E3$_0NS_9allocatorISC_EES8_E18destroy_deallocateEv', symObjAddr: 0x1F58, symBinAddr: 0x60550, symSize: 0x4 }
  - { offset: 0x336C76, size: 0x8, addend: 0x0, symName: '__ZNSt3__110__function6__funcIZN24llama_memory_hybrid_iswaC1ERK11llama_model9ggml_typeS6_bbjjjS6_S6_jjbbRKNS_8functionIFbiEEESB_E3$_0NS_9allocatorISC_EES8_E18destroy_deallocateEv', symObjAddr: 0x1F58, symBinAddr: 0x60550, symSize: 0x4 }
  - { offset: 0x336D18, size: 0x8, addend: 0x0, symName: '__ZNSt3__110__function6__funcIZN24llama_memory_hybrid_iswaC1ERK11llama_model9ggml_typeS6_bbjjjS6_S6_jjbbRKNS_8functionIFbiEEESB_E3$_0NS_9allocatorISC_EES8_EclEOi', symObjAddr: 0x1F5C, symBinAddr: 0x60554, symSize: 0x24 }
  - { offset: 0x336E1C, size: 0x8, addend: 0x0, symName: '__ZNKSt3__110__function6__funcIZN24llama_memory_hybrid_iswaC1ERK11llama_model9ggml_typeS6_bbjjjS6_S6_jjbbRKNS_8functionIFbiEEESB_E3$_0NS_9allocatorISC_EES8_E6targetERKSt9type_info', symObjAddr: 0x1F80, symBinAddr: 0x60578, symSize: 0x64 }
  - { offset: 0x336EE7, size: 0x8, addend: 0x0, symName: '__ZNKSt3__110__function6__funcIZN24llama_memory_hybrid_iswaC1ERK11llama_model9ggml_typeS6_bbjjjS6_S6_jjbbRKNS_8functionIFbiEEESB_E3$_0NS_9allocatorISC_EES8_E11target_typeEv', symObjAddr: 0x1FE4, symBinAddr: 0x605DC, symSize: 0xC }
  - { offset: 0x336F0A, size: 0x8, addend: 0x0, symName: '__ZNSt3__110__function6__funcIZN24llama_memory_hybrid_iswaC1ERK11llama_model9ggml_typeS6_bbjjjS6_S6_jjbbRKNS_8functionIFbiEEESB_E3$_1NS_9allocatorISC_EES8_ED1Ev', symObjAddr: 0x2018, symBinAddr: 0x605E8, symSize: 0x4 }
  - { offset: 0x336F36, size: 0x8, addend: 0x0, symName: '__ZNSt3__110__function6__funcIZN24llama_memory_hybrid_iswaC1ERK11llama_model9ggml_typeS6_bbjjjS6_S6_jjbbRKNS_8functionIFbiEEESB_E3$_1NS_9allocatorISC_EES8_ED0Ev', symObjAddr: 0x201C, symBinAddr: 0x605EC, symSize: 0x4 }
  - { offset: 0x336FED, size: 0x8, addend: 0x0, symName: '__ZNKSt3__110__function6__funcIZN24llama_memory_hybrid_iswaC1ERK11llama_model9ggml_typeS6_bbjjjS6_S6_jjbbRKNS_8functionIFbiEEESB_E3$_1NS_9allocatorISC_EES8_E7__cloneEv', symObjAddr: 0x2020, symBinAddr: 0x605F0, symSize: 0x34 }
  - { offset: 0x33713F, size: 0x8, addend: 0x0, symName: '__ZNKSt3__110__function6__funcIZN24llama_memory_hybrid_iswaC1ERK11llama_model9ggml_typeS6_bbjjjS6_S6_jjbbRKNS_8functionIFbiEEESB_E3$_1NS_9allocatorISC_EES8_E7__cloneEPNS0_6__baseIS8_EE', symObjAddr: 0x2054, symBinAddr: 0x60624, symSize: 0x14 }
  - { offset: 0x3371AC, size: 0x8, addend: 0x0, symName: '__ZNSt3__110__function6__funcIZN24llama_memory_hybrid_iswaC1ERK11llama_model9ggml_typeS6_bbjjjS6_S6_jjbbRKNS_8functionIFbiEEESB_E3$_1NS_9allocatorISC_EES8_E7destroyEv', symObjAddr: 0x2068, symBinAddr: 0x60638, symSize: 0x4 }
  - { offset: 0x337201, size: 0x8, addend: 0x0, symName: '__ZNSt3__110__function6__funcIZN24llama_memory_hybrid_iswaC1ERK11llama_model9ggml_typeS6_bbjjjS6_S6_jjbbRKNS_8functionIFbiEEESB_E3$_1NS_9allocatorISC_EES8_E18destroy_deallocateEv', symObjAddr: 0x206C, symBinAddr: 0x6063C, symSize: 0x4 }
  - { offset: 0x337236, size: 0x8, addend: 0x0, symName: '__ZNSt3__110__function6__funcIZN24llama_memory_hybrid_iswaC1ERK11llama_model9ggml_typeS6_bbjjjS6_S6_jjbbRKNS_8functionIFbiEEESB_E3$_1NS_9allocatorISC_EES8_E18destroy_deallocateEv', symObjAddr: 0x206C, symBinAddr: 0x6063C, symSize: 0x4 }
  - { offset: 0x337259, size: 0x8, addend: 0x0, symName: '__ZNSt3__110__function6__funcIZN24llama_memory_hybrid_iswaC1ERK11llama_model9ggml_typeS6_bbjjjS6_S6_jjbbRKNS_8functionIFbiEEESB_E3$_1NS_9allocatorISC_EES8_E18destroy_deallocateEv', symObjAddr: 0x206C, symBinAddr: 0x6063C, symSize: 0x4 }
  - { offset: 0x33728C, size: 0x8, addend: 0x0, symName: '__ZNSt3__110__function6__funcIZN24llama_memory_hybrid_iswaC1ERK11llama_model9ggml_typeS6_bbjjjS6_S6_jjbbRKNS_8functionIFbiEEESB_E3$_1NS_9allocatorISC_EES8_E18destroy_deallocateEv', symObjAddr: 0x206C, symBinAddr: 0x6063C, symSize: 0x4 }
  - { offset: 0x33732E, size: 0x8, addend: 0x0, symName: '__ZNSt3__110__function6__funcIZN24llama_memory_hybrid_iswaC1ERK11llama_model9ggml_typeS6_bbjjjS6_S6_jjbbRKNS_8functionIFbiEEESB_E3$_1NS_9allocatorISC_EES8_EclEOi', symObjAddr: 0x2070, symBinAddr: 0x60640, symSize: 0x10 }
  - { offset: 0x3373D7, size: 0x8, addend: 0x0, symName: '__ZNKSt3__110__function6__funcIZN24llama_memory_hybrid_iswaC1ERK11llama_model9ggml_typeS6_bbjjjS6_S6_jjbbRKNS_8functionIFbiEEESB_E3$_1NS_9allocatorISC_EES8_E6targetERKSt9type_info', symObjAddr: 0x2080, symBinAddr: 0x60650, symSize: 0x64 }
  - { offset: 0x33748B, size: 0x8, addend: 0x0, symName: '__ZNKSt3__110__function6__funcIZN24llama_memory_hybrid_iswaC1ERK11llama_model9ggml_typeS6_bbjjjS6_S6_jjbbRKNS_8functionIFbiEEESB_E3$_1NS_9allocatorISC_EES8_E11target_typeEv', symObjAddr: 0x20E4, symBinAddr: 0x606B4, symSize: 0xC }
  - { offset: 0x33967F, size: 0x8, addend: 0x0, symName: __ZN19llama_memory_hybridC2ERK11llama_model9ggml_typeS3_bjjj14llama_swa_typeS3_S3_jjbbRKNSt3__18functionIFbiEEESA_, symObjAddr: 0x0, symBinAddr: 0x606C0, symSize: 0x340 }
  - { offset: 0x364E2C, size: 0x8, addend: 0x0, symName: __ZNSt3__111make_uniqueB8ne200100I27llama_memory_hybrid_contextJP19llama_memory_hybridNS_6vectorIN14llama_kv_cache9slot_infoENS_9allocatorIS6_EEEENS4_I12llama_ubatchNS7_ISA_EEEEELi0EEENS_10unique_ptrIT_NS_14default_deleteISE_EEEEDpOT0_, symObjAddr: 0x994, symBinAddr: 0x60FF8, symSize: 0x1B0 }
  - { offset: 0x36F102, size: 0x8, addend: 0x0, symName: __ZN19llama_memory_hybridC1ERK11llama_model9ggml_typeS3_bjjj14llama_swa_typeS3_S3_jjbbRKNSt3__18functionIFbiEEESA_, symObjAddr: 0x340, symBinAddr: 0x60A00, symSize: 0x34 }
  - { offset: 0x36FD20, size: 0x8, addend: 0x0, symName: __ZN19llama_memory_hybridC2ERK11llama_model9ggml_typeS3_bjjj14llama_swa_typeS3_S3_jjbbRKNSt3__18functionIFbiEEESA_, symObjAddr: 0x0, symBinAddr: 0x606C0, symSize: 0x340 }
  - { offset: 0x371279, size: 0x8, addend: 0x0, symName: __ZN19llama_memory_hybrid10init_batchER18llama_batch_allocrjb, symObjAddr: 0x374, symBinAddr: 0x60A34, symSize: 0x5C4 }
  - { offset: 0x372EF7, size: 0x8, addend: 0x0, symName: __ZN27llama_memory_hybrid_contextC2EP19llama_memory_hybridNSt3__16vectorIN14llama_kv_cache9slot_infoENS2_9allocatorIS5_EEEENS3_I12llama_ubatchNS6_IS9_EEEE, symObjAddr: 0x1584, symBinAddr: 0x61A8C, symSize: 0x4E8 }
  - { offset: 0x374501, size: 0x8, addend: 0x0, symName: __ZN19llama_memory_hybrid9init_fullEv, symObjAddr: 0xCA0, symBinAddr: 0x611A8, symSize: 0x54 }
  - { offset: 0x3745A7, size: 0x8, addend: 0x0, symName: __ZN27llama_memory_hybrid_contextC2EP19llama_memory_hybrid, symObjAddr: 0x131C, symBinAddr: 0x61824, symSize: 0x120 }
  - { offset: 0x374856, size: 0x8, addend: 0x0, symName: __ZN19llama_memory_hybrid11init_updateEP13llama_contextb, symObjAddr: 0xCF4, symBinAddr: 0x611FC, symSize: 0x6C }
  - { offset: 0x374939, size: 0x8, addend: 0x0, symName: __ZN27llama_memory_hybrid_contextC2EP19llama_memory_hybridP13llama_contextb, symObjAddr: 0x1440, symBinAddr: 0x61948, symSize: 0x140 }
  - { offset: 0x374BDD, size: 0x8, addend: 0x0, symName: __ZNK19llama_memory_hybrid13get_can_shiftEv, symObjAddr: 0xD60, symBinAddr: 0x61268, symSize: 0x10 }
  - { offset: 0x374C08, size: 0x8, addend: 0x0, symName: __ZNK19llama_memory_hybrid13get_can_shiftEv, symObjAddr: 0xD60, symBinAddr: 0x61268, symSize: 0x10 }
  - { offset: 0x374C30, size: 0x8, addend: 0x0, symName: __ZN19llama_memory_hybrid5clearEb, symObjAddr: 0xD70, symBinAddr: 0x61278, symSize: 0x40 }
  - { offset: 0x374CC4, size: 0x8, addend: 0x0, symName: __ZN19llama_memory_hybrid6seq_rmEiii, symObjAddr: 0xDB0, symBinAddr: 0x612B8, symSize: 0x6C }
  - { offset: 0x374D84, size: 0x8, addend: 0x0, symName: __ZN19llama_memory_hybrid6seq_cpEiiii, symObjAddr: 0xE1C, symBinAddr: 0x61324, symSize: 0x68 }
  - { offset: 0x374E5A, size: 0x8, addend: 0x0, symName: __ZN19llama_memory_hybrid8seq_keepEi, symObjAddr: 0xE84, symBinAddr: 0x6138C, symSize: 0x40 }
  - { offset: 0x374EEE, size: 0x8, addend: 0x0, symName: __ZN19llama_memory_hybrid7seq_addEiiii, symObjAddr: 0xEC4, symBinAddr: 0x613CC, symSize: 0x68 }
  - { offset: 0x374FC4, size: 0x8, addend: 0x0, symName: __ZN19llama_memory_hybrid7seq_divEiiii, symObjAddr: 0xF2C, symBinAddr: 0x61434, symSize: 0x68 }
  - { offset: 0x37509A, size: 0x8, addend: 0x0, symName: __ZNK19llama_memory_hybrid11seq_pos_minEi, symObjAddr: 0xF94, symBinAddr: 0x6149C, symSize: 0x58 }
  - { offset: 0x375135, size: 0x8, addend: 0x0, symName: __ZNK19llama_memory_hybrid11seq_pos_maxEi, symObjAddr: 0xFEC, symBinAddr: 0x614F4, symSize: 0x58 }
  - { offset: 0x375772, size: 0x8, addend: 0x0, symName: __ZNK19llama_memory_hybrid16memory_breakdownEv, symObjAddr: 0x1044, symBinAddr: 0x6154C, symSize: 0x1C8 }
  - { offset: 0x375EC6, size: 0x8, addend: 0x0, symName: __ZNK19llama_memory_hybrid11state_writeER16llama_io_write_iij, symObjAddr: 0x120C, symBinAddr: 0x61714, symSize: 0x5C }
  - { offset: 0x375F70, size: 0x8, addend: 0x0, symName: __ZN19llama_memory_hybrid10state_readER15llama_io_read_iij, symObjAddr: 0x1268, symBinAddr: 0x61770, symSize: 0x5C }
  - { offset: 0x376030, size: 0x8, addend: 0x0, symName: __ZNK19llama_memory_hybrid12get_mem_attnEv, symObjAddr: 0x12C4, symBinAddr: 0x617CC, symSize: 0x8 }
  - { offset: 0x376054, size: 0x8, addend: 0x0, symName: __ZNK19llama_memory_hybrid12get_mem_attnEv, symObjAddr: 0x12C4, symBinAddr: 0x617CC, symSize: 0x8 }
  - { offset: 0x376086, size: 0x8, addend: 0x0, symName: __ZNK19llama_memory_hybrid12get_mem_recrEv, symObjAddr: 0x12CC, symBinAddr: 0x617D4, symSize: 0x8 }
  - { offset: 0x3760AA, size: 0x8, addend: 0x0, symName: __ZNK19llama_memory_hybrid12get_mem_recrEv, symObjAddr: 0x12CC, symBinAddr: 0x617D4, symSize: 0x8 }
  - { offset: 0x3760C6, size: 0x8, addend: 0x0, symName: __ZN27llama_memory_hybrid_contextC2E19llama_memory_status, symObjAddr: 0x12D4, symBinAddr: 0x617DC, symSize: 0x24 }
  - { offset: 0x376129, size: 0x8, addend: 0x0, symName: __ZN27llama_memory_hybrid_contextC1E19llama_memory_status, symObjAddr: 0x12F8, symBinAddr: 0x61800, symSize: 0x24 }
  - { offset: 0x376152, size: 0x8, addend: 0x0, symName: __ZN27llama_memory_hybrid_contextC1E19llama_memory_status, symObjAddr: 0x12F8, symBinAddr: 0x61800, symSize: 0x24 }
  - { offset: 0x3762A4, size: 0x8, addend: 0x0, symName: __ZN27llama_memory_hybrid_contextC1EP19llama_memory_hybrid, symObjAddr: 0x143C, symBinAddr: 0x61944, symSize: 0x4 }
  - { offset: 0x3762CE, size: 0x8, addend: 0x0, symName: __ZN27llama_memory_hybrid_contextC1EP19llama_memory_hybrid, symObjAddr: 0x143C, symBinAddr: 0x61944, symSize: 0x4 }
  - { offset: 0x3762E8, size: 0x8, addend: 0x0, symName: __ZN27llama_memory_hybrid_contextC1EP19llama_memory_hybridP13llama_contextb, symObjAddr: 0x1580, symBinAddr: 0x61A88, symSize: 0x4 }
  - { offset: 0x376325, size: 0x8, addend: 0x0, symName: __ZN27llama_memory_hybrid_contextC1EP19llama_memory_hybridP13llama_contextb, symObjAddr: 0x1580, symBinAddr: 0x61A88, symSize: 0x4 }
  - { offset: 0x376847, size: 0x8, addend: 0x0, symName: __ZN27llama_memory_hybrid_contextC1EP19llama_memory_hybridNSt3__16vectorIN14llama_kv_cache9slot_infoENS2_9allocatorIS5_EEEENS3_I12llama_ubatchNS6_IS9_EEEE, symObjAddr: 0x1A6C, symBinAddr: 0x61F74, symSize: 0x4 }
  - { offset: 0x376881, size: 0x8, addend: 0x0, symName: __ZN27llama_memory_hybrid_contextC1EP19llama_memory_hybridNSt3__16vectorIN14llama_kv_cache9slot_infoENS2_9allocatorIS5_EEEENS3_I12llama_ubatchNS6_IS9_EEEE, symObjAddr: 0x1A6C, symBinAddr: 0x61F74, symSize: 0x4 }
  - { offset: 0x3768A9, size: 0x8, addend: 0x0, symName: __ZN27llama_memory_hybrid_context4nextEv, symObjAddr: 0x1A70, symBinAddr: 0x61F78, symSize: 0x70 }
  - { offset: 0x376944, size: 0x8, addend: 0x0, symName: __ZN27llama_memory_hybrid_context5applyEv, symObjAddr: 0x1AE0, symBinAddr: 0x61FE8, symSize: 0x44 }
  - { offset: 0x3769D1, size: 0x8, addend: 0x0, symName: __ZNK27llama_memory_hybrid_context10get_statusEv, symObjAddr: 0x1B24, symBinAddr: 0x6202C, symSize: 0x8 }
  - { offset: 0x376A1C, size: 0x8, addend: 0x0, symName: __ZNK27llama_memory_hybrid_context10get_ubatchEv, symObjAddr: 0x1B2C, symBinAddr: 0x62034, symSize: 0x10 }
  - { offset: 0x376A82, size: 0x8, addend: 0x0, symName: __ZNK27llama_memory_hybrid_context8get_attnEv, symObjAddr: 0x1B3C, symBinAddr: 0x62044, symSize: 0x8 }
  - { offset: 0x376AAE, size: 0x8, addend: 0x0, symName: __ZNK27llama_memory_hybrid_context8get_attnEv, symObjAddr: 0x1B3C, symBinAddr: 0x62044, symSize: 0x8 }
  - { offset: 0x376ACB, size: 0x8, addend: 0x0, symName: __ZNK27llama_memory_hybrid_context8get_recrEv, symObjAddr: 0x1B44, symBinAddr: 0x6204C, symSize: 0x8 }
  - { offset: 0x376AF7, size: 0x8, addend: 0x0, symName: __ZNK27llama_memory_hybrid_context8get_recrEv, symObjAddr: 0x1B44, symBinAddr: 0x6204C, symSize: 0x8 }
  - { offset: 0x376BB7, size: 0x8, addend: 0x0, symName: __ZN19llama_memory_hybridD1Ev, symObjAddr: 0x1B4C, symBinAddr: 0x62054, symSize: 0x5C }
  - { offset: 0x376D4B, size: 0x8, addend: 0x0, symName: __ZN19llama_memory_hybridD0Ev, symObjAddr: 0x1BA8, symBinAddr: 0x620B0, symSize: 0x5C }
  - { offset: 0x376F04, size: 0x8, addend: 0x0, symName: __ZN27llama_memory_hybrid_contextD1Ev, symObjAddr: 0x1C04, symBinAddr: 0x6210C, symSize: 0xD4 }
  - { offset: 0x3772C9, size: 0x8, addend: 0x0, symName: __ZN27llama_memory_hybrid_contextD0Ev, symObjAddr: 0x1CD8, symBinAddr: 0x621E0, symSize: 0xD4 }
  - { offset: 0x377699, size: 0x8, addend: 0x0, symName: '__ZNSt3__110__function6__funcIZN19llama_memory_hybridC1ERK11llama_model9ggml_typeS6_bjjj14llama_swa_typeS6_S6_jjbbRKNS_8functionIFbiEEESC_E3$_0NS_9allocatorISD_EES9_ED1Ev', symObjAddr: 0x1DAC, symBinAddr: 0x622B4, symSize: 0x4 }
  - { offset: 0x3776C5, size: 0x8, addend: 0x0, symName: '__ZNSt3__110__function6__funcIZN19llama_memory_hybridC1ERK11llama_model9ggml_typeS6_bjjj14llama_swa_typeS6_S6_jjbbRKNS_8functionIFbiEEESC_E3$_0NS_9allocatorISD_EES9_ED0Ev', symObjAddr: 0x1DB0, symBinAddr: 0x622B8, symSize: 0x4 }
  - { offset: 0x37777C, size: 0x8, addend: 0x0, symName: '__ZNKSt3__110__function6__funcIZN19llama_memory_hybridC1ERK11llama_model9ggml_typeS6_bjjj14llama_swa_typeS6_S6_jjbbRKNS_8functionIFbiEEESC_E3$_0NS_9allocatorISD_EES9_E7__cloneEv', symObjAddr: 0x1DB4, symBinAddr: 0x622BC, symSize: 0x34 }
  - { offset: 0x3778CE, size: 0x8, addend: 0x0, symName: '__ZNKSt3__110__function6__funcIZN19llama_memory_hybridC1ERK11llama_model9ggml_typeS6_bjjj14llama_swa_typeS6_S6_jjbbRKNS_8functionIFbiEEESC_E3$_0NS_9allocatorISD_EES9_E7__cloneEPNS0_6__baseIS9_EE', symObjAddr: 0x1DE8, symBinAddr: 0x622F0, symSize: 0x14 }
  - { offset: 0x37793B, size: 0x8, addend: 0x0, symName: '__ZNSt3__110__function6__funcIZN19llama_memory_hybridC1ERK11llama_model9ggml_typeS6_bjjj14llama_swa_typeS6_S6_jjbbRKNS_8functionIFbiEEESC_E3$_0NS_9allocatorISD_EES9_E7destroyEv', symObjAddr: 0x1DFC, symBinAddr: 0x62304, symSize: 0x4 }
  - { offset: 0x377990, size: 0x8, addend: 0x0, symName: '__ZNSt3__110__function6__funcIZN19llama_memory_hybridC1ERK11llama_model9ggml_typeS6_bjjj14llama_swa_typeS6_S6_jjbbRKNS_8functionIFbiEEESC_E3$_0NS_9allocatorISD_EES9_E18destroy_deallocateEv', symObjAddr: 0x1E00, symBinAddr: 0x62308, symSize: 0x4 }
  - { offset: 0x3779C5, size: 0x8, addend: 0x0, symName: '__ZNSt3__110__function6__funcIZN19llama_memory_hybridC1ERK11llama_model9ggml_typeS6_bjjj14llama_swa_typeS6_S6_jjbbRKNS_8functionIFbiEEESC_E3$_0NS_9allocatorISD_EES9_E18destroy_deallocateEv', symObjAddr: 0x1E00, symBinAddr: 0x62308, symSize: 0x4 }
  - { offset: 0x3779E8, size: 0x8, addend: 0x0, symName: '__ZNSt3__110__function6__funcIZN19llama_memory_hybridC1ERK11llama_model9ggml_typeS6_bjjj14llama_swa_typeS6_S6_jjbbRKNS_8functionIFbiEEESC_E3$_0NS_9allocatorISD_EES9_E18destroy_deallocateEv', symObjAddr: 0x1E00, symBinAddr: 0x62308, symSize: 0x4 }
  - { offset: 0x377A1B, size: 0x8, addend: 0x0, symName: '__ZNSt3__110__function6__funcIZN19llama_memory_hybridC1ERK11llama_model9ggml_typeS6_bjjj14llama_swa_typeS6_S6_jjbbRKNS_8functionIFbiEEESC_E3$_0NS_9allocatorISD_EES9_E18destroy_deallocateEv', symObjAddr: 0x1E00, symBinAddr: 0x62308, symSize: 0x4 }
  - { offset: 0x377ABD, size: 0x8, addend: 0x0, symName: '__ZNSt3__110__function6__funcIZN19llama_memory_hybridC1ERK11llama_model9ggml_typeS6_bjjj14llama_swa_typeS6_S6_jjbbRKNS_8functionIFbiEEESC_E3$_0NS_9allocatorISD_EES9_EclEOi', symObjAddr: 0x1E04, symBinAddr: 0x6230C, symSize: 0x24 }
  - { offset: 0x377BC1, size: 0x8, addend: 0x0, symName: '__ZNKSt3__110__function6__funcIZN19llama_memory_hybridC1ERK11llama_model9ggml_typeS6_bjjj14llama_swa_typeS6_S6_jjbbRKNS_8functionIFbiEEESC_E3$_0NS_9allocatorISD_EES9_E6targetERKSt9type_info', symObjAddr: 0x1E28, symBinAddr: 0x62330, symSize: 0x64 }
  - { offset: 0x377C8C, size: 0x8, addend: 0x0, symName: '__ZNKSt3__110__function6__funcIZN19llama_memory_hybridC1ERK11llama_model9ggml_typeS6_bjjj14llama_swa_typeS6_S6_jjbbRKNS_8functionIFbiEEESC_E3$_0NS_9allocatorISD_EES9_E11target_typeEv', symObjAddr: 0x1E8C, symBinAddr: 0x62394, symSize: 0xC }
  - { offset: 0x377CAF, size: 0x8, addend: 0x0, symName: '__ZNSt3__110__function6__funcIZN19llama_memory_hybridC1ERK11llama_model9ggml_typeS6_bjjj14llama_swa_typeS6_S6_jjbbRKNS_8functionIFbiEEESC_E3$_1NS_9allocatorISD_EES9_ED1Ev', symObjAddr: 0x1EC0, symBinAddr: 0x623A0, symSize: 0x4 }
  - { offset: 0x377CDB, size: 0x8, addend: 0x0, symName: '__ZNSt3__110__function6__funcIZN19llama_memory_hybridC1ERK11llama_model9ggml_typeS6_bjjj14llama_swa_typeS6_S6_jjbbRKNS_8functionIFbiEEESC_E3$_1NS_9allocatorISD_EES9_ED0Ev', symObjAddr: 0x1EC4, symBinAddr: 0x623A4, symSize: 0x4 }
  - { offset: 0x377D92, size: 0x8, addend: 0x0, symName: '__ZNKSt3__110__function6__funcIZN19llama_memory_hybridC1ERK11llama_model9ggml_typeS6_bjjj14llama_swa_typeS6_S6_jjbbRKNS_8functionIFbiEEESC_E3$_1NS_9allocatorISD_EES9_E7__cloneEv', symObjAddr: 0x1EC8, symBinAddr: 0x623A8, symSize: 0x34 }
  - { offset: 0x377EE4, size: 0x8, addend: 0x0, symName: '__ZNKSt3__110__function6__funcIZN19llama_memory_hybridC1ERK11llama_model9ggml_typeS6_bjjj14llama_swa_typeS6_S6_jjbbRKNS_8functionIFbiEEESC_E3$_1NS_9allocatorISD_EES9_E7__cloneEPNS0_6__baseIS9_EE', symObjAddr: 0x1EFC, symBinAddr: 0x623DC, symSize: 0x14 }
  - { offset: 0x377F51, size: 0x8, addend: 0x0, symName: '__ZNSt3__110__function6__funcIZN19llama_memory_hybridC1ERK11llama_model9ggml_typeS6_bjjj14llama_swa_typeS6_S6_jjbbRKNS_8functionIFbiEEESC_E3$_1NS_9allocatorISD_EES9_E7destroyEv', symObjAddr: 0x1F10, symBinAddr: 0x623F0, symSize: 0x4 }
  - { offset: 0x377FA6, size: 0x8, addend: 0x0, symName: '__ZNSt3__110__function6__funcIZN19llama_memory_hybridC1ERK11llama_model9ggml_typeS6_bjjj14llama_swa_typeS6_S6_jjbbRKNS_8functionIFbiEEESC_E3$_1NS_9allocatorISD_EES9_E18destroy_deallocateEv', symObjAddr: 0x1F14, symBinAddr: 0x623F4, symSize: 0x4 }
  - { offset: 0x377FDB, size: 0x8, addend: 0x0, symName: '__ZNSt3__110__function6__funcIZN19llama_memory_hybridC1ERK11llama_model9ggml_typeS6_bjjj14llama_swa_typeS6_S6_jjbbRKNS_8functionIFbiEEESC_E3$_1NS_9allocatorISD_EES9_E18destroy_deallocateEv', symObjAddr: 0x1F14, symBinAddr: 0x623F4, symSize: 0x4 }
  - { offset: 0x377FFE, size: 0x8, addend: 0x0, symName: '__ZNSt3__110__function6__funcIZN19llama_memory_hybridC1ERK11llama_model9ggml_typeS6_bjjj14llama_swa_typeS6_S6_jjbbRKNS_8functionIFbiEEESC_E3$_1NS_9allocatorISD_EES9_E18destroy_deallocateEv', symObjAddr: 0x1F14, symBinAddr: 0x623F4, symSize: 0x4 }
  - { offset: 0x378031, size: 0x8, addend: 0x0, symName: '__ZNSt3__110__function6__funcIZN19llama_memory_hybridC1ERK11llama_model9ggml_typeS6_bjjj14llama_swa_typeS6_S6_jjbbRKNS_8functionIFbiEEESC_E3$_1NS_9allocatorISD_EES9_E18destroy_deallocateEv', symObjAddr: 0x1F14, symBinAddr: 0x623F4, symSize: 0x4 }
  - { offset: 0x3780D3, size: 0x8, addend: 0x0, symName: '__ZNSt3__110__function6__funcIZN19llama_memory_hybridC1ERK11llama_model9ggml_typeS6_bjjj14llama_swa_typeS6_S6_jjbbRKNS_8functionIFbiEEESC_E3$_1NS_9allocatorISD_EES9_EclEOi', symObjAddr: 0x1F18, symBinAddr: 0x623F8, symSize: 0x10 }
  - { offset: 0x37817C, size: 0x8, addend: 0x0, symName: '__ZNKSt3__110__function6__funcIZN19llama_memory_hybridC1ERK11llama_model9ggml_typeS6_bjjj14llama_swa_typeS6_S6_jjbbRKNS_8functionIFbiEEESC_E3$_1NS_9allocatorISD_EES9_E6targetERKSt9type_info', symObjAddr: 0x1F28, symBinAddr: 0x62408, symSize: 0x64 }
  - { offset: 0x378230, size: 0x8, addend: 0x0, symName: '__ZNKSt3__110__function6__funcIZN19llama_memory_hybridC1ERK11llama_model9ggml_typeS6_bjjj14llama_swa_typeS6_S6_jjbbRKNS_8functionIFbiEEESC_E3$_1NS_9allocatorISD_EES9_E11target_typeEv', symObjAddr: 0x1F8C, symBinAddr: 0x6246C, symSize: 0xC }
  - { offset: 0x3A2CD9, size: 0x8, addend: 0x0, symName: __ZN22llama_memory_recurrentC2ERK11llama_model9ggml_typeS3_bjjRKNSt3__18functionIFbiEEE, symObjAddr: 0x0, symBinAddr: 0x62478, symSize: 0x788 }
  - { offset: 0x3A57F2, size: 0x8, addend: 0x0, symName: __ZNSt3__16vectorIN22llama_memory_recurrent8mem_cellENS_9allocatorIS2_EEE8__appendEm, symObjAddr: 0x4498, symBinAddr: 0x663FC, symSize: 0x220 }
  - { offset: 0x3A5FEE, size: 0x8, addend: 0x0, symName: __ZNSt3__16vectorIN22llama_memory_recurrent8mem_cellENS_9allocatorIS2_EEE20__throw_length_errorB8ne200100Ev, symObjAddr: 0x46B8, symBinAddr: 0x6661C, symSize: 0x14 }
  - { offset: 0x3A5FF9, size: 0x8, addend: 0x0, symName: __ZNSt3__16vectorIP11ggml_tensorNS_9allocatorIS2_EEE8__appendEm, symObjAddr: 0x47F4, symBinAddr: 0x666E4, symSize: 0x120 }
  - { offset: 0x3A6527, size: 0x8, addend: 0x0, symName: __ZNSt3__16__treeINS_12__value_typeIP24ggml_backend_buffer_typeNS_10unique_ptrI12ggml_context20ggml_context_deleterEEEENS_19__map_value_compareIS3_S8_ZN22llama_memory_recurrentC1ERK11llama_model9ggml_typeSE_bjjRKNS_8functionIFbiEEEE28ggml_backend_buft_comparatorLb1EEENS_9allocatorIS8_EEE7destroyEPNS_11__tree_nodeIS8_PvEE, symObjAddr: 0x47A0, symBinAddr: 0x66690, symSize: 0x54 }
  - { offset: 0x3A68F1, size: 0x8, addend: 0x0, symName: __ZNSt3__16vectorIN22llama_memory_recurrent8mem_cellENS_9allocatorIS2_EEED1B8ne200100Ev, symObjAddr: 0x8C4, symBinAddr: 0x62CB8, symSize: 0x68 }
  - { offset: 0x3A6B55, size: 0x8, addend: 0x0, symName: __ZNK22llama_memory_recurrent12size_r_bytesEv, symObjAddr: 0x788, symBinAddr: 0x62C00, symSize: 0x5C }
  - { offset: 0x3A6C02, size: 0x8, addend: 0x0, symName: __ZNK22llama_memory_recurrent12size_s_bytesEv, symObjAddr: 0x7E4, symBinAddr: 0x62C5C, symSize: 0x5C }
  - { offset: 0x3A7173, size: 0x8, addend: 0x0, symName: __ZN22llama_memory_recurrentC1ERK11llama_model9ggml_typeS3_bjjRKNSt3__18functionIFbiEEE, symObjAddr: 0x92C, symBinAddr: 0x62D20, symSize: 0x4 }
  - { offset: 0x3A7207, size: 0x8, addend: 0x0, symName: __ZN22llama_memory_recurrentC1ERK11llama_model9ggml_typeS3_bjjRKNSt3__18functionIFbiEEE, symObjAddr: 0x92C, symBinAddr: 0x62D20, symSize: 0x4 }
  - { offset: 0x3A72F9, size: 0x8, addend: 0x0, symName: __ZN22llama_memory_recurrent5clearEb, symObjAddr: 0x930, symBinAddr: 0x62D24, symSize: 0xCC }
  - { offset: 0x3A77B7, size: 0x8, addend: 0x0, symName: __ZN22llama_memory_recurrent6seq_rmEiii, symObjAddr: 0x9FC, symBinAddr: 0x62DF0, symSize: 0x2F0 }
  - { offset: 0x3A7F7A, size: 0x8, addend: 0x0, symName: __ZN22llama_memory_recurrent6seq_cpEiiii, symObjAddr: 0xCEC, symBinAddr: 0x630E0, symSize: 0x1E8 }
  - { offset: 0x3A8581, size: 0x8, addend: 0x0, symName: __ZN22llama_memory_recurrent8seq_keepEi, symObjAddr: 0xED4, symBinAddr: 0x632C8, symSize: 0x1B8 }
  - { offset: 0x3A89CD, size: 0x8, addend: 0x0, symName: __ZN22llama_memory_recurrent7seq_addEiiii, symObjAddr: 0x108C, symBinAddr: 0x63480, symSize: 0xA0 }
  - { offset: 0x3A8BA8, size: 0x8, addend: 0x0, symName: __ZN22llama_memory_recurrent7seq_divEiiii, symObjAddr: 0x112C, symBinAddr: 0x63520, symSize: 0xA8 }
  - { offset: 0x3A8DEE, size: 0x8, addend: 0x0, symName: __ZNK22llama_memory_recurrent11seq_pos_minEi, symObjAddr: 0x11D4, symBinAddr: 0x635C8, symSize: 0x8C }
  - { offset: 0x3A8FC6, size: 0x8, addend: 0x0, symName: __ZNK22llama_memory_recurrent11seq_pos_maxEi, symObjAddr: 0x1260, symBinAddr: 0x63654, symSize: 0x80 }
  - { offset: 0x3A9752, size: 0x8, addend: 0x0, symName: __ZNK22llama_memory_recurrent16memory_breakdownEv, symObjAddr: 0x12E0, symBinAddr: 0x636D4, symSize: 0x160 }
  - { offset: 0x3AA389, size: 0x8, addend: 0x0, symName: __ZN22llama_memory_recurrent10init_batchER18llama_batch_allocrjb, symObjAddr: 0x1440, symBinAddr: 0x63834, symSize: 0x474 }
  - { offset: 0x3AB2EC, size: 0x8, addend: 0x0, symName: __ZN22llama_memory_recurrent7prepareERKNSt3__16vectorI12llama_ubatchNS0_9allocatorIS2_EEEE, symObjAddr: 0x1910, symBinAddr: 0x63CA8, symSize: 0x128 }
  - { offset: 0x3AB9B0, size: 0x8, addend: 0x0, symName: __ZNSt3__16vectorIN22llama_memory_recurrent8mem_cellENS_9allocatorIS2_EEE16__init_with_sizeB8ne200100IPS2_S7_EEvT_T0_m, symObjAddr: 0x4F08, symBinAddr: 0x66804, symSize: 0x150 }
  - { offset: 0x3ABEB7, size: 0x8, addend: 0x0, symName: __ZN22llama_memory_recurrent9find_slotERK12llama_ubatch, symObjAddr: 0x1B70, symBinAddr: 0x63E70, symSize: 0xBFC }
  - { offset: 0x3AD863, size: 0x8, addend: 0x0, symName: __ZN22llama_memory_recurrent9init_fullEv, symObjAddr: 0x1AD0, symBinAddr: 0x63DD0, symSize: 0x54 }
  - { offset: 0x3AD961, size: 0x8, addend: 0x0, symName: __ZN22llama_memory_recurrent11init_updateEP13llama_contextb, symObjAddr: 0x1B24, symBinAddr: 0x63E24, symSize: 0x4C }
  - { offset: 0x3ADE2C, size: 0x8, addend: 0x0, symName: __ZNK22llama_memory_recurrent13get_can_shiftEv, symObjAddr: 0x276C, symBinAddr: 0x64A6C, symSize: 0x8 }
  - { offset: 0x3ADE52, size: 0x8, addend: 0x0, symName: __ZNK22llama_memory_recurrent10total_sizeEv, symObjAddr: 0x2774, symBinAddr: 0x64A74, symSize: 0x64 }
  - { offset: 0x3AE66E, size: 0x8, addend: 0x0, symName: __ZNK22llama_memory_recurrent11state_writeER16llama_io_write_iij, symObjAddr: 0x27D8, symBinAddr: 0x64AD8, symSize: 0x424 }
  - { offset: 0x3AF454, size: 0x8, addend: 0x0, symName: __ZNK22llama_memory_recurrent16state_write_metaER16llama_io_write_iRKNSt3__16vectorINS2_4pairIjjEENS2_9allocatorIS5_EEEEi, symObjAddr: 0x2BFC, symBinAddr: 0x64EFC, symSize: 0x15C }
  - { offset: 0x3AF778, size: 0x8, addend: 0x0, symName: __ZNK22llama_memory_recurrent16state_write_dataER16llama_io_write_iRKNSt3__16vectorINS2_4pairIjjEENS2_9allocatorIS5_EEEE, symObjAddr: 0x2D58, symBinAddr: 0x65058, symSize: 0x22C }
  - { offset: 0x3AFCD8, size: 0x8, addend: 0x0, symName: __ZN22llama_memory_recurrent10state_readER15llama_io_read_iij, symObjAddr: 0x2F84, symBinAddr: 0x65284, symSize: 0xF8 }
  - { offset: 0x3AFDD7, size: 0x8, addend: 0x0, symName: __ZN22llama_memory_recurrent15state_read_metaER15llama_io_read_iji, symObjAddr: 0x307C, symBinAddr: 0x6537C, symSize: 0x5DC }
  - { offset: 0x3B071E, size: 0x8, addend: 0x0, symName: __ZN22llama_memory_recurrent15state_read_dataER15llama_io_read_ij, symObjAddr: 0x3658, symBinAddr: 0x65958, symSize: 0x568 }
  - { offset: 0x3B1850, size: 0x8, addend: 0x0, symName: __ZN30llama_memory_recurrent_contextC2E19llama_memory_status, symObjAddr: 0x3BC0, symBinAddr: 0x65EC0, symSize: 0x24 }
  - { offset: 0x3B18B4, size: 0x8, addend: 0x0, symName: __ZN30llama_memory_recurrent_contextC1E19llama_memory_status, symObjAddr: 0x3BE4, symBinAddr: 0x65EE4, symSize: 0x24 }
  - { offset: 0x3B18DD, size: 0x8, addend: 0x0, symName: __ZN30llama_memory_recurrent_contextC1E19llama_memory_status, symObjAddr: 0x3BE4, symBinAddr: 0x65EE4, symSize: 0x24 }
  - { offset: 0x3B193C, size: 0x8, addend: 0x0, symName: __ZN30llama_memory_recurrent_contextC2EP22llama_memory_recurrent, symObjAddr: 0x3C08, symBinAddr: 0x65F08, symSize: 0x2C }
  - { offset: 0x3B19A0, size: 0x8, addend: 0x0, symName: __ZN30llama_memory_recurrent_contextC1EP22llama_memory_recurrent, symObjAddr: 0x3C34, symBinAddr: 0x65F34, symSize: 0x2C }
  - { offset: 0x3B19C9, size: 0x8, addend: 0x0, symName: __ZN30llama_memory_recurrent_contextC1EP22llama_memory_recurrent, symObjAddr: 0x3C34, symBinAddr: 0x65F34, symSize: 0x2C }
  - { offset: 0x3B1A28, size: 0x8, addend: 0x0, symName: __ZN30llama_memory_recurrent_contextC2EP22llama_memory_recurrentNSt3__16vectorI12llama_ubatchNS2_9allocatorIS4_EEEE, symObjAddr: 0x3C60, symBinAddr: 0x65F60, symSize: 0x40 }
  - { offset: 0x3B1AA3, size: 0x8, addend: 0x0, symName: __ZN30llama_memory_recurrent_contextC1EP22llama_memory_recurrentNSt3__16vectorI12llama_ubatchNS2_9allocatorIS4_EEEE, symObjAddr: 0x3CA0, symBinAddr: 0x65FA0, symSize: 0x40 }
  - { offset: 0x3B1AD4, size: 0x8, addend: 0x0, symName: __ZN30llama_memory_recurrent_contextC1EP22llama_memory_recurrentNSt3__16vectorI12llama_ubatchNS2_9allocatorIS4_EEEE, symObjAddr: 0x3CA0, symBinAddr: 0x65FA0, symSize: 0x40 }
  - { offset: 0x3B1B4A, size: 0x8, addend: 0x0, symName: __ZN30llama_memory_recurrent_contextD2Ev, symObjAddr: 0x3CE0, symBinAddr: 0x65FE0, symSize: 0xA4 }
  - { offset: 0x3B1DBB, size: 0x8, addend: 0x0, symName: __ZN30llama_memory_recurrent_contextD1Ev, symObjAddr: 0x3D84, symBinAddr: 0x66084, symSize: 0xA4 }
  - { offset: 0x3B2049, size: 0x8, addend: 0x0, symName: __ZN30llama_memory_recurrent_contextD0Ev, symObjAddr: 0x3E28, symBinAddr: 0x66128, symSize: 0xA4 }
  - { offset: 0x3B22E3, size: 0x8, addend: 0x0, symName: __ZN30llama_memory_recurrent_context4nextEv, symObjAddr: 0x3ECC, symBinAddr: 0x661CC, symSize: 0x38 }
  - { offset: 0x3B2364, size: 0x8, addend: 0x0, symName: __ZN30llama_memory_recurrent_context5applyEv, symObjAddr: 0x3F04, symBinAddr: 0x66204, symSize: 0x34 }
  - { offset: 0x3B2390, size: 0x8, addend: 0x0, symName: __ZN30llama_memory_recurrent_context5applyEv, symObjAddr: 0x3F04, symBinAddr: 0x66204, symSize: 0x34 }
  - { offset: 0x3B23D8, size: 0x8, addend: 0x0, symName: __ZNK30llama_memory_recurrent_context10get_statusEv, symObjAddr: 0x3F38, symBinAddr: 0x66238, symSize: 0x8 }
  - { offset: 0x3B2424, size: 0x8, addend: 0x0, symName: __ZNK30llama_memory_recurrent_context10get_ubatchEv, symObjAddr: 0x3F40, symBinAddr: 0x66240, symSize: 0x10 }
  - { offset: 0x3B2474, size: 0x8, addend: 0x0, symName: __ZNK30llama_memory_recurrent_context8get_n_rsEv, symObjAddr: 0x3F50, symBinAddr: 0x66250, symSize: 0x20 }
  - { offset: 0x3B249E, size: 0x8, addend: 0x0, symName: __ZNK30llama_memory_recurrent_context8get_headEv, symObjAddr: 0x3F70, symBinAddr: 0x66270, symSize: 0x1C }
  - { offset: 0x3B24C8, size: 0x8, addend: 0x0, symName: __ZNK30llama_memory_recurrent_context8get_rs_zEv, symObjAddr: 0x3F8C, symBinAddr: 0x6628C, symSize: 0x1C }
  - { offset: 0x3B24F2, size: 0x8, addend: 0x0, symName: __ZNK30llama_memory_recurrent_context8get_sizeEv, symObjAddr: 0x3FA8, symBinAddr: 0x662A8, symSize: 0xC }
  - { offset: 0x3B251C, size: 0x8, addend: 0x0, symName: __ZNK30llama_memory_recurrent_context7get_r_lEi, symObjAddr: 0x3FB4, symBinAddr: 0x662B4, symSize: 0x10 }
  - { offset: 0x3B2573, size: 0x8, addend: 0x0, symName: __ZNK30llama_memory_recurrent_context7get_s_lEi, symObjAddr: 0x3FC4, symBinAddr: 0x662C4, symSize: 0x10 }
  - { offset: 0x3B25CB, size: 0x8, addend: 0x0, symName: __ZNK30llama_memory_recurrent_context6s_copyEi, symObjAddr: 0x3FD4, symBinAddr: 0x662D4, symSize: 0x20 }
  - { offset: 0x3B2622, size: 0x8, addend: 0x0, symName: __ZN22llama_memory_recurrentD1Ev, symObjAddr: 0x3FF4, symBinAddr: 0x662F4, symSize: 0x4 }
  - { offset: 0x3B2645, size: 0x8, addend: 0x0, symName: __ZN22llama_memory_recurrentD1Ev, symObjAddr: 0x3FF4, symBinAddr: 0x662F4, symSize: 0x4 }
  - { offset: 0x3B2658, size: 0x8, addend: 0x0, symName: __ZN22llama_memory_recurrentD2Ev, symObjAddr: 0x43A8, symBinAddr: 0x6630C, symSize: 0xF0 }
  - { offset: 0x3B2DF0, size: 0x8, addend: 0x0, symName: __ZN22llama_memory_recurrentD0Ev, symObjAddr: 0x3FF8, symBinAddr: 0x662F8, symSize: 0x14 }
  - { offset: 0x3B3D49, size: 0x8, addend: 0x0, symName: __ZNSt3__16vectorIN22llama_memory_recurrent8mem_cellENS_9allocatorIS2_EEE20__throw_length_errorB8ne200100Ev, symObjAddr: 0x46B8, symBinAddr: 0x6661C, symSize: 0x14 }
  - { offset: 0x3B3E63, size: 0x8, addend: 0x0, symName: __ZNSt3__128__exception_guard_exceptionsINS_29_AllocatorDestroyRangeReverseINS_9allocatorIN22llama_memory_recurrent8mem_cellEEEPS4_EEED1B8ne200100Ev, symObjAddr: 0x4740, symBinAddr: 0x66630, symSize: 0x60 }
  - { offset: 0x3B45CF, size: 0x8, addend: 0x0, symName: __ZNSt3__16vectorIN22llama_memory_recurrent8mem_cellENS_9allocatorIS2_EEE16__init_with_sizeB8ne200100IPS2_S7_EEvT_T0_m, symObjAddr: 0x4F08, symBinAddr: 0x66804, symSize: 0x150 }
  - { offset: 0x3B4865, size: 0x8, addend: 0x0, symName: __ZNSt3__13setIiNS_4lessIiEENS_9allocatorIiEEE6insertB8ne200100INS_21__tree_const_iteratorIiPNS_11__tree_nodeIiPvEElEEEEvT_SD_, symObjAddr: 0x50D0, symBinAddr: 0x669CC, symSize: 0xF8 }
  - { offset: 0x3B48AB, size: 0x8, addend: 0x0, symName: __ZNSt3__13setIiNS_4lessIiEENS_9allocatorIiEEE6insertB8ne200100INS_21__tree_const_iteratorIiPNS_11__tree_nodeIiPvEElEEEEvT_SD_, symObjAddr: 0x50D0, symBinAddr: 0x669CC, symSize: 0xF8 }
  - { offset: 0x3B4B84, size: 0x8, addend: 0x0, symName: __ZNSt3__128__exception_guard_exceptionsINS_6vectorIN22llama_memory_recurrent8mem_cellENS_9allocatorIS3_EEE16__destroy_vectorEED1B8ne200100Ev, symObjAddr: 0x5058, symBinAddr: 0x66954, symSize: 0x78 }
  - { offset: 0x3B4BB1, size: 0x8, addend: 0x0, symName: __ZNSt3__128__exception_guard_exceptionsINS_6vectorIN22llama_memory_recurrent8mem_cellENS_9allocatorIS3_EEE16__destroy_vectorEED1B8ne200100Ev, symObjAddr: 0x5058, symBinAddr: 0x66954, symSize: 0x78 }
  - { offset: 0x3B4F14, size: 0x8, addend: 0x0, symName: __ZNSt3__16__treeIiNS_4lessIiEENS_9allocatorIiEEE12__find_equalIiEERPNS_16__tree_node_baseIPvEENS_21__tree_const_iteratorIiPNS_11__tree_nodeIiS8_EElEERPNS_15__tree_end_nodeISA_EESB_RKT_, symObjAddr: 0x51C8, symBinAddr: 0x66AC4, symSize: 0x1B0 }
  - { offset: 0x3B4F77, size: 0x8, addend: 0x0, symName: __ZNSt3__16__treeIiNS_4lessIiEENS_9allocatorIiEEE12__find_equalIiEERPNS_16__tree_node_baseIPvEENS_21__tree_const_iteratorIiPNS_11__tree_nodeIiS8_EElEERPNS_15__tree_end_nodeISA_EESB_RKT_, symObjAddr: 0x51C8, symBinAddr: 0x66AC4, symSize: 0x1B0 }
  - { offset: 0x3B4F93, size: 0x8, addend: 0x0, symName: __ZNSt3__16__treeIiNS_4lessIiEENS_9allocatorIiEEE12__find_equalIiEERPNS_16__tree_node_baseIPvEENS_21__tree_const_iteratorIiPNS_11__tree_nodeIiS8_EElEERPNS_15__tree_end_nodeISA_EESB_RKT_, symObjAddr: 0x51C8, symBinAddr: 0x66AC4, symSize: 0x1B0 }
  - { offset: 0x3B7152, size: 0x8, addend: 0x0, symName: __Z27llama_memory_status_combine19llama_memory_statusS_, symObjAddr: 0x0, symBinAddr: 0x66C74, symSize: 0x38 }
  - { offset: 0x3B7167, size: 0x8, addend: 0x0, symName: __Z27llama_memory_status_combine19llama_memory_statusS_, symObjAddr: 0x0, symBinAddr: 0x66C74, symSize: 0x38 }
  - { offset: 0x3B71B3, size: 0x8, addend: 0x0, symName: __Z27llama_memory_status_is_fail19llama_memory_status, symObjAddr: 0x38, symBinAddr: 0x66CAC, symSize: 0x10 }
  - { offset: 0x3B9D42, size: 0x8, addend: 0x0, symName: __ZN10llama_mmap9SUPPORTEDE, symObjAddr: 0x1B24, symBinAddr: 0x294D5A, symSize: 0x0 }
  - { offset: 0x3BF453, size: 0x8, addend: 0x0, symName: __ZN11llama_mlock9SUPPORTEDE, symObjAddr: 0x1B25, symBinAddr: 0x294D5B, symSize: 0x0 }
  - { offset: 0x3BF69B, size: 0x8, addend: 0x0, symName: __ZN10llama_fileC2EPKcS1_b, symObjAddr: 0x0, symBinAddr: 0x66CBC, symSize: 0x70 }
  - { offset: 0x3BF784, size: 0x8, addend: 0x0, symName: __ZN10llama_file4implC2EPKcS2_b, symObjAddr: 0x150C, symBinAddr: 0x6811C, symSize: 0xF0 }
  - { offset: 0x3BFB93, size: 0x8, addend: 0x0, symName: __ZN10llama_fileC1EPKcS1_b, symObjAddr: 0x70, symBinAddr: 0x66D2C, symSize: 0x70 }
  - { offset: 0x3BFE61, size: 0x8, addend: 0x0, symName: __ZN10llama_fileD2Ev, symObjAddr: 0xE0, symBinAddr: 0x66D9C, symSize: 0x6C }
  - { offset: 0x3C007F, size: 0x8, addend: 0x0, symName: __ZN10llama_fileD1Ev, symObjAddr: 0x14C, symBinAddr: 0x66E08, symSize: 0x6C }
  - { offset: 0x3C0297, size: 0x8, addend: 0x0, symName: __ZNK10llama_file4tellEv, symObjAddr: 0x1B8, symBinAddr: 0x66E74, symSize: 0x8 }
  - { offset: 0x3C02C3, size: 0x8, addend: 0x0, symName: __ZNK10llama_file4tellEv, symObjAddr: 0x1B8, symBinAddr: 0x66E74, symSize: 0x8 }
  - { offset: 0x3C02EC, size: 0x8, addend: 0x0, symName: __ZNK10llama_file4impl4tellEv, symObjAddr: 0x1C0, symBinAddr: 0x66E7C, symSize: 0x158 }
  - { offset: 0x3C0584, size: 0x8, addend: 0x0, symName: __ZNK10llama_file4sizeEv, symObjAddr: 0x318, symBinAddr: 0x66FD4, symSize: 0xC }
  - { offset: 0x3C05A8, size: 0x8, addend: 0x0, symName: __ZNK10llama_file4sizeEv, symObjAddr: 0x318, symBinAddr: 0x66FD4, symSize: 0xC }
  - { offset: 0x3C05DF, size: 0x8, addend: 0x0, symName: __ZNK10llama_file14read_alignmentEv, symObjAddr: 0x324, symBinAddr: 0x66FE0, symSize: 0xC }
  - { offset: 0x3C060B, size: 0x8, addend: 0x0, symName: __ZNK10llama_file14read_alignmentEv, symObjAddr: 0x324, symBinAddr: 0x66FE0, symSize: 0xC }
  - { offset: 0x3C0659, size: 0x8, addend: 0x0, symName: __ZNK10llama_file13has_direct_ioEv, symObjAddr: 0x330, symBinAddr: 0x66FEC, symSize: 0x28 }
  - { offset: 0x3C0685, size: 0x8, addend: 0x0, symName: __ZNK10llama_file13has_direct_ioEv, symObjAddr: 0x330, symBinAddr: 0x66FEC, symSize: 0x28 }
  - { offset: 0x3C06BF, size: 0x8, addend: 0x0, symName: __ZNK10llama_file7file_idEv, symObjAddr: 0x358, symBinAddr: 0x67014, symSize: 0x1C }
  - { offset: 0x3C06E3, size: 0x8, addend: 0x0, symName: __ZNK10llama_file7file_idEv, symObjAddr: 0x358, symBinAddr: 0x67014, symSize: 0x1C }
  - { offset: 0x3C071F, size: 0x8, addend: 0x0, symName: __ZNK10llama_file4seekEmi, symObjAddr: 0x374, symBinAddr: 0x67030, symSize: 0x8 }
  - { offset: 0x3C0767, size: 0x8, addend: 0x0, symName: __ZNK10llama_file4seekEmi, symObjAddr: 0x374, symBinAddr: 0x67030, symSize: 0x8 }
  - { offset: 0x3C079F, size: 0x8, addend: 0x0, symName: __ZNK10llama_file4impl4seekEmi, symObjAddr: 0x37C, symBinAddr: 0x67038, symSize: 0xEC }
  - { offset: 0x3C0990, size: 0x8, addend: 0x0, symName: __ZN10llama_file8read_rawEPvm, symObjAddr: 0x468, symBinAddr: 0x67124, symSize: 0x24 }
  - { offset: 0x3C09D8, size: 0x8, addend: 0x0, symName: __ZN10llama_file8read_rawEPvm, symObjAddr: 0x468, symBinAddr: 0x67124, symSize: 0x24 }
  - { offset: 0x3C0A49, size: 0x8, addend: 0x0, symName: __ZN10llama_file4impl18read_aligned_chunkEPvm, symObjAddr: 0x11D8, symBinAddr: 0x67E94, symSize: 0x15C }
  - { offset: 0x3C0DA5, size: 0x8, addend: 0x0, symName: __ZN10llama_file4impl15read_raw_unsafeEPvm, symObjAddr: 0x494, symBinAddr: 0x67150, symSize: 0x378 }
  - { offset: 0x3C117D, size: 0x8, addend: 0x0, symName: __ZN10llama_file15read_raw_unsafeEPvm, symObjAddr: 0x48C, symBinAddr: 0x67148, symSize: 0x8 }
  - { offset: 0x3C11C5, size: 0x8, addend: 0x0, symName: __ZN10llama_file15read_raw_unsafeEPvm, symObjAddr: 0x48C, symBinAddr: 0x67148, symSize: 0x8 }
  - { offset: 0x3C1214, size: 0x8, addend: 0x0, symName: __ZN10llama_file4impl7init_fpEPKc, symObjAddr: 0x1344, symBinAddr: 0x67FF0, symSize: 0x118 }
  - { offset: 0x3C1584, size: 0x8, addend: 0x0, symName: __ZN10llama_file8read_u32Ev, symObjAddr: 0x80C, symBinAddr: 0x674C8, symSize: 0x64 }
  - { offset: 0x3C1661, size: 0x8, addend: 0x0, symName: __ZNK10llama_file9write_rawEPKvm, symObjAddr: 0x870, symBinAddr: 0x6752C, symSize: 0x8 }
  - { offset: 0x3C16A9, size: 0x8, addend: 0x0, symName: __ZNK10llama_file9write_rawEPKvm, symObjAddr: 0x870, symBinAddr: 0x6752C, symSize: 0x8 }
  - { offset: 0x3C16E1, size: 0x8, addend: 0x0, symName: __ZNK10llama_file4impl9write_rawEPKvm, symObjAddr: 0x878, symBinAddr: 0x67534, symSize: 0xF0 }
  - { offset: 0x3C18E2, size: 0x8, addend: 0x0, symName: __ZNK10llama_file9write_u32Ej, symObjAddr: 0x968, symBinAddr: 0x67624, symSize: 0x2C }
  - { offset: 0x3C1A2F, size: 0x8, addend: 0x0, symName: __ZN10llama_mmapC2EP10llama_filemb, symObjAddr: 0x994, symBinAddr: 0x67650, symSize: 0x70 }
  - { offset: 0x3C1B18, size: 0x8, addend: 0x0, symName: __ZN10llama_mmap4implC2EP10llama_filemb, symObjAddr: 0x1610, symBinAddr: 0x6820C, symSize: 0x298 }
  - { offset: 0x3C2453, size: 0x8, addend: 0x0, symName: __ZN10llama_mmapC1EP10llama_filemb, symObjAddr: 0xA04, symBinAddr: 0x676C0, symSize: 0x70 }
  - { offset: 0x3C2632, size: 0x8, addend: 0x0, symName: __ZN10llama_mmapD2Ev, symObjAddr: 0xA74, symBinAddr: 0x67730, symSize: 0x3C }
  - { offset: 0x3C2713, size: 0x8, addend: 0x0, symName: __ZN10llama_mmap4implD2Ev, symObjAddr: 0x18A8, symBinAddr: 0x684A4, symSize: 0xA4 }
  - { offset: 0x3C2934, size: 0x8, addend: 0x0, symName: __ZN10llama_mmapD1Ev, symObjAddr: 0xAB0, symBinAddr: 0x6776C, symSize: 0x3C }
  - { offset: 0x3C2A5C, size: 0x8, addend: 0x0, symName: __ZNK10llama_mmap4sizeEv, symObjAddr: 0xAEC, symBinAddr: 0x677A8, symSize: 0xC }
  - { offset: 0x3C2A88, size: 0x8, addend: 0x0, symName: __ZNK10llama_mmap4sizeEv, symObjAddr: 0xAEC, symBinAddr: 0x677A8, symSize: 0xC }
  - { offset: 0x3C2AA3, size: 0x8, addend: 0x0, symName: __ZNK10llama_mmap4addrEv, symObjAddr: 0xAF8, symBinAddr: 0x677B4, symSize: 0xC }
  - { offset: 0x3C2ACF, size: 0x8, addend: 0x0, symName: __ZNK10llama_mmap4addrEv, symObjAddr: 0xAF8, symBinAddr: 0x677B4, symSize: 0xC }
  - { offset: 0x3C2AEA, size: 0x8, addend: 0x0, symName: __ZN10llama_mmap14unmap_fragmentEmm, symObjAddr: 0xB04, symBinAddr: 0x677C0, symSize: 0x8 }
  - { offset: 0x3C2B32, size: 0x8, addend: 0x0, symName: __ZN10llama_mmap14unmap_fragmentEmm, symObjAddr: 0xB04, symBinAddr: 0x677C0, symSize: 0x8 }
  - { offset: 0x3C2B6A, size: 0x8, addend: 0x0, symName: __ZN10llama_mmap4impl14unmap_fragmentEmm, symObjAddr: 0xB0C, symBinAddr: 0x677C8, symSize: 0x4AC }
  - { offset: 0x3C44D4, size: 0x8, addend: 0x0, symName: __ZNSt3__16vectorINS_4pairImmEENS_9allocatorIS2_EEE20__throw_length_errorB8ne200100Ev, symObjAddr: 0x145C, symBinAddr: 0x68108, symSize: 0x14 }
  - { offset: 0x3C45AB, size: 0x8, addend: 0x0, symName: __ZN11llama_mlockC2Ev, symObjAddr: 0xFB8, symBinAddr: 0x67C74, symSize: 0x34 }
  - { offset: 0x3C4687, size: 0x8, addend: 0x0, symName: __ZN11llama_mlockC1Ev, symObjAddr: 0xFEC, symBinAddr: 0x67CA8, symSize: 0x34 }
  - { offset: 0x3C47F2, size: 0x8, addend: 0x0, symName: __ZN11llama_mlockD2Ev, symObjAddr: 0x1020, symBinAddr: 0x67CDC, symSize: 0x34 }
  - { offset: 0x3C4816, size: 0x8, addend: 0x0, symName: __ZN11llama_mlockD2Ev, symObjAddr: 0x1020, symBinAddr: 0x67CDC, symSize: 0x34 }
  - { offset: 0x3C4834, size: 0x8, addend: 0x0, symName: __ZN11llama_mlockD2Ev, symObjAddr: 0x1020, symBinAddr: 0x67CDC, symSize: 0x34 }
  - { offset: 0x3C4852, size: 0x8, addend: 0x0, symName: __ZN11llama_mlockD2Ev, symObjAddr: 0x1020, symBinAddr: 0x67CDC, symSize: 0x34 }
  - { offset: 0x3C48C6, size: 0x8, addend: 0x0, symName: __ZN11llama_mlockD1Ev, symObjAddr: 0x1054, symBinAddr: 0x67D10, symSize: 0x34 }
  - { offset: 0x3C48F6, size: 0x8, addend: 0x0, symName: __ZN11llama_mlockD1Ev, symObjAddr: 0x1054, symBinAddr: 0x67D10, symSize: 0x34 }
  - { offset: 0x3C4914, size: 0x8, addend: 0x0, symName: __ZN11llama_mlockD1Ev, symObjAddr: 0x1054, symBinAddr: 0x67D10, symSize: 0x34 }
  - { offset: 0x3C4932, size: 0x8, addend: 0x0, symName: __ZN11llama_mlockD1Ev, symObjAddr: 0x1054, symBinAddr: 0x67D10, symSize: 0x34 }
  - { offset: 0x3C4950, size: 0x8, addend: 0x0, symName: __ZN11llama_mlockD1Ev, symObjAddr: 0x1054, symBinAddr: 0x67D10, symSize: 0x34 }
  - { offset: 0x3C49E6, size: 0x8, addend: 0x0, symName: __ZN11llama_mlock4initEPv, symObjAddr: 0x1088, symBinAddr: 0x67D44, symSize: 0x4C }
  - { offset: 0x3C4A22, size: 0x8, addend: 0x0, symName: __ZN11llama_mlock4initEPv, symObjAddr: 0x1088, symBinAddr: 0x67D44, symSize: 0x4C }
  - { offset: 0x3C4A56, size: 0x8, addend: 0x0, symName: __ZN11llama_mlock7grow_toEm, symObjAddr: 0x10D4, symBinAddr: 0x67D90, symSize: 0x8 }
  - { offset: 0x3C4A69, size: 0x8, addend: 0x0, symName: __ZN11llama_mlock7grow_toEm, symObjAddr: 0x10D4, symBinAddr: 0x67D90, symSize: 0x8 }
  - { offset: 0x3C4AA3, size: 0x8, addend: 0x0, symName: __ZN11llama_mlock7grow_toEm, symObjAddr: 0x10D4, symBinAddr: 0x67D90, symSize: 0x8 }
  - { offset: 0x3C4AD4, size: 0x8, addend: 0x0, symName: __ZN11llama_mlock4impl7grow_toEm, symObjAddr: 0x10DC, symBinAddr: 0x67D98, symSize: 0xF4 }
  - { offset: 0x3C4BCC, size: 0x8, addend: 0x0, symName: __Z14llama_path_maxv, symObjAddr: 0x11D0, symBinAddr: 0x67E8C, symSize: 0x8 }
  - { offset: 0x3C4C49, size: 0x8, addend: 0x0, symName: __Z14llama_path_maxv, symObjAddr: 0x11D0, symBinAddr: 0x67E8C, symSize: 0x8 }
  - { offset: 0x3C5010, size: 0x8, addend: 0x0, symName: __ZN10llama_mmap4implC2EP10llama_filemb, symObjAddr: 0x1610, symBinAddr: 0x6820C, symSize: 0x298 }
  - { offset: 0x3E7169, size: 0x8, addend: 0x0, symName: __ZNSt3__120__throw_future_errorB8ne200100ENS_11future_errcE, symObjAddr: 0xB74C, symBinAddr: 0x73190, symSize: 0x5C }
  - { offset: 0x3E826E, size: 0x8, addend: 0x0, symName: '__ZNSt3__114__thread_proxyB8ne200100INS_5tupleIJNS_10unique_ptrINS_15__thread_structENS_14default_deleteIS3_EEEEMNS_19__async_assoc_stateINS_4pairIP11ggml_tensorbEENS_12__async_funcIZN18llama_model_loader13load_all_dataEP12ggml_contextRNS_13unordered_mapIjP19ggml_backend_bufferNS_4hashIjEENS_8equal_toIjEENS_9allocatorINS8_IKjSI_EEEEEEPNS_6vectorINS2_I11llama_mlockNS4_ISU_EEEENSN_ISW_EEEEPFbfPvES10_E3$_0JEEEEEFvvEPS15_EEEEES10_S10_', symObjAddr: 0xB7A8, symBinAddr: 0x731EC, symSize: 0x8C }
  - { offset: 0x3E863A, size: 0x8, addend: 0x0, symName: '__ZNSt3__114__thread_proxyB8ne200100INS_5tupleIJNS_10unique_ptrINS_15__thread_structENS_14default_deleteIS3_EEEEMNS_19__async_assoc_stateINS_4pairIP11ggml_tensorbEENS_12__async_funcIZN18llama_model_loader13load_all_dataEP12ggml_contextRNS_13unordered_mapIjP19ggml_backend_bufferNS_4hashIjEENS_8equal_toIjEENS_9allocatorINS8_IKjSI_EEEEEEPNS_6vectorINS2_I11llama_mlockNS4_ISU_EEEENSN_ISW_EEEEPFbfPvES10_E3$_1JEEEEEFvvEPS15_EEEEES10_S10_', symObjAddr: 0xBAB4, symBinAddr: 0x734F8, symSize: 0x8C }
  - { offset: 0x3ED2DD, size: 0x8, addend: 0x0, symName: __ZN18llama_model_loader13load_all_dataEP12ggml_contextRNSt3__113unordered_mapIjP19ggml_backend_bufferNS2_4hashIjEENS2_8equal_toIjEENS2_9allocatorINS2_4pairIKjS5_EEEEEEPNS2_6vectorINS2_10unique_ptrI11llama_mlockNS2_14default_deleteISJ_EEEENSA_ISM_EEEEPFbfPvESQ_, symObjAddr: 0x5E14, symBinAddr: 0x6E214, symSize: 0x1A40 }
  - { offset: 0x3F1A5E, size: 0x8, addend: 0x0, symName: __Z23llama_file_version_name10llama_fver, symObjAddr: 0x0, symBinAddr: 0x68548, symSize: 0x28 }
  - { offset: 0x3F1B4B, size: 0x8, addend: 0x0, symName: __ZN18llama_model_loader9get_arr_nIjEENSt3__19enable_ifIXsr3std11is_integralIT_EE5valueEbE4typeE6llm_kvRS3_b, symObjAddr: 0x28, symBinAddr: 0x68570, symSize: 0xA0 }
  - { offset: 0x3F1DD7, size: 0x8, addend: 0x0, symName: __ZN18llama_model_loader9get_arr_nIjEENSt3__19enable_ifIXsr3std11is_integralIT_EE5valueEbE4typeERKNS1_12basic_stringIcNS1_11char_traitsIcEENS1_9allocatorIcEEEERS3_b, symObjAddr: 0xC8, symBinAddr: 0x68610, symSize: 0x128 }
  - { offset: 0x3F2148, size: 0x8, addend: 0x0, symName: __ZN8GGUFMeta3GKVINS_9ArrayInfoEE6get_kvEPK12gguf_contexti, symObjAddr: 0x824C, symBinAddr: 0x70500, symSize: 0x150 }
  - { offset: 0x3F2384, size: 0x8, addend: 0x0, symName: __ZN18llama_model_loader7get_arrINSt3__16vectorINS1_12basic_stringIcNS1_11char_traitsIcEENS1_9allocatorIcEEEENS6_IS8_EEEEEEb6llm_kvRT_b, symObjAddr: 0x1F0, symBinAddr: 0x68738, symSize: 0xA0 }
  - { offset: 0x3F2610, size: 0x8, addend: 0x0, symName: __ZN18llama_model_loader7get_arrINSt3__112basic_stringIcNS1_11char_traitsIcEENS1_9allocatorIcEEEEEEbRKS7_RNS1_6vectorIT_NS5_ISB_EEEEb, symObjAddr: 0x290, symBinAddr: 0x687D8, symSize: 0x3B0 }
  - { offset: 0x3F3B3B, size: 0x8, addend: 0x0, symName: __ZNSt3__112__hash_tableINS_17__hash_value_typeINS_12basic_stringIcNS_11char_traitsIcEENS_9allocatorIcEEEE23llama_model_kv_overrideEENS_22__unordered_map_hasherIS7_S9_NS_4hashIS7_EENS_8equal_toIS7_EELb1EEENS_21__unordered_map_equalIS7_S9_SE_SC_Lb1EEENS5_IS9_EEE4findIS7_EENS_15__hash_iteratorIPNS_11__hash_nodeIS9_PvEEEERKT_, symObjAddr: 0x8578, symBinAddr: 0x70650, symSize: 0x1B4 }
  - { offset: 0x3F3B7B, size: 0x8, addend: 0x0, symName: __ZN18llama_model_loader7get_keyIbEEb6llm_kvRT_b, symObjAddr: 0x640, symBinAddr: 0x68B88, symSize: 0xA0 }
  - { offset: 0x3F3E07, size: 0x8, addend: 0x0, symName: __ZN18llama_model_loader7get_keyIbEEbRKNSt3__112basic_stringIcNS1_11char_traitsIcEENS1_9allocatorIcEEEERT_b, symObjAddr: 0x6E0, symBinAddr: 0x68C28, symSize: 0x15C }
  - { offset: 0x3F42C8, size: 0x8, addend: 0x0, symName: __ZNSt3__112__hash_tableINS_17__hash_value_typeINS_12basic_stringIcNS_11char_traitsIcEENS_9allocatorIcEEEE23llama_model_kv_overrideEENS_22__unordered_map_hasherIS7_S9_NS_4hashIS7_EENS_8equal_toIS7_EELb1EEENS_21__unordered_map_equalIS7_S9_SE_SC_Lb1EEENS5_IS9_EEE4findIS7_EENS_15__hash_iteratorIPNS_11__hash_nodeIS9_PvEEEERKT_, symObjAddr: 0x8578, symBinAddr: 0x70650, symSize: 0x1B4 }
  - { offset: 0x3F45D1, size: 0x8, addend: 0x0, symName: __ZN8GGUFMeta3GKVIbE17validate_overrideE28llama_model_kv_override_typePK23llama_model_kv_override, symObjAddr: 0x8C78, symBinAddr: 0x70904, symSize: 0x240 }
  - { offset: 0x3F47B3, size: 0x8, addend: 0x0, symName: __ZN8GGUFMeta3GKVIbE6get_kvEPK12gguf_contexti, symObjAddr: 0x8B78, symBinAddr: 0x70804, symSize: 0x100 }
  - { offset: 0x3F4984, size: 0x8, addend: 0x0, symName: __ZN18llama_model_loader7get_keyIfEEb6llm_kvRT_b, symObjAddr: 0x83C, symBinAddr: 0x68D84, symSize: 0xA0 }
  - { offset: 0x3F4C10, size: 0x8, addend: 0x0, symName: __ZN18llama_model_loader7get_keyIfEEbRKNSt3__112basic_stringIcNS1_11char_traitsIcEENS1_9allocatorIcEEEERT_b, symObjAddr: 0x8DC, symBinAddr: 0x68E24, symSize: 0x160 }
  - { offset: 0x3F50A9, size: 0x8, addend: 0x0, symName: __ZN8GGUFMeta3GKVIfE17validate_overrideE28llama_model_kv_override_typePK23llama_model_kv_override, symObjAddr: 0x8FB8, symBinAddr: 0x70C44, symSize: 0x240 }
  - { offset: 0x3F528B, size: 0x8, addend: 0x0, symName: __ZN8GGUFMeta3GKVIfE6get_kvEPK12gguf_contexti, symObjAddr: 0x8EB8, symBinAddr: 0x70B44, symSize: 0x100 }
  - { offset: 0x3F545C, size: 0x8, addend: 0x0, symName: __ZN18llama_model_loader7get_keyIjEEb6llm_kvRT_b, symObjAddr: 0xA3C, symBinAddr: 0x68F84, symSize: 0xA0 }
  - { offset: 0x3F56C5, size: 0x8, addend: 0x0, symName: __ZN18llama_model_loader7get_keyIjEEbRKNSt3__112basic_stringIcNS1_11char_traitsIcEENS1_9allocatorIcEEEERT_b, symObjAddr: 0xADC, symBinAddr: 0x69024, symSize: 0x15C }
  - { offset: 0x3F5B5E, size: 0x8, addend: 0x0, symName: __ZN8GGUFMeta3GKVIjE17validate_overrideE28llama_model_kv_override_typePK23llama_model_kv_override, symObjAddr: 0x92F8, symBinAddr: 0x70F84, symSize: 0x240 }
  - { offset: 0x3F5D40, size: 0x8, addend: 0x0, symName: __ZN8GGUFMeta3GKVIjE6get_kvEPK12gguf_contexti, symObjAddr: 0x91F8, symBinAddr: 0x70E84, symSize: 0x100 }
  - { offset: 0x3F5F11, size: 0x8, addend: 0x0, symName: __ZN18llama_model_loader7get_keyINSt3__112basic_stringIcNS1_11char_traitsIcEENS1_9allocatorIcEEEEEEb6llm_kvRT_b, symObjAddr: 0xC38, symBinAddr: 0x69180, symSize: 0xA0 }
  - { offset: 0x3F619D, size: 0x8, addend: 0x0, symName: __ZN18llama_model_loader7get_keyINSt3__112basic_stringIcNS1_11char_traitsIcEENS1_9allocatorIcEEEEEEbRKS7_RT_b, symObjAddr: 0xCD8, symBinAddr: 0x69220, symSize: 0x184 }
  - { offset: 0x3F67ED, size: 0x8, addend: 0x0, symName: __ZN8GGUFMeta3GKVINSt3__112basic_stringIcNS1_11char_traitsIcEENS1_9allocatorIcEEEEE17validate_overrideE28llama_model_kv_override_typePK23llama_model_kv_override, symObjAddr: 0x96BC, symBinAddr: 0x71348, symSize: 0x240 }
  - { offset: 0x3F69CF, size: 0x8, addend: 0x0, symName: __ZN8GGUFMeta3GKVINSt3__112basic_stringIcNS1_11char_traitsIcEENS1_9allocatorIcEEEEE6get_kvEPK12gguf_contexti, symObjAddr: 0x9538, symBinAddr: 0x711C4, symSize: 0x184 }
  - { offset: 0x3F6E65, size: 0x8, addend: 0x0, symName: __ZN18llama_model_loader7get_keyI18llama_pooling_typeEEb6llm_kvRT_b, symObjAddr: 0xE5C, symBinAddr: 0x693A4, symSize: 0xA0 }
  - { offset: 0x3F7153, size: 0x8, addend: 0x0, symName: __ZN18llama_model_loader14get_key_or_arrE6llm_kvRjb, symObjAddr: 0xEFC, symBinAddr: 0x69444, symSize: 0x1FC }
  - { offset: 0x3F7741, size: 0x8, addend: 0x0, symName: __ZN18llama_model_loader14get_key_or_arrINSt3__15arrayIiLm4EEEEEb6llm_kvRT_jb, symObjAddr: 0x10F8, symBinAddr: 0x69640, symSize: 0xA8 }
  - { offset: 0x3F79E3, size: 0x8, addend: 0x0, symName: __ZN18llama_model_loader14get_key_or_arrIiLm4EEEbRKNSt3__112basic_stringIcNS1_11char_traitsIcEENS1_9allocatorIcEEEERNS1_5arrayIT_XT0_EEEjb, symObjAddr: 0x11A0, symBinAddr: 0x696E8, symSize: 0x32C }
  - { offset: 0x3F80B3, size: 0x8, addend: 0x0, symName: __ZN18llama_model_loader7get_arrIiLm4EEEbRKNSt3__112basic_stringIcNS1_11char_traitsIcEENS1_9allocatorIcEEEERNS1_5arrayIT_XT0_EEEb, symObjAddr: 0x98FC, symBinAddr: 0x71588, symSize: 0x320 }
  - { offset: 0x3F8754, size: 0x8, addend: 0x0, symName: __ZN18llama_model_loader7get_keyIiEEbRKNSt3__112basic_stringIcNS1_11char_traitsIcEENS1_9allocatorIcEEEERT_b, symObjAddr: 0x4708, symBinAddr: 0x6CB08, symSize: 0x15C }
  - { offset: 0x3F8B20, size: 0x8, addend: 0x0, symName: __ZN18llama_model_loader14get_key_or_arrINSt3__15arrayIjLm512EEEEEb6llm_kvRT_jb, symObjAddr: 0x14CC, symBinAddr: 0x69A14, symSize: 0xA8 }
  - { offset: 0x3F8DC2, size: 0x8, addend: 0x0, symName: __ZN18llama_model_loader14get_key_or_arrIjLm512EEEbRKNSt3__112basic_stringIcNS1_11char_traitsIcEENS1_9allocatorIcEEEERNS1_5arrayIT_XT0_EEEjb, symObjAddr: 0x1574, symBinAddr: 0x69ABC, symSize: 0x2F8 }
  - { offset: 0x3F93DF, size: 0x8, addend: 0x0, symName: __ZN18llama_model_loader7get_arrIjLm512EEEbRKNSt3__112basic_stringIcNS1_11char_traitsIcEENS1_9allocatorIcEEEERNS1_5arrayIT_XT0_EEEb, symObjAddr: 0x9C1C, symBinAddr: 0x718A8, symSize: 0x3E4 }
  - { offset: 0x3F9A7B, size: 0x8, addend: 0x0, symName: __ZN18llama_model_loader14get_key_or_arrINSt3__15arrayIfLm512EEEEEb6llm_kvRT_jb, symObjAddr: 0x186C, symBinAddr: 0x69DB4, symSize: 0xA8 }
  - { offset: 0x3F9D1D, size: 0x8, addend: 0x0, symName: __ZN18llama_model_loader14get_key_or_arrIfLm512EEEbRKNSt3__112basic_stringIcNS1_11char_traitsIcEENS1_9allocatorIcEEEERNS1_5arrayIT_XT0_EEEjb, symObjAddr: 0x1914, symBinAddr: 0x69E5C, symSize: 0x2F8 }
  - { offset: 0x3FA33A, size: 0x8, addend: 0x0, symName: __ZN18llama_model_loader7get_arrIfLm512EEEbRKNSt3__112basic_stringIcNS1_11char_traitsIcEENS1_9allocatorIcEEEERNS1_5arrayIT_XT0_EEEb, symObjAddr: 0xA000, symBinAddr: 0x71C8C, symSize: 0x2D8 }
  - { offset: 0x3FCF2A, size: 0x8, addend: 0x0, symName: __ZN18llama_model_loaderC2ERKNSt3__112basic_stringIcNS0_11char_traitsIcEENS0_9allocatorIcEEEERNS0_6vectorIS6_NS4_IS6_EEEEbbbbPK23llama_model_kv_overridePK32llama_model_tensor_buft_override, symObjAddr: 0x1C0C, symBinAddr: 0x6A154, symSize: 0x2858 }
  - { offset: 0x4062A9, size: 0x8, addend: 0x0, symName: __ZNSt3__112__hash_tableINS_17__hash_value_typeINS_12basic_stringIcNS_11char_traitsIcEENS_9allocatorIcEEEE23llama_model_kv_overrideEENS_22__unordered_map_hasherIS7_S9_NS_4hashIS7_EENS_8equal_toIS7_EELb1EEENS_21__unordered_map_equalIS7_S9_SE_SC_Lb1EEENS5_IS9_EEE25__emplace_unique_key_argsIS7_JNS_4pairIKS7_S8_EEEEENSL_INS_15__hash_iteratorIPNS_11__hash_nodeIS9_PvEEEEbEERKT_DpOT0_, symObjAddr: 0xA338, symBinAddr: 0x71FC4, symSize: 0x430 }
  - { offset: 0x406C25, size: 0x8, addend: 0x0, symName: __ZNK18llama_model_loader20weight_name_comparerclERKNSt3__112basic_stringIcNS1_11char_traitsIcEENS1_9allocatorIcEEEES9_, symObjAddr: 0xA970, symBinAddr: 0x725E8, symSize: 0xF4 }
  - { offset: 0x406EE2, size: 0x8, addend: 0x0, symName: __ZN18llama_model_loader19llama_tensor_weightC2EPK10llama_filetPK12gguf_contextP11ggml_tensor, symObjAddr: 0x7E2C, symBinAddr: 0x7021C, symSize: 0x1B8 }
  - { offset: 0x40716A, size: 0x8, addend: 0x0, symName: __ZNSt3__16__treeINS_12__value_typeINS_12basic_stringIcNS_11char_traitsIcEENS_9allocatorIcEEEEN18llama_model_loader19llama_tensor_weightEEENS_19__map_value_compareIS7_SA_NS8_20weight_name_comparerELb1EEENS5_ISA_EEE25__emplace_unique_key_argsIS7_JRS7_S9_EEENS_4pairINS_15__tree_iteratorISA_PNS_11__tree_nodeISA_PvEElEEbEERKT_DpOT0_, symObjAddr: 0xAA64, symBinAddr: 0x726DC, symSize: 0x158 }
  - { offset: 0x40751C, size: 0x8, addend: 0x0, symName: __ZN8GGUFMeta3GKVItE17validate_overrideE28llama_model_kv_override_typePK23llama_model_kv_override, symObjAddr: 0xAEC8, symBinAddr: 0x72994, symSize: 0x240 }
  - { offset: 0x4076FE, size: 0x8, addend: 0x0, symName: __ZN8GGUFMeta3GKVItE6get_kvEPK12gguf_contexti, symObjAddr: 0xADC8, symBinAddr: 0x72894, symSize: 0x100 }
  - { offset: 0x4078DD, size: 0x8, addend: 0x0, symName: __ZN18llama_model_loader7get_keyItEEbRKNSt3__112basic_stringIcNS1_11char_traitsIcEENS1_9allocatorIcEEEERT_b, symObjAddr: 0x4508, symBinAddr: 0x6C9AC, symSize: 0x15C }
  - { offset: 0x407DBA, size: 0x8, addend: 0x0, symName: __ZNSt3__16__treeINS_12__value_typeI9ggml_typejEENS_19__map_value_compareIS2_S3_NS_4lessIS2_EELb1EEENS_9allocatorIS3_EEE7destroyEPNS_11__tree_nodeIS3_PvEE, symObjAddr: 0xB448, symBinAddr: 0x72F14, symSize: 0x44 }
  - { offset: 0x407EDB, size: 0x8, addend: 0x0, symName: __ZNK18llama_model_loader20weight_name_comparerclERKNSt3__112basic_stringIcNS1_11char_traitsIcEENS1_9allocatorIcEEEES9_, symObjAddr: 0xA970, symBinAddr: 0x725E8, symSize: 0xF4 }
  - { offset: 0x407EE6, size: 0x8, addend: 0x0, symName: __ZNSt3__16vectorINS_10unique_ptrI10llama_fileNS_14default_deleteIS2_EEEENS_9allocatorIS5_EEE20__throw_length_errorB8ne200100Ev, symObjAddr: 0xA948, symBinAddr: 0x725D4, symSize: 0x14 }
  - { offset: 0x407F13, size: 0x8, addend: 0x0, symName: __ZNSt3__16vectorIP18ggml_backend_eventNS_9allocatorIS2_EEE12emplace_backIJRS2_EEES7_DpOT_, symObjAddr: 0x8120, symBinAddr: 0x703D4, symSize: 0xF0 }
  - { offset: 0x4080B3, size: 0x8, addend: 0x0, symName: __ZNSt3__110unique_ptrINS_11__tree_nodeINS_12__value_typeINS_12basic_stringIcNS_11char_traitsIcEENS_9allocatorIcEEEEN18llama_model_loader19llama_tensor_weightEEEPvEENS_22__tree_node_destructorINS6_ISD_EEEEED1B8ne200100Ev, symObjAddr: 0xABBC, symBinAddr: 0x72834, symSize: 0x60 }
  - { offset: 0x4083E1, size: 0x8, addend: 0x0, symName: __ZNSt3__16vectorINS_10unique_ptrI12ggml_context20ggml_context_deleterEENS_9allocatorIS4_EEED1B8ne200100Ev, symObjAddr: 0x4864, symBinAddr: 0x6CC64, symSize: 0x70 }
  - { offset: 0x4085D8, size: 0x8, addend: 0x0, symName: __ZNSt3__113unordered_mapINS_12basic_stringIcNS_11char_traitsIcEENS_9allocatorIcEEEE23llama_model_kv_overrideNS_4hashIS6_EENS_8equal_toIS6_EENS4_INS_4pairIKS6_S7_EEEEED1B8ne200100Ev, symObjAddr: 0x48D4, symBinAddr: 0x6CCD4, symSize: 0x68 }
  - { offset: 0x4089DE, size: 0x8, addend: 0x0, symName: __ZNSt3__16__treeINS_12__value_typeINS_12basic_stringIcNS_11char_traitsIcEENS_9allocatorIcEEEEN18llama_model_loader19llama_tensor_weightEEENS_19__map_value_compareIS7_SA_NS8_20weight_name_comparerELb1EEENS5_ISA_EEE7destroyEPNS_11__tree_nodeISA_PvEE, symObjAddr: 0xA2D8, symBinAddr: 0x71F64, symSize: 0x60 }
  - { offset: 0x408C22, size: 0x8, addend: 0x0, symName: __ZNSt3__16vectorINS_10unique_ptrI10llama_mmapNS_14default_deleteIS2_EEEENS_9allocatorIS5_EEED1B8ne200100Ev, symObjAddr: 0x493C, symBinAddr: 0x6CD3C, symSize: 0x70 }
  - { offset: 0x408E3F, size: 0x8, addend: 0x0, symName: __ZNSt3__16vectorINS_10unique_ptrI10llama_fileNS_14default_deleteIS2_EEEENS_9allocatorIS5_EEED1B8ne200100Ev, symObjAddr: 0x49AC, symBinAddr: 0x6CDAC, symSize: 0x70 }
  - { offset: 0x4091E1, size: 0x8, addend: 0x0, symName: __ZN18llama_model_loader7get_keyItEEbRKNSt3__112basic_stringIcNS1_11char_traitsIcEENS1_9allocatorIcEEEERT_b, symObjAddr: 0x4508, symBinAddr: 0x6C9AC, symSize: 0x15C }
  - { offset: 0x4092EF, size: 0x8, addend: 0x0, symName: __ZN8GGUFMeta3GKVIiE17validate_overrideE28llama_model_kv_override_typePK23llama_model_kv_override, symObjAddr: 0xB208, symBinAddr: 0x72CD4, symSize: 0x240 }
  - { offset: 0x4094D1, size: 0x8, addend: 0x0, symName: __ZN8GGUFMeta3GKVIiE6get_kvEPK12gguf_contexti, symObjAddr: 0xB108, symBinAddr: 0x72BD4, symSize: 0x100 }
  - { offset: 0x409C64, size: 0x8, addend: 0x0, symName: __ZN18llama_model_loaderC1ERKNSt3__112basic_stringIcNS0_11char_traitsIcEENS0_9allocatorIcEEEERNS0_6vectorIS6_NS4_IS6_EEEEbbbbPK23llama_model_kv_overridePK32llama_model_tensor_buft_override, symObjAddr: 0x4A1C, symBinAddr: 0x6CE1C, symSize: 0xC }
  - { offset: 0x409D5C, size: 0x8, addend: 0x0, symName: __ZNK18llama_model_loader13get_arch_nameEv, symObjAddr: 0x4A28, symBinAddr: 0x6CE28, symSize: 0x28 }
  - { offset: 0x409DA2, size: 0x8, addend: 0x0, symName: __ZNK18llama_model_loader13get_arch_nameEv, symObjAddr: 0x4A28, symBinAddr: 0x6CE28, symSize: 0x28 }
  - { offset: 0x409DDA, size: 0x8, addend: 0x0, symName: __ZNK18llama_model_loader8get_archEv, symObjAddr: 0x4A50, symBinAddr: 0x6CE50, symSize: 0x8 }
  - { offset: 0x409EBC, size: 0x8, addend: 0x0, symName: __ZNK18llama_model_loader10get_weightEPKc, symObjAddr: 0x4A58, symBinAddr: 0x6CE58, symSize: 0x14C }
  - { offset: 0x40A490, size: 0x8, addend: 0x0, symName: __ZNK18llama_model_loader14require_weightEPKc, symObjAddr: 0x4BA4, symBinAddr: 0x6CFA4, symSize: 0xC4 }
  - { offset: 0x40A611, size: 0x8, addend: 0x0, symName: __ZNK18llama_model_loader15get_tensor_metaEPKc, symObjAddr: 0x4C68, symBinAddr: 0x6D068, symSize: 0x1C }
  - { offset: 0x40A698, size: 0x8, addend: 0x0, symName: __ZNK18llama_model_loader19require_tensor_metaERKNSt3__112basic_stringIcNS0_11char_traitsIcEENS0_9allocatorIcEEEE, symObjAddr: 0x4C84, symBinAddr: 0x6D084, symSize: 0xEC }
  - { offset: 0x40A92B, size: 0x8, addend: 0x0, symName: __ZNK18llama_model_loader17check_tensor_dimsERKNSt3__112basic_stringIcNS0_11char_traitsIcEENS0_9allocatorIcEEEERKNS0_6vectorIxNS4_IxEEEEb, symObjAddr: 0x4D70, symBinAddr: 0x6D170, symSize: 0x2E0 }
  - { offset: 0x40B3ED, size: 0x8, addend: 0x0, symName: __ZN18llama_model_loader13create_tensorEP12ggml_contextRKNSt3__112basic_stringIcNS2_11char_traitsIcEENS2_9allocatorIcEEEERKSt16initializer_listIxEi, symObjAddr: 0x5050, symBinAddr: 0x6D450, symSize: 0x174 }
  - { offset: 0x40BA7C, size: 0x8, addend: 0x0, symName: __ZNSt3__16vectorIxNS_9allocatorIxEEE20__throw_length_errorB8ne200100Ev, symObjAddr: 0xB500, symBinAddr: 0x72F58, symSize: 0x14 }
  - { offset: 0x40BA94, size: 0x8, addend: 0x0, symName: __ZNSt3__16vectorINS_10unique_ptrI10llama_mmapNS_14default_deleteIS2_EEEENS_9allocatorIS5_EEE20__throw_length_errorB8ne200100Ev, symObjAddr: 0xB514, symBinAddr: 0x72F6C, symSize: 0x14 }
  - { offset: 0x40BA9F, size: 0x8, addend: 0x0, symName: __ZN18llama_model_loader21create_tensor_as_viewEP12ggml_contextP11ggml_tensorRKNSt3__112basic_stringIcNS4_11char_traitsIcEENS4_9allocatorIcEEEERKSt16initializer_listIxEmb, symObjAddr: 0x51C4, symBinAddr: 0x6D5C4, symSize: 0x28C }
  - { offset: 0x40C2EA, size: 0x8, addend: 0x0, symName: __ZNK18llama_model_loader20done_getting_tensorsEv, symObjAddr: 0x5450, symBinAddr: 0x6D850, symSize: 0xD0 }
  - { offset: 0x40D030, size: 0x8, addend: 0x0, symName: __ZN18llama_model_loader13init_mappingsEbPNSt3__16vectorINS0_10unique_ptrI11llama_mlockNS0_14default_deleteIS3_EEEENS0_9allocatorIS6_EEEE, symObjAddr: 0x5520, symBinAddr: 0x6D920, symSize: 0x52C }
  - { offset: 0x40E7F7, size: 0x8, addend: 0x0, symName: __ZNSt3__16vectorINS_10unique_ptrI10llama_mmapNS_14default_deleteIS2_EEEENS_9allocatorIS5_EEE20__throw_length_errorB8ne200100Ev, symObjAddr: 0xB514, symBinAddr: 0x72F6C, symSize: 0x14 }
  - { offset: 0x40E824, size: 0x8, addend: 0x0, symName: __ZNSt3__16vectorINS_10unique_ptrI11llama_mlockNS_14default_deleteIS2_EEEENS_9allocatorIS5_EEE20__throw_length_errorB8ne200100Ev, symObjAddr: 0xB53C, symBinAddr: 0x72F80, symSize: 0x14 }
  - { offset: 0x40E82F, size: 0x8, addend: 0x0, symName: __ZNSt3__16vectorINS_10unique_ptrI11llama_mlockNS_14default_deleteIS2_EEEENS_9allocatorIS5_EEE20__throw_length_errorB8ne200100Ev, symObjAddr: 0xB53C, symBinAddr: 0x72F80, symSize: 0x14 }
  - { offset: 0x40E847, size: 0x8, addend: 0x0, symName: __ZNSt3__16vectorINS_10unique_ptrI10llama_mmapNS_14default_deleteIS2_EEEENS_9allocatorIS5_EEE20__throw_out_of_rangeB8ne200100Ev, symObjAddr: 0xB550, symBinAddr: 0x72F94, symSize: 0x14 }
  - { offset: 0x40E852, size: 0x8, addend: 0x0, symName: __ZNSt3__110unique_ptrI10llama_mmapNS_14default_deleteIS1_EEED1B8ne200100Ev, symObjAddr: 0x5A88, symBinAddr: 0x6DE88, symSize: 0x3C }
  - { offset: 0x40E8EA, size: 0x8, addend: 0x0, symName: __ZNSt3__110unique_ptrI11llama_mlockNS_14default_deleteIS1_EEED1B8ne200100Ev, symObjAddr: 0x5A4C, symBinAddr: 0x6DE4C, symSize: 0x3C }
  - { offset: 0x40EA9D, size: 0x8, addend: 0x0, symName: __ZNK18llama_model_loader17get_mapping_rangeEPmS0_PPviP12ggml_context, symObjAddr: 0x5AC4, symBinAddr: 0x6DEC4, symSize: 0x134 }
  - { offset: 0x40ED36, size: 0x8, addend: 0x0, symName: __ZNK18llama_model_loader13load_data_forEP11ggml_tensor, symObjAddr: 0x5BF8, symBinAddr: 0x6DFF8, symSize: 0x21C }
  - { offset: 0x40ED41, size: 0x8, addend: 0x0, symName: __ZNSt3__16vectorINS_10unique_ptrI10llama_mmapNS_14default_deleteIS2_EEEENS_9allocatorIS5_EEE20__throw_out_of_rangeB8ne200100Ev, symObjAddr: 0xB550, symBinAddr: 0x72F94, symSize: 0x14 }
  - { offset: 0x40ED59, size: 0x8, addend: 0x0, symName: __ZNSt3__16vectorINS_10unique_ptrI10llama_fileNS_14default_deleteIS2_EEEENS_9allocatorIS5_EEE20__throw_out_of_rangeB8ne200100Ev, symObjAddr: 0xB564, symBinAddr: 0x72FA8, symSize: 0x14 }
  - { offset: 0x40ED64, size: 0x8, addend: 0x0, symName: __ZNK18llama_model_loader13load_data_forEP11ggml_tensor, symObjAddr: 0x5BF8, symBinAddr: 0x6DFF8, symSize: 0x21C }
  - { offset: 0x4117BA, size: 0x8, addend: 0x0, symName: __ZNSt3__113__assoc_stateINS_4pairIP11ggml_tensorbEEE4moveEv, symObjAddr: 0xBB9C, symBinAddr: 0x735E0, symSize: 0xCC }
  - { offset: 0x4119B9, size: 0x8, addend: 0x0, symName: __ZNSt3__16vectorIP18ggml_backend_eventNS_9allocatorIS2_EEE12emplace_backIJRS2_EEES7_DpOT_, symObjAddr: 0x8120, symBinAddr: 0x703D4, symSize: 0xF0 }
  - { offset: 0x411DB1, size: 0x8, addend: 0x0, symName: __ZNSt3__16vectorIP19ggml_backend_bufferNS_9allocatorIS2_EEE20__throw_length_errorB8ne200100Ev, symObjAddr: 0x8210, symBinAddr: 0x704C4, symSize: 0x14 }
  - { offset: 0x411E02, size: 0x8, addend: 0x0, symName: __ZNSt3__16vectorINS_10unique_ptrI10llama_fileNS_14default_deleteIS2_EEEENS_9allocatorIS5_EEE20__throw_out_of_rangeB8ne200100Ev, symObjAddr: 0xB564, symBinAddr: 0x72FA8, symSize: 0x14 }
  - { offset: 0x411E1A, size: 0x8, addend: 0x0, symName: '__ZNSt3__119__async_assoc_stateINS_4pairIP11ggml_tensorbEENS_12__async_funcIZN18llama_model_loader13load_all_dataEP12ggml_contextRNS_13unordered_mapIjP19ggml_backend_bufferNS_4hashIjEENS_8equal_toIjEENS_9allocatorINS1_IKjSB_EEEEEEPNS_6vectorINS_10unique_ptrI11llama_mlockNS_14default_deleteISO_EEEENSG_ISR_EEEEPFbfPvESV_E3$_0JEEEED1Ev', symObjAddr: 0xB578, symBinAddr: 0x72FBC, symSize: 0x4C }
  - { offset: 0x411E25, size: 0x8, addend: 0x0, symName: __ZNSt3__16vectorINS_4pairImmEENS_9allocatorIS2_EEE20__throw_out_of_rangeB8ne200100Ev, symObjAddr: 0xBC68, symBinAddr: 0x736AC, symSize: 0x14 }
  - { offset: 0x411E48, size: 0x8, addend: 0x0, symName: __ZNSt3__16vectorINS_6futureINS_4pairIP11ggml_tensorbEEEENS_9allocatorIS6_EEE20__throw_length_errorB8ne200100Ev, symObjAddr: 0xB8B8, symBinAddr: 0x732FC, symSize: 0x14 }
  - { offset: 0x411E60, size: 0x8, addend: 0x0, symName: __ZNSt3__16vectorINS_10unique_ptrI11llama_mlockNS_14default_deleteIS2_EEEENS_9allocatorIS5_EEE20__throw_out_of_rangeB8ne200100Ev, symObjAddr: 0xB8CC, symBinAddr: 0x73310, symSize: 0x14 }
  - { offset: 0x411E6B, size: 0x8, addend: 0x0, symName: __ZNSt3__16vectorINS_10unique_ptrI11llama_mlockNS_14default_deleteIS2_EEEENS_9allocatorIS5_EEE20__throw_out_of_rangeB8ne200100Ev, symObjAddr: 0xB8CC, symBinAddr: 0x73310, symSize: 0x14 }
  - { offset: 0x411E83, size: 0x8, addend: 0x0, symName: '__ZNSt3__119__async_assoc_stateINS_4pairIP11ggml_tensorbEENS_12__async_funcIZN18llama_model_loader13load_all_dataEP12ggml_contextRNS_13unordered_mapIjP19ggml_backend_bufferNS_4hashIjEENS_8equal_toIjEENS_9allocatorINS1_IKjSB_EEEEEEPNS_6vectorINS_10unique_ptrI11llama_mlockNS_14default_deleteISO_EEEENSG_ISR_EEEEPFbfPvESV_E3$_1JEEEED1Ev', symObjAddr: 0xB8E0, symBinAddr: 0x73324, symSize: 0x4C }
  - { offset: 0x411E8E, size: 0x8, addend: 0x0, symName: __ZNSt3__16vectorI7no_initIhENS_9allocatorIS2_EEE20__throw_length_errorB8ne200100Ev, symObjAddr: 0xBB88, symBinAddr: 0x735CC, symSize: 0x14 }
  - { offset: 0x411EA6, size: 0x8, addend: 0x0, symName: __ZNSt3__113__assoc_stateINS_4pairIP11ggml_tensorbEEE4moveEv, symObjAddr: 0xBB9C, symBinAddr: 0x735E0, symSize: 0xCC }
  - { offset: 0x411EB1, size: 0x8, addend: 0x0, symName: __ZNSt3__16vectorIP19ggml_backend_bufferNS_9allocatorIS2_EEE20__throw_length_errorB8ne200100Ev, symObjAddr: 0x8210, symBinAddr: 0x704C4, symSize: 0x14 }
  - { offset: 0x411EC9, size: 0x8, addend: 0x0, symName: __ZNSt3__16vectorIPvNS_9allocatorIS1_EEE20__throw_length_errorB8ne200100Ev, symObjAddr: 0x8224, symBinAddr: 0x704D8, symSize: 0x14 }
  - { offset: 0x411ED4, size: 0x8, addend: 0x0, symName: __ZNSt3__16vectorIPvNS_9allocatorIS1_EEE20__throw_length_errorB8ne200100Ev, symObjAddr: 0x8224, symBinAddr: 0x704D8, symSize: 0x14 }
  - { offset: 0x411EEC, size: 0x8, addend: 0x0, symName: __ZNSt3__16vectorIP18ggml_backend_eventNS_9allocatorIS2_EEE20__throw_length_errorB8ne200100Ev, symObjAddr: 0x8238, symBinAddr: 0x704EC, symSize: 0x14 }
  - { offset: 0x411EF7, size: 0x8, addend: 0x0, symName: '__ZNSt3__110unique_ptrINS_5tupleIJNS0_INS_15__thread_structENS_14default_deleteIS2_EEEEMNS_19__async_assoc_stateINS_4pairIP11ggml_tensorbEENS_12__async_funcIZN18llama_model_loader13load_all_dataEP12ggml_contextRNS_13unordered_mapIjP19ggml_backend_bufferNS_4hashIjEENS_8equal_toIjEENS_9allocatorINS7_IKjSH_EEEEEEPNS_6vectorINS0_I11llama_mlockNS3_IST_EEEENSM_ISV_EEEEPFbfPvESZ_E3$_1JEEEEEFvvEPS14_EEENS3_IS18_EEED1B8ne200100Ev', symObjAddr: 0xBB40, symBinAddr: 0x73584, symSize: 0x48 }
  - { offset: 0x41209F, size: 0x8, addend: 0x0, symName: __ZNSt3__110unique_ptrINS_15__thread_structENS_14default_deleteIS1_EEED1B8ne200100Ev, symObjAddr: 0xB87C, symBinAddr: 0x732C0, symSize: 0x3C }
  - { offset: 0x412137, size: 0x8, addend: 0x0, symName: '__ZNSt3__110unique_ptrINS_5tupleIJNS0_INS_15__thread_structENS_14default_deleteIS2_EEEEMNS_19__async_assoc_stateINS_4pairIP11ggml_tensorbEENS_12__async_funcIZN18llama_model_loader13load_all_dataEP12ggml_contextRNS_13unordered_mapIjP19ggml_backend_bufferNS_4hashIjEENS_8equal_toIjEENS_9allocatorINS7_IKjSH_EEEEEEPNS_6vectorINS0_I11llama_mlockNS3_IST_EEEENSM_ISV_EEEEPFbfPvESZ_E3$_0JEEEEEFvvEPS14_EEENS3_IS18_EEED1B8ne200100Ev', symObjAddr: 0xB834, symBinAddr: 0x73278, symSize: 0x48 }
  - { offset: 0x4122DF, size: 0x8, addend: 0x0, symName: __ZNSt3__16vectorINS_6futureINS_4pairIP11ggml_tensorbEEEENS_9allocatorIS6_EEED1B8ne200100Ev, symObjAddr: 0x7854, symBinAddr: 0x6FC54, symSize: 0x80 }
  - { offset: 0x4124E5, size: 0x8, addend: 0x0, symName: __ZNK18llama_model_loader10ftype_nameEv, symObjAddr: 0x78D4, symBinAddr: 0x6FCD4, symSize: 0xC }
  - { offset: 0x412525, size: 0x8, addend: 0x0, symName: __ZL22llama_model_ftype_name11llama_ftype, symObjAddr: 0x78E0, symBinAddr: 0x6FCE0, symSize: 0x3EC }
  - { offset: 0x4129AE, size: 0x8, addend: 0x0, symName: __ZNK18llama_model_loader10print_infoEv, symObjAddr: 0x7CCC, symBinAddr: 0x700CC, symSize: 0x150 }
  - { offset: 0x4131AF, size: 0x8, addend: 0x0, symName: __ZNSt3__16vectorIP18ggml_backend_eventNS_9allocatorIS2_EEE20__throw_length_errorB8ne200100Ev, symObjAddr: 0x8238, symBinAddr: 0x704EC, symSize: 0x14 }
  - { offset: 0x4131C7, size: 0x8, addend: 0x0, symName: __ZN8GGUFMeta3GKVINS_9ArrayInfoEE6get_kvEPK12gguf_contexti, symObjAddr: 0x824C, symBinAddr: 0x70500, symSize: 0x150 }
  - { offset: 0x4142C0, size: 0x8, addend: 0x0, symName: __ZNSt3__112__hash_tableINS_17__hash_value_typeINS_12basic_stringIcNS_11char_traitsIcEENS_9allocatorIcEEEE23llama_model_kv_overrideEENS_22__unordered_map_hasherIS7_S9_NS_4hashIS7_EENS_8equal_toIS7_EELb1EEENS_21__unordered_map_equalIS7_S9_SE_SC_Lb1EEENS5_IS9_EEE11__do_rehashILb1EEEvm, symObjAddr: 0xA7C8, symBinAddr: 0x72454, symSize: 0x180 }
  - { offset: 0x41464D, size: 0x8, addend: 0x0, symName: __ZNSt3__16vectorINS_10unique_ptrI10llama_fileNS_14default_deleteIS2_EEEENS_9allocatorIS5_EEE20__throw_length_errorB8ne200100Ev, symObjAddr: 0xA948, symBinAddr: 0x725D4, symSize: 0x14 }
  - { offset: 0x414662, size: 0x8, addend: 0x0, symName: __ZNSt3__110unique_ptrINS_11__hash_nodeINS_17__hash_value_typeINS_12basic_stringIcNS_11char_traitsIcEENS_9allocatorIcEEEE23llama_model_kv_overrideEEPvEENS_22__hash_node_destructorINS6_ISC_EEEEED1B8ne200100Ev, symObjAddr: 0xA768, symBinAddr: 0x723F4, symSize: 0x60 }
  - { offset: 0x414C07, size: 0x8, addend: 0x0, symName: '__ZNSt3__119__async_assoc_stateINS_4pairIP11ggml_tensorbEENS_12__async_funcIZN18llama_model_loader13load_all_dataEP12ggml_contextRNS_13unordered_mapIjP19ggml_backend_bufferNS_4hashIjEENS_8equal_toIjEENS_9allocatorINS1_IKjSB_EEEEEEPNS_6vectorINS_10unique_ptrI11llama_mlockNS_14default_deleteISO_EEEENSG_ISR_EEEEPFbfPvESV_E3$_0JEEEED1Ev', symObjAddr: 0xB578, symBinAddr: 0x72FBC, symSize: 0x4C }
  - { offset: 0x414CA3, size: 0x8, addend: 0x0, symName: '__ZNSt3__119__async_assoc_stateINS_4pairIP11ggml_tensorbEENS_12__async_funcIZN18llama_model_loader13load_all_dataEP12ggml_contextRNS_13unordered_mapIjP19ggml_backend_bufferNS_4hashIjEENS_8equal_toIjEENS_9allocatorINS1_IKjSB_EEEEEEPNS_6vectorINS_10unique_ptrI11llama_mlockNS_14default_deleteISO_EEEENSG_ISR_EEEEPFbfPvESV_E3$_0JEEEED0Ev', symObjAddr: 0xB5C4, symBinAddr: 0x73008, symSize: 0x50 }
  - { offset: 0x414D5D, size: 0x8, addend: 0x0, symName: '__ZNSt3__119__async_assoc_stateINS_4pairIP11ggml_tensorbEENS_12__async_funcIZN18llama_model_loader13load_all_dataEP12ggml_contextRNS_13unordered_mapIjP19ggml_backend_bufferNS_4hashIjEENS_8equal_toIjEENS_9allocatorINS1_IKjSB_EEEEEEPNS_6vectorINS_10unique_ptrI11llama_mlockNS_14default_deleteISO_EEEENSG_ISR_EEEEPFbfPvESV_E3$_0JEEEE16__on_zero_sharedEv', symObjAddr: 0xB614, symBinAddr: 0x73058, symSize: 0x30 }
  - { offset: 0x414FC9, size: 0x8, addend: 0x0, symName: '__ZNSt3__119__async_assoc_stateINS_4pairIP11ggml_tensorbEENS_12__async_funcIZN18llama_model_loader13load_all_dataEP12ggml_contextRNS_13unordered_mapIjP19ggml_backend_bufferNS_4hashIjEENS_8equal_toIjEENS_9allocatorINS1_IKjSB_EEEEEEPNS_6vectorINS_10unique_ptrI11llama_mlockNS_14default_deleteISO_EEEENSG_ISR_EEEEPFbfPvESV_E3$_0JEEEE9__executeEv', symObjAddr: 0xB644, symBinAddr: 0x73088, symSize: 0x108 }
  - { offset: 0x41548D, size: 0x8, addend: 0x0, symName: '__ZNSt3__119__async_assoc_stateINS_4pairIP11ggml_tensorbEENS_12__async_funcIZN18llama_model_loader13load_all_dataEP12ggml_contextRNS_13unordered_mapIjP19ggml_backend_bufferNS_4hashIjEENS_8equal_toIjEENS_9allocatorINS1_IKjSB_EEEEEEPNS_6vectorINS_10unique_ptrI11llama_mlockNS_14default_deleteISO_EEEENSG_ISR_EEEEPFbfPvESV_E3$_1JEEEED1Ev', symObjAddr: 0xB8E0, symBinAddr: 0x73324, symSize: 0x4C }
  - { offset: 0x415529, size: 0x8, addend: 0x0, symName: '__ZNSt3__119__async_assoc_stateINS_4pairIP11ggml_tensorbEENS_12__async_funcIZN18llama_model_loader13load_all_dataEP12ggml_contextRNS_13unordered_mapIjP19ggml_backend_bufferNS_4hashIjEENS_8equal_toIjEENS_9allocatorINS1_IKjSB_EEEEEEPNS_6vectorINS_10unique_ptrI11llama_mlockNS_14default_deleteISO_EEEENSG_ISR_EEEEPFbfPvESV_E3$_1JEEEED0Ev', symObjAddr: 0xB92C, symBinAddr: 0x73370, symSize: 0x50 }
  - { offset: 0x4155CB, size: 0x8, addend: 0x0, symName: '__ZNSt3__119__async_assoc_stateINS_4pairIP11ggml_tensorbEENS_12__async_funcIZN18llama_model_loader13load_all_dataEP12ggml_contextRNS_13unordered_mapIjP19ggml_backend_bufferNS_4hashIjEENS_8equal_toIjEENS_9allocatorINS1_IKjSB_EEEEEEPNS_6vectorINS_10unique_ptrI11llama_mlockNS_14default_deleteISO_EEEENSG_ISR_EEEEPFbfPvESV_E3$_1JEEEE16__on_zero_sharedEv', symObjAddr: 0xB97C, symBinAddr: 0x733C0, symSize: 0x30 }
  - { offset: 0x41567D, size: 0x8, addend: 0x0, symName: '__ZNSt3__119__async_assoc_stateINS_4pairIP11ggml_tensorbEENS_12__async_funcIZN18llama_model_loader13load_all_dataEP12ggml_contextRNS_13unordered_mapIjP19ggml_backend_bufferNS_4hashIjEENS_8equal_toIjEENS_9allocatorINS1_IKjSB_EEEEEEPNS_6vectorINS_10unique_ptrI11llama_mlockNS_14default_deleteISO_EEEENSG_ISR_EEEEPFbfPvESV_E3$_1JEEEE9__executeEv', symObjAddr: 0xB9AC, symBinAddr: 0x733F0, symSize: 0x108 }
  - { offset: 0x43147E, size: 0x8, addend: 0x0, symName: __ZN17llama_model_saverC2ERK11llama_model, symObjAddr: 0x0, symBinAddr: 0x736C0, symSize: 0x38 }
  - { offset: 0x4314F0, size: 0x8, addend: 0x0, symName: __ZN17llama_model_saverC1ERK11llama_model, symObjAddr: 0x38, symBinAddr: 0x736F8, symSize: 0x38 }
  - { offset: 0x43155F, size: 0x8, addend: 0x0, symName: __ZN17llama_model_saverD2Ev, symObjAddr: 0x70, symBinAddr: 0x73730, symSize: 0x2C }
  - { offset: 0x4315B8, size: 0x8, addend: 0x0, symName: __ZN17llama_model_saverD1Ev, symObjAddr: 0xAC, symBinAddr: 0x7375C, symSize: 0x2C }
  - { offset: 0x431714, size: 0x8, addend: 0x0, symName: __ZN17llama_model_saver6add_kvE6llm_kvj, symObjAddr: 0xD8, symBinAddr: 0x73788, symSize: 0x98 }
  - { offset: 0x4319F0, size: 0x8, addend: 0x0, symName: __ZN17llama_model_saver6add_kvE6llm_kvi, symObjAddr: 0x170, symBinAddr: 0x73820, symSize: 0x98 }
  - { offset: 0x431CCC, size: 0x8, addend: 0x0, symName: __ZN17llama_model_saver6add_kvE6llm_kvf, symObjAddr: 0x208, symBinAddr: 0x738B8, symSize: 0x98 }
  - { offset: 0x431FA2, size: 0x8, addend: 0x0, symName: __ZN17llama_model_saver6add_kvE6llm_kvb, symObjAddr: 0x2A0, symBinAddr: 0x73950, symSize: 0x98 }
  - { offset: 0x43227E, size: 0x8, addend: 0x0, symName: __ZN17llama_model_saver6add_kvE6llm_kvPKc, symObjAddr: 0x338, symBinAddr: 0x739E8, symSize: 0x98 }
  - { offset: 0x43256D, size: 0x8, addend: 0x0, symName: __ZN17llama_model_saver6add_kvE6llm_kvc, symObjAddr: 0x3D0, symBinAddr: 0x73A80, symSize: 0x20 }
  - { offset: 0x4325AA, size: 0x8, addend: 0x0, symName: __ZN17llama_model_saver6add_kvE6llm_kvRKNSt3__16vectorINS1_12basic_stringIcNS1_11char_traitsIcEENS1_9allocatorIcEEEENS6_IS8_EEEE, symObjAddr: 0x3F0, symBinAddr: 0x73AA0, symSize: 0x15C }
  - { offset: 0x432853, size: 0x8, addend: 0x0, symName: __ZN17llama_model_saver6add_kvE6llm_kvRKNSt3__16vectorINS1_12basic_stringIcNS1_11char_traitsIcEENS1_9allocatorIcEEEENS6_IS8_EEEE, symObjAddr: 0x3F0, symBinAddr: 0x73AA0, symSize: 0x15C }
  - { offset: 0x432EFB, size: 0x8, addend: 0x0, symName: __ZNSt3__16vectorIPKcNS_9allocatorIS2_EEE20__throw_length_errorB8ne200100Ev, symObjAddr: 0x2B50, symBinAddr: 0x76190, symSize: 0x14 }
  - { offset: 0x43319A, size: 0x8, addend: 0x0, symName: __ZN17llama_model_saver10add_tensorEPK11ggml_tensor, symObjAddr: 0x54C, symBinAddr: 0x73BFC, symSize: 0x1A0 }
  - { offset: 0x43356B, size: 0x8, addend: 0x0, symName: __ZN17llama_model_saver17add_kv_from_modelEv, symObjAddr: 0x6EC, symBinAddr: 0x73D9C, symSize: 0x1E68 }
  - { offset: 0x434085, size: 0x8, addend: 0x0, symName: __ZN17llama_model_saver17add_kv_from_modelEv, symObjAddr: 0x6EC, symBinAddr: 0x73D9C, symSize: 0x1E68 }
  - { offset: 0x43EAB5, size: 0x8, addend: 0x0, symName: __ZN17llama_model_saver6add_kvINSt3__112basic_stringIcNS1_11char_traitsIcEENS1_9allocatorIcEEEEEEv6llm_kvRKT_b, symObjAddr: 0x2554, symBinAddr: 0x75C04, symSize: 0x148 }
  - { offset: 0x43EEEC, size: 0x8, addend: 0x0, symName: __ZN17llama_model_saver6add_kvINSt3__15arrayIjLm512EEEEEv6llm_kvRKT_b, symObjAddr: 0x269C, symBinAddr: 0x75D4C, symSize: 0x13C }
  - { offset: 0x43F49E, size: 0x8, addend: 0x0, symName: __ZN17llama_model_saver22add_tensors_from_modelEv, symObjAddr: 0x2848, symBinAddr: 0x75E88, symSize: 0x2EC }
  - { offset: 0x43FF78, size: 0x8, addend: 0x0, symName: __ZN17llama_model_saver4saveERKNSt3__112basic_stringIcNS0_11char_traitsIcEENS0_9allocatorIcEEEE, symObjAddr: 0x2B34, symBinAddr: 0x76174, symSize: 0x1C }
  - { offset: 0x441FDF, size: 0x8, addend: 0x0, symName: __ZL24LLAMA_ROPE_SCALING_TYPES, symObjAddr: 0x515298, symBinAddr: 0x3640B0, symSize: 0x0 }
  - { offset: 0x49FD5E, size: 0x8, addend: 0x0, symName: __ZNSt3__111make_uniqueB8ne200100I20llm_build_nemotron_hJRK11llama_modelRK16llm_graph_paramsELi0EEENS_10unique_ptrIT_NS_14default_deleteIS9_EEEEDpOT0_, symObjAddr: 0x3E5F4, symBinAddr: 0xB4718, symSize: 0x5C }
  - { offset: 0x49FE04, size: 0x8, addend: 0x0, symName: __ZNSt3__111make_uniqueB8ne200100I14llm_build_phi3ILb1EEJRK11llama_modelRK16llm_graph_paramsELi0EEENS_10unique_ptrIT_NS_14default_deleteISA_EEEEDpOT0_, symObjAddr: 0x3D738, symBinAddr: 0xB385C, symSize: 0x5C }
  - { offset: 0x49FEAA, size: 0x8, addend: 0x0, symName: __ZNSt3__111make_uniqueB8ne200100I15llm_build_mambaJRK11llama_modelRK16llm_graph_paramsELi0EEENS_10unique_ptrIT_NS_14default_deleteIS9_EEEEDpOT0_, symObjAddr: 0x3DDB0, symBinAddr: 0xB3ED4, symSize: 0x5C }
  - { offset: 0x49FF50, size: 0x8, addend: 0x0, symName: __ZNSt3__111make_uniqueB8ne200100I14llm_build_lfm2JRK11llama_modelRK16llm_graph_paramsELi0EEENS_10unique_ptrIT_NS_14default_deleteIS9_EEEEDpOT0_, symObjAddr: 0x3EF4C, symBinAddr: 0xB5070, symSize: 0x5C }
  - { offset: 0x49FFF6, size: 0x8, addend: 0x0, symName: __ZNSt3__111make_uniqueB8ne200100I20llm_build_mimo2_iswaJRK11llama_modelRK16llm_graph_paramsELi0EEENS_10unique_ptrIT_NS_14default_deleteIS9_EEEEDpOT0_, symObjAddr: 0x3F2E4, symBinAddr: 0xB5408, symSize: 0x5C }
  - { offset: 0x4A009C, size: 0x8, addend: 0x0, symName: __ZNSt3__111make_uniqueB8ne200100I14llm_build_rnd1JRK11llama_modelRK16llm_graph_paramsELi0EEENS_10unique_ptrIT_NS_14default_deleteIS9_EEEEDpOT0_, symObjAddr: 0x3D458, symBinAddr: 0xB357C, symSize: 0x5C }
  - { offset: 0x4A0142, size: 0x8, addend: 0x0, symName: __ZNSt3__111make_uniqueB8ne200100I16llm_build_cogvlmJRK11llama_modelRK16llm_graph_paramsELi0EEENS_10unique_ptrIT_NS_14default_deleteIS9_EEEEDpOT0_, symObjAddr: 0x3F174, symBinAddr: 0xB5298, symSize: 0x5C }
  - { offset: 0x4A01E8, size: 0x8, addend: 0x0, symName: __ZNSt3__111make_uniqueB8ne200100I17llm_build_smollm3JRK11llama_modelRK16llm_graph_paramsELi0EEENS_10unique_ptrIT_NS_14default_deleteIS9_EEEEDpOT0_, symObjAddr: 0x3EE38, symBinAddr: 0xB4F5C, symSize: 0x5C }
  - { offset: 0x4A028E, size: 0x8, addend: 0x0, symName: __ZNSt3__111make_uniqueB8ne200100I15llm_build_afmoeJRK11llama_modelRK16llm_graph_paramsELi0EEENS_10unique_ptrIT_NS_14default_deleteIS9_EEEEDpOT0_, symObjAddr: 0x3EC6C, symBinAddr: 0xB4D90, symSize: 0x5C }
  - { offset: 0x4A0334, size: 0x8, addend: 0x0, symName: __ZNSt3__111make_uniqueB8ne200100I16llm_build_bitnetJRK11llama_modelRK16llm_graph_paramsELi0EEENS_10unique_ptrIT_NS_14default_deleteIS9_EEEEDpOT0_, symObjAddr: 0x3E428, symBinAddr: 0xB454C, symSize: 0x5C }
  - { offset: 0x4A03DA, size: 0x8, addend: 0x0, symName: __ZNSt3__111make_uniqueB8ne200100I20llm_build_exaone_moeJRK11llama_modelRK16llm_graph_paramsELi0EEENS_10unique_ptrIT_NS_14default_deleteIS9_EEEEDpOT0_, symObjAddr: 0x3E764, symBinAddr: 0xB4888, symSize: 0x5C }
  - { offset: 0x4A0480, size: 0x8, addend: 0x0, symName: __ZNSt3__111make_uniqueB8ne200100I24llm_build_granite_hybridJRK11llama_modelRK16llm_graph_paramsELi0EEENS_10unique_ptrIT_NS_14default_deleteIS9_EEEEDpOT0_, symObjAddr: 0x3E930, symBinAddr: 0xB4A54, symSize: 0x5C }
  - { offset: 0x4A0526, size: 0x8, addend: 0x0, symName: __ZNSt3__111make_uniqueB8ne200100I18llm_build_grovemoeJRK11llama_modelRK16llm_graph_paramsELi0EEENS_10unique_ptrIT_NS_14default_deleteIS9_EEEEDpOT0_, symObjAddr: 0x3F060, symBinAddr: 0xB5184, symSize: 0x5C }
  - { offset: 0x4A05CC, size: 0x8, addend: 0x0, symName: __ZNSt3__111make_uniqueB8ne200100I14llm_build_jaisJRK11llama_modelRK16llm_graph_paramsELi0EEENS_10unique_ptrIT_NS_14default_deleteIS9_EEEEDpOT0_, symObjAddr: 0x3E53C, symBinAddr: 0xB4660, symSize: 0x5C }
  - { offset: 0x4A0672, size: 0x8, addend: 0x0, symName: __ZNSt3__111make_uniqueB8ne200100I18llm_build_mistral3JRK11llama_modelRK16llm_graph_paramsELi0EEENS_10unique_ptrIT_NS_14default_deleteIS9_EEEEDpOT0_, symObjAddr: 0x3F288, symBinAddr: 0xB53AC, symSize: 0x5C }
  - { offset: 0x4A0718, size: 0x8, addend: 0x0, symName: __ZNSt3__111make_uniqueB8ne200100I24llm_build_pangu_embeddedJRK11llama_modelRK16llm_graph_paramsELi0EEENS_10unique_ptrIT_NS_14default_deleteIS9_EEEEDpOT0_, symObjAddr: 0x3F1D0, symBinAddr: 0xB52F4, symSize: 0x5C }
  - { offset: 0x4A07BE, size: 0x8, addend: 0x0, symName: __ZNSt3__111make_uniqueB8ne200100I15llm_build_olmoeJRK11llama_modelRK16llm_graph_paramsELi0EEENS_10unique_ptrIT_NS_14default_deleteIS9_EEEEDpOT0_, symObjAddr: 0x3E0EC, symBinAddr: 0xB4210, symSize: 0x5C }
  - { offset: 0x4A0864, size: 0x8, addend: 0x0, symName: __ZNSt3__111make_uniqueB8ne200100I16llm_build_arcticJRK11llama_modelRK16llm_graph_paramsELi0EEENS_10unique_ptrIT_NS_14default_deleteIS9_EEEEDpOT0_, symObjAddr: 0x3E200, symBinAddr: 0xB4324, symSize: 0x5C }
  - { offset: 0x4A090A, size: 0x8, addend: 0x0, symName: __ZNSt3__111make_uniqueB8ne200100I14llm_build_glm4JRK11llama_modelRK16llm_graph_paramsELi0EEENS_10unique_ptrIT_NS_14default_deleteIS9_EEEEDpOT0_, symObjAddr: 0x3E370, symBinAddr: 0xB4494, symSize: 0x5C }
  - { offset: 0x4A09B0, size: 0x8, addend: 0x0, symName: __ZNSt3__111make_uniqueB8ne200100I26llm_build_wavtokenizer_decJRK11llama_modelRK16llm_graph_paramsELi0EEENS_10unique_ptrIT_NS_14default_deleteIS9_EEEEDpOT0_, symObjAddr: 0x3E9E8, symBinAddr: 0xB4B0C, symSize: 0x5C }
  - { offset: 0x4A0A56, size: 0x8, addend: 0x0, symName: __ZNSt3__111make_uniqueB8ne200100I17llm_build_chatglmJRK11llama_modelRK16llm_graph_paramsELi0EEENS_10unique_ptrIT_NS_14default_deleteIS9_EEEEDpOT0_, symObjAddr: 0x3E314, symBinAddr: 0xB4438, symSize: 0x5C }
  - { offset: 0x4A0AFC, size: 0x8, addend: 0x0, symName: __ZNSt3__111make_uniqueB8ne200100I22llm_build_gemma3n_iswaJRK11llama_modelRK16llm_graph_paramsELi0EEENS_10unique_ptrIT_NS_14default_deleteIS9_EEEEDpOT0_, symObjAddr: 0x3DC9C, symBinAddr: 0xB3DC0, symSize: 0x5C }
  - { offset: 0x4A0BA2, size: 0x8, addend: 0x0, symName: __ZNSt3__111make_uniqueB8ne200100I19llm_build_chameleonJRK11llama_modelRK16llm_graph_paramsELi0EEENS_10unique_ptrIT_NS_14default_deleteIS9_EEEEDpOT0_, symObjAddr: 0x3E98C, symBinAddr: 0xB4AB0, symSize: 0x5C }
  - { offset: 0x4A0C48, size: 0x8, addend: 0x0, symName: __ZNSt3__111make_uniqueB8ne200100I15llm_build_gemmaJRK11llama_modelRK16llm_graph_paramsELi0EEENS_10unique_ptrIT_NS_14default_deleteIS9_EEEEDpOT0_, symObjAddr: 0x3DB2C, symBinAddr: 0xB3C50, symSize: 0x5C }
  - { offset: 0x4A0CEE, size: 0x8, addend: 0x0, symName: __ZNSt3__111make_uniqueB8ne200100I18llm_build_deepseekJRK11llama_modelRK16llm_graph_paramsELi0EEENS_10unique_ptrIT_NS_14default_deleteIS9_EEEEDpOT0_, symObjAddr: 0x3E25C, symBinAddr: 0xB4380, symSize: 0x5C }
  - { offset: 0x4A0D94, size: 0x8, addend: 0x0, symName: __ZNSt3__111make_uniqueB8ne200100I18llm_build_glm4_moeJRK11llama_modelRK16llm_graph_paramsELi0EEENS_10unique_ptrIT_NS_14default_deleteIS9_EEEEDpOT0_, symObjAddr: 0x3E3CC, symBinAddr: 0xB44F0, symSize: 0x5C }
  - { offset: 0x4A0E3A, size: 0x8, addend: 0x0, symName: __ZNSt3__111make_uniqueB8ne200100I19llm_build_deepseek2JRK11llama_modelRK16llm_graph_paramsELi0EEENS_10unique_ptrIT_NS_14default_deleteIS9_EEEEDpOT0_, symObjAddr: 0x3E2B8, symBinAddr: 0xB43DC, symSize: 0x5C }
  - { offset: 0x4A0EE0, size: 0x8, addend: 0x0, symName: __ZNSt3__111make_uniqueB8ne200100I15llm_build_rwkv6JRK11llama_modelRK16llm_graph_paramsELi0EEENS_10unique_ptrIT_NS_14default_deleteIS9_EEEEDpOT0_, symObjAddr: 0x3E7C0, symBinAddr: 0xB48E4, symSize: 0x5C }
  - { offset: 0x4A0F86, size: 0x8, addend: 0x0, symName: __ZNSt3__111make_uniqueB8ne200100I17llm_build_qwen2vlJRK11llama_modelRK16llm_graph_paramsELi0EEENS_10unique_ptrIT_NS_14default_deleteIS9_EEEEDpOT0_, symObjAddr: 0x3D4B4, symBinAddr: 0xB35D8, symSize: 0x5C }
  - { offset: 0x4A102C, size: 0x8, addend: 0x0, symName: __ZNSt3__111make_uniqueB8ne200100I23llm_build_hunyuan_denseJRK11llama_modelRK16llm_graph_paramsELi0EEENS_10unique_ptrIT_NS_14default_deleteIS9_EEEEDpOT0_, symObjAddr: 0x3EDDC, symBinAddr: 0xB4F00, symSize: 0x5C }
  - { offset: 0x4A10D2, size: 0x8, addend: 0x0, symName: __ZNSt3__111make_uniqueB8ne200100I15llm_build_olmo2ILb1EEJRK11llama_modelRK16llm_graph_paramsELi0EEENS_10unique_ptrIT_NS_14default_deleteISA_EEEEDpOT0_, symObjAddr: 0x3E034, symBinAddr: 0xB4158, symSize: 0x5C }
  - { offset: 0x4A1178, size: 0x8, addend: 0x0, symName: __ZNSt3__111make_uniqueB8ne200100I22llm_build_smallthinkerILb1EEJRK11llama_modelRK16llm_graph_paramsELi0EEENS_10unique_ptrIT_NS_14default_deleteISA_EEEEDpOT0_, symObjAddr: 0x3EFA8, symBinAddr: 0xB50CC, symSize: 0x5C }
  - { offset: 0x4A121E, size: 0x8, addend: 0x0, symName: __ZNSt3__111make_uniqueB8ne200100I17llm_build_openelmJRK11llama_modelRK16llm_graph_paramsELi0EEENS_10unique_ptrIT_NS_14default_deleteIS9_EEEEDpOT0_, symObjAddr: 0x3E148, symBinAddr: 0xB426C, symSize: 0x5C }
  - { offset: 0x4A12C4, size: 0x8, addend: 0x0, symName: __ZNSt3__111make_uniqueB8ne200100I25llm_build_openai_moe_iswaJRK11llama_modelRK16llm_graph_paramsELi0EEENS_10unique_ptrIT_NS_14default_deleteIS9_EEEEDpOT0_, symObjAddr: 0x3EE94, symBinAddr: 0xB4FB8, symSize: 0x5C }
  - { offset: 0x4A136A, size: 0x8, addend: 0x0, symName: __ZNSt3__111make_uniqueB8ne200100I19llm_build_codeshellJRK11llama_modelRK16llm_graph_paramsELi0EEENS_10unique_ptrIT_NS_14default_deleteIS9_EEEEDpOT0_, symObjAddr: 0x3D9BC, symBinAddr: 0xB3AE0, symSize: 0x5C }
  - { offset: 0x4A1410, size: 0x8, addend: 0x0, symName: __ZNSt3__111make_uniqueB8ne200100I16llm_build_plamo3ILb1EEJRK11llama_modelRK16llm_graph_paramsELi0EEENS_10unique_ptrIT_NS_14default_deleteISA_EEEEDpOT0_, symObjAddr: 0x3D8A8, symBinAddr: 0xB39CC, symSize: 0x5C }
  - { offset: 0x4A14B6, size: 0x8, addend: 0x0, symName: __ZNSt3__111make_uniqueB8ne200100I15llm_build_orionJRK11llama_modelRK16llm_graph_paramsELi0EEENS_10unique_ptrIT_NS_14default_deleteIS9_EEEEDpOT0_, symObjAddr: 0x3DA18, symBinAddr: 0xB3B3C, symSize: 0x5C }
  - { offset: 0x4A155C, size: 0x8, addend: 0x0, symName: __ZNSt3__111make_uniqueB8ne200100I14llm_build_qwenJRK11llama_modelRK16llm_graph_paramsELi0EEENS_10unique_ptrIT_NS_14default_deleteIS9_EEEEDpOT0_, symObjAddr: 0x3D28C, symBinAddr: 0xB33B0, symSize: 0x5C }
  - { offset: 0x4A1602, size: 0x8, addend: 0x0, symName: __ZNSt3__111make_uniqueB8ne200100I19llm_build_internlm2JRK11llama_modelRK16llm_graph_paramsELi0EEENS_10unique_ptrIT_NS_14default_deleteIS9_EEEEDpOT0_, symObjAddr: 0x3DA74, symBinAddr: 0xB3B98, symSize: 0x5C }
  - { offset: 0x4A16A8, size: 0x8, addend: 0x0, symName: __ZNSt3__111make_uniqueB8ne200100I22llm_build_cohere2_iswaJRK11llama_modelRK16llm_graph_paramsELi0EEENS_10unique_ptrIT_NS_14default_deleteIS9_EEEEDpOT0_, symObjAddr: 0x3DF20, symBinAddr: 0xB4044, symSize: 0x5C }
  - { offset: 0x4A174E, size: 0x8, addend: 0x0, symName: __ZNSt3__111make_uniqueB8ne200100I21llm_build_bailingmoe2JRK11llama_modelRK16llm_graph_paramsELi0EEENS_10unique_ptrIT_NS_14default_deleteIS9_EEEEDpOT0_, symObjAddr: 0x3EAFC, symBinAddr: 0xB4C20, symSize: 0x5C }
  - { offset: 0x4A17F4, size: 0x8, addend: 0x0, symName: __ZNSt3__111make_uniqueB8ne200100I15llm_build_dots1JRK11llama_modelRK16llm_graph_paramsELi0EEENS_10unique_ptrIT_NS_14default_deleteIS9_EEEEDpOT0_, symObjAddr: 0x3EBB4, symBinAddr: 0xB4CD8, symSize: 0x5C }
  - { offset: 0x4A189A, size: 0x8, addend: 0x0, symName: __ZNSt3__111make_uniqueB8ne200100I19llm_build_starcoderJRK11llama_modelRK16llm_graph_paramsELi0EEENS_10unique_ptrIT_NS_14default_deleteIS9_EEEEDpOT0_, symObjAddr: 0x3D008, symBinAddr: 0xB312C, symSize: 0x5C }
  - { offset: 0x4A1940, size: 0x8, addend: 0x0, symName: __ZNSt3__111make_uniqueB8ne200100I16llm_build_plamo2JRK11llama_modelRK16llm_graph_paramsELi0EEENS_10unique_ptrIT_NS_14default_deleteIS9_EEEEDpOT0_, symObjAddr: 0x3D84C, symBinAddr: 0xB3970, symSize: 0x5C }
  - { offset: 0x4A19E6, size: 0x8, addend: 0x0, symName: __ZNSt3__111make_uniqueB8ne200100I18llm_build_stablelmJRK11llama_modelRK16llm_graph_paramsELi0EEENS_10unique_ptrIT_NS_14default_deleteIS9_EEEEDpOT0_, symObjAddr: 0x3D230, symBinAddr: 0xB3354, symSize: 0x5C }
  - { offset: 0x4A1A8C, size: 0x8, addend: 0x0, symName: __ZNSt3__111make_uniqueB8ne200100I16llm_build_refactJRK11llama_modelRK16llm_graph_paramsELi0EEENS_10unique_ptrIT_NS_14default_deleteIS9_EEEEDpOT0_, symObjAddr: 0x3D064, symBinAddr: 0xB3188, symSize: 0x5C }
  - { offset: 0x4A1B32, size: 0x8, addend: 0x0, symName: __ZNSt3__111make_uniqueB8ne200100I14llm_build_gpt2JRK11llama_modelRK16llm_graph_paramsELi0EEENS_10unique_ptrIT_NS_14default_deleteIS9_EEEEDpOT0_, symObjAddr: 0x3D960, symBinAddr: 0xB3A84, symSize: 0x5C }
  - { offset: 0x4A1BD8, size: 0x8, addend: 0x0, symName: __ZNSt3__111make_uniqueB8ne200100I13llm_build_mptJRK11llama_modelRK16llm_graph_paramsELi0EEENS_10unique_ptrIT_NS_14default_deleteIS9_EEEEDpOT0_, symObjAddr: 0x3D1D4, symBinAddr: 0xB32F8, symSize: 0x5C }
  - { offset: 0x4A1C7E, size: 0x8, addend: 0x0, symName: __ZNSt3__111make_uniqueB8ne200100I14llm_build_deciJRK11llama_modelRK16llm_graph_paramsELi0EEENS_10unique_ptrIT_NS_14default_deleteIS9_EEEEDpOT0_, symObjAddr: 0x3CE98, symBinAddr: 0xB2FBC, symSize: 0x5C }
  - { offset: 0x4A1D24, size: 0x8, addend: 0x0, symName: __ZNSt3__111make_uniqueB8ne200100I16llm_build_falconJRK11llama_modelRK16llm_graph_paramsELi0EEENS_10unique_ptrIT_NS_14default_deleteIS9_EEEEDpOT0_, symObjAddr: 0x3CF50, symBinAddr: 0xB3074, symSize: 0x5C }
  - { offset: 0x4A1DCA, size: 0x8, addend: 0x0, symName: __ZNSt3__111make_uniqueB8ne200100I14llm_build_dbrxJRK11llama_modelRK16llm_graph_paramsELi0EEENS_10unique_ptrIT_NS_14default_deleteIS9_EEEEDpOT0_, symObjAddr: 0x3DF7C, symBinAddr: 0xB40A0, symSize: 0x5C }
  - { offset: 0x4A1E70, size: 0x8, addend: 0x0, symName: __ZNSt3__111make_uniqueB8ne200100I18llm_build_neo_bertJRK11llama_modelRK16llm_graph_paramsELi0EEENS_10unique_ptrIT_NS_14default_deleteIS9_EEEEDpOT0_, symObjAddr: 0x3D11C, symBinAddr: 0xB3240, symSize: 0x5C }
  - { offset: 0x4A1F16, size: 0x8, addend: 0x0, symName: __ZNSt3__111make_uniqueB8ne200100I20llm_build_llama_iswaJRK11llama_modelRK16llm_graph_paramsELi0EEENS_10unique_ptrIT_NS_14default_deleteIS9_EEEEDpOT0_, symObjAddr: 0x3CD84, symBinAddr: 0xB2EA8, symSize: 0x5C }
  - { offset: 0x4A1FBC, size: 0x8, addend: 0x0, symName: __ZNSt3__111make_uniqueB8ne200100I15llm_build_llamaILb0EEJRK11llama_modelRK16llm_graph_paramsELi0EEENS_10unique_ptrIT_NS_14default_deleteISA_EEEEDpOT0_, symObjAddr: 0x3CD28, symBinAddr: 0xB2E4C, symSize: 0x5C }
  - { offset: 0x4A2062, size: 0x8, addend: 0x0, symName: __ZNSt3__111make_uniqueB8ne200100I15llm_build_qwen2JRK11llama_modelRK16llm_graph_paramsELi0EEENS_10unique_ptrIT_NS_14default_deleteIS9_EEEEDpOT0_, symObjAddr: 0x3D2E8, symBinAddr: 0xB340C, symSize: 0x5C }
  - { offset: 0x4A2108, size: 0x8, addend: 0x0, symName: __ZNSt3__111make_uniqueB8ne200100I25llm_build_gemma_embeddingJRK11llama_modelRK16llm_graph_paramsELi0EEENS_10unique_ptrIT_NS_14default_deleteIS9_EEEEDpOT0_, symObjAddr: 0x3DCF8, symBinAddr: 0xB3E1C, symSize: 0x5C }
  - { offset: 0x4A21AE, size: 0x8, addend: 0x0, symName: __ZNSt3__111make_uniqueB8ne200100I21llm_build_modern_bertJRK11llama_modelRK16llm_graph_paramsELi0EEENS_10unique_ptrIT_NS_14default_deleteIS9_EEEEDpOT0_, symObjAddr: 0x3D0C0, symBinAddr: 0xB31E4, symSize: 0x5C }
  - { offset: 0x4A2254, size: 0x8, addend: 0x0, symName: __ZNSt3__111make_uniqueB8ne200100I18llm_build_baichuanJRK11llama_modelRK16llm_graph_paramsELi0EEENS_10unique_ptrIT_NS_14default_deleteIS9_EEEEDpOT0_, symObjAddr: 0x3CEF4, symBinAddr: 0xB3018, symSize: 0x5C }
  - { offset: 0x4A22FA, size: 0x8, addend: 0x0, symName: __ZNSt3__111make_uniqueB8ne200100I19llm_build_qwen3nextJRK11llama_modelRK16llm_graph_paramsELi0EEENS_10unique_ptrIT_NS_14default_deleteIS9_EEEEDpOT0_, symObjAddr: 0x3F22C, symBinAddr: 0xB5350, symSize: 0x5C }
  - { offset: 0x4A23A0, size: 0x8, addend: 0x0, symName: __ZNSt3__111make_uniqueB8ne200100I21llm_build_gemma2_iswaJRK11llama_modelRK16llm_graph_paramsELi0EEENS_10unique_ptrIT_NS_14default_deleteIS9_EEEEDpOT0_, symObjAddr: 0x3DB88, symBinAddr: 0xB3CAC, symSize: 0x5C }
  - { offset: 0x4A2446, size: 0x8, addend: 0x0, symName: __ZNSt3__111make_uniqueB8ne200100I17llm_build_gptneoxJRK11llama_modelRK16llm_graph_paramsELi0EEENS_10unique_ptrIT_NS_14default_deleteIS9_EEEEDpOT0_, symObjAddr: 0x3E1A4, symBinAddr: 0xB42C8, symSize: 0x5C }
  - { offset: 0x4A24EC, size: 0x8, addend: 0x0, symName: __ZNSt3__111make_uniqueB8ne200100I14llm_build_grokJRK11llama_modelRK16llm_graph_paramsELi0EEENS_10unique_ptrIT_NS_14default_deleteIS9_EEEEDpOT0_, symObjAddr: 0x3CFAC, symBinAddr: 0xB30D0, symSize: 0x5C }
  - { offset: 0x4A2592, size: 0x8, addend: 0x0, symName: __ZNSt3__111make_uniqueB8ne200100I20llm_build_qwen3vlmoeJRK11llama_modelRK16llm_graph_paramsELi0EEENS_10unique_ptrIT_NS_14default_deleteIS9_EEEEDpOT0_, symObjAddr: 0x3D680, symBinAddr: 0xB37A4, symSize: 0x5C }
  - { offset: 0x4A2638, size: 0x8, addend: 0x0, symName: __ZNSt3__111make_uniqueB8ne200100I16llm_build_xverseJRK11llama_modelRK16llm_graph_paramsELi0EEENS_10unique_ptrIT_NS_14default_deleteIS9_EEEEDpOT0_, symObjAddr: 0x3DE68, symBinAddr: 0xB3F8C, symSize: 0x5C }
  - { offset: 0x4A26DE, size: 0x8, addend: 0x0, symName: __ZNSt3__111make_uniqueB8ne200100I14llm_build_phi2JRK11llama_modelRK16llm_graph_paramsELi0EEENS_10unique_ptrIT_NS_14default_deleteIS9_EEEEDpOT0_, symObjAddr: 0x3D6DC, symBinAddr: 0xB3800, symSize: 0x5C }
  - { offset: 0x4A2784, size: 0x8, addend: 0x0, symName: __ZNSt3__111make_uniqueB8ne200100I15llm_build_plamoJRK11llama_modelRK16llm_graph_paramsELi0EEENS_10unique_ptrIT_NS_14default_deleteIS9_EEEEDpOT0_, symObjAddr: 0x3D7F0, symBinAddr: 0xB3914, symSize: 0x5C }
  - { offset: 0x4A282A, size: 0x8, addend: 0x0, symName: __ZNSt3__111make_uniqueB8ne200100I19llm_build_falcon_h1JRK11llama_modelRK16llm_graph_paramsELi0EEENS_10unique_ptrIT_NS_14default_deleteIS9_EEEEDpOT0_, symObjAddr: 0x3EEF0, symBinAddr: 0xB5014, symSize: 0x5C }
  - { offset: 0x4A28D0, size: 0x8, addend: 0x0, symName: __ZNSt3__111make_uniqueB8ne200100I19llm_build_maincoderJRK11llama_modelRK16llm_graph_paramsELi0EEENS_10unique_ptrIT_NS_14default_deleteIS9_EEEEDpOT0_, symObjAddr: 0x3CE3C, symBinAddr: 0xB2F60, symSize: 0x5C }
  - { offset: 0x4A2976, size: 0x8, addend: 0x0, symName: __ZNSt3__111make_uniqueB8ne200100I15llm_build_bloomJRK11llama_modelRK16llm_graph_paramsELi0EEENS_10unique_ptrIT_NS_14default_deleteIS9_EEEEDpOT0_, symObjAddr: 0x3D178, symBinAddr: 0xB329C, symSize: 0x5C }
  - { offset: 0x4A2A1C, size: 0x8, addend: 0x0, symName: __ZNSt3__111make_uniqueB8ne200100I15llm_build_jambaJRK11llama_modelRK16llm_graph_paramsELi0EEENS_10unique_ptrIT_NS_14default_deleteIS9_EEEEDpOT0_, symObjAddr: 0x3DE0C, symBinAddr: 0xB3F30, symSize: 0x5C }
  - { offset: 0x4A2AC2, size: 0x8, addend: 0x0, symName: __ZNSt3__111make_uniqueB8ne200100I16llm_build_exaoneJRK11llama_modelRK16llm_graph_paramsELi0EEENS_10unique_ptrIT_NS_14default_deleteIS9_EEEEDpOT0_, symObjAddr: 0x3E650, symBinAddr: 0xB4774, symSize: 0x5C }
  - { offset: 0x4A2B68, size: 0x8, addend: 0x0, symName: __ZNSt3__111make_uniqueB8ne200100I15llm_build_qwen3JRK11llama_modelRK16llm_graph_paramsELi0EEENS_10unique_ptrIT_NS_14default_deleteIS9_EEEEDpOT0_, symObjAddr: 0x3D56C, symBinAddr: 0xB3690, symSize: 0x5C }
  - { offset: 0x4A2C0E, size: 0x8, addend: 0x0, symName: __ZNSt3__111make_uniqueB8ne200100I18llm_build_qwen2moeJRK11llama_modelRK16llm_graph_paramsELi0EEENS_10unique_ptrIT_NS_14default_deleteIS9_EEEEDpOT0_, symObjAddr: 0x3D510, symBinAddr: 0xB3634, symSize: 0x5C }
  - { offset: 0x4A2CB4, size: 0x8, addend: 0x0, symName: __ZNSt3__111make_uniqueB8ne200100I17llm_build_qwen3vlJRK11llama_modelRK16llm_graph_paramsELi0EEENS_10unique_ptrIT_NS_14default_deleteIS9_EEEEDpOT0_, symObjAddr: 0x3D624, symBinAddr: 0xB3748, symSize: 0x5C }
  - { offset: 0x4A2D5A, size: 0x8, addend: 0x0, symName: __ZNSt3__111make_uniqueB8ne200100I17llm_build_exaone4ILb1EEJRK11llama_modelRK16llm_graph_paramsELi0EEENS_10unique_ptrIT_NS_14default_deleteISA_EEEEDpOT0_, symObjAddr: 0x3E6AC, symBinAddr: 0xB47D0, symSize: 0x5C }
  - { offset: 0x4A2E00, size: 0x8, addend: 0x0, symName: __ZNSt3__111make_uniqueB8ne200100I18llm_build_qwen3moeJRK11llama_modelRK16llm_graph_paramsELi0EEENS_10unique_ptrIT_NS_14default_deleteIS9_EEEEDpOT0_, symObjAddr: 0x3D5C8, symBinAddr: 0xB36EC, symSize: 0x5C }
  - { offset: 0x4A2EA6, size: 0x8, addend: 0x0, symName: __ZNSt3__111make_uniqueB8ne200100I15llm_build_rwkv7JRK11llama_modelRK16llm_graph_paramsELi0EEENS_10unique_ptrIT_NS_14default_deleteIS9_EEEEDpOT0_, symObjAddr: 0x3E878, symBinAddr: 0xB499C, symSize: 0x5C }
  - { offset: 0x4A2F4C, size: 0x8, addend: 0x0, symName: __ZNSt3__111make_uniqueB8ne200100I20llm_build_starcoder2JRK11llama_modelRK16llm_graph_paramsELi0EEENS_10unique_ptrIT_NS_14default_deleteIS9_EEEEDpOT0_, symObjAddr: 0x3DD54, symBinAddr: 0xB3E78, symSize: 0x5C }
  - { offset: 0x4A2FF2, size: 0x8, addend: 0x0, symName: __ZNSt3__111make_uniqueB8ne200100I15llm_build_arceeJRK11llama_modelRK16llm_graph_paramsELi0EEENS_10unique_ptrIT_NS_14default_deleteIS9_EEEEDpOT0_, symObjAddr: 0x3EC10, symBinAddr: 0xB4D34, symSize: 0x5C }
  - { offset: 0x4A3098, size: 0x8, addend: 0x0, symName: __ZNSt3__111make_uniqueB8ne200100I16llm_build_t5_decJRK11llama_modelRK16llm_graph_paramsELi0EEENS_10unique_ptrIT_NS_14default_deleteIS9_EEEEDpOT0_, symObjAddr: 0x3E4E0, symBinAddr: 0xB4604, symSize: 0x5C }
  - { offset: 0x4A313E, size: 0x8, addend: 0x0, symName: __ZNSt3__111make_uniqueB8ne200100I20llm_build_minimax_m2JRK11llama_modelRK16llm_graph_paramsELi0EEENS_10unique_ptrIT_NS_14default_deleteIS9_EEEEDpOT0_, symObjAddr: 0x3F118, symBinAddr: 0xB523C, symSize: 0x5C }
  - { offset: 0x4A31E4, size: 0x8, addend: 0x0, symName: __ZNSt3__111make_uniqueB8ne200100I17llm_build_apertusJRK11llama_modelRK16llm_graph_paramsELi0EEENS_10unique_ptrIT_NS_14default_deleteIS9_EEEEDpOT0_, symObjAddr: 0x3F0BC, symBinAddr: 0xB51E0, symSize: 0x5C }
  - { offset: 0x4A328A, size: 0x8, addend: 0x0, symName: __ZNSt3__111make_uniqueB8ne200100I16llm_build_gemma3ILb1EEJRK11llama_modelRK16llm_graph_paramsELi0EEENS_10unique_ptrIT_NS_14default_deleteISA_EEEEDpOT0_, symObjAddr: 0x3DBE4, symBinAddr: 0xB3D08, symSize: 0x5C }
  - { offset: 0x4A3330, size: 0x8, addend: 0x0, symName: __ZNSt3__111make_uniqueB8ne200100I18llm_build_seed_ossJRK11llama_modelRK16llm_graph_paramsELi0EEENS_10unique_ptrIT_NS_14default_deleteIS9_EEEEDpOT0_, symObjAddr: 0x3EB58, symBinAddr: 0xB4C7C, symSize: 0x5C }
  - { offset: 0x4A33D6, size: 0x8, addend: 0x0, symName: __ZNSt3__111make_uniqueB8ne200100I19llm_build_command_rJRK11llama_modelRK16llm_graph_paramsELi0EEENS_10unique_ptrIT_NS_14default_deleteIS9_EEEEDpOT0_, symObjAddr: 0x3DEC4, symBinAddr: 0xB3FE8, symSize: 0x5C }
  - { offset: 0x4A347C, size: 0x8, addend: 0x0, symName: __ZNSt3__111make_uniqueB8ne200100I18llm_build_minicpm3JRK11llama_modelRK16llm_graph_paramsELi0EEENS_10unique_ptrIT_NS_14default_deleteIS9_EEEEDpOT0_, symObjAddr: 0x3DAD0, symBinAddr: 0xB3BF4, symSize: 0x5C }
  - { offset: 0x4A3522, size: 0x8, addend: 0x0, symName: __ZNSt3__111make_uniqueB8ne200100I18llm_build_nemotronJRK11llama_modelRK16llm_graph_paramsELi0EEENS_10unique_ptrIT_NS_14default_deleteIS9_EEEEDpOT0_, symObjAddr: 0x3E598, symBinAddr: 0xB46BC, symSize: 0x5C }
  - { offset: 0x4A35C8, size: 0x8, addend: 0x0, symName: __ZNSt3__111make_uniqueB8ne200100I19llm_build_llada_moeJRK11llama_modelRK16llm_graph_paramsELi0EEENS_10unique_ptrIT_NS_14default_deleteIS9_EEEEDpOT0_, symObjAddr: 0x3D3FC, symBinAddr: 0xB3520, symSize: 0x5C }
  - { offset: 0x4A366E, size: 0x8, addend: 0x0, symName: __ZNSt3__111make_uniqueB8ne200100I14llm_build_olmoJRK11llama_modelRK16llm_graph_paramsELi0EEENS_10unique_ptrIT_NS_14default_deleteIS9_EEEEDpOT0_, symObjAddr: 0x3DFD8, symBinAddr: 0xB40FC, symSize: 0x5C }
  - { offset: 0x4A3714, size: 0x8, addend: 0x0, symName: __ZNSt3__111make_uniqueB8ne200100I22llm_build_ernie4_5_moeJRK11llama_modelRK16llm_graph_paramsELi0EEENS_10unique_ptrIT_NS_14default_deleteIS9_EEEEDpOT0_, symObjAddr: 0x3ED24, symBinAddr: 0xB4E48, symSize: 0x5C }
  - { offset: 0x4A37BA, size: 0x8, addend: 0x0, symName: __ZNSt3__111make_uniqueB8ne200100I18llm_build_ernie4_5JRK11llama_modelRK16llm_graph_paramsELi0EEENS_10unique_ptrIT_NS_14default_deleteIS9_EEEEDpOT0_, symObjAddr: 0x3ECC8, symBinAddr: 0xB4DEC, symSize: 0x5C }
  - { offset: 0x4A3860, size: 0x8, addend: 0x0, symName: __ZNSt3__111make_uniqueB8ne200100I20llm_build_bailingmoeJRK11llama_modelRK16llm_graph_paramsELi0EEENS_10unique_ptrIT_NS_14default_deleteIS9_EEEEDpOT0_, symObjAddr: 0x3EAA0, symBinAddr: 0xB4BC4, symSize: 0x5C }
  - { offset: 0x4A3906, size: 0x8, addend: 0x0, symName: __ZNSt3__111make_uniqueB8ne200100I13llm_build_plmJRK11llama_modelRK16llm_graph_paramsELi0EEENS_10unique_ptrIT_NS_14default_deleteIS9_EEEEDpOT0_, symObjAddr: 0x3EA44, symBinAddr: 0xB4B68, symSize: 0x5C }
  - { offset: 0x4A39AC, size: 0x8, addend: 0x0, symName: __ZNSt3__111make_uniqueB8ne200100I15llm_build_dreamJRK11llama_modelRK16llm_graph_paramsELi0EEENS_10unique_ptrIT_NS_14default_deleteIS9_EEEEDpOT0_, symObjAddr: 0x3D344, symBinAddr: 0xB3468, symSize: 0x5C }
  - { offset: 0x4A3A52, size: 0x8, addend: 0x0, symName: __ZNSt3__111make_uniqueB8ne200100I16llm_build_arwkv7JRK11llama_modelRK16llm_graph_paramsELi0EEENS_10unique_ptrIT_NS_14default_deleteIS9_EEEEDpOT0_, symObjAddr: 0x3E8D4, symBinAddr: 0xB49F8, symSize: 0x5C }
  - { offset: 0x4A3AF8, size: 0x8, addend: 0x0, symName: __ZNSt3__111make_uniqueB8ne200100I20llm_build_rwkv6qwen2JRK11llama_modelRK16llm_graph_paramsELi0EEENS_10unique_ptrIT_NS_14default_deleteIS9_EEEEDpOT0_, symObjAddr: 0x3E81C, symBinAddr: 0xB4940, symSize: 0x5C }
  - { offset: 0x4A3B9E, size: 0x8, addend: 0x0, symName: __ZNSt3__111make_uniqueB8ne200100I15llm_build_lladaJRK11llama_modelRK16llm_graph_paramsELi0EEENS_10unique_ptrIT_NS_14default_deleteIS9_EEEEDpOT0_, symObjAddr: 0x3D3A0, symBinAddr: 0xB34C4, symSize: 0x5C }
  - { offset: 0x4A3C44, size: 0x8, addend: 0x0, symName: __ZNSt3__111make_uniqueB8ne200100I21llm_build_hunyuan_moeJRK11llama_modelRK16llm_graph_paramsELi0EEENS_10unique_ptrIT_NS_14default_deleteIS9_EEEEDpOT0_, symObjAddr: 0x3ED80, symBinAddr: 0xB4EA4, symSize: 0x5C }
  - { offset: 0x4A3CEA, size: 0x8, addend: 0x0, symName: __ZNSt3__111make_uniqueB8ne200100I15llm_build_llamaILb1EEJRK11llama_modelRK16llm_graph_paramsELi0EEENS_10unique_ptrIT_NS_14default_deleteISA_EEEEDpOT0_, symObjAddr: 0x3CDE0, symBinAddr: 0xB2F04, symSize: 0x5C }
  - { offset: 0x4A3D90, size: 0x8, addend: 0x0, symName: __ZNSt3__111make_uniqueB8ne200100I14llm_build_phi3ILb0EEJRK11llama_modelRK16llm_graph_paramsELi0EEENS_10unique_ptrIT_NS_14default_deleteISA_EEEEDpOT0_, symObjAddr: 0x3D794, symBinAddr: 0xB38B8, symSize: 0x5C }
  - { offset: 0x4A3E36, size: 0x8, addend: 0x0, symName: __ZNSt3__111make_uniqueB8ne200100I15llm_build_olmo2ILb0EEJRK11llama_modelRK16llm_graph_paramsELi0EEENS_10unique_ptrIT_NS_14default_deleteISA_EEEEDpOT0_, symObjAddr: 0x3E090, symBinAddr: 0xB41B4, symSize: 0x5C }
  - { offset: 0x4A3EDC, size: 0x8, addend: 0x0, symName: __ZNSt3__111make_uniqueB8ne200100I22llm_build_smallthinkerILb0EEJRK11llama_modelRK16llm_graph_paramsELi0EEENS_10unique_ptrIT_NS_14default_deleteISA_EEEEDpOT0_, symObjAddr: 0x3F004, symBinAddr: 0xB5128, symSize: 0x5C }
  - { offset: 0x4A3F82, size: 0x8, addend: 0x0, symName: __ZNSt3__111make_uniqueB8ne200100I17llm_build_exaone4ILb0EEJRK11llama_modelRK16llm_graph_paramsELi0EEENS_10unique_ptrIT_NS_14default_deleteISA_EEEEDpOT0_, symObjAddr: 0x3E708, symBinAddr: 0xB482C, symSize: 0x5C }
  - { offset: 0x4A4028, size: 0x8, addend: 0x0, symName: __ZNSt3__111make_uniqueB8ne200100I16llm_build_gemma3ILb0EEJRK11llama_modelRK16llm_graph_paramsELi0EEENS_10unique_ptrIT_NS_14default_deleteISA_EEEEDpOT0_, symObjAddr: 0x3DC40, symBinAddr: 0xB3D64, symSize: 0x5C }
  - { offset: 0x4A40CE, size: 0x8, addend: 0x0, symName: __ZNSt3__111make_uniqueB8ne200100I16llm_build_plamo3ILb0EEJRK11llama_modelRK16llm_graph_paramsELi0EEENS_10unique_ptrIT_NS_14default_deleteISA_EEEEDpOT0_, symObjAddr: 0x3D904, symBinAddr: 0xB3A28, symSize: 0x5C }
  - { offset: 0x4A4174, size: 0x8, addend: 0x0, symName: __ZNSt3__111make_uniqueB8ne200100I16llm_build_t5_encJRK11llama_modelRK16llm_graph_paramsELi0EEENS_10unique_ptrIT_NS_14default_deleteIS9_EEEEDpOT0_, symObjAddr: 0x3E484, symBinAddr: 0xB45A8, symSize: 0x5C }
  - { offset: 0x4B4134, size: 0x8, addend: 0x0, symName: __ZN11llama_model12load_tensorsER18llama_model_loader, symObjAddr: 0x5A4C, symBinAddr: 0x7BB70, symSize: 0x33330 }
  - { offset: 0x545000, size: 0x8, addend: 0x0, symName: __ZNK11llama_model10print_infoEv, symObjAddr: 0x3A1F4, symBinAddr: 0xB0318, symSize: 0x1284 }
  - { offset: 0x548383, size: 0x8, addend: 0x0, symName: __ZNK11llama_model13create_memoryERK19llama_memory_paramsRK13llama_cparams, symObjAddr: 0x3BC0C, symBinAddr: 0xB1D30, symSize: 0x5A4 }
  - { offset: 0x550D1D, size: 0x8, addend: 0x0, symName: __Z13llm_type_name8llm_type, symObjAddr: 0x0, symBinAddr: 0x761A4, symSize: 0x28 }
  - { offset: 0x550DBF, size: 0x8, addend: 0x0, symName: __ZNSt3__13mapI23llama_rope_scaling_typePKcNS_4lessIS1_EENS_9allocatorINS_4pairIKS1_S3_EEEEED1B8ne200100Ev, symObjAddr: 0x28, symBinAddr: 0x761CC, symSize: 0x28 }
  - { offset: 0x550E73, size: 0x8, addend: 0x0, symName: __ZNSt3__16__treeINS_12__value_typeI23llama_rope_scaling_typePKcEENS_19__map_value_compareIS2_S5_NS_4lessIS2_EELb1EEENS_9allocatorIS5_EEE7destroyEPNS_11__tree_nodeIS5_PvEE, symObjAddr: 0x4BE30, symBinAddr: 0xB9E68, symSize: 0x44 }
  - { offset: 0x55127A, size: 0x8, addend: 0x0, symName: __Z28llama_rope_scaling_type_name23llama_rope_scaling_type, symObjAddr: 0x50, symBinAddr: 0x761F4, symSize: 0xE0 }
  - { offset: 0x5515A3, size: 0x8, addend: 0x0, symName: __ZN11llama_modelC2ERK18llama_model_params, symObjAddr: 0x130, symBinAddr: 0x762D4, symSize: 0x2EC }
  - { offset: 0x551AFB, size: 0x8, addend: 0x0, symName: __ZN11llama_modelC2ERK18llama_model_params, symObjAddr: 0x130, symBinAddr: 0x762D4, symSize: 0x2EC }
  - { offset: 0x5521BE, size: 0x8, addend: 0x0, symName: __ZNSt3__113unordered_setIP18llama_adapter_loraNS_4hashIS2_EENS_8equal_toIS2_EENS_9allocatorIS2_EEED1B8ne200100Ev, symObjAddr: 0x41C, symBinAddr: 0x765C0, symSize: 0x48 }
  - { offset: 0x552451, size: 0x8, addend: 0x0, symName: __ZNSt3__16vectorINS_4pairINS_12basic_stringIcNS_11char_traitsIcEENS_9allocatorIcEEEEP11ggml_tensorEENS5_ISA_EEED1B8ne200100Ev, symObjAddr: 0x464, symBinAddr: 0x76608, symSize: 0x70 }
  - { offset: 0x5526DD, size: 0x8, addend: 0x0, symName: __ZNSt3__113unordered_mapINS_12basic_stringIcNS_11char_traitsIcEENS_9allocatorIcEEEES6_NS_4hashIS6_EENS_8equal_toIS6_EENS4_INS_4pairIKS6_S6_EEEEED1B8ne200100Ev, symObjAddr: 0x4D4, symBinAddr: 0x76678, symSize: 0x84 }
  - { offset: 0x553466, size: 0x8, addend: 0x0, symName: __ZN11llama_modelC1ERK18llama_model_params, symObjAddr: 0x5C8, symBinAddr: 0x766FC, symSize: 0x4 }
  - { offset: 0x5534A3, size: 0x8, addend: 0x0, symName: __ZN11llama_modelC1ERK18llama_model_params, symObjAddr: 0x5C8, symBinAddr: 0x766FC, symSize: 0x4 }
  - { offset: 0x5535E2, size: 0x8, addend: 0x0, symName: __ZN11llama_modelD2Ev, symObjAddr: 0x5CC, symBinAddr: 0x76700, symSize: 0x1C4 }
  - { offset: 0x55470D, size: 0x8, addend: 0x0, symName: __ZN11llama_model4implD2Ev, symObjAddr: 0x4BE74, symBinAddr: 0xB9EAC, symSize: 0x16C }
  - { offset: 0x555AF8, size: 0x8, addend: 0x0, symName: __ZN11llama_modelD1Ev, symObjAddr: 0x7A0, symBinAddr: 0x768C4, symSize: 0x4 }
  - { offset: 0x555B1B, size: 0x8, addend: 0x0, symName: __ZN11llama_modelD1Ev, symObjAddr: 0x7A0, symBinAddr: 0x768C4, symSize: 0x4 }
  - { offset: 0x555B4A, size: 0x8, addend: 0x0, symName: __ZN11llama_model10load_statsER18llama_model_loader, symObjAddr: 0x7A4, symBinAddr: 0x768C8, symSize: 0x10 }
  - { offset: 0x555B82, size: 0x8, addend: 0x0, symName: __ZN11llama_model10load_statsER18llama_model_loader, symObjAddr: 0x7A4, symBinAddr: 0x768C8, symSize: 0x10 }
  - { offset: 0x555BF3, size: 0x8, addend: 0x0, symName: __ZN11llama_model9load_archER18llama_model_loader, symObjAddr: 0x7B4, symBinAddr: 0x768D8, symSize: 0x174 }
  - { offset: 0x5562C6, size: 0x8, addend: 0x0, symName: __ZN11llama_model12load_hparamsER18llama_model_loader, symObjAddr: 0x928, symBinAddr: 0x76A4C, symSize: 0x4EC8 }
  - { offset: 0x558D2E, size: 0x8, addend: 0x0, symName: _llama_model_rope_type, symObjAddr: 0x5940, symBinAddr: 0x7BA64, symSize: 0xBC }
  - { offset: 0x558D5C, size: 0x8, addend: 0x0, symName: __ZN11llama_model10load_vocabER18llama_model_loader, symObjAddr: 0x59FC, symBinAddr: 0x7BB20, symSize: 0x50 }
  - { offset: 0x558D84, size: 0x8, addend: 0x0, symName: __ZNK11llama_model9arch_nameEv, symObjAddr: 0x57F0, symBinAddr: 0x7B914, symSize: 0xA8 }
  - { offset: 0x558FED, size: 0x8, addend: 0x0, symName: __ZNK11llama_model9type_nameEv, symObjAddr: 0x5898, symBinAddr: 0x7B9BC, symSize: 0xA8 }
  - { offset: 0x558FF8, size: 0x8, addend: 0x0, symName: __ZNK11llama_model9type_nameEv, symObjAddr: 0x5898, symBinAddr: 0x7B9BC, symSize: 0xA8 }
  - { offset: 0x559261, size: 0x8, addend: 0x0, symName: _llama_model_rope_type, symObjAddr: 0x5940, symBinAddr: 0x7BA64, symSize: 0xBC }
  - { offset: 0x55926C, size: 0x8, addend: 0x0, symName: __ZN11llama_model10load_vocabER18llama_model_loader, symObjAddr: 0x59FC, symBinAddr: 0x7BB20, symSize: 0x50 }
  - { offset: 0x55C968, size: 0x8, addend: 0x0, symName: __ZNSt3__16vectorINS_4pairIP19ggml_backend_deviceP24ggml_backend_buffer_typeEENS_9allocatorIS6_EEE18__insert_with_sizeB8ne200100INS_11__wrap_iterIPS6_EESD_EESD_NSB_IPKS6_EET_T0_l, symObjAddr: 0x4CDFC, symBinAddr: 0xBA110, symSize: 0x510 }
  - { offset: 0x55D4F6, size: 0x8, addend: 0x0, symName: __ZNSt3__16vectorIN11llama_model4impl9layer_devENS_9allocatorIS3_EEE8__appendEm, symObjAddr: 0x4D320, symBinAddr: 0xBA620, symSize: 0x120 }
  - { offset: 0x55D8D4, size: 0x8, addend: 0x0, symName: __ZNSt3__16vectorIN11llama_model4impl9layer_devENS_9allocatorIS3_EEE20__throw_length_errorB8ne200100Ev, symObjAddr: 0x4D440, symBinAddr: 0xBA740, symSize: 0x14 }
  - { offset: 0x55D8F0, size: 0x8, addend: 0x0, symName: '__ZZN11llama_model12load_tensorsER18llama_model_loaderENK3$_1clEi', symObjAddr: 0x38DB0, symBinAddr: 0xAEED4, symSize: 0x1B8 }
  - { offset: 0x55DC49, size: 0x8, addend: 0x0, symName: __ZNSt3__16vectorI11llama_layerNS_9allocatorIS1_EEE6resizeEm, symObjAddr: 0x38F68, symBinAddr: 0xAF08C, symSize: 0x44 }
  - { offset: 0x55DC61, size: 0x8, addend: 0x0, symName: __ZNSt3__16vectorI11llama_layerNS_9allocatorIS1_EEE8__appendEm, symObjAddr: 0x4D4BC, symBinAddr: 0xBA7BC, symSize: 0x1AC }
  - { offset: 0x55E076, size: 0x8, addend: 0x0, symName: __ZNSt3__16vectorI11llama_layerNS_9allocatorIS1_EEE20__throw_length_errorB8ne200100Ev, symObjAddr: 0x4D668, symBinAddr: 0xBA968, symSize: 0x14 }
  - { offset: 0x55E0B4, size: 0x8, addend: 0x0, symName: '__ZZN11llama_model12load_tensorsER18llama_model_loaderENK3$_3clERK11LLM_TN_IMPLRKSt16initializer_listIxEi', symObjAddr: 0x38FAC, symBinAddr: 0xAF0D0, symSize: 0xAF4 }
  - { offset: 0x56020A, size: 0x8, addend: 0x0, symName: __ZNSt3__16vectorI11llama_layerNS_9allocatorIS1_EEE6resizeEm, symObjAddr: 0x38F68, symBinAddr: 0xAF08C, symSize: 0x44 }
  - { offset: 0x56023E, size: 0x8, addend: 0x0, symName: __ZNSt3__16vectorI11llama_layerNS_9allocatorIS1_EEE6resizeEm, symObjAddr: 0x38F68, symBinAddr: 0xAF08C, symSize: 0x44 }
  - { offset: 0x5602D4, size: 0x8, addend: 0x0, symName: __ZNSt3__16vectorINS_4pairIP12ggml_contextNS_13unordered_mapIjP19ggml_backend_bufferNS_4hashIjEENS_8equal_toIjEENS_9allocatorINS1_IKjS6_EEEEEEEENSB_ISG_EEE7reserveEm, symObjAddr: 0x39AA0, symBinAddr: 0xAFBC4, symSize: 0x108 }
  - { offset: 0x5608B5, size: 0x8, addend: 0x0, symName: __ZNSt3__114__split_bufferINS_4pairINS_10unique_ptrI12ggml_context20ggml_context_deleterEENS_6vectorINS2_I19ggml_backend_buffer27ggml_backend_buffer_deleterEENS_9allocatorIS9_EEEEEERNSA_ISD_EEE17__destruct_at_endB8ne200100EPSD_, symObjAddr: 0x4D874, symBinAddr: 0xBAB60, symSize: 0xB4 }
  - { offset: 0x560BE9, size: 0x8, addend: 0x0, symName: __ZNSt3__112__hash_tableINS_17__hash_value_typeIjP19ggml_backend_bufferEENS_22__unordered_map_hasherIjS4_NS_4hashIjEENS_8equal_toIjEELb1EEENS_21__unordered_map_equalIjS4_S9_S7_Lb1EEENS_9allocatorIS4_EEE11__do_rehashILb1EEEvm, symObjAddr: 0x4D970, symBinAddr: 0xBAC5C, symSize: 0x180 }
  - { offset: 0x560FB5, size: 0x8, addend: 0x0, symName: __ZNSt3__112__hash_tableINS_17__hash_value_typeIjP19ggml_backend_bufferEENS_22__unordered_map_hasherIjS4_NS_4hashIjEENS_8equal_toIjEELb1EEENS_21__unordered_map_equalIjS4_S9_S7_Lb1EEENS_9allocatorIS4_EEE25__emplace_unique_key_argsIjJRjRS3_EEENS_4pairINS_15__hash_iteratorIPNS_11__hash_nodeIS4_PvEEEEbEERKT_DpOT0_, symObjAddr: 0x4DB04, symBinAddr: 0xBADDC, symSize: 0x304 }
  - { offset: 0x5617B1, size: 0x8, addend: 0x0, symName: __ZNSt3__16vectorINS_4pairINS_10unique_ptrI12ggml_context20ggml_context_deleterEENS0_INS2_I19ggml_backend_buffer27ggml_backend_buffer_deleterEENS_9allocatorIS8_EEEEEENS9_ISC_EEE24__emplace_back_slow_pathIJS5_SB_EEEPSC_DpOT_, symObjAddr: 0x4DE1C, symBinAddr: 0xBB0E0, symSize: 0x11C }
  - { offset: 0x561C8F, size: 0x8, addend: 0x0, symName: __ZNSt3__16vectorINS_4pairIP12ggml_contextNS_13unordered_mapIjP19ggml_backend_bufferNS_4hashIjEENS_8equal_toIjEENS_9allocatorINS1_IKjS6_EEEEEEEENSB_ISG_EEE24__emplace_back_slow_pathIJRS3_RSF_EEEPSG_DpOT_, symObjAddr: 0x4DF38, symBinAddr: 0xBB1FC, symSize: 0x170 }
  - { offset: 0x561CBC, size: 0x8, addend: 0x0, symName: __ZNSt3__113unordered_mapIjP19ggml_backend_bufferNS_4hashIjEENS_8equal_toIjEENS_9allocatorINS_4pairIKjS2_EEEEEC2ERKSC_, symObjAddr: 0x4E0A8, symBinAddr: 0xBB36C, symSize: 0x140 }
  - { offset: 0x562054, size: 0x8, addend: 0x0, symName: __ZNSt3__16vectorINS_4pairIP12ggml_contextNS_13unordered_mapIjP19ggml_backend_bufferNS_4hashIjEENS_8equal_toIjEENS_9allocatorINS1_IKjS6_EEEEEEEENSB_ISG_EEE24__emplace_back_slow_pathIJRS3_RSF_EEEPSG_DpOT_, symObjAddr: 0x4DF38, symBinAddr: 0xBB1FC, symSize: 0x170 }
  - { offset: 0x5627B0, size: 0x8, addend: 0x0, symName: __ZNSt3__16__treeINS_12__value_typeIP24ggml_backend_buffer_typeNS_10unique_ptrI12ggml_context20ggml_context_deleterEEEENS_19__map_value_compareIS3_S8_ZN11llama_model12load_tensorsER18llama_model_loaderE28ggml_backend_buft_comparatorLb1EEENS_9allocatorIS8_EEE7destroyEPNS_11__tree_nodeIS8_PvEE, symObjAddr: 0x4D454, symBinAddr: 0xBA754, symSize: 0x54 }
  - { offset: 0x562998, size: 0x8, addend: 0x0, symName: __ZNSt3__16vectorINS_4pairINS_12basic_stringIcNS_11char_traitsIcEENS_9allocatorIcEEEEP11ggml_tensorEENS5_ISA_EEE20__throw_length_errorB8ne200100Ev, symObjAddr: 0x4E550, symBinAddr: 0xBB814, symSize: 0x14 }
  - { offset: 0x5629CD, size: 0x8, addend: 0x0, symName: __ZNSt3__16vectorINS_4pairIP19ggml_backend_deviceP24ggml_backend_buffer_typeEENS_9allocatorIS6_EEE20__throw_length_errorB8ne200100Ev, symObjAddr: 0x3FB68, symBinAddr: 0xB5A64, symSize: 0x14 }
  - { offset: 0x5629FA, size: 0x8, addend: 0x0, symName: __ZNSt3__112__hash_tableINS_17__hash_value_typeIjP19ggml_backend_bufferEENS_22__unordered_map_hasherIjS4_NS_4hashIjEENS_8equal_toIjEELb1EEENS_21__unordered_map_equalIjS4_S9_S7_Lb1EEENS_9allocatorIS4_EEE25__emplace_unique_key_argsIjJRjRS3_EEENS_4pairINS_15__hash_iteratorIPNS_11__hash_nodeIS4_PvEEEEbEERKT_DpOT0_, symObjAddr: 0x4DB04, symBinAddr: 0xBADDC, symSize: 0x304 }
  - { offset: 0x562A0F, size: 0x8, addend: 0x0, symName: __ZNSt3__16vectorINS_4pairIP12ggml_contextNS_13unordered_mapIjP19ggml_backend_bufferNS_4hashIjEENS_8equal_toIjEENS_9allocatorINS1_IKjS6_EEEEEEEENSB_ISG_EEE20__throw_length_errorB8ne200100Ev, symObjAddr: 0x4D690, symBinAddr: 0xBA97C, symSize: 0x14 }
  - { offset: 0x562A24, size: 0x8, addend: 0x0, symName: __ZNSt3__16vectorINS_4pairINS_10unique_ptrI12ggml_context20ggml_context_deleterEENS0_INS2_I19ggml_backend_buffer27ggml_backend_buffer_deleterEENS_9allocatorIS8_EEEEEENS9_ISC_EEE24__emplace_back_slow_pathIJS5_SB_EEEPSC_DpOT_, symObjAddr: 0x4DE1C, symBinAddr: 0xBB0E0, symSize: 0x11C }
  - { offset: 0x562A2F, size: 0x8, addend: 0x0, symName: __ZNSt3__16vectorINS_4pairINS_10unique_ptrI12ggml_context20ggml_context_deleterEENS0_INS2_I19ggml_backend_buffer27ggml_backend_buffer_deleterEENS_9allocatorIS8_EEEEEENS9_ISC_EEE20__throw_length_errorB8ne200100Ev, symObjAddr: 0x4D860, symBinAddr: 0xBAB4C, symSize: 0x14 }
  - { offset: 0x562A47, size: 0x8, addend: 0x0, symName: __ZNSt3__114__split_bufferINS_4pairINS_10unique_ptrI12ggml_context20ggml_context_deleterEENS_6vectorINS2_I19ggml_backend_buffer27ggml_backend_buffer_deleterEENS_9allocatorIS9_EEEEEERNSA_ISD_EEE17__destruct_at_endB8ne200100EPSD_, symObjAddr: 0x4D874, symBinAddr: 0xBAB60, symSize: 0xB4 }
  - { offset: 0x562A5C, size: 0x8, addend: 0x0, symName: __ZNSt3__16vectorIN11llama_model4impl9layer_devENS_9allocatorIS3_EEE8__appendEm, symObjAddr: 0x4D320, symBinAddr: 0xBA620, symSize: 0x120 }
  - { offset: 0x562A67, size: 0x8, addend: 0x0, symName: __ZNSt3__16vectorINS_10unique_ptrI19ggml_backend_buffer27ggml_backend_buffer_deleterEENS_9allocatorIS4_EEED1B8ne200100Ev, symObjAddr: 0x39BA8, symBinAddr: 0xAFCCC, symSize: 0x70 }
  - { offset: 0x562C55, size: 0x8, addend: 0x0, symName: __ZNSt3__113unordered_mapIjP19ggml_backend_bufferNS_4hashIjEENS_8equal_toIjEENS_9allocatorINS_4pairIKjS2_EEEEED1B8ne200100Ev, symObjAddr: 0x39C18, symBinAddr: 0xAFD3C, symSize: 0x48 }
  - { offset: 0x562EE9, size: 0x8, addend: 0x0, symName: __ZNSt3__114__split_bufferINS_4pairINS_12basic_stringIcNS_11char_traitsIcEENS_9allocatorIcEEEEP11ggml_tensorEERNS5_ISA_EEED1Ev, symObjAddr: 0x4E4EC, symBinAddr: 0xBB7B0, symSize: 0x64 }
  - { offset: 0x56311C, size: 0x8, addend: 0x0, symName: __ZNSt3__16vectorINS_4pairIP12ggml_contextNS_13unordered_mapIjP19ggml_backend_bufferNS_4hashIjEENS_8equal_toIjEENS_9allocatorINS1_IKjS6_EEEEEEEENSB_ISG_EEED1B8ne200100Ev, symObjAddr: 0x39C60, symBinAddr: 0xAFD84, symSize: 0x88 }
  - { offset: 0x56356A, size: 0x8, addend: 0x0, symName: __ZNK11llama_model12n_gpu_layersEv, symObjAddr: 0x38D7C, symBinAddr: 0xAEEA0, symSize: 0x20 }
  - { offset: 0x56358C, size: 0x8, addend: 0x0, symName: __ZNK11llama_model9n_devicesEv, symObjAddr: 0x38D9C, symBinAddr: 0xAEEC0, symSize: 0x14 }
  - { offset: 0x5635B0, size: 0x8, addend: 0x0, symName: __ZNK11llama_model9n_devicesEv, symObjAddr: 0x38D9C, symBinAddr: 0xAEEC0, symSize: 0x14 }
  - { offset: 0x5636D7, size: 0x8, addend: 0x0, symName: __ZNSt3__16vectorIP19ggml_backend_deviceNS_9allocatorIS2_EEE20__throw_out_of_rangeB8ne200100Ev, symObjAddr: 0x3FC18, symBinAddr: 0xB5A78, symSize: 0x14 }
  - { offset: 0x5636EF, size: 0x8, addend: 0x0, symName: __ZL18select_weight_buftRK13llama_hparamsP11ggml_tensor7ggml_opRKNSt3__16vectorINS5_4pairIP19ggml_backend_deviceP24ggml_backend_buffer_typeEENS5_9allocatorISC_EEEE, symObjAddr: 0x3FC2C, symBinAddr: 0xB5A8C, symSize: 0x6D4 }
  - { offset: 0x56401D, size: 0x8, addend: 0x0, symName: __ZNSt3__111basic_regexIcNS_12regex_traitsIcEEEC2B8ne200100EPKcNS_15regex_constants18syntax_option_typeE, symObjAddr: 0x4035C, symBinAddr: 0xB6160, symSize: 0xC8 }
  - { offset: 0x5645BC, size: 0x8, addend: 0x0, symName: __ZL18select_weight_buftRK13llama_hparamsP11ggml_tensor7ggml_opRKNSt3__16vectorINS5_4pairIP19ggml_backend_deviceP24ggml_backend_buffer_typeEENS5_9allocatorISC_EEEE, symObjAddr: 0x3FC2C, symBinAddr: 0xB5A8C, symSize: 0x6D4 }
  - { offset: 0x565167, size: 0x8, addend: 0x0, symName: __ZNSt3__16vectorIN11llama_model4impl9layer_devENS_9allocatorIS3_EEE20__throw_out_of_rangeB8ne200100Ev, symObjAddr: 0x4D4A8, symBinAddr: 0xBA7A8, symSize: 0x14 }
  - { offset: 0x56517F, size: 0x8, addend: 0x0, symName: __ZNSt3__16vectorI11llama_layerNS_9allocatorIS1_EEE8__appendEm, symObjAddr: 0x4D4BC, symBinAddr: 0xBA7BC, symSize: 0x1AC }
  - { offset: 0x565391, size: 0x8, addend: 0x0, symName: __ZNSt3__16vectorINS_4pairIP12ggml_contextNS_13unordered_mapIjP19ggml_backend_bufferNS_4hashIjEENS_8equal_toIjEENS_9allocatorINS1_IKjS6_EEEEEEEENSB_ISG_EEE26__swap_out_circular_bufferERNS_14__split_bufferISG_RSH_EE, symObjAddr: 0x4D6A4, symBinAddr: 0xBA990, symSize: 0x140 }
  - { offset: 0x5659B5, size: 0x8, addend: 0x0, symName: __ZNSt3__16vectorINS_4pairIP12ggml_contextNS_13unordered_mapIjP19ggml_backend_bufferNS_4hashIjEENS_8equal_toIjEENS_9allocatorINS1_IKjS6_EEEEEEEENSB_ISG_EEE20__throw_length_errorB8ne200100Ev, symObjAddr: 0x4D690, symBinAddr: 0xBA97C, symSize: 0x14 }
  - { offset: 0x5659CD, size: 0x8, addend: 0x0, symName: __ZNSt3__16vectorINS_4pairIP12ggml_contextNS_13unordered_mapIjP19ggml_backend_bufferNS_4hashIjEENS_8equal_toIjEENS_9allocatorINS1_IKjS6_EEEEEEEENSB_ISG_EEE26__swap_out_circular_bufferERNS_14__split_bufferISG_RSH_EE, symObjAddr: 0x4D6A4, symBinAddr: 0xBA990, symSize: 0x140 }
  - { offset: 0x5659D8, size: 0x8, addend: 0x0, symName: __ZNSt3__114__split_bufferINS_4pairIP12ggml_contextNS_13unordered_mapIjP19ggml_backend_bufferNS_4hashIjEENS_8equal_toIjEENS_9allocatorINS1_IKjS6_EEEEEEEERNSB_ISG_EEED1Ev, symObjAddr: 0x4D7E4, symBinAddr: 0xBAAD0, symSize: 0x7C }
  - { offset: 0x565E3E, size: 0x8, addend: 0x0, symName: __ZNK11llama_model4descEv, symObjAddr: 0x39CE8, symBinAddr: 0xAFE0C, symSize: 0x2C }
  - { offset: 0x565E62, size: 0x8, addend: 0x0, symName: __ZNK11llama_model4descEv, symObjAddr: 0x39CE8, symBinAddr: 0xAFE0C, symSize: 0x2C }
  - { offset: 0x565FF8, size: 0x8, addend: 0x0, symName: __ZNSt3__16vectorINS_4pairIP19ggml_backend_deviceP24ggml_backend_buffer_typeEENS_9allocatorIS6_EEE18__insert_with_sizeB8ne200100INS_11__wrap_iterIPS6_EESD_EESD_NSB_IPKS6_EET_T0_l, symObjAddr: 0x4CDFC, symBinAddr: 0xBA110, symSize: 0x510 }
  - { offset: 0x566003, size: 0x8, addend: 0x0, symName: __ZNK11llama_model4sizeEv, symObjAddr: 0x39D14, symBinAddr: 0xAFE38, symSize: 0xC }
  - { offset: 0x566027, size: 0x8, addend: 0x0, symName: __ZNK11llama_model4sizeEv, symObjAddr: 0x39D14, symBinAddr: 0xAFE38, symSize: 0xC }
  - { offset: 0x566046, size: 0x8, addend: 0x0, symName: __ZNK11llama_model9n_tensorsEv, symObjAddr: 0x39D20, symBinAddr: 0xAFE44, symSize: 0x14 }
  - { offset: 0x566072, size: 0x8, addend: 0x0, symName: __ZNK11llama_model9n_tensorsEv, symObjAddr: 0x39D20, symBinAddr: 0xAFE44, symSize: 0x14 }
  - { offset: 0x566091, size: 0x8, addend: 0x0, symName: __ZNK11llama_model10split_modeEv, symObjAddr: 0x39D34, symBinAddr: 0xAFE58, symSize: 0xC }
  - { offset: 0x5669C7, size: 0x8, addend: 0x0, symName: __ZNK11llama_model16memory_breakdownEv, symObjAddr: 0x39D40, symBinAddr: 0xAFE64, symSize: 0x4A8 }
  - { offset: 0x5676D4, size: 0x8, addend: 0x0, symName: __ZNK11llama_model10n_elementsEv, symObjAddr: 0x3A1E8, symBinAddr: 0xB030C, symSize: 0xC }
  - { offset: 0x5676F8, size: 0x8, addend: 0x0, symName: __ZNK11llama_model10n_elementsEv, symObjAddr: 0x3A1E8, symBinAddr: 0xB030C, symSize: 0xC }
  - { offset: 0x5683D6, size: 0x8, addend: 0x0, symName: '__ZZNK11llama_model10print_infoEvENK3$_6clERKNSt3__18functionIFjjEEEj', symObjAddr: 0x3B478, symBinAddr: 0xB159C, symSize: 0x2E4 }
  - { offset: 0x569385, size: 0x8, addend: 0x0, symName: __ZNK11llama_model9dev_layerEi, symObjAddr: 0x3B75C, symBinAddr: 0xB1880, symSize: 0x30 }
  - { offset: 0x5693C1, size: 0x8, addend: 0x0, symName: __ZNK11llama_model9dev_layerEi, symObjAddr: 0x3B75C, symBinAddr: 0xB1880, symSize: 0x30 }
  - { offset: 0x569422, size: 0x8, addend: 0x0, symName: __ZNK11llama_model10dev_outputEv, symObjAddr: 0x3B78C, symBinAddr: 0xB18B0, symSize: 0xC }
  - { offset: 0x56942D, size: 0x8, addend: 0x0, symName: __ZNK11llama_model10dev_outputEv, symObjAddr: 0x3B78C, symBinAddr: 0xB18B0, symSize: 0xC }
  - { offset: 0x569459, size: 0x8, addend: 0x0, symName: __ZNK11llama_model10dev_outputEv, symObjAddr: 0x3B78C, symBinAddr: 0xB18B0, symSize: 0xC }
  - { offset: 0x5694F4, size: 0x8, addend: 0x0, symName: __ZNK11llama_model11select_buftEi, symObjAddr: 0x3B798, symBinAddr: 0xB18BC, symSize: 0x2E0 }
  - { offset: 0x569E69, size: 0x8, addend: 0x0, symName: __ZNK11llama_model20has_tensor_overridesEv, symObjAddr: 0x3BA78, symBinAddr: 0xB1B9C, symSize: 0xC }
  - { offset: 0x569E95, size: 0x8, addend: 0x0, symName: __ZNK11llama_model20has_tensor_overridesEv, symObjAddr: 0x3BA78, symBinAddr: 0xB1B9C, symSize: 0xC }
  - { offset: 0x569EE0, size: 0x8, addend: 0x0, symName: __ZNK11llama_model10get_tensorEPKc, symObjAddr: 0x3BA84, symBinAddr: 0xB1BA8, symSize: 0xC0 }
  - { offset: 0x56A19E, size: 0x8, addend: 0x0, symName: __ZNK11llama_model18get_rope_freq_baseERK13llama_cparamsi, symObjAddr: 0x3BB44, symBinAddr: 0xB1C68, symSize: 0x44 }
  - { offset: 0x56A1E8, size: 0x8, addend: 0x0, symName: __ZNK11llama_model19get_rope_freq_scaleERK13llama_cparamsi, symObjAddr: 0x3BB88, symBinAddr: 0xB1CAC, symSize: 0x44 }
  - { offset: 0x56A254, size: 0x8, addend: 0x0, symName: __ZNK11llama_model16get_rope_factorsERK13llama_cparamsi, symObjAddr: 0x3BBCC, symBinAddr: 0xB1CF0, symSize: 0x40 }
  - { offset: 0x56A2AC, size: 0x8, addend: 0x0, symName: __ZNK11llama_model16get_rope_factorsERK13llama_cparamsi, symObjAddr: 0x3BBCC, symBinAddr: 0xB1CF0, symSize: 0x40 }
  - { offset: 0x56A503, size: 0x8, addend: 0x0, symName: '__ZNSt3__18functionIFbiEEaSIZNK11llama_model13create_memoryERK19llama_memory_paramsRK13llama_cparamsE3$_2vEERS2_OT_', symObjAddr: 0x3C2E8, symBinAddr: 0xB240C, symSize: 0x9C }
  - { offset: 0x56A705, size: 0x8, addend: 0x0, symName: '__ZNSt3__18functionIFbiEEaSIZNK11llama_model13create_memoryERK19llama_memory_paramsRK13llama_cparamsE3$_3vEERS2_OT_', symObjAddr: 0x3C384, symBinAddr: 0xB24A8, symSize: 0x9C }
  - { offset: 0x56A907, size: 0x8, addend: 0x0, symName: '__ZNSt3__18functionIFiiEEaSIZNK11llama_model13create_memoryERK19llama_memory_paramsRK13llama_cparamsE3$_4vEERS2_OT_', symObjAddr: 0x3C420, symBinAddr: 0xB2544, symSize: 0x9C }
  - { offset: 0x56AB09, size: 0x8, addend: 0x0, symName: '__ZNSt3__18functionIFbiEEaSIZNK11llama_model13create_memoryERK19llama_memory_paramsRK13llama_cparamsE3$_0vEERS2_OT_', symObjAddr: 0x3C1B0, symBinAddr: 0xB22D4, symSize: 0x9C }
  - { offset: 0x56ACFD, size: 0x8, addend: 0x0, symName: '__ZNSt3__18functionIFbiEEaSIZNK11llama_model13create_memoryERK19llama_memory_paramsRK13llama_cparamsE3$_1vEERS2_OT_', symObjAddr: 0x3C24C, symBinAddr: 0xB2370, symSize: 0x9C }
  - { offset: 0x56B0DF, size: 0x8, addend: 0x0, symName: __ZNSt3__110__function12__value_funcIFbiEE4swapB8ne200100ERS3_, symObjAddr: 0x4EB74, symBinAddr: 0xBBDF4, symSize: 0x1A0 }
  - { offset: 0x56B95F, size: 0x8, addend: 0x0, symName: __ZNSt3__110__function12__value_funcIFiiEE4swapB8ne200100ERS3_, symObjAddr: 0x4F114, symBinAddr: 0xBC394, symSize: 0x1A0 }
  - { offset: 0x56BB89, size: 0x8, addend: 0x0, symName: __ZNK11llama_model11build_graphERK16llm_graph_params, symObjAddr: 0x3C4BC, symBinAddr: 0xB25E0, symSize: 0x86C }
  - { offset: 0x56F26A, size: 0x8, addend: 0x0, symName: _llama_model_default_params, symObjAddr: 0x3F340, symBinAddr: 0xB5464, symSize: 0x2C }
  - { offset: 0x56F296, size: 0x8, addend: 0x0, symName: _llama_model_get_vocab, symObjAddr: 0x3F36C, symBinAddr: 0xB5490, symSize: 0xC }
  - { offset: 0x56F2F6, size: 0x8, addend: 0x0, symName: _llama_free_model, symObjAddr: 0x3F378, symBinAddr: 0xB549C, symSize: 0x1C }
  - { offset: 0x56F31E, size: 0x8, addend: 0x0, symName: _llama_free_model, symObjAddr: 0x3F378, symBinAddr: 0xB549C, symSize: 0x1C }
  - { offset: 0x56F364, size: 0x8, addend: 0x0, symName: _llama_model_free, symObjAddr: 0x3F394, symBinAddr: 0xB54B8, symSize: 0x1C }
  - { offset: 0x56F3AB, size: 0x8, addend: 0x0, symName: _llama_model_n_ctx_train, symObjAddr: 0x3F3B0, symBinAddr: 0xB54D4, symSize: 0x8 }
  - { offset: 0x56F3C9, size: 0x8, addend: 0x0, symName: _llama_model_n_embd, symObjAddr: 0x3F3B8, symBinAddr: 0xB54DC, symSize: 0x8 }
  - { offset: 0x56F3E7, size: 0x8, addend: 0x0, symName: _llama_model_n_embd_inp, symObjAddr: 0x3F3C0, symBinAddr: 0xB54E4, symSize: 0x8 }
  - { offset: 0x56F413, size: 0x8, addend: 0x0, symName: _llama_model_n_embd_out, symObjAddr: 0x3F3C8, symBinAddr: 0xB54EC, symSize: 0x8 }
  - { offset: 0x56F43F, size: 0x8, addend: 0x0, symName: _llama_model_n_layer, symObjAddr: 0x3F3D0, symBinAddr: 0xB54F4, symSize: 0x8 }
  - { offset: 0x56F45D, size: 0x8, addend: 0x0, symName: _llama_model_n_head, symObjAddr: 0x3F3D8, symBinAddr: 0xB54FC, symSize: 0xC }
  - { offset: 0x56F47B, size: 0x8, addend: 0x0, symName: _llama_model_n_head_kv, symObjAddr: 0x3F3E4, symBinAddr: 0xB5508, symSize: 0xC }
  - { offset: 0x56F4A7, size: 0x8, addend: 0x0, symName: _llama_model_n_swa, symObjAddr: 0x3F3F0, symBinAddr: 0xB5514, symSize: 0x8 }
  - { offset: 0x56F4D3, size: 0x8, addend: 0x0, symName: _llama_model_n_cls_out, symObjAddr: 0x3F3F8, symBinAddr: 0xB551C, symSize: 0x8 }
  - { offset: 0x56F521, size: 0x8, addend: 0x0, symName: _llama_model_cls_label, symObjAddr: 0x3F400, symBinAddr: 0xB5524, symSize: 0x4C }
  - { offset: 0x56F633, size: 0x8, addend: 0x0, symName: _llama_n_ctx_train, symObjAddr: 0x3F44C, symBinAddr: 0xB5570, symSize: 0x8 }
  - { offset: 0x56F661, size: 0x8, addend: 0x0, symName: _llama_n_ctx_train, symObjAddr: 0x3F44C, symBinAddr: 0xB5570, symSize: 0x8 }
  - { offset: 0x56F697, size: 0x8, addend: 0x0, symName: _llama_n_embd, symObjAddr: 0x3F454, symBinAddr: 0xB5578, symSize: 0x8 }
  - { offset: 0x56F6C5, size: 0x8, addend: 0x0, symName: _llama_n_embd, symObjAddr: 0x3F454, symBinAddr: 0xB5578, symSize: 0x8 }
  - { offset: 0x56F6FB, size: 0x8, addend: 0x0, symName: _llama_n_layer, symObjAddr: 0x3F45C, symBinAddr: 0xB5580, symSize: 0x8 }
  - { offset: 0x56F729, size: 0x8, addend: 0x0, symName: _llama_n_layer, symObjAddr: 0x3F45C, symBinAddr: 0xB5580, symSize: 0x8 }
  - { offset: 0x56F75F, size: 0x8, addend: 0x0, symName: _llama_n_head, symObjAddr: 0x3F464, symBinAddr: 0xB5588, symSize: 0xC }
  - { offset: 0x56F78D, size: 0x8, addend: 0x0, symName: _llama_n_head, symObjAddr: 0x3F464, symBinAddr: 0xB5588, symSize: 0xC }
  - { offset: 0x56F7AA, size: 0x8, addend: 0x0, symName: _llama_model_rope_freq_scale_train, symObjAddr: 0x3F470, symBinAddr: 0xB5594, symSize: 0x8 }
  - { offset: 0x56F7FC, size: 0x8, addend: 0x0, symName: _llama_model_meta_val_str, symObjAddr: 0x3F478, symBinAddr: 0xB559C, symSize: 0x140 }
  - { offset: 0x570026, size: 0x8, addend: 0x0, symName: _llama_model_meta_count, symObjAddr: 0x3F5B8, symBinAddr: 0xB56DC, symSize: 0xC }
  - { offset: 0x570094, size: 0x8, addend: 0x0, symName: _llama_model_meta_key_str, symObjAddr: 0x3F5C4, symBinAddr: 0xB56E8, symSize: 0x20 }
  - { offset: 0x570174, size: 0x8, addend: 0x0, symName: _llama_model_meta_key_by_index, symObjAddr: 0x3F5E4, symBinAddr: 0xB5708, symSize: 0x88 }
  - { offset: 0x5703B2, size: 0x8, addend: 0x0, symName: _llama_model_meta_val_str_by_index, symObjAddr: 0x3F66C, symBinAddr: 0xB5790, symSize: 0x88 }
  - { offset: 0x5705C0, size: 0x8, addend: 0x0, symName: _llama_model_desc, symObjAddr: 0x3F6F4, symBinAddr: 0xB5818, symSize: 0xAC }
  - { offset: 0x570876, size: 0x8, addend: 0x0, symName: _llama_model_size, symObjAddr: 0x3F7A0, symBinAddr: 0xB58C4, symSize: 0xC }
  - { offset: 0x5708A4, size: 0x8, addend: 0x0, symName: _llama_model_size, symObjAddr: 0x3F7A0, symBinAddr: 0xB58C4, symSize: 0xC }
  - { offset: 0x5708C0, size: 0x8, addend: 0x0, symName: _llama_model_size, symObjAddr: 0x3F7A0, symBinAddr: 0xB58C4, symSize: 0xC }
  - { offset: 0x5708E0, size: 0x8, addend: 0x0, symName: _llama_model_chat_template, symObjAddr: 0x3F7AC, symBinAddr: 0xB58D0, symSize: 0x134 }
  - { offset: 0x570C3D, size: 0x8, addend: 0x0, symName: _llama_model_n_params, symObjAddr: 0x3F8E0, symBinAddr: 0xB5A04, symSize: 0xC }
  - { offset: 0x570C6B, size: 0x8, addend: 0x0, symName: _llama_model_n_params, symObjAddr: 0x3F8E0, symBinAddr: 0xB5A04, symSize: 0xC }
  - { offset: 0x570C87, size: 0x8, addend: 0x0, symName: _llama_model_n_params, symObjAddr: 0x3F8E0, symBinAddr: 0xB5A04, symSize: 0xC }
  - { offset: 0x570CA7, size: 0x8, addend: 0x0, symName: _llama_model_has_encoder, symObjAddr: 0x3F8EC, symBinAddr: 0xB5A10, symSize: 0x14 }
  - { offset: 0x570CD3, size: 0x8, addend: 0x0, symName: _llama_model_has_decoder, symObjAddr: 0x3F900, symBinAddr: 0xB5A24, symSize: 0x10 }
  - { offset: 0x570CFF, size: 0x8, addend: 0x0, symName: _llama_model_decoder_start_token, symObjAddr: 0x3F910, symBinAddr: 0xB5A34, symSize: 0xC }
  - { offset: 0x570D2B, size: 0x8, addend: 0x0, symName: _llama_model_is_recurrent, symObjAddr: 0x3F91C, symBinAddr: 0xB5A40, symSize: 0x8 }
  - { offset: 0x570D65, size: 0x8, addend: 0x0, symName: _llama_model_is_hybrid, symObjAddr: 0x3F924, symBinAddr: 0xB5A48, symSize: 0x8 }
  - { offset: 0x570D9F, size: 0x8, addend: 0x0, symName: _llama_model_is_diffusion, symObjAddr: 0x3F92C, symBinAddr: 0xB5A50, symSize: 0x8 }
  - { offset: 0x570DEF, size: 0x8, addend: 0x0, symName: __Z29llama_internal_get_tensor_mapPK11llama_model, symObjAddr: 0x3F934, symBinAddr: 0xB5A58, symSize: 0xC }
  - { offset: 0x57198C, size: 0x8, addend: 0x0, symName: __ZNSt3__111basic_regexIcNS_12regex_traitsIcEEE7__parseIPKcEET_S7_S7_, symObjAddr: 0x40480, symBinAddr: 0xB6228, symSize: 0x340 }
  - { offset: 0x5728ED, size: 0x8, addend: 0x0, symName: __ZNSt3__111basic_regexIcNS_12regex_traitsIcEEE13__parse_egrepIPKcEET_S7_S7_, symObjAddr: 0x40E2C, symBinAddr: 0xB6B88, symSize: 0x1A0 }
  - { offset: 0x572E3A, size: 0x8, addend: 0x0, symName: __ZNSt3__111basic_regexIcNS_12regex_traitsIcEEE24__parse_extended_reg_expIPKcEET_S7_S7_, symObjAddr: 0x40B30, symBinAddr: 0xB688C, symSize: 0x15C }
  - { offset: 0x57315A, size: 0x8, addend: 0x0, symName: __ZNSt3__111basic_regexIcNS_12regex_traitsIcEEE12__parse_grepIPKcEET_S7_S7_, symObjAddr: 0x40C8C, symBinAddr: 0xB69E8, symSize: 0x1A0 }
  - { offset: 0x57316E, size: 0x8, addend: 0x0, symName: __ZNSt3__111basic_regexIcNS_12regex_traitsIcEEE21__parse_basic_reg_expIPKcEET_S7_S7_, symObjAddr: 0x409B8, symBinAddr: 0xB6714, symSize: 0x178 }
  - { offset: 0x5734CA, size: 0x8, addend: 0x0, symName: __ZNSt3__111basic_regexIcNS_12regex_traitsIcEEE24__parse_extended_reg_expIPKcEET_S7_S7_, symObjAddr: 0x40B30, symBinAddr: 0xB688C, symSize: 0x15C }
  - { offset: 0x5734DE, size: 0x8, addend: 0x0, symName: __ZNSt3__111basic_regexIcNS_12regex_traitsIcEEE12__parse_grepIPKcEET_S7_S7_, symObjAddr: 0x40C8C, symBinAddr: 0xB69E8, symSize: 0x1A0 }
  - { offset: 0x573A2B, size: 0x8, addend: 0x0, symName: __ZNSt3__111basic_regexIcNS_12regex_traitsIcEEE19__parse_alternativeIPKcEET_S7_S7_, symObjAddr: 0x41210, symBinAddr: 0xB6D28, symSize: 0xA0 }
  - { offset: 0x573B70, size: 0x8, addend: 0x0, symName: __ZNSt3__111basic_regexIcNS_12regex_traitsIcEEE16__parse_ecma_expIPKcEET_S7_S7_, symObjAddr: 0x4080C, symBinAddr: 0xB6568, symSize: 0x1AC }
  - { offset: 0x573F62, size: 0x8, addend: 0x0, symName: __ZNSt3__111basic_regexIcNS_12regex_traitsIcEEE12__parse_termIPKcEET_S7_S7_, symObjAddr: 0x412B0, symBinAddr: 0xB6DC8, symSize: 0x94 }
  - { offset: 0x5741FD, size: 0x8, addend: 0x0, symName: __ZNSt3__111basic_regexIcNS_12regex_traitsIcEEE18__parse_nondupl_REIPKcEET_S7_S7_, symObjAddr: 0x484A4, symBinAddr: 0xB923C, symSize: 0x2F8 }
  - { offset: 0x574889, size: 0x8, addend: 0x0, symName: __ZNSt3__111basic_regexIcNS_12regex_traitsIcEEE22__parse_RE_dupl_symbolIPKcEET_S7_S7_PNS_16__owns_one_stateIcEEjj, symObjAddr: 0x4879C, symBinAddr: 0xB9534, symSize: 0x274 }
  - { offset: 0x57489D, size: 0x8, addend: 0x0, symName: __ZNSt3__111basic_regexIcNS_12regex_traitsIcEEE22__parse_RE_dupl_symbolIPKcEET_S7_S7_PNS_16__owns_one_stateIcEEjj, symObjAddr: 0x4879C, symBinAddr: 0xB9534, symSize: 0x274 }
  - { offset: 0x574E4C, size: 0x8, addend: 0x0, symName: __ZNSt3__111basic_regexIcNS_12regex_traitsIcEEE22__parse_ERE_expressionIPKcEET_S7_S7_, symObjAddr: 0x48B40, symBinAddr: 0xB97A8, symSize: 0x1F0 }
  - { offset: 0x5751D4, size: 0x8, addend: 0x0, symName: __ZNSt3__111basic_regexIcNS_12regex_traitsIcEEE33__parse_one_char_or_coll_elem_EREIPKcEET_S7_S7_, symObjAddr: 0x48D30, symBinAddr: 0xB9998, symSize: 0x158 }
  - { offset: 0x5752BA, size: 0x8, addend: 0x0, symName: __ZNSt3__111basic_regexIcNS_12regex_traitsIcEEE23__parse_ERE_dupl_symbolIPKcEET_S7_S7_PNS_16__owns_one_stateIcEEjj, symObjAddr: 0x418F8, symBinAddr: 0xB7410, symSize: 0x3E4 }
  - { offset: 0x575859, size: 0x8, addend: 0x0, symName: __ZNSt3__111basic_regexIcNS_12regex_traitsIcEEE17__parse_assertionIPKcEET_S7_S7_, symObjAddr: 0x41344, symBinAddr: 0xB6E5C, symSize: 0x37C }
  - { offset: 0x575E6F, size: 0x8, addend: 0x0, symName: __ZNSt3__111basic_regexIcNS_12regex_traitsIcEEE12__parse_atomIPKcEET_S7_S7_, symObjAddr: 0x416C0, symBinAddr: 0xB71D8, symSize: 0x238 }
  - { offset: 0x5761D0, size: 0x8, addend: 0x0, symName: __ZNSt3__111basic_regexIcNS_12regex_traitsIcEEE23__parse_ERE_dupl_symbolIPKcEET_S7_S7_PNS_16__owns_one_stateIcEEjj, symObjAddr: 0x418F8, symBinAddr: 0xB7410, symSize: 0x3E4 }
  - { offset: 0x57665F, size: 0x8, addend: 0x0, symName: __ZNSt3__111basic_regexIcNS_12regex_traitsIcEEE26__parse_bracket_expressionIPKcEET_S7_S7_, symObjAddr: 0x43564, symBinAddr: 0xB7974, symSize: 0x160 }
  - { offset: 0x576833, size: 0x8, addend: 0x0, symName: __ZNSt3__111basic_regexIcNS_12regex_traitsIcEEE19__parse_atom_escapeIPKcEET_S7_S7_, symObjAddr: 0x433E4, symBinAddr: 0xB77F4, symSize: 0x180 }
  - { offset: 0x5769BF, size: 0x8, addend: 0x0, symName: __ZNSt3__111basic_regexIcNS_12regex_traitsIcEEE26__parse_bracket_expressionIPKcEET_S7_S7_, symObjAddr: 0x43564, symBinAddr: 0xB7974, symSize: 0x160 }
  - { offset: 0x5769D3, size: 0x8, addend: 0x0, symName: __ZNSt3__111basic_regexIcNS_12regex_traitsIcEEE25__parse_pattern_characterIPKcEET_S7_S7_, symObjAddr: 0x43710, symBinAddr: 0xB7AD4, symSize: 0x7C }
  - { offset: 0x57AD62, size: 0x8, addend: 0x0, symName: __ZNSt3__111basic_regexIcNS_12regex_traitsIcEEE30__parse_character_class_escapeIPKcEET_S7_S7_, symObjAddr: 0x43868, symBinAddr: 0xB7B50, symSize: 0x25C }
  - { offset: 0x57B1BD, size: 0x8, addend: 0x0, symName: __ZNSt3__111basic_regexIcNS_12regex_traitsIcEEE24__parse_character_escapeIPKcEET_S7_S7_PNS_12basic_stringIcNS_11char_traitsIcEENS_9allocatorIcEEEE, symObjAddr: 0x43AC4, symBinAddr: 0xB7DAC, symSize: 0x40C }
  - { offset: 0x57BCCF, size: 0x8, addend: 0x0, symName: __ZNSt3__111basic_regexIcNS_12regex_traitsIcEEE23__parse_expression_termIPKcEET_S7_S7_PNS_20__bracket_expressionIcS2_EE, symObjAddr: 0x45BFC, symBinAddr: 0xB81B8, symSize: 0x54C }
  - { offset: 0x57E036, size: 0x8, addend: 0x0, symName: __ZNSt3__111basic_regexIcNS_12regex_traitsIcEEE25__parse_equivalence_classIPKcEET_S7_S7_PNS_20__bracket_expressionIcS2_EE, symObjAddr: 0x46148, symBinAddr: 0xB8704, symSize: 0x270 }
  - { offset: 0x57EAAA, size: 0x8, addend: 0x0, symName: __ZNSt3__111basic_regexIcNS_12regex_traitsIcEEE18__parse_awk_escapeIPKcEET_S7_S7_PNS_12basic_stringIcNS_11char_traitsIcEENS_9allocatorIcEEEE, symObjAddr: 0x4660C, symBinAddr: 0xB8BC8, symSize: 0x2E4 }
  - { offset: 0x57EBCF, size: 0x8, addend: 0x0, symName: __ZNSt3__111basic_regexIcNS_12regex_traitsIcEEE24__parse_collating_symbolIPKcEET_S7_S7_RNS_12basic_stringIcNS_11char_traitsIcEENS_9allocatorIcEEEE, symObjAddr: 0x463B8, symBinAddr: 0xB8974, symSize: 0xD0 }
  - { offset: 0x57EF45, size: 0x8, addend: 0x0, symName: __ZNSt3__111basic_regexIcNS_12regex_traitsIcEEE20__parse_class_escapeIPKcEET_S7_S7_RNS_12basic_stringIcNS_11char_traitsIcEENS_9allocatorIcEEEEPNS_20__bracket_expressionIcS2_EE, symObjAddr: 0x46488, symBinAddr: 0xB8A44, symSize: 0x184 }
  - { offset: 0x57EF50, size: 0x8, addend: 0x0, symName: __ZNKSt3__112regex_traitsIcE20__lookup_collatenameIPKcEENS_12basic_stringIcNS_11char_traitsIcEENS_9allocatorIcEEEET_SB_c, symObjAddr: 0x46F94, symBinAddr: 0xB8EAC, symSize: 0x23C }
  - { offset: 0x57FA4B, size: 0x8, addend: 0x0, symName: __ZNKSt3__112regex_traitsIcE18__lookup_classnameIPKcEEjT_S5_bc, symObjAddr: 0x47588, symBinAddr: 0xB90E8, symSize: 0x154 }
  - { offset: 0x58074A, size: 0x8, addend: 0x0, symName: __ZNSt3__111basic_regexIcNS_12regex_traitsIcEEE20__parse_class_escapeIPKcEET_S7_S7_RNS_12basic_stringIcNS_11char_traitsIcEENS_9allocatorIcEEEEPNS_20__bracket_expressionIcS2_EE, symObjAddr: 0x46488, symBinAddr: 0xB8A44, symSize: 0x184 }
  - { offset: 0x5808E2, size: 0x8, addend: 0x0, symName: __ZNSt3__111basic_regexIcNS_12regex_traitsIcEEE18__parse_awk_escapeIPKcEET_S7_S7_PNS_12basic_stringIcNS_11char_traitsIcEENS_9allocatorIcEEEE, symObjAddr: 0x4660C, symBinAddr: 0xB8BC8, symSize: 0x2E4 }
  - { offset: 0x583A45, size: 0x8, addend: 0x0, symName: __ZNSt3__111basic_regexIcNS_12regex_traitsIcEEE22__parse_ERE_expressionIPKcEET_S7_S7_, symObjAddr: 0x48B40, symBinAddr: 0xB97A8, symSize: 0x1F0 }
  - { offset: 0x583A50, size: 0x8, addend: 0x0, symName: __ZNSt3__111basic_regexIcNS_12regex_traitsIcEEE33__parse_one_char_or_coll_elem_EREIPKcEET_S7_S7_, symObjAddr: 0x48D30, symBinAddr: 0xB9998, symSize: 0x158 }
  - { offset: 0x583C39, size: 0x8, addend: 0x0, symName: __ZNSt3__111basic_regexIcNS_12regex_traitsIcEEE23__parse_QUOTED_CHAR_EREIPKcEET_S7_S7_, symObjAddr: 0x48E88, symBinAddr: 0xB9AF0, symSize: 0xD8 }
  - { offset: 0x589E52, size: 0x8, addend: 0x0, symName: __ZNSt3__13mapI23llama_rope_scaling_typePKcNS_4lessIS1_EENS_9allocatorINS_4pairIKS1_S3_EEEEEC2B8ne200100ESt16initializer_listIS9_ERKS5_, symObjAddr: 0x4BB90, symBinAddr: 0xB9BC8, symSize: 0xF0 }
  - { offset: 0x58A1D4, size: 0x8, addend: 0x0, symName: __ZNSt3__16__treeINS_12__value_typeI23llama_rope_scaling_typePKcEENS_19__map_value_compareIS2_S5_NS_4lessIS2_EELb1EEENS_9allocatorIS5_EEE12__find_equalIS2_EERPNS_16__tree_node_baseIPvEENS_21__tree_const_iteratorIS5_PNS_11__tree_nodeIS5_SF_EElEERPNS_15__tree_end_nodeISH_EESI_RKT_, symObjAddr: 0x4BC80, symBinAddr: 0xB9CB8, symSize: 0x1B0 }
  - { offset: 0x58A237, size: 0x8, addend: 0x0, symName: __ZNSt3__16__treeINS_12__value_typeI23llama_rope_scaling_typePKcEENS_19__map_value_compareIS2_S5_NS_4lessIS2_EELb1EEENS_9allocatorIS5_EEE12__find_equalIS2_EERPNS_16__tree_node_baseIPvEENS_21__tree_const_iteratorIS5_PNS_11__tree_nodeIS5_SF_EElEERPNS_15__tree_end_nodeISH_EESI_RKT_, symObjAddr: 0x4BC80, symBinAddr: 0xB9CB8, symSize: 0x1B0 }
  - { offset: 0x58A253, size: 0x8, addend: 0x0, symName: __ZNSt3__16__treeINS_12__value_typeI23llama_rope_scaling_typePKcEENS_19__map_value_compareIS2_S5_NS_4lessIS2_EELb1EEENS_9allocatorIS5_EEE12__find_equalIS2_EERPNS_16__tree_node_baseIPvEENS_21__tree_const_iteratorIS5_PNS_11__tree_nodeIS5_SF_EElEERPNS_15__tree_end_nodeISH_EESI_RKT_, symObjAddr: 0x4BC80, symBinAddr: 0xB9CB8, symSize: 0x1B0 }
  - { offset: 0x58AB1A, size: 0x8, addend: 0x0, symName: __ZNSt3__16__treeINS_12__value_typeIP19ggml_backend_deviceNS_6vectorINS_4pairIS3_P24ggml_backend_buffer_typeEENS_9allocatorIS8_EEEEEENS_19__map_value_compareIS3_SC_NS_4lessIS3_EELb1EEENS9_ISC_EEE7destroyEPNS_11__tree_nodeISC_PvEE, symObjAddr: 0x4BFE0, symBinAddr: 0xBA018, symSize: 0x50 }
  - { offset: 0x58ADD0, size: 0x8, addend: 0x0, symName: __ZNSt3__16vectorINS_4pairINS_10unique_ptrI12ggml_context20ggml_context_deleterEENS0_INS2_I19ggml_backend_buffer27ggml_backend_buffer_deleterEENS_9allocatorIS8_EEEEEENS9_ISC_EEE22__base_destruct_at_endB8ne200100EPSC_, symObjAddr: 0x4C030, symBinAddr: 0xBA068, symSize: 0xA8 }
  - { offset: 0x58D332, size: 0x8, addend: 0x0, symName: __ZNSt3__16vectorIN11llama_model4impl9layer_devENS_9allocatorIS3_EEE20__throw_length_errorB8ne200100Ev, symObjAddr: 0x4D440, symBinAddr: 0xBA740, symSize: 0x14 }
  - { offset: 0x58D34A, size: 0x8, addend: 0x0, symName: __ZNSt3__16__treeINS_12__value_typeIP24ggml_backend_buffer_typeNS_10unique_ptrI12ggml_context20ggml_context_deleterEEEENS_19__map_value_compareIS3_S8_ZN11llama_model12load_tensorsER18llama_model_loaderE28ggml_backend_buft_comparatorLb1EEENS_9allocatorIS8_EEE7destroyEPNS_11__tree_nodeIS8_PvEE, symObjAddr: 0x4D454, symBinAddr: 0xBA754, symSize: 0x54 }
  - { offset: 0x58D70B, size: 0x8, addend: 0x0, symName: __ZNSt3__16vectorI11llama_layerNS_9allocatorIS1_EEE20__throw_length_errorB8ne200100Ev, symObjAddr: 0x4D668, symBinAddr: 0xBA968, symSize: 0x14 }
  - { offset: 0x58D996, size: 0x8, addend: 0x0, symName: __ZNSt3__112__hash_tableINS_17__hash_value_typeIjP19ggml_backend_bufferEENS_22__unordered_map_hasherIjS4_NS_4hashIjEENS_8equal_toIjEELb1EEENS_21__unordered_map_equalIjS4_S9_S7_Lb1EEENS_9allocatorIS4_EEED1Ev, symObjAddr: 0x4D928, symBinAddr: 0xBAC14, symSize: 0x48 }
  - { offset: 0x58E288, size: 0x8, addend: 0x0, symName: __ZNSt3__112__hash_tableINS_17__hash_value_typeIjP19ggml_backend_bufferEENS_22__unordered_map_hasherIjS4_NS_4hashIjEENS_8equal_toIjEELb1EEENS_21__unordered_map_equalIjS4_S9_S7_Lb1EEENS_9allocatorIS4_EEE25__emplace_unique_key_argsIjJRKNS_4pairIKjS3_EEEEENSH_INS_15__hash_iteratorIPNS_11__hash_nodeIS4_PvEEEEbEERKT_DpOT0_, symObjAddr: 0x4E1E8, symBinAddr: 0xBB4AC, symSize: 0x304 }
  - { offset: 0x58EAE0, size: 0x8, addend: 0x0, symName: '__ZNSt3__110__function6__funcIZNK11llama_model10print_infoEvE3$_0NS_9allocatorIS3_EEFjjEED1Ev', symObjAddr: 0x4E5A8, symBinAddr: 0xBB828, symSize: 0x4 }
  - { offset: 0x58EB0C, size: 0x8, addend: 0x0, symName: '__ZNSt3__110__function6__funcIZNK11llama_model10print_infoEvE3$_0NS_9allocatorIS3_EEFjjEED0Ev', symObjAddr: 0x4E5AC, symBinAddr: 0xBB82C, symSize: 0x4 }
  - { offset: 0x58EBC3, size: 0x8, addend: 0x0, symName: '__ZNKSt3__110__function6__funcIZNK11llama_model10print_infoEvE3$_0NS_9allocatorIS3_EEFjjEE7__cloneEv', symObjAddr: 0x4E5B0, symBinAddr: 0xBB830, symSize: 0x34 }
  - { offset: 0x58ED15, size: 0x8, addend: 0x0, symName: '__ZNKSt3__110__function6__funcIZNK11llama_model10print_infoEvE3$_0NS_9allocatorIS3_EEFjjEE7__cloneEPNS0_6__baseIS6_EE', symObjAddr: 0x4E5E4, symBinAddr: 0xBB864, symSize: 0x14 }
  - { offset: 0x58ED82, size: 0x8, addend: 0x0, symName: '__ZNSt3__110__function6__funcIZNK11llama_model10print_infoEvE3$_0NS_9allocatorIS3_EEFjjEE7destroyEv', symObjAddr: 0x4E5F8, symBinAddr: 0xBB878, symSize: 0x4 }
  - { offset: 0x58EDD7, size: 0x8, addend: 0x0, symName: '__ZNSt3__110__function6__funcIZNK11llama_model10print_infoEvE3$_0NS_9allocatorIS3_EEFjjEE18destroy_deallocateEv', symObjAddr: 0x4E5FC, symBinAddr: 0xBB87C, symSize: 0x4 }
  - { offset: 0x58EE0C, size: 0x8, addend: 0x0, symName: '__ZNSt3__110__function6__funcIZNK11llama_model10print_infoEvE3$_0NS_9allocatorIS3_EEFjjEE18destroy_deallocateEv', symObjAddr: 0x4E5FC, symBinAddr: 0xBB87C, symSize: 0x4 }
  - { offset: 0x58EE2F, size: 0x8, addend: 0x0, symName: '__ZNSt3__110__function6__funcIZNK11llama_model10print_infoEvE3$_0NS_9allocatorIS3_EEFjjEE18destroy_deallocateEv', symObjAddr: 0x4E5FC, symBinAddr: 0xBB87C, symSize: 0x4 }
  - { offset: 0x58EE62, size: 0x8, addend: 0x0, symName: '__ZNSt3__110__function6__funcIZNK11llama_model10print_infoEvE3$_0NS_9allocatorIS3_EEFjjEE18destroy_deallocateEv', symObjAddr: 0x4E5FC, symBinAddr: 0xBB87C, symSize: 0x4 }
  - { offset: 0x58EF05, size: 0x8, addend: 0x0, symName: '__ZNSt3__110__function6__funcIZNK11llama_model10print_infoEvE3$_0NS_9allocatorIS3_EEFjjEEclEOj', symObjAddr: 0x4E600, symBinAddr: 0xBB880, symSize: 0x10 }
  - { offset: 0x58EFAE, size: 0x8, addend: 0x0, symName: '__ZNKSt3__110__function6__funcIZNK11llama_model10print_infoEvE3$_0NS_9allocatorIS3_EEFjjEE6targetERKSt9type_info', symObjAddr: 0x4E610, symBinAddr: 0xBB890, symSize: 0x64 }
  - { offset: 0x58F062, size: 0x8, addend: 0x0, symName: '__ZNKSt3__110__function6__funcIZNK11llama_model10print_infoEvE3$_0NS_9allocatorIS3_EEFjjEE11target_typeEv', symObjAddr: 0x4E674, symBinAddr: 0xBB8F4, symSize: 0xC }
  - { offset: 0x58F085, size: 0x8, addend: 0x0, symName: '__ZNSt3__110__function6__funcIZNK11llama_model10print_infoEvE3$_1NS_9allocatorIS3_EEFjjEED1Ev', symObjAddr: 0x4E680, symBinAddr: 0xBB900, symSize: 0x4 }
  - { offset: 0x58F0B1, size: 0x8, addend: 0x0, symName: '__ZNSt3__110__function6__funcIZNK11llama_model10print_infoEvE3$_1NS_9allocatorIS3_EEFjjEED0Ev', symObjAddr: 0x4E684, symBinAddr: 0xBB904, symSize: 0x4 }
  - { offset: 0x58F168, size: 0x8, addend: 0x0, symName: '__ZNKSt3__110__function6__funcIZNK11llama_model10print_infoEvE3$_1NS_9allocatorIS3_EEFjjEE7__cloneEv', symObjAddr: 0x4E688, symBinAddr: 0xBB908, symSize: 0x34 }
  - { offset: 0x58F2BA, size: 0x8, addend: 0x0, symName: '__ZNKSt3__110__function6__funcIZNK11llama_model10print_infoEvE3$_1NS_9allocatorIS3_EEFjjEE7__cloneEPNS0_6__baseIS6_EE', symObjAddr: 0x4E6BC, symBinAddr: 0xBB93C, symSize: 0x14 }
  - { offset: 0x58F327, size: 0x8, addend: 0x0, symName: '__ZNSt3__110__function6__funcIZNK11llama_model10print_infoEvE3$_1NS_9allocatorIS3_EEFjjEE7destroyEv', symObjAddr: 0x4E6D0, symBinAddr: 0xBB950, symSize: 0x4 }
  - { offset: 0x58F37C, size: 0x8, addend: 0x0, symName: '__ZNSt3__110__function6__funcIZNK11llama_model10print_infoEvE3$_1NS_9allocatorIS3_EEFjjEE18destroy_deallocateEv', symObjAddr: 0x4E6D4, symBinAddr: 0xBB954, symSize: 0x4 }
  - { offset: 0x58F3B1, size: 0x8, addend: 0x0, symName: '__ZNSt3__110__function6__funcIZNK11llama_model10print_infoEvE3$_1NS_9allocatorIS3_EEFjjEE18destroy_deallocateEv', symObjAddr: 0x4E6D4, symBinAddr: 0xBB954, symSize: 0x4 }
  - { offset: 0x58F3D4, size: 0x8, addend: 0x0, symName: '__ZNSt3__110__function6__funcIZNK11llama_model10print_infoEvE3$_1NS_9allocatorIS3_EEFjjEE18destroy_deallocateEv', symObjAddr: 0x4E6D4, symBinAddr: 0xBB954, symSize: 0x4 }
  - { offset: 0x58F407, size: 0x8, addend: 0x0, symName: '__ZNSt3__110__function6__funcIZNK11llama_model10print_infoEvE3$_1NS_9allocatorIS3_EEFjjEE18destroy_deallocateEv', symObjAddr: 0x4E6D4, symBinAddr: 0xBB954, symSize: 0x4 }
  - { offset: 0x58F4AA, size: 0x8, addend: 0x0, symName: '__ZNSt3__110__function6__funcIZNK11llama_model10print_infoEvE3$_1NS_9allocatorIS3_EEFjjEEclEOj', symObjAddr: 0x4E6D8, symBinAddr: 0xBB958, symSize: 0x10 }
  - { offset: 0x58F553, size: 0x8, addend: 0x0, symName: '__ZNKSt3__110__function6__funcIZNK11llama_model10print_infoEvE3$_1NS_9allocatorIS3_EEFjjEE6targetERKSt9type_info', symObjAddr: 0x4E6E8, symBinAddr: 0xBB968, symSize: 0x64 }
  - { offset: 0x58F607, size: 0x8, addend: 0x0, symName: '__ZNKSt3__110__function6__funcIZNK11llama_model10print_infoEvE3$_1NS_9allocatorIS3_EEFjjEE11target_typeEv', symObjAddr: 0x4E74C, symBinAddr: 0xBB9CC, symSize: 0xC }
  - { offset: 0x58F62A, size: 0x8, addend: 0x0, symName: '__ZNSt3__110__function6__funcIZNK11llama_model10print_infoEvE3$_2NS_9allocatorIS3_EEFjjEED1Ev', symObjAddr: 0x4E758, symBinAddr: 0xBB9D8, symSize: 0x4 }
  - { offset: 0x58F656, size: 0x8, addend: 0x0, symName: '__ZNSt3__110__function6__funcIZNK11llama_model10print_infoEvE3$_2NS_9allocatorIS3_EEFjjEED0Ev', symObjAddr: 0x4E75C, symBinAddr: 0xBB9DC, symSize: 0x4 }
  - { offset: 0x58F70D, size: 0x8, addend: 0x0, symName: '__ZNKSt3__110__function6__funcIZNK11llama_model10print_infoEvE3$_2NS_9allocatorIS3_EEFjjEE7__cloneEv', symObjAddr: 0x4E760, symBinAddr: 0xBB9E0, symSize: 0x34 }
  - { offset: 0x58F85F, size: 0x8, addend: 0x0, symName: '__ZNKSt3__110__function6__funcIZNK11llama_model10print_infoEvE3$_2NS_9allocatorIS3_EEFjjEE7__cloneEPNS0_6__baseIS6_EE', symObjAddr: 0x4E794, symBinAddr: 0xBBA14, symSize: 0x14 }
  - { offset: 0x58F8CC, size: 0x8, addend: 0x0, symName: '__ZNSt3__110__function6__funcIZNK11llama_model10print_infoEvE3$_2NS_9allocatorIS3_EEFjjEE7destroyEv', symObjAddr: 0x4E7A8, symBinAddr: 0xBBA28, symSize: 0x4 }
  - { offset: 0x58F921, size: 0x8, addend: 0x0, symName: '__ZNSt3__110__function6__funcIZNK11llama_model10print_infoEvE3$_2NS_9allocatorIS3_EEFjjEE18destroy_deallocateEv', symObjAddr: 0x4E7AC, symBinAddr: 0xBBA2C, symSize: 0x4 }
  - { offset: 0x58F956, size: 0x8, addend: 0x0, symName: '__ZNSt3__110__function6__funcIZNK11llama_model10print_infoEvE3$_2NS_9allocatorIS3_EEFjjEE18destroy_deallocateEv', symObjAddr: 0x4E7AC, symBinAddr: 0xBBA2C, symSize: 0x4 }
  - { offset: 0x58F979, size: 0x8, addend: 0x0, symName: '__ZNSt3__110__function6__funcIZNK11llama_model10print_infoEvE3$_2NS_9allocatorIS3_EEFjjEE18destroy_deallocateEv', symObjAddr: 0x4E7AC, symBinAddr: 0xBBA2C, symSize: 0x4 }
  - { offset: 0x58F9AC, size: 0x8, addend: 0x0, symName: '__ZNSt3__110__function6__funcIZNK11llama_model10print_infoEvE3$_2NS_9allocatorIS3_EEFjjEE18destroy_deallocateEv', symObjAddr: 0x4E7AC, symBinAddr: 0xBBA2C, symSize: 0x4 }
  - { offset: 0x58FA4F, size: 0x8, addend: 0x0, symName: '__ZNSt3__110__function6__funcIZNK11llama_model10print_infoEvE3$_2NS_9allocatorIS3_EEFjjEEclEOj', symObjAddr: 0x4E7B0, symBinAddr: 0xBBA30, symSize: 0x10 }
  - { offset: 0x58FAF8, size: 0x8, addend: 0x0, symName: '__ZNKSt3__110__function6__funcIZNK11llama_model10print_infoEvE3$_2NS_9allocatorIS3_EEFjjEE6targetERKSt9type_info', symObjAddr: 0x4E7C0, symBinAddr: 0xBBA40, symSize: 0x64 }
  - { offset: 0x58FBAC, size: 0x8, addend: 0x0, symName: '__ZNKSt3__110__function6__funcIZNK11llama_model10print_infoEvE3$_2NS_9allocatorIS3_EEFjjEE11target_typeEv', symObjAddr: 0x4E824, symBinAddr: 0xBBAA4, symSize: 0xC }
  - { offset: 0x58FBCF, size: 0x8, addend: 0x0, symName: '__ZNSt3__110__function6__funcIZNK11llama_model10print_infoEvE3$_3NS_9allocatorIS3_EEFjjEED1Ev', symObjAddr: 0x4E830, symBinAddr: 0xBBAB0, symSize: 0x4 }
  - { offset: 0x58FBFB, size: 0x8, addend: 0x0, symName: '__ZNSt3__110__function6__funcIZNK11llama_model10print_infoEvE3$_3NS_9allocatorIS3_EEFjjEED0Ev', symObjAddr: 0x4E834, symBinAddr: 0xBBAB4, symSize: 0x4 }
  - { offset: 0x58FCB2, size: 0x8, addend: 0x0, symName: '__ZNKSt3__110__function6__funcIZNK11llama_model10print_infoEvE3$_3NS_9allocatorIS3_EEFjjEE7__cloneEv', symObjAddr: 0x4E838, symBinAddr: 0xBBAB8, symSize: 0x34 }
  - { offset: 0x58FE04, size: 0x8, addend: 0x0, symName: '__ZNKSt3__110__function6__funcIZNK11llama_model10print_infoEvE3$_3NS_9allocatorIS3_EEFjjEE7__cloneEPNS0_6__baseIS6_EE', symObjAddr: 0x4E86C, symBinAddr: 0xBBAEC, symSize: 0x14 }
  - { offset: 0x58FE71, size: 0x8, addend: 0x0, symName: '__ZNSt3__110__function6__funcIZNK11llama_model10print_infoEvE3$_3NS_9allocatorIS3_EEFjjEE7destroyEv', symObjAddr: 0x4E880, symBinAddr: 0xBBB00, symSize: 0x4 }
  - { offset: 0x58FEC6, size: 0x8, addend: 0x0, symName: '__ZNSt3__110__function6__funcIZNK11llama_model10print_infoEvE3$_3NS_9allocatorIS3_EEFjjEE18destroy_deallocateEv', symObjAddr: 0x4E884, symBinAddr: 0xBBB04, symSize: 0x4 }
  - { offset: 0x58FEFB, size: 0x8, addend: 0x0, symName: '__ZNSt3__110__function6__funcIZNK11llama_model10print_infoEvE3$_3NS_9allocatorIS3_EEFjjEE18destroy_deallocateEv', symObjAddr: 0x4E884, symBinAddr: 0xBBB04, symSize: 0x4 }
  - { offset: 0x58FF1E, size: 0x8, addend: 0x0, symName: '__ZNSt3__110__function6__funcIZNK11llama_model10print_infoEvE3$_3NS_9allocatorIS3_EEFjjEE18destroy_deallocateEv', symObjAddr: 0x4E884, symBinAddr: 0xBBB04, symSize: 0x4 }
  - { offset: 0x58FF51, size: 0x8, addend: 0x0, symName: '__ZNSt3__110__function6__funcIZNK11llama_model10print_infoEvE3$_3NS_9allocatorIS3_EEFjjEE18destroy_deallocateEv', symObjAddr: 0x4E884, symBinAddr: 0xBBB04, symSize: 0x4 }
  - { offset: 0x58FFF4, size: 0x8, addend: 0x0, symName: '__ZNSt3__110__function6__funcIZNK11llama_model10print_infoEvE3$_3NS_9allocatorIS3_EEFjjEEclEOj', symObjAddr: 0x4E888, symBinAddr: 0xBBB08, symSize: 0x10 }
  - { offset: 0x59009D, size: 0x8, addend: 0x0, symName: '__ZNKSt3__110__function6__funcIZNK11llama_model10print_infoEvE3$_3NS_9allocatorIS3_EEFjjEE6targetERKSt9type_info', symObjAddr: 0x4E898, symBinAddr: 0xBBB18, symSize: 0x64 }
  - { offset: 0x590151, size: 0x8, addend: 0x0, symName: '__ZNKSt3__110__function6__funcIZNK11llama_model10print_infoEvE3$_3NS_9allocatorIS3_EEFjjEE11target_typeEv', symObjAddr: 0x4E8FC, symBinAddr: 0xBBB7C, symSize: 0xC }
  - { offset: 0x590174, size: 0x8, addend: 0x0, symName: '__ZNSt3__110__function6__funcIZNK11llama_model10print_infoEvE3$_4NS_9allocatorIS3_EEFjjEED1Ev', symObjAddr: 0x4E908, symBinAddr: 0xBBB88, symSize: 0x4 }
  - { offset: 0x5901A0, size: 0x8, addend: 0x0, symName: '__ZNSt3__110__function6__funcIZNK11llama_model10print_infoEvE3$_4NS_9allocatorIS3_EEFjjEED0Ev', symObjAddr: 0x4E90C, symBinAddr: 0xBBB8C, symSize: 0x4 }
  - { offset: 0x590257, size: 0x8, addend: 0x0, symName: '__ZNKSt3__110__function6__funcIZNK11llama_model10print_infoEvE3$_4NS_9allocatorIS3_EEFjjEE7__cloneEv', symObjAddr: 0x4E910, symBinAddr: 0xBBB90, symSize: 0x34 }
  - { offset: 0x5903A9, size: 0x8, addend: 0x0, symName: '__ZNKSt3__110__function6__funcIZNK11llama_model10print_infoEvE3$_4NS_9allocatorIS3_EEFjjEE7__cloneEPNS0_6__baseIS6_EE', symObjAddr: 0x4E944, symBinAddr: 0xBBBC4, symSize: 0x14 }
  - { offset: 0x590416, size: 0x8, addend: 0x0, symName: '__ZNSt3__110__function6__funcIZNK11llama_model10print_infoEvE3$_4NS_9allocatorIS3_EEFjjEE7destroyEv', symObjAddr: 0x4E958, symBinAddr: 0xBBBD8, symSize: 0x4 }
  - { offset: 0x59046B, size: 0x8, addend: 0x0, symName: '__ZNSt3__110__function6__funcIZNK11llama_model10print_infoEvE3$_4NS_9allocatorIS3_EEFjjEE18destroy_deallocateEv', symObjAddr: 0x4E95C, symBinAddr: 0xBBBDC, symSize: 0x4 }
  - { offset: 0x5904A0, size: 0x8, addend: 0x0, symName: '__ZNSt3__110__function6__funcIZNK11llama_model10print_infoEvE3$_4NS_9allocatorIS3_EEFjjEE18destroy_deallocateEv', symObjAddr: 0x4E95C, symBinAddr: 0xBBBDC, symSize: 0x4 }
  - { offset: 0x5904C3, size: 0x8, addend: 0x0, symName: '__ZNSt3__110__function6__funcIZNK11llama_model10print_infoEvE3$_4NS_9allocatorIS3_EEFjjEE18destroy_deallocateEv', symObjAddr: 0x4E95C, symBinAddr: 0xBBBDC, symSize: 0x4 }
  - { offset: 0x5904F6, size: 0x8, addend: 0x0, symName: '__ZNSt3__110__function6__funcIZNK11llama_model10print_infoEvE3$_4NS_9allocatorIS3_EEFjjEE18destroy_deallocateEv', symObjAddr: 0x4E95C, symBinAddr: 0xBBBDC, symSize: 0x4 }
  - { offset: 0x590599, size: 0x8, addend: 0x0, symName: '__ZNSt3__110__function6__funcIZNK11llama_model10print_infoEvE3$_4NS_9allocatorIS3_EEFjjEEclEOj', symObjAddr: 0x4E960, symBinAddr: 0xBBBE0, symSize: 0x10 }
  - { offset: 0x590642, size: 0x8, addend: 0x0, symName: '__ZNKSt3__110__function6__funcIZNK11llama_model10print_infoEvE3$_4NS_9allocatorIS3_EEFjjEE6targetERKSt9type_info', symObjAddr: 0x4E970, symBinAddr: 0xBBBF0, symSize: 0x64 }
  - { offset: 0x5906F6, size: 0x8, addend: 0x0, symName: '__ZNKSt3__110__function6__funcIZNK11llama_model10print_infoEvE3$_4NS_9allocatorIS3_EEFjjEE11target_typeEv', symObjAddr: 0x4E9D4, symBinAddr: 0xBBC54, symSize: 0xC }
  - { offset: 0x590719, size: 0x8, addend: 0x0, symName: '__ZNSt3__110__function6__funcIZNK11llama_model10print_infoEvE3$_5NS_9allocatorIS3_EEFjjEED1Ev', symObjAddr: 0x4E9E0, symBinAddr: 0xBBC60, symSize: 0x4 }
  - { offset: 0x590745, size: 0x8, addend: 0x0, symName: '__ZNSt3__110__function6__funcIZNK11llama_model10print_infoEvE3$_5NS_9allocatorIS3_EEFjjEED0Ev', symObjAddr: 0x4E9E4, symBinAddr: 0xBBC64, symSize: 0x4 }
  - { offset: 0x5907FC, size: 0x8, addend: 0x0, symName: '__ZNKSt3__110__function6__funcIZNK11llama_model10print_infoEvE3$_5NS_9allocatorIS3_EEFjjEE7__cloneEv', symObjAddr: 0x4E9E8, symBinAddr: 0xBBC68, symSize: 0x34 }
  - { offset: 0x59094E, size: 0x8, addend: 0x0, symName: '__ZNKSt3__110__function6__funcIZNK11llama_model10print_infoEvE3$_5NS_9allocatorIS3_EEFjjEE7__cloneEPNS0_6__baseIS6_EE', symObjAddr: 0x4EA1C, symBinAddr: 0xBBC9C, symSize: 0x14 }
  - { offset: 0x5909BB, size: 0x8, addend: 0x0, symName: '__ZNSt3__110__function6__funcIZNK11llama_model10print_infoEvE3$_5NS_9allocatorIS3_EEFjjEE7destroyEv', symObjAddr: 0x4EA30, symBinAddr: 0xBBCB0, symSize: 0x4 }
  - { offset: 0x590A10, size: 0x8, addend: 0x0, symName: '__ZNSt3__110__function6__funcIZNK11llama_model10print_infoEvE3$_5NS_9allocatorIS3_EEFjjEE18destroy_deallocateEv', symObjAddr: 0x4EA34, symBinAddr: 0xBBCB4, symSize: 0x4 }
  - { offset: 0x590A45, size: 0x8, addend: 0x0, symName: '__ZNSt3__110__function6__funcIZNK11llama_model10print_infoEvE3$_5NS_9allocatorIS3_EEFjjEE18destroy_deallocateEv', symObjAddr: 0x4EA34, symBinAddr: 0xBBCB4, symSize: 0x4 }
  - { offset: 0x590A68, size: 0x8, addend: 0x0, symName: '__ZNSt3__110__function6__funcIZNK11llama_model10print_infoEvE3$_5NS_9allocatorIS3_EEFjjEE18destroy_deallocateEv', symObjAddr: 0x4EA34, symBinAddr: 0xBBCB4, symSize: 0x4 }
  - { offset: 0x590A9B, size: 0x8, addend: 0x0, symName: '__ZNSt3__110__function6__funcIZNK11llama_model10print_infoEvE3$_5NS_9allocatorIS3_EEFjjEE18destroy_deallocateEv', symObjAddr: 0x4EA34, symBinAddr: 0xBBCB4, symSize: 0x4 }
  - { offset: 0x590B3E, size: 0x8, addend: 0x0, symName: '__ZNSt3__110__function6__funcIZNK11llama_model10print_infoEvE3$_5NS_9allocatorIS3_EEFjjEEclEOj', symObjAddr: 0x4EA38, symBinAddr: 0xBBCB8, symSize: 0x10 }
  - { offset: 0x590BE7, size: 0x8, addend: 0x0, symName: '__ZNKSt3__110__function6__funcIZNK11llama_model10print_infoEvE3$_5NS_9allocatorIS3_EEFjjEE6targetERKSt9type_info', symObjAddr: 0x4EA48, symBinAddr: 0xBBCC8, symSize: 0x64 }
  - { offset: 0x590C9B, size: 0x8, addend: 0x0, symName: '__ZNKSt3__110__function6__funcIZNK11llama_model10print_infoEvE3$_5NS_9allocatorIS3_EEFjjEE11target_typeEv', symObjAddr: 0x4EAAC, symBinAddr: 0xBBD2C, symSize: 0xC }
  - { offset: 0x590CBE, size: 0x8, addend: 0x0, symName: '__ZNSt3__110__function6__funcIZNK11llama_model13create_memoryERK19llama_memory_paramsRK13llama_cparamsE3$_0NS_9allocatorIS9_EEFbiEED1Ev', symObjAddr: 0x4EAB8, symBinAddr: 0xBBD38, symSize: 0x4 }
  - { offset: 0x590CEA, size: 0x8, addend: 0x0, symName: '__ZNSt3__110__function6__funcIZNK11llama_model13create_memoryERK19llama_memory_paramsRK13llama_cparamsE3$_0NS_9allocatorIS9_EEFbiEED0Ev', symObjAddr: 0x4EABC, symBinAddr: 0xBBD3C, symSize: 0x4 }
  - { offset: 0x590DA1, size: 0x8, addend: 0x0, symName: '__ZNKSt3__110__function6__funcIZNK11llama_model13create_memoryERK19llama_memory_paramsRK13llama_cparamsE3$_0NS_9allocatorIS9_EEFbiEE7__cloneEv', symObjAddr: 0x4EAC0, symBinAddr: 0xBBD40, symSize: 0x24 }
  - { offset: 0x590EEF, size: 0x8, addend: 0x0, symName: '__ZNKSt3__110__function6__funcIZNK11llama_model13create_memoryERK19llama_memory_paramsRK13llama_cparamsE3$_0NS_9allocatorIS9_EEFbiEE7__cloneEPNS0_6__baseISC_EE', symObjAddr: 0x4EAE4, symBinAddr: 0xBBD64, symSize: 0x10 }
  - { offset: 0x590F22, size: 0x8, addend: 0x0, symName: '__ZNKSt3__110__function6__funcIZNK11llama_model13create_memoryERK19llama_memory_paramsRK13llama_cparamsE3$_0NS_9allocatorIS9_EEFbiEE7__cloneEPNS0_6__baseISC_EE', symObjAddr: 0x4EAE4, symBinAddr: 0xBBD64, symSize: 0x10 }
  - { offset: 0x590F3E, size: 0x8, addend: 0x0, symName: '__ZNKSt3__110__function6__funcIZNK11llama_model13create_memoryERK19llama_memory_paramsRK13llama_cparamsE3$_0NS_9allocatorIS9_EEFbiEE7__cloneEPNS0_6__baseISC_EE', symObjAddr: 0x4EAE4, symBinAddr: 0xBBD64, symSize: 0x10 }
  - { offset: 0x590F5A, size: 0x8, addend: 0x0, symName: '__ZNSt3__110__function6__funcIZNK11llama_model13create_memoryERK19llama_memory_paramsRK13llama_cparamsE3$_0NS_9allocatorIS9_EEFbiEE7destroyEv', symObjAddr: 0x4EAF4, symBinAddr: 0xBBD74, symSize: 0x4 }
  - { offset: 0x590FAF, size: 0x8, addend: 0x0, symName: '__ZNSt3__110__function6__funcIZNK11llama_model13create_memoryERK19llama_memory_paramsRK13llama_cparamsE3$_0NS_9allocatorIS9_EEFbiEE18destroy_deallocateEv', symObjAddr: 0x4EAF8, symBinAddr: 0xBBD78, symSize: 0x4 }
  - { offset: 0x590FE4, size: 0x8, addend: 0x0, symName: '__ZNSt3__110__function6__funcIZNK11llama_model13create_memoryERK19llama_memory_paramsRK13llama_cparamsE3$_0NS_9allocatorIS9_EEFbiEE18destroy_deallocateEv', symObjAddr: 0x4EAF8, symBinAddr: 0xBBD78, symSize: 0x4 }
  - { offset: 0x591007, size: 0x8, addend: 0x0, symName: '__ZNSt3__110__function6__funcIZNK11llama_model13create_memoryERK19llama_memory_paramsRK13llama_cparamsE3$_0NS_9allocatorIS9_EEFbiEE18destroy_deallocateEv', symObjAddr: 0x4EAF8, symBinAddr: 0xBBD78, symSize: 0x4 }
  - { offset: 0x59103A, size: 0x8, addend: 0x0, symName: '__ZNSt3__110__function6__funcIZNK11llama_model13create_memoryERK19llama_memory_paramsRK13llama_cparamsE3$_0NS_9allocatorIS9_EEFbiEE18destroy_deallocateEv', symObjAddr: 0x4EAF8, symBinAddr: 0xBBD78, symSize: 0x4 }
  - { offset: 0x591062, size: 0x8, addend: 0x0, symName: '__ZNSt3__110__function6__funcIZNK11llama_model13create_memoryERK19llama_memory_paramsRK13llama_cparamsE3$_0NS_9allocatorIS9_EEFbiEEclEOi', symObjAddr: 0x4EAFC, symBinAddr: 0xBBD7C, symSize: 0x8 }
  - { offset: 0x591091, size: 0x8, addend: 0x0, symName: '__ZNKSt3__110__function6__funcIZNK11llama_model13create_memoryERK19llama_memory_paramsRK13llama_cparamsE3$_0NS_9allocatorIS9_EEFbiEE6targetERKSt9type_info', symObjAddr: 0x4EB04, symBinAddr: 0xBBD84, symSize: 0x64 }
  - { offset: 0x591145, size: 0x8, addend: 0x0, symName: '__ZNKSt3__110__function6__funcIZNK11llama_model13create_memoryERK19llama_memory_paramsRK13llama_cparamsE3$_0NS_9allocatorIS9_EEFbiEE11target_typeEv', symObjAddr: 0x4EB68, symBinAddr: 0xBBDE8, symSize: 0xC }
  - { offset: 0x59116E, size: 0x8, addend: 0x0, symName: '__ZNSt3__110__function6__funcIZNK11llama_model13create_memoryERK19llama_memory_paramsRK13llama_cparamsE3$_1NS_9allocatorIS9_EEFbiEED1Ev', symObjAddr: 0x4ED14, symBinAddr: 0xBBF94, symSize: 0x4 }
  - { offset: 0x59119A, size: 0x8, addend: 0x0, symName: '__ZNSt3__110__function6__funcIZNK11llama_model13create_memoryERK19llama_memory_paramsRK13llama_cparamsE3$_1NS_9allocatorIS9_EEFbiEED0Ev', symObjAddr: 0x4ED18, symBinAddr: 0xBBF98, symSize: 0x4 }
  - { offset: 0x591251, size: 0x8, addend: 0x0, symName: '__ZNKSt3__110__function6__funcIZNK11llama_model13create_memoryERK19llama_memory_paramsRK13llama_cparamsE3$_1NS_9allocatorIS9_EEFbiEE7__cloneEv', symObjAddr: 0x4ED1C, symBinAddr: 0xBBF9C, symSize: 0x24 }
  - { offset: 0x59139F, size: 0x8, addend: 0x0, symName: '__ZNKSt3__110__function6__funcIZNK11llama_model13create_memoryERK19llama_memory_paramsRK13llama_cparamsE3$_1NS_9allocatorIS9_EEFbiEE7__cloneEPNS0_6__baseISC_EE', symObjAddr: 0x4ED40, symBinAddr: 0xBBFC0, symSize: 0x10 }
  - { offset: 0x5913D2, size: 0x8, addend: 0x0, symName: '__ZNKSt3__110__function6__funcIZNK11llama_model13create_memoryERK19llama_memory_paramsRK13llama_cparamsE3$_1NS_9allocatorIS9_EEFbiEE7__cloneEPNS0_6__baseISC_EE', symObjAddr: 0x4ED40, symBinAddr: 0xBBFC0, symSize: 0x10 }
  - { offset: 0x5913EE, size: 0x8, addend: 0x0, symName: '__ZNKSt3__110__function6__funcIZNK11llama_model13create_memoryERK19llama_memory_paramsRK13llama_cparamsE3$_1NS_9allocatorIS9_EEFbiEE7__cloneEPNS0_6__baseISC_EE', symObjAddr: 0x4ED40, symBinAddr: 0xBBFC0, symSize: 0x10 }
  - { offset: 0x59140A, size: 0x8, addend: 0x0, symName: '__ZNSt3__110__function6__funcIZNK11llama_model13create_memoryERK19llama_memory_paramsRK13llama_cparamsE3$_1NS_9allocatorIS9_EEFbiEE7destroyEv', symObjAddr: 0x4ED50, symBinAddr: 0xBBFD0, symSize: 0x4 }
  - { offset: 0x59145F, size: 0x8, addend: 0x0, symName: '__ZNSt3__110__function6__funcIZNK11llama_model13create_memoryERK19llama_memory_paramsRK13llama_cparamsE3$_1NS_9allocatorIS9_EEFbiEE18destroy_deallocateEv', symObjAddr: 0x4ED54, symBinAddr: 0xBBFD4, symSize: 0x4 }
  - { offset: 0x591494, size: 0x8, addend: 0x0, symName: '__ZNSt3__110__function6__funcIZNK11llama_model13create_memoryERK19llama_memory_paramsRK13llama_cparamsE3$_1NS_9allocatorIS9_EEFbiEE18destroy_deallocateEv', symObjAddr: 0x4ED54, symBinAddr: 0xBBFD4, symSize: 0x4 }
  - { offset: 0x5914B7, size: 0x8, addend: 0x0, symName: '__ZNSt3__110__function6__funcIZNK11llama_model13create_memoryERK19llama_memory_paramsRK13llama_cparamsE3$_1NS_9allocatorIS9_EEFbiEE18destroy_deallocateEv', symObjAddr: 0x4ED54, symBinAddr: 0xBBFD4, symSize: 0x4 }
  - { offset: 0x5914EA, size: 0x8, addend: 0x0, symName: '__ZNSt3__110__function6__funcIZNK11llama_model13create_memoryERK19llama_memory_paramsRK13llama_cparamsE3$_1NS_9allocatorIS9_EEFbiEE18destroy_deallocateEv', symObjAddr: 0x4ED54, symBinAddr: 0xBBFD4, symSize: 0x4 }
  - { offset: 0x591512, size: 0x8, addend: 0x0, symName: '__ZNSt3__110__function6__funcIZNK11llama_model13create_memoryERK19llama_memory_paramsRK13llama_cparamsE3$_1NS_9allocatorIS9_EEFbiEEclEOi', symObjAddr: 0x4ED58, symBinAddr: 0xBBFD8, symSize: 0x8 }
  - { offset: 0x591541, size: 0x8, addend: 0x0, symName: '__ZNKSt3__110__function6__funcIZNK11llama_model13create_memoryERK19llama_memory_paramsRK13llama_cparamsE3$_1NS_9allocatorIS9_EEFbiEE6targetERKSt9type_info', symObjAddr: 0x4ED60, symBinAddr: 0xBBFE0, symSize: 0x64 }
  - { offset: 0x5915F5, size: 0x8, addend: 0x0, symName: '__ZNKSt3__110__function6__funcIZNK11llama_model13create_memoryERK19llama_memory_paramsRK13llama_cparamsE3$_1NS_9allocatorIS9_EEFbiEE11target_typeEv', symObjAddr: 0x4EDC4, symBinAddr: 0xBC044, symSize: 0xC }
  - { offset: 0x591618, size: 0x8, addend: 0x0, symName: '__ZNSt3__110__function6__funcIZNK11llama_model13create_memoryERK19llama_memory_paramsRK13llama_cparamsE3$_2NS_9allocatorIS9_EEFbiEED1Ev', symObjAddr: 0x4EDD0, symBinAddr: 0xBC050, symSize: 0x4 }
  - { offset: 0x591644, size: 0x8, addend: 0x0, symName: '__ZNSt3__110__function6__funcIZNK11llama_model13create_memoryERK19llama_memory_paramsRK13llama_cparamsE3$_2NS_9allocatorIS9_EEFbiEED0Ev', symObjAddr: 0x4EDD4, symBinAddr: 0xBC054, symSize: 0x4 }
  - { offset: 0x5916FB, size: 0x8, addend: 0x0, symName: '__ZNKSt3__110__function6__funcIZNK11llama_model13create_memoryERK19llama_memory_paramsRK13llama_cparamsE3$_2NS_9allocatorIS9_EEFbiEE7__cloneEv', symObjAddr: 0x4EDD8, symBinAddr: 0xBC058, symSize: 0x34 }
  - { offset: 0x59184D, size: 0x8, addend: 0x0, symName: '__ZNKSt3__110__function6__funcIZNK11llama_model13create_memoryERK19llama_memory_paramsRK13llama_cparamsE3$_2NS_9allocatorIS9_EEFbiEE7__cloneEPNS0_6__baseISC_EE', symObjAddr: 0x4EE0C, symBinAddr: 0xBC08C, symSize: 0x14 }
  - { offset: 0x5918BA, size: 0x8, addend: 0x0, symName: '__ZNSt3__110__function6__funcIZNK11llama_model13create_memoryERK19llama_memory_paramsRK13llama_cparamsE3$_2NS_9allocatorIS9_EEFbiEE7destroyEv', symObjAddr: 0x4EE20, symBinAddr: 0xBC0A0, symSize: 0x4 }
  - { offset: 0x59190F, size: 0x8, addend: 0x0, symName: '__ZNSt3__110__function6__funcIZNK11llama_model13create_memoryERK19llama_memory_paramsRK13llama_cparamsE3$_2NS_9allocatorIS9_EEFbiEE18destroy_deallocateEv', symObjAddr: 0x4EE24, symBinAddr: 0xBC0A4, symSize: 0x4 }
  - { offset: 0x591944, size: 0x8, addend: 0x0, symName: '__ZNSt3__110__function6__funcIZNK11llama_model13create_memoryERK19llama_memory_paramsRK13llama_cparamsE3$_2NS_9allocatorIS9_EEFbiEE18destroy_deallocateEv', symObjAddr: 0x4EE24, symBinAddr: 0xBC0A4, symSize: 0x4 }
  - { offset: 0x591967, size: 0x8, addend: 0x0, symName: '__ZNSt3__110__function6__funcIZNK11llama_model13create_memoryERK19llama_memory_paramsRK13llama_cparamsE3$_2NS_9allocatorIS9_EEFbiEE18destroy_deallocateEv', symObjAddr: 0x4EE24, symBinAddr: 0xBC0A4, symSize: 0x4 }
  - { offset: 0x59199A, size: 0x8, addend: 0x0, symName: '__ZNSt3__110__function6__funcIZNK11llama_model13create_memoryERK19llama_memory_paramsRK13llama_cparamsE3$_2NS_9allocatorIS9_EEFbiEE18destroy_deallocateEv', symObjAddr: 0x4EE24, symBinAddr: 0xBC0A4, symSize: 0x4 }
  - { offset: 0x591A3D, size: 0x8, addend: 0x0, symName: '__ZNSt3__110__function6__funcIZNK11llama_model13create_memoryERK19llama_memory_paramsRK13llama_cparamsE3$_2NS_9allocatorIS9_EEFbiEEclEOi', symObjAddr: 0x4EE28, symBinAddr: 0xBC0A8, symSize: 0x54 }
  - { offset: 0x591AC0, size: 0x8, addend: 0x0, symName: '__ZNKSt3__110__function6__funcIZNK11llama_model13create_memoryERK19llama_memory_paramsRK13llama_cparamsE3$_2NS_9allocatorIS9_EEFbiEE6targetERKSt9type_info', symObjAddr: 0x4EE7C, symBinAddr: 0xBC0FC, symSize: 0x64 }
  - { offset: 0x591B74, size: 0x8, addend: 0x0, symName: '__ZNKSt3__110__function6__funcIZNK11llama_model13create_memoryERK19llama_memory_paramsRK13llama_cparamsE3$_2NS_9allocatorIS9_EEFbiEE11target_typeEv', symObjAddr: 0x4EEE0, symBinAddr: 0xBC160, symSize: 0xC }
  - { offset: 0x591B97, size: 0x8, addend: 0x0, symName: '__ZNSt3__110__function6__funcIZNK11llama_model13create_memoryERK19llama_memory_paramsRK13llama_cparamsE3$_3NS_9allocatorIS9_EEFbiEED1Ev', symObjAddr: 0x4EEEC, symBinAddr: 0xBC16C, symSize: 0x4 }
  - { offset: 0x591BC3, size: 0x8, addend: 0x0, symName: '__ZNSt3__110__function6__funcIZNK11llama_model13create_memoryERK19llama_memory_paramsRK13llama_cparamsE3$_3NS_9allocatorIS9_EEFbiEED0Ev', symObjAddr: 0x4EEF0, symBinAddr: 0xBC170, symSize: 0x4 }
  - { offset: 0x591C7A, size: 0x8, addend: 0x0, symName: '__ZNKSt3__110__function6__funcIZNK11llama_model13create_memoryERK19llama_memory_paramsRK13llama_cparamsE3$_3NS_9allocatorIS9_EEFbiEE7__cloneEv', symObjAddr: 0x4EEF4, symBinAddr: 0xBC174, symSize: 0x34 }
  - { offset: 0x591DCC, size: 0x8, addend: 0x0, symName: '__ZNKSt3__110__function6__funcIZNK11llama_model13create_memoryERK19llama_memory_paramsRK13llama_cparamsE3$_3NS_9allocatorIS9_EEFbiEE7__cloneEPNS0_6__baseISC_EE', symObjAddr: 0x4EF28, symBinAddr: 0xBC1A8, symSize: 0x14 }
  - { offset: 0x591E39, size: 0x8, addend: 0x0, symName: '__ZNSt3__110__function6__funcIZNK11llama_model13create_memoryERK19llama_memory_paramsRK13llama_cparamsE3$_3NS_9allocatorIS9_EEFbiEE7destroyEv', symObjAddr: 0x4EF3C, symBinAddr: 0xBC1BC, symSize: 0x4 }
  - { offset: 0x591E8E, size: 0x8, addend: 0x0, symName: '__ZNSt3__110__function6__funcIZNK11llama_model13create_memoryERK19llama_memory_paramsRK13llama_cparamsE3$_3NS_9allocatorIS9_EEFbiEE18destroy_deallocateEv', symObjAddr: 0x4EF40, symBinAddr: 0xBC1C0, symSize: 0x4 }
  - { offset: 0x591EC3, size: 0x8, addend: 0x0, symName: '__ZNSt3__110__function6__funcIZNK11llama_model13create_memoryERK19llama_memory_paramsRK13llama_cparamsE3$_3NS_9allocatorIS9_EEFbiEE18destroy_deallocateEv', symObjAddr: 0x4EF40, symBinAddr: 0xBC1C0, symSize: 0x4 }
  - { offset: 0x591EE6, size: 0x8, addend: 0x0, symName: '__ZNSt3__110__function6__funcIZNK11llama_model13create_memoryERK19llama_memory_paramsRK13llama_cparamsE3$_3NS_9allocatorIS9_EEFbiEE18destroy_deallocateEv', symObjAddr: 0x4EF40, symBinAddr: 0xBC1C0, symSize: 0x4 }
  - { offset: 0x591F19, size: 0x8, addend: 0x0, symName: '__ZNSt3__110__function6__funcIZNK11llama_model13create_memoryERK19llama_memory_paramsRK13llama_cparamsE3$_3NS_9allocatorIS9_EEFbiEE18destroy_deallocateEv', symObjAddr: 0x4EF40, symBinAddr: 0xBC1C0, symSize: 0x4 }
  - { offset: 0x591FBC, size: 0x8, addend: 0x0, symName: '__ZNSt3__110__function6__funcIZNK11llama_model13create_memoryERK19llama_memory_paramsRK13llama_cparamsE3$_3NS_9allocatorIS9_EEFbiEEclEOi', symObjAddr: 0x4EF44, symBinAddr: 0xBC1C4, symSize: 0x44 }
  - { offset: 0x592065, size: 0x8, addend: 0x0, symName: '__ZNKSt3__110__function6__funcIZNK11llama_model13create_memoryERK19llama_memory_paramsRK13llama_cparamsE3$_3NS_9allocatorIS9_EEFbiEE6targetERKSt9type_info', symObjAddr: 0x4EF88, symBinAddr: 0xBC208, symSize: 0x64 }
  - { offset: 0x592119, size: 0x8, addend: 0x0, symName: '__ZNKSt3__110__function6__funcIZNK11llama_model13create_memoryERK19llama_memory_paramsRK13llama_cparamsE3$_3NS_9allocatorIS9_EEFbiEE11target_typeEv', symObjAddr: 0x4EFEC, symBinAddr: 0xBC26C, symSize: 0xC }
  - { offset: 0x59213C, size: 0x8, addend: 0x0, symName: '__ZNSt3__110__function6__funcIZNK11llama_model13create_memoryERK19llama_memory_paramsRK13llama_cparamsE3$_4NS_9allocatorIS9_EEFiiEED1Ev', symObjAddr: 0x4EFF8, symBinAddr: 0xBC278, symSize: 0x4 }
  - { offset: 0x592168, size: 0x8, addend: 0x0, symName: '__ZNSt3__110__function6__funcIZNK11llama_model13create_memoryERK19llama_memory_paramsRK13llama_cparamsE3$_4NS_9allocatorIS9_EEFiiEED0Ev', symObjAddr: 0x4EFFC, symBinAddr: 0xBC27C, symSize: 0x4 }
  - { offset: 0x59221F, size: 0x8, addend: 0x0, symName: '__ZNKSt3__110__function6__funcIZNK11llama_model13create_memoryERK19llama_memory_paramsRK13llama_cparamsE3$_4NS_9allocatorIS9_EEFiiEE7__cloneEv', symObjAddr: 0x4F000, symBinAddr: 0xBC280, symSize: 0x34 }
  - { offset: 0x592371, size: 0x8, addend: 0x0, symName: '__ZNKSt3__110__function6__funcIZNK11llama_model13create_memoryERK19llama_memory_paramsRK13llama_cparamsE3$_4NS_9allocatorIS9_EEFiiEE7__cloneEPNS0_6__baseISC_EE', symObjAddr: 0x4F034, symBinAddr: 0xBC2B4, symSize: 0x14 }
  - { offset: 0x5923DE, size: 0x8, addend: 0x0, symName: '__ZNSt3__110__function6__funcIZNK11llama_model13create_memoryERK19llama_memory_paramsRK13llama_cparamsE3$_4NS_9allocatorIS9_EEFiiEE7destroyEv', symObjAddr: 0x4F048, symBinAddr: 0xBC2C8, symSize: 0x4 }
  - { offset: 0x592433, size: 0x8, addend: 0x0, symName: '__ZNSt3__110__function6__funcIZNK11llama_model13create_memoryERK19llama_memory_paramsRK13llama_cparamsE3$_4NS_9allocatorIS9_EEFiiEE18destroy_deallocateEv', symObjAddr: 0x4F04C, symBinAddr: 0xBC2CC, symSize: 0x4 }
  - { offset: 0x592468, size: 0x8, addend: 0x0, symName: '__ZNSt3__110__function6__funcIZNK11llama_model13create_memoryERK19llama_memory_paramsRK13llama_cparamsE3$_4NS_9allocatorIS9_EEFiiEE18destroy_deallocateEv', symObjAddr: 0x4F04C, symBinAddr: 0xBC2CC, symSize: 0x4 }
  - { offset: 0x59248B, size: 0x8, addend: 0x0, symName: '__ZNSt3__110__function6__funcIZNK11llama_model13create_memoryERK19llama_memory_paramsRK13llama_cparamsE3$_4NS_9allocatorIS9_EEFiiEE18destroy_deallocateEv', symObjAddr: 0x4F04C, symBinAddr: 0xBC2CC, symSize: 0x4 }
  - { offset: 0x5924BE, size: 0x8, addend: 0x0, symName: '__ZNSt3__110__function6__funcIZNK11llama_model13create_memoryERK19llama_memory_paramsRK13llama_cparamsE3$_4NS_9allocatorIS9_EEFiiEE18destroy_deallocateEv', symObjAddr: 0x4F04C, symBinAddr: 0xBC2CC, symSize: 0x4 }
  - { offset: 0x592561, size: 0x8, addend: 0x0, symName: '__ZNSt3__110__function6__funcIZNK11llama_model13create_memoryERK19llama_memory_paramsRK13llama_cparamsE3$_4NS_9allocatorIS9_EEFiiEEclEOi', symObjAddr: 0x4F050, symBinAddr: 0xBC2D0, symSize: 0x54 }
  - { offset: 0x5925E4, size: 0x8, addend: 0x0, symName: '__ZNKSt3__110__function6__funcIZNK11llama_model13create_memoryERK19llama_memory_paramsRK13llama_cparamsE3$_4NS_9allocatorIS9_EEFiiEE6targetERKSt9type_info', symObjAddr: 0x4F0A4, symBinAddr: 0xBC324, symSize: 0x64 }
  - { offset: 0x592698, size: 0x8, addend: 0x0, symName: '__ZNKSt3__110__function6__funcIZNK11llama_model13create_memoryERK19llama_memory_paramsRK13llama_cparamsE3$_4NS_9allocatorIS9_EEFiiEE11target_typeEv', symObjAddr: 0x4F108, symBinAddr: 0xBC388, symSize: 0xC }
  - { offset: 0x59274A, size: 0x8, addend: 0x0, symName: __GLOBAL__sub_I_llama_model.cpp, symObjAddr: 0x594A0, symBinAddr: 0xBC534, symSize: 0x98 }
  - { offset: 0x594995, size: 0x8, addend: 0x0, symName: __ZL25llama_model_quantize_implRKNSt3__112basic_stringIcNS_11char_traitsIcEENS_9allocatorIcEEEES7_PK27llama_model_quantize_params, symObjAddr: 0x254, symBinAddr: 0xBC820, symSize: 0x5EE0 }
  - { offset: 0x5CC5B3, size: 0x8, addend: 0x0, symName: '__ZNSt3__111__introsortINS_17_ClassicAlgPolicyERZL25llama_model_quantize_implRKNS_12basic_stringIcNS_11char_traitsIcEENS_9allocatorIcEEEES9_PK27llama_model_quantize_paramsE3$_0PPKN18llama_model_loader19llama_tensor_weightELb0EEEvT1_SK_T0_NS_15iterator_traitsISK_E15difference_typeEb', symObjAddr: 0x12268, symBinAddr: 0xC2F00, symSize: 0xEA8 }
  - { offset: 0x5CE326, size: 0x8, addend: 0x0, symName: '__ZNSt3__127__insertion_sort_incompleteB8ne200100INS_17_ClassicAlgPolicyERZL25llama_model_quantize_implRKNS_12basic_stringIcNS_11char_traitsIcEENS_9allocatorIcEEEES9_PK27llama_model_quantize_paramsE3$_0PPKN18llama_model_loader19llama_tensor_weightEEEbT1_SK_T0_', symObjAddr: 0x13284, symBinAddr: 0xC3F1C, symSize: 0x41C }
  - { offset: 0x5EA68B, size: 0x8, addend: 0x0, symName: '__ZNSt3__17__sort4B8ne200100INS_17_ClassicAlgPolicyERZL25llama_model_quantize_implRKNS_12basic_stringIcNS_11char_traitsIcEENS_9allocatorIcEEEES9_PK27llama_model_quantize_paramsE3$_0PPKN18llama_model_loader19llama_tensor_weightELi0EEEvT1_SK_SK_SK_T0_', symObjAddr: 0x13110, symBinAddr: 0xC3DA8, symSize: 0x174 }
  - { offset: 0x5EB15E, size: 0x8, addend: 0x0, symName: '__ZNSt3__114__thread_proxyB8ne200100INS_5tupleIJNS_10unique_ptrINS_15__thread_structENS_14default_deleteIS3_EEEEZL28llama_tensor_dequantize_implP11ggml_tensorRNS_6vectorI7no_initIfENS_9allocatorISB_EEEERNS9_INS_6threadENSC_ISG_EEEEmiE3$_09ggml_typePhPfmEEEEEPvSP_', symObjAddr: 0x1786C, symBinAddr: 0xC4868, symSize: 0xB4 }
  - { offset: 0x5EB549, size: 0x8, addend: 0x0, symName: '__ZNSt3__114__thread_proxyB8ne200100INS_5tupleIJNS_10unique_ptrINS_15__thread_structENS_14default_deleteIS3_EEEEZL26llama_tensor_quantize_impl9ggml_typePKfPvxxxS9_RNS_6vectorINS_6threadENS_9allocatorISC_EEEEiE3$_0EEEEESA_SA_', symObjAddr: 0x17ACC, symBinAddr: 0xC4A8C, symSize: 0x78 }
  - { offset: 0x5F03B1, size: 0x8, addend: 0x0, symName: _llama_model_quantize_default_params, symObjAddr: 0x0, symBinAddr: 0xBC5CC, symSize: 0x30 }
  - { offset: 0x5F0659, size: 0x8, addend: 0x0, symName: _llama_model_quantize, symObjAddr: 0x30, symBinAddr: 0xBC5FC, symSize: 0x224 }
  - { offset: 0x5F8F90, size: 0x8, addend: 0x0, symName: __ZNSt3__16vectorIiNS_9allocatorIiEEE18__assign_with_sizeB8ne200100IPiS5_EEvT_T0_l, symObjAddr: 0x69D4, symBinAddr: 0xC2DA4, symSize: 0x148 }
  - { offset: 0x5FA37E, size: 0x8, addend: 0x0, symName: '__ZZL25llama_model_quantize_implRKNSt3__112basic_stringIcNS_11char_traitsIcEENS_9allocatorIcEEEES7_PK27llama_model_quantize_paramsENK3$_2clEi', symObjAddr: 0x6230, symBinAddr: 0xC2700, symSize: 0x394 }
  - { offset: 0x5FAFF3, size: 0x8, addend: 0x0, symName: '__ZZL25llama_model_quantize_implRKNSt3__112basic_stringIcNS_11char_traitsIcEENS_9allocatorIcEEEES7_PK27llama_model_quantize_paramsENK3$_1clEv', symObjAddr: 0x65C4, symBinAddr: 0xC2A94, symSize: 0x1F0 }
  - { offset: 0x5FB739, size: 0x8, addend: 0x0, symName: __ZNKSt3__112__hash_tableINS_17__hash_value_typeINS_12basic_stringIcNS_11char_traitsIcEENS_9allocatorIcEEEENS_6vectorIfNS5_IfEEEEEENS_22__unordered_map_hasherIS7_SB_NS_4hashIS7_EENS_8equal_toIS7_EELb1EEENS_21__unordered_map_equalIS7_SB_SG_SE_Lb1EEENS5_ISB_EEE4findIS7_EENS_21__hash_const_iteratorIPNS_11__hash_nodeISB_PvEEEERKT_, symObjAddr: 0x17258, symBinAddr: 0xC46A0, symSize: 0x1B4 }
  - { offset: 0x5FBD3F, size: 0x8, addend: 0x0, symName: '__ZZL21llama_tensor_get_typeR19quantize_state_impl9ggml_typePK11ggml_tensor11llama_ftypeENK3$_1clEiiPKc', symObjAddr: 0x170F4, symBinAddr: 0xC453C, symSize: 0x164 }
  - { offset: 0x5FBF35, size: 0x8, addend: 0x0, symName: __ZNSt3__16__treeINS_12__value_typeIiNS_12basic_stringIcNS_11char_traitsIcEENS_9allocatorIcEEEEEENS_19__map_value_compareIiS8_NS_4lessIiEELb1EEENS5_IS8_EEE7destroyEPNS_11__tree_nodeIS8_PvEE, symObjAddr: 0x17B8C, symBinAddr: 0xC4B4C, symSize: 0x60 }
  - { offset: 0x5FC177, size: 0x8, addend: 0x0, symName: __ZN18llama_model_loaderD2Ev, symObjAddr: 0x17BEC, symBinAddr: 0xC4BAC, symSize: 0x1AC }
  - { offset: 0x5FCE9F, size: 0x8, addend: 0x0, symName: __ZNSt3__16vectorINS_6threadENS_9allocatorIS1_EEE20__throw_length_errorB8ne200100Ev, symObjAddr: 0x136E4, symBinAddr: 0xC4338, symSize: 0x14 }
  - { offset: 0x5FCEB7, size: 0x8, addend: 0x0, symName: __ZNSt3__114__split_bufferINS_6threadERNS_9allocatorIS1_EEED1Ev, symObjAddr: 0x136F8, symBinAddr: 0xC434C, symSize: 0x50 }
  - { offset: 0x5FCEF2, size: 0x8, addend: 0x0, symName: __ZNSt3__16vectorIPKN18llama_model_loader19llama_tensor_weightENS_9allocatorIS4_EEE20__throw_length_errorB8ne200100Ev, symObjAddr: 0x6BCC, symBinAddr: 0xC2EEC, symSize: 0x14 }
  - { offset: 0x5FCF2A, size: 0x8, addend: 0x0, symName: __ZNSt3__16vectorI7no_initIfENS_9allocatorIS2_EEE20__throw_length_errorB8ne200100Ev, symObjAddr: 0x17858, symBinAddr: 0xC4854, symSize: 0x14 }
  - { offset: 0x5FCF42, size: 0x8, addend: 0x0, symName: '__ZNSt3__114__thread_proxyB8ne200100INS_5tupleIJNS_10unique_ptrINS_15__thread_structENS_14default_deleteIS3_EEEEZL28llama_tensor_dequantize_implP11ggml_tensorRNS_6vectorI7no_initIfENS_9allocatorISB_EEEERNS9_INS_6threadENSC_ISG_EEEEmiE3$_09ggml_typePhPfmEEEEEPvSP_', symObjAddr: 0x1786C, symBinAddr: 0xC4868, symSize: 0xB4 }
  - { offset: 0x5FCF4D, size: 0x8, addend: 0x0, symName: __ZNSt3__128__exception_guard_exceptionsINS_6vectorINS_10unique_ptrI12gguf_context20gguf_context_deleterEENS_9allocatorIS5_EEE16__destroy_vectorEED1B8ne200100Ev, symObjAddr: 0x13748, symBinAddr: 0xC439C, symSize: 0x80 }
  - { offset: 0x5FD14B, size: 0x8, addend: 0x0, symName: '__ZNSt3__110unique_ptrINS_5tupleIJNS0_INS_15__thread_structENS_14default_deleteIS2_EEEEZL28llama_tensor_dequantize_implP11ggml_tensorRNS_6vectorI7no_initIfENS_9allocatorISA_EEEERNS8_INS_6threadENSB_ISF_EEEEmiE3$_09ggml_typePhPfmEEENS3_ISN_EEED1B8ne200100Ev', symObjAddr: 0x17920, symBinAddr: 0xC491C, symSize: 0x48 }
  - { offset: 0x5FD34A, size: 0x8, addend: 0x0, symName: __ZNSt3__114__split_bufferINS_6threadERNS_9allocatorIS1_EEED1Ev, symObjAddr: 0x136F8, symBinAddr: 0xC434C, symSize: 0x50 }
  - { offset: 0x5FD49F, size: 0x8, addend: 0x0, symName: __ZNSt3__16vectorINS_10unique_ptrI12gguf_context20gguf_context_deleterEENS_9allocatorIS4_EEED1B8ne200100Ev, symObjAddr: 0x6868, symBinAddr: 0xC2CDC, symSize: 0x70 }
  - { offset: 0x5FD68D, size: 0x8, addend: 0x0, symName: __ZNSt3__114basic_ofstreamIcNS_11char_traitsIcEEED1Ev, symObjAddr: 0x6810, symBinAddr: 0xC2C84, symSize: 0x58 }
  - { offset: 0x5FD77E, size: 0x8, addend: 0x0, symName: '__ZNSt3__110unique_ptrINS_5tupleIJNS0_INS_15__thread_structENS_14default_deleteIS2_EEEEZL26llama_tensor_quantize_impl9ggml_typePKfPvxxxS8_RNS_6vectorINS_6threadENS_9allocatorISB_EEEEiE3$_0EEENS3_ISH_EEED1B8ne200100Ev', symObjAddr: 0x17B44, symBinAddr: 0xC4B04, symSize: 0x48 }
  - { offset: 0x5FD926, size: 0x8, addend: 0x0, symName: __ZNSt3__16vectorINS_6threadENS_9allocatorIS1_EEED1B8ne200100Ev, symObjAddr: 0x68D8, symBinAddr: 0xC2D4C, symSize: 0x58 }
  - { offset: 0x5FDFAD, size: 0x8, addend: 0x0, symName: __ZNSt3__114basic_ofstreamIcNS_11char_traitsIcEEEC1ERKNS_12basic_stringIcS2_NS_9allocatorIcEEEEj, symObjAddr: 0x137C8, symBinAddr: 0xC441C, symSize: 0x120 }
  - { offset: 0x61A556, size: 0x8, addend: 0x0, symName: '__ZZL26llama_tensor_quantize_impl9ggml_typePKfPvxxxS1_RNSt3__16vectorINS3_6threadENS3_9allocatorIS5_EEEEiENK3$_0clEv', symObjAddr: 0x179A4, symBinAddr: 0xC4964, symSize: 0x128 }
  - { offset: 0x61D2AA, size: 0x8, addend: 0x0, symName: __MergedGlobals, symObjAddr: 0x1D398, symBinAddr: 0x2D83F0, symSize: 0x0 }
  - { offset: 0x61D4B9, size: 0x8, addend: 0x0, symName: __ZL22llama_sampler_greedy_i, symObjAddr: 0x1D258, symBinAddr: 0x2D82B0, symSize: 0x0 }
  - { offset: 0x61D4C7, size: 0x8, addend: 0x0, symName: __ZL12get_rng_seedj, symObjAddr: 0xA4C, symBinAddr: 0xC57A4, symSize: 0x160 }
  - { offset: 0x61D4F3, size: 0x8, addend: 0x0, symName: __MergedGlobals.177, symObjAddr: 0x1FD910, symBinAddr: 0x364158, symSize: 0x0 }
  - { offset: 0x61D88E, size: 0x8, addend: 0x0, symName: __MergedGlobals, symObjAddr: 0x1D398, symBinAddr: 0x2D83F0, symSize: 0x0 }
  - { offset: 0x61D8AB, size: 0x8, addend: 0x0, symName: __MergedGlobals, symObjAddr: 0x1D398, symBinAddr: 0x2D83F0, symSize: 0x0 }
  - { offset: 0x61D8C9, size: 0x8, addend: 0x0, symName: __MergedGlobals, symObjAddr: 0x1D398, symBinAddr: 0x2D83F0, symSize: 0x0 }
  - { offset: 0x61D8DA, size: 0x8, addend: 0x0, symName: __ZL43llama_token_data_array_partial_sort_inplaceP22llama_token_data_arrayi, symObjAddr: 0x4828, symBinAddr: 0xC94F4, symSize: 0x4BC }
  - { offset: 0x61DFD6, size: 0x8, addend: 0x0, symName: __ZL35llama_token_data_array_partial_sortRK22llama_token_data_arrayiRNSt3__16vectorI16llama_token_dataNS2_9allocatorIS4_EEEE, symObjAddr: 0x4CE4, symBinAddr: 0xC99B0, symSize: 0x5B8 }
  - { offset: 0x63394A, size: 0x8, addend: 0x0, symName: '__ZNSt3__111__introsortINS_17_ClassicAlgPolicyERZL35llama_token_data_array_partial_sortRK22llama_token_data_arrayiRNS_6vectorI16llama_token_dataNS_9allocatorIS6_EEEEE3$_0PS6_Lb0EEEvT1_SE_T0_NS_15iterator_traitsISE_E15difference_typeEb', symObjAddr: 0x5360, symBinAddr: 0xC9F7C, symSize: 0xDA4 }
  - { offset: 0x634DBC, size: 0x8, addend: 0x0, symName: '__ZNSt3__127__insertion_sort_incompleteB8ne200100INS_17_ClassicAlgPolicyERZL35llama_token_data_array_partial_sortRK22llama_token_data_arrayiRNS_6vectorI16llama_token_dataNS_9allocatorIS6_EEEEE3$_0PS6_EEbT1_SE_T0_', symObjAddr: 0x6344, symBinAddr: 0xCAF60, symSize: 0x4B4 }
  - { offset: 0x636F1F, size: 0x8, addend: 0x0, symName: '__ZNSt3__111__introsortINS_17_ClassicAlgPolicyERZL27llama_sampler_typical_applyP13llama_samplerP22llama_token_data_arrayE3$_0PmLb0EEEvT1_S9_T0_NS_15iterator_traitsIS9_E15difference_typeEb', symObjAddr: 0x8218, symBinAddr: 0xCCE0C, symSize: 0xAD8 }
  - { offset: 0x638B37, size: 0x8, addend: 0x0, symName: '__ZNSt3__127__insertion_sort_incompleteB8ne200100INS_17_ClassicAlgPolicyERZL27llama_sampler_typical_applyP13llama_samplerP22llama_token_data_arrayE3$_0PmEEbT1_S9_T0_', symObjAddr: 0x8E8C, symBinAddr: 0xCDA80, symSize: 0x358 }
  - { offset: 0x643E3E, size: 0x8, addend: 0x0, symName: __ZNSt3__113regex_replaceB8ne200100INS_20back_insert_iteratorINS_12basic_stringIcNS_11char_traitsIcEENS_9allocatorIcEEEEEEPKcNS_12regex_traitsIcEEcEET_SD_T0_SE_RKNS_11basic_regexIT2_T1_EEPKSG_NS_15regex_constants15match_flag_typeE, symObjAddr: 0x14444, symBinAddr: 0xD0258, symSize: 0x29C }
  - { offset: 0x6468BD, size: 0x8, addend: 0x0, symName: '__ZNSt3__119__partial_sort_implB8ne200100INS_17_ClassicAlgPolicyERZL35llama_token_data_array_partial_sortRK22llama_token_data_arrayiRNS_6vectorI16llama_token_dataNS_9allocatorIS6_EEEEE3$_0PS6_SD_EET1_SE_SE_T2_OT0_', symObjAddr: 0x67F8, symBinAddr: 0xCB414, symSize: 0x40C }
  - { offset: 0x646FCC, size: 0x8, addend: 0x0, symName: '__ZNSt3__17__sort5B8ne200100INS_17_ClassicAlgPolicyERZL35llama_token_data_array_partial_sortRK22llama_token_data_arrayiRNS_6vectorI16llama_token_dataNS_9allocatorIS6_EEEEE3$_0PS6_Li0EEEvT1_SE_SE_SE_SE_T0_', symObjAddr: 0x6104, symBinAddr: 0xCAD20, symSize: 0x240 }
  - { offset: 0x648704, size: 0x8, addend: 0x0, symName: '__ZNSt3__17__sort5B8ne200100INS_17_ClassicAlgPolicyERZL27llama_sampler_typical_applyP13llama_samplerP22llama_token_data_arrayE3$_0PmLi0EEEvT1_S9_S9_S9_S9_T0_', symObjAddr: 0x8CF0, symBinAddr: 0xCD8E4, symSize: 0x19C }
  - { offset: 0x648772, size: 0x8, addend: 0x0, symName: '__ZNSt3__17__sort5B8ne200100INS_17_ClassicAlgPolicyERZL27llama_sampler_typical_applyP13llama_samplerP22llama_token_data_arrayE3$_0PmLi0EEEvT1_S9_S9_S9_S9_T0_', symObjAddr: 0x8CF0, symBinAddr: 0xCD8E4, symSize: 0x19C }
  - { offset: 0x64F0D9, size: 0x8, addend: 0x0, symName: __MergedGlobals, symObjAddr: 0x1D398, symBinAddr: 0x2D83F0, symSize: 0x0 }
  - { offset: 0x64F0F7, size: 0x8, addend: 0x0, symName: __MergedGlobals, symObjAddr: 0x1D398, symBinAddr: 0x2D83F0, symSize: 0x0 }
  - { offset: 0x64F115, size: 0x8, addend: 0x0, symName: __MergedGlobals, symObjAddr: 0x1D398, symBinAddr: 0x2D83F0, symSize: 0x0 }
  - { offset: 0x64F133, size: 0x8, addend: 0x0, symName: __MergedGlobals, symObjAddr: 0x1D398, symBinAddr: 0x2D83F0, symSize: 0x0 }
  - { offset: 0x64F151, size: 0x8, addend: 0x0, symName: __MergedGlobals, symObjAddr: 0x1D398, symBinAddr: 0x2D83F0, symSize: 0x0 }
  - { offset: 0x64F16F, size: 0x8, addend: 0x0, symName: __MergedGlobals, symObjAddr: 0x1D398, symBinAddr: 0x2D83F0, symSize: 0x0 }
  - { offset: 0x64F18D, size: 0x8, addend: 0x0, symName: __MergedGlobals, symObjAddr: 0x1D398, symBinAddr: 0x2D83F0, symSize: 0x0 }
  - { offset: 0x64F1AB, size: 0x8, addend: 0x0, symName: __MergedGlobals, symObjAddr: 0x1D398, symBinAddr: 0x2D83F0, symSize: 0x0 }
  - { offset: 0x64F1BC, size: 0x8, addend: 0x0, symName: __ZL31llama_sampler_init_grammar_implPK11llama_vocabPKcS3_bPS3_mPKimS4_m, symObjAddr: 0x123C, symBinAddr: 0xC5F94, symSize: 0x600 }
  - { offset: 0x64F1DD, size: 0x8, addend: 0x0, symName: __MergedGlobals.177, symObjAddr: 0x1FD910, symBinAddr: 0x364158, symSize: 0x0 }
  - { offset: 0x650B5E, size: 0x8, addend: 0x0, symName: __ZL23llama_sampler_grammar_i, symObjAddr: 0x1D348, symBinAddr: 0x2D83A0, symSize: 0x0 }
  - { offset: 0x650B79, size: 0x8, addend: 0x0, symName: __MergedGlobals, symObjAddr: 0x1D398, symBinAddr: 0x2D83F0, symSize: 0x0 }
  - { offset: 0x650B9C, size: 0x8, addend: 0x0, symName: __MergedGlobals, symObjAddr: 0x1D398, symBinAddr: 0x2D83F0, symSize: 0x0 }
  - { offset: 0x650BBA, size: 0x8, addend: 0x0, symName: __MergedGlobals, symObjAddr: 0x1D398, symBinAddr: 0x2D83F0, symSize: 0x0 }
  - { offset: 0x650BD8, size: 0x8, addend: 0x0, symName: __ZL26llama_sampler_adaptive_p_i, symObjAddr: 0x1D2A8, symBinAddr: 0x2D8300, symSize: 0x0 }
  - { offset: 0x650C2E, size: 0x8, addend: 0x0, symName: __MergedGlobals, symObjAddr: 0x1D398, symBinAddr: 0x2D83F0, symSize: 0x0 }
  - { offset: 0x650C4C, size: 0x8, addend: 0x0, symName: __ZL22llama_sampler_infill_i, symObjAddr: 0x1D2F8, symBinAddr: 0x2D8350, symSize: 0x0 }
  - { offset: 0x652159, size: 0x8, addend: 0x0, symName: __ZL17llama_sample_distP22llama_token_data_arrayRNSt3__123mersenne_twister_engineIjLm32ELm624ELm397ELm31ELj2567483615ELm11ELj4294967295ELm7ELj2636928640ELm15ELj4022730752ELm18ELj1812433253EEE, symObjAddr: 0xAAD0, symBinAddr: 0xCF6C4, symSize: 0x1D0 }
  - { offset: 0x653DB7, size: 0x8, addend: 0x0, symName: _llama_sampler_init, symObjAddr: 0x0, symBinAddr: 0xC4D58, symSize: 0x2C }
  - { offset: 0x653DDE, size: 0x8, addend: 0x0, symName: _llama_sampler_name, symObjAddr: 0x2C, symBinAddr: 0xC4D84, symSize: 0x1C }
  - { offset: 0x653E16, size: 0x8, addend: 0x0, symName: _llama_sampler_accept, symObjAddr: 0x48, symBinAddr: 0xC4DA0, symSize: 0x18 }
  - { offset: 0x653E45, size: 0x8, addend: 0x0, symName: _llama_sampler_apply, symObjAddr: 0x60, symBinAddr: 0xC4DB8, symSize: 0x48 }
  - { offset: 0x653E7A, size: 0x8, addend: 0x0, symName: _llama_sampler_reset, symObjAddr: 0xA8, symBinAddr: 0xC4E00, symSize: 0x18 }
  - { offset: 0x653EA7, size: 0x8, addend: 0x0, symName: _llama_sampler_reset, symObjAddr: 0xA8, symBinAddr: 0xC4E00, symSize: 0x18 }
  - { offset: 0x653EF6, size: 0x8, addend: 0x0, symName: _llama_sampler_clone, symObjAddr: 0xC0, symBinAddr: 0xC4E18, symSize: 0x60 }
  - { offset: 0x653F46, size: 0x8, addend: 0x0, symName: _llama_sampler_free, symObjAddr: 0x120, symBinAddr: 0xC4E78, symSize: 0x38 }
  - { offset: 0x653F59, size: 0x8, addend: 0x0, symName: _llama_sampler_free, symObjAddr: 0x120, symBinAddr: 0xC4E78, symSize: 0x38 }
  - { offset: 0x653FBD, size: 0x8, addend: 0x0, symName: _llama_sampler_chain_init, symObjAddr: 0x158, symBinAddr: 0xC4EB0, symSize: 0x58 }
  - { offset: 0x65425A, size: 0x8, addend: 0x0, symName: _llama_sampler_sample, symObjAddr: 0x1B0, symBinAddr: 0xC4F08, symSize: 0x5AC }
  - { offset: 0x654B3D, size: 0x8, addend: 0x0, symName: __ZNSt3__16vectorI16llama_token_dataNS_9allocatorIS1_EEE8__appendEm, symObjAddr: 0x1B9FC, symBinAddr: 0xD4C24, symSize: 0x180 }
  - { offset: 0x654EFC, size: 0x8, addend: 0x0, symName: __ZNSt3__16vectorIN19llama_sampler_chain4infoENS_9allocatorIS2_EEE20__throw_length_errorB8ne200100Ev, symObjAddr: 0x1BB7C, symBinAddr: 0xD4DA4, symSize: 0x14 }
  - { offset: 0x6552A0, size: 0x8, addend: 0x0, symName: _llama_sampler_chain_add, symObjAddr: 0x75C, symBinAddr: 0xC54B4, symSize: 0xF4 }
  - { offset: 0x6556A7, size: 0x8, addend: 0x0, symName: _llama_sampler_chain_get, symObjAddr: 0x850, symBinAddr: 0xC55A8, symSize: 0x50 }
  - { offset: 0x6556B2, size: 0x8, addend: 0x0, symName: __ZNSt3__16vectorIN19llama_sampler_chain4infoENS_9allocatorIS2_EEE20__throw_length_errorB8ne200100Ev, symObjAddr: 0x1BB7C, symBinAddr: 0xD4DA4, symSize: 0x14 }
  - { offset: 0x6556D5, size: 0x8, addend: 0x0, symName: _llama_sampler_chain_get, symObjAddr: 0x850, symBinAddr: 0xC55A8, symSize: 0x50 }
  - { offset: 0x655853, size: 0x8, addend: 0x0, symName: _llama_sampler_chain_remove, symObjAddr: 0x8A0, symBinAddr: 0xC55F8, symSize: 0x88 }
  - { offset: 0x655A7F, size: 0x8, addend: 0x0, symName: _llama_sampler_chain_n, symObjAddr: 0x928, symBinAddr: 0xC5680, symSize: 0x14 }
  - { offset: 0x655B06, size: 0x8, addend: 0x0, symName: _llama_sampler_init_greedy, symObjAddr: 0x93C, symBinAddr: 0xC5694, symSize: 0x58 }
  - { offset: 0x655B75, size: 0x8, addend: 0x0, symName: __ZN21llama_sampler_backendC2EPKc, symObjAddr: 0x38F8, symBinAddr: 0xC85C4, symSize: 0x138 }
  - { offset: 0x6561C5, size: 0x8, addend: 0x0, symName: _llama_sampler_init_dist, symObjAddr: 0x994, symBinAddr: 0xC56EC, symSize: 0xB8 }
  - { offset: 0x6564FB, size: 0x8, addend: 0x0, symName: __ZNSt3__113random_deviceC1B8ne200100Ev, symObjAddr: 0x3A30, symBinAddr: 0xC86FC, symSize: 0x98 }
  - { offset: 0x65685C, size: 0x8, addend: 0x0, symName: __ZN21llama_sampler_backendD1Ev, symObjAddr: 0xBAC, symBinAddr: 0xC5904, symSize: 0x58 }
  - { offset: 0x656AA0, size: 0x8, addend: 0x0, symName: _llama_sampler_init_top_k, symObjAddr: 0xC04, symBinAddr: 0xC595C, symSize: 0xA0 }
  - { offset: 0x656B17, size: 0x8, addend: 0x0, symName: _llama_sampler_init_top_p, symObjAddr: 0xCA4, symBinAddr: 0xC59FC, symSize: 0xA4 }
  - { offset: 0x656BD6, size: 0x8, addend: 0x0, symName: _llama_sampler_init_min_p, symObjAddr: 0xD48, symBinAddr: 0xC5AA0, symSize: 0x9C }
  - { offset: 0x656C56, size: 0x8, addend: 0x0, symName: _llama_sampler_init_typical, symObjAddr: 0xDE4, symBinAddr: 0xC5B3C, symSize: 0x80 }
  - { offset: 0x656CA2, size: 0x8, addend: 0x0, symName: _llama_sampler_init_temp, symObjAddr: 0xE64, symBinAddr: 0xC5BBC, symSize: 0x98 }
  - { offset: 0x656D19, size: 0x8, addend: 0x0, symName: _llama_sampler_init_temp_ext, symObjAddr: 0xEFC, symBinAddr: 0xC5C54, symSize: 0xB4 }
  - { offset: 0x656DAB, size: 0x8, addend: 0x0, symName: _llama_sampler_init_xtc, symObjAddr: 0xFB0, symBinAddr: 0xC5D08, symSize: 0xE4 }
  - { offset: 0x656EAC, size: 0x8, addend: 0x0, symName: _llama_sampler_init_mirostat, symObjAddr: 0x1094, symBinAddr: 0xC5DEC, symSize: 0xC8 }
  - { offset: 0x656FBE, size: 0x8, addend: 0x0, symName: _llama_sampler_init_mirostat_v2, symObjAddr: 0x115C, symBinAddr: 0xC5EB4, symSize: 0xAC }
  - { offset: 0x6570BE, size: 0x8, addend: 0x0, symName: _llama_sampler_init_grammar, symObjAddr: 0x1208, symBinAddr: 0xC5F60, symSize: 0x34 }
  - { offset: 0x6575B6, size: 0x8, addend: 0x0, symName: _llama_sampler_init_grammar_lazy, symObjAddr: 0x183C, symBinAddr: 0xC6594, symSize: 0x34 }
  - { offset: 0x657686, size: 0x8, addend: 0x0, symName: _llama_sampler_init_grammar_lazy_patterns, symObjAddr: 0x1870, symBinAddr: 0xC65C8, symSize: 0x34 }
  - { offset: 0x6579FD, size: 0x8, addend: 0x0, symName: _llama_sampler_init_penalties, symObjAddr: 0x18A4, symBinAddr: 0xC65FC, symSize: 0x11C }
  - { offset: 0x657D17, size: 0x8, addend: 0x0, symName: _llama_sampler_init_top_n_sigma, symObjAddr: 0x19C0, symBinAddr: 0xC6718, symSize: 0x74 }
  - { offset: 0x659284, size: 0x8, addend: 0x0, symName: _llama_sampler_init_dry, symObjAddr: 0x1A34, symBinAddr: 0xC678C, symSize: 0xB6C }
  - { offset: 0x65C46A, size: 0x8, addend: 0x0, symName: __ZNSt3__112__hash_tableINS_17__hash_value_typeIiNS_6vectorIiNS_9allocatorIiEEEEEENS_22__unordered_map_hasherIiS6_NS_4hashIiEENS_8equal_toIiEELb1EEENS_21__unordered_map_equalIiS6_SB_S9_Lb1EEENS3_IS6_EEE27__node_insert_multi_prepareEmRS6_, symObjAddr: 0x184B8, symBinAddr: 0xD1800, symSize: 0x27C }
  - { offset: 0x65C729, size: 0x8, addend: 0x0, symName: __ZNSt3__112__hash_tableINS_17__hash_value_typeIiNS_6vectorIiNS_9allocatorIiEEEEEENS_22__unordered_map_hasherIiS6_NS_4hashIiEENS_8equal_toIiEELb1EEENS_21__unordered_map_equalIiS6_SB_S9_Lb1EEENS3_IS6_EEE19__node_insert_multiEPNS_11__hash_nodeIS6_PvEE, symObjAddr: 0x1832C, symBinAddr: 0xD1674, symSize: 0x12C }
  - { offset: 0x65CADE, size: 0x8, addend: 0x0, symName: __ZNSt3__118unordered_multimapIiNS_6vectorIiNS_9allocatorIiEEEENS_4hashIiEENS_8equal_toIiEENS2_INS_4pairIKiS4_EEEEED1B8ne200100Ev, symObjAddr: 0x25E8, symBinAddr: 0xC72F8, symSize: 0x68 }
  - { offset: 0x65CEF9, size: 0x8, addend: 0x0, symName: __ZNSt3__110unique_ptrINS_11__hash_nodeINS_17__hash_value_typeIiNS_6vectorIiNS_9allocatorIiEEEEEEPvEENS_22__hash_node_destructorINS4_IS9_EEEEED1B8ne200100Ev, symObjAddr: 0x18458, symBinAddr: 0xD17A0, symSize: 0x60 }
  - { offset: 0x65D5DE, size: 0x8, addend: 0x0, symName: __Z30llama_sampler_init_dry_testingiffiiRKNSt3__16vectorINS0_IiNS_9allocatorIiEEEENS1_IS3_EEEE, symObjAddr: 0x2650, symBinAddr: 0xC7360, symSize: 0x2B4 }
  - { offset: 0x65E0BE, size: 0x8, addend: 0x0, symName: _llama_sampler_init_adaptive_p, symObjAddr: 0x2904, symBinAddr: 0xC7614, symSize: 0x108 }
  - { offset: 0x65E477, size: 0x8, addend: 0x0, symName: _llama_sampler_init_logit_bias, symObjAddr: 0x2A0C, symBinAddr: 0xC771C, symSize: 0xF4 }
  - { offset: 0x65E9D2, size: 0x8, addend: 0x0, symName: _llama_sampler_init_infill, symObjAddr: 0x2B00, symBinAddr: 0xC7810, symSize: 0x138 }
  - { offset: 0x65EEC5, size: 0x8, addend: 0x0, symName: _llama_sampler_get_seed, symObjAddr: 0x2C38, symBinAddr: 0xC7948, symSize: 0xD8 }
  - { offset: 0x65F032, size: 0x8, addend: 0x0, symName: _llama_perf_sampler, symObjAddr: 0x2D10, symBinAddr: 0xC7A20, symSize: 0x70 }
  - { offset: 0x65F0C2, size: 0x8, addend: 0x0, symName: _llama_perf_sampler_print, symObjAddr: 0x2D80, symBinAddr: 0xC7A90, symSize: 0x98 }
  - { offset: 0x65F12D, size: 0x8, addend: 0x0, symName: _llama_perf_sampler_print, symObjAddr: 0x2D80, symBinAddr: 0xC7A90, symSize: 0x98 }
  - { offset: 0x65F201, size: 0x8, addend: 0x0, symName: _llama_perf_sampler_reset, symObjAddr: 0x2E18, symBinAddr: 0xC7B28, symSize: 0x58 }
  - { offset: 0x65F214, size: 0x8, addend: 0x0, symName: _llama_perf_sampler_reset, symObjAddr: 0x2E18, symBinAddr: 0xC7B28, symSize: 0x58 }
  - { offset: 0x65F24E, size: 0x8, addend: 0x0, symName: __ZL24llama_sampler_chain_namePK13llama_sampler, symObjAddr: 0x2E70, symBinAddr: 0xC7B80, symSize: 0xC }
  - { offset: 0x65F261, size: 0x8, addend: 0x0, symName: __ZL24llama_sampler_chain_namePK13llama_sampler, symObjAddr: 0x2E70, symBinAddr: 0xC7B80, symSize: 0xC }
  - { offset: 0x65F2BC, size: 0x8, addend: 0x0, symName: __ZL26llama_sampler_chain_acceptP13llama_sampleri, symObjAddr: 0x2E7C, symBinAddr: 0xC7B8C, symSize: 0xA0 }
  - { offset: 0x65F3DC, size: 0x8, addend: 0x0, symName: __ZL25llama_sampler_chain_applyP13llama_samplerP22llama_token_data_array, symObjAddr: 0x2F1C, symBinAddr: 0xC7C2C, symSize: 0xB0 }
  - { offset: 0x65F518, size: 0x8, addend: 0x0, symName: __ZL25llama_sampler_chain_resetP13llama_sampler, symObjAddr: 0x2FCC, symBinAddr: 0xC7CDC, symSize: 0x4C }
  - { offset: 0x65F66C, size: 0x8, addend: 0x0, symName: __ZL25llama_sampler_chain_clonePK13llama_sampler, symObjAddr: 0x3018, symBinAddr: 0xC7D28, symSize: 0xE0 }
  - { offset: 0x65F815, size: 0x8, addend: 0x0, symName: __ZL24llama_sampler_chain_freeP13llama_sampler, symObjAddr: 0x30F8, symBinAddr: 0xC7E08, symSize: 0xA0 }
  - { offset: 0x65F8EF, size: 0x8, addend: 0x0, symName: __ZL24llama_sampler_chain_freeP13llama_sampler, symObjAddr: 0x30F8, symBinAddr: 0xC7E08, symSize: 0xA0 }
  - { offset: 0x65FC5B, size: 0x8, addend: 0x0, symName: __ZL32llama_sampler_chain_backend_initP13llama_samplerP24ggml_backend_buffer_type, symObjAddr: 0x3198, symBinAddr: 0xC7EA8, symSize: 0xB4 }
  - { offset: 0x65FD54, size: 0x8, addend: 0x0, symName: __ZL34llama_sampler_chain_backend_acceptP13llama_samplerP12ggml_contextP11ggml_cgraphP11ggml_tensor, symObjAddr: 0x324C, symBinAddr: 0xC7F5C, symSize: 0x84 }
  - { offset: 0x65FD67, size: 0x8, addend: 0x0, symName: __ZL34llama_sampler_chain_backend_acceptP13llama_samplerP12ggml_contextP11ggml_cgraphP11ggml_tensor, symObjAddr: 0x324C, symBinAddr: 0xC7F5C, symSize: 0x84 }
  - { offset: 0x65FE7D, size: 0x8, addend: 0x0, symName: __ZL33llama_sampler_chain_backend_applyP13llama_samplerP12ggml_contextP11ggml_cgraphP18llama_sampler_data, symObjAddr: 0x32D0, symBinAddr: 0xC7FE0, symSize: 0xB8 }
  - { offset: 0x65FF95, size: 0x8, addend: 0x0, symName: __ZL37llama_sampler_chain_backend_set_inputP13llama_sampler, symObjAddr: 0x3388, symBinAddr: 0xC8098, symSize: 0x54 }
  - { offset: 0x65FFA8, size: 0x8, addend: 0x0, symName: __ZL37llama_sampler_chain_backend_set_inputP13llama_sampler, symObjAddr: 0x3388, symBinAddr: 0xC8098, symSize: 0x54 }
  - { offset: 0x660091, size: 0x8, addend: 0x0, symName: __ZL25llama_sampler_greedy_namePK13llama_sampler, symObjAddr: 0x33EC, symBinAddr: 0xC80EC, symSize: 0xC0 }
  - { offset: 0x6602F6, size: 0x8, addend: 0x0, symName: __ZL26llama_sampler_greedy_applyP13llama_samplerP22llama_token_data_array, symObjAddr: 0x34AC, symBinAddr: 0xC81AC, symSize: 0x5C }
  - { offset: 0x660348, size: 0x8, addend: 0x0, symName: __ZL26llama_sampler_greedy_resetP13llama_sampler, symObjAddr: 0x3508, symBinAddr: 0xC8208, symSize: 0x4 }
  - { offset: 0x66038A, size: 0x8, addend: 0x0, symName: __ZL26llama_sampler_greedy_clonePK13llama_sampler, symObjAddr: 0x350C, symBinAddr: 0xC820C, symSize: 0x58 }
  - { offset: 0x66047A, size: 0x8, addend: 0x0, symName: __ZL25llama_sampler_greedy_freeP13llama_sampler, symObjAddr: 0x3564, symBinAddr: 0xC8264, symSize: 0x68 }
  - { offset: 0x6606ED, size: 0x8, addend: 0x0, symName: __ZL33llama_sampler_greedy_backend_initP13llama_samplerP24ggml_backend_buffer_type, symObjAddr: 0x35CC, symBinAddr: 0xC82CC, symSize: 0x60 }
  - { offset: 0x66077E, size: 0x8, addend: 0x0, symName: __ZL34llama_sampler_greedy_backend_applyP13llama_samplerP12ggml_contextP11ggml_cgraphP18llama_sampler_data, symObjAddr: 0x362C, symBinAddr: 0xC832C, symSize: 0x3C }
  - { offset: 0x660791, size: 0x8, addend: 0x0, symName: __ZL29llama_sampler_backend_supportP13llama_samplerP24ggml_backend_buffer_type, symObjAddr: 0x3668, symBinAddr: 0xC8368, symSize: 0x25C }
  - { offset: 0x660C34, size: 0x8, addend: 0x0, symName: __ZL34llama_sampler_greedy_backend_applyP13llama_samplerP12ggml_contextP11ggml_cgraphP18llama_sampler_data, symObjAddr: 0x362C, symBinAddr: 0xC832C, symSize: 0x3C }
  - { offset: 0x660F6C, size: 0x8, addend: 0x0, symName: __ZL23llama_sampler_dist_namePK13llama_sampler, symObjAddr: 0x3AC8, symBinAddr: 0xC8794, symSize: 0xC0 }
  - { offset: 0x6612F6, size: 0x8, addend: 0x0, symName: __ZL24llama_sampler_dist_applyP13llama_samplerP22llama_token_data_array, symObjAddr: 0x3B88, symBinAddr: 0xC8854, symSize: 0x2CC }
  - { offset: 0x661563, size: 0x8, addend: 0x0, symName: __ZL24llama_sampler_dist_resetP13llama_sampler, symObjAddr: 0x3E54, symBinAddr: 0xC8B20, symSize: 0x68 }
  - { offset: 0x661613, size: 0x8, addend: 0x0, symName: __ZL24llama_sampler_dist_clonePK13llama_sampler, symObjAddr: 0x3EBC, symBinAddr: 0xC8B88, symSize: 0xE4 }
  - { offset: 0x66184F, size: 0x8, addend: 0x0, symName: __ZL23llama_sampler_dist_freeP13llama_sampler, symObjAddr: 0x3FA0, symBinAddr: 0xC8C6C, symSize: 0x90 }
  - { offset: 0x661BFD, size: 0x8, addend: 0x0, symName: __ZL31llama_sampler_dist_backend_initP13llama_samplerP24ggml_backend_buffer_type, symObjAddr: 0x4030, symBinAddr: 0xC8CFC, symSize: 0x13C }
  - { offset: 0x661F2C, size: 0x8, addend: 0x0, symName: __ZL32llama_sampler_dist_backend_applyP13llama_samplerP12ggml_contextP11ggml_cgraphP18llama_sampler_data, symObjAddr: 0x416C, symBinAddr: 0xC8E38, symSize: 0x144 }
  - { offset: 0x66229B, size: 0x8, addend: 0x0, symName: __ZL36llama_sampler_dist_backend_set_inputP13llama_sampler, symObjAddr: 0x42B0, symBinAddr: 0xC8F7C, symSize: 0x18C }
  - { offset: 0x66241A, size: 0x8, addend: 0x0, symName: __ZL24llama_sampler_empty_namePK13llama_sampler, symObjAddr: 0x443C, symBinAddr: 0xC9108, symSize: 0xC }
  - { offset: 0x662449, size: 0x8, addend: 0x0, symName: __ZL24llama_sampler_empty_namePK13llama_sampler, symObjAddr: 0x443C, symBinAddr: 0xC9108, symSize: 0xC }
  - { offset: 0x662489, size: 0x8, addend: 0x0, symName: __ZL26llama_sampler_empty_acceptP13llama_sampleri, symObjAddr: 0x4448, symBinAddr: 0xC9114, symSize: 0x4 }
  - { offset: 0x6624BD, size: 0x8, addend: 0x0, symName: __ZL25llama_sampler_empty_applyP13llama_samplerP22llama_token_data_array, symObjAddr: 0x444C, symBinAddr: 0xC9118, symSize: 0x4 }
  - { offset: 0x6624F1, size: 0x8, addend: 0x0, symName: __ZL25llama_sampler_empty_resetP13llama_sampler, symObjAddr: 0x4450, symBinAddr: 0xC911C, symSize: 0x4 }
  - { offset: 0x662519, size: 0x8, addend: 0x0, symName: __ZL25llama_sampler_empty_clonePK13llama_sampler, symObjAddr: 0x4454, symBinAddr: 0xC9120, symSize: 0x44 }
  - { offset: 0x66259C, size: 0x8, addend: 0x0, symName: __ZL24llama_sampler_empty_freeP13llama_sampler, symObjAddr: 0x4498, symBinAddr: 0xC9164, symSize: 0x10 }
  - { offset: 0x6625C8, size: 0x8, addend: 0x0, symName: __ZL32llama_sampler_empty_backend_initP13llama_samplerP24ggml_backend_buffer_type, symObjAddr: 0x44A8, symBinAddr: 0xC9174, symSize: 0x8 }
  - { offset: 0x662600, size: 0x8, addend: 0x0, symName: __ZL34llama_sampler_empty_backend_acceptP13llama_samplerP12ggml_contextP11ggml_cgraphP11ggml_tensor, symObjAddr: 0x44B0, symBinAddr: 0xC917C, symSize: 0x4 }
  - { offset: 0x66264C, size: 0x8, addend: 0x0, symName: __ZL33llama_sampler_empty_backend_applyP13llama_samplerP12ggml_contextP11ggml_cgraphP18llama_sampler_data, symObjAddr: 0x44B4, symBinAddr: 0xC9180, symSize: 0x4 }
  - { offset: 0x662698, size: 0x8, addend: 0x0, symName: __ZL37llama_sampler_empty_backend_set_inputP13llama_sampler, symObjAddr: 0x44B8, symBinAddr: 0xC9184, symSize: 0x4 }
  - { offset: 0x6626C0, size: 0x8, addend: 0x0, symName: __ZL24llama_sampler_top_k_namePK13llama_sampler, symObjAddr: 0x44BC, symBinAddr: 0xC9188, symSize: 0xC0 }
  - { offset: 0x66294C, size: 0x8, addend: 0x0, symName: __ZL25llama_sampler_top_k_applyP13llama_samplerP22llama_token_data_array, symObjAddr: 0x457C, symBinAddr: 0xC9248, symSize: 0x58 }
  - { offset: 0x6629F2, size: 0x8, addend: 0x0, symName: __ZL25llama_sampler_top_k_clonePK13llama_sampler, symObjAddr: 0x45D4, symBinAddr: 0xC92A0, symSize: 0xA4 }
  - { offset: 0x662ADC, size: 0x8, addend: 0x0, symName: __ZL24llama_sampler_top_k_freeP13llama_sampler, symObjAddr: 0x4678, symBinAddr: 0xC9344, symSize: 0x68 }
  - { offset: 0x662D2D, size: 0x8, addend: 0x0, symName: __ZL32llama_sampler_top_k_backend_initP13llama_samplerP24ggml_backend_buffer_type, symObjAddr: 0x46E0, symBinAddr: 0xC93AC, symSize: 0x60 }
  - { offset: 0x662DBE, size: 0x8, addend: 0x0, symName: __ZL33llama_sampler_top_k_backend_applyP13llama_samplerP12ggml_contextP11ggml_cgraphP18llama_sampler_data, symObjAddr: 0x4740, symBinAddr: 0xC940C, symSize: 0xE8 }
  - { offset: 0x662DD1, size: 0x8, addend: 0x0, symName: __ZL33llama_sampler_top_k_backend_applyP13llama_samplerP12ggml_contextP11ggml_cgraphP18llama_sampler_data, symObjAddr: 0x4740, symBinAddr: 0xC940C, symSize: 0xE8 }
  - { offset: 0x66365A, size: 0x8, addend: 0x0, symName: __ZNSt3__16vectorIP16llama_token_dataNS_9allocatorIS2_EEE20__throw_length_errorB8ne200100Ev, symObjAddr: 0x534C, symBinAddr: 0xC9F68, symSize: 0x14 }
  - { offset: 0x663672, size: 0x8, addend: 0x0, symName: '__ZNSt3__111__introsortINS_17_ClassicAlgPolicyERZL35llama_token_data_array_partial_sortRK22llama_token_data_arrayiRNS_6vectorI16llama_token_dataNS_9allocatorIS6_EEEEE3$_0PS6_Lb0EEEvT1_SE_T0_NS_15iterator_traitsISE_E15difference_typeEb', symObjAddr: 0x5360, symBinAddr: 0xC9F7C, symSize: 0xDA4 }
  - { offset: 0x663735, size: 0x8, addend: 0x0, symName: __ZL24llama_sampler_top_p_namePK13llama_sampler, symObjAddr: 0x6C04, symBinAddr: 0xCB820, symSize: 0xC0 }
  - { offset: 0x663A11, size: 0x8, addend: 0x0, symName: __ZL25llama_sampler_top_p_applyP13llama_samplerP22llama_token_data_array, symObjAddr: 0x6CC4, symBinAddr: 0xCB8E0, symSize: 0x2D8 }
  - { offset: 0x663D73, size: 0x8, addend: 0x0, symName: __ZL25llama_sampler_top_p_clonePK13llama_sampler, symObjAddr: 0x6F9C, symBinAddr: 0xCBBB8, symSize: 0xA8 }
  - { offset: 0x663DB9, size: 0x8, addend: 0x0, symName: __ZL25llama_sampler_top_p_clonePK13llama_sampler, symObjAddr: 0x6F9C, symBinAddr: 0xCBBB8, symSize: 0xA8 }
  - { offset: 0x663EEB, size: 0x8, addend: 0x0, symName: __ZL24llama_sampler_top_p_freeP13llama_sampler, symObjAddr: 0x7044, symBinAddr: 0xCBC60, symSize: 0x78 }
  - { offset: 0x664268, size: 0x8, addend: 0x0, symName: __ZL32llama_sampler_top_p_backend_initP13llama_samplerP24ggml_backend_buffer_type, symObjAddr: 0x70BC, symBinAddr: 0xCBCD8, symSize: 0x60 }
  - { offset: 0x6642F9, size: 0x8, addend: 0x0, symName: __ZL33llama_sampler_top_p_backend_applyP13llama_samplerP12ggml_contextP11ggml_cgraphP18llama_sampler_data, symObjAddr: 0x711C, symBinAddr: 0xCBD38, symSize: 0x2A0 }
  - { offset: 0x66430C, size: 0x8, addend: 0x0, symName: __ZL33llama_sampler_top_p_backend_applyP13llama_samplerP12ggml_contextP11ggml_cgraphP18llama_sampler_data, symObjAddr: 0x711C, symBinAddr: 0xCBD38, symSize: 0x2A0 }
  - { offset: 0x6647B0, size: 0x8, addend: 0x0, symName: __ZL24llama_sampler_min_p_namePK13llama_sampler, symObjAddr: 0x73BC, symBinAddr: 0xCBFD8, symSize: 0xC0 }
  - { offset: 0x6648C7, size: 0x8, addend: 0x0, symName: __ZL24llama_sampler_min_p_namePK13llama_sampler, symObjAddr: 0x73BC, symBinAddr: 0xCBFD8, symSize: 0xC0 }
  - { offset: 0x664E26, size: 0x8, addend: 0x0, symName: __ZL25llama_sampler_min_p_applyP13llama_samplerP22llama_token_data_array, symObjAddr: 0x747C, symBinAddr: 0xCC098, symSize: 0x2DC }
  - { offset: 0x6655B3, size: 0x8, addend: 0x0, symName: __ZNSt3__16vectorI16llama_token_dataNS_9allocatorIS1_EEE20__throw_length_errorB8ne200100Ev, symObjAddr: 0x79E4, symBinAddr: 0xCC600, symSize: 0x14 }
  - { offset: 0x6655CB, size: 0x8, addend: 0x0, symName: __ZL26llama_sampler_typical_namePK13llama_sampler, symObjAddr: 0x79F8, symBinAddr: 0xCC614, symSize: 0xC }
  - { offset: 0x665609, size: 0x8, addend: 0x0, symName: __ZL25llama_sampler_min_p_clonePK13llama_sampler, symObjAddr: 0x7758, symBinAddr: 0xCC374, symSize: 0xA0 }
  - { offset: 0x6656FC, size: 0x8, addend: 0x0, symName: __ZL24llama_sampler_min_p_freeP13llama_sampler, symObjAddr: 0x77F8, symBinAddr: 0xCC414, symSize: 0x68 }
  - { offset: 0x66594D, size: 0x8, addend: 0x0, symName: __ZL32llama_sampler_min_p_backend_initP13llama_samplerP24ggml_backend_buffer_type, symObjAddr: 0x7860, symBinAddr: 0xCC47C, symSize: 0x60 }
  - { offset: 0x6659DE, size: 0x8, addend: 0x0, symName: __ZL33llama_sampler_min_p_backend_applyP13llama_samplerP12ggml_contextP11ggml_cgraphP18llama_sampler_data, symObjAddr: 0x78C0, symBinAddr: 0xCC4DC, symSize: 0x124 }
  - { offset: 0x6659F1, size: 0x8, addend: 0x0, symName: __ZL33llama_sampler_min_p_backend_applyP13llama_samplerP12ggml_contextP11ggml_cgraphP18llama_sampler_data, symObjAddr: 0x78C0, symBinAddr: 0xCC4DC, symSize: 0x124 }
  - { offset: 0x665BF4, size: 0x8, addend: 0x0, symName: __ZL26llama_sampler_typical_namePK13llama_sampler, symObjAddr: 0x79F8, symBinAddr: 0xCC614, symSize: 0xC }
  - { offset: 0x6660FF, size: 0x8, addend: 0x0, symName: __ZL27llama_sampler_typical_applyP13llama_samplerP22llama_token_data_array, symObjAddr: 0x7A04, symBinAddr: 0xCC620, symSize: 0x758 }
  - { offset: 0x6674B9, size: 0x8, addend: 0x0, symName: '__ZNSt3__111__introsortINS_17_ClassicAlgPolicyERZL27llama_sampler_typical_applyP13llama_samplerP22llama_token_data_arrayE3$_0PmLb0EEEvT1_S9_T0_NS_15iterator_traitsIS9_E15difference_typeEb', symObjAddr: 0x8218, symBinAddr: 0xCCE0C, symSize: 0xAD8 }
  - { offset: 0x6674F7, size: 0x8, addend: 0x0, symName: __ZL27llama_sampler_typical_clonePK13llama_sampler, symObjAddr: 0x815C, symBinAddr: 0xCCD78, symSize: 0x84 }
  - { offset: 0x667575, size: 0x8, addend: 0x0, symName: __ZL26llama_sampler_typical_freeP13llama_sampler, symObjAddr: 0x81E0, symBinAddr: 0xCCDFC, symSize: 0x10 }
  - { offset: 0x667672, size: 0x8, addend: 0x0, symName: __ZL23llama_sampler_temp_namePK13llama_sampler, symObjAddr: 0x91E4, symBinAddr: 0xCDDD8, symSize: 0xC0 }
  - { offset: 0x667934, size: 0x8, addend: 0x0, symName: __ZL24llama_sampler_temp_applyP13llama_samplerP22llama_token_data_array, symObjAddr: 0x92A4, symBinAddr: 0xCDE98, symSize: 0x114 }
  - { offset: 0x667A01, size: 0x8, addend: 0x0, symName: __ZL24llama_sampler_temp_clonePK13llama_sampler, symObjAddr: 0x93B8, symBinAddr: 0xCDFAC, symSize: 0x9C }
