---
triple:          'arm64-apple-darwin'
binary-path:     '/opt/UnitySrc/personal/ocs-test/llama_dart/src/native/llama_cpp/build-visionos-sim/framework/llama.framework/llama'
relocations:
  - { offset: 0x25B1E, size: 0x8, addend: 0x0, symName: __ZNSt3__127__tree_balance_after_insertB8ne200100IPNS_16__tree_node_baseIPvEEEEvT_S5_, symObjAddr: 0x30E0, symBinAddr: 0x3C20, symSize: 0x1AC }
  - { offset: 0x26C72, size: 0x8, addend: 0x0, symName: __ZNSt3__120__throw_length_errorB8ne200100EPKc, symObjAddr: 0x32A0, symBinAddr: 0x3DE0, symSize: 0x50 }
  - { offset: 0x271E9, size: 0x8, addend: 0x0, symName: __ZNSt3__120__throw_out_of_rangeB8ne200100EPKc, symObjAddr: 0x41AC, symBinAddr: 0x4CEC, symSize: 0x50 }
  - { offset: 0x28D16, size: 0x8, addend: 0x0, symName: __ZSt28__throw_bad_array_new_lengthB8ne200100v, symObjAddr: 0x30B8, symBinAddr: 0x3BF8, symSize: 0x28 }
  - { offset: 0x30203, size: 0x8, addend: 0x0, symName: __ZNK18llama_adapter_cvec10tensor_forEi, symObjAddr: 0x0, symBinAddr: 0xB40, symSize: 0x40 }
  - { offset: 0x3026D, size: 0x8, addend: 0x0, symName: __ZNK18llama_adapter_cvec8apply_toEP12ggml_contextP11ggml_tensori, symObjAddr: 0x40, symBinAddr: 0xB80, symSize: 0x50 }
  - { offset: 0x302D4, size: 0x8, addend: 0x0, symName: __ZNK18llama_adapter_cvec8apply_toEP12ggml_contextP11ggml_tensori, symObjAddr: 0x40, symBinAddr: 0xB80, symSize: 0x50 }
  - { offset: 0x3092F, size: 0x8, addend: 0x0, symName: __ZN18llama_adapter_cvec4initERK11llama_model, symObjAddr: 0x90, symBinAddr: 0xBD0, symSize: 0x738 }
  - { offset: 0x336C4, size: 0x8, addend: 0x0, symName: __ZNSt3__16__treeINS_12__value_typeIP24ggml_backend_buffer_typeP12ggml_contextEENS_19__map_value_compareIS3_S6_NS_4lessIS3_EELb1EEENS_9allocatorIS6_EEE7destroyEPNS_11__tree_nodeIS6_PvEE, symObjAddr: 0x52EC, symBinAddr: 0x5E2C, symSize: 0x44 }
  - { offset: 0x337DB, size: 0x8, addend: 0x0, symName: __ZNSt3__16vectorINS_10unique_ptrI19ggml_backend_buffer27ggml_backend_buffer_deleterEENS_9allocatorIS4_EEE20__throw_length_errorB8ne200100Ev, symObjAddr: 0x4C1C, symBinAddr: 0x575C, symSize: 0x14 }
  - { offset: 0x337F3, size: 0x8, addend: 0x0, symName: __ZNSt3__16vectorIhNS_9allocatorIhEEE20__throw_length_errorB8ne200100Ev, symObjAddr: 0x4C30, symBinAddr: 0x5770, symSize: 0x14 }
  - { offset: 0x337FE, size: 0x8, addend: 0x0, symName: __ZNSt3__16vectorIP11ggml_tensorNS_9allocatorIS2_EEE20__throw_length_errorB8ne200100Ev, symObjAddr: 0x5330, symBinAddr: 0x5E70, symSize: 0x14 }
  - { offset: 0x33816, size: 0x8, addend: 0x0, symName: __ZNSt3__112__hash_tableINS_17__hash_value_typeINS_12basic_stringIcNS_11char_traitsIcEENS_9allocatorIcEEEE25llama_adapter_lora_weightEENS_22__unordered_map_hasherIS7_S9_NS_4hashIS7_EENS_8equal_toIS7_EELb1EEENS_21__unordered_map_equalIS7_S9_SE_SC_Lb1EEENS5_IS9_EEE4findIS7_EENS_15__hash_iteratorIPNS_11__hash_nodeIS9_PvEEEERKT_, symObjAddr: 0x5344, symBinAddr: 0x5E84, symSize: 0x1B4 }
  - { offset: 0x33821, size: 0x8, addend: 0x0, symName: __ZNSt3__16vectorINS_10unique_ptrI12ggml_context20ggml_context_deleterEENS_9allocatorIS4_EEE20__throw_length_errorB8ne200100Ev, symObjAddr: 0x328C, symBinAddr: 0x3DCC, symSize: 0x14 }
  - { offset: 0x33839, size: 0x8, addend: 0x0, symName: __ZNSt3__120__throw_length_errorB8ne200100EPKc, symObjAddr: 0x32A0, symBinAddr: 0x3DE0, symSize: 0x50 }
  - { offset: 0x33880, size: 0x8, addend: 0x0, symName: __ZN18llama_adapter_cvec5applyERK11llama_modelPKfmiii, symObjAddr: 0x7C8, symBinAddr: 0x1308, symSize: 0x12C }
  - { offset: 0x33CC5, size: 0x8, addend: 0x0, symName: __ZN18llama_adapter_lora10get_weightEP11ggml_tensor, symObjAddr: 0x8F4, symBinAddr: 0x1434, symSize: 0x100 }
  - { offset: 0x341B7, size: 0x8, addend: 0x0, symName: __ZNSt3__112__hash_tableINS_17__hash_value_typeINS_12basic_stringIcNS_11char_traitsIcEENS_9allocatorIcEEEE25llama_adapter_lora_weightEENS_22__unordered_map_hasherIS7_S9_NS_4hashIS7_EENS_8equal_toIS7_EELb1EEENS_21__unordered_map_equalIS7_S9_SE_SC_Lb1EEENS5_IS9_EEE4findIS7_EENS_15__hash_iteratorIPNS_11__hash_nodeIS9_PvEEEERKT_, symObjAddr: 0x5344, symBinAddr: 0x5E84, symSize: 0x1B4 }
  - { offset: 0x344C0, size: 0x8, addend: 0x0, symName: __ZNSt3__112basic_stringIcNS_11char_traitsIcEENS_9allocatorIcEEE20__throw_length_errorB8ne200100Ev, symObjAddr: 0x4220, symBinAddr: 0x4D60, symSize: 0x14 }
  - { offset: 0x344D8, size: 0x8, addend: 0x0, symName: __ZNSt3__112basic_stringIcNS_11char_traitsIcEENS_9allocatorIcEEE25__init_copy_ctor_externalEPKcm, symObjAddr: 0x4234, symBinAddr: 0x4D74, symSize: 0x88 }
  - { offset: 0x344E3, size: 0x8, addend: 0x0, symName: __ZNSt3__112basic_stringIcNS_11char_traitsIcEENS_9allocatorIcEEEC1B8ne200100ILi0EEEPKc, symObjAddr: 0x9F4, symBinAddr: 0x1534, symSize: 0xA4 }
  - { offset: 0x3474B, size: 0x8, addend: 0x0, symName: _llama_adapter_lora_init, symObjAddr: 0xA98, symBinAddr: 0x15D8, symSize: 0x100 }
  - { offset: 0x34930, size: 0x8, addend: 0x0, symName: _llama_adapter_lora_init, symObjAddr: 0xA98, symBinAddr: 0x15D8, symSize: 0x100 }
  - { offset: 0x34BB0, size: 0x8, addend: 0x0, symName: __ZL28llama_adapter_lora_init_implR11llama_modelPKcR18llama_adapter_lora, symObjAddr: 0xB98, symBinAddr: 0x16D8, symSize: 0x2270 }
  - { offset: 0x3D4E9, size: 0x8, addend: 0x0, symName: __ZN18llama_adapter_loraD2Ev, symObjAddr: 0x5180, symBinAddr: 0x5CC0, symSize: 0x16C }
  - { offset: 0x3F72F, size: 0x8, addend: 0x0, symName: __ZNSt3__112__hash_tableINS_17__hash_value_typeINS_12basic_stringIcNS_11char_traitsIcEENS_9allocatorIcEEEES7_EENS_22__unordered_map_hasherIS7_S8_NS_4hashIS7_EENS_8equal_toIS7_EELb1EEENS_21__unordered_map_equalIS7_S8_SD_SB_Lb1EEENS5_IS8_EEE21__emplace_unique_implIJRPKcRKS7_EEENS_4pairINS_15__hash_iteratorIPNS_11__hash_nodeIS8_PvEEEEbEEDpOT_, symObjAddr: 0x3530, symBinAddr: 0x4070, symSize: 0x140 }
  - { offset: 0x3FF32, size: 0x8, addend: 0x0, symName: __ZNSt3__112basic_stringIcNS_11char_traitsIcEENS_9allocatorIcEEE25__init_copy_ctor_externalEPKcm, symObjAddr: 0x4234, symBinAddr: 0x4D74, symSize: 0x88 }
  - { offset: 0x400F2, size: 0x8, addend: 0x0, symName: __ZNSt3__16vectorIiNS_9allocatorIiEEE8__appendEm, symObjAddr: 0x42BC, symBinAddr: 0x4DFC, symSize: 0x120 }
  - { offset: 0x40190, size: 0x8, addend: 0x0, symName: __ZNSt3__16vectorIiNS_9allocatorIiEEE8__appendEm, symObjAddr: 0x42BC, symBinAddr: 0x4DFC, symSize: 0x120 }
  - { offset: 0x4056E, size: 0x8, addend: 0x0, symName: __ZNSt3__16vectorIiNS_9allocatorIiEEE20__throw_length_errorB8ne200100Ev, symObjAddr: 0x43DC, symBinAddr: 0x4F1C, symSize: 0x14 }
  - { offset: 0x405DD, size: 0x8, addend: 0x0, symName: __ZNSt3__16__treeINS_12__value_typeINS_12basic_stringIcNS_11char_traitsIcEENS_9allocatorIcEEEE25llama_adapter_lora_weightEENS_19__map_value_compareIS7_S9_NS_4lessIS7_EELb1EEENS5_IS9_EEE25__emplace_unique_key_argsIS7_JRKNS_21piecewise_construct_tENS_5tupleIJRKS7_EEENSK_IJEEEEEENS_4pairINS_15__tree_iteratorIS9_PNS_11__tree_nodeIS9_PvEElEEbEERKT_DpOT0_, symObjAddr: 0x43F0, symBinAddr: 0x4F30, symSize: 0x1B0 }
  - { offset: 0x40CF7, size: 0x8, addend: 0x0, symName: __ZNSt3__112__hash_tableINS_17__hash_value_typeINS_12basic_stringIcNS_11char_traitsIcEENS_9allocatorIcEEEE25llama_adapter_lora_weightEENS_22__unordered_map_hasherIS7_S9_NS_4hashIS7_EENS_8equal_toIS7_EELb1EEENS_21__unordered_map_equalIS7_S9_SE_SC_Lb1EEENS5_IS9_EEE25__emplace_unique_key_argsIS7_JRKNS_21piecewise_construct_tENS_5tupleIJRKS7_EEENSO_IJEEEEEENS_4pairINS_15__hash_iteratorIPNS_11__hash_nodeIS9_PvEEEEbEERKT_DpOT0_, symObjAddr: 0x4614, symBinAddr: 0x5154, symSize: 0x428 }
  - { offset: 0x4180A, size: 0x8, addend: 0x0, symName: '__ZZL28llama_adapter_lora_init_implR11llama_modelPKcR18llama_adapter_loraENK3$_4clEP11ggml_tensorS7_', symObjAddr: 0x337C, symBinAddr: 0x3EBC, symSize: 0x180 }
  - { offset: 0x41DF7, size: 0x8, addend: 0x0, symName: __ZNSt3__110unique_ptrI12gguf_context20gguf_context_deleterED1B8ne200100Ev, symObjAddr: 0x34FC, symBinAddr: 0x403C, symSize: 0x34 }
  - { offset: 0x41E08, size: 0x8, addend: 0x0, symName: __ZNSt3__112__hash_tableIP18llama_adapter_loraNS_4hashIS2_EENS_8equal_toIS2_EENS_9allocatorIS2_EEE25__emplace_unique_key_argsIS2_JS2_EEENS_4pairINS_15__hash_iteratorIPNS_11__hash_nodeIS2_PvEEEEbEERKT_DpOT0_, symObjAddr: 0x4C44, symBinAddr: 0x5784, symSize: 0x35C }
  - { offset: 0x4255D, size: 0x8, addend: 0x0, symName: __ZNSt3__16__treeINS_12__value_typeINS_12basic_stringIcNS_11char_traitsIcEENS_9allocatorIcEEEE25llama_adapter_lora_weightEENS_19__map_value_compareIS7_S9_NS_4lessIS7_EELb1EEENS5_IS9_EEE7destroyEPNS_11__tree_nodeIS9_PvEE, symObjAddr: 0x5120, symBinAddr: 0x5C60, symSize: 0x60 }
  - { offset: 0x427BA, size: 0x8, addend: 0x0, symName: __ZNSt3__112basic_stringIcNS_11char_traitsIcEENS_9allocatorIcEEE20__throw_out_of_rangeB8ne200100Ev, symObjAddr: 0x4198, symBinAddr: 0x4CD8, symSize: 0x14 }
  - { offset: 0x427D2, size: 0x8, addend: 0x0, symName: __ZNSt3__120__throw_out_of_rangeB8ne200100EPKc, symObjAddr: 0x41AC, symBinAddr: 0x4CEC, symSize: 0x50 }
  - { offset: 0x427DD, size: 0x8, addend: 0x0, symName: __ZNSt3__16vectorIP24ggml_backend_buffer_typeNS_9allocatorIS2_EEE20__throw_length_errorB8ne200100Ev, symObjAddr: 0x4600, symBinAddr: 0x5140, symSize: 0x14 }
  - { offset: 0x427F5, size: 0x8, addend: 0x0, symName: __ZNSt3__112__hash_tableINS_17__hash_value_typeINS_12basic_stringIcNS_11char_traitsIcEENS_9allocatorIcEEEE25llama_adapter_lora_weightEENS_22__unordered_map_hasherIS7_S9_NS_4hashIS7_EENS_8equal_toIS7_EELb1EEENS_21__unordered_map_equalIS7_S9_SE_SC_Lb1EEENS5_IS9_EEE25__emplace_unique_key_argsIS7_JRKNS_21piecewise_construct_tENS_5tupleIJRKS7_EEENSO_IJEEEEEENS_4pairINS_15__hash_iteratorIPNS_11__hash_nodeIS9_PvEEEEbEERKT_DpOT0_, symObjAddr: 0x4614, symBinAddr: 0x5154, symSize: 0x428 }
  - { offset: 0x42800, size: 0x8, addend: 0x0, symName: __ZNSt3__110unique_ptrI12gguf_context20gguf_context_deleterED1B8ne200100Ev, symObjAddr: 0x34FC, symBinAddr: 0x403C, symSize: 0x34 }
  - { offset: 0x42894, size: 0x8, addend: 0x0, symName: __ZNSt3__110unique_ptrI19ggml_backend_buffer27ggml_backend_buffer_deleterED1B8ne200100Ev, symObjAddr: 0x3348, symBinAddr: 0x3E88, symSize: 0x34 }
  - { offset: 0x42928, size: 0x8, addend: 0x0, symName: __ZNSt3__110unique_ptrI12ggml_context20ggml_context_deleterED1B8ne200100Ev, symObjAddr: 0x3314, symBinAddr: 0x3E54, symSize: 0x34 }
  - { offset: 0x429E4, size: 0x8, addend: 0x0, symName: _llama_adapter_meta_val_str, symObjAddr: 0x2E18, symBinAddr: 0x3958, symSize: 0x13C }
  - { offset: 0x42FB4, size: 0x8, addend: 0x0, symName: __ZNKSt3__112__hash_tableINS_17__hash_value_typeINS_12basic_stringIcNS_11char_traitsIcEENS_9allocatorIcEEEES7_EENS_22__unordered_map_hasherIS7_S8_NS_4hashIS7_EENS_8equal_toIS7_EELb1EEENS_21__unordered_map_equalIS7_S8_SD_SB_Lb1EEENS5_IS8_EEE4findIS7_EENS_21__hash_const_iteratorIPNS_11__hash_nodeIS8_PvEEEERKT_, symObjAddr: 0x54F8, symBinAddr: 0x6038, symSize: 0x1B4 }
  - { offset: 0x4330D, size: 0x8, addend: 0x0, symName: _llama_adapter_meta_count, symObjAddr: 0x2F54, symBinAddr: 0x3A94, symSize: 0x8 }
  - { offset: 0x4333B, size: 0x8, addend: 0x0, symName: _llama_adapter_meta_count, symObjAddr: 0x2F54, symBinAddr: 0x3A94, symSize: 0x8 }
  - { offset: 0x4335A, size: 0x8, addend: 0x0, symName: _llama_adapter_meta_count, symObjAddr: 0x2F54, symBinAddr: 0x3A94, symSize: 0x8 }
  - { offset: 0x4342D, size: 0x8, addend: 0x0, symName: _llama_adapter_meta_key_by_index, symObjAddr: 0x2F5C, symBinAddr: 0x3A9C, symSize: 0x84 }
  - { offset: 0x43667, size: 0x8, addend: 0x0, symName: _llama_adapter_meta_val_str_by_index, symObjAddr: 0x2FE0, symBinAddr: 0x3B20, symSize: 0x84 }
  - { offset: 0x43858, size: 0x8, addend: 0x0, symName: _llama_adapter_lora_free, symObjAddr: 0x3064, symBinAddr: 0x3BA4, symSize: 0x4 }
  - { offset: 0x4387B, size: 0x8, addend: 0x0, symName: _llama_adapter_get_alora_n_invocation_tokens, symObjAddr: 0x3068, symBinAddr: 0x3BA8, symSize: 0x14 }
  - { offset: 0x438DD, size: 0x8, addend: 0x0, symName: _llama_adapter_get_alora_invocation_tokens, symObjAddr: 0x307C, symBinAddr: 0x3BBC, symSize: 0x3C }
  - { offset: 0x4392B, size: 0x8, addend: 0x0, symName: __ZSt28__throw_bad_array_new_lengthB8ne200100v, symObjAddr: 0x30B8, symBinAddr: 0x3BF8, symSize: 0x28 }
  - { offset: 0x4397C, size: 0x8, addend: 0x0, symName: __ZNSt12length_errorC1B8ne200100EPKc, symObjAddr: 0x32F0, symBinAddr: 0x3E30, symSize: 0x24 }
  - { offset: 0x43F14, size: 0x8, addend: 0x0, symName: __ZNSt3__16vectorIhNS_9allocatorIhEEE20__throw_length_errorB8ne200100Ev, symObjAddr: 0x4C30, symBinAddr: 0x5770, symSize: 0x14 }
  - { offset: 0x43F2C, size: 0x8, addend: 0x0, symName: __ZNSt3__112__hash_tableIP18llama_adapter_loraNS_4hashIS2_EENS_8equal_toIS2_EENS_9allocatorIS2_EEE25__emplace_unique_key_argsIS2_JS2_EEENS_4pairINS_15__hash_iteratorIPNS_11__hash_nodeIS2_PvEEEEbEERKT_DpOT0_, symObjAddr: 0x4C44, symBinAddr: 0x5784, symSize: 0x35C }
  - { offset: 0x443BE, size: 0x8, addend: 0x0, symName: __ZNSt3__14pairIKNS_12basic_stringIcNS_11char_traitsIcEENS_9allocatorIcEEEES6_EC2B8ne200100IRPKcRS7_Li0EEEOT_OT0_, symObjAddr: 0x3820, symBinAddr: 0x4360, symSize: 0x108 }
  - { offset: 0x447C9, size: 0x8, addend: 0x0, symName: __ZNKSt3__121__murmur2_or_cityhashImLm64EEclB8ne200100EPKvm, symObjAddr: 0x3928, symBinAddr: 0x4468, symSize: 0x44C }
  - { offset: 0x451E2, size: 0x8, addend: 0x0, symName: __ZNSt3__112__hash_tableINS_17__hash_value_typeINS_12basic_stringIcNS_11char_traitsIcEENS_9allocatorIcEEEES7_EENS_22__unordered_map_hasherIS7_S8_NS_4hashIS7_EENS_8equal_toIS7_EELb1EEENS_21__unordered_map_equalIS7_S8_SD_SB_Lb1EEENS5_IS8_EEE20__node_insert_uniqueEPNS_11__hash_nodeIS8_PvEE, symObjAddr: 0x3670, symBinAddr: 0x41B0, symSize: 0x144 }
  - { offset: 0x45455, size: 0x8, addend: 0x0, symName: __ZNSt3__110unique_ptrINS_11__hash_nodeINS_17__hash_value_typeINS_12basic_stringIcNS_11char_traitsIcEENS_9allocatorIcEEEES8_EEPvEENS_22__hash_node_destructorINS6_ISB_EEEEED1B8ne200100Ev, symObjAddr: 0x37B4, symBinAddr: 0x42F4, symSize: 0x6C }
  - { offset: 0x45874, size: 0x8, addend: 0x0, symName: __ZNSt3__112__hash_tableINS_17__hash_value_typeINS_12basic_stringIcNS_11char_traitsIcEENS_9allocatorIcEEEES7_EENS_22__unordered_map_hasherIS7_S8_NS_4hashIS7_EENS_8equal_toIS7_EELb1EEENS_21__unordered_map_equalIS7_S8_SD_SB_Lb1EEENS5_IS8_EEE28__node_insert_unique_prepareB8ne200100EmRS8_, symObjAddr: 0x3D74, symBinAddr: 0x48B4, symSize: 0x2A4 }
  - { offset: 0x45EE2, size: 0x8, addend: 0x0, symName: __ZNSt3__112__hash_tableINS_17__hash_value_typeINS_12basic_stringIcNS_11char_traitsIcEENS_9allocatorIcEEEES7_EENS_22__unordered_map_hasherIS7_S8_NS_4hashIS7_EENS_8equal_toIS7_EELb1EEENS_21__unordered_map_equalIS7_S8_SD_SB_Lb1EEENS5_IS8_EEE11__do_rehashILb1EEEvm, symObjAddr: 0x4018, symBinAddr: 0x4B58, symSize: 0x180 }
  - { offset: 0x4626F, size: 0x8, addend: 0x0, symName: __ZNSt3__112basic_stringIcNS_11char_traitsIcEENS_9allocatorIcEEE20__throw_out_of_rangeB8ne200100Ev, symObjAddr: 0x4198, symBinAddr: 0x4CD8, symSize: 0x14 }
  - { offset: 0x46394, size: 0x8, addend: 0x0, symName: __ZNSt12out_of_rangeC1B8ne200100EPKc, symObjAddr: 0x41FC, symBinAddr: 0x4D3C, symSize: 0x24 }
  - { offset: 0x4672F, size: 0x8, addend: 0x0, symName: __ZNSt3__16vectorIiNS_9allocatorIiEEE20__throw_length_errorB8ne200100Ev, symObjAddr: 0x43DC, symBinAddr: 0x4F1C, symSize: 0x14 }
  - { offset: 0x46747, size: 0x8, addend: 0x0, symName: __ZNSt3__16__treeINS_12__value_typeINS_12basic_stringIcNS_11char_traitsIcEENS_9allocatorIcEEEE25llama_adapter_lora_weightEENS_19__map_value_compareIS7_S9_NS_4lessIS7_EELb1EEENS5_IS9_EEE25__emplace_unique_key_argsIS7_JRKNS_21piecewise_construct_tENS_5tupleIJRKS7_EEENSK_IJEEEEEENS_4pairINS_15__tree_iteratorIS9_PNS_11__tree_nodeIS9_PvEElEEbEERKT_DpOT0_, symObjAddr: 0x43F0, symBinAddr: 0x4F30, symSize: 0x1B0 }
  - { offset: 0x46B72, size: 0x8, addend: 0x0, symName: __ZNSt3__110unique_ptrINS_11__tree_nodeINS_12__value_typeINS_12basic_stringIcNS_11char_traitsIcEENS_9allocatorIcEEEE25llama_adapter_lora_weightEEPvEENS_22__tree_node_destructorINS6_ISC_EEEEED1B8ne200100Ev, symObjAddr: 0x45A0, symBinAddr: 0x50E0, symSize: 0x60 }
  - { offset: 0x4739E, size: 0x8, addend: 0x0, symName: __ZNSt3__112__hash_tableINS_17__hash_value_typeINS_12basic_stringIcNS_11char_traitsIcEENS_9allocatorIcEEEE25llama_adapter_lora_weightEENS_22__unordered_map_hasherIS7_S9_NS_4hashIS7_EENS_8equal_toIS7_EELb1EEENS_21__unordered_map_equalIS7_S9_SE_SC_Lb1EEENS5_IS9_EEE11__do_rehashILb1EEEvm, symObjAddr: 0x4A9C, symBinAddr: 0x55DC, symSize: 0x180 }
  - { offset: 0x4772B, size: 0x8, addend: 0x0, symName: __ZNSt3__16vectorINS_10unique_ptrI19ggml_backend_buffer27ggml_backend_buffer_deleterEENS_9allocatorIS4_EEE20__throw_length_errorB8ne200100Ev, symObjAddr: 0x4C1C, symBinAddr: 0x575C, symSize: 0x14 }
  - { offset: 0x47740, size: 0x8, addend: 0x0, symName: __ZNSt3__110unique_ptrINS_11__hash_nodeINS_17__hash_value_typeINS_12basic_stringIcNS_11char_traitsIcEENS_9allocatorIcEEEE25llama_adapter_lora_weightEEPvEENS_22__hash_node_destructorINS6_ISC_EEEEED1B8ne200100Ev, symObjAddr: 0x4A3C, symBinAddr: 0x557C, symSize: 0x60 }
  - { offset: 0x4807D, size: 0x8, addend: 0x0, symName: __ZNSt3__112__hash_tableIP18llama_adapter_loraNS_4hashIS2_EENS_8equal_toIS2_EENS_9allocatorIS2_EEE11__do_rehashILb1EEEvm, symObjAddr: 0x4FA0, symBinAddr: 0x5AE0, symSize: 0x180 }
  - { offset: 0x4840A, size: 0x8, addend: 0x0, symName: __ZNSt3__16__treeINS_12__value_typeINS_12basic_stringIcNS_11char_traitsIcEENS_9allocatorIcEEEE25llama_adapter_lora_weightEENS_19__map_value_compareIS7_S9_NS_4lessIS7_EELb1EEENS5_IS9_EEE7destroyEPNS_11__tree_nodeIS9_PvEE, symObjAddr: 0x5120, symBinAddr: 0x5C60, symSize: 0x60 }
  - { offset: 0x4AE40, size: 0x8, addend: 0x0, symName: __MergedGlobals, symObjAddr: 0x71C08, symBinAddr: 0x360030, symSize: 0x0 }
  - { offset: 0x5AA2F, size: 0x8, addend: 0x0, symName: __MergedGlobals, symObjAddr: 0x71C08, symBinAddr: 0x360030, symSize: 0x0 }
  - { offset: 0x5AE57, size: 0x8, addend: 0x0, symName: __MergedGlobals, symObjAddr: 0x71C08, symBinAddr: 0x360030, symSize: 0x0 }
  - { offset: 0x5B724, size: 0x8, addend: 0x0, symName: __MergedGlobals, symObjAddr: 0x71C08, symBinAddr: 0x360030, symSize: 0x0 }
  - { offset: 0x5BEBF, size: 0x8, addend: 0x0, symName: __ZNSt3__13mapI8llm_archPKcNS_4lessIS1_EENS_9allocatorINS_4pairIKS1_S3_EEEEED1B8ne200100Ev, symObjAddr: 0x0, symBinAddr: 0x61EC, symSize: 0x28 }
  - { offset: 0x5BF73, size: 0x8, addend: 0x0, symName: __ZNSt3__16__treeINS_12__value_typeI8llm_archPKcEENS_19__map_value_compareIS2_S5_NS_4lessIS2_EELb1EEENS_9allocatorIS5_EEE7destroyEPNS_11__tree_nodeIS5_PvEE, symObjAddr: 0x1760, symBinAddr: 0x7790, symSize: 0x44 }
  - { offset: 0x5C0FE, size: 0x8, addend: 0x0, symName: __ZNSt3__13mapI6llm_kvPKcNS_4lessIS1_EENS_9allocatorINS_4pairIKS1_S3_EEEEED1B8ne200100Ev, symObjAddr: 0x28, symBinAddr: 0x6214, symSize: 0x28 }
  - { offset: 0x5C1B2, size: 0x8, addend: 0x0, symName: __ZNSt3__16__treeINS_12__value_typeI6llm_kvPKcEENS_19__map_value_compareIS2_S5_NS_4lessIS2_EELb1EEENS_9allocatorIS5_EEE7destroyEPNS_11__tree_nodeIS5_PvEE, symObjAddr: 0x1A44, symBinAddr: 0x7A74, symSize: 0x44 }
  - { offset: 0x5C33D, size: 0x8, addend: 0x0, symName: __ZNSt3__13mapI10llm_tensorPKcNS_4lessIS1_EENS_9allocatorINS_4pairIKS1_S3_EEEEED1B8ne200100Ev, symObjAddr: 0x50, symBinAddr: 0x623C, symSize: 0x28 }
  - { offset: 0x5C3F1, size: 0x8, addend: 0x0, symName: __ZNSt3__16__treeINS_12__value_typeI10llm_tensorPKcEENS_19__map_value_compareIS2_S5_NS_4lessIS2_EELb1EEENS_9allocatorIS5_EEE7destroyEPNS_11__tree_nodeIS5_PvEE, symObjAddr: 0x1D28, symBinAddr: 0x7D58, symSize: 0x44 }
  - { offset: 0x5C57C, size: 0x8, addend: 0x0, symName: __ZNSt3__13mapI10llm_tensor15llm_tensor_infoNS_4lessIS1_EENS_9allocatorINS_4pairIKS1_S2_EEEEED1B8ne200100Ev, symObjAddr: 0x78, symBinAddr: 0x6264, symSize: 0x28 }
  - { offset: 0x5C630, size: 0x8, addend: 0x0, symName: __ZNSt3__16__treeINS_12__value_typeI10llm_tensor15llm_tensor_infoEENS_19__map_value_compareIS2_S4_NS_4lessIS2_EELb1EEENS_9allocatorIS4_EEE7destroyEPNS_11__tree_nodeIS4_PvEE, symObjAddr: 0x2018, symBinAddr: 0x8048, symSize: 0x44 }
  - { offset: 0x5C74C, size: 0x8, addend: 0x0, symName: __ZN6LLM_KVC2E8llm_archPKc, symObjAddr: 0xA0, symBinAddr: 0x628C, symSize: 0xC }
  - { offset: 0x5C7B5, size: 0x8, addend: 0x0, symName: __ZN6LLM_KVC1E8llm_archPKc, symObjAddr: 0xAC, symBinAddr: 0x6298, symSize: 0xC }
  - { offset: 0x5C7FF, size: 0x8, addend: 0x0, symName: __ZN6LLM_KVC1E8llm_archPKc, symObjAddr: 0xAC, symBinAddr: 0x6298, symSize: 0xC }
  - { offset: 0x5CB7F, size: 0x8, addend: 0x0, symName: __ZNK6LLM_KVclE6llm_kv, symObjAddr: 0xB8, symBinAddr: 0x62A4, symSize: 0xFC }
  - { offset: 0x5D0B4, size: 0x8, addend: 0x0, symName: __ZN11LLM_TN_IMPLC2E8llm_arch10llm_tensorPKcii, symObjAddr: 0x1B4, symBinAddr: 0x63A0, symSize: 0xA38 }
  - { offset: 0x5D276, size: 0x8, addend: 0x0, symName: __ZN11LLM_TN_IMPLC1E8llm_arch10llm_tensorPKcii, symObjAddr: 0xBEC, symBinAddr: 0x6DD8, symSize: 0x4 }
  - { offset: 0x5D289, size: 0x8, addend: 0x0, symName: __ZNSt3__13setI10llm_tensorNS_4lessIS1_EENS_9allocatorIS1_EEEC2B8ne200100ESt16initializer_listIS1_ERKS3_, symObjAddr: 0x1020, symBinAddr: 0x720C, symSize: 0xF0 }
  - { offset: 0x5D5FC, size: 0x8, addend: 0x0, symName: __ZN11LLM_TN_IMPLC1E8llm_arch10llm_tensorPKcii, symObjAddr: 0xBEC, symBinAddr: 0x6DD8, symSize: 0x4 }
  - { offset: 0x5D671, size: 0x8, addend: 0x0, symName: __ZN11LLM_TN_IMPLC1E8llm_arch10llm_tensorPKcii, symObjAddr: 0xBEC, symBinAddr: 0x6DD8, symSize: 0x4 }
  - { offset: 0x5DB1A, size: 0x8, addend: 0x0, symName: __ZNK11LLM_TN_IMPL3strEv, symObjAddr: 0xBF0, symBinAddr: 0x6DDC, symSize: 0x200 }
  - { offset: 0x5E3AE, size: 0x8, addend: 0x0, symName: __Z13llm_arch_name8llm_arch, symObjAddr: 0xDF0, symBinAddr: 0x6FDC, symSize: 0x58 }
  - { offset: 0x5E3F0, size: 0x8, addend: 0x0, symName: __Z13llm_arch_name8llm_arch, symObjAddr: 0xDF0, symBinAddr: 0x6FDC, symSize: 0x58 }
  - { offset: 0x5E405, size: 0x8, addend: 0x0, symName: __Z13llm_arch_name8llm_arch, symObjAddr: 0xDF0, symBinAddr: 0x6FDC, symSize: 0x58 }
  - { offset: 0x5E423, size: 0x8, addend: 0x0, symName: __Z13llm_arch_name8llm_arch, symObjAddr: 0xDF0, symBinAddr: 0x6FDC, symSize: 0x58 }
  - { offset: 0x5E5E9, size: 0x8, addend: 0x0, symName: __Z20llm_arch_from_stringRKNSt3__112basic_stringIcNS_11char_traitsIcEENS_9allocatorIcEEEE, symObjAddr: 0xE48, symBinAddr: 0x7034, symSize: 0x108 }
  - { offset: 0x5E988, size: 0x8, addend: 0x0, symName: __Z19llm_tensor_info_for10llm_tensor, symObjAddr: 0xF50, symBinAddr: 0x713C, symSize: 0x50 }
  - { offset: 0x5EA74, size: 0x8, addend: 0x0, symName: __Z21llm_arch_is_recurrentRK8llm_arch, symObjAddr: 0xFA0, symBinAddr: 0x718C, symSize: 0x20 }
  - { offset: 0x5EAA4, size: 0x8, addend: 0x0, symName: __Z18llm_arch_is_hybridRK8llm_arch, symObjAddr: 0xFC0, symBinAddr: 0x71AC, symSize: 0x40 }
  - { offset: 0x5EAD4, size: 0x8, addend: 0x0, symName: __Z21llm_arch_is_diffusionRK8llm_arch, symObjAddr: 0x1000, symBinAddr: 0x71EC, symSize: 0x20 }
  - { offset: 0x5ED95, size: 0x8, addend: 0x0, symName: __ZNSt3__16__treeI10llm_tensorNS_4lessIS1_EENS_9allocatorIS1_EEE12__find_equalIS1_EERPNS_16__tree_node_baseIPvEENS_21__tree_const_iteratorIS1_PNS_11__tree_nodeIS1_S9_EElEERPNS_15__tree_end_nodeISB_EESC_RKT_, symObjAddr: 0x1110, symBinAddr: 0x72FC, symSize: 0x1B0 }
  - { offset: 0x5EDF8, size: 0x8, addend: 0x0, symName: __ZNSt3__16__treeI10llm_tensorNS_4lessIS1_EENS_9allocatorIS1_EEE12__find_equalIS1_EERPNS_16__tree_node_baseIPvEENS_21__tree_const_iteratorIS1_PNS_11__tree_nodeIS1_S9_EElEERPNS_15__tree_end_nodeISB_EESC_RKT_, symObjAddr: 0x1110, symBinAddr: 0x72FC, symSize: 0x1B0 }
  - { offset: 0x5EE14, size: 0x8, addend: 0x0, symName: __ZNSt3__16__treeI10llm_tensorNS_4lessIS1_EENS_9allocatorIS1_EEE12__find_equalIS1_EERPNS_16__tree_node_baseIPvEENS_21__tree_const_iteratorIS1_PNS_11__tree_nodeIS1_S9_EElEERPNS_15__tree_end_nodeISB_EESC_RKT_, symObjAddr: 0x1110, symBinAddr: 0x72FC, symSize: 0x1B0 }
  - { offset: 0x5F09F, size: 0x8, addend: 0x0, symName: __ZNSt3__16__treeI10llm_tensorNS_4lessIS1_EENS_9allocatorIS1_EEE7destroyEPNS_11__tree_nodeIS1_PvEE, symObjAddr: 0x147C, symBinAddr: 0x74AC, symSize: 0x44 }
  - { offset: 0x5F5EC, size: 0x8, addend: 0x0, symName: __ZNSt3__13mapI8llm_archPKcNS_4lessIS1_EENS_9allocatorINS_4pairIKS1_S3_EEEEEC2B8ne200100ESt16initializer_listIS9_ERKS5_, symObjAddr: 0x14C0, symBinAddr: 0x74F0, symSize: 0xF0 }
  - { offset: 0x5F96E, size: 0x8, addend: 0x0, symName: __ZNSt3__16__treeINS_12__value_typeI8llm_archPKcEENS_19__map_value_compareIS2_S5_NS_4lessIS2_EELb1EEENS_9allocatorIS5_EEE12__find_equalIS2_EERPNS_16__tree_node_baseIPvEENS_21__tree_const_iteratorIS5_PNS_11__tree_nodeIS5_SF_EElEERPNS_15__tree_end_nodeISH_EESI_RKT_, symObjAddr: 0x15B0, symBinAddr: 0x75E0, symSize: 0x1B0 }
  - { offset: 0x5F9D1, size: 0x8, addend: 0x0, symName: __ZNSt3__16__treeINS_12__value_typeI8llm_archPKcEENS_19__map_value_compareIS2_S5_NS_4lessIS2_EELb1EEENS_9allocatorIS5_EEE12__find_equalIS2_EERPNS_16__tree_node_baseIPvEENS_21__tree_const_iteratorIS5_PNS_11__tree_nodeIS5_SF_EElEERPNS_15__tree_end_nodeISH_EESI_RKT_, symObjAddr: 0x15B0, symBinAddr: 0x75E0, symSize: 0x1B0 }
  - { offset: 0x5F9ED, size: 0x8, addend: 0x0, symName: __ZNSt3__16__treeINS_12__value_typeI8llm_archPKcEENS_19__map_value_compareIS2_S5_NS_4lessIS2_EELb1EEENS_9allocatorIS5_EEE12__find_equalIS2_EERPNS_16__tree_node_baseIPvEENS_21__tree_const_iteratorIS5_PNS_11__tree_nodeIS5_SF_EElEERPNS_15__tree_end_nodeISH_EESI_RKT_, symObjAddr: 0x15B0, symBinAddr: 0x75E0, symSize: 0x1B0 }
  - { offset: 0x600B7, size: 0x8, addend: 0x0, symName: __ZNSt3__13mapI6llm_kvPKcNS_4lessIS1_EENS_9allocatorINS_4pairIKS1_S3_EEEEEC2B8ne200100ESt16initializer_listIS9_ERKS5_, symObjAddr: 0x17A4, symBinAddr: 0x77D4, symSize: 0xF0 }
  - { offset: 0x60439, size: 0x8, addend: 0x0, symName: __ZNSt3__16__treeINS_12__value_typeI6llm_kvPKcEENS_19__map_value_compareIS2_S5_NS_4lessIS2_EELb1EEENS_9allocatorIS5_EEE12__find_equalIS2_EERPNS_16__tree_node_baseIPvEENS_21__tree_const_iteratorIS5_PNS_11__tree_nodeIS5_SF_EElEERPNS_15__tree_end_nodeISH_EESI_RKT_, symObjAddr: 0x1894, symBinAddr: 0x78C4, symSize: 0x1B0 }
  - { offset: 0x6049C, size: 0x8, addend: 0x0, symName: __ZNSt3__16__treeINS_12__value_typeI6llm_kvPKcEENS_19__map_value_compareIS2_S5_NS_4lessIS2_EELb1EEENS_9allocatorIS5_EEE12__find_equalIS2_EERPNS_16__tree_node_baseIPvEENS_21__tree_const_iteratorIS5_PNS_11__tree_nodeIS5_SF_EElEERPNS_15__tree_end_nodeISH_EESI_RKT_, symObjAddr: 0x1894, symBinAddr: 0x78C4, symSize: 0x1B0 }
  - { offset: 0x604B8, size: 0x8, addend: 0x0, symName: __ZNSt3__16__treeINS_12__value_typeI6llm_kvPKcEENS_19__map_value_compareIS2_S5_NS_4lessIS2_EELb1EEENS_9allocatorIS5_EEE12__find_equalIS2_EERPNS_16__tree_node_baseIPvEENS_21__tree_const_iteratorIS5_PNS_11__tree_nodeIS5_SF_EElEERPNS_15__tree_end_nodeISH_EESI_RKT_, symObjAddr: 0x1894, symBinAddr: 0x78C4, symSize: 0x1B0 }
  - { offset: 0x60BCC, size: 0x8, addend: 0x0, symName: __ZNSt3__13mapI10llm_tensorPKcNS_4lessIS1_EENS_9allocatorINS_4pairIKS1_S3_EEEEEC2B8ne200100ESt16initializer_listIS9_ERKS5_, symObjAddr: 0x1A88, symBinAddr: 0x7AB8, symSize: 0xF0 }
  - { offset: 0x60F4E, size: 0x8, addend: 0x0, symName: __ZNSt3__16__treeINS_12__value_typeI10llm_tensorPKcEENS_19__map_value_compareIS2_S5_NS_4lessIS2_EELb1EEENS_9allocatorIS5_EEE12__find_equalIS2_EERPNS_16__tree_node_baseIPvEENS_21__tree_const_iteratorIS5_PNS_11__tree_nodeIS5_SF_EElEERPNS_15__tree_end_nodeISH_EESI_RKT_, symObjAddr: 0x1B78, symBinAddr: 0x7BA8, symSize: 0x1B0 }
  - { offset: 0x60FB1, size: 0x8, addend: 0x0, symName: __ZNSt3__16__treeINS_12__value_typeI10llm_tensorPKcEENS_19__map_value_compareIS2_S5_NS_4lessIS2_EELb1EEENS_9allocatorIS5_EEE12__find_equalIS2_EERPNS_16__tree_node_baseIPvEENS_21__tree_const_iteratorIS5_PNS_11__tree_nodeIS5_SF_EElEERPNS_15__tree_end_nodeISH_EESI_RKT_, symObjAddr: 0x1B78, symBinAddr: 0x7BA8, symSize: 0x1B0 }
  - { offset: 0x60FCD, size: 0x8, addend: 0x0, symName: __ZNSt3__16__treeINS_12__value_typeI10llm_tensorPKcEENS_19__map_value_compareIS2_S5_NS_4lessIS2_EELb1EEENS_9allocatorIS5_EEE12__find_equalIS2_EERPNS_16__tree_node_baseIPvEENS_21__tree_const_iteratorIS5_PNS_11__tree_nodeIS5_SF_EElEERPNS_15__tree_end_nodeISH_EESI_RKT_, symObjAddr: 0x1B78, symBinAddr: 0x7BA8, symSize: 0x1B0 }
  - { offset: 0x616B3, size: 0x8, addend: 0x0, symName: __ZNSt3__13mapI10llm_tensor15llm_tensor_infoNS_4lessIS1_EENS_9allocatorINS_4pairIKS1_S2_EEEEEC2B8ne200100ESt16initializer_listIS8_ERKS4_, symObjAddr: 0x1D6C, symBinAddr: 0x7D9C, symSize: 0xFC }
  - { offset: 0x61A35, size: 0x8, addend: 0x0, symName: __ZNSt3__16__treeINS_12__value_typeI10llm_tensor15llm_tensor_infoEENS_19__map_value_compareIS2_S4_NS_4lessIS2_EELb1EEENS_9allocatorIS4_EEE12__find_equalIS2_EERPNS_16__tree_node_baseIPvEENS_21__tree_const_iteratorIS4_PNS_11__tree_nodeIS4_SE_EElEERPNS_15__tree_end_nodeISG_EESH_RKT_, symObjAddr: 0x1E68, symBinAddr: 0x7E98, symSize: 0x1B0 }
  - { offset: 0x61A98, size: 0x8, addend: 0x0, symName: __ZNSt3__16__treeINS_12__value_typeI10llm_tensor15llm_tensor_infoEENS_19__map_value_compareIS2_S4_NS_4lessIS2_EELb1EEENS_9allocatorIS4_EEE12__find_equalIS2_EERPNS_16__tree_node_baseIPvEENS_21__tree_const_iteratorIS4_PNS_11__tree_nodeIS4_SE_EElEERPNS_15__tree_end_nodeISG_EESH_RKT_, symObjAddr: 0x1E68, symBinAddr: 0x7E98, symSize: 0x1B0 }
  - { offset: 0x61AB4, size: 0x8, addend: 0x0, symName: __ZNSt3__16__treeINS_12__value_typeI10llm_tensor15llm_tensor_infoEENS_19__map_value_compareIS2_S4_NS_4lessIS2_EELb1EEENS_9allocatorIS4_EEE12__find_equalIS2_EERPNS_16__tree_node_baseIPvEENS_21__tree_const_iteratorIS4_PNS_11__tree_nodeIS4_SE_EElEERPNS_15__tree_end_nodeISG_EESH_RKT_, symObjAddr: 0x1E68, symBinAddr: 0x7E98, symSize: 0x1B0 }
  - { offset: 0x6209F, size: 0x8, addend: 0x0, symName: __GLOBAL__sub_I_llama_arch.cpp, symObjAddr: 0x4278, symBinAddr: 0x808C, symSize: 0x154 }
  - { offset: 0x73C7B, size: 0x8, addend: 0x0, symName: __ZNSt3__124__put_character_sequenceB8ne200100IcNS_11char_traitsIcEEEERNS_13basic_ostreamIT_T0_EES7_PKS4_m, symObjAddr: 0x59B8, symBinAddr: 0xD944, symSize: 0x170 }
  - { offset: 0x7AFD5, size: 0x8, addend: 0x0, symName: __ZNSt3__116__pad_and_outputB8ne200100IcNS_11char_traitsIcEEEENS_19ostreambuf_iteratorIT_T0_EES6_PKS4_S8_S8_RNS_8ios_baseES4_, symObjAddr: 0x5B28, symBinAddr: 0xDAB4, symSize: 0x1A4 }
  - { offset: 0x7F635, size: 0x8, addend: 0x0, symName: __ZN18llama_batch_allocrC2Ej, symObjAddr: 0x0, symBinAddr: 0x81E0, symSize: 0x2D0 }
  - { offset: 0x80415, size: 0x8, addend: 0x0, symName: __ZNSt3__16vectorINS_3setIiNS_4lessIiEENS_9allocatorIiEEEENS4_IS6_EEE8__appendEm, symObjAddr: 0x4940, symBinAddr: 0xCB10, symSize: 0x224 }
  - { offset: 0x80AB9, size: 0x8, addend: 0x0, symName: __ZNSt3__16vectorINS_3setIiNS_4lessIiEENS_9allocatorIiEEEENS4_IS6_EEE20__throw_length_errorB8ne200100Ev, symObjAddr: 0x4B64, symBinAddr: 0xCD34, symSize: 0x14 }
  - { offset: 0x80AC4, size: 0x8, addend: 0x0, symName: __ZNSt3__16vectorINS0_IbNS_9allocatorIbEEEENS1_IS3_EEE8__appendEm, symObjAddr: 0x4C14, symBinAddr: 0xCD48, symSize: 0x1CC }
  - { offset: 0x81127, size: 0x8, addend: 0x0, symName: __ZNSt3__16vectorINS0_IbNS_9allocatorIbEEEENS1_IS3_EEE20__throw_length_errorB8ne200100Ev, symObjAddr: 0x4DE0, symBinAddr: 0xCF14, symSize: 0x14 }
  - { offset: 0x81132, size: 0x8, addend: 0x0, symName: __ZNSt3__16vectorIbNS_9allocatorIbEEE6resizeEmb, symObjAddr: 0x2D0, symBinAddr: 0x84B0, symSize: 0x264 }
  - { offset: 0x81916, size: 0x8, addend: 0x0, symName: __ZNSt3__16vectorIiNS_9allocatorIiEEE8__appendEmRKi, symObjAddr: 0x4F10, symBinAddr: 0xD044, symSize: 0x234 }
  - { offset: 0x81D6B, size: 0x8, addend: 0x0, symName: __ZNSt3__113unordered_mapINS_6bitsetILm256EEENS_6vectorIiNS_9allocatorIiEEEENS_4hashIS2_EENS_8equal_toIS2_EENS4_INS_4pairIKS2_S6_EEEEED1B8ne200100Ev, symObjAddr: 0x534, symBinAddr: 0x8714, symSize: 0x68 }
  - { offset: 0x8218F, size: 0x8, addend: 0x0, symName: __ZNSt3__16vectorINS0_IbNS_9allocatorIbEEEENS1_IS3_EEED1B8ne200100Ev, symObjAddr: 0x59C, symBinAddr: 0x877C, symSize: 0x68 }
  - { offset: 0x823FD, size: 0x8, addend: 0x0, symName: __ZNSt3__16vectorINS_3setIiNS_4lessIiEENS_9allocatorIiEEEENS4_IS6_EEED1B8ne200100Ev, symObjAddr: 0x604, symBinAddr: 0x87E4, symSize: 0x68 }
  - { offset: 0x8282A, size: 0x8, addend: 0x0, symName: __ZNSt3__16vectorIbNS_9allocatorIbEEE7reserveEm, symObjAddr: 0x4DF4, symBinAddr: 0xCF28, symSize: 0x108 }
  - { offset: 0x82C3F, size: 0x8, addend: 0x0, symName: __ZNSt3__16vectorIbNS_9allocatorIbEEE20__throw_length_errorB8ne200100Ev, symObjAddr: 0x4EFC, symBinAddr: 0xD030, symSize: 0x14 }
  - { offset: 0x82C4A, size: 0x8, addend: 0x0, symName: __ZNSt3__16vectorIbNS_9allocatorIbEEE20__throw_length_errorB8ne200100Ev, symObjAddr: 0x4EFC, symBinAddr: 0xD030, symSize: 0x14 }
  - { offset: 0x82C62, size: 0x8, addend: 0x0, symName: __ZNSt3__16vectorIiNS_9allocatorIiEEE8__appendEmRKi, symObjAddr: 0x4F10, symBinAddr: 0xD044, symSize: 0x234 }
  - { offset: 0x8315D, size: 0x8, addend: 0x0, symName: __ZNSt3__16__treeIiNS_4lessIiEENS_9allocatorIiEEE7destroyEPNS_11__tree_nodeIiPvEE, symObjAddr: 0x48FC, symBinAddr: 0xCACC, symSize: 0x44 }
  - { offset: 0x83274, size: 0x8, addend: 0x0, symName: __ZN18llama_batch_allocrC1Ej, symObjAddr: 0x66C, symBinAddr: 0x884C, symSize: 0x4 }
  - { offset: 0x832B0, size: 0x8, addend: 0x0, symName: __ZN18llama_batch_allocrC1Ej, symObjAddr: 0x66C, symBinAddr: 0x884C, symSize: 0x4 }
  - { offset: 0x84A0A, size: 0x8, addend: 0x0, symName: __ZN18llama_batch_allocr4initERK11llama_batchRK11llama_vocabPK14llama_memory_ijjb, symObjAddr: 0x670, symBinAddr: 0x8850, symSize: 0x18C0 }
  - { offset: 0x88692, size: 0x8, addend: 0x0, symName: __ZN18llama_batch_allocr5clearEv, symObjAddr: 0x1F30, symBinAddr: 0xA110, symSize: 0x194 }
  - { offset: 0x89251, size: 0x8, addend: 0x0, symName: __ZNSt3__16vectorIPiNS_9allocatorIS1_EEE8__appendEm, symObjAddr: 0x5278, symBinAddr: 0xD278, symSize: 0x120 }
  - { offset: 0x8925C, size: 0x8, addend: 0x0, symName: __ZNSt3__16vectorIPiNS_9allocatorIS1_EEE8__appendEm, symObjAddr: 0x5278, symBinAddr: 0xD278, symSize: 0x120 }
  - { offset: 0x8963A, size: 0x8, addend: 0x0, symName: __ZNSt3__16vectorIPiNS_9allocatorIS1_EEE20__throw_length_errorB8ne200100Ev, symObjAddr: 0x5398, symBinAddr: 0xD398, symSize: 0x14 }
  - { offset: 0x89657, size: 0x8, addend: 0x0, symName: __ZNSt3__112__hash_tableINS_17__hash_value_typeINS_6bitsetILm256EEENS_6vectorIiNS_9allocatorIiEEEEEENS_22__unordered_map_hasherIS3_S8_NS_4hashIS3_EENS_8equal_toIS3_EELb1EEENS_21__unordered_map_equalIS3_S8_SD_SB_Lb1EEENS5_IS8_EEE25__emplace_unique_key_argsIS3_JRKNS_21piecewise_construct_tENS_5tupleIJRKS3_EEENSN_IJEEEEEENS_4pairINS_15__hash_iteratorIPNS_11__hash_nodeIS8_PvEEEEbEERKT_DpOT0_, symObjAddr: 0x5448, symBinAddr: 0xD3D4, symSize: 0x390 }
  - { offset: 0x89E71, size: 0x8, addend: 0x0, symName: __ZN18llama_batch_allocr12ubatch_printERK12llama_ubatchi, symObjAddr: 0x21B0, symBinAddr: 0xA390, symSize: 0x9A4 }
  - { offset: 0x8B22B, size: 0x8, addend: 0x0, symName: __ZNSt3__118basic_stringstreamIcNS_11char_traitsIcEENS_9allocatorIcEEEC1B8ne200100Ev, symObjAddr: 0x2B54, symBinAddr: 0xAD34, symSize: 0x194 }
  - { offset: 0x8B596, size: 0x8, addend: 0x0, symName: __ZNSt3__16vectorINS_6bitsetILm256EEENS_9allocatorIS2_EEE20__throw_length_errorB8ne200100Ev, symObjAddr: 0x5434, symBinAddr: 0xD3C0, symSize: 0x14 }
  - { offset: 0x8B5AE, size: 0x8, addend: 0x0, symName: __ZNSt3__112__hash_tableINS_17__hash_value_typeINS_6bitsetILm256EEENS_6vectorIiNS_9allocatorIiEEEEEENS_22__unordered_map_hasherIS3_S8_NS_4hashIS3_EENS_8equal_toIS3_EELb1EEENS_21__unordered_map_equalIS3_S8_SD_SB_Lb1EEENS5_IS8_EEE25__emplace_unique_key_argsIS3_JRKNS_21piecewise_construct_tENS_5tupleIJRKS3_EEENSN_IJEEEEEENS_4pairINS_15__hash_iteratorIPNS_11__hash_nodeIS8_PvEEEEbEERKT_DpOT0_, symObjAddr: 0x5448, symBinAddr: 0xD3D4, symSize: 0x390 }
  - { offset: 0x8B5D3, size: 0x8, addend: 0x0, symName: __ZNSt3__16vectorIaNS_9allocatorIaEEE20__throw_length_errorB8ne200100Ev, symObjAddr: 0x53AC, symBinAddr: 0xD3AC, symSize: 0x14 }
  - { offset: 0x8B5FC, size: 0x8, addend: 0x0, symName: __ZN12llama_ubatchD1Ev, symObjAddr: 0x2DE8, symBinAddr: 0xAFC8, symSize: 0x5C }
  - { offset: 0x8B6C8, size: 0x8, addend: 0x0, symName: __ZNSt3__118basic_stringstreamIcNS_11char_traitsIcEENS_9allocatorIcEEED1Ev, symObjAddr: 0x2D60, symBinAddr: 0xAF40, symSize: 0x88 }
  - { offset: 0x8B967, size: 0x8, addend: 0x0, symName: __ZNSt3__16vectorIiNS_9allocatorIiEEE9push_backB8ne200100ERKi, symObjAddr: 0x20C4, symBinAddr: 0xA2A4, symSize: 0xEC }
  - { offset: 0x8BD6C, size: 0x8, addend: 0x0, symName: __ZN18llama_batch_allocr12ubatch_printERK12llama_ubatchi, symObjAddr: 0x21B0, symBinAddr: 0xA390, symSize: 0x9A4 }
  - { offset: 0x8C159, size: 0x8, addend: 0x0, symName: __ZNK18llama_batch_allocr11seq_pos_minEi, symObjAddr: 0x2CE8, symBinAddr: 0xAEC8, symSize: 0x28 }
  - { offset: 0x8C184, size: 0x8, addend: 0x0, symName: __ZNK18llama_batch_allocr11seq_pos_minEi, symObjAddr: 0x2CE8, symBinAddr: 0xAEC8, symSize: 0x28 }
  - { offset: 0x8C1F9, size: 0x8, addend: 0x0, symName: __ZNK18llama_batch_allocr11seq_pos_maxEi, symObjAddr: 0x2D10, symBinAddr: 0xAEF0, symSize: 0x50 }
  - { offset: 0x8C224, size: 0x8, addend: 0x0, symName: __ZNK18llama_batch_allocr11seq_pos_maxEi, symObjAddr: 0x2D10, symBinAddr: 0xAEF0, symSize: 0x50 }
  - { offset: 0x8C394, size: 0x8, addend: 0x0, symName: __ZN18llama_batch_allocr11split_resetEv, symObjAddr: 0x2E44, symBinAddr: 0xB024, symSize: 0x20 }
  - { offset: 0x8C3B8, size: 0x8, addend: 0x0, symName: __ZN18llama_batch_allocr11split_resetEv, symObjAddr: 0x2E44, symBinAddr: 0xB024, symSize: 0x20 }
  - { offset: 0x8C3D7, size: 0x8, addend: 0x0, symName: __ZN18llama_batch_allocr11split_resetEv, symObjAddr: 0x2E44, symBinAddr: 0xB024, symSize: 0x20 }
  - { offset: 0x8C8AA, size: 0x8, addend: 0x0, symName: __ZN18llama_batch_allocr14ubatch_reserveEjj, symObjAddr: 0x2E64, symBinAddr: 0xB044, symSize: 0x458 }
  - { offset: 0x8D9F1, size: 0x8, addend: 0x0, symName: __ZNSt3__110shared_ptrIN12llama_ubatch6data_tEED1B8ne200100Ev, symObjAddr: 0x32BC, symBinAddr: 0xB49C, symSize: 0x5C }
  - { offset: 0x8DA86, size: 0x8, addend: 0x0, symName: __ZNK18llama_batch_allocr9get_batchEv, symObjAddr: 0x3318, symBinAddr: 0xB4F8, symSize: 0x4 }
  - { offset: 0x8DAAE, size: 0x8, addend: 0x0, symName: __ZNK18llama_batch_allocr12get_n_tokensEv, symObjAddr: 0x331C, symBinAddr: 0xB4FC, symSize: 0x8 }
  - { offset: 0x8DAD0, size: 0x8, addend: 0x0, symName: __ZNK18llama_batch_allocr13get_n_outputsEv, symObjAddr: 0x3324, symBinAddr: 0xB504, symSize: 0x8 }
  - { offset: 0x8DAFA, size: 0x8, addend: 0x0, symName: __ZNK18llama_batch_allocr10get_n_usedEv, symObjAddr: 0x332C, symBinAddr: 0xB50C, symSize: 0x8 }
  - { offset: 0x8DB24, size: 0x8, addend: 0x0, symName: __ZN18llama_batch_allocr11get_out_idsEv, symObjAddr: 0x3334, symBinAddr: 0xB514, symSize: 0x8 }
  - { offset: 0x8DB4E, size: 0x8, addend: 0x0, symName: __ZN18llama_batch_allocr12split_simpleEj, symObjAddr: 0x333C, symBinAddr: 0xB51C, symSize: 0x200 }
  - { offset: 0x8E2B2, size: 0x8, addend: 0x0, symName: __ZN18llama_batch_allocr10ubatch_addERKNSt3__16vectorIiNS0_9allocatorIiEEEEjb, symObjAddr: 0x353C, symBinAddr: 0xB71C, symSize: 0x8A0 }
  - { offset: 0x8FFD3, size: 0x8, addend: 0x0, symName: __ZNSt3__16vectorIfNS_9allocatorIfEEE8__appendEm, symObjAddr: 0x6254, symBinAddr: 0xE1CC, symSize: 0x120 }
  - { offset: 0x903B1, size: 0x8, addend: 0x0, symName: __ZNSt3__16vectorIfNS_9allocatorIfEEE20__throw_length_errorB8ne200100Ev, symObjAddr: 0x6374, symBinAddr: 0xE2EC, symSize: 0x14 }
  - { offset: 0x908C5, size: 0x8, addend: 0x0, symName: __ZN18llama_batch_allocr11split_equalEjb, symObjAddr: 0x3DDC, symBinAddr: 0xBFBC, symSize: 0x678 }
  - { offset: 0x92222, size: 0x8, addend: 0x0, symName: __ZNSt3__16vectorIiNS_9allocatorIiEEE18__insert_with_sizeB8ne200100INS_11__wrap_iterIPiEES7_EES7_NS5_IPKiEET_T0_l, symObjAddr: 0x5E58, symBinAddr: 0xDDD0, symSize: 0x3FC }
  - { offset: 0x92CF4, size: 0x8, addend: 0x0, symName: __ZNSt3__16vectorIfNS_9allocatorIfEEE8__appendEm, symObjAddr: 0x6254, symBinAddr: 0xE1CC, symSize: 0x120 }
  - { offset: 0x92D11, size: 0x8, addend: 0x0, symName: __ZNSt3__128__exception_guard_exceptionsINS_6vectorINS1_IiNS_9allocatorIiEEEENS2_IS4_EEE16__destroy_vectorEED1B8ne200100Ev, symObjAddr: 0x5DD4, symBinAddr: 0xDD4C, symSize: 0x84 }
  - { offset: 0x92F9E, size: 0x8, addend: 0x0, symName: __ZNSt3__16vectorINS0_IiNS_9allocatorIiEEEENS1_IS3_EEED1B8ne200100Ev, symObjAddr: 0x4454, symBinAddr: 0xC634, symSize: 0x74 }
  - { offset: 0x93265, size: 0x8, addend: 0x0, symName: __ZN18llama_batch_allocr9split_seqEj, symObjAddr: 0x44C8, symBinAddr: 0xC6A8, symSize: 0x2A8 }
  - { offset: 0x93B7F, size: 0x8, addend: 0x0, symName: _llama_batch_get_one, symObjAddr: 0x4770, symBinAddr: 0xC950, symSize: 0x1C }
  - { offset: 0x93BB7, size: 0x8, addend: 0x0, symName: _llama_batch_init, symObjAddr: 0x478C, symBinAddr: 0xC96C, symSize: 0xD0 }
  - { offset: 0x93CB0, size: 0x8, addend: 0x0, symName: _llama_batch_free, symObjAddr: 0x485C, symBinAddr: 0xCA3C, symSize: 0x90 }
  - { offset: 0x9427F, size: 0x8, addend: 0x0, symName: __ZNSt3__16vectorINS_3setIiNS_4lessIiEENS_9allocatorIiEEEENS4_IS6_EEE20__throw_length_errorB8ne200100Ev, symObjAddr: 0x4B64, symBinAddr: 0xCD34, symSize: 0x14 }
  - { offset: 0x9468A, size: 0x8, addend: 0x0, symName: __ZNSt3__16vectorINS0_IbNS_9allocatorIbEEEENS1_IS3_EEE20__throw_length_errorB8ne200100Ev, symObjAddr: 0x4DE0, symBinAddr: 0xCF14, symSize: 0x14 }
  - { offset: 0x946A2, size: 0x8, addend: 0x0, symName: __ZNSt3__16vectorIbNS_9allocatorIbEEE7reserveEm, symObjAddr: 0x4DF4, symBinAddr: 0xCF28, symSize: 0x108 }
  - { offset: 0x94CAD, size: 0x8, addend: 0x0, symName: __ZNSt3__16vectorIPiNS_9allocatorIS1_EEE20__throw_length_errorB8ne200100Ev, symObjAddr: 0x5398, symBinAddr: 0xD398, symSize: 0x14 }
  - { offset: 0x94CC5, size: 0x8, addend: 0x0, symName: __ZNSt3__16vectorIaNS_9allocatorIaEEE20__throw_length_errorB8ne200100Ev, symObjAddr: 0x53AC, symBinAddr: 0xD3AC, symSize: 0x14 }
  - { offset: 0x952E1, size: 0x8, addend: 0x0, symName: __ZNSt3__112__hash_tableINS_17__hash_value_typeINS_6bitsetILm256EEENS_6vectorIiNS_9allocatorIiEEEEEENS_22__unordered_map_hasherIS3_S8_NS_4hashIS3_EENS_8equal_toIS3_EELb1EEENS_21__unordered_map_equalIS3_S8_SD_SB_Lb1EEENS5_IS8_EEE11__do_rehashILb1EEEvm, symObjAddr: 0x5838, symBinAddr: 0xD7C4, symSize: 0x180 }
  - { offset: 0x9566E, size: 0x8, addend: 0x0, symName: __ZNSt3__124__put_character_sequenceB8ne200100IcNS_11char_traitsIcEEEERNS_13basic_ostreamIT_T0_EES7_PKS4_m, symObjAddr: 0x59B8, symBinAddr: 0xD944, symSize: 0x170 }
  - { offset: 0x95683, size: 0x8, addend: 0x0, symName: __ZNSt3__110unique_ptrINS_11__hash_nodeINS_17__hash_value_typeINS_6bitsetILm256EEENS_6vectorIiNS_9allocatorIiEEEEEEPvEENS_22__hash_node_destructorINS6_ISB_EEEEED1B8ne200100Ev, symObjAddr: 0x57D8, symBinAddr: 0xD764, symSize: 0x60 }
  - { offset: 0x95EB7, size: 0x8, addend: 0x0, symName: __ZNSt3__120__shared_ptr_emplaceIN12llama_ubatch6data_tENS_9allocatorIS2_EEED1Ev, symObjAddr: 0x5CE0, symBinAddr: 0xDC58, symSize: 0x14 }
  - { offset: 0x95EDE, size: 0x8, addend: 0x0, symName: __ZNSt3__120__shared_ptr_emplaceIN12llama_ubatch6data_tENS_9allocatorIS2_EEED1Ev, symObjAddr: 0x5CE0, symBinAddr: 0xDC58, symSize: 0x14 }
  - { offset: 0x95F00, size: 0x8, addend: 0x0, symName: __ZNSt3__120__shared_ptr_emplaceIN12llama_ubatch6data_tENS_9allocatorIS2_EEED1Ev, symObjAddr: 0x5CE0, symBinAddr: 0xDC58, symSize: 0x14 }
  - { offset: 0x95F36, size: 0x8, addend: 0x0, symName: __ZNSt3__120__shared_ptr_emplaceIN12llama_ubatch6data_tENS_9allocatorIS2_EEED0Ev, symObjAddr: 0x5CF4, symBinAddr: 0xDC6C, symSize: 0x24 }
  - { offset: 0x96056, size: 0x8, addend: 0x0, symName: __ZNSt3__120__shared_ptr_emplaceIN12llama_ubatch6data_tENS_9allocatorIS2_EEE16__on_zero_sharedEv, symObjAddr: 0x5D18, symBinAddr: 0xDC90, symSize: 0x8 }
  - { offset: 0x9607F, size: 0x8, addend: 0x0, symName: __ZNSt3__120__shared_ptr_emplaceIN12llama_ubatch6data_tENS_9allocatorIS2_EEE16__on_zero_sharedEv, symObjAddr: 0x5D18, symBinAddr: 0xDC90, symSize: 0x8 }
  - { offset: 0x960A3, size: 0x8, addend: 0x0, symName: __ZNSt3__120__shared_ptr_emplaceIN12llama_ubatch6data_tENS_9allocatorIS2_EEE16__on_zero_sharedEv, symObjAddr: 0x5D18, symBinAddr: 0xDC90, symSize: 0x8 }
  - { offset: 0x9610C, size: 0x8, addend: 0x0, symName: __ZN12llama_ubatch6data_tD2Ev, symObjAddr: 0x5D24, symBinAddr: 0xDC9C, symSize: 0xB0 }
  - { offset: 0x96BFC, size: 0x8, addend: 0x0, symName: __ZNSt3__120__shared_ptr_emplaceIN12llama_ubatch6data_tENS_9allocatorIS2_EEE21__on_zero_shared_weakEv, symObjAddr: 0x5D20, symBinAddr: 0xDC98, symSize: 0x4 }
  - { offset: 0x96C30, size: 0x8, addend: 0x0, symName: __ZNSt3__120__shared_ptr_emplaceIN12llama_ubatch6data_tENS_9allocatorIS2_EEE21__on_zero_shared_weakEv, symObjAddr: 0x5D20, symBinAddr: 0xDC98, symSize: 0x4 }
  - { offset: 0x96C52, size: 0x8, addend: 0x0, symName: __ZNSt3__120__shared_ptr_emplaceIN12llama_ubatch6data_tENS_9allocatorIS2_EEE21__on_zero_shared_weakEv, symObjAddr: 0x5D20, symBinAddr: 0xDC98, symSize: 0x4 }
  - { offset: 0x96C75, size: 0x8, addend: 0x0, symName: __ZNSt3__120__shared_ptr_emplaceIN12llama_ubatch6data_tENS_9allocatorIS2_EEE21__on_zero_shared_weakEv, symObjAddr: 0x5D20, symBinAddr: 0xDC98, symSize: 0x4 }
  - { offset: 0x96CAA, size: 0x8, addend: 0x0, symName: __ZNSt3__120__shared_ptr_emplaceIN12llama_ubatch6data_tENS_9allocatorIS2_EEE21__on_zero_shared_weakEv, symObjAddr: 0x5D20, symBinAddr: 0xDC98, symSize: 0x4 }
  - { offset: 0x97321, size: 0x8, addend: 0x0, symName: __ZNSt3__16vectorIfNS_9allocatorIfEEE20__throw_length_errorB8ne200100Ev, symObjAddr: 0x6374, symBinAddr: 0xE2EC, symSize: 0x14 }
  - { offset: 0x9922E, size: 0x8, addend: 0x0, symName: __ZL18LLM_CHAT_TEMPLATES, symObjAddr: 0x87FC0, symBinAddr: 0x360090, symSize: 0x0 }
  - { offset: 0xA100E, size: 0x8, addend: 0x0, symName: __ZNSt3__1eqB8ne200100IcNS_11char_traitsIcEENS_9allocatorIcEEEEbRKNS_12basic_stringIT_T0_T1_EEPKS6_, symObjAddr: 0x612C, symBinAddr: 0x141F4, symSize: 0x88 }
  - { offset: 0xA11AE, size: 0x8, addend: 0x0, symName: __ZNSt3__1neB8ne200100IcNS_11char_traitsIcEENS_9allocatorIcEEEEbRKNS_12basic_stringIT_T0_T1_EEPKS6_, symObjAddr: 0x6374, symBinAddr: 0x1443C, symSize: 0x88 }
  - { offset: 0xA3490, size: 0x8, addend: 0x0, symName: __ZNSt3__13mapINS_12basic_stringIcNS_11char_traitsIcEENS_9allocatorIcEEEE17llm_chat_templateNS_4lessIS6_EENS4_INS_4pairIKS6_S7_EEEEED1B8ne200100Ev, symObjAddr: 0x0, symBinAddr: 0xE300, symSize: 0x28 }
  - { offset: 0xA3544, size: 0x8, addend: 0x0, symName: __ZNSt3__16__treeINS_12__value_typeINS_12basic_stringIcNS_11char_traitsIcEENS_9allocatorIcEEEE17llm_chat_templateEENS_19__map_value_compareIS7_S9_NS_4lessIS7_EELb1EEENS5_IS9_EEE7destroyEPNS_11__tree_nodeIS9_PvEE, symObjAddr: 0x6D34, symBinAddr: 0x14AA8, symSize: 0x60 }
  - { offset: 0xA39F2, size: 0x8, addend: 0x0, symName: __Z26llm_chat_template_from_strRKNSt3__112basic_stringIcNS_11char_traitsIcEENS_9allocatorIcEEEE, symObjAddr: 0x28, symBinAddr: 0xE328, symSize: 0xF0 }
  - { offset: 0xA3D2C, size: 0x8, addend: 0x0, symName: __Z24llm_chat_detect_templateRKNSt3__112basic_stringIcNS_11char_traitsIcEENS_9allocatorIcEEEE, symObjAddr: 0x118, symBinAddr: 0xE418, symSize: 0x920 }
  - { offset: 0xA43D4, size: 0x8, addend: 0x0, symName: '__ZZ24llm_chat_detect_templateRKNSt3__112basic_stringIcNS_11char_traitsIcEENS_9allocatorIcEEEEENK3$_0clEPKc', symObjAddr: 0xA38, symBinAddr: 0xED38, symSize: 0xD8 }
  - { offset: 0xA4631, size: 0x8, addend: 0x0, symName: __ZNKSt3__112basic_stringIcNS_11char_traitsIcEENS_9allocatorIcEEE4findB8ne200100EPKcm, symObjAddr: 0xB10, symBinAddr: 0xEE10, symSize: 0xEC }
  - { offset: 0xA501E, size: 0x8, addend: 0x0, symName: __Z23llm_chat_apply_template17llm_chat_templateRKNSt3__16vectorIPK18llama_chat_messageNS0_9allocatorIS4_EEEERNS0_12basic_stringIcNS0_11char_traitsIcEENS5_IcEEEEb, symObjAddr: 0xBFC, symBinAddr: 0xEEFC, symSize: 0x52F8 }
  - { offset: 0xB6585, size: 0x8, addend: 0x0, symName: __ZL4trimRKNSt3__112basic_stringIcNS_11char_traitsIcEENS_9allocatorIcEEEE, symObjAddr: 0x61B4, symBinAddr: 0x1427C, symSize: 0x1C0 }
  - { offset: 0xB69B5, size: 0x8, addend: 0x0, symName: __ZNSt3__1neB8ne200100IcNS_11char_traitsIcEENS_9allocatorIcEEEEbRKNS_12basic_stringIT_T0_T1_EEPKS6_, symObjAddr: 0x6374, symBinAddr: 0x1443C, symSize: 0x88 }
  - { offset: 0xB6C73, size: 0x8, addend: 0x0, symName: __ZNSt3__1eqB8ne200100IcNS_11char_traitsIcEENS_9allocatorIcEEEEbRKNS_12basic_stringIT_T0_T1_EEPKS6_, symObjAddr: 0x612C, symBinAddr: 0x141F4, symSize: 0x88 }
  - { offset: 0xB71FE, size: 0x8, addend: 0x0, symName: _llama_chat_builtin_templates, symObjAddr: 0x6484, symBinAddr: 0x144C4, symSize: 0x90 }
  - { offset: 0xB7709, size: 0x8, addend: 0x0, symName: __ZNSt3__16__treeINS_12__value_typeINS_12basic_stringIcNS_11char_traitsIcEENS_9allocatorIcEEEE17llm_chat_templateEENS_19__map_value_compareIS7_S9_NS_4lessIS7_EELb1EEENS5_IS9_EEE30__emplace_hint_unique_key_argsIS7_JRKNS_4pairIKS7_S8_EEEEENSH_INS_15__tree_iteratorIS9_PNS_11__tree_nodeIS9_PvEElEEbEENS_21__tree_const_iteratorIS9_SQ_lEERKT_DpOT0_, symObjAddr: 0x6634, symBinAddr: 0x14554, symSize: 0xFC }
  - { offset: 0xB7A96, size: 0x8, addend: 0x0, symName: __ZNSt3__16__treeINS_12__value_typeINS_12basic_stringIcNS_11char_traitsIcEENS_9allocatorIcEEEE17llm_chat_templateEENS_19__map_value_compareIS7_S9_NS_4lessIS7_EELb1EEENS5_IS9_EEE12__find_equalIS7_EERPNS_16__tree_node_baseIPvEENS_21__tree_const_iteratorIS9_PNS_11__tree_nodeIS9_SI_EElEERPNS_15__tree_end_nodeISK_EESL_RKT_, symObjAddr: 0x6730, symBinAddr: 0x14650, symSize: 0x3F8 }
  - { offset: 0xB875E, size: 0x8, addend: 0x0, symName: __ZNSt3__110unique_ptrINS_11__tree_nodeINS_12__value_typeINS_12basic_stringIcNS_11char_traitsIcEENS_9allocatorIcEEEE17llm_chat_templateEEPvEENS_22__tree_node_destructorINS6_ISC_EEEEED1B8ne200100Ev, symObjAddr: 0x6B28, symBinAddr: 0x14A48, symSize: 0x60 }
  - { offset: 0xB9863, size: 0x8, addend: 0x0, symName: __GLOBAL__sub_I_llama_chat.cpp, symObjAddr: 0x7944, symBinAddr: 0x14B08, symSize: 0x8A8 }
  - { offset: 0xEC026, size: 0x8, addend: 0x0, symName: __ZNSt3__119piecewise_constructE, symObjAddr: 0x13168, symBinAddr: 0x2992B8, symSize: 0x0 }
  - { offset: 0xF3294, size: 0x8, addend: 0x0, symName: __ZNSt3__113__tree_removeB8ne200100IPNS_16__tree_node_baseIPvEEEEvT_S5_, symObjAddr: 0xE704, symBinAddr: 0x23618, symSize: 0x3B4 }
  - { offset: 0xFE668, size: 0x8, addend: 0x0, symName: __ZN13llama_contextC2ERK11llama_model20llama_context_params, symObjAddr: 0x0, symBinAddr: 0x153B0, symSize: 0x16EC }
  - { offset: 0x102747, size: 0x8, addend: 0x0, symName: __ZNK13llama_context12graph_get_cbEv, symObjAddr: 0x7AA0, symBinAddr: 0x1CDB0, symSize: 0x14 }
  - { offset: 0x1027A2, size: 0x8, addend: 0x0, symName: __ZNK13llama_context12graph_get_cbEv, symObjAddr: 0x7AA0, symBinAddr: 0x1CDB0, symSize: 0x14 }
  - { offset: 0x1027C5, size: 0x8, addend: 0x0, symName: __ZNK13llama_context12graph_get_cbEv, symObjAddr: 0x7AA0, symBinAddr: 0x1CDB0, symSize: 0x14 }
  - { offset: 0x1027E8, size: 0x8, addend: 0x0, symName: __ZNK13llama_context12graph_get_cbEv, symObjAddr: 0x7AA0, symBinAddr: 0x1CDB0, symSize: 0x14 }
  - { offset: 0x102804, size: 0x8, addend: 0x0, symName: __ZNK13llama_context12graph_get_cbEv, symObjAddr: 0x7AA0, symBinAddr: 0x1CDB0, symSize: 0x14 }
  - { offset: 0x102820, size: 0x8, addend: 0x0, symName: __ZNK13llama_context12graph_get_cbEv, symObjAddr: 0x7AA0, symBinAddr: 0x1CDB0, symSize: 0x14 }
  - { offset: 0x102839, size: 0x8, addend: 0x0, symName: __ZNK13llama_context12graph_get_cbEv, symObjAddr: 0x7AA0, symBinAddr: 0x1CDB0, symSize: 0x14 }
  - { offset: 0x102851, size: 0x8, addend: 0x0, symName: __ZNK13llama_context12graph_get_cbEv, symObjAddr: 0x7AA0, symBinAddr: 0x1CDB0, symSize: 0x14 }
  - { offset: 0x10286D, size: 0x8, addend: 0x0, symName: __ZNK13llama_context12graph_get_cbEv, symObjAddr: 0x7AA0, symBinAddr: 0x1CDB0, symSize: 0x14 }
  - { offset: 0x104CF9, size: 0x8, addend: 0x0, symName: __ZN13llama_context11set_samplerEiP13llama_sampler, symObjAddr: 0x16EC, symBinAddr: 0x16A9C, symSize: 0x360 }
  - { offset: 0x105872, size: 0x8, addend: 0x0, symName: __ZN13llama_context14output_reserveEi, symObjAddr: 0x1AFC, symBinAddr: 0x16EAC, symSize: 0x360 }
  - { offset: 0x10612F, size: 0x8, addend: 0x0, symName: __ZN13llama_context13sched_reserveEv, symObjAddr: 0x1E5C, symBinAddr: 0x1720C, symSize: 0x8BC }
  - { offset: 0x10746D, size: 0x8, addend: 0x0, symName: __ZNSt3__16vectorINS_10unique_ptrI12ggml_backend20ggml_backend_deleterEENS_9allocatorIS4_EEE20__throw_length_errorB8ne200100Ev, symObjAddr: 0xE558, symBinAddr: 0x235C8, symSize: 0x14 }
  - { offset: 0x107485, size: 0x8, addend: 0x0, symName: __ZNSt3__16vectorINS_4pairIP12ggml_backendPFvS3_iEEENS_9allocatorIS6_EEE20__throw_length_errorB8ne200100Ev, symObjAddr: 0xE56C, symBinAddr: 0x235DC, symSize: 0x14 }
  - { offset: 0x107490, size: 0x8, addend: 0x0, symName: __ZNSt3__16vectorIP12ggml_backendNS_9allocatorIS2_EEE20__throw_length_errorB8ne200100Ev, symObjAddr: 0xE594, symBinAddr: 0x235F0, symSize: 0x14 }
  - { offset: 0x1074A8, size: 0x8, addend: 0x0, symName: __ZNSt3__16vectorImNS_9allocatorImEEE20__throw_length_errorB8ne200100Ev, symObjAddr: 0xE5A8, symBinAddr: 0x23604, symSize: 0x14 }
  - { offset: 0x1074B3, size: 0x8, addend: 0x0, symName: __ZNSt3__16vectorImNS_9allocatorImEEE20__throw_length_errorB8ne200100Ev, symObjAddr: 0xE5A8, symBinAddr: 0x23604, symSize: 0x14 }
  - { offset: 0x1074E0, size: 0x8, addend: 0x0, symName: __ZNSt3__16vectorIP12ggml_backendNS_9allocatorIS2_EEE20__throw_length_errorB8ne200100Ev, symObjAddr: 0xE594, symBinAddr: 0x235F0, symSize: 0x14 }
  - { offset: 0x1074EB, size: 0x8, addend: 0x0, symName: __ZNSt3__16vectorINS_4pairIP12ggml_backendPFvS3_iEEENS_9allocatorIS6_EEE20__throw_length_errorB8ne200100Ev, symObjAddr: 0xE56C, symBinAddr: 0x235DC, symSize: 0x14 }
  - { offset: 0x107572, size: 0x8, addend: 0x0, symName: __ZNSt3__16vectorINS_10unique_ptrI12ggml_backend20ggml_backend_deleterEENS_9allocatorIS4_EEED1B8ne200100Ev, symObjAddr: 0x274C, symBinAddr: 0x17AC8, symSize: 0x70 }
  - { offset: 0x107760, size: 0x8, addend: 0x0, symName: __ZNSt3__110unique_ptrI18ggml_backend_sched26ggml_backend_sched_deleterED1B8ne200100Ev, symObjAddr: 0x27BC, symBinAddr: 0x17B38, symSize: 0x34 }
  - { offset: 0x1077F4, size: 0x8, addend: 0x0, symName: __ZNSt3__110unique_ptrI18llama_batch_allocrNS_14default_deleteIS1_EEED1B8ne200100Ev, symObjAddr: 0x27F0, symBinAddr: 0x17B6C, symSize: 0x3C }
  - { offset: 0x1078B6, size: 0x8, addend: 0x0, symName: __ZNSt3__16__treeINS_12__value_typeIiNS_6vectorIfNS_9allocatorIfEEEEEENS_19__map_value_compareIiS6_NS_4lessIiEELb1EEENS3_IS6_EEE7destroyEPNS_11__tree_nodeIS6_PvEE, symObjAddr: 0xE508, symBinAddr: 0x23578, symSize: 0x50 }
  - { offset: 0x107B6C, size: 0x8, addend: 0x0, symName: __ZN13llama_context13sampling_infoD1Ev, symObjAddr: 0x282C, symBinAddr: 0x17BA8, symSize: 0x6C }
  - { offset: 0x108106, size: 0x8, addend: 0x0, symName: __ZN11llama_crossD1Ev, symObjAddr: 0x2898, symBinAddr: 0x17C14, symSize: 0x78 }
  - { offset: 0x10849D, size: 0x8, addend: 0x0, symName: __ZNSt3__113unordered_mapIP18llama_adapter_lorafNS_4hashIS2_EENS_8equal_toIS2_EENS_9allocatorINS_4pairIKS2_fEEEEED1B8ne200100Ev, symObjAddr: 0x2910, symBinAddr: 0x17C8C, symSize: 0x48 }
  - { offset: 0x108731, size: 0x8, addend: 0x0, symName: __ZN18llama_adapter_cvecD2Ev, symObjAddr: 0xD9C8, symBinAddr: 0x22C94, symSize: 0xC8 }
  - { offset: 0x109346, size: 0x8, addend: 0x0, symName: _llama_set_abort_callback, symObjAddr: 0x1A4C, symBinAddr: 0x16DFC, symSize: 0xB0 }
  - { offset: 0x1096B0, size: 0x8, addend: 0x0, symName: __ZN13llama_context11synchronizeEv, symObjAddr: 0x2C80, symBinAddr: 0x17FEC, symSize: 0xE4 }
  - { offset: 0x109775, size: 0x8, addend: 0x0, symName: __ZNSt3__16vectorIjNS_9allocatorIjEEE8__appendEm, symObjAddr: 0xF5A8, symBinAddr: 0x24150, symSize: 0x120 }
  - { offset: 0x109B53, size: 0x8, addend: 0x0, symName: __ZNSt3__16vectorIjNS_9allocatorIjEEE20__throw_length_errorB8ne200100Ev, symObjAddr: 0xF6C8, symBinAddr: 0x24270, symSize: 0x14 }
  - { offset: 0x10A020, size: 0x8, addend: 0x0, symName: __ZN13llama_context13graph_reserveEjjjPK22llama_memory_context_ibPm, symObjAddr: 0x2DEC, symBinAddr: 0x18158, symSize: 0x534 }
  - { offset: 0x10ADCB, size: 0x8, addend: 0x0, symName: __ZNSt3__113__tree_removeB8ne200100IPNS_16__tree_node_baseIPvEEEEvT_S5_, symObjAddr: 0xE704, symBinAddr: 0x23618, symSize: 0x3B4 }
  - { offset: 0x10B01B, size: 0x8, addend: 0x0, symName: __ZN18llama_batch_allocrD2Ev, symObjAddr: 0xDC64, symBinAddr: 0x22D5C, symSize: 0x174 }
  - { offset: 0x10C48D, size: 0x8, addend: 0x0, symName: __ZNSt3__16__treeINS_12__value_typeIiP13llama_samplerEENS_19__map_value_compareIiS4_NS_4lessIiEELb1EEENS_9allocatorIS4_EEE7destroyEPNS_11__tree_nodeIS4_PvEE, symObjAddr: 0xE4C4, symBinAddr: 0x23534, symSize: 0x44 }
  - { offset: 0x10CB7B, size: 0x8, addend: 0x0, symName: __ZN13llama_contextC1ERK11llama_model20llama_context_params, symObjAddr: 0x2958, symBinAddr: 0x17CD4, symSize: 0x4 }
  - { offset: 0x10CBAD, size: 0x8, addend: 0x0, symName: __ZN13llama_contextC1ERK11llama_model20llama_context_params, symObjAddr: 0x2958, symBinAddr: 0x17CD4, symSize: 0x4 }
  - { offset: 0x10CC89, size: 0x8, addend: 0x0, symName: __ZN13llama_contextD2Ev, symObjAddr: 0x295C, symBinAddr: 0x17CD8, symSize: 0x310 }
  - { offset: 0x10E6B1, size: 0x8, addend: 0x0, symName: __ZN13llama_contextD1Ev, symObjAddr: 0x2C7C, symBinAddr: 0x17FE8, symSize: 0x4 }
  - { offset: 0x10E6D4, size: 0x8, addend: 0x0, symName: __ZN13llama_contextD1Ev, symObjAddr: 0x2C7C, symBinAddr: 0x17FE8, symSize: 0x4 }
  - { offset: 0x10E70B, size: 0x8, addend: 0x0, symName: __ZNK13llama_context15graph_max_nodesEj, symObjAddr: 0x2D64, symBinAddr: 0x180D0, symSize: 0x88 }
  - { offset: 0x10EF7E, size: 0x8, addend: 0x0, symName: __ZNSt3__13mapIiP13llama_samplerNS_4lessIiEENS_9allocatorINS_4pairIKiS2_EEEEE6insertB8ne200100INS_20__map_const_iteratorINS_21__tree_const_iteratorINS_12__value_typeIiS2_EEPNS_11__tree_nodeISF_PvEElEEEEEEvT_SM_, symObjAddr: 0xF6DC, symBinAddr: 0x24284, symSize: 0xF8 }
  - { offset: 0x10EFC4, size: 0x8, addend: 0x0, symName: __ZNSt3__13mapIiP13llama_samplerNS_4lessIiEENS_9allocatorINS_4pairIKiS2_EEEEE6insertB8ne200100INS_20__map_const_iteratorINS_21__tree_const_iteratorINS_12__value_typeIiS2_EEPNS_11__tree_nodeISF_PvEElEEEEEEvT_SM_, symObjAddr: 0xF6DC, symBinAddr: 0x24284, symSize: 0xF8 }
  - { offset: 0x10F3A0, size: 0x8, addend: 0x0, symName: __ZN16llm_graph_paramsD1Ev, symObjAddr: 0x5404, symBinAddr: 0x1A770, symSize: 0xA0 }
  - { offset: 0x10F552, size: 0x8, addend: 0x0, symName: __ZNK13llama_context9get_modelEv, symObjAddr: 0x3320, symBinAddr: 0x1868C, symSize: 0x8 }
  - { offset: 0x10F574, size: 0x8, addend: 0x0, symName: __ZNK13llama_context11get_cparamsEv, symObjAddr: 0x3328, symBinAddr: 0x18694, symSize: 0x8 }
  - { offset: 0x10F59E, size: 0x8, addend: 0x0, symName: __ZNK13llama_context9get_schedEv, symObjAddr: 0x3330, symBinAddr: 0x1869C, symSize: 0x8 }
  - { offset: 0x10F5CA, size: 0x8, addend: 0x0, symName: __ZNK13llama_context9get_schedEv, symObjAddr: 0x3330, symBinAddr: 0x1869C, symSize: 0x8 }
  - { offset: 0x10F5E8, size: 0x8, addend: 0x0, symName: __ZNK13llama_context5n_ctxEv, symObjAddr: 0x3338, symBinAddr: 0x186A4, symSize: 0x8 }
  - { offset: 0x10F60A, size: 0x8, addend: 0x0, symName: __ZNK13llama_context9n_ctx_seqEv, symObjAddr: 0x3340, symBinAddr: 0x186AC, symSize: 0x8 }
  - { offset: 0x10F62C, size: 0x8, addend: 0x0, symName: __ZNK13llama_context7n_batchEv, symObjAddr: 0x3348, symBinAddr: 0x186B4, symSize: 0x8 }
  - { offset: 0x10F64E, size: 0x8, addend: 0x0, symName: __ZNK13llama_context8n_ubatchEv, symObjAddr: 0x3350, symBinAddr: 0x186BC, symSize: 0x8 }
  - { offset: 0x10F670, size: 0x8, addend: 0x0, symName: __ZNK13llama_context9n_seq_maxEv, symObjAddr: 0x3358, symBinAddr: 0x186C4, symSize: 0x8 }
  - { offset: 0x10F692, size: 0x8, addend: 0x0, symName: __ZNK13llama_context9n_threadsEv, symObjAddr: 0x3360, symBinAddr: 0x186CC, symSize: 0x8 }
  - { offset: 0x10F6B4, size: 0x8, addend: 0x0, symName: __ZNK13llama_context15n_threads_batchEv, symObjAddr: 0x3368, symBinAddr: 0x186D4, symSize: 0x8 }
  - { offset: 0x10F6EC, size: 0x8, addend: 0x0, symName: __ZNK13llama_context10get_memoryEv, symObjAddr: 0x3370, symBinAddr: 0x186DC, symSize: 0x8 }
  - { offset: 0x10F710, size: 0x8, addend: 0x0, symName: __ZNK13llama_context10get_memoryEv, symObjAddr: 0x3370, symBinAddr: 0x186DC, symSize: 0x8 }
  - { offset: 0x10F760, size: 0x8, addend: 0x0, symName: __ZN13llama_context13memory_updateEb, symObjAddr: 0x3378, symBinAddr: 0x186E4, symSize: 0x1FC }
  - { offset: 0x10FB4E, size: 0x8, addend: 0x0, symName: __ZNK13llama_context12pooling_typeEv, symObjAddr: 0x3574, symBinAddr: 0x188E0, symSize: 0x8 }
  - { offset: 0x10FB70, size: 0x8, addend: 0x0, symName: __ZN13llama_context10get_logitsEv, symObjAddr: 0x357C, symBinAddr: 0x188E8, symSize: 0x24 }
  - { offset: 0x10FBA7, size: 0x8, addend: 0x0, symName: __ZN13llama_context14output_reorderEv, symObjAddr: 0x35A0, symBinAddr: 0x1890C, symSize: 0x524 }
  - { offset: 0x10FE2A, size: 0x8, addend: 0x0, symName: __ZNK13llama_context18output_resolve_rowEi, symObjAddr: 0x3AC4, symBinAddr: 0x18E30, symSize: 0x1DC }
  - { offset: 0x11009D, size: 0x8, addend: 0x0, symName: __ZN13llama_context14get_logits_ithEi, symObjAddr: 0x3CA0, symBinAddr: 0x1900C, symSize: 0x2C0 }
  - { offset: 0x110354, size: 0x8, addend: 0x0, symName: __ZN13llama_context14get_embeddingsEv, symObjAddr: 0x3F60, symBinAddr: 0x192CC, symSize: 0x24 }
  - { offset: 0x11038B, size: 0x8, addend: 0x0, symName: __ZNK13llama_context18get_sampled_tokensEv, symObjAddr: 0x3F84, symBinAddr: 0x192F0, symSize: 0x8 }
  - { offset: 0x1103B5, size: 0x8, addend: 0x0, symName: __ZN13llama_context18get_embeddings_ithEi, symObjAddr: 0x3F8C, symBinAddr: 0x192F8, symSize: 0x2C4 }
  - { offset: 0x110796, size: 0x8, addend: 0x0, symName: __ZN13llama_context18get_embeddings_seqEi, symObjAddr: 0x4250, symBinAddr: 0x195BC, symSize: 0x4C }
  - { offset: 0x1107CA, size: 0x8, addend: 0x0, symName: __ZN13llama_context18get_embeddings_seqEi, symObjAddr: 0x4250, symBinAddr: 0x195BC, symSize: 0x4C }
  - { offset: 0x1107E9, size: 0x8, addend: 0x0, symName: __ZN13llama_context18get_embeddings_seqEi, symObjAddr: 0x4250, symBinAddr: 0x195BC, symSize: 0x4C }
  - { offset: 0x110811, size: 0x8, addend: 0x0, symName: __ZN13llama_context18get_embeddings_seqEi, symObjAddr: 0x4250, symBinAddr: 0x195BC, symSize: 0x4C }
  - { offset: 0x1108FC, size: 0x8, addend: 0x0, symName: __ZN13llama_context21get_sampled_token_ithEi, symObjAddr: 0x429C, symBinAddr: 0x19608, symSize: 0xFC }
  - { offset: 0x1109BF, size: 0x8, addend: 0x0, symName: __ZN13llama_context21get_sampled_probs_ithEi, symObjAddr: 0x4398, symBinAddr: 0x19704, symSize: 0xF4 }
  - { offset: 0x110A8D, size: 0x8, addend: 0x0, symName: __ZN13llama_context22get_sampled_logits_ithEi, symObjAddr: 0x448C, symBinAddr: 0x197F8, symSize: 0xF4 }
  - { offset: 0x110B71, size: 0x8, addend: 0x0, symName: __ZN13llama_context26get_sampled_candidates_ithEi, symObjAddr: 0x4580, symBinAddr: 0x198EC, symSize: 0xA0 }
  - { offset: 0x110C20, size: 0x8, addend: 0x0, symName: __ZN13llama_context28get_sampled_candidates_countEi, symObjAddr: 0x4620, symBinAddr: 0x1998C, symSize: 0xD4 }
  - { offset: 0x110CEE, size: 0x8, addend: 0x0, symName: __ZN13llama_context24get_sampled_logits_countEi, symObjAddr: 0x46F4, symBinAddr: 0x19A60, symSize: 0x104 }
  - { offset: 0x110DBC, size: 0x8, addend: 0x0, symName: __ZN13llama_context23get_sampled_probs_countEi, symObjAddr: 0x47F8, symBinAddr: 0x19B64, symSize: 0xD4 }
  - { offset: 0x110E8A, size: 0x8, addend: 0x0, symName: __ZN13llama_context17attach_threadpoolEP15ggml_threadpoolS1_, symObjAddr: 0x48CC, symBinAddr: 0x19C38, symSize: 0x60 }
  - { offset: 0x110ED1, size: 0x8, addend: 0x0, symName: __ZN13llama_context17detach_threadpoolEv, symObjAddr: 0x492C, symBinAddr: 0x19C98, symSize: 0x4C }
  - { offset: 0x110F06, size: 0x8, addend: 0x0, symName: __ZN13llama_context13set_n_threadsEii, symObjAddr: 0x4978, symBinAddr: 0x19CE4, symSize: 0x58 }
  - { offset: 0x110F4D, size: 0x8, addend: 0x0, symName: __ZN13llama_context18set_abort_callbackEPFbPvES0_, symObjAddr: 0x49D0, symBinAddr: 0x19D3C, symSize: 0xB0 }
  - { offset: 0x1110C1, size: 0x8, addend: 0x0, symName: __ZN13llama_context14set_embeddingsEb, symObjAddr: 0x4A80, symBinAddr: 0x19DEC, symSize: 0x48 }
  - { offset: 0x1110FC, size: 0x8, addend: 0x0, symName: __ZN13llama_context15set_causal_attnEb, symObjAddr: 0x4AC8, symBinAddr: 0x19E34, symSize: 0x64 }
  - { offset: 0x11113A, size: 0x8, addend: 0x0, symName: __ZN13llama_context10set_warmupEb, symObjAddr: 0x4B2C, symBinAddr: 0x19E98, symSize: 0x54 }
  - { offset: 0x1111BE, size: 0x8, addend: 0x0, symName: __ZN13llama_context16set_adapter_loraEP18llama_adapter_loraf, symObjAddr: 0x4B80, symBinAddr: 0x19EEC, symSize: 0xC4 }
  - { offset: 0x11128C, size: 0x8, addend: 0x0, symName: __ZNSt3__112__hash_tableINS_17__hash_value_typeIP18llama_adapter_lorafEENS_22__unordered_map_hasherIS3_S4_NS_4hashIS3_EENS_8equal_toIS3_EELb1EEENS_21__unordered_map_equalIS3_S4_S9_S7_Lb1EEENS_9allocatorIS4_EEE4findIS3_EENS_15__hash_iteratorIPNS_11__hash_nodeIS4_PvEEEERKT_, symObjAddr: 0xEAB8, symBinAddr: 0x239CC, symSize: 0x110 }
  - { offset: 0x1112E3, size: 0x8, addend: 0x0, symName: __ZNSt3__112__hash_tableINS_17__hash_value_typeIP18llama_adapter_lorafEENS_22__unordered_map_hasherIS3_S4_NS_4hashIS3_EENS_8equal_toIS3_EELb1EEENS_21__unordered_map_equalIS3_S4_S9_S7_Lb1EEENS_9allocatorIS4_EEE4findIS3_EENS_15__hash_iteratorIPNS_11__hash_nodeIS4_PvEEEERKT_, symObjAddr: 0xEAB8, symBinAddr: 0x239CC, symSize: 0x110 }
  - { offset: 0x1112FF, size: 0x8, addend: 0x0, symName: __ZNSt3__112__hash_tableINS_17__hash_value_typeIP18llama_adapter_lorafEENS_22__unordered_map_hasherIS3_S4_NS_4hashIS3_EENS_8equal_toIS3_EELb1EEENS_21__unordered_map_equalIS3_S4_S9_S7_Lb1EEENS_9allocatorIS4_EEE4findIS3_EENS_15__hash_iteratorIPNS_11__hash_nodeIS4_PvEEEERKT_, symObjAddr: 0xEAB8, symBinAddr: 0x239CC, symSize: 0x110 }
  - { offset: 0x1113F9, size: 0x8, addend: 0x0, symName: __ZNSt3__112__hash_tableINS_17__hash_value_typeIP18llama_adapter_lorafEENS_22__unordered_map_hasherIS3_S4_NS_4hashIS3_EENS_8equal_toIS3_EELb1EEENS_21__unordered_map_equalIS3_S4_S9_S7_Lb1EEENS_9allocatorIS4_EEE25__emplace_unique_key_argsIS3_JRKNS_21piecewise_construct_tENS_5tupleIJRKS3_EEENSK_IJEEEEEENS_4pairINS_15__hash_iteratorIPNS_11__hash_nodeIS4_PvEEEEbEERKT_DpOT0_, symObjAddr: 0xEBC8, symBinAddr: 0x23ADC, symSize: 0x364 }
  - { offset: 0x111D1D, size: 0x8, addend: 0x0, symName: __ZN13llama_context15rm_adapter_loraEP18llama_adapter_lora, symObjAddr: 0x4C44, symBinAddr: 0x19FB0, symSize: 0x88 }
  - { offset: 0x111F5F, size: 0x8, addend: 0x0, symName: __ZNSt3__112__hash_tableINS_17__hash_value_typeIP18llama_adapter_lorafEENS_22__unordered_map_hasherIS3_S4_NS_4hashIS3_EENS_8equal_toIS3_EELb1EEENS_21__unordered_map_equalIS3_S4_S9_S7_Lb1EEENS_9allocatorIS4_EEE6removeENS_21__hash_const_iteratorIPNS_11__hash_nodeIS4_PvEEEE, symObjAddr: 0xF0AC, symBinAddr: 0x23FC0, symSize: 0x138 }
  - { offset: 0x111FD5, size: 0x8, addend: 0x0, symName: __ZNSt3__112__hash_tableINS_17__hash_value_typeIP18llama_adapter_lorafEENS_22__unordered_map_hasherIS3_S4_NS_4hashIS3_EENS_8equal_toIS3_EELb1EEENS_21__unordered_map_equalIS3_S4_S9_S7_Lb1EEENS_9allocatorIS4_EEE6removeENS_21__hash_const_iteratorIPNS_11__hash_nodeIS4_PvEEEE, symObjAddr: 0xF0AC, symBinAddr: 0x23FC0, symSize: 0x138 }
  - { offset: 0x111FF1, size: 0x8, addend: 0x0, symName: __ZNSt3__112__hash_tableINS_17__hash_value_typeIP18llama_adapter_lorafEENS_22__unordered_map_hasherIS3_S4_NS_4hashIS3_EENS_8equal_toIS3_EELb1EEENS_21__unordered_map_equalIS3_S4_S9_S7_Lb1EEENS_9allocatorIS4_EEE6removeENS_21__hash_const_iteratorIPNS_11__hash_nodeIS4_PvEEEE, symObjAddr: 0xF0AC, symBinAddr: 0x23FC0, symSize: 0x138 }
  - { offset: 0x112297, size: 0x8, addend: 0x0, symName: __ZN13llama_context18clear_adapter_loraEv, symObjAddr: 0x4CCC, symBinAddr: 0x1A038, symSize: 0x84 }
  - { offset: 0x1124C5, size: 0x8, addend: 0x0, symName: __ZN13llama_context18apply_adapter_cvecEPKfmiii, symObjAddr: 0x4D50, symBinAddr: 0x1A0BC, symSize: 0x84 }
  - { offset: 0x112543, size: 0x8, addend: 0x0, symName: __ZN13llama_context14process_ubatchERK12llama_ubatch14llm_graph_typeP22llama_memory_context_iR11ggml_status, symObjAddr: 0x4DD4, symBinAddr: 0x1A140, symSize: 0x3CC }
  - { offset: 0x112D5C, size: 0x8, addend: 0x0, symName: __ZN13llama_context13graph_computeEP11ggml_cgraphb, symObjAddr: 0x5320, symBinAddr: 0x1A68C, symSize: 0xE4 }
  - { offset: 0x112F35, size: 0x8, addend: 0x0, symName: __ZNK13llama_context12graph_paramsEP16llm_graph_resultRK12llama_ubatchPK22llama_memory_context_i14llm_graph_type, symObjAddr: 0x51A0, symBinAddr: 0x1A50C, symSize: 0x180 }
  - { offset: 0x113BE8, size: 0x8, addend: 0x0, symName: __ZN13llama_context6encodeERK11llama_batch, symObjAddr: 0x54A4, symBinAddr: 0x1A810, symSize: 0xB94 }
  - { offset: 0x1165F7, size: 0x8, addend: 0x0, symName: __ZN13llama_context6decodeERK11llama_batch, symObjAddr: 0x6094, symBinAddr: 0x1B3A4, symSize: 0x1778 }
  - { offset: 0x119108, size: 0x8, addend: 0x0, symName: __ZL24copy_tensor_async_floatsRKNSt3__13mapIiP11ggml_tensorNS_4lessIiEENS_9allocatorINS_4pairIKiS2_EEEEEEPfmRNS_6vectorIjNS5_IjEEEERKNS0_IijS4_NS5_INS6_IS7_jEEEEEEP18ggml_backend_sched, symObjAddr: 0x780C, symBinAddr: 0x1CB1C, symSize: 0x1A0 }
  - { offset: 0x1194A6, size: 0x8, addend: 0x0, symName: __ZNSt3__16vectorIN13llama_context9swap_infoENS_9allocatorIS2_EEE9push_backB8ne200100EOS2_, symObjAddr: 0x79AC, symBinAddr: 0x1CCBC, symSize: 0xEC }
  - { offset: 0x1194CC, size: 0x8, addend: 0x0, symName: __ZNSt3__16__treeINS_12__value_typeIijEENS_19__map_value_compareIiS2_NS_4lessIiEELb1EEENS_9allocatorIS2_EEE7destroyEPNS_11__tree_nodeIS2_PvEE, symObjAddr: 0xF550, symBinAddr: 0x240F8, symSize: 0x44 }
  - { offset: 0x1195E3, size: 0x8, addend: 0x0, symName: __ZNSt3__16vectorIN13llama_context9swap_infoENS_9allocatorIS2_EEE9push_backB8ne200100EOS2_, symObjAddr: 0x79AC, symBinAddr: 0x1CCBC, symSize: 0xEC }
  - { offset: 0x1199F4, size: 0x8, addend: 0x0, symName: __ZNK13llama_context18get_gf_res_reserveEv, symObjAddr: 0x7A98, symBinAddr: 0x1CDA8, symSize: 0x8 }
  - { offset: 0x119CC6, size: 0x8, addend: 0x0, symName: __ZNSt3__16vectorIN13llama_context9swap_infoENS_9allocatorIS2_EEE20__throw_length_errorB8ne200100Ev, symObjAddr: 0xF594, symBinAddr: 0x2413C, symSize: 0x14 }
  - { offset: 0x119CDE, size: 0x8, addend: 0x0, symName: __ZNSt3__16vectorIjNS_9allocatorIjEEE8__appendEm, symObjAddr: 0xF5A8, symBinAddr: 0x24150, symSize: 0x120 }
  - { offset: 0x119CE9, size: 0x8, addend: 0x0, symName: __ZNK13llama_context18get_gf_res_reserveEv, symObjAddr: 0x7A98, symBinAddr: 0x1CDA8, symSize: 0x8 }
  - { offset: 0x119D15, size: 0x8, addend: 0x0, symName: __ZNK13llama_context18get_gf_res_reserveEv, symObjAddr: 0x7A98, symBinAddr: 0x1CDA8, symSize: 0x8 }
  - { offset: 0x119E2C, size: 0x8, addend: 0x0, symName: __ZN13llama_context14state_get_sizeEv, symObjAddr: 0x7AB4, symBinAddr: 0x1CDC4, symSize: 0xA0 }
  - { offset: 0x119EEE, size: 0x8, addend: 0x0, symName: __ZN13llama_context16state_write_dataER16llama_io_write_i, symObjAddr: 0x7B54, symBinAddr: 0x1CE64, symSize: 0x35C }
  - { offset: 0x11AA25, size: 0x8, addend: 0x0, symName: __ZN20llama_io_write_dummyD1Ev, symObjAddr: 0x7EB0, symBinAddr: 0x1D1C0, symSize: 0x4 }
  - { offset: 0x11AB9E, size: 0x8, addend: 0x0, symName: __ZN13llama_context14state_get_dataEPhm, symObjAddr: 0x7EB4, symBinAddr: 0x1D1C4, symSize: 0xA4 }
  - { offset: 0x11AC9C, size: 0x8, addend: 0x0, symName: __ZN21llama_io_write_bufferD1Ev, symObjAddr: 0x7F58, symBinAddr: 0x1D268, symSize: 0x4 }
  - { offset: 0x11AE0F, size: 0x8, addend: 0x0, symName: __ZN13llama_context14state_set_dataEPKhm, symObjAddr: 0x7F5C, symBinAddr: 0x1D26C, symSize: 0xA4 }
  - { offset: 0x11AF0D, size: 0x8, addend: 0x0, symName: __ZN13llama_context15state_read_dataER15llama_io_read_i, symObjAddr: 0x8000, symBinAddr: 0x1D310, symSize: 0x554 }
  - { offset: 0x11BFB0, size: 0x8, addend: 0x0, symName: __ZN20llama_io_read_bufferD1Ev, symObjAddr: 0x8554, symBinAddr: 0x1D864, symSize: 0x4 }
  - { offset: 0x11C019, size: 0x8, addend: 0x0, symName: __ZN13llama_context18state_seq_get_sizeEij, symObjAddr: 0x8558, symBinAddr: 0x1D868, symSize: 0xC8 }
  - { offset: 0x11C14E, size: 0x8, addend: 0x0, symName: __ZN13llama_context20state_seq_write_dataER16llama_io_write_iij, symObjAddr: 0x8620, symBinAddr: 0x1D930, symSize: 0x40 }
  - { offset: 0x11C1CA, size: 0x8, addend: 0x0, symName: __ZN13llama_context18state_seq_get_dataEiPhmj, symObjAddr: 0x8660, symBinAddr: 0x1D970, symSize: 0xD4 }
  - { offset: 0x11C378, size: 0x8, addend: 0x0, symName: __ZN13llama_context18state_seq_set_dataEiPKhmj, symObjAddr: 0x8734, symBinAddr: 0x1DA44, symSize: 0xD4 }
  - { offset: 0x11C4E9, size: 0x8, addend: 0x0, symName: __ZN13llama_context19state_seq_read_dataER15llama_io_read_iij, symObjAddr: 0x8808, symBinAddr: 0x1DB18, symSize: 0x40 }
  - { offset: 0x11C9B8, size: 0x8, addend: 0x0, symName: __ZN13llama_context15state_load_fileEPKcPimPm, symObjAddr: 0x8848, symBinAddr: 0x1DB58, symSize: 0x1D4 }
  - { offset: 0x11CE4D, size: 0x8, addend: 0x0, symName: __ZN18llama_io_read_fileD1Ev, symObjAddr: 0x8A1C, symBinAddr: 0x1DD2C, symSize: 0x44 }
  - { offset: 0x11CE71, size: 0x8, addend: 0x0, symName: __ZN18llama_io_read_fileD1Ev, symObjAddr: 0x8A1C, symBinAddr: 0x1DD2C, symSize: 0x44 }
  - { offset: 0x11D122, size: 0x8, addend: 0x0, symName: __ZN13llama_context15state_save_fileEPKcPKim, symObjAddr: 0x8A60, symBinAddr: 0x1DD70, symSize: 0x108 }
  - { offset: 0x11D4FB, size: 0x8, addend: 0x0, symName: __ZN19llama_io_write_fileD1Ev, symObjAddr: 0x8B68, symBinAddr: 0x1DE78, symSize: 0x44 }
  - { offset: 0x11D51F, size: 0x8, addend: 0x0, symName: __ZN19llama_io_write_fileD1Ev, symObjAddr: 0x8B68, symBinAddr: 0x1DE78, symSize: 0x44 }
  - { offset: 0x11D666, size: 0x8, addend: 0x0, symName: __ZN13llama_context19state_seq_load_fileEiPKcPimPm, symObjAddr: 0x8BAC, symBinAddr: 0x1DEBC, symSize: 0x27C }
  - { offset: 0x11DB8C, size: 0x8, addend: 0x0, symName: __ZN13llama_context19state_seq_save_fileEiPKcPKim, symObjAddr: 0x8E28, symBinAddr: 0x1E138, symSize: 0x19C }
  - { offset: 0x11E024, size: 0x8, addend: 0x0, symName: __ZN19llama_io_write_file7n_bytesEv, symObjAddr: 0x8FC4, symBinAddr: 0x1E2D4, symSize: 0x8 }
  - { offset: 0x11E046, size: 0x8, addend: 0x0, symName: __ZNK13llama_context13perf_get_dataEv, symObjAddr: 0x8FCC, symBinAddr: 0x1E2DC, symSize: 0x54 }
  - { offset: 0x11E12A, size: 0x8, addend: 0x0, symName: __ZN13llama_context10perf_resetEv, symObjAddr: 0x9020, symBinAddr: 0x1E330, symSize: 0x38 }
  - { offset: 0x11E8AA, size: 0x8, addend: 0x0, symName: __ZNK13llama_context16memory_breakdownEv, symObjAddr: 0x9058, symBinAddr: 0x1E368, symSize: 0x500 }
  - { offset: 0x11FC9F, size: 0x8, addend: 0x0, symName: __ZNSt3__16__treeINS_12__value_typeIP24ggml_backend_buffer_typemEENS_19__map_value_compareIS3_S4_NS_4lessIS3_EELb1EEENS_9allocatorIS4_EEE7destroyEPNS_11__tree_nodeIS4_PvEE, symObjAddr: 0xFBB8, symBinAddr: 0x24760, symSize: 0x44 }
  - { offset: 0x11FDCE, size: 0x8, addend: 0x0, symName: __ZNSt3__16__treeINS_12__value_typeIP24ggml_backend_buffer_type27llama_memory_breakdown_dataEENS_19__map_value_compareIS3_S5_NS_4lessIS3_EELb1EEENS_9allocatorIS5_EEE7destroyEPNS_11__tree_nodeIS5_PvEE, symObjAddr: 0xFB74, symBinAddr: 0x2471C, symSize: 0x44 }
  - { offset: 0x11FF7F, size: 0x8, addend: 0x0, symName: __ZN13llama_context8opt_initEP11llama_model16llama_opt_params, symObjAddr: 0x9558, symBinAddr: 0x1E868, symSize: 0x5F8 }
  - { offset: 0x1208B9, size: 0x8, addend: 0x0, symName: __ZN13llama_context14opt_epoch_iterEP16ggml_opt_datasetP15ggml_opt_resultRKNSt3__16vectorIiNS4_9allocatorIiEEEESA_R11llama_batchPFvbP16ggml_opt_contextS1_S3_xxxEbxxx, symObjAddr: 0x9B50, symBinAddr: 0x1EE60, symSize: 0x7A8 }
  - { offset: 0x1209EA, size: 0x8, addend: 0x0, symName: __ZN13llama_context14opt_epoch_iterEP16ggml_opt_datasetP15ggml_opt_resultRKNSt3__16vectorIiNS4_9allocatorIiEEEESA_R11llama_batchPFvbP16ggml_opt_contextS1_S3_xxxEbxxx, symObjAddr: 0x9B50, symBinAddr: 0x1EE60, symSize: 0x7A8 }
  - { offset: 0x12197F, size: 0x8, addend: 0x0, symName: __ZN13llama_context9opt_epochEP16ggml_opt_datasetP15ggml_opt_resultS3_xPFvbP16ggml_opt_contextS1_S3_xxxES7_, symObjAddr: 0xA2F8, symBinAddr: 0x1F608, symSize: 0x2D4 }
  - { offset: 0x1224CC, size: 0x8, addend: 0x0, symName: _llama_context_default_params, symObjAddr: 0xA5CC, symBinAddr: 0x1F8DC, symSize: 0x34 }
  - { offset: 0x12252A, size: 0x8, addend: 0x0, symName: _llama_init_from_model, symObjAddr: 0xA600, symBinAddr: 0x1F910, symSize: 0x2D4 }
  - { offset: 0x1226EE, size: 0x8, addend: 0x0, symName: _llama_new_context_with_model, symObjAddr: 0xA8D4, symBinAddr: 0x1FBE4, symSize: 0x48 }
  - { offset: 0x122762, size: 0x8, addend: 0x0, symName: _llama_free, symObjAddr: 0xA91C, symBinAddr: 0x1FC2C, symSize: 0x1C }
  - { offset: 0x1227B3, size: 0x8, addend: 0x0, symName: _llama_n_ctx, symObjAddr: 0xA938, symBinAddr: 0x1FC48, symSize: 0x8 }
  - { offset: 0x1227E1, size: 0x8, addend: 0x0, symName: _llama_n_ctx, symObjAddr: 0xA938, symBinAddr: 0x1FC48, symSize: 0x8 }
  - { offset: 0x122815, size: 0x8, addend: 0x0, symName: _llama_n_ctx_seq, symObjAddr: 0xA940, symBinAddr: 0x1FC50, symSize: 0x8 }
  - { offset: 0x122843, size: 0x8, addend: 0x0, symName: _llama_n_ctx_seq, symObjAddr: 0xA940, symBinAddr: 0x1FC50, symSize: 0x8 }
  - { offset: 0x12285E, size: 0x8, addend: 0x0, symName: _llama_n_batch, symObjAddr: 0xA948, symBinAddr: 0x1FC58, symSize: 0x8 }
  - { offset: 0x12288C, size: 0x8, addend: 0x0, symName: _llama_n_batch, symObjAddr: 0xA948, symBinAddr: 0x1FC58, symSize: 0x8 }
  - { offset: 0x1228C0, size: 0x8, addend: 0x0, symName: _llama_n_ubatch, symObjAddr: 0xA950, symBinAddr: 0x1FC60, symSize: 0x8 }
  - { offset: 0x1228EE, size: 0x8, addend: 0x0, symName: _llama_n_ubatch, symObjAddr: 0xA950, symBinAddr: 0x1FC60, symSize: 0x8 }
  - { offset: 0x122909, size: 0x8, addend: 0x0, symName: _llama_n_seq_max, symObjAddr: 0xA958, symBinAddr: 0x1FC68, symSize: 0x8 }
  - { offset: 0x122937, size: 0x8, addend: 0x0, symName: _llama_n_seq_max, symObjAddr: 0xA958, symBinAddr: 0x1FC68, symSize: 0x8 }
  - { offset: 0x12296B, size: 0x8, addend: 0x0, symName: _llama_get_model, symObjAddr: 0xA960, symBinAddr: 0x1FC70, symSize: 0x8 }
  - { offset: 0x122999, size: 0x8, addend: 0x0, symName: _llama_get_model, symObjAddr: 0xA960, symBinAddr: 0x1FC70, symSize: 0x8 }
  - { offset: 0x1229CD, size: 0x8, addend: 0x0, symName: _llama_pooling_type, symObjAddr: 0xA968, symBinAddr: 0x1FC78, symSize: 0x8 }
  - { offset: 0x1229FB, size: 0x8, addend: 0x0, symName: _llama_pooling_type, symObjAddr: 0xA968, symBinAddr: 0x1FC78, symSize: 0x8 }
  - { offset: 0x122A47, size: 0x8, addend: 0x0, symName: _llama_attach_threadpool, symObjAddr: 0xA970, symBinAddr: 0x1FC80, symSize: 0x60 }
  - { offset: 0x122AE6, size: 0x8, addend: 0x0, symName: _llama_detach_threadpool, symObjAddr: 0xA9D0, symBinAddr: 0x1FCE0, symSize: 0x4C }
  - { offset: 0x122B6F, size: 0x8, addend: 0x0, symName: _llama_set_n_threads, symObjAddr: 0xAA1C, symBinAddr: 0x1FD2C, symSize: 0x58 }
  - { offset: 0x122C0E, size: 0x8, addend: 0x0, symName: _llama_n_threads, symObjAddr: 0xAA74, symBinAddr: 0x1FD84, symSize: 0x8 }
  - { offset: 0x122C3C, size: 0x8, addend: 0x0, symName: _llama_n_threads, symObjAddr: 0xAA74, symBinAddr: 0x1FD84, symSize: 0x8 }
  - { offset: 0x122C70, size: 0x8, addend: 0x0, symName: _llama_n_threads_batch, symObjAddr: 0xAA7C, symBinAddr: 0x1FD8C, symSize: 0x8 }
  - { offset: 0x122C9E, size: 0x8, addend: 0x0, symName: _llama_n_threads_batch, symObjAddr: 0xAA7C, symBinAddr: 0x1FD8C, symSize: 0x8 }
  - { offset: 0x122CDE, size: 0x8, addend: 0x0, symName: _llama_set_embeddings, symObjAddr: 0xAA84, symBinAddr: 0x1FD94, symSize: 0x48 }
  - { offset: 0x122D6B, size: 0x8, addend: 0x0, symName: _llama_set_causal_attn, symObjAddr: 0xAACC, symBinAddr: 0x1FDDC, symSize: 0x64 }
  - { offset: 0x122E01, size: 0x8, addend: 0x0, symName: _llama_set_warmup, symObjAddr: 0xAB30, symBinAddr: 0x1FE40, symSize: 0x54 }
  - { offset: 0x122E72, size: 0x8, addend: 0x0, symName: _llama_synchronize, symObjAddr: 0xAB84, symBinAddr: 0x1FE94, symSize: 0x4 }
  - { offset: 0x122E9B, size: 0x8, addend: 0x0, symName: _llama_synchronize, symObjAddr: 0xAB84, symBinAddr: 0x1FE94, symSize: 0x4 }
  - { offset: 0x122EC7, size: 0x8, addend: 0x0, symName: _llama_get_logits, symObjAddr: 0xAB88, symBinAddr: 0x1FE98, symSize: 0x2C }
  - { offset: 0x122F39, size: 0x8, addend: 0x0, symName: _llama_get_logits_ith, symObjAddr: 0xABB4, symBinAddr: 0x1FEC4, symSize: 0x48 }
  - { offset: 0x122FDB, size: 0x8, addend: 0x0, symName: _llama_get_embeddings, symObjAddr: 0xABFC, symBinAddr: 0x1FF0C, symSize: 0x2C }
  - { offset: 0x12304D, size: 0x8, addend: 0x0, symName: _llama_get_embeddings_ith, symObjAddr: 0xAC28, symBinAddr: 0x1FF38, symSize: 0x2C }
  - { offset: 0x1230DD, size: 0x8, addend: 0x0, symName: _llama_get_embeddings_seq, symObjAddr: 0xAC54, symBinAddr: 0x1FF64, symSize: 0x74 }
  - { offset: 0x123282, size: 0x8, addend: 0x0, symName: _llama_set_sampler, symObjAddr: 0xACC8, symBinAddr: 0x1FFD8, symSize: 0x4 }
  - { offset: 0x1232CB, size: 0x8, addend: 0x0, symName: _llama_set_sampler, symObjAddr: 0xACC8, symBinAddr: 0x1FFD8, symSize: 0x4 }
  - { offset: 0x1232EC, size: 0x8, addend: 0x0, symName: _llama_get_sampled_token_ith, symObjAddr: 0xACCC, symBinAddr: 0x1FFDC, symSize: 0x2C }
  - { offset: 0x12334B, size: 0x8, addend: 0x0, symName: _llama_get_sampled_probs_ith, symObjAddr: 0xACF8, symBinAddr: 0x20008, symSize: 0x2C }
  - { offset: 0x1233AA, size: 0x8, addend: 0x0, symName: _llama_get_sampled_logits_ith, symObjAddr: 0xAD24, symBinAddr: 0x20034, symSize: 0x2C }
  - { offset: 0x12344D, size: 0x8, addend: 0x0, symName: _llama_get_sampled_candidates_ith, symObjAddr: 0xAD50, symBinAddr: 0x20060, symSize: 0xA8 }
  - { offset: 0x12353B, size: 0x8, addend: 0x0, symName: _llama_get_sampled_candidates_count_ith, symObjAddr: 0xADF8, symBinAddr: 0x20108, symSize: 0x30 }
  - { offset: 0x1235A6, size: 0x8, addend: 0x0, symName: _llama_get_sampled_logits_count_ith, symObjAddr: 0xAE28, symBinAddr: 0x20138, symSize: 0x30 }
  - { offset: 0x123611, size: 0x8, addend: 0x0, symName: _llama_get_sampled_probs_count_ith, symObjAddr: 0xAE58, symBinAddr: 0x20168, symSize: 0x30 }
  - { offset: 0x1236BB, size: 0x8, addend: 0x0, symName: _llama_set_adapter_lora, symObjAddr: 0xAE88, symBinAddr: 0x20198, symSize: 0xB0 }
  - { offset: 0x123800, size: 0x8, addend: 0x0, symName: _llama_rm_adapter_lora, symObjAddr: 0xAF38, symBinAddr: 0x20248, symSize: 0x88 }
  - { offset: 0x123A61, size: 0x8, addend: 0x0, symName: _llama_clear_adapter_lora, symObjAddr: 0xAFC0, symBinAddr: 0x202D0, symSize: 0x84 }
  - { offset: 0x123D07, size: 0x8, addend: 0x0, symName: _llama_apply_adapter_cvec, symObjAddr: 0xB044, symBinAddr: 0x20354, symSize: 0x8C }
  - { offset: 0x123E07, size: 0x8, addend: 0x0, symName: _llama_get_memory, symObjAddr: 0xB0D0, symBinAddr: 0x203E0, symSize: 0x8 }
  - { offset: 0x123E35, size: 0x8, addend: 0x0, symName: _llama_get_memory, symObjAddr: 0xB0D0, symBinAddr: 0x203E0, symSize: 0x8 }
  - { offset: 0x123E51, size: 0x8, addend: 0x0, symName: _llama_get_memory, symObjAddr: 0xB0D0, symBinAddr: 0x203E0, symSize: 0x8 }
  - { offset: 0x123E70, size: 0x8, addend: 0x0, symName: _llama_memory_clear, symObjAddr: 0xB0D8, symBinAddr: 0x203E8, symSize: 0x14 }
  - { offset: 0x123EB5, size: 0x8, addend: 0x0, symName: _llama_memory_seq_rm, symObjAddr: 0xB0EC, symBinAddr: 0x203FC, symSize: 0x18 }
  - { offset: 0x123F17, size: 0x8, addend: 0x0, symName: _llama_memory_seq_cp, symObjAddr: 0xB104, symBinAddr: 0x20414, symSize: 0x14 }
  - { offset: 0x123F81, size: 0x8, addend: 0x0, symName: _llama_memory_seq_keep, symObjAddr: 0xB118, symBinAddr: 0x20428, symSize: 0x14 }
  - { offset: 0x123FC1, size: 0x8, addend: 0x0, symName: _llama_memory_seq_add, symObjAddr: 0xB12C, symBinAddr: 0x2043C, symSize: 0x14 }
  - { offset: 0x12402B, size: 0x8, addend: 0x0, symName: _llama_memory_seq_div, symObjAddr: 0xB140, symBinAddr: 0x20450, symSize: 0x14 }
  - { offset: 0x124095, size: 0x8, addend: 0x0, symName: _llama_memory_seq_pos_min, symObjAddr: 0xB154, symBinAddr: 0x20464, symSize: 0x18 }
  - { offset: 0x1240DB, size: 0x8, addend: 0x0, symName: _llama_memory_seq_pos_max, symObjAddr: 0xB16C, symBinAddr: 0x2047C, symSize: 0x18 }
  - { offset: 0x124121, size: 0x8, addend: 0x0, symName: _llama_memory_can_shift, symObjAddr: 0xB184, symBinAddr: 0x20494, symSize: 0x14 }
  - { offset: 0x124172, size: 0x8, addend: 0x0, symName: _llama_get_state_size, symObjAddr: 0xB198, symBinAddr: 0x204A8, symSize: 0x4 }
  - { offset: 0x12419E, size: 0x8, addend: 0x0, symName: _llama_get_state_size, symObjAddr: 0xB198, symBinAddr: 0x204A8, symSize: 0x4 }
  - { offset: 0x1241BC, size: 0x8, addend: 0x0, symName: _llama_get_state_size, symObjAddr: 0xB198, symBinAddr: 0x204A8, symSize: 0x4 }
  - { offset: 0x1241CF, size: 0x8, addend: 0x0, symName: _llama_state_get_size, symObjAddr: 0xB19C, symBinAddr: 0x204AC, symSize: 0x4 }
  - { offset: 0x1241EE, size: 0x8, addend: 0x0, symName: _llama_state_get_size, symObjAddr: 0xB19C, symBinAddr: 0x204AC, symSize: 0x4 }
  - { offset: 0x124234, size: 0x8, addend: 0x0, symName: _llama_copy_state_data, symObjAddr: 0xB1A0, symBinAddr: 0x204B0, symSize: 0x30 }
  - { offset: 0x1242CB, size: 0x8, addend: 0x0, symName: _llama_state_get_data, symObjAddr: 0xB1D0, symBinAddr: 0x204E0, symSize: 0x3C }
  - { offset: 0x124351, size: 0x8, addend: 0x0, symName: _llama_set_state_data, symObjAddr: 0xB20C, symBinAddr: 0x2051C, symSize: 0x30 }
  - { offset: 0x1243E8, size: 0x8, addend: 0x0, symName: _llama_state_set_data, symObjAddr: 0xB23C, symBinAddr: 0x2054C, symSize: 0x3C }
  - { offset: 0x12443B, size: 0x8, addend: 0x0, symName: _llama_load_session_file, symObjAddr: 0xB278, symBinAddr: 0x20588, symSize: 0x4 }
  - { offset: 0x1244A0, size: 0x8, addend: 0x0, symName: _llama_load_session_file, symObjAddr: 0xB278, symBinAddr: 0x20588, symSize: 0x4 }
  - { offset: 0x1244CF, size: 0x8, addend: 0x0, symName: _llama_state_load_file, symObjAddr: 0xB27C, symBinAddr: 0x2058C, symSize: 0xD0 }
  - { offset: 0x1245AB, size: 0x8, addend: 0x0, symName: _llama_save_session_file, symObjAddr: 0xB34C, symBinAddr: 0x2065C, symSize: 0x4 }
  - { offset: 0x124602, size: 0x8, addend: 0x0, symName: _llama_save_session_file, symObjAddr: 0xB34C, symBinAddr: 0x2065C, symSize: 0x4 }
  - { offset: 0x12462A, size: 0x8, addend: 0x0, symName: _llama_state_save_file, symObjAddr: 0xB350, symBinAddr: 0x20660, symSize: 0xC0 }
  - { offset: 0x124723, size: 0x8, addend: 0x0, symName: _llama_state_seq_get_size, symObjAddr: 0xB410, symBinAddr: 0x20720, symSize: 0x8 }
  - { offset: 0x12475D, size: 0x8, addend: 0x0, symName: _llama_state_seq_get_size, symObjAddr: 0xB410, symBinAddr: 0x20720, symSize: 0x8 }
  - { offset: 0x1247A8, size: 0x8, addend: 0x0, symName: _llama_state_seq_get_size_ext, symObjAddr: 0xB418, symBinAddr: 0x20728, symSize: 0x4 }
  - { offset: 0x1247D5, size: 0x8, addend: 0x0, symName: _llama_state_seq_get_size_ext, symObjAddr: 0xB418, symBinAddr: 0x20728, symSize: 0x4 }
  - { offset: 0x124841, size: 0x8, addend: 0x0, symName: _llama_state_seq_get_data, symObjAddr: 0xB41C, symBinAddr: 0x2072C, symSize: 0x48 }
  - { offset: 0x124907, size: 0x8, addend: 0x0, symName: _llama_state_seq_get_data_ext, symObjAddr: 0xB464, symBinAddr: 0x20774, symSize: 0x54 }
  - { offset: 0x1249B7, size: 0x8, addend: 0x0, symName: _llama_state_seq_set_data, symObjAddr: 0xB4B8, symBinAddr: 0x207C8, symSize: 0x48 }
  - { offset: 0x124A7D, size: 0x8, addend: 0x0, symName: _llama_state_seq_set_data_ext, symObjAddr: 0xB500, symBinAddr: 0x20810, symSize: 0x54 }
  - { offset: 0x124AE2, size: 0x8, addend: 0x0, symName: _llama_state_seq_save_file, symObjAddr: 0xB554, symBinAddr: 0x20864, symSize: 0xD0 }
  - { offset: 0x124BBE, size: 0x8, addend: 0x0, symName: _llama_state_seq_load_file, symObjAddr: 0xB624, symBinAddr: 0x20934, symSize: 0xD8 }
  - { offset: 0x124CB0, size: 0x8, addend: 0x0, symName: _llama_encode, symObjAddr: 0xB6FC, symBinAddr: 0x20A0C, symSize: 0x4C }
  - { offset: 0x124D2B, size: 0x8, addend: 0x0, symName: _llama_decode, symObjAddr: 0xB748, symBinAddr: 0x20A58, symSize: 0x50 }
  - { offset: 0x124DCB, size: 0x8, addend: 0x0, symName: _llama_perf_context, symObjAddr: 0xB798, symBinAddr: 0x20AA8, symSize: 0x60 }
  - { offset: 0x124EF0, size: 0x8, addend: 0x0, symName: _llama_perf_context_print, symObjAddr: 0xB7F8, symBinAddr: 0x20B08, symSize: 0x1A8 }
  - { offset: 0x1250C6, size: 0x8, addend: 0x0, symName: _llama_perf_context_reset, symObjAddr: 0xB9A0, symBinAddr: 0x20CB0, symSize: 0x38 }
  - { offset: 0x12643F, size: 0x8, addend: 0x0, symName: _llama_memory_breakdown_print, symObjAddr: 0xB9D8, symBinAddr: 0x20CE8, symSize: 0x1EA8 }
  - { offset: 0x12D6D1, size: 0x8, addend: 0x0, symName: __ZNSt3__128__exception_guard_exceptionsINS_6vectorINS_12basic_stringIcNS_11char_traitsIcEENS_9allocatorIcEEEENS5_IS7_EEE16__destroy_vectorEED1B8ne200100Ev, symObjAddr: 0xFC98, symBinAddr: 0x247B8, symSize: 0x80 }
  - { offset: 0x12D6DC, size: 0x8, addend: 0x0, symName: __ZNSt3__15arrayINS_12basic_stringIcNS_11char_traitsIcEENS_9allocatorIcEEEELm9EED2Ev, symObjAddr: 0xE3C4, symBinAddr: 0x23434, symSize: 0x100 }
  - { offset: 0x12D826, size: 0x8, addend: 0x0, symName: __ZNSt3__16__treeIP24ggml_backend_buffer_typeNS_4lessIS2_EENS_9allocatorIS2_EEE7destroyEPNS_11__tree_nodeIS2_PvEE, symObjAddr: 0xFD18, symBinAddr: 0x24838, symSize: 0x44 }
  - { offset: 0x12D952, size: 0x8, addend: 0x0, symName: __ZNSt3__16vectorINS_5arrayINS_12basic_stringIcNS_11char_traitsIcEENS_9allocatorIcEEEELm9EEENS5_IS8_EEE20__throw_length_errorB8ne200100Ev, symObjAddr: 0xFBFC, symBinAddr: 0x247A4, symSize: 0x14 }
  - { offset: 0x12D975, size: 0x8, addend: 0x0, symName: __ZNSt3__16vectorI27llama_memory_breakdown_dataNS_9allocatorIS1_EEE20__throw_length_errorB8ne200100Ev, symObjAddr: 0xFD5C, symBinAddr: 0x2487C, symSize: 0x14 }
  - { offset: 0x12D998, size: 0x8, addend: 0x0, symName: __ZNSt3__128__exception_guard_exceptionsINS_6vectorINS_12basic_stringIcNS_11char_traitsIcEENS_9allocatorIcEEEENS5_IS7_EEE16__destroy_vectorEED1B8ne200100Ev, symObjAddr: 0xFC98, symBinAddr: 0x247B8, symSize: 0x80 }
  - { offset: 0x12DC06, size: 0x8, addend: 0x0, symName: __ZNSt3__16vectorINS_12basic_stringIcNS_11char_traitsIcEENS_9allocatorIcEEEENS4_IS6_EEED1B8ne200100Ev, symObjAddr: 0xD880, symBinAddr: 0x22B90, symSize: 0x70 }
  - { offset: 0x12DE66, size: 0x8, addend: 0x0, symName: __ZNSt3__16vectorINS_5arrayINS_12basic_stringIcNS_11char_traitsIcEENS_9allocatorIcEEEELm9EEENS5_IS8_EEED1B8ne200100Ev, symObjAddr: 0xD8F0, symBinAddr: 0x22C00, symSize: 0x58 }
  - { offset: 0x12E00E, size: 0x8, addend: 0x0, symName: _llama_opt_param_filter_all, symObjAddr: 0xD948, symBinAddr: 0x22C58, symSize: 0x8 }
  - { offset: 0x12E048, size: 0x8, addend: 0x0, symName: _llama_opt_init, symObjAddr: 0xD950, symBinAddr: 0x22C60, symSize: 0x30 }
  - { offset: 0x12E0B2, size: 0x8, addend: 0x0, symName: _llama_opt_epoch, symObjAddr: 0xD980, symBinAddr: 0x22C90, symSize: 0x4 }
  - { offset: 0x12E12F, size: 0x8, addend: 0x0, symName: _llama_opt_epoch, symObjAddr: 0xD980, symBinAddr: 0x22C90, symSize: 0x4 }
  - { offset: 0x12EDED, size: 0x8, addend: 0x0, symName: __ZN20llama_io_write_dummyD0Ev, symObjAddr: 0xDDD8, symBinAddr: 0x22ED0, symSize: 0x4 }
  - { offset: 0x12EE19, size: 0x8, addend: 0x0, symName: __ZN20llama_io_write_dummy5writeEPKvm, symObjAddr: 0xDDDC, symBinAddr: 0x22ED4, symSize: 0x10 }
  - { offset: 0x12EE57, size: 0x8, addend: 0x0, symName: __ZN20llama_io_write_dummy12write_tensorEPK11ggml_tensormm, symObjAddr: 0xDDEC, symBinAddr: 0x22EE4, symSize: 0x10 }
  - { offset: 0x12EEA0, size: 0x8, addend: 0x0, symName: __ZN20llama_io_write_dummy7n_bytesEv, symObjAddr: 0xDDFC, symBinAddr: 0x22EF4, symSize: 0x8 }
  - { offset: 0x12EEC7, size: 0x8, addend: 0x0, symName: __ZN21llama_io_write_bufferD0Ev, symObjAddr: 0xDE04, symBinAddr: 0x22EFC, symSize: 0x4 }
  - { offset: 0x12EEF3, size: 0x8, addend: 0x0, symName: __ZN21llama_io_write_buffer5writeEPKvm, symObjAddr: 0xDE08, symBinAddr: 0x22F00, symSize: 0x94 }
  - { offset: 0x12EF3A, size: 0x8, addend: 0x0, symName: __ZN21llama_io_write_buffer12write_tensorEPK11ggml_tensormm, symObjAddr: 0xDE9C, symBinAddr: 0x22F94, symSize: 0x9C }
  - { offset: 0x12EFBB, size: 0x8, addend: 0x0, symName: __ZN21llama_io_write_buffer7n_bytesEv, symObjAddr: 0xDF38, symBinAddr: 0x23030, symSize: 0x8 }
  - { offset: 0x12EFE2, size: 0x8, addend: 0x0, symName: __ZN20llama_io_read_bufferD0Ev, symObjAddr: 0xDF40, symBinAddr: 0x23038, symSize: 0x4 }
  - { offset: 0x12F00E, size: 0x8, addend: 0x0, symName: __ZN20llama_io_read_buffer4readEm, symObjAddr: 0xDF44, symBinAddr: 0x2303C, symSize: 0x84 }
  - { offset: 0x12F055, size: 0x8, addend: 0x0, symName: __ZN20llama_io_read_buffer7read_toEPvm, symObjAddr: 0xDFC8, symBinAddr: 0x230C0, symSize: 0x3C }
  - { offset: 0x12F0B7, size: 0x8, addend: 0x0, symName: __ZN20llama_io_read_buffer7n_bytesEv, symObjAddr: 0xE004, symBinAddr: 0x230FC, symSize: 0x8 }
  - { offset: 0x12F0DE, size: 0x8, addend: 0x0, symName: __ZN18llama_io_read_fileD0Ev, symObjAddr: 0xE00C, symBinAddr: 0x23104, symSize: 0x44 }
  - { offset: 0x12F10E, size: 0x8, addend: 0x0, symName: __ZN18llama_io_read_fileD0Ev, symObjAddr: 0xE00C, symBinAddr: 0x23104, symSize: 0x44 }
  - { offset: 0x12F12C, size: 0x8, addend: 0x0, symName: __ZN18llama_io_read_fileD0Ev, symObjAddr: 0xE00C, symBinAddr: 0x23104, symSize: 0x44 }
  - { offset: 0x12F6AA, size: 0x8, addend: 0x0, symName: __ZN18llama_io_read_file4readEm, symObjAddr: 0xE050, symBinAddr: 0x23148, symSize: 0x108 }
  - { offset: 0x12FBF3, size: 0x8, addend: 0x0, symName: __ZN18llama_io_read_file7read_toEPvm, symObjAddr: 0xE158, symBinAddr: 0x23250, symSize: 0x34 }
  - { offset: 0x12FC13, size: 0x8, addend: 0x0, symName: __ZN18llama_io_read_file7read_toEPvm, symObjAddr: 0xE158, symBinAddr: 0x23250, symSize: 0x34 }
  - { offset: 0x12FC5A, size: 0x8, addend: 0x0, symName: __ZN18llama_io_read_file7n_bytesEv, symObjAddr: 0xE18C, symBinAddr: 0x23284, symSize: 0x8 }
  - { offset: 0x12FCE6, size: 0x8, addend: 0x0, symName: __ZN19llama_io_write_fileD0Ev, symObjAddr: 0xE21C, symBinAddr: 0x2328C, symSize: 0x44 }
  - { offset: 0x12FD16, size: 0x8, addend: 0x0, symName: __ZN19llama_io_write_fileD0Ev, symObjAddr: 0xE21C, symBinAddr: 0x2328C, symSize: 0x44 }
  - { offset: 0x12FD34, size: 0x8, addend: 0x0, symName: __ZN19llama_io_write_fileD0Ev, symObjAddr: 0xE21C, symBinAddr: 0x2328C, symSize: 0x44 }
  - { offset: 0x12FE7C, size: 0x8, addend: 0x0, symName: __ZN19llama_io_write_file5writeEPKvm, symObjAddr: 0xE260, symBinAddr: 0x232D0, symSize: 0x34 }
  - { offset: 0x12FEC3, size: 0x8, addend: 0x0, symName: __ZN19llama_io_write_file12write_tensorEPK11ggml_tensormm, symObjAddr: 0xE294, symBinAddr: 0x23304, symSize: 0x130 }
  - { offset: 0x13045A, size: 0x8, addend: 0x0, symName: __ZNSt3__15arrayINS_12basic_stringIcNS_11char_traitsIcEENS_9allocatorIcEEEELm9EED2Ev, symObjAddr: 0xE3C4, symBinAddr: 0x23434, symSize: 0x100 }
  - { offset: 0x130BEC, size: 0x8, addend: 0x0, symName: __ZNSt3__112__hash_tableINS_17__hash_value_typeIP18llama_adapter_lorafEENS_22__unordered_map_hasherIS3_S4_NS_4hashIS3_EENS_8equal_toIS3_EELb1EEENS_21__unordered_map_equalIS3_S4_S9_S7_Lb1EEENS_9allocatorIS4_EEE11__do_rehashILb1EEEvm, symObjAddr: 0xEF2C, symBinAddr: 0x23E40, symSize: 0x180 }
  - { offset: 0x130F79, size: 0x8, addend: 0x0, symName: __ZNSt3__112__hash_tableINS_17__hash_value_typeIP18llama_adapter_lorafEENS_22__unordered_map_hasherIS3_S4_NS_4hashIS3_EENS_8equal_toIS3_EELb1EEENS_21__unordered_map_equalIS3_S4_S9_S7_Lb1EEENS_9allocatorIS4_EEE6removeENS_21__hash_const_iteratorIPNS_11__hash_nodeIS4_PvEEEE, symObjAddr: 0xF0AC, symBinAddr: 0x23FC0, symSize: 0x138 }
  - { offset: 0x13184A, size: 0x8, addend: 0x0, symName: __ZNSt3__16__treeINS_12__value_typeIijEENS_19__map_value_compareIiS2_NS_4lessIiEELb1EEENS_9allocatorIS2_EEE7destroyEPNS_11__tree_nodeIS2_PvEE, symObjAddr: 0xF550, symBinAddr: 0x240F8, symSize: 0x44 }
  - { offset: 0x131B68, size: 0x8, addend: 0x0, symName: __ZNSt3__16vectorIjNS_9allocatorIjEEE20__throw_length_errorB8ne200100Ev, symObjAddr: 0xF6C8, symBinAddr: 0x24270, symSize: 0x14 }
  - { offset: 0x131B80, size: 0x8, addend: 0x0, symName: __ZNSt3__13mapIiP13llama_samplerNS_4lessIiEENS_9allocatorINS_4pairIKiS2_EEEEE6insertB8ne200100INS_20__map_const_iteratorINS_21__tree_const_iteratorINS_12__value_typeIiS2_EEPNS_11__tree_nodeISF_PvEElEEEEEEvT_SM_, symObjAddr: 0xF6DC, symBinAddr: 0x24284, symSize: 0xF8 }
  - { offset: 0x131DD0, size: 0x8, addend: 0x0, symName: __ZNSt3__16__treeINS_12__value_typeIiP13llama_samplerEENS_19__map_value_compareIiS4_NS_4lessIiEELb1EEENS_9allocatorIS4_EEE12__find_equalIiEERPNS_16__tree_node_baseIPvEENS_21__tree_const_iteratorIS4_PNS_11__tree_nodeIS4_SE_EElEERPNS_15__tree_end_nodeISG_EESH_RKT_, symObjAddr: 0xF7D4, symBinAddr: 0x2437C, symSize: 0x1B0 }
  - { offset: 0x131E33, size: 0x8, addend: 0x0, symName: __ZNSt3__16__treeINS_12__value_typeIiP13llama_samplerEENS_19__map_value_compareIiS4_NS_4lessIiEELb1EEENS_9allocatorIS4_EEE12__find_equalIiEERPNS_16__tree_node_baseIPvEENS_21__tree_const_iteratorIS4_PNS_11__tree_nodeIS4_SE_EElEERPNS_15__tree_end_nodeISG_EESH_RKT_, symObjAddr: 0xF7D4, symBinAddr: 0x2437C, symSize: 0x1B0 }
  - { offset: 0x131E4F, size: 0x8, addend: 0x0, symName: __ZNSt3__16__treeINS_12__value_typeIiP13llama_samplerEENS_19__map_value_compareIiS4_NS_4lessIiEELb1EEENS_9allocatorIS4_EEE12__find_equalIiEERPNS_16__tree_node_baseIPvEENS_21__tree_const_iteratorIS4_PNS_11__tree_nodeIS4_SE_EElEERPNS_15__tree_end_nodeISG_EESH_RKT_, symObjAddr: 0xF7D4, symBinAddr: 0x2437C, symSize: 0x1B0 }
  - { offset: 0x1321E4, size: 0x8, addend: 0x0, symName: '__ZNSt3__110__function6__funcIZNK13llama_context12graph_get_cbEvE3$_0NS_9allocatorIS3_EEFvRK12llama_ubatchP11ggml_tensorPKciEED1Ev', symObjAddr: 0xF984, symBinAddr: 0x2452C, symSize: 0x4 }
  - { offset: 0x132210, size: 0x8, addend: 0x0, symName: '__ZNSt3__110__function6__funcIZNK13llama_context12graph_get_cbEvE3$_0NS_9allocatorIS3_EEFvRK12llama_ubatchP11ggml_tensorPKciEED0Ev', symObjAddr: 0xF988, symBinAddr: 0x24530, symSize: 0x4 }
  - { offset: 0x1322C7, size: 0x8, addend: 0x0, symName: '__ZNKSt3__110__function6__funcIZNK13llama_context12graph_get_cbEvE3$_0NS_9allocatorIS3_EEFvRK12llama_ubatchP11ggml_tensorPKciEE7__cloneEv', symObjAddr: 0xF98C, symBinAddr: 0x24534, symSize: 0x34 }
  - { offset: 0x132419, size: 0x8, addend: 0x0, symName: '__ZNKSt3__110__function6__funcIZNK13llama_context12graph_get_cbEvE3$_0NS_9allocatorIS3_EEFvRK12llama_ubatchP11ggml_tensorPKciEE7__cloneEPNS0_6__baseISD_EE', symObjAddr: 0xF9C0, symBinAddr: 0x24568, symSize: 0x14 }
  - { offset: 0x132486, size: 0x8, addend: 0x0, symName: '__ZNSt3__110__function6__funcIZNK13llama_context12graph_get_cbEvE3$_0NS_9allocatorIS3_EEFvRK12llama_ubatchP11ggml_tensorPKciEE7destroyEv', symObjAddr: 0xF9D4, symBinAddr: 0x2457C, symSize: 0x4 }
  - { offset: 0x1324DB, size: 0x8, addend: 0x0, symName: '__ZNSt3__110__function6__funcIZNK13llama_context12graph_get_cbEvE3$_0NS_9allocatorIS3_EEFvRK12llama_ubatchP11ggml_tensorPKciEE18destroy_deallocateEv', symObjAddr: 0xF9D8, symBinAddr: 0x24580, symSize: 0x4 }
  - { offset: 0x132510, size: 0x8, addend: 0x0, symName: '__ZNSt3__110__function6__funcIZNK13llama_context12graph_get_cbEvE3$_0NS_9allocatorIS3_EEFvRK12llama_ubatchP11ggml_tensorPKciEE18destroy_deallocateEv', symObjAddr: 0xF9D8, symBinAddr: 0x24580, symSize: 0x4 }
  - { offset: 0x132533, size: 0x8, addend: 0x0, symName: '__ZNSt3__110__function6__funcIZNK13llama_context12graph_get_cbEvE3$_0NS_9allocatorIS3_EEFvRK12llama_ubatchP11ggml_tensorPKciEE18destroy_deallocateEv', symObjAddr: 0xF9D8, symBinAddr: 0x24580, symSize: 0x4 }
  - { offset: 0x132566, size: 0x8, addend: 0x0, symName: '__ZNSt3__110__function6__funcIZNK13llama_context12graph_get_cbEvE3$_0NS_9allocatorIS3_EEFvRK12llama_ubatchP11ggml_tensorPKciEE18destroy_deallocateEv', symObjAddr: 0xF9D8, symBinAddr: 0x24580, symSize: 0x4 }
  - { offset: 0x1326D1, size: 0x8, addend: 0x0, symName: '__ZNSt3__110__function6__funcIZNK13llama_context12graph_get_cbEvE3$_0NS_9allocatorIS3_EEFvRK12llama_ubatchP11ggml_tensorPKciEEclES8_OSA_OSC_Oi', symObjAddr: 0xF9DC, symBinAddr: 0x24584, symSize: 0x128 }
  - { offset: 0x1329E3, size: 0x8, addend: 0x0, symName: '__ZNKSt3__110__function6__funcIZNK13llama_context12graph_get_cbEvE3$_0NS_9allocatorIS3_EEFvRK12llama_ubatchP11ggml_tensorPKciEE6targetERKSt9type_info', symObjAddr: 0xFB04, symBinAddr: 0x246AC, symSize: 0x64 }
  - { offset: 0x132A97, size: 0x8, addend: 0x0, symName: '__ZNKSt3__110__function6__funcIZNK13llama_context12graph_get_cbEvE3$_0NS_9allocatorIS3_EEFvRK12llama_ubatchP11ggml_tensorPKciEE11target_typeEv', symObjAddr: 0xFB68, symBinAddr: 0x24710, symSize: 0xC }
  - { offset: 0x134C51, size: 0x8, addend: 0x0, symName: _llama_max_parallel_sequences, symObjAddr: 0x0, symBinAddr: 0x24890, symSize: 0x8 }
  - { offset: 0x134C5F, size: 0x8, addend: 0x0, symName: _llama_max_parallel_sequences, symObjAddr: 0x0, symBinAddr: 0x24890, symSize: 0x8 }
  - { offset: 0x134DB5, size: 0x8, addend: 0x0, symName: __ZNK29llama_grammar_trigger_pattern4findERKNSt3__112basic_stringIcNS0_11char_traitsIcEENS0_9allocatorIcEEEE, symObjAddr: 0x0, symBinAddr: 0x24898, symSize: 0x348 }
  - { offset: 0x15A8AF, size: 0x8, addend: 0x0, symName: __ZNSt3__135__uninitialized_allocator_copy_implB8ne200100INS_9allocatorINS_6vectorI21llama_grammar_elementNS1_IS3_EEEEEEPS5_S7_S7_EET2_RT_T0_T1_S8_, symObjAddr: 0x167E4, symBinAddr: 0x3ABD4, symSize: 0xF8 }
  - { offset: 0x15ADF2, size: 0x8, addend: 0x0, symName: __ZNSt3__135__uninitialized_allocator_copy_implB8ne200100INS_9allocatorINS_6vectorIPK21llama_grammar_elementNS1_IS5_EEEEEEPS7_S9_S9_EET2_RT_T0_T1_SA_, symObjAddr: 0x169CC, symBinAddr: 0x3ADBC, symSize: 0xF8 }
  - { offset: 0x15C2E3, size: 0x8, addend: 0x0, symName: __ZNSt3__119__throw_regex_errorB8ne200100ILNS_15regex_constants10error_typeE12EEEvv, symObjAddr: 0xC1C4, symBinAddr: 0x30880, symSize: 0x4C }
  - { offset: 0x15C309, size: 0x8, addend: 0x0, symName: __ZNSt3__119__throw_regex_errorB8ne200100ILNS_15regex_constants10error_typeE16EEEvv, symObjAddr: 0xC210, symBinAddr: 0x308CC, symSize: 0x4C }
  - { offset: 0x15DD1C, size: 0x8, addend: 0x0, symName: __ZNSt3__134__uninitialized_allocator_relocateB8ne200100INS_9allocatorI29llama_grammar_trigger_patternEEPS2_EEvRT_T0_S7_S7_, symObjAddr: 0xEB20, symBinAddr: 0x3301C, symSize: 0xFC }
  - { offset: 0x15DD77, size: 0x8, addend: 0x0, symName: __ZNSt3__134__uninitialized_allocator_relocateB8ne200100INS_9allocatorI29llama_grammar_trigger_patternEEPS2_EEvRT_T0_S7_S7_, symObjAddr: 0xEB20, symBinAddr: 0x3301C, symSize: 0xFC }
  - { offset: 0x15E213, size: 0x8, addend: 0x0, symName: __ZNSt3__119__throw_regex_errorB8ne200100ILNS_15regex_constants10error_typeE17EEEvv, symObjAddr: 0xEFA8, symBinAddr: 0x334A4, symSize: 0x4C }
  - { offset: 0x15E94E, size: 0x8, addend: 0x0, symName: __ZNSt3__119__throw_regex_errorB8ne200100ILNS_15regex_constants10error_typeE14EEEvv, symObjAddr: 0xF860, symBinAddr: 0x33D5C, symSize: 0x4C }
  - { offset: 0x15EC37, size: 0x8, addend: 0x0, symName: __ZNSt3__119__throw_regex_errorB8ne200100ILNS_15regex_constants10error_typeE15EEEvv, symObjAddr: 0x15BC4, symBinAddr: 0x3A03C, symSize: 0x4C }
  - { offset: 0x15F033, size: 0x8, addend: 0x0, symName: __ZNSt3__119__throw_regex_errorB8ne200100ILNS_15regex_constants10error_typeE6EEEvv, symObjAddr: 0x104BC, symBinAddr: 0x349B8, symSize: 0x4C }
  - { offset: 0x15F1E2, size: 0x8, addend: 0x0, symName: __ZNSt3__119__throw_regex_errorB8ne200100ILNS_15regex_constants10error_typeE11EEEvv, symObjAddr: 0x10E18, symBinAddr: 0x35314, symSize: 0x4C }
  - { offset: 0x15F226, size: 0x8, addend: 0x0, symName: __ZNSt3__119__throw_regex_errorB8ne200100ILNS_15regex_constants10error_typeE8EEEvv, symObjAddr: 0x15584, symBinAddr: 0x399FC, symSize: 0x4C }
  - { offset: 0x15F24C, size: 0x8, addend: 0x0, symName: __ZNSt3__119__throw_regex_errorB8ne200100ILNS_15regex_constants10error_typeE7EEEvv, symObjAddr: 0x155D0, symBinAddr: 0x39A48, symSize: 0x4C }
  - { offset: 0x15F37D, size: 0x8, addend: 0x0, symName: __ZNSt3__119__throw_regex_errorB8ne200100ILNS_15regex_constants10error_typeE4EEEvv, symObjAddr: 0x116E8, symBinAddr: 0x35BE4, symSize: 0x4C }
  - { offset: 0x15F3A3, size: 0x8, addend: 0x0, symName: __ZNSt3__119__throw_regex_errorB8ne200100ILNS_15regex_constants10error_typeE3EEEvv, symObjAddr: 0x10F70, symBinAddr: 0x3546C, symSize: 0x4C }
  - { offset: 0x15F3C9, size: 0x8, addend: 0x0, symName: __ZNSt3__119__throw_regex_errorB8ne200100ILNS_15regex_constants10error_typeE5EEEvv, symObjAddr: 0x132F4, symBinAddr: 0x3776C, symSize: 0x4C }
  - { offset: 0x15FFDD, size: 0x8, addend: 0x0, symName: __ZNSt3__119__throw_regex_errorB8ne200100ILNS_15regex_constants10error_typeE1EEEvv, symObjAddr: 0x14684, symBinAddr: 0x38AFC, symSize: 0x4C }
  - { offset: 0x160003, size: 0x8, addend: 0x0, symName: __ZNSt3__119__throw_regex_errorB8ne200100ILNS_15regex_constants10error_typeE2EEEvv, symObjAddr: 0x14C78, symBinAddr: 0x390F0, symSize: 0x4C }
  - { offset: 0x160065, size: 0x8, addend: 0x0, symName: __ZNSt3__119__throw_regex_errorB8ne200100ILNS_15regex_constants10error_typeE9EEEvv, symObjAddr: 0x1524C, symBinAddr: 0x396C4, symSize: 0x4C }
  - { offset: 0x161E85, size: 0x8, addend: 0x0, symName: __ZL11decode_utf8RKNSt3__112basic_stringIcNS_11char_traitsIcEENS_9allocatorIcEEEE18llama_partial_utf8, symObjAddr: 0x86F4, symBinAddr: 0x2CEE8, symSize: 0x498 }
  - { offset: 0x161EAF, size: 0x8, addend: 0x0, symName: __ZZL11decode_utf8RKNSt3__112basic_stringIcNS_11char_traitsIcEENS_9allocatorIcEEEE18llama_partial_utf8E6lookup, symObjAddr: 0x184C0, symBinAddr: 0x299478, symSize: 0x0 }
  - { offset: 0x165678, size: 0x8, addend: 0x0, symName: __ZNK29llama_grammar_trigger_pattern4findERKNSt3__112basic_stringIcNS0_11char_traitsIcEENS0_9allocatorIcEEEE, symObjAddr: 0x0, symBinAddr: 0x24898, symSize: 0x348 }
  - { offset: 0x166894, size: 0x8, addend: 0x0, symName: __ZNKSt3__111basic_regexIcNS_12regex_traitsIcEEE8__searchINS_9allocatorINS_9sub_matchIPKcEEEEEEbS8_S8_RNS_13match_resultsIS8_T_EENS_15regex_constants15match_flag_typeE, symObjAddr: 0xA854, symBinAddr: 0x2EF10, symSize: 0x308 }
  - { offset: 0x166DEF, size: 0x8, addend: 0x0, symName: __ZNSt3__113match_resultsINS_11__wrap_iterIPKcEENS_9allocatorINS_9sub_matchIS4_EEEEE8__assignB8ne200100IS3_NS5_INS6_IS3_EEEEEEvS4_S4_RKNS0_IT_T0_EEb, symObjAddr: 0xAB5C, symBinAddr: 0x2F218, symSize: 0x168 }
  - { offset: 0x167D48, size: 0x8, addend: 0x0, symName: __ZN20llama_grammar_parser13get_symbol_idEPKcm, symObjAddr: 0x348, symBinAddr: 0x24BE0, symSize: 0x104 }
  - { offset: 0x168239, size: 0x8, addend: 0x0, symName: __ZNSt3__16__treeINS_12__value_typeINS_12basic_stringIcNS_11char_traitsIcEENS_9allocatorIcEEEEjEENS_19__map_value_compareIS7_S8_NS_4lessIS7_EELb1EEENS5_IS8_EEE25__emplace_unique_key_argsIS7_JS7_RjEEENS_4pairINS_15__tree_iteratorIS8_PNS_11__tree_nodeIS8_PvEElEEbEERKT_DpOT0_, symObjAddr: 0xDF9C, symBinAddr: 0x32658, symSize: 0x180 }
  - { offset: 0x168805, size: 0x8, addend: 0x0, symName: __ZNKSt3__111basic_regexIcNS_12regex_traitsIcEEE8__searchINS_9allocatorINS_9sub_matchIPKcEEEEEEbS8_S8_RNS_13match_resultsIS8_T_EENS_15regex_constants15match_flag_typeE, symObjAddr: 0xA854, symBinAddr: 0x2EF10, symSize: 0x308 }
  - { offset: 0x168810, size: 0x8, addend: 0x0, symName: __ZNSt3__112basic_stringIcNS_11char_traitsIcEENS_9allocatorIcEEEC1B8ne200100EPKcm, symObjAddr: 0x44C, symBinAddr: 0x24CE4, symSize: 0xA8 }
  - { offset: 0x168A3A, size: 0x8, addend: 0x0, symName: __ZN20llama_grammar_parser18generate_symbol_idERKNSt3__112basic_stringIcNS0_11char_traitsIcEENS0_9allocatorIcEEEE, symObjAddr: 0x4F4, symBinAddr: 0x24D8C, symSize: 0x200 }
  - { offset: 0x168BB3, size: 0x8, addend: 0x0, symName: __ZN20llama_grammar_parser18generate_symbol_idERKNSt3__112basic_stringIcNS0_11char_traitsIcEENS0_9allocatorIcEEEE, symObjAddr: 0x4F4, symBinAddr: 0x24D8C, symSize: 0x200 }
  - { offset: 0x16961F, size: 0x8, addend: 0x0, symName: __ZNSt3__16__treeINS_12__value_typeINS_12basic_stringIcNS_11char_traitsIcEENS_9allocatorIcEEEEjEENS_19__map_value_compareIS7_S8_NS_4lessIS7_EELb1EEENS5_IS8_EEE25__emplace_unique_key_argsIS7_JRKNS_21piecewise_construct_tENS_5tupleIJOS7_EEENSJ_IJEEEEEENS_4pairINS_15__tree_iteratorIS8_PNS_11__tree_nodeIS8_PvEElEEbEERKT_DpOT0_, symObjAddr: 0xE2C8, symBinAddr: 0x327D8, symSize: 0x174 }
  - { offset: 0x169E77, size: 0x8, addend: 0x0, symName: __ZN20llama_grammar_parser8add_ruleEjRKNSt3__16vectorI21llama_grammar_elementNS0_9allocatorIS2_EEEE, symObjAddr: 0x6F4, symBinAddr: 0x24F8C, symSize: 0xE4 }
  - { offset: 0x16A175, size: 0x8, addend: 0x0, symName: __ZNSt3__16vectorINS0_I21llama_grammar_elementNS_9allocatorIS1_EEEENS2_IS4_EEE8__appendEm, symObjAddr: 0xE43C, symBinAddr: 0x3294C, symSize: 0x180 }
  - { offset: 0x16A5B8, size: 0x8, addend: 0x0, symName: __ZNSt3__16vectorINS0_I21llama_grammar_elementNS_9allocatorIS1_EEEENS2_IS4_EEE20__throw_length_errorB8ne200100Ev, symObjAddr: 0xE5BC, symBinAddr: 0x32ACC, symSize: 0x14 }
  - { offset: 0x16A5C3, size: 0x8, addend: 0x0, symName: __ZNSt3__16vectorI21llama_grammar_elementNS_9allocatorIS1_EEE18__assign_with_sizeB8ne200100IPS1_S6_EEvT_T0_l, symObjAddr: 0xE5D0, symBinAddr: 0x32AE0, symSize: 0x148 }
  - { offset: 0x16AFD1, size: 0x8, addend: 0x0, symName: __ZNSt3__16__treeINS_12__value_typeIjNS_12basic_stringIcNS_11char_traitsIcEENS_9allocatorIcEEEEEENS_19__map_value_compareIjS8_NS_4lessIjEELb1EEENS5_IS8_EEE7destroyEPNS_11__tree_nodeIS8_PvEE, symObjAddr: 0xE718, symBinAddr: 0x32C28, symSize: 0x60 }
  - { offset: 0x16B38B, size: 0x8, addend: 0x0, symName: __ZN20llama_grammar_parser16parse_alternatesEPKcRKNSt3__112basic_stringIcNS2_11char_traitsIcEENS2_9allocatorIcEEEEjb, symObjAddr: 0x7D8, symBinAddr: 0x25070, symSize: 0x34C }
  - { offset: 0x16C1DE, size: 0x8, addend: 0x0, symName: __ZN20llama_grammar_parser14parse_sequenceEPKcRKNSt3__112basic_stringIcNS2_11char_traitsIcEENS2_9allocatorIcEEEERNS2_6vectorI21llama_grammar_elementNS6_ISC_EEEEb, symObjAddr: 0xB24, symBinAddr: 0x253BC, symSize: 0x1E84 }
  - { offset: 0x16FAD5, size: 0x8, addend: 0x0, symName: __ZNSt3__16vectorI21llama_grammar_elementNS_9allocatorIS1_EEE20__throw_length_errorB8ne200100Ev, symObjAddr: 0x9E24, symBinAddr: 0x2E618, symSize: 0x14 }
  - { offset: 0x16FC77, size: 0x8, addend: 0x0, symName: __ZL10parse_charPKc, symObjAddr: 0x29A8, symBinAddr: 0x27240, symSize: 0x288 }
  - { offset: 0x16FF79, size: 0x8, addend: 0x0, symName: __ZL9parse_intPKc, symObjAddr: 0x3588, symBinAddr: 0x27D7C, symSize: 0x124 }
  - { offset: 0x170227, size: 0x8, addend: 0x0, symName: __ZL10parse_namePKc, symObjAddr: 0x2C30, symBinAddr: 0x274C8, symSize: 0x13C }
  - { offset: 0x1704F3, size: 0x8, addend: 0x0, symName: '__ZZN20llama_grammar_parser14parse_sequenceEPKcRKNSt3__112basic_stringIcNS2_11char_traitsIcEENS2_9allocatorIcEEEERNS2_6vectorI21llama_grammar_elementNS6_ISC_EEEEbENK3$_0clEyy', symObjAddr: 0x2E10, symBinAddr: 0x27604, symSize: 0x778 }
  - { offset: 0x172621, size: 0x8, addend: 0x0, symName: '__ZZN20llama_grammar_parser14parse_sequenceEPKcRKNSt3__112basic_stringIcNS2_11char_traitsIcEENS2_9allocatorIcEEEERNS2_6vectorI21llama_grammar_elementNS6_ISC_EEEEbENK3$_0clEyy', symObjAddr: 0x2E10, symBinAddr: 0x27604, symSize: 0x778 }
  - { offset: 0x172696, size: 0x8, addend: 0x0, symName: __ZL9parse_hexPKci, symObjAddr: 0x9BE4, symBinAddr: 0x2E3D8, symSize: 0x240 }
  - { offset: 0x1731C1, size: 0x8, addend: 0x0, symName: __ZNSt3__16vectorI21llama_grammar_elementNS_9allocatorIS1_EEE18__insert_with_sizeB8ne200100INS_11__wrap_iterIPS1_EES8_EES8_NS6_IPKS1_EET_T0_l, symObjAddr: 0x9FF4, symBinAddr: 0x2E74C, symSize: 0x38C }
  - { offset: 0x173CB2, size: 0x8, addend: 0x0, symName: __ZNSt3__16vectorI21llama_grammar_elementNS_9allocatorIS1_EEE8__appendEm, symObjAddr: 0x9ED4, symBinAddr: 0x2E62C, symSize: 0x120 }
  - { offset: 0x17407B, size: 0x8, addend: 0x0, symName: __ZNSt3__16vectorI21llama_grammar_elementNS_9allocatorIS1_EEE18__insert_with_sizeB8ne200100INS_11__wrap_iterIPS1_EES8_EES8_NS6_IPKS1_EET_T0_l, symObjAddr: 0x9FF4, symBinAddr: 0x2E74C, symSize: 0x38C }
  - { offset: 0x174086, size: 0x8, addend: 0x0, symName: __ZN20llama_grammar_parser10parse_ruleEPKc, symObjAddr: 0x36AC, symBinAddr: 0x27EA0, symSize: 0x448 }
  - { offset: 0x174C09, size: 0x8, addend: 0x0, symName: __ZN20llama_grammar_parser5parseEPKc, symObjAddr: 0x3AF4, symBinAddr: 0x282E8, symSize: 0x350 }
  - { offset: 0x175AA4, size: 0x8, addend: 0x0, symName: __ZN20llama_grammar_parser5printEP7__sFILE, symObjAddr: 0x3E44, symBinAddr: 0x28638, symSize: 0xA40 }
  - { offset: 0x1774A9, size: 0x8, addend: 0x0, symName: __ZNSt3__16__treeINS_12__value_typeIjNS_12basic_stringIcNS_11char_traitsIcEENS_9allocatorIcEEEEEENS_19__map_value_compareIjS8_NS_4lessIjEELb1EEENS5_IS8_EEE7destroyEPNS_11__tree_nodeIS8_PvEE, symObjAddr: 0xE718, symBinAddr: 0x32C28, symSize: 0x60 }
  - { offset: 0x177B82, size: 0x8, addend: 0x0, symName: __ZNK20llama_grammar_parser7c_rulesEv, symObjAddr: 0x4884, symBinAddr: 0x29078, symSize: 0x1B8 }
  - { offset: 0x1782E8, size: 0x8, addend: 0x0, symName: __ZNSt3__16vectorIPK21llama_grammar_elementNS_9allocatorIS3_EEE20__throw_length_errorB8ne200100Ev, symObjAddr: 0xE778, symBinAddr: 0x32C88, symSize: 0x14 }
  - { offset: 0x178300, size: 0x8, addend: 0x0, symName: __ZNSt3__16vectorI23llama_grammar_candidateNS_9allocatorIS1_EEE20__throw_length_errorB8ne200100Ev, symObjAddr: 0xE78C, symBinAddr: 0x32C9C, symSize: 0x14 }
  - { offset: 0x17830B, size: 0x8, addend: 0x0, symName: __Z23llama_grammar_get_rulesPK13llama_grammar, symObjAddr: 0x4A3C, symBinAddr: 0x29230, symSize: 0x8 }
  - { offset: 0x17833B, size: 0x8, addend: 0x0, symName: __Z24llama_grammar_get_stacksP13llama_grammar, symObjAddr: 0x4A44, symBinAddr: 0x29238, symSize: 0x8 }
  - { offset: 0x178659, size: 0x8, addend: 0x0, symName: __Z20llama_grammar_acceptP13llama_grammarj, symObjAddr: 0x4A4C, symBinAddr: 0x29240, symSize: 0x144 }
  - { offset: 0x178C05, size: 0x8, addend: 0x0, symName: __ZL24llama_grammar_accept_chrR13llama_grammarRKNSt3__16vectorIPK21llama_grammar_elementNS1_9allocatorIS5_EEEEjRNS2_IS8_NS6_IS8_EEEE, symObjAddr: 0x4B90, symBinAddr: 0x29384, symSize: 0x300 }
  - { offset: 0x179634, size: 0x8, addend: 0x0, symName: __ZNSt3__16vectorINS0_IPK21llama_grammar_elementNS_9allocatorIS3_EEEENS4_IS6_EEE20__throw_length_errorB8ne200100Ev, symObjAddr: 0xA5D4, symBinAddr: 0x2ECB8, symSize: 0x14 }
  - { offset: 0x17964C, size: 0x8, addend: 0x0, symName: __ZNSt3__110shared_ptrINS_13__empty_stateIcEEED1B8ne200100Ev, symObjAddr: 0xA5E8, symBinAddr: 0x2ECCC, symSize: 0x5C }
  - { offset: 0x179657, size: 0x8, addend: 0x0, symName: __ZNSt3__16vectorINS0_IPK21llama_grammar_elementNS_9allocatorIS3_EEEENS4_IS6_EEED1B8ne200100Ev, symObjAddr: 0x4E90, symBinAddr: 0x29684, symSize: 0x74 }
  - { offset: 0x179CAD, size: 0x8, addend: 0x0, symName: __ZL27llama_grammar_advance_stackRKNSt3__16vectorINS0_I21llama_grammar_elementNS_9allocatorIS1_EEEENS2_IS4_EEEERKNS0_IPKS1_NS2_ISA_EEEERNS0_ISC_NS2_ISC_EEEE, symObjAddr: 0x5EC0, symBinAddr: 0x2A6B4, symSize: 0x52C }
  - { offset: 0x17BE58, size: 0x8, addend: 0x0, symName: __Z41llama_grammar_reject_candidates_for_stackRKNSt3__16vectorINS0_I21llama_grammar_elementNS_9allocatorIS1_EEEENS2_IS4_EEEERKNS0_IPKS1_NS2_ISA_EEEERKNS0_I23llama_grammar_candidateNS2_ISF_EEEE, symObjAddr: 0x4F04, symBinAddr: 0x296F8, symSize: 0xFBC }
  - { offset: 0x17EF58, size: 0x8, addend: 0x0, symName: __ZL31llama_grammar_reject_candidatesRKNSt3__16vectorINS0_I21llama_grammar_elementNS_9allocatorIS1_EEEENS2_IS4_EEEERKNS0_INS0_IPKS1_NS2_ISA_EEEENS2_ISC_EEEERKNS0_I23llama_grammar_candidateNS2_ISH_EEEE, symObjAddr: 0x63EC, symBinAddr: 0x2ABE0, symSize: 0x120 }
  - { offset: 0x17F2DF, size: 0x8, addend: 0x0, symName: __ZNSt3__16vectorI23llama_grammar_candidateNS_9allocatorIS1_EEE20__throw_length_errorB8ne200100Ev, symObjAddr: 0xE78C, symBinAddr: 0x32C9C, symSize: 0x14 }
  - { offset: 0x17F2F7, size: 0x8, addend: 0x0, symName: __ZNSt3__128__exception_guard_exceptionsINS_6vectorINS1_I21llama_grammar_elementNS_9allocatorIS2_EEEENS3_IS5_EEE16__destroy_vectorEED1B8ne200100Ev, symObjAddr: 0xE7A0, symBinAddr: 0x32CB0, symSize: 0x84 }
  - { offset: 0x17F618, size: 0x8, addend: 0x0, symName: __ZNSt3__16vectorINS0_IPK21llama_grammar_elementNS_9allocatorIS3_EEEENS4_IS6_EEE24__emplace_back_slow_pathIJRKS6_EEEPS6_DpOT_, symObjAddr: 0xA3F4, symBinAddr: 0x2EAD8, symSize: 0x174 }
  - { offset: 0x180583, size: 0x8, addend: 0x0, symName: __Z23llama_grammar_init_implPK11llama_vocabPPK21llama_grammar_elementmm, symObjAddr: 0x650C, symBinAddr: 0x2AD00, symSize: 0x688 }
  - { offset: 0x1826C5, size: 0x8, addend: 0x0, symName: __ZL35llama_grammar_detect_left_recursionRKNSt3__16vectorINS0_I21llama_grammar_elementNS_9allocatorIS1_EEEENS2_IS4_EEEEmPNS0_IbNS2_IbEEEESB_SB_, symObjAddr: 0x6B94, symBinAddr: 0x2B388, symSize: 0x190 }
  - { offset: 0x182A35, size: 0x8, addend: 0x0, symName: __ZNSt3__16vectorINS0_I21llama_grammar_elementNS_9allocatorIS1_EEEENS2_IS4_EEE20__throw_length_errorB8ne200100Ev, symObjAddr: 0xE5BC, symBinAddr: 0x32ACC, symSize: 0x14 }
  - { offset: 0x182A4D, size: 0x8, addend: 0x0, symName: __ZNSt3__16vectorI21llama_grammar_elementNS_9allocatorIS1_EEE18__assign_with_sizeB8ne200100IPS1_S6_EEvT_T0_l, symObjAddr: 0xE5D0, symBinAddr: 0x32AE0, symSize: 0x148 }
  - { offset: 0x182A58, size: 0x8, addend: 0x0, symName: __ZNSt3__16vectorINS0_I21llama_grammar_elementNS_9allocatorIS1_EEEENS2_IS4_EEED1B8ne200100Ev, symObjAddr: 0x6D24, symBinAddr: 0x2B518, symSize: 0x74 }
  - { offset: 0x182CD7, size: 0x8, addend: 0x0, symName: __ZNSt3__128__exception_guard_exceptionsINS_6vectorINS1_I21llama_grammar_elementNS_9allocatorIS2_EEEENS3_IS5_EEE16__destroy_vectorEED1B8ne200100Ev, symObjAddr: 0xE7A0, symBinAddr: 0x32CB0, symSize: 0x84 }
  - { offset: 0x183D09, size: 0x8, addend: 0x0, symName: __Z23llama_grammar_init_implPK11llama_vocabPKcS3_bPS3_mPKim, symObjAddr: 0x6D98, symBinAddr: 0x2B58C, symSize: 0xD40 }
  - { offset: 0x187B0B, size: 0x8, addend: 0x0, symName: __ZNSt3__16__treeINS_12__value_typeINS_12basic_stringIcNS_11char_traitsIcEENS_9allocatorIcEEEEjEENS_19__map_value_compareIS7_S8_NS_4lessIS7_EELb1EEENS5_IS8_EEE7destroyEPNS_11__tree_nodeIS8_PvEE, symObjAddr: 0xA644, symBinAddr: 0x2ED28, symSize: 0x60 }
  - { offset: 0x187D4F, size: 0x8, addend: 0x0, symName: __ZNSt3__16vectorI29llama_grammar_trigger_patternNS_9allocatorIS1_EEE24__emplace_back_slow_pathIJEEEPS1_DpOT_, symObjAddr: 0xE838, symBinAddr: 0x32D34, symSize: 0x1B0 }
  - { offset: 0x188279, size: 0x8, addend: 0x0, symName: __ZNSt3__111basic_regexIcNS_12regex_traitsIcEEEC2B8ne200100INS_11char_traitsIcEENS_9allocatorIcEEEERKNS_12basic_stringIcT_T0_EENS_15regex_constants18syntax_option_typeE, symObjAddr: 0xECD4, symBinAddr: 0x331D0, symSize: 0xD4 }
  - { offset: 0x18844B, size: 0x8, addend: 0x0, symName: __ZNSt3__16vectorI29llama_grammar_trigger_patternNS_9allocatorIS1_EEE24__emplace_back_slow_pathIJEEEPS1_DpOT_, symObjAddr: 0xE838, symBinAddr: 0x32D34, symSize: 0x1B0 }
  - { offset: 0x188456, size: 0x8, addend: 0x0, symName: __ZN20llama_grammar_parserD1Ev, symObjAddr: 0x7BF4, symBinAddr: 0x2C3E8, symSize: 0x80 }
  - { offset: 0x188773, size: 0x8, addend: 0x0, symName: __ZNSt3__16vectorI29llama_grammar_trigger_patternNS_9allocatorIS1_EEED1B8ne200100Ev, symObjAddr: 0x7B34, symBinAddr: 0x2C328, symSize: 0xC0 }
  - { offset: 0x188B02, size: 0x8, addend: 0x0, symName: __ZNSt3__111basic_regexIcNS_12regex_traitsIcEEED1Ev, symObjAddr: 0x7AD8, symBinAddr: 0x2C2CC, symSize: 0x5C }
  - { offset: 0x188E48, size: 0x8, addend: 0x0, symName: __Z23llama_grammar_free_implP13llama_grammar, symObjAddr: 0x7C74, symBinAddr: 0x2C468, symSize: 0x1C }
  - { offset: 0x188E9D, size: 0x8, addend: 0x0, symName: __ZN13llama_grammarD2Ev, symObjAddr: 0xA6A4, symBinAddr: 0x2ED88, symSize: 0x188 }
  - { offset: 0x18A36C, size: 0x8, addend: 0x0, symName: __Z24llama_grammar_clone_implRK13llama_grammar, symObjAddr: 0x7C90, symBinAddr: 0x2C484, symSize: 0x4D8 }
  - { offset: 0x18B439, size: 0x8, addend: 0x0, symName: __ZNSt3__135__uninitialized_allocator_copy_implB8ne200100INS_9allocatorINS_6vectorI21llama_grammar_elementNS1_IS3_EEEEEEPS5_S7_S7_EET2_RT_T0_T1_S8_, symObjAddr: 0x167E4, symBinAddr: 0x3ABD4, symSize: 0xF8 }
  - { offset: 0x18B444, size: 0x8, addend: 0x0, symName: __ZNSt3__16vectorI29llama_grammar_trigger_patternNS_9allocatorIS1_EEE18__construct_at_endIPS1_S6_EEvT_T0_m, symObjAddr: 0x16B44, symBinAddr: 0x3AF34, symSize: 0x10C }
  - { offset: 0x18B818, size: 0x8, addend: 0x0, symName: __ZNSt3__16vectorINS_4pairIiNS1_ImmEEEENS_9allocatorIS3_EEE20__throw_length_errorB8ne200100Ev, symObjAddr: 0x16B30, symBinAddr: 0x3AF20, symSize: 0x14 }
  - { offset: 0x18B830, size: 0x8, addend: 0x0, symName: __ZNSt3__16vectorI29llama_grammar_trigger_patternNS_9allocatorIS1_EEE18__construct_at_endIPS1_S6_EEvT_T0_m, symObjAddr: 0x16B44, symBinAddr: 0x3AF34, symSize: 0x10C }
  - { offset: 0x18B83B, size: 0x8, addend: 0x0, symName: __ZNSt3__16vectorI29llama_grammar_trigger_patternNS_9allocatorIS1_EEE20__throw_length_errorB8ne200100Ev, symObjAddr: 0xEB0C, symBinAddr: 0x33008, symSize: 0x14 }
  - { offset: 0x18B853, size: 0x8, addend: 0x0, symName: __ZNSt3__134__uninitialized_allocator_relocateB8ne200100INS_9allocatorI29llama_grammar_trigger_patternEEPS2_EEvRT_T0_S7_S7_, symObjAddr: 0xEB20, symBinAddr: 0x3301C, symSize: 0xFC }
  - { offset: 0x18B85E, size: 0x8, addend: 0x0, symName: __ZNSt3__128__exception_guard_exceptionsINS_6vectorINS1_IPK21llama_grammar_elementNS_9allocatorIS4_EEEENS5_IS7_EEE16__destroy_vectorEED1B8ne200100Ev, symObjAddr: 0x16948, symBinAddr: 0x3AD38, symSize: 0x84 }
  - { offset: 0x18BAEB, size: 0x8, addend: 0x0, symName: __ZNSt3__128__exception_guard_exceptionsINS_6vectorI29llama_grammar_trigger_patternNS_9allocatorIS2_EEE16__destroy_vectorEED1B8ne200100Ev, symObjAddr: 0x16C50, symBinAddr: 0x3B040, symSize: 0xD0 }
  - { offset: 0x18BB18, size: 0x8, addend: 0x0, symName: __ZNSt3__128__exception_guard_exceptionsINS_6vectorI29llama_grammar_trigger_patternNS_9allocatorIS2_EEE16__destroy_vectorEED1B8ne200100Ev, symObjAddr: 0x16C50, symBinAddr: 0x3B040, symSize: 0xD0 }
  - { offset: 0x18C58B, size: 0x8, addend: 0x0, symName: __Z24llama_grammar_apply_implRK13llama_grammarP22llama_token_data_array, symObjAddr: 0x8168, symBinAddr: 0x2C95C, symSize: 0x58C }
  - { offset: 0x18DB74, size: 0x8, addend: 0x0, symName: __ZNSt3__16vectorINS_4pairINS0_IjNS_9allocatorIjEEEE18llama_partial_utf8EENS2_IS6_EEE20__throw_length_errorB8ne200100Ev, symObjAddr: 0x16D20, symBinAddr: 0x3B110, symSize: 0x14 }
  - { offset: 0x18DB8C, size: 0x8, addend: 0x0, symName: __ZNSt3__16vectorINS0_IPK21llama_grammar_elementNS_9allocatorIS3_EEEENS4_IS6_EEE24__emplace_back_slow_pathIJRS6_EEEPS6_DpOT_, symObjAddr: 0x16D34, symBinAddr: 0x3B124, symSize: 0x174 }
  - { offset: 0x18DB97, size: 0x8, addend: 0x0, symName: __ZNSt3__16vectorINS_4pairINS0_IjNS_9allocatorIjEEEE18llama_partial_utf8EENS2_IS6_EEED1B8ne200100Ev, symObjAddr: 0x8B8C, symBinAddr: 0x2D380, symSize: 0x74 }
  - { offset: 0x18E63C, size: 0x8, addend: 0x0, symName: __Z25llama_grammar_accept_implR13llama_grammari, symObjAddr: 0x8C00, symBinAddr: 0x2D3F4, symSize: 0x4F0 }
  - { offset: 0x18F860, size: 0x8, addend: 0x0, symName: __Z26llama_grammar_accept_tokenR13llama_grammariRKNSt3__112basic_stringIcNS1_11char_traitsIcEENS1_9allocatorIcEEEE, symObjAddr: 0x90F0, symBinAddr: 0x2D8E4, symSize: 0x878 }
  - { offset: 0x192729, size: 0x8, addend: 0x0, symName: __ZNSt3__16vectorINS_4pairIiNS1_ImmEEEENS_9allocatorIS3_EEE9push_backB8ne200100EOS3_, symObjAddr: 0x9968, symBinAddr: 0x2E15C, symSize: 0x134 }
  - { offset: 0x192B0B, size: 0x8, addend: 0x0, symName: __Z24llama_grammar_accept_strR13llama_grammarRKNSt3__112basic_stringIcNS1_11char_traitsIcEENS1_9allocatorIcEEEE, symObjAddr: 0x9A9C, symBinAddr: 0x2E290, symSize: 0x148 }
  - { offset: 0x192B20, size: 0x8, addend: 0x0, symName: __ZNSt3__14pairINS_12basic_stringIcNS_11char_traitsIcEENS_9allocatorIcEEEES6_ED1Ev, symObjAddr: 0x12C30, symBinAddr: 0x370A8, symSize: 0x58 }
  - { offset: 0x192DD7, size: 0x8, addend: 0x0, symName: __ZNSt3__16vectorINS0_IPK21llama_grammar_elementNS_9allocatorIS3_EEEENS4_IS6_EEE24__emplace_back_slow_pathIJRS6_EEEPS6_DpOT_, symObjAddr: 0x16D34, symBinAddr: 0x3B124, symSize: 0x174 }
  - { offset: 0x1935A5, size: 0x8, addend: 0x0, symName: __ZNSt3__128__exception_guard_exceptionsINS_29_AllocatorDestroyRangeReverseINS_9allocatorINS_6vectorIPK21llama_grammar_elementNS2_IS6_EEEEEEPS8_EEED1B8ne200100Ev, symObjAddr: 0x16AC4, symBinAddr: 0x3AEB4, symSize: 0x6C }
  - { offset: 0x193A47, size: 0x8, addend: 0x0, symName: __Z24llama_grammar_accept_strR13llama_grammarRKNSt3__112basic_stringIcNS1_11char_traitsIcEENS1_9allocatorIcEEEE, symObjAddr: 0x9A9C, symBinAddr: 0x2E290, symSize: 0x148 }
  - { offset: 0x1942FB, size: 0x8, addend: 0x0, symName: __ZNSt3__114__split_bufferINS_6vectorIPK21llama_grammar_elementNS_9allocatorIS4_EEEERNS5_IS7_EEED1Ev, symObjAddr: 0xA568, symBinAddr: 0x2EC4C, symSize: 0x6C }
  - { offset: 0x19458A, size: 0x8, addend: 0x0, symName: __ZNSt3__110shared_ptrINS_13__empty_stateIcEEED1B8ne200100Ev, symObjAddr: 0xA5E8, symBinAddr: 0x2ECCC, symSize: 0x5C }
  - { offset: 0x19490A, size: 0x8, addend: 0x0, symName: __ZNSt3__16vectorINS_9sub_matchIPKcEENS_9allocatorIS4_EEE6assignEmRKS4_, symObjAddr: 0xACC4, symBinAddr: 0x2F380, symSize: 0x1E0 }
  - { offset: 0x194E69, size: 0x8, addend: 0x0, symName: __ZNKSt3__111basic_regexIcNS_12regex_traitsIcEEE21__match_at_start_ecmaINS_9allocatorINS_9sub_matchIPKcEEEEEEbS8_S8_RNS_13match_resultsIS8_T_EENS_15regex_constants15match_flag_typeEb, symObjAddr: 0xAEA4, symBinAddr: 0x2F560, symSize: 0x484 }
  - { offset: 0x194E74, size: 0x8, addend: 0x0, symName: __ZNKSt3__111basic_regexIcNS_12regex_traitsIcEEE27__match_at_start_posix_subsINS_9allocatorINS_9sub_matchIPKcEEEEEEbS8_S8_RNS_13match_resultsIS8_T_EENS_15regex_constants15match_flag_typeEb, symObjAddr: 0xBBD8, symBinAddr: 0x30294, symSize: 0x5AC }
  - { offset: 0x196B4E, size: 0x8, addend: 0x0, symName: __ZNKSt3__111basic_regexIcNS_12regex_traitsIcEEE21__match_at_start_ecmaINS_9allocatorINS_9sub_matchIPKcEEEEEEbS8_S8_RNS_13match_resultsIS8_T_EENS_15regex_constants15match_flag_typeEb, symObjAddr: 0xAEA4, symBinAddr: 0x2F560, symSize: 0x484 }
  - { offset: 0x197D01, size: 0x8, addend: 0x0, symName: __ZNKSt3__111basic_regexIcNS_12regex_traitsIcEEE29__match_at_start_posix_nosubsINS_9allocatorINS_9sub_matchIPKcEEEEEEbS8_S8_RNS_13match_resultsIS8_T_EENS_15regex_constants15match_flag_typeEb, symObjAddr: 0xB328, symBinAddr: 0x2F9E4, symSize: 0x8B0 }
  - { offset: 0x199AE0, size: 0x8, addend: 0x0, symName: __ZNSt3__16vectorINS_9sub_matchINS_11__wrap_iterIPKcEEEENS_9allocatorIS6_EEE8__appendEm, symObjAddr: 0xDDE8, symBinAddr: 0x324A4, symSize: 0x1A0 }
  - { offset: 0x19A01F, size: 0x8, addend: 0x0, symName: __ZNSt3__16vectorINS_9sub_matchINS_11__wrap_iterIPKcEEEENS_9allocatorIS6_EEE20__throw_length_errorB8ne200100Ev, symObjAddr: 0xDF88, symBinAddr: 0x32644, symSize: 0x14 }
  - { offset: 0x19A27E, size: 0x8, addend: 0x0, symName: __ZNSt3__16vectorINS_9sub_matchIPKcEENS_9allocatorIS4_EEE20__throw_length_errorB8ne200100Ev, symObjAddr: 0xC7B4, symBinAddr: 0x30E70, symSize: 0x14 }
  - { offset: 0x19A296, size: 0x8, addend: 0x0, symName: __ZNSt3__16vectorINS_4pairImPKcEENS_9allocatorIS4_EEE8__appendEm, symObjAddr: 0xC7C8, symBinAddr: 0x30E84, symSize: 0x120 }
  - { offset: 0x19A9AD, size: 0x8, addend: 0x0, symName: __ZNSt3__16vectorINS_7__stateIcEENS_9allocatorIS2_EEE24__emplace_back_slow_pathIJS2_EEEPS2_DpOT_, symObjAddr: 0xC2DC, symBinAddr: 0x30998, symSize: 0x17C }
  - { offset: 0x19B039, size: 0x8, addend: 0x0, symName: __ZNSt3__16vectorINS_9sub_matchIPKcEENS_9allocatorIS4_EEE8__appendEmRKS4_, symObjAddr: 0xC604, symBinAddr: 0x30CC0, symSize: 0x1B0 }
  - { offset: 0x19B540, size: 0x8, addend: 0x0, symName: __ZNSt3__16vectorINS_9sub_matchIPKcEENS_9allocatorIS4_EEE20__throw_length_errorB8ne200100Ev, symObjAddr: 0xC7B4, symBinAddr: 0x30E70, symSize: 0x14 }
  - { offset: 0x19B54B, size: 0x8, addend: 0x0, symName: __ZNSt3__16vectorINS_4pairImPKcEENS_9allocatorIS4_EEE8__appendEm, symObjAddr: 0xC7C8, symBinAddr: 0x30E84, symSize: 0x120 }
  - { offset: 0x19B97F, size: 0x8, addend: 0x0, symName: __ZNSt3__16vectorINS_4pairImPKcEENS_9allocatorIS4_EEE20__throw_length_errorB8ne200100Ev, symObjAddr: 0xC8E8, symBinAddr: 0x30FA4, symSize: 0x14 }
  - { offset: 0x19B98A, size: 0x8, addend: 0x0, symName: __ZNSt3__17__stateIcEC2ERKS1_, symObjAddr: 0xC8FC, symBinAddr: 0x30FB8, symSize: 0x16C }
  - { offset: 0x19BFCC, size: 0x8, addend: 0x0, symName: __ZNSt3__16vectorINS_7__stateIcEENS_9allocatorIS2_EEED1B8ne200100Ev, symObjAddr: 0xC25C, symBinAddr: 0x30918, symSize: 0x80 }
  - { offset: 0x19C3BB, size: 0x8, addend: 0x0, symName: __ZNSt3__17__stateIcED1Ev, symObjAddr: 0xC184, symBinAddr: 0x30840, symSize: 0x40 }
  - { offset: 0x19CAA0, size: 0x8, addend: 0x0, symName: __ZNSt3__15dequeINS_7__stateIcEENS_9allocatorIS2_EEE19__add_back_capacityEv, symObjAddr: 0xCC38, symBinAddr: 0x312F4, symSize: 0x338 }
  - { offset: 0x19D703, size: 0x8, addend: 0x0, symName: __ZNSt3__15dequeINS_7__stateIcEENS_9allocatorIS2_EEE20__add_front_capacityEv, symObjAddr: 0xD3F0, symBinAddr: 0x31AAC, symSize: 0x374 }
  - { offset: 0x19E469, size: 0x8, addend: 0x0, symName: __ZNSt3__15dequeINS_7__stateIcEENS_9allocatorIS2_EEED1B8ne200100Ev, symObjAddr: 0xCBC4, symBinAddr: 0x31280, symSize: 0x74 }
  - { offset: 0x19E7B5, size: 0x8, addend: 0x0, symName: __ZNSt3__16vectorINS_9sub_matchIPKcEENS_9allocatorIS4_EEE18__assign_with_sizeB8ne200100IPS4_S9_EEvT_T0_l, symObjAddr: 0xD8EC, symBinAddr: 0x31FA8, symSize: 0x200 }
  - { offset: 0x19EF4A, size: 0x8, addend: 0x0, symName: __ZNSt3__16vectorINS_4pairImPKcEENS_9allocatorIS4_EEE18__assign_with_sizeB8ne200100IPS4_S9_EEvT_T0_l, symObjAddr: 0xDAEC, symBinAddr: 0x321A8, symSize: 0x2FC }
  - { offset: 0x19EF67, size: 0x8, addend: 0x0, symName: __ZNSt3__16vectorINS_4pairImPKcEENS_9allocatorIS4_EEE18__assign_with_sizeB8ne200100IPS4_S9_EEvT_T0_l, symObjAddr: 0xDAEC, symBinAddr: 0x321A8, symSize: 0x2FC }
  - { offset: 0x19F6C2, size: 0x8, addend: 0x0, symName: __ZNSt3__16vectorINS_9sub_matchINS_11__wrap_iterIPKcEEEENS_9allocatorIS6_EEE8__appendEm, symObjAddr: 0xDDE8, symBinAddr: 0x324A4, symSize: 0x1A0 }
  - { offset: 0x19F872, size: 0x8, addend: 0x0, symName: __ZNSt3__16vectorINS_7__stateIcEENS_9allocatorIS2_EEE26__swap_out_circular_bufferERNS_14__split_bufferIS2_RS4_EE, symObjAddr: 0xC458, symBinAddr: 0x30B14, symSize: 0x124 }
  - { offset: 0x19FDDF, size: 0x8, addend: 0x0, symName: __ZNSt3__16vectorINS_7__stateIcEENS_9allocatorIS2_EEE20__throw_length_errorB8ne200100Ev, symObjAddr: 0xC5F0, symBinAddr: 0x30CAC, symSize: 0x14 }
  - { offset: 0x19FDF7, size: 0x8, addend: 0x0, symName: __ZNSt3__16vectorINS_9sub_matchIPKcEENS_9allocatorIS4_EEE8__appendEmRKS4_, symObjAddr: 0xC604, symBinAddr: 0x30CC0, symSize: 0x1B0 }
  - { offset: 0x19FE02, size: 0x8, addend: 0x0, symName: __ZNSt3__114__split_bufferINS_7__stateIcEERNS_9allocatorIS2_EEED1Ev, symObjAddr: 0xC57C, symBinAddr: 0x30C38, symSize: 0x74 }
  - { offset: 0x1A06E6, size: 0x8, addend: 0x0, symName: __ZNSt3__16vectorINS_4pairImPKcEENS_9allocatorIS4_EEE20__throw_length_errorB8ne200100Ev, symObjAddr: 0xC8E8, symBinAddr: 0x30FA4, symSize: 0x14 }
  - { offset: 0x1A06FE, size: 0x8, addend: 0x0, symName: __ZNSt3__17__stateIcEC2ERKS1_, symObjAddr: 0xC8FC, symBinAddr: 0x30FB8, symSize: 0x16C }
  - { offset: 0x1A0B01, size: 0x8, addend: 0x0, symName: __ZNSt3__15dequeINS_7__stateIcEENS_9allocatorIS2_EEE5clearEv, symObjAddr: 0xCA68, symBinAddr: 0x31124, symSize: 0x15C }
  - { offset: 0x1A149C, size: 0x8, addend: 0x0, symName: __ZNSt3__114__split_bufferIPNS_7__stateIcEENS_9allocatorIS3_EEE12emplace_backIJRS3_EEEvDpOT_, symObjAddr: 0xCF70, symBinAddr: 0x3162C, symSize: 0x17C }
  - { offset: 0x1A190F, size: 0x8, addend: 0x0, symName: __ZNSt3__114__split_bufferIPNS_7__stateIcEENS_9allocatorIS3_EEE12emplace_backIJS3_EEEvDpOT_, symObjAddr: 0xD0EC, symBinAddr: 0x317A8, symSize: 0x17C }
  - { offset: 0x1A1925, size: 0x8, addend: 0x0, symName: __ZNSt3__114__split_bufferIPNS_7__stateIcEENS_9allocatorIS3_EEE12emplace_backIJS3_EEEvDpOT_, symObjAddr: 0xD0EC, symBinAddr: 0x317A8, symSize: 0x17C }
  - { offset: 0x1A1D98, size: 0x8, addend: 0x0, symName: __ZNSt3__114__split_bufferIPNS_7__stateIcEENS_9allocatorIS3_EEE13emplace_frontIJS3_EEEvDpOT_, symObjAddr: 0xD268, symBinAddr: 0x31924, symSize: 0x188 }
  - { offset: 0x1A1DAE, size: 0x8, addend: 0x0, symName: __ZNSt3__114__split_bufferIPNS_7__stateIcEENS_9allocatorIS3_EEE13emplace_frontIJS3_EEEvDpOT_, symObjAddr: 0xD268, symBinAddr: 0x31924, symSize: 0x188 }
  - { offset: 0x1A2243, size: 0x8, addend: 0x0, symName: __ZNSt3__15dequeINS_7__stateIcEENS_9allocatorIS2_EEE20__add_front_capacityEv, symObjAddr: 0xD3F0, symBinAddr: 0x31AAC, symSize: 0x374 }
  - { offset: 0x1A2323, size: 0x8, addend: 0x0, symName: __ZNSt3__114__split_bufferIPNS_7__stateIcEENS_9allocatorIS3_EEE13emplace_frontIJRS3_EEEvDpOT_, symObjAddr: 0xD764, symBinAddr: 0x31E20, symSize: 0x188 }
  - { offset: 0x1A27B8, size: 0x8, addend: 0x0, symName: __ZNSt3__16vectorINS_9sub_matchIPKcEENS_9allocatorIS4_EEE18__assign_with_sizeB8ne200100IPS4_S9_EEvT_T0_l, symObjAddr: 0xD8EC, symBinAddr: 0x31FA8, symSize: 0x200 }
  - { offset: 0x1A2C4C, size: 0x8, addend: 0x0, symName: __ZNSt3__16vectorINS_9sub_matchINS_11__wrap_iterIPKcEEEENS_9allocatorIS6_EEE20__throw_length_errorB8ne200100Ev, symObjAddr: 0xDF88, symBinAddr: 0x32644, symSize: 0x14 }
  - { offset: 0x1A2C64, size: 0x8, addend: 0x0, symName: __ZNSt3__16__treeINS_12__value_typeINS_12basic_stringIcNS_11char_traitsIcEENS_9allocatorIcEEEEjEENS_19__map_value_compareIS7_S8_NS_4lessIS7_EELb1EEENS5_IS8_EEE25__emplace_unique_key_argsIS7_JS7_RjEEENS_4pairINS_15__tree_iteratorIS8_PNS_11__tree_nodeIS8_PvEElEEbEERKT_DpOT0_, symObjAddr: 0xDF9C, symBinAddr: 0x32658, symSize: 0x180 }
  - { offset: 0x1A34DA, size: 0x8, addend: 0x0, symName: __ZNSt3__114__split_bufferI29llama_grammar_trigger_patternRNS_9allocatorIS1_EEED1Ev, symObjAddr: 0xEA54, symBinAddr: 0x32F50, symSize: 0xB8 }
  - { offset: 0x1A382A, size: 0x8, addend: 0x0, symName: __ZNSt3__111basic_regexIcNS_12regex_traitsIcEEEC1B8ne200100Ev, symObjAddr: 0xE9E8, symBinAddr: 0x32EE4, symSize: 0x6C }
  - { offset: 0x1A3ADB, size: 0x8, addend: 0x0, symName: __ZNSt3__128__exception_guard_exceptionsINS_29_AllocatorDestroyRangeReverseINS_9allocatorI29llama_grammar_trigger_patternEEPS3_EEED1B8ne200100Ev, symObjAddr: 0xEC1C, symBinAddr: 0x33118, symSize: 0xB8 }
  - { offset: 0x1A3DF4, size: 0x8, addend: 0x0, symName: __ZNSt3__111basic_regexIcNS_12regex_traitsIcEEE7__parseINS_11__wrap_iterIPKcEEEET_S9_S9_, symObjAddr: 0xEDA8, symBinAddr: 0x332A4, symSize: 0x200 }
  - { offset: 0x1A4777, size: 0x8, addend: 0x0, symName: __ZNSt3__111basic_regexIcNS_12regex_traitsIcEEE13__parse_egrepINS_11__wrap_iterIPKcEEEET_S9_S9_, symObjAddr: 0xF6C0, symBinAddr: 0x33BBC, symSize: 0x1A0 }
  - { offset: 0x1A4D0A, size: 0x8, addend: 0x0, symName: __ZNSt3__111basic_regexIcNS_12regex_traitsIcEEE24__parse_extended_reg_expINS_11__wrap_iterIPKcEEEET_S9_S9_, symObjAddr: 0xF3BC, symBinAddr: 0x338B8, symSize: 0x164 }
  - { offset: 0x1A503F, size: 0x8, addend: 0x0, symName: __ZNSt3__111basic_regexIcNS_12regex_traitsIcEEE12__parse_grepINS_11__wrap_iterIPKcEEEET_S9_S9_, symObjAddr: 0xF520, symBinAddr: 0x33A1C, symSize: 0x1A0 }
  - { offset: 0x1A5053, size: 0x8, addend: 0x0, symName: __ZNSt3__111basic_regexIcNS_12regex_traitsIcEEE21__parse_basic_reg_expINS_11__wrap_iterIPKcEEEET_S9_S9_, symObjAddr: 0xF23C, symBinAddr: 0x33738, symSize: 0x180 }
  - { offset: 0x1A5374, size: 0x8, addend: 0x0, symName: __ZNSt3__111basic_regexIcNS_12regex_traitsIcEEE24__parse_extended_reg_expINS_11__wrap_iterIPKcEEEET_S9_S9_, symObjAddr: 0xF3BC, symBinAddr: 0x338B8, symSize: 0x164 }
  - { offset: 0x1A5388, size: 0x8, addend: 0x0, symName: __ZNSt3__111basic_regexIcNS_12regex_traitsIcEEE12__parse_grepINS_11__wrap_iterIPKcEEEET_S9_S9_, symObjAddr: 0xF520, symBinAddr: 0x33A1C, symSize: 0x1A0 }
  - { offset: 0x1A591B, size: 0x8, addend: 0x0, symName: __ZNSt3__111basic_regexIcNS_12regex_traitsIcEEE16__parse_ecma_expINS_11__wrap_iterIPKcEEEET_S9_S9_, symObjAddr: 0xEFF4, symBinAddr: 0x334F0, symSize: 0x248 }
  - { offset: 0x1A60DA, size: 0x8, addend: 0x0, symName: __ZNSt3__111basic_regexIcNS_12regex_traitsIcEEE17__parse_assertionINS_11__wrap_iterIPKcEEEET_S9_S9_, symObjAddr: 0xFAA4, symBinAddr: 0x33FA0, symSize: 0x324 }
  - { offset: 0x1A65F2, size: 0x8, addend: 0x0, symName: __ZNSt3__111basic_regexIcNS_12regex_traitsIcEEE12__parse_atomINS_11__wrap_iterIPKcEEEET_S9_S9_, symObjAddr: 0xFDC8, symBinAddr: 0x342C4, symSize: 0x268 }
  - { offset: 0x1A695F, size: 0x8, addend: 0x0, symName: __ZNSt3__111basic_regexIcNS_12regex_traitsIcEEE23__parse_ERE_dupl_symbolINS_11__wrap_iterIPKcEEEET_S9_S9_PNS_16__owns_one_stateIcEEjj, symObjAddr: 0x10030, symBinAddr: 0x3452C, symSize: 0x378 }
  - { offset: 0x1A6973, size: 0x8, addend: 0x0, symName: __ZNSt3__111basic_regexIcNS_12regex_traitsIcEEE23__parse_ERE_dupl_symbolINS_11__wrap_iterIPKcEEEET_S9_S9_PNS_16__owns_one_stateIcEEjj, symObjAddr: 0x10030, symBinAddr: 0x3452C, symSize: 0x378 }
  - { offset: 0x1A6F8F, size: 0x8, addend: 0x0, symName: __ZNSt3__111basic_regexIcNS_12regex_traitsIcEEE20__push_word_boundaryEb, symObjAddr: 0x103A8, symBinAddr: 0x348A4, symSize: 0x6C }
  - { offset: 0x1A718D, size: 0x8, addend: 0x0, symName: __ZNSt3__111basic_regexIcNS_12regex_traitsIcEEE18__parse_nondupl_REINS_11__wrap_iterIPKcEEEET_S9_S9_, symObjAddr: 0x15C10, symBinAddr: 0x3A088, symSize: 0x20C }
  - { offset: 0x1A7649, size: 0x8, addend: 0x0, symName: __ZNSt3__111basic_regexIcNS_12regex_traitsIcEEE22__parse_RE_dupl_symbolINS_11__wrap_iterIPKcEEEET_S9_S9_PNS_16__owns_one_stateIcEEjj, symObjAddr: 0x15E1C, symBinAddr: 0x3A294, symSize: 0x274 }
  - { offset: 0x1A765D, size: 0x8, addend: 0x0, symName: __ZNSt3__111basic_regexIcNS_12regex_traitsIcEEE22__parse_RE_dupl_symbolINS_11__wrap_iterIPKcEEEET_S9_S9_PNS_16__owns_one_stateIcEEjj, symObjAddr: 0x15E1C, symBinAddr: 0x3A294, symSize: 0x274 }
  - { offset: 0x1A7B51, size: 0x8, addend: 0x0, symName: __ZNSt3__111basic_regexIcNS_12regex_traitsIcEEE32__parse_one_char_or_coll_elem_REINS_11__wrap_iterIPKcEEEET_S9_S9_, symObjAddr: 0x16090, symBinAddr: 0x3A508, symSize: 0x18C }
  - { offset: 0x1A7BA8, size: 0x8, addend: 0x0, symName: __ZNSt3__111basic_regexIcNS_12regex_traitsIcEEE22__parse_ERE_expressionINS_11__wrap_iterIPKcEEEET_S9_S9_, symObjAddr: 0x1634C, symBinAddr: 0x3A7C4, symSize: 0x1F0 }
  - { offset: 0x1A7F51, size: 0x8, addend: 0x0, symName: __ZNSt3__111basic_regexIcNS_12regex_traitsIcEEE33__parse_one_char_or_coll_elem_EREINS_11__wrap_iterIPKcEEEET_S9_S9_, symObjAddr: 0x1653C, symBinAddr: 0x3A9B4, symSize: 0x158 }
  - { offset: 0x1A7F81, size: 0x8, addend: 0x0, symName: __ZNSt3__111__end_stateIcED1Ev, symObjAddr: 0xF8AC, symBinAddr: 0x33DA8, symSize: 0x4 }
  - { offset: 0x1A7FAD, size: 0x8, addend: 0x0, symName: __ZNSt3__111__end_stateIcED0Ev, symObjAddr: 0xF8B0, symBinAddr: 0x33DAC, symSize: 0x4 }
  - { offset: 0x1A7FCD, size: 0x8, addend: 0x0, symName: __ZNKSt3__111__end_stateIcE6__execERNS_7__stateIcEE, symObjAddr: 0xF8B4, symBinAddr: 0x33DB0, symSize: 0xC }
  - { offset: 0x1A8000, size: 0x8, addend: 0x0, symName: __ZNKSt3__16__nodeIcE12__exec_splitEbRNS_7__stateIcEE, symObjAddr: 0xF8C0, symBinAddr: 0x33DBC, symSize: 0x4 }
  - { offset: 0x1A8040, size: 0x8, addend: 0x0, symName: __ZNKSt3__16__nodeIcE6__execERNS_7__stateIcEE, symObjAddr: 0xF8C4, symBinAddr: 0x33DC0, symSize: 0x4 }
  - { offset: 0x1A808C, size: 0x8, addend: 0x0, symName: __ZNSt3__120__shared_ptr_pointerIPNS_13__empty_stateIcEENS_10shared_ptrIS2_E27__shared_ptr_default_deleteIS2_S2_EENS_9allocatorIS2_EEED1Ev, symObjAddr: 0xF8C8, symBinAddr: 0x33DC4, symSize: 0x4 }
  - { offset: 0x1A80AE, size: 0x8, addend: 0x0, symName: __ZNSt3__120__shared_ptr_pointerIPNS_13__empty_stateIcEENS_10shared_ptrIS2_E27__shared_ptr_default_deleteIS2_S2_EENS_9allocatorIS2_EEED1Ev, symObjAddr: 0xF8C8, symBinAddr: 0x33DC4, symSize: 0x4 }
  - { offset: 0x1A80E4, size: 0x8, addend: 0x0, symName: __ZNSt3__120__shared_ptr_pointerIPNS_13__empty_stateIcEENS_10shared_ptrIS2_E27__shared_ptr_default_deleteIS2_S2_EENS_9allocatorIS2_EEED0Ev, symObjAddr: 0xF8CC, symBinAddr: 0x33DC8, symSize: 0x14 }
  - { offset: 0x1A8147, size: 0x8, addend: 0x0, symName: __ZNSt3__120__shared_ptr_pointerIPNS_13__empty_stateIcEENS_10shared_ptrIS2_E27__shared_ptr_default_deleteIS2_S2_EENS_9allocatorIS2_EEE16__on_zero_sharedEv, symObjAddr: 0xF8E0, symBinAddr: 0x33DDC, symSize: 0x18 }
  - { offset: 0x1A81EF, size: 0x8, addend: 0x0, symName: __ZNKSt3__120__shared_ptr_pointerIPNS_13__empty_stateIcEENS_10shared_ptrIS2_E27__shared_ptr_default_deleteIS2_S2_EENS_9allocatorIS2_EEE13__get_deleterERKSt9type_info, symObjAddr: 0xF8F8, symBinAddr: 0x33DF4, symSize: 0x74 }
  - { offset: 0x1A8313, size: 0x8, addend: 0x0, symName: __ZNSt3__120__shared_ptr_pointerIPNS_13__empty_stateIcEENS_10shared_ptrIS2_E27__shared_ptr_default_deleteIS2_S2_EENS_9allocatorIS2_EEE21__on_zero_shared_weakEv, symObjAddr: 0xF96C, symBinAddr: 0x33E68, symSize: 0x4 }
  - { offset: 0x1A8347, size: 0x8, addend: 0x0, symName: __ZNSt3__120__shared_ptr_pointerIPNS_13__empty_stateIcEENS_10shared_ptrIS2_E27__shared_ptr_default_deleteIS2_S2_EENS_9allocatorIS2_EEE21__on_zero_shared_weakEv, symObjAddr: 0xF96C, symBinAddr: 0x33E68, symSize: 0x4 }
  - { offset: 0x1A8369, size: 0x8, addend: 0x0, symName: __ZNSt3__120__shared_ptr_pointerIPNS_13__empty_stateIcEENS_10shared_ptrIS2_E27__shared_ptr_default_deleteIS2_S2_EENS_9allocatorIS2_EEE21__on_zero_shared_weakEv, symObjAddr: 0xF96C, symBinAddr: 0x33E68, symSize: 0x4 }
  - { offset: 0x1A839D, size: 0x8, addend: 0x0, symName: __ZNSt3__120__shared_ptr_pointerIPNS_13__empty_stateIcEENS_10shared_ptrIS2_E27__shared_ptr_default_deleteIS2_S2_EENS_9allocatorIS2_EEE21__on_zero_shared_weakEv, symObjAddr: 0xF96C, symBinAddr: 0x33E68, symSize: 0x4 }
  - { offset: 0x1A83C4, size: 0x8, addend: 0x0, symName: __ZNSt3__113__empty_stateIcED1Ev, symObjAddr: 0xF970, symBinAddr: 0x33E6C, symSize: 0x48 }
  - { offset: 0x1A83E8, size: 0x8, addend: 0x0, symName: __ZNSt3__113__empty_stateIcED1Ev, symObjAddr: 0xF970, symBinAddr: 0x33E6C, symSize: 0x48 }
  - { offset: 0x1A8406, size: 0x8, addend: 0x0, symName: __ZNSt3__113__empty_stateIcED1Ev, symObjAddr: 0xF970, symBinAddr: 0x33E6C, symSize: 0x48 }
  - { offset: 0x1A8430, size: 0x8, addend: 0x0, symName: __ZNSt3__113__empty_stateIcED0Ev, symObjAddr: 0xF9B8, symBinAddr: 0x33EB4, symSize: 0x48 }
  - { offset: 0x1A8454, size: 0x8, addend: 0x0, symName: __ZNSt3__113__empty_stateIcED0Ev, symObjAddr: 0xF9B8, symBinAddr: 0x33EB4, symSize: 0x48 }
  - { offset: 0x1A8472, size: 0x8, addend: 0x0, symName: __ZNSt3__113__empty_stateIcED0Ev, symObjAddr: 0xF9B8, symBinAddr: 0x33EB4, symSize: 0x48 }
  - { offset: 0x1A8490, size: 0x8, addend: 0x0, symName: __ZNSt3__113__empty_stateIcED0Ev, symObjAddr: 0xF9B8, symBinAddr: 0x33EB4, symSize: 0x48 }
  - { offset: 0x1A84D7, size: 0x8, addend: 0x0, symName: __ZNKSt3__113__empty_stateIcE6__execERNS_7__stateIcEE, symObjAddr: 0xFA00, symBinAddr: 0x33EFC, symSize: 0x14 }
  - { offset: 0x1A8529, size: 0x8, addend: 0x0, symName: __ZNSt3__116__owns_one_stateIcED1Ev, symObjAddr: 0xFA14, symBinAddr: 0x33F10, symSize: 0x48 }
  - { offset: 0x1A854D, size: 0x8, addend: 0x0, symName: __ZNSt3__116__owns_one_stateIcED1Ev, symObjAddr: 0xFA14, symBinAddr: 0x33F10, symSize: 0x48 }
  - { offset: 0x1A8592, size: 0x8, addend: 0x0, symName: __ZNSt3__116__owns_one_stateIcED0Ev, symObjAddr: 0xFA5C, symBinAddr: 0x33F58, symSize: 0x48 }
  - { offset: 0x1A85C1, size: 0x8, addend: 0x0, symName: __ZNSt3__116__owns_one_stateIcED0Ev, symObjAddr: 0xFA5C, symBinAddr: 0x33F58, symSize: 0x48 }
  - { offset: 0x1A85DF, size: 0x8, addend: 0x0, symName: __ZNSt3__116__owns_one_stateIcED0Ev, symObjAddr: 0xFA5C, symBinAddr: 0x33F58, symSize: 0x48 }
  - { offset: 0x1A870A, size: 0x8, addend: 0x0, symName: __ZNSt3__111basic_regexIcNS_12regex_traitsIcEEE16__push_lookaheadERKS3_bj, symObjAddr: 0x10414, symBinAddr: 0x34910, symSize: 0xA8 }
  - { offset: 0x1A8922, size: 0x8, addend: 0x0, symName: __ZNSt3__111basic_regexIcNS_12regex_traitsIcEEE20__push_word_boundaryEb, symObjAddr: 0x103A8, symBinAddr: 0x348A4, symSize: 0x6C }
  - { offset: 0x1A8BF4, size: 0x8, addend: 0x0, symName: __ZNSt3__111basic_regexIcNS_12regex_traitsIcEEE26__parse_bracket_expressionINS_11__wrap_iterIPKcEEEET_S9_S9_, symObjAddr: 0x10CC0, symBinAddr: 0x351BC, symSize: 0x158 }
  - { offset: 0x1A8E1C, size: 0x8, addend: 0x0, symName: __ZNSt3__111basic_regexIcNS_12regex_traitsIcEEE19__parse_atom_escapeINS_11__wrap_iterIPKcEEEET_S9_S9_, symObjAddr: 0x10B74, symBinAddr: 0x35070, symSize: 0x14C }
  - { offset: 0x1A8F88, size: 0x8, addend: 0x0, symName: __ZNSt3__111basic_regexIcNS_12regex_traitsIcEEE26__parse_bracket_expressionINS_11__wrap_iterIPKcEEEET_S9_S9_, symObjAddr: 0x10CC0, symBinAddr: 0x351BC, symSize: 0x158 }
  - { offset: 0x1A8F9C, size: 0x8, addend: 0x0, symName: __ZNSt3__111basic_regexIcNS_12regex_traitsIcEEE25__parse_pattern_characterINS_11__wrap_iterIPKcEEEET_S9_S9_, symObjAddr: 0x10E64, symBinAddr: 0x35360, symSize: 0x7C }
  - { offset: 0x1A9170, size: 0x8, addend: 0x0, symName: __ZNSt3__111basic_regexIcNS_12regex_traitsIcEEE11__push_loopEmmPNS_16__owns_one_stateIcEEmmb, symObjAddr: 0x15448, symBinAddr: 0x398C0, symSize: 0x13C }
  - { offset: 0x1A9723, size: 0x8, addend: 0x0, symName: __ZNSt3__120__l_anchor_multilineIcED1Ev, symObjAddr: 0x10508, symBinAddr: 0x34A04, symSize: 0x48 }
  - { offset: 0x1A9747, size: 0x8, addend: 0x0, symName: __ZNSt3__120__l_anchor_multilineIcED1Ev, symObjAddr: 0x10508, symBinAddr: 0x34A04, symSize: 0x48 }
  - { offset: 0x1A9765, size: 0x8, addend: 0x0, symName: __ZNSt3__120__l_anchor_multilineIcED1Ev, symObjAddr: 0x10508, symBinAddr: 0x34A04, symSize: 0x48 }
  - { offset: 0x1A97AC, size: 0x8, addend: 0x0, symName: __ZNSt3__120__l_anchor_multilineIcED0Ev, symObjAddr: 0x10550, symBinAddr: 0x34A4C, symSize: 0x48 }
  - { offset: 0x1A97DC, size: 0x8, addend: 0x0, symName: __ZNSt3__120__l_anchor_multilineIcED0Ev, symObjAddr: 0x10550, symBinAddr: 0x34A4C, symSize: 0x48 }
  - { offset: 0x1A97FA, size: 0x8, addend: 0x0, symName: __ZNSt3__120__l_anchor_multilineIcED0Ev, symObjAddr: 0x10550, symBinAddr: 0x34A4C, symSize: 0x48 }
  - { offset: 0x1A9818, size: 0x8, addend: 0x0, symName: __ZNSt3__120__l_anchor_multilineIcED0Ev, symObjAddr: 0x10550, symBinAddr: 0x34A4C, symSize: 0x48 }
  - { offset: 0x1A9843, size: 0x8, addend: 0x0, symName: __ZNKSt3__120__l_anchor_multilineIcE6__execERNS_7__stateIcEE, symObjAddr: 0x10598, symBinAddr: 0x34A94, symSize: 0x68 }
  - { offset: 0x1A98A7, size: 0x8, addend: 0x0, symName: __ZNSt3__120__r_anchor_multilineIcED1Ev, symObjAddr: 0x10600, symBinAddr: 0x34AFC, symSize: 0x48 }
  - { offset: 0x1A98CB, size: 0x8, addend: 0x0, symName: __ZNSt3__120__r_anchor_multilineIcED1Ev, symObjAddr: 0x10600, symBinAddr: 0x34AFC, symSize: 0x48 }
  - { offset: 0x1A98E9, size: 0x8, addend: 0x0, symName: __ZNSt3__120__r_anchor_multilineIcED1Ev, symObjAddr: 0x10600, symBinAddr: 0x34AFC, symSize: 0x48 }
  - { offset: 0x1A9930, size: 0x8, addend: 0x0, symName: __ZNSt3__120__r_anchor_multilineIcED0Ev, symObjAddr: 0x10648, symBinAddr: 0x34B44, symSize: 0x48 }
  - { offset: 0x1A9960, size: 0x8, addend: 0x0, symName: __ZNSt3__120__r_anchor_multilineIcED0Ev, symObjAddr: 0x10648, symBinAddr: 0x34B44, symSize: 0x48 }
  - { offset: 0x1A997E, size: 0x8, addend: 0x0, symName: __ZNSt3__120__r_anchor_multilineIcED0Ev, symObjAddr: 0x10648, symBinAddr: 0x34B44, symSize: 0x48 }
  - { offset: 0x1A999C, size: 0x8, addend: 0x0, symName: __ZNSt3__120__r_anchor_multilineIcED0Ev, symObjAddr: 0x10648, symBinAddr: 0x34B44, symSize: 0x48 }
  - { offset: 0x1A99C7, size: 0x8, addend: 0x0, symName: __ZNKSt3__120__r_anchor_multilineIcE6__execERNS_7__stateIcEE, symObjAddr: 0x10690, symBinAddr: 0x34B8C, symSize: 0x54 }
  - { offset: 0x1A9A2B, size: 0x8, addend: 0x0, symName: __ZNSt3__115__word_boundaryIcNS_12regex_traitsIcEEED1Ev, symObjAddr: 0x106E4, symBinAddr: 0x34BE0, symSize: 0x58 }
  - { offset: 0x1A9ADB, size: 0x8, addend: 0x0, symName: __ZNSt3__115__word_boundaryIcNS_12regex_traitsIcEEED0Ev, symObjAddr: 0x1073C, symBinAddr: 0x34C38, symSize: 0x58 }
  - { offset: 0x1A9BF5, size: 0x8, addend: 0x0, symName: __ZNKSt3__115__word_boundaryIcNS_12regex_traitsIcEEE6__execERNS_7__stateIcEE, symObjAddr: 0x10794, symBinAddr: 0x34C90, symSize: 0x154 }
  - { offset: 0x1A9DB3, size: 0x8, addend: 0x0, symName: __ZNSt3__111__lookaheadIcNS_12regex_traitsIcEEED1Ev, symObjAddr: 0x108E8, symBinAddr: 0x34DE4, symSize: 0x8C }
  - { offset: 0x1A9F13, size: 0x8, addend: 0x0, symName: __ZNSt3__111__lookaheadIcNS_12regex_traitsIcEEED0Ev, symObjAddr: 0x10974, symBinAddr: 0x34E70, symSize: 0x8C }
  - { offset: 0x1AA07F, size: 0x8, addend: 0x0, symName: __ZNKSt3__111__lookaheadIcNS_12regex_traitsIcEEE6__execERNS_7__stateIcEE, symObjAddr: 0x10A00, symBinAddr: 0x34EFC, symSize: 0x174 }
  - { offset: 0x1AA5E5, size: 0x8, addend: 0x0, symName: __ZNSt3__111basic_regexIcNS_12regex_traitsIcEEE11__push_charEc, symObjAddr: 0x115A4, symBinAddr: 0x35AA0, symSize: 0x144 }
  - { offset: 0x1AA950, size: 0x8, addend: 0x0, symName: __ZNSt3__111basic_regexIcNS_12regex_traitsIcEEE15__push_back_refEi, symObjAddr: 0x11734, symBinAddr: 0x35C30, symSize: 0xD4 }
  - { offset: 0x1AAB04, size: 0x8, addend: 0x0, symName: __ZNSt3__111basic_regexIcNS_12regex_traitsIcEEE30__parse_character_class_escapeINS_11__wrap_iterIPKcEEEET_S9_S9_, symObjAddr: 0x10FBC, symBinAddr: 0x354B8, symSize: 0x25C }
  - { offset: 0x1AAF73, size: 0x8, addend: 0x0, symName: __ZNSt3__111basic_regexIcNS_12regex_traitsIcEEE24__parse_character_escapeINS_11__wrap_iterIPKcEEEET_S9_S9_PNS_12basic_stringIcNS_11char_traitsIcEENS_9allocatorIcEEEE, symObjAddr: 0x11218, symBinAddr: 0x35714, symSize: 0x38C }
  - { offset: 0x1AB33D, size: 0x8, addend: 0x0, symName: __ZNSt3__111basic_regexIcNS_12regex_traitsIcEEE11__push_charEc, symObjAddr: 0x115A4, symBinAddr: 0x35AA0, symSize: 0x144 }
  - { offset: 0x1AB428, size: 0x8, addend: 0x0, symName: __ZNSt3__120__bracket_expressionIcNS_12regex_traitsIcEEEC2B8ne200100ERKS2_PNS_6__nodeIcEEbbb, symObjAddr: 0x120E0, symBinAddr: 0x365DC, symSize: 0x19C }
  - { offset: 0x1ABA5A, size: 0x8, addend: 0x0, symName: __ZNSt3__120__bracket_expressionIcNS_12regex_traitsIcEEE10__add_charB8ne200100Ec, symObjAddr: 0x11F54, symBinAddr: 0x36450, symSize: 0x18C }
  - { offset: 0x1ABD82, size: 0x8, addend: 0x0, symName: __ZNSt3__120__bracket_expressionIcNS_12regex_traitsIcEEEC2B8ne200100ERKS2_PNS_6__nodeIcEEbbb, symObjAddr: 0x120E0, symBinAddr: 0x365DC, symSize: 0x19C }
  - { offset: 0x1ABD8D, size: 0x8, addend: 0x0, symName: __ZNSt3__111basic_regexIcNS_12regex_traitsIcEEE23__parse_expression_termINS_11__wrap_iterIPKcEEEET_S9_S9_PNS_20__bracket_expressionIcS2_EE, symObjAddr: 0x13340, symBinAddr: 0x377B8, symSize: 0x454 }
  - { offset: 0x1ACA0B, size: 0x8, addend: 0x0, symName: __ZNSt3__123__match_any_but_newlineIcED1Ev, symObjAddr: 0x10EE0, symBinAddr: 0x353DC, symSize: 0x48 }
  - { offset: 0x1ACA2F, size: 0x8, addend: 0x0, symName: __ZNSt3__123__match_any_but_newlineIcED1Ev, symObjAddr: 0x10EE0, symBinAddr: 0x353DC, symSize: 0x48 }
  - { offset: 0x1ACA4D, size: 0x8, addend: 0x0, symName: __ZNSt3__123__match_any_but_newlineIcED1Ev, symObjAddr: 0x10EE0, symBinAddr: 0x353DC, symSize: 0x48 }
  - { offset: 0x1ACA94, size: 0x8, addend: 0x0, symName: __ZNSt3__123__match_any_but_newlineIcED0Ev, symObjAddr: 0x10F28, symBinAddr: 0x35424, symSize: 0x48 }
  - { offset: 0x1ACAC4, size: 0x8, addend: 0x0, symName: __ZNSt3__123__match_any_but_newlineIcED0Ev, symObjAddr: 0x10F28, symBinAddr: 0x35424, symSize: 0x48 }
  - { offset: 0x1ACAE2, size: 0x8, addend: 0x0, symName: __ZNSt3__123__match_any_but_newlineIcED0Ev, symObjAddr: 0x10F28, symBinAddr: 0x35424, symSize: 0x48 }
  - { offset: 0x1ACB00, size: 0x8, addend: 0x0, symName: __ZNSt3__123__match_any_but_newlineIcED0Ev, symObjAddr: 0x10F28, symBinAddr: 0x35424, symSize: 0x48 }
  - { offset: 0x1ACF50, size: 0x8, addend: 0x0, symName: __ZNSt3__118__match_char_icaseIcNS_12regex_traitsIcEEED1Ev, symObjAddr: 0x11808, symBinAddr: 0x35D04, symSize: 0x58 }
  - { offset: 0x1AD000, size: 0x8, addend: 0x0, symName: __ZNSt3__118__match_char_icaseIcNS_12regex_traitsIcEEED0Ev, symObjAddr: 0x11860, symBinAddr: 0x35D5C, symSize: 0x58 }
  - { offset: 0x1AD0BC, size: 0x8, addend: 0x0, symName: __ZNKSt3__118__match_char_icaseIcNS_12regex_traitsIcEEE6__execERNS_7__stateIcEE, symObjAddr: 0x118B8, symBinAddr: 0x35DB4, symSize: 0x84 }
  - { offset: 0x1AD175, size: 0x8, addend: 0x0, symName: __ZNSt3__120__match_char_collateIcNS_12regex_traitsIcEEED1Ev, symObjAddr: 0x1193C, symBinAddr: 0x35E38, symSize: 0x58 }
  - { offset: 0x1AD225, size: 0x8, addend: 0x0, symName: __ZNSt3__120__match_char_collateIcNS_12regex_traitsIcEEED0Ev, symObjAddr: 0x11994, symBinAddr: 0x35E90, symSize: 0x58 }
  - { offset: 0x1AD2E1, size: 0x8, addend: 0x0, symName: __ZNKSt3__120__match_char_collateIcNS_12regex_traitsIcEEE6__execERNS_7__stateIcEE, symObjAddr: 0x119EC, symBinAddr: 0x35EE8, symSize: 0x48 }
  - { offset: 0x1AD34E, size: 0x8, addend: 0x0, symName: __ZNSt3__112__match_charIcED1Ev, symObjAddr: 0x11A34, symBinAddr: 0x35F30, symSize: 0x48 }
  - { offset: 0x1AD372, size: 0x8, addend: 0x0, symName: __ZNSt3__112__match_charIcED1Ev, symObjAddr: 0x11A34, symBinAddr: 0x35F30, symSize: 0x48 }
  - { offset: 0x1AD390, size: 0x8, addend: 0x0, symName: __ZNSt3__112__match_charIcED1Ev, symObjAddr: 0x11A34, symBinAddr: 0x35F30, symSize: 0x48 }
  - { offset: 0x1AD3D7, size: 0x8, addend: 0x0, symName: __ZNSt3__112__match_charIcED0Ev, symObjAddr: 0x11A7C, symBinAddr: 0x35F78, symSize: 0x48 }
  - { offset: 0x1AD407, size: 0x8, addend: 0x0, symName: __ZNSt3__112__match_charIcED0Ev, symObjAddr: 0x11A7C, symBinAddr: 0x35F78, symSize: 0x48 }
  - { offset: 0x1AD425, size: 0x8, addend: 0x0, symName: __ZNSt3__112__match_charIcED0Ev, symObjAddr: 0x11A7C, symBinAddr: 0x35F78, symSize: 0x48 }
  - { offset: 0x1AD443, size: 0x8, addend: 0x0, symName: __ZNSt3__112__match_charIcED0Ev, symObjAddr: 0x11A7C, symBinAddr: 0x35F78, symSize: 0x48 }
  - { offset: 0x1AD46E, size: 0x8, addend: 0x0, symName: __ZNKSt3__112__match_charIcE6__execERNS_7__stateIcEE, symObjAddr: 0x11AC4, symBinAddr: 0x35FC0, symSize: 0x48 }
  - { offset: 0x1AD4DB, size: 0x8, addend: 0x0, symName: __ZNSt3__116__back_ref_icaseIcNS_12regex_traitsIcEEED1Ev, symObjAddr: 0x11B0C, symBinAddr: 0x36008, symSize: 0x58 }
  - { offset: 0x1AD58B, size: 0x8, addend: 0x0, symName: __ZNSt3__116__back_ref_icaseIcNS_12regex_traitsIcEEED0Ev, symObjAddr: 0x11B64, symBinAddr: 0x36060, symSize: 0x58 }
  - { offset: 0x1AD647, size: 0x8, addend: 0x0, symName: __ZNKSt3__116__back_ref_icaseIcNS_12regex_traitsIcEEE6__execERNS_7__stateIcEE, symObjAddr: 0x11BBC, symBinAddr: 0x360B8, symSize: 0xFC }
  - { offset: 0x1AD7AE, size: 0x8, addend: 0x0, symName: __ZNSt3__118__back_ref_collateIcNS_12regex_traitsIcEEED1Ev, symObjAddr: 0x11CB8, symBinAddr: 0x361B4, symSize: 0x58 }
  - { offset: 0x1AD85E, size: 0x8, addend: 0x0, symName: __ZNSt3__118__back_ref_collateIcNS_12regex_traitsIcEEED0Ev, symObjAddr: 0x11D10, symBinAddr: 0x3620C, symSize: 0x58 }
  - { offset: 0x1AD91A, size: 0x8, addend: 0x0, symName: __ZNKSt3__118__back_ref_collateIcNS_12regex_traitsIcEEE6__execERNS_7__stateIcEE, symObjAddr: 0x11D68, symBinAddr: 0x36264, symSize: 0x8C }
  - { offset: 0x1AD9EB, size: 0x8, addend: 0x0, symName: __ZNSt3__110__back_refIcED1Ev, symObjAddr: 0x11DF4, symBinAddr: 0x362F0, symSize: 0x48 }
  - { offset: 0x1ADA0F, size: 0x8, addend: 0x0, symName: __ZNSt3__110__back_refIcED1Ev, symObjAddr: 0x11DF4, symBinAddr: 0x362F0, symSize: 0x48 }
  - { offset: 0x1ADA2D, size: 0x8, addend: 0x0, symName: __ZNSt3__110__back_refIcED1Ev, symObjAddr: 0x11DF4, symBinAddr: 0x362F0, symSize: 0x48 }
  - { offset: 0x1ADA74, size: 0x8, addend: 0x0, symName: __ZNSt3__110__back_refIcED0Ev, symObjAddr: 0x11E3C, symBinAddr: 0x36338, symSize: 0x48 }
  - { offset: 0x1ADAA4, size: 0x8, addend: 0x0, symName: __ZNSt3__110__back_refIcED0Ev, symObjAddr: 0x11E3C, symBinAddr: 0x36338, symSize: 0x48 }
  - { offset: 0x1ADAC2, size: 0x8, addend: 0x0, symName: __ZNSt3__110__back_refIcED0Ev, symObjAddr: 0x11E3C, symBinAddr: 0x36338, symSize: 0x48 }
  - { offset: 0x1ADAE0, size: 0x8, addend: 0x0, symName: __ZNSt3__110__back_refIcED0Ev, symObjAddr: 0x11E3C, symBinAddr: 0x36338, symSize: 0x48 }
  - { offset: 0x1ADB0B, size: 0x8, addend: 0x0, symName: __ZNKSt3__110__back_refIcE6__execERNS_7__stateIcEE, symObjAddr: 0x11E84, symBinAddr: 0x36380, symSize: 0xD0 }
  - { offset: 0x1ADC83, size: 0x8, addend: 0x0, symName: __ZNSt3__120__bracket_expressionIcNS_12regex_traitsIcEEE10__add_charB8ne200100Ec, symObjAddr: 0x11F54, symBinAddr: 0x36450, symSize: 0x18C }
  - { offset: 0x1ADF0A, size: 0x8, addend: 0x0, symName: __ZNSt3__16vectorIcNS_9allocatorIcEEE20__throw_length_errorB8ne200100Ev, symObjAddr: 0x132E0, symBinAddr: 0x37758, symSize: 0x14 }
  - { offset: 0x1ADF22, size: 0x8, addend: 0x0, symName: __ZNSt3__119__throw_regex_errorB8ne200100ILNS_15regex_constants10error_typeE5EEEvv, symObjAddr: 0x132F4, symBinAddr: 0x3776C, symSize: 0x4C }
  - { offset: 0x1AE305, size: 0x8, addend: 0x0, symName: __ZNSt3__16vectorINS_4pairINS_12basic_stringIcNS_11char_traitsIcEENS_9allocatorIcEEEES7_EENS5_IS8_EEED1B8ne200100Ev, symObjAddr: 0x122EC, symBinAddr: 0x36778, symSize: 0x94 }
  - { offset: 0x1AE96F, size: 0x8, addend: 0x0, symName: __ZNSt3__120__bracket_expressionIcNS_12regex_traitsIcEEED1Ev, symObjAddr: 0x12380, symBinAddr: 0x3680C, symSize: 0x4 }
  - { offset: 0x1AE992, size: 0x8, addend: 0x0, symName: __ZNSt3__120__bracket_expressionIcNS_12regex_traitsIcEEED1Ev, symObjAddr: 0x12380, symBinAddr: 0x3680C, symSize: 0x4 }
  - { offset: 0x1AE9A5, size: 0x8, addend: 0x0, symName: __ZNSt3__120__bracket_expressionIcNS_12regex_traitsIcEEED2Ev, symObjAddr: 0x12C88, symBinAddr: 0x37100, symSize: 0x148 }
  - { offset: 0x1AF3AA, size: 0x8, addend: 0x0, symName: __ZNSt3__120__bracket_expressionIcNS_12regex_traitsIcEEED0Ev, symObjAddr: 0x12384, symBinAddr: 0x36810, symSize: 0x14 }
  - { offset: 0x1AF7E8, size: 0x8, addend: 0x0, symName: __ZNKSt3__120__bracket_expressionIcNS_12regex_traitsIcEEE6__execERNS_7__stateIcEE, symObjAddr: 0x12398, symBinAddr: 0x36824, symSize: 0x884 }
  - { offset: 0x1B1012, size: 0x8, addend: 0x0, symName: __ZNKSt3__112regex_traitsIcE20__lookup_collatenameIPcEENS_12basic_stringIcNS_11char_traitsIcEENS_9allocatorIcEEEET_SA_c, symObjAddr: 0x12F04, symBinAddr: 0x3737C, symSize: 0x23C }
  - { offset: 0x1B1B0D, size: 0x8, addend: 0x0, symName: __ZNKSt3__112regex_traitsIcE9transformIPcEENS_12basic_stringIcNS_11char_traitsIcEENS_9allocatorIcEEEET_SA_, symObjAddr: 0x12DD0, symBinAddr: 0x37248, symSize: 0x134 }
  - { offset: 0x1B20CA, size: 0x8, addend: 0x0, symName: __ZNKSt3__112regex_traitsIcE19__transform_primaryIPcEENS_12basic_stringIcNS_11char_traitsIcEENS_9allocatorIcEEEET_SA_c, symObjAddr: 0x13140, symBinAddr: 0x375B8, symSize: 0x1A0 }
  - { offset: 0x1B280A, size: 0x8, addend: 0x0, symName: __ZNSt3__14pairINS_12basic_stringIcNS_11char_traitsIcEENS_9allocatorIcEEEES6_ED1Ev, symObjAddr: 0x12C30, symBinAddr: 0x370A8, symSize: 0x58 }
  - { offset: 0x1B2B09, size: 0x8, addend: 0x0, symName: __ZNSt3__111basic_regexIcNS_12regex_traitsIcEEE25__parse_equivalence_classINS_11__wrap_iterIPKcEEEET_S9_S9_PNS_20__bracket_expressionIcS2_EE, symObjAddr: 0x13794, symBinAddr: 0x37C0C, symSize: 0x28C }
  - { offset: 0x1B3542, size: 0x8, addend: 0x0, symName: __ZNSt3__111basic_regexIcNS_12regex_traitsIcEEE18__parse_awk_escapeINS_11__wrap_iterIPKcEEEET_S9_S9_PNS_12basic_stringIcNS_11char_traitsIcEENS_9allocatorIcEEEE, symObjAddr: 0x13D34, symBinAddr: 0x381AC, symSize: 0x2F8 }
  - { offset: 0x1B371F, size: 0x8, addend: 0x0, symName: __ZNSt3__120__bracket_expressionIcNS_12regex_traitsIcEEE11__add_rangeB8ne200100ENS_12basic_stringIcNS_11char_traitsIcEENS_9allocatorIcEEEES9_, symObjAddr: 0x1402C, symBinAddr: 0x384A4, symSize: 0x438 }
  - { offset: 0x1B3733, size: 0x8, addend: 0x0, symName: __ZNSt3__111basic_regexIcNS_12regex_traitsIcEEE24__parse_collating_symbolINS_11__wrap_iterIPKcEEEET_S9_S9_RNS_12basic_stringIcNS_11char_traitsIcEENS_9allocatorIcEEEE, symObjAddr: 0x13ACC, symBinAddr: 0x37F44, symSize: 0xE0 }
  - { offset: 0x1B3A7E, size: 0x8, addend: 0x0, symName: __ZNSt3__111basic_regexIcNS_12regex_traitsIcEEE20__parse_class_escapeINS_11__wrap_iterIPKcEEEET_S9_S9_RNS_12basic_stringIcNS_11char_traitsIcEENS_9allocatorIcEEEEPNS_20__bracket_expressionIcS2_EE, symObjAddr: 0x13BAC, symBinAddr: 0x38024, symSize: 0x188 }
  - { offset: 0x1B3A92, size: 0x8, addend: 0x0, symName: __ZNSt3__111basic_regexIcNS_12regex_traitsIcEEE23__parse_character_classINS_11__wrap_iterIPKcEEEET_S9_S9_PNS_20__bracket_expressionIcS2_EE, symObjAddr: 0x13A20, symBinAddr: 0x37E98, symSize: 0xAC }
  - { offset: 0x1B3CE8, size: 0x8, addend: 0x0, symName: __ZNSt3__111basic_regexIcNS_12regex_traitsIcEEE24__parse_collating_symbolINS_11__wrap_iterIPKcEEEET_S9_S9_RNS_12basic_stringIcNS_11char_traitsIcEENS_9allocatorIcEEEE, symObjAddr: 0x13ACC, symBinAddr: 0x37F44, symSize: 0xE0 }
  - { offset: 0x1B3D08, size: 0x8, addend: 0x0, symName: __ZNSt3__120__bracket_expressionIcNS_12regex_traitsIcEEE13__add_digraphB8ne200100Ecc, symObjAddr: 0x14464, symBinAddr: 0x388DC, symSize: 0x220 }
  - { offset: 0x1B47D5, size: 0x8, addend: 0x0, symName: __ZNSt3__119__throw_regex_errorB8ne200100ILNS_15regex_constants10error_typeE1EEEvv, symObjAddr: 0x14684, symBinAddr: 0x38AFC, symSize: 0x4C }
  - { offset: 0x1B47E0, size: 0x8, addend: 0x0, symName: __ZNSt3__111basic_regexIcNS_12regex_traitsIcEEE20__parse_class_escapeINS_11__wrap_iterIPKcEEEET_S9_S9_RNS_12basic_stringIcNS_11char_traitsIcEENS_9allocatorIcEEEEPNS_20__bracket_expressionIcS2_EE, symObjAddr: 0x13BAC, symBinAddr: 0x38024, symSize: 0x188 }
  - { offset: 0x1B49B4, size: 0x8, addend: 0x0, symName: __ZNSt3__111basic_regexIcNS_12regex_traitsIcEEE18__parse_awk_escapeINS_11__wrap_iterIPKcEEEET_S9_S9_PNS_12basic_stringIcNS_11char_traitsIcEENS_9allocatorIcEEEE, symObjAddr: 0x13D34, symBinAddr: 0x381AC, symSize: 0x2F8 }
  - { offset: 0x1B49C8, size: 0x8, addend: 0x0, symName: __ZNSt3__120__bracket_expressionIcNS_12regex_traitsIcEEE11__add_rangeB8ne200100ENS_12basic_stringIcNS_11char_traitsIcEENS_9allocatorIcEEEES9_, symObjAddr: 0x1402C, symBinAddr: 0x384A4, symSize: 0x438 }
  - { offset: 0x1B5DC6, size: 0x8, addend: 0x0, symName: __ZNKSt3__112regex_traitsIcE20__lookup_collatenameINS_11__wrap_iterIPKcEEEENS_12basic_stringIcNS_11char_traitsIcEENS_9allocatorIcEEEET_SD_c, symObjAddr: 0x146D0, symBinAddr: 0x38B48, symSize: 0x23C }
  - { offset: 0x1B68D6, size: 0x8, addend: 0x0, symName: __ZNKSt3__112regex_traitsIcE19__transform_primaryINS_11__wrap_iterIPcEEEENS_12basic_stringIcNS_11char_traitsIcEENS_9allocatorIcEEEET_SC_c, symObjAddr: 0x1490C, symBinAddr: 0x38D84, symSize: 0x1A0 }
  - { offset: 0x1B702B, size: 0x8, addend: 0x0, symName: __ZNSt3__16vectorINS_12basic_stringIcNS_11char_traitsIcEENS_9allocatorIcEEEENS4_IS6_EEE24__emplace_back_slow_pathIJRKS6_EEEPS6_DpOT_, symObjAddr: 0x14AAC, symBinAddr: 0x38F24, symSize: 0x154 }
  - { offset: 0x1B749D, size: 0x8, addend: 0x0, symName: __ZNKSt3__112regex_traitsIcE18__lookup_classnameINS_11__wrap_iterIPKcEEEEjT_S7_bc, symObjAddr: 0x14CC4, symBinAddr: 0x3913C, symSize: 0x154 }
  - { offset: 0x1B7B6A, size: 0x8, addend: 0x0, symName: __ZNSt3__120__bracket_expressionIcNS_12regex_traitsIcEEE14__add_neg_charB8ne200100Ec, symObjAddr: 0x14E18, symBinAddr: 0x39290, symSize: 0x18C }
  - { offset: 0x1B7E9C, size: 0x8, addend: 0x0, symName: __ZNSt3__16vectorINS_4pairINS_12basic_stringIcNS_11char_traitsIcEENS_9allocatorIcEEEES7_EENS5_IS8_EEE9push_backB8ne200100EOS8_, symObjAddr: 0x14FA4, symBinAddr: 0x3941C, symSize: 0x174 }
  - { offset: 0x1B7F5F, size: 0x8, addend: 0x0, symName: __ZNKSt3__112regex_traitsIcE9transformINS_11__wrap_iterIPcEEEENS_12basic_stringIcNS_11char_traitsIcEENS_9allocatorIcEEEET_SC_, symObjAddr: 0x15118, symBinAddr: 0x39590, symSize: 0x134 }
  - { offset: 0x1B8555, size: 0x8, addend: 0x0, symName: __ZNSt3__16vectorINS_4pairINS_12basic_stringIcNS_11char_traitsIcEENS_9allocatorIcEEEES7_EENS5_IS8_EEE9push_backB8ne200100EOS8_, symObjAddr: 0x14FA4, symBinAddr: 0x3941C, symSize: 0x174 }
  - { offset: 0x1B8AE8, size: 0x8, addend: 0x0, symName: __ZNKSt3__112regex_traitsIcE9transformINS_11__wrap_iterIPcEEEENS_12basic_stringIcNS_11char_traitsIcEENS_9allocatorIcEEEET_SC_, symObjAddr: 0x15118, symBinAddr: 0x39590, symSize: 0x134 }
  - { offset: 0x1B8DF2, size: 0x8, addend: 0x0, symName: __ZNSt3__16vectorINS_4pairIccEENS_9allocatorIS2_EEE20__throw_length_errorB8ne200100Ev, symObjAddr: 0x152AC, symBinAddr: 0x39724, symSize: 0x14 }
  - { offset: 0x1B8E0A, size: 0x8, addend: 0x0, symName: __ZNSt3__128__begin_marked_subexpressionIcED1Ev, symObjAddr: 0x152C0, symBinAddr: 0x39738, symSize: 0x48 }
  - { offset: 0x1B9289, size: 0x8, addend: 0x0, symName: __ZNSt3__16vectorINS_12basic_stringIcNS_11char_traitsIcEENS_9allocatorIcEEEENS4_IS6_EEE20__throw_length_errorB8ne200100Ev, symObjAddr: 0x14C64, symBinAddr: 0x390DC, symSize: 0x14 }
  - { offset: 0x1B92A1, size: 0x8, addend: 0x0, symName: __ZNSt3__119__throw_regex_errorB8ne200100ILNS_15regex_constants10error_typeE2EEEvv, symObjAddr: 0x14C78, symBinAddr: 0x390F0, symSize: 0x4C }
  - { offset: 0x1B92AC, size: 0x8, addend: 0x0, symName: __ZNSt3__114__split_bufferINS_12basic_stringIcNS_11char_traitsIcEENS_9allocatorIcEEEERNS4_IS6_EEED1Ev, symObjAddr: 0x14C00, symBinAddr: 0x39078, symSize: 0x64 }
  - { offset: 0x1B9847, size: 0x8, addend: 0x0, symName: __ZNSt3__16vectorINS_4pairINS_12basic_stringIcNS_11char_traitsIcEENS_9allocatorIcEEEES7_EENS5_IS8_EEE20__throw_length_errorB8ne200100Ev, symObjAddr: 0x15298, symBinAddr: 0x39710, symSize: 0x14 }
  - { offset: 0x1B985F, size: 0x8, addend: 0x0, symName: __ZNSt3__16vectorINS_4pairIccEENS_9allocatorIS2_EEE20__throw_length_errorB8ne200100Ev, symObjAddr: 0x152AC, symBinAddr: 0x39724, symSize: 0x14 }
  - { offset: 0x1B9887, size: 0x8, addend: 0x0, symName: __ZNSt3__128__begin_marked_subexpressionIcED1Ev, symObjAddr: 0x152C0, symBinAddr: 0x39738, symSize: 0x48 }
  - { offset: 0x1B98AB, size: 0x8, addend: 0x0, symName: __ZNSt3__128__begin_marked_subexpressionIcED1Ev, symObjAddr: 0x152C0, symBinAddr: 0x39738, symSize: 0x48 }
  - { offset: 0x1B98C9, size: 0x8, addend: 0x0, symName: __ZNSt3__128__begin_marked_subexpressionIcED1Ev, symObjAddr: 0x152C0, symBinAddr: 0x39738, symSize: 0x48 }
  - { offset: 0x1B9910, size: 0x8, addend: 0x0, symName: __ZNSt3__128__begin_marked_subexpressionIcED0Ev, symObjAddr: 0x15308, symBinAddr: 0x39780, symSize: 0x48 }
  - { offset: 0x1B9940, size: 0x8, addend: 0x0, symName: __ZNSt3__128__begin_marked_subexpressionIcED0Ev, symObjAddr: 0x15308, symBinAddr: 0x39780, symSize: 0x48 }
  - { offset: 0x1B995E, size: 0x8, addend: 0x0, symName: __ZNSt3__128__begin_marked_subexpressionIcED0Ev, symObjAddr: 0x15308, symBinAddr: 0x39780, symSize: 0x48 }
  - { offset: 0x1B997C, size: 0x8, addend: 0x0, symName: __ZNSt3__128__begin_marked_subexpressionIcED0Ev, symObjAddr: 0x15308, symBinAddr: 0x39780, symSize: 0x48 }
  - { offset: 0x1B99A7, size: 0x8, addend: 0x0, symName: __ZNKSt3__128__begin_marked_subexpressionIcE6__execERNS_7__stateIcEE, symObjAddr: 0x15350, symBinAddr: 0x397C8, symSize: 0x30 }
  - { offset: 0x1B9A33, size: 0x8, addend: 0x0, symName: __ZNSt3__126__end_marked_subexpressionIcED1Ev, symObjAddr: 0x15380, symBinAddr: 0x397F8, symSize: 0x48 }
  - { offset: 0x1B9A57, size: 0x8, addend: 0x0, symName: __ZNSt3__126__end_marked_subexpressionIcED1Ev, symObjAddr: 0x15380, symBinAddr: 0x397F8, symSize: 0x48 }
  - { offset: 0x1B9A75, size: 0x8, addend: 0x0, symName: __ZNSt3__126__end_marked_subexpressionIcED1Ev, symObjAddr: 0x15380, symBinAddr: 0x397F8, symSize: 0x48 }
  - { offset: 0x1B9ABC, size: 0x8, addend: 0x0, symName: __ZNSt3__126__end_marked_subexpressionIcED0Ev, symObjAddr: 0x153C8, symBinAddr: 0x39840, symSize: 0x48 }
  - { offset: 0x1B9AEC, size: 0x8, addend: 0x0, symName: __ZNSt3__126__end_marked_subexpressionIcED0Ev, symObjAddr: 0x153C8, symBinAddr: 0x39840, symSize: 0x48 }
  - { offset: 0x1B9B0A, size: 0x8, addend: 0x0, symName: __ZNSt3__126__end_marked_subexpressionIcED0Ev, symObjAddr: 0x153C8, symBinAddr: 0x39840, symSize: 0x48 }
  - { offset: 0x1B9B28, size: 0x8, addend: 0x0, symName: __ZNSt3__126__end_marked_subexpressionIcED0Ev, symObjAddr: 0x153C8, symBinAddr: 0x39840, symSize: 0x48 }
  - { offset: 0x1B9B53, size: 0x8, addend: 0x0, symName: __ZNKSt3__126__end_marked_subexpressionIcE6__execERNS_7__stateIcEE, symObjAddr: 0x15410, symBinAddr: 0x39888, symSize: 0x38 }
  - { offset: 0x1B9E10, size: 0x8, addend: 0x0, symName: __ZNSt3__16__loopIcED0Ev, symObjAddr: 0x15684, symBinAddr: 0x39AFC, symSize: 0x68 }
  - { offset: 0x1B9F01, size: 0x8, addend: 0x0, symName: __ZNSt3__16__loopIcED1Ev, symObjAddr: 0x1561C, symBinAddr: 0x39A94, symSize: 0x68 }
  - { offset: 0x1BA023, size: 0x8, addend: 0x0, symName: __ZNKSt3__16__loopIcE6__execERNS_7__stateIcEE, symObjAddr: 0x156EC, symBinAddr: 0x39B64, symSize: 0x1F8 }
  - { offset: 0x1BA156, size: 0x8, addend: 0x0, symName: __ZNKSt3__16__loopIcE12__exec_splitEbRNS_7__stateIcEE, symObjAddr: 0x158E4, symBinAddr: 0x39D5C, symSize: 0xD8 }
  - { offset: 0x1BA227, size: 0x8, addend: 0x0, symName: __ZNSt3__117__owns_two_statesIcED1Ev, symObjAddr: 0x159BC, symBinAddr: 0x39E34, symSize: 0x68 }
  - { offset: 0x1BA2B5, size: 0x8, addend: 0x0, symName: __ZNSt3__117__owns_two_statesIcED0Ev, symObjAddr: 0x15A24, symBinAddr: 0x39E9C, symSize: 0x68 }
  - { offset: 0x1BA34F, size: 0x8, addend: 0x0, symName: __ZNSt3__117__repeat_one_loopIcED1Ev, symObjAddr: 0x15A8C, symBinAddr: 0x39F04, symSize: 0x4 }
  - { offset: 0x1BA37B, size: 0x8, addend: 0x0, symName: __ZNSt3__117__repeat_one_loopIcED0Ev, symObjAddr: 0x15A90, symBinAddr: 0x39F08, symSize: 0x4 }
  - { offset: 0x1BA3A7, size: 0x8, addend: 0x0, symName: __ZNKSt3__117__repeat_one_loopIcE6__execERNS_7__stateIcEE, symObjAddr: 0x15A94, symBinAddr: 0x39F0C, symSize: 0x14 }
  - { offset: 0x1BA414, size: 0x8, addend: 0x0, symName: __ZNSt3__111__alternateIcED1Ev, symObjAddr: 0x15AA8, symBinAddr: 0x39F20, symSize: 0x68 }
  - { offset: 0x1BA4C2, size: 0x8, addend: 0x0, symName: __ZNSt3__111__alternateIcED0Ev, symObjAddr: 0x15B10, symBinAddr: 0x39F88, symSize: 0x68 }
  - { offset: 0x1BA57C, size: 0x8, addend: 0x0, symName: __ZNKSt3__111__alternateIcE6__execERNS_7__stateIcEE, symObjAddr: 0x15B78, symBinAddr: 0x39FF0, symSize: 0xC }
  - { offset: 0x1BA5AF, size: 0x8, addend: 0x0, symName: __ZNKSt3__111__alternateIcE12__exec_splitEbRNS_7__stateIcEE, symObjAddr: 0x15B84, symBinAddr: 0x39FFC, symSize: 0x24 }
  - { offset: 0x1BA5F5, size: 0x8, addend: 0x0, symName: __ZNSt3__121__empty_non_own_stateIcED1Ev, symObjAddr: 0x15BA8, symBinAddr: 0x3A020, symSize: 0x4 }
  - { offset: 0x1BA621, size: 0x8, addend: 0x0, symName: __ZNSt3__121__empty_non_own_stateIcED0Ev, symObjAddr: 0x15BAC, symBinAddr: 0x3A024, symSize: 0x4 }
  - { offset: 0x1BA64D, size: 0x8, addend: 0x0, symName: __ZNKSt3__121__empty_non_own_stateIcE6__execERNS_7__stateIcEE, symObjAddr: 0x15BB0, symBinAddr: 0x3A028, symSize: 0x14 }
  - { offset: 0x1BA79C, size: 0x8, addend: 0x0, symName: __ZNSt3__111basic_regexIcNS_12regex_traitsIcEEE32__parse_one_char_or_coll_elem_REINS_11__wrap_iterIPKcEEEET_S9_S9_, symObjAddr: 0x16090, symBinAddr: 0x3A508, symSize: 0x18C }
  - { offset: 0x1BAB2B, size: 0x8, addend: 0x0, symName: __ZNSt3__111__match_anyIcED1Ev, symObjAddr: 0x1621C, symBinAddr: 0x3A694, symSize: 0x48 }
  - { offset: 0x1BAB4F, size: 0x8, addend: 0x0, symName: __ZNSt3__111__match_anyIcED1Ev, symObjAddr: 0x1621C, symBinAddr: 0x3A694, symSize: 0x48 }
  - { offset: 0x1BAB6D, size: 0x8, addend: 0x0, symName: __ZNSt3__111__match_anyIcED1Ev, symObjAddr: 0x1621C, symBinAddr: 0x3A694, symSize: 0x48 }
  - { offset: 0x1BABB4, size: 0x8, addend: 0x0, symName: __ZNSt3__111__match_anyIcED0Ev, symObjAddr: 0x16264, symBinAddr: 0x3A6DC, symSize: 0x48 }
  - { offset: 0x1BABE4, size: 0x8, addend: 0x0, symName: __ZNSt3__111__match_anyIcED0Ev, symObjAddr: 0x16264, symBinAddr: 0x3A6DC, symSize: 0x48 }
  - { offset: 0x1BAC02, size: 0x8, addend: 0x0, symName: __ZNSt3__111__match_anyIcED0Ev, symObjAddr: 0x16264, symBinAddr: 0x3A6DC, symSize: 0x48 }
  - { offset: 0x1BAC20, size: 0x8, addend: 0x0, symName: __ZNSt3__111__match_anyIcED0Ev, symObjAddr: 0x16264, symBinAddr: 0x3A6DC, symSize: 0x48 }
  - { offset: 0x1BAC4B, size: 0x8, addend: 0x0, symName: __ZNKSt3__111__match_anyIcE6__execERNS_7__stateIcEE, symObjAddr: 0x162AC, symBinAddr: 0x3A724, symSize: 0x40 }
  - { offset: 0x1BAC9B, size: 0x8, addend: 0x0, symName: __ZNSt3__111basic_regexIcNS_12regex_traitsIcEEE15__test_back_refEc, symObjAddr: 0x162EC, symBinAddr: 0x3A764, symSize: 0x60 }
  - { offset: 0x1BAD94, size: 0x8, addend: 0x0, symName: __ZNSt3__111basic_regexIcNS_12regex_traitsIcEEE22__parse_ERE_expressionINS_11__wrap_iterIPKcEEEET_S9_S9_, symObjAddr: 0x1634C, symBinAddr: 0x3A7C4, symSize: 0x1F0 }
  - { offset: 0x1BAD9F, size: 0x8, addend: 0x0, symName: __ZNSt3__111basic_regexIcNS_12regex_traitsIcEEE33__parse_one_char_or_coll_elem_EREINS_11__wrap_iterIPKcEEEET_S9_S9_, symObjAddr: 0x1653C, symBinAddr: 0x3A9B4, symSize: 0x158 }
  - { offset: 0x1BAFBB, size: 0x8, addend: 0x0, symName: __ZNSt3__111basic_regexIcNS_12regex_traitsIcEEE23__parse_QUOTED_CHAR_EREINS_11__wrap_iterIPKcEEEET_S9_S9_, symObjAddr: 0x16694, symBinAddr: 0x3AB0C, symSize: 0xC8 }
  - { offset: 0x1BB14B, size: 0x8, addend: 0x0, symName: __ZNSt3__128__exception_guard_exceptionsINS_29_AllocatorDestroyRangeReverseINS_9allocatorINS_6vectorI21llama_grammar_elementNS2_IS4_EEEEEEPS6_EEED1B8ne200100Ev, symObjAddr: 0x168DC, symBinAddr: 0x3ACCC, symSize: 0x6C }
  - { offset: 0x1E9012, size: 0x8, addend: 0x0, symName: __ZNSt3__125__throw_bad_function_callB8ne200100Ev, symObjAddr: 0xB450, symBinAddr: 0x460B4, symSize: 0x34 }
  - { offset: 0x1E940A, size: 0x8, addend: 0x0, symName: __ZNSt3__111make_uniqueB8ne200100I24llm_graph_input_samplingJRKNS_3mapIiP13llama_samplerNS_4lessIiEENS_9allocatorINS_4pairIKiS4_EEEEEEELi0EEENS_10unique_ptrIT_NS_14default_deleteISG_EEEEDpOT0_, symObjAddr: 0xA104, symBinAddr: 0x452C8, symSize: 0xF4 }
  - { offset: 0x1F3341, size: 0x8, addend: 0x0, symName: __ZN20llm_graph_input_embd9set_inputEPK12llama_ubatch, symObjAddr: 0x0, symBinAddr: 0x3B298, symSize: 0xD8 }
  - { offset: 0x1F340B, size: 0x8, addend: 0x0, symName: __ZN20llm_graph_input_embd9can_reuseERK16llm_graph_params, symObjAddr: 0xD8, symBinAddr: 0x3B370, symSize: 0x68 }
  - { offset: 0x1F3470, size: 0x8, addend: 0x0, symName: __ZN20llm_graph_input_embd9can_reuseERK16llm_graph_params, symObjAddr: 0xD8, symBinAddr: 0x3B370, symSize: 0x68 }
  - { offset: 0x1F3701, size: 0x8, addend: 0x0, symName: __ZN19llm_graph_input_pos9set_inputEPK12llama_ubatch, symObjAddr: 0x140, symBinAddr: 0x3B3D8, symSize: 0x270 }
  - { offset: 0x1F3AB8, size: 0x8, addend: 0x0, symName: __ZN19llm_graph_input_pos9can_reuseERK16llm_graph_params, symObjAddr: 0x3B0, symBinAddr: 0x3B648, symSize: 0x24 }
  - { offset: 0x1F3D73, size: 0x8, addend: 0x0, symName: __ZN25llm_graph_input_attn_temp9set_inputEPK12llama_ubatch, symObjAddr: 0x3D4, symBinAddr: 0x3B66C, symSize: 0x274 }
  - { offset: 0x1F41D3, size: 0x8, addend: 0x0, symName: __ZN26llm_graph_input_pos_bucket9set_inputEPK12llama_ubatch, symObjAddr: 0x648, symBinAddr: 0x3B8E0, symSize: 0x3E0 }
  - { offset: 0x1F430D, size: 0x8, addend: 0x0, symName: __Z30llama_relative_position_bucketiiyb, symObjAddr: 0xA28, symBinAddr: 0x3BCC0, symSize: 0xAC }
  - { offset: 0x1F433C, size: 0x8, addend: 0x0, symName: __Z30llama_relative_position_bucketiiyb, symObjAddr: 0xA28, symBinAddr: 0x3BCC0, symSize: 0xAC }
  - { offset: 0x1F439E, size: 0x8, addend: 0x0, symName: __ZN29llm_graph_input_pos_bucket_kv9set_inputEPK12llama_ubatch, symObjAddr: 0xAD4, symBinAddr: 0x3BD6C, symSize: 0x18 }
  - { offset: 0x1F43D6, size: 0x8, addend: 0x0, symName: __ZN23llm_graph_input_out_ids9set_inputEPK12llama_ubatch, symObjAddr: 0xAEC, symBinAddr: 0x3BD84, symSize: 0x2A4 }
  - { offset: 0x1F449D, size: 0x8, addend: 0x0, symName: __ZN23llm_graph_input_out_ids9can_reuseERK16llm_graph_params, symObjAddr: 0xD90, symBinAddr: 0x3C028, symSize: 0x1C }
  - { offset: 0x1F44B0, size: 0x8, addend: 0x0, symName: __ZN23llm_graph_input_out_ids9can_reuseERK16llm_graph_params, symObjAddr: 0xD90, symBinAddr: 0x3C028, symSize: 0x1C }
  - { offset: 0x1F476B, size: 0x8, addend: 0x0, symName: __ZN20llm_graph_input_mean9set_inputEPK12llama_ubatch, symObjAddr: 0xDAC, symBinAddr: 0x3C044, symSize: 0x590 }
  - { offset: 0x1F4F7A, size: 0x8, addend: 0x0, symName: __ZN19llm_graph_input_cls9set_inputEPK12llama_ubatch, symObjAddr: 0x133C, symBinAddr: 0x3C5D4, symSize: 0x370 }
  - { offset: 0x1F55A6, size: 0x8, addend: 0x0, symName: __ZN18llm_graph_input_rs9set_inputEPK12llama_ubatch, symObjAddr: 0x16AC, symBinAddr: 0x3C944, symSize: 0xA0 }
  - { offset: 0x1F5626, size: 0x8, addend: 0x0, symName: __ZN18llm_graph_input_rs9can_reuseERK16llm_graph_params, symObjAddr: 0x174C, symBinAddr: 0x3C9E4, symSize: 0xB4 }
  - { offset: 0x1F5639, size: 0x8, addend: 0x0, symName: __ZN18llm_graph_input_rs9can_reuseERK16llm_graph_params, symObjAddr: 0x174C, symBinAddr: 0x3C9E4, symSize: 0xB4 }
  - { offset: 0x1F56AF, size: 0x8, addend: 0x0, symName: __ZN26llm_graph_input_cross_embd9set_inputEPK12llama_ubatch, symObjAddr: 0x1800, symBinAddr: 0x3CA98, symSize: 0x54 }
  - { offset: 0x1F573F, size: 0x8, addend: 0x0, symName: __ZN29llm_graph_input_attn_no_cache9set_inputEPK12llama_ubatch, symObjAddr: 0x1854, symBinAddr: 0x3CAEC, symSize: 0x5F0 }
  - { offset: 0x1F5B5C, size: 0x8, addend: 0x0, symName: __ZL10print_maskPKfxxx14llama_swa_type, symObjAddr: 0x1E44, symBinAddr: 0x3D0DC, symSize: 0x20C }
  - { offset: 0x1F5CA8, size: 0x8, addend: 0x0, symName: __ZL10print_maskPKfxxx14llama_swa_type, symObjAddr: 0x1E44, symBinAddr: 0x3D0DC, symSize: 0x20C }
  - { offset: 0x1F5EAF, size: 0x8, addend: 0x0, symName: __ZN23llm_graph_input_attn_kv9set_inputEPK12llama_ubatch, symObjAddr: 0x2050, symBinAddr: 0x3D2E8, symSize: 0x54 }
  - { offset: 0x1F5EE9, size: 0x8, addend: 0x0, symName: __ZN23llm_graph_input_attn_kv9can_reuseERK16llm_graph_params, symObjAddr: 0x20A4, symBinAddr: 0x3D33C, symSize: 0x74 }
  - { offset: 0x1F5F43, size: 0x8, addend: 0x0, symName: __ZN22llm_graph_input_attn_k9set_inputEPK12llama_ubatch, symObjAddr: 0x2118, symBinAddr: 0x3D3B0, symSize: 0x44 }
  - { offset: 0x1F5F7D, size: 0x8, addend: 0x0, symName: __ZN22llm_graph_input_attn_k9can_reuseERK16llm_graph_params, symObjAddr: 0x215C, symBinAddr: 0x3D3F4, symSize: 0x70 }
  - { offset: 0x1F5FD7, size: 0x8, addend: 0x0, symName: __ZN28llm_graph_input_attn_kv_iswa9set_inputEPK12llama_ubatch, symObjAddr: 0x21CC, symBinAddr: 0x3D464, symSize: 0xA8 }
  - { offset: 0x1F6011, size: 0x8, addend: 0x0, symName: __ZN28llm_graph_input_attn_kv_iswa9can_reuseERK16llm_graph_params, symObjAddr: 0x2274, symBinAddr: 0x3D50C, symSize: 0xE0 }
  - { offset: 0x1F6141, size: 0x8, addend: 0x0, symName: __ZN26llm_graph_input_attn_cross9set_inputEPK12llama_ubatch, symObjAddr: 0x2354, symBinAddr: 0x3D5EC, symSize: 0x1E4 }
  - { offset: 0x1F635E, size: 0x8, addend: 0x0, symName: __ZN26llm_graph_input_mem_hybrid9set_inputEPK12llama_ubatch, symObjAddr: 0x2538, symBinAddr: 0x3D7D0, symSize: 0x100 }
  - { offset: 0x1F63A9, size: 0x8, addend: 0x0, symName: __ZN26llm_graph_input_mem_hybrid9set_inputEPK12llama_ubatch, symObjAddr: 0x2538, symBinAddr: 0x3D7D0, symSize: 0x100 }
  - { offset: 0x1F64AB, size: 0x8, addend: 0x0, symName: __ZN26llm_graph_input_mem_hybrid9can_reuseERK16llm_graph_params, symObjAddr: 0x2638, symBinAddr: 0x3D8D0, symSize: 0x13C }
  - { offset: 0x1F64BE, size: 0x8, addend: 0x0, symName: __ZN26llm_graph_input_mem_hybrid9can_reuseERK16llm_graph_params, symObjAddr: 0x2638, symBinAddr: 0x3D8D0, symSize: 0x13C }
  - { offset: 0x1F65CF, size: 0x8, addend: 0x0, symName: __ZN31llm_graph_input_mem_hybrid_iswa9set_inputEPK12llama_ubatch, symObjAddr: 0x2774, symBinAddr: 0x3DA0C, symSize: 0x180 }
  - { offset: 0x1F6772, size: 0x8, addend: 0x0, symName: __ZN31llm_graph_input_mem_hybrid_iswa9can_reuseERK16llm_graph_params, symObjAddr: 0x28F4, symBinAddr: 0x3DB8C, symSize: 0x190 }
  - { offset: 0x1F6785, size: 0x8, addend: 0x0, symName: __ZN31llm_graph_input_mem_hybrid_iswa9can_reuseERK16llm_graph_params, symObjAddr: 0x28F4, symBinAddr: 0x3DB8C, symSize: 0x190 }
  - { offset: 0x1F71EF, size: 0x8, addend: 0x0, symName: __ZN24llm_graph_input_sampling9set_inputEPK12llama_ubatch, symObjAddr: 0x2A84, symBinAddr: 0x3DD1C, symSize: 0x200 }
  - { offset: 0x1F7A96, size: 0x8, addend: 0x0, symName: __ZNSt3__112__hash_tableIiNS_4hashIiEENS_8equal_toIiEENS_9allocatorIiEEE25__emplace_unique_key_argsIiJRKiEEENS_4pairINS_15__hash_iteratorIPNS_11__hash_nodeIiPvEEEEbEERKT_DpOT0_, symObjAddr: 0xAC98, symBinAddr: 0x45BB8, symSize: 0x324 }
  - { offset: 0x1F8106, size: 0x8, addend: 0x0, symName: __ZNSt3__113unordered_setIiNS_4hashIiEENS_8equal_toIiEENS_9allocatorIiEEED1B8ne200100Ev, symObjAddr: 0x2C84, symBinAddr: 0x3DF1C, symSize: 0x48 }
  - { offset: 0x1F845B, size: 0x8, addend: 0x0, symName: __ZN24llm_graph_input_sampling9can_reuseERK16llm_graph_params, symObjAddr: 0x2CCC, symBinAddr: 0x3DF64, symSize: 0x150 }
  - { offset: 0x1F8497, size: 0x8, addend: 0x0, symName: __ZN24llm_graph_input_sampling9can_reuseERK16llm_graph_params, symObjAddr: 0x2CCC, symBinAddr: 0x3DF64, symSize: 0x150 }
  - { offset: 0x1F8D7B, size: 0x8, addend: 0x0, symName: __ZN16llm_graph_resultC2Ex, symObjAddr: 0x2E1C, symBinAddr: 0x3E0B4, symSize: 0x268 }
  - { offset: 0x1F955B, size: 0x8, addend: 0x0, symName: __ZN16llm_graph_result5resetEv, symObjAddr: 0x3084, symBinAddr: 0x3E31C, symSize: 0x5A4 }
  - { offset: 0x1FA3F2, size: 0x8, addend: 0x0, symName: __ZNSt3__16vectorINS_10unique_ptrI17llm_graph_input_iNS_14default_deleteIS2_EEEENS_9allocatorIS5_EEED1B8ne200100Ev, symObjAddr: 0x36FC, symBinAddr: 0x3E8C0, symSize: 0x74 }
  - { offset: 0x1FA612, size: 0x8, addend: 0x0, symName: __ZNSt3__16__treeINS_12__value_typeIiP11ggml_tensorEENS_19__map_value_compareIiS4_NS_4lessIiEELb1EEENS_9allocatorIS4_EEE7destroyEPNS_11__tree_nodeIS4_PvEE, symObjAddr: 0xB13C, symBinAddr: 0x4605C, symSize: 0x44 }
  - { offset: 0x1FB1F5, size: 0x8, addend: 0x0, symName: __ZNSt3__16vectorINS_10unique_ptrI17llm_graph_input_iNS_14default_deleteIS2_EEEENS_9allocatorIS5_EEE20__throw_length_errorB8ne200100Ev, symObjAddr: 0xB194, symBinAddr: 0x460A0, symSize: 0x14 }
  - { offset: 0x1FB2AE, size: 0x8, addend: 0x0, symName: __ZN16llm_graph_resultC1Ex, symObjAddr: 0x3770, symBinAddr: 0x3E934, symSize: 0x4 }
  - { offset: 0x1FB2EB, size: 0x8, addend: 0x0, symName: __ZN16llm_graph_resultC1Ex, symObjAddr: 0x3770, symBinAddr: 0x3E934, symSize: 0x4 }
  - { offset: 0x1FB305, size: 0x8, addend: 0x0, symName: __ZNK16llm_graph_result13get_max_nodesEv, symObjAddr: 0x3774, symBinAddr: 0x3E938, symSize: 0x8 }
  - { offset: 0x1FB35B, size: 0x8, addend: 0x0, symName: __ZN16llm_graph_result10set_inputsEPK12llama_ubatch, symObjAddr: 0x377C, symBinAddr: 0x3E940, symSize: 0x4C }
  - { offset: 0x1FB4E3, size: 0x8, addend: 0x0, symName: __ZN16llm_graph_result11set_outputsEv, symObjAddr: 0x37C8, symBinAddr: 0x3E98C, symSize: 0x1A8 }
  - { offset: 0x1FBB7C, size: 0x8, addend: 0x0, symName: __ZN16llm_graph_result9can_reuseERK16llm_graph_params, symObjAddr: 0x3970, symBinAddr: 0x3EB34, symSize: 0x150 }
  - { offset: 0x1FBD14, size: 0x8, addend: 0x0, symName: __ZNK16llm_graph_params11allow_reuseERKS_, symObjAddr: 0x3AC0, symBinAddr: 0x3EC84, symSize: 0x3A8 }
  - { offset: 0x1FC63E, size: 0x8, addend: 0x0, symName: __ZN16llm_graph_result9add_inputENSt3__110unique_ptrI17llm_graph_input_iNS0_14default_deleteIS2_EEEE, symObjAddr: 0x3E68, symBinAddr: 0x3F02C, symSize: 0xF8 }
  - { offset: 0x1FCB44, size: 0x8, addend: 0x0, symName: __ZN16llm_graph_result10set_paramsERK16llm_graph_params, symObjAddr: 0x3F60, symBinAddr: 0x3F124, symSize: 0x8 }
  - { offset: 0x1FCB4F, size: 0x8, addend: 0x0, symName: __ZNSt3__16vectorINS_10unique_ptrI17llm_graph_input_iNS_14default_deleteIS2_EEEENS_9allocatorIS5_EEE20__throw_length_errorB8ne200100Ev, symObjAddr: 0xB194, symBinAddr: 0x460A0, symSize: 0x14 }
  - { offset: 0x1FCB72, size: 0x8, addend: 0x0, symName: __ZN16llm_graph_result10set_paramsERK16llm_graph_params, symObjAddr: 0x3F60, symBinAddr: 0x3F124, symSize: 0x8 }
  - { offset: 0x1FCBB1, size: 0x8, addend: 0x0, symName: __ZN16llm_graph_paramsaSERKS_, symObjAddr: 0x3F68, symBinAddr: 0x3F12C, symSize: 0x1C8 }
  - { offset: 0x1FD1D7, size: 0x8, addend: 0x0, symName: __ZNSt3__16__treeINS_12__value_typeIiP13llama_samplerEENS_19__map_value_compareIiS4_NS_4lessIiEELb1EEENS_9allocatorIS4_EEE14__assign_multiINS_21__tree_const_iteratorIS4_PNS_11__tree_nodeIS4_PvEElEEEEvT_SJ_, symObjAddr: 0xA53C, symBinAddr: 0x456AC, symSize: 0x328 }
  - { offset: 0x1FD856, size: 0x8, addend: 0x0, symName: __ZNSt3__110__function12__value_funcIFvRK12llama_ubatchP11ggml_tensorPKciEE4swapB8ne200100ERSA_, symObjAddr: 0xAA38, symBinAddr: 0x459D4, symSize: 0x1A0 }
  - { offset: 0x1FE3EA, size: 0x8, addend: 0x0, symName: __ZN17llm_graph_contextC2ERK16llm_graph_params, symObjAddr: 0x4130, symBinAddr: 0x3F2F4, symSize: 0x1DC }
  - { offset: 0x1FE876, size: 0x8, addend: 0x0, symName: __ZN17llm_graph_contextC1ERK16llm_graph_params, symObjAddr: 0x430C, symBinAddr: 0x3F4D0, symSize: 0x4 }
  - { offset: 0x1FE8B3, size: 0x8, addend: 0x0, symName: __ZN17llm_graph_contextC1ERK16llm_graph_params, symObjAddr: 0x430C, symBinAddr: 0x3F4D0, symSize: 0x4 }
  - { offset: 0x1FE993, size: 0x8, addend: 0x0, symName: __ZNK17llm_graph_context2cbEP11ggml_tensorPKci, symObjAddr: 0x4310, symBinAddr: 0x3F4D4, symSize: 0x54 }
  - { offset: 0x1FEA9A, size: 0x8, addend: 0x0, symName: __ZNK17llm_graph_context10build_cvecEP11ggml_tensori, symObjAddr: 0x4364, symBinAddr: 0x3F528, symSize: 0x18 }
  - { offset: 0x1FEB2C, size: 0x8, addend: 0x0, symName: __ZNK17llm_graph_context13build_lora_mmEP11ggml_tensorS1_, symObjAddr: 0x437C, symBinAddr: 0x3F540, symSize: 0xEC }
  - { offset: 0x1FED13, size: 0x8, addend: 0x0, symName: __ZNK17llm_graph_context16build_lora_mm_idEP11ggml_tensorS1_S1_, symObjAddr: 0x4468, symBinAddr: 0x3F62C, symSize: 0x100 }
  - { offset: 0x1FEF03, size: 0x8, addend: 0x0, symName: __ZNK17llm_graph_context10build_normEP11ggml_tensorS1_S1_13llm_norm_typei, symObjAddr: 0x4568, symBinAddr: 0x3F72C, symSize: 0x180 }
  - { offset: 0x1FF2B2, size: 0x8, addend: 0x0, symName: __ZNK17llm_graph_context9build_ffnEP11ggml_tensorS1_S1_S1_S1_S1_S1_S1_S1_S1_S1_15llm_ffn_op_type17llm_ffn_gate_typei, symObjAddr: 0x46E8, symBinAddr: 0x3F8AC, symSize: 0x6BC }
  - { offset: 0x2003DE, size: 0x8, addend: 0x0, symName: __ZNK17llm_graph_context13build_moe_ffnEP11ggml_tensorS1_S1_S1_S1_S1_xx15llm_ffn_op_typebbf29llama_expert_gating_func_typeiS1_, symObjAddr: 0x4DA4, symBinAddr: 0x3FF68, symSize: 0x6C }
  - { offset: 0x200520, size: 0x8, addend: 0x0, symName: __ZNK17llm_graph_context13build_moe_ffnEP11ggml_tensorS1_S1_S1_S1_S1_xx15llm_ffn_op_typebbf29llama_expert_gating_func_typeiS1_, symObjAddr: 0x4DA4, symBinAddr: 0x3FF68, symSize: 0x6C }
  - { offset: 0x20067E, size: 0x8, addend: 0x0, symName: __ZNK17llm_graph_context13build_moe_ffnEP11ggml_tensorS1_S1_S1_S1_S1_S1_S1_S1_S1_xx15llm_ffn_op_typebbf29llama_expert_gating_func_typeiS1_, symObjAddr: 0x4E10, symBinAddr: 0x3FFD4, symSize: 0xE1C }
  - { offset: 0x202A3A, size: 0x8, addend: 0x0, symName: __ZNK17llm_graph_context14build_inp_embdEP11ggml_tensor, symObjAddr: 0x5C2C, symBinAddr: 0x40DF0, symSize: 0x410 }
  - { offset: 0x202CE6, size: 0x8, addend: 0x0, symName: __ZNK17llm_graph_context14build_inp_embdEP11ggml_tensor, symObjAddr: 0x5C2C, symBinAddr: 0x40DF0, symSize: 0x410 }
  - { offset: 0x203869, size: 0x8, addend: 0x0, symName: __ZNK17llm_graph_context13build_inp_posEv, symObjAddr: 0x603C, symBinAddr: 0x41200, symSize: 0x17C }
  - { offset: 0x203E51, size: 0x8, addend: 0x0, symName: __ZNK17llm_graph_context20build_inp_attn_scaleEv, symObjAddr: 0x61B8, symBinAddr: 0x4137C, symSize: 0x180 }
  - { offset: 0x204485, size: 0x8, addend: 0x0, symName: __ZNK17llm_graph_context17build_inp_out_idsEv, symObjAddr: 0x6338, symBinAddr: 0x414FC, symSize: 0x19C }
  - { offset: 0x204A4F, size: 0x8, addend: 0x0, symName: __ZNK17llm_graph_context14build_inp_meanEv, symObjAddr: 0x64D4, symBinAddr: 0x41698, symSize: 0x188 }
  - { offset: 0x205009, size: 0x8, addend: 0x0, symName: __ZNK17llm_graph_context13build_inp_clsEv, symObjAddr: 0x665C, symBinAddr: 0x41820, symSize: 0x18C }
  - { offset: 0x2055C2, size: 0x8, addend: 0x0, symName: __ZNK17llm_graph_context20build_inp_cross_embdEv, symObjAddr: 0x67E8, symBinAddr: 0x419AC, symSize: 0x1A0 }
  - { offset: 0x205BC5, size: 0x8, addend: 0x0, symName: __ZNK17llm_graph_context24build_inp_pos_bucket_encEv, symObjAddr: 0x6988, symBinAddr: 0x41B4C, symSize: 0x170 }
  - { offset: 0x206190, size: 0x8, addend: 0x0, symName: __ZNK17llm_graph_context24build_inp_pos_bucket_decEv, symObjAddr: 0x6AF8, symBinAddr: 0x41CBC, symSize: 0x1A4 }
  - { offset: 0x206736, size: 0x8, addend: 0x0, symName: __ZNK17llm_graph_context14build_pos_biasEP11ggml_tensorS1_, symObjAddr: 0x6C9C, symBinAddr: 0x41E60, symSize: 0x118 }
  - { offset: 0x206A40, size: 0x8, addend: 0x0, symName: __ZNK17llm_graph_context14build_attn_mhaEP11ggml_tensorS1_S1_S1_S1_S1_S1_fi, symObjAddr: 0x6DB4, symBinAddr: 0x41F78, symSize: 0x6FC }
  - { offset: 0x207CB2, size: 0x8, addend: 0x0, symName: __ZNK17llm_graph_context23build_attn_inp_no_cacheEv, symObjAddr: 0x74B0, symBinAddr: 0x42674, symSize: 0x254 }
  - { offset: 0x2082AF, size: 0x8, addend: 0x0, symName: __ZNK17llm_graph_context10build_attnEP29llm_graph_input_attn_no_cacheP11ggml_tensorS3_S3_S3_S3_S3_S3_S3_fi, symObjAddr: 0x7704, symBinAddr: 0x428C8, symSize: 0x150 }
  - { offset: 0x20861A, size: 0x8, addend: 0x0, symName: __ZNK17llm_graph_context17build_attn_inp_kvEv, symObjAddr: 0x7854, symBinAddr: 0x42A18, symSize: 0x134 }
  - { offset: 0x208BB3, size: 0x8, addend: 0x0, symName: __ZL22build_attn_inp_kv_implP12ggml_contextRK12llama_ubatchRK13llama_hparamsRK13llama_cparamsPK22llama_kv_cache_context, symObjAddr: 0x7988, symBinAddr: 0x42B4C, symSize: 0x1C0 }
  - { offset: 0x208FE3, size: 0x8, addend: 0x0, symName: __ZNK17llm_graph_context10build_attnEP23llm_graph_input_attn_kvP11ggml_tensorS3_S3_S3_S3_S3_S3_S3_fi, symObjAddr: 0x7B48, symBinAddr: 0x42D0C, symSize: 0x1EC }
  - { offset: 0x209350, size: 0x8, addend: 0x0, symName: __ZNK17llm_graph_context16build_attn_inp_kEv, symObjAddr: 0x7D34, symBinAddr: 0x42EF8, symSize: 0x25C }
  - { offset: 0x209460, size: 0x8, addend: 0x0, symName: __ZNK17llm_graph_context16build_attn_inp_kEv, symObjAddr: 0x7D34, symBinAddr: 0x42EF8, symSize: 0x25C }
  - { offset: 0x209AB8, size: 0x8, addend: 0x0, symName: __ZNK17llm_graph_context10build_attnEP22llm_graph_input_attn_kP11ggml_tensorS3_S3_S3_S3_S3_S3_S3_fi, symObjAddr: 0x7F90, symBinAddr: 0x43154, symSize: 0x1B0 }
  - { offset: 0x209E1F, size: 0x8, addend: 0x0, symName: __ZNK17llm_graph_context10build_attnEP28llm_graph_input_attn_kv_iswaP11ggml_tensorS3_S3_S3_S3_S3_S3_S3_fi, symObjAddr: 0x8140, symBinAddr: 0x43304, symSize: 0x274 }
  - { offset: 0x20A1AD, size: 0x8, addend: 0x0, symName: __ZNK17llm_graph_context20build_attn_inp_crossEv, symObjAddr: 0x83B4, symBinAddr: 0x43578, symSize: 0x1C8 }
  - { offset: 0x20A79C, size: 0x8, addend: 0x0, symName: __ZNK17llm_graph_context10build_attnEP26llm_graph_input_attn_crossP11ggml_tensorS3_S3_S3_S3_S3_S3_S3_fi, symObjAddr: 0x857C, symBinAddr: 0x43740, symSize: 0x134 }
  - { offset: 0x20AAF8, size: 0x8, addend: 0x0, symName: __ZNK17llm_graph_context22build_attn_inp_kv_iswaEv, symObjAddr: 0x86B0, symBinAddr: 0x43874, symSize: 0x350 }
  - { offset: 0x20B218, size: 0x8, addend: 0x0, symName: __ZNK17llm_graph_context8build_rsEP11ggml_tensorS1_S1_iijjjiRKNSt3__18functionIFS1_P12ggml_contextS1_S1_EEE, symObjAddr: 0x8A00, symBinAddr: 0x43BC4, symSize: 0x168 }
  - { offset: 0x20B480, size: 0x8, addend: 0x0, symName: __ZNK17llm_graph_context12build_rs_inpEv, symObjAddr: 0x8B68, symBinAddr: 0x43D2C, symSize: 0x130 }
  - { offset: 0x20B581, size: 0x8, addend: 0x0, symName: __ZNK17llm_graph_context12build_rs_inpEv, symObjAddr: 0x8B68, symBinAddr: 0x43D2C, symSize: 0x130 }
  - { offset: 0x20BB1A, size: 0x8, addend: 0x0, symName: __ZL17build_rs_inp_implP12ggml_contextRK12llama_ubatchPK30llama_memory_recurrent_context, symObjAddr: 0x8C98, symBinAddr: 0x43E5C, symSize: 0x108 }
  - { offset: 0x20BEAE, size: 0x8, addend: 0x0, symName: __ZNK17llm_graph_context8build_rsEP18llm_graph_input_rsP11ggml_tensoriiRKNSt3__18functionIFS3_P12ggml_contextS3_S3_EEE, symObjAddr: 0x8DA0, symBinAddr: 0x43F64, symSize: 0xB4 }
  - { offset: 0x20C249, size: 0x8, addend: 0x0, symName: __ZNK17llm_graph_context27build_rwkv_token_shift_loadEP18llm_graph_input_rsRK12llama_ubatchi, symObjAddr: 0x8E54, symBinAddr: 0x44018, symSize: 0x1C8 }
  - { offset: 0x20C5DB, size: 0x8, addend: 0x0, symName: __ZNK17llm_graph_context28build_rwkv_token_shift_storeEP11ggml_tensorRK12llama_ubatchi, symObjAddr: 0x901C, symBinAddr: 0x441E0, symSize: 0xE0 }
  - { offset: 0x20C806, size: 0x8, addend: 0x0, symName: __ZNK17llm_graph_context20build_inp_mem_hybridEv, symObjAddr: 0x90FC, symBinAddr: 0x442C0, symSize: 0x21C }
  - { offset: 0x20D1D6, size: 0x8, addend: 0x0, symName: __ZNK17llm_graph_context25build_inp_mem_hybrid_iswaEv, symObjAddr: 0x9318, symBinAddr: 0x444DC, symSize: 0x3AC }
  - { offset: 0x20DB5A, size: 0x8, addend: 0x0, symName: __ZNK17llm_graph_context15build_dense_outEP11ggml_tensorS1_, symObjAddr: 0x96C4, symBinAddr: 0x44888, symSize: 0x114 }
  - { offset: 0x20DCE3, size: 0x8, addend: 0x0, symName: __ZNK17llm_graph_context13build_poolingEP11ggml_tensorS1_S1_S1_, symObjAddr: 0x97D8, symBinAddr: 0x4499C, symSize: 0x210 }
  - { offset: 0x20DCF6, size: 0x8, addend: 0x0, symName: __ZNK17llm_graph_context13build_poolingEP11ggml_tensorS1_S1_S1_, symObjAddr: 0x97D8, symBinAddr: 0x4499C, symSize: 0x210 }
  - { offset: 0x20E029, size: 0x8, addend: 0x0, symName: __ZNK17llm_graph_context14build_samplingEv, symObjAddr: 0x99E8, symBinAddr: 0x44BAC, symSize: 0x71C }
  - { offset: 0x20EB9B, size: 0x8, addend: 0x0, symName: __ZNK17llm_graph_context14build_samplingEv, symObjAddr: 0x99E8, symBinAddr: 0x44BAC, symSize: 0x71C }
  - { offset: 0x210731, size: 0x8, addend: 0x0, symName: __ZNSt3__16__treeINS_12__value_typeIiiEENS_19__map_value_compareIiS2_NS_4lessIiEELb1EEENS_9allocatorIS2_EEE7destroyEPNS_11__tree_nodeIS2_PvEE, symObjAddr: 0xABE0, symBinAddr: 0x45B74, symSize: 0x44 }
  - { offset: 0x210990, size: 0x8, addend: 0x0, symName: __ZN20llm_graph_input_embdD1Ev, symObjAddr: 0xA1F8, symBinAddr: 0x453BC, symSize: 0x4 }
  - { offset: 0x2109B9, size: 0x8, addend: 0x0, symName: __ZN20llm_graph_input_embdD0Ev, symObjAddr: 0xA1FC, symBinAddr: 0x453C0, symSize: 0x4 }
  - { offset: 0x2109E2, size: 0x8, addend: 0x0, symName: __ZN19llm_graph_input_posD1Ev, symObjAddr: 0xA200, symBinAddr: 0x453C4, symSize: 0x4 }
  - { offset: 0x210A0B, size: 0x8, addend: 0x0, symName: __ZN19llm_graph_input_posD0Ev, symObjAddr: 0xA204, symBinAddr: 0x453C8, symSize: 0x4 }
  - { offset: 0x210A34, size: 0x8, addend: 0x0, symName: __ZN25llm_graph_input_attn_tempD1Ev, symObjAddr: 0xA208, symBinAddr: 0x453CC, symSize: 0x4 }
  - { offset: 0x210A5D, size: 0x8, addend: 0x0, symName: __ZN25llm_graph_input_attn_tempD0Ev, symObjAddr: 0xA20C, symBinAddr: 0x453D0, symSize: 0x4 }
  - { offset: 0x210A86, size: 0x8, addend: 0x0, symName: __ZN17llm_graph_input_i9can_reuseERK16llm_graph_params, symObjAddr: 0xA210, symBinAddr: 0x453D4, symSize: 0x8 }
  - { offset: 0x210ABB, size: 0x8, addend: 0x0, symName: __ZN26llm_graph_input_pos_bucketD1Ev, symObjAddr: 0xA218, symBinAddr: 0x453DC, symSize: 0x4 }
  - { offset: 0x210AE4, size: 0x8, addend: 0x0, symName: __ZN26llm_graph_input_pos_bucketD0Ev, symObjAddr: 0xA21C, symBinAddr: 0x453E0, symSize: 0x4 }
  - { offset: 0x210B0D, size: 0x8, addend: 0x0, symName: __ZN29llm_graph_input_pos_bucket_kvD1Ev, symObjAddr: 0xA220, symBinAddr: 0x453E4, symSize: 0x4 }
  - { offset: 0x210B36, size: 0x8, addend: 0x0, symName: __ZN29llm_graph_input_pos_bucket_kvD0Ev, symObjAddr: 0xA224, symBinAddr: 0x453E8, symSize: 0x4 }
  - { offset: 0x210B5F, size: 0x8, addend: 0x0, symName: __ZN23llm_graph_input_out_idsD1Ev, symObjAddr: 0xA228, symBinAddr: 0x453EC, symSize: 0x4 }
  - { offset: 0x210B88, size: 0x8, addend: 0x0, symName: __ZN23llm_graph_input_out_idsD0Ev, symObjAddr: 0xA22C, symBinAddr: 0x453F0, symSize: 0x4 }
  - { offset: 0x210BB1, size: 0x8, addend: 0x0, symName: __ZN20llm_graph_input_meanD1Ev, symObjAddr: 0xA230, symBinAddr: 0x453F4, symSize: 0x4 }
  - { offset: 0x210BDA, size: 0x8, addend: 0x0, symName: __ZN20llm_graph_input_meanD0Ev, symObjAddr: 0xA234, symBinAddr: 0x453F8, symSize: 0x4 }
  - { offset: 0x210C03, size: 0x8, addend: 0x0, symName: __ZN19llm_graph_input_clsD1Ev, symObjAddr: 0xA238, symBinAddr: 0x453FC, symSize: 0x4 }
  - { offset: 0x210C2C, size: 0x8, addend: 0x0, symName: __ZN19llm_graph_input_clsD0Ev, symObjAddr: 0xA23C, symBinAddr: 0x45400, symSize: 0x4 }
  - { offset: 0x210C55, size: 0x8, addend: 0x0, symName: __ZN18llm_graph_input_rsD1Ev, symObjAddr: 0xA240, symBinAddr: 0x45404, symSize: 0x4 }
  - { offset: 0x210C7E, size: 0x8, addend: 0x0, symName: __ZN18llm_graph_input_rsD0Ev, symObjAddr: 0xA244, symBinAddr: 0x45408, symSize: 0x4 }
  - { offset: 0x210CA7, size: 0x8, addend: 0x0, symName: __ZN26llm_graph_input_cross_embdD1Ev, symObjAddr: 0xA248, symBinAddr: 0x4540C, symSize: 0x4 }
  - { offset: 0x210CD0, size: 0x8, addend: 0x0, symName: __ZN26llm_graph_input_cross_embdD0Ev, symObjAddr: 0xA24C, symBinAddr: 0x45410, symSize: 0x4 }
  - { offset: 0x210CF9, size: 0x8, addend: 0x0, symName: __ZN29llm_graph_input_attn_no_cacheD1Ev, symObjAddr: 0xA250, symBinAddr: 0x45414, symSize: 0x4 }
  - { offset: 0x210D22, size: 0x8, addend: 0x0, symName: __ZN29llm_graph_input_attn_no_cacheD0Ev, symObjAddr: 0xA254, symBinAddr: 0x45418, symSize: 0x4 }
  - { offset: 0x210D4B, size: 0x8, addend: 0x0, symName: __ZN23llm_graph_input_attn_kvD1Ev, symObjAddr: 0xA258, symBinAddr: 0x4541C, symSize: 0x4 }
  - { offset: 0x210D74, size: 0x8, addend: 0x0, symName: __ZN23llm_graph_input_attn_kvD0Ev, symObjAddr: 0xA25C, symBinAddr: 0x45420, symSize: 0x4 }
  - { offset: 0x210D9D, size: 0x8, addend: 0x0, symName: __ZN22llm_graph_input_attn_kD1Ev, symObjAddr: 0xA260, symBinAddr: 0x45424, symSize: 0x4 }
  - { offset: 0x210DC6, size: 0x8, addend: 0x0, symName: __ZN22llm_graph_input_attn_kD0Ev, symObjAddr: 0xA264, symBinAddr: 0x45428, symSize: 0x4 }
  - { offset: 0x210DEF, size: 0x8, addend: 0x0, symName: __ZN28llm_graph_input_attn_kv_iswaD1Ev, symObjAddr: 0xA268, symBinAddr: 0x4542C, symSize: 0x4 }
  - { offset: 0x210E18, size: 0x8, addend: 0x0, symName: __ZN28llm_graph_input_attn_kv_iswaD0Ev, symObjAddr: 0xA26C, symBinAddr: 0x45430, symSize: 0x4 }
  - { offset: 0x210E41, size: 0x8, addend: 0x0, symName: __ZN26llm_graph_input_attn_crossD1Ev, symObjAddr: 0xA270, symBinAddr: 0x45434, symSize: 0x4 }
  - { offset: 0x210E6A, size: 0x8, addend: 0x0, symName: __ZN26llm_graph_input_attn_crossD0Ev, symObjAddr: 0xA274, symBinAddr: 0x45438, symSize: 0x4 }
  - { offset: 0x210EAD, size: 0x8, addend: 0x0, symName: __ZN26llm_graph_input_mem_hybridD1Ev, symObjAddr: 0xA278, symBinAddr: 0x4543C, symSize: 0x5C }
  - { offset: 0x211044, size: 0x8, addend: 0x0, symName: __ZN26llm_graph_input_mem_hybridD0Ev, symObjAddr: 0xA2D4, symBinAddr: 0x45498, symSize: 0x5C }
  - { offset: 0x211201, size: 0x8, addend: 0x0, symName: __ZN31llm_graph_input_mem_hybrid_iswaD1Ev, symObjAddr: 0xA330, symBinAddr: 0x454F4, symSize: 0x5C }
  - { offset: 0x211398, size: 0x8, addend: 0x0, symName: __ZN31llm_graph_input_mem_hybrid_iswaD0Ev, symObjAddr: 0xA38C, symBinAddr: 0x45550, symSize: 0x5C }
  - { offset: 0x211555, size: 0x8, addend: 0x0, symName: __ZN24llm_graph_input_samplingD1Ev, symObjAddr: 0xA3E8, symBinAddr: 0x455AC, symSize: 0x38 }
  - { offset: 0x211609, size: 0x8, addend: 0x0, symName: __ZN24llm_graph_input_samplingD0Ev, symObjAddr: 0xA420, symBinAddr: 0x455E4, symSize: 0x38 }
  - { offset: 0x2116C9, size: 0x8, addend: 0x0, symName: __ZN16llm_graph_resultD1Ev, symObjAddr: 0xA458, symBinAddr: 0x4561C, symSize: 0x4 }
  - { offset: 0x2116EC, size: 0x8, addend: 0x0, symName: __ZN16llm_graph_resultD1Ev, symObjAddr: 0xA458, symBinAddr: 0x4561C, symSize: 0x4 }
  - { offset: 0x2116FF, size: 0x8, addend: 0x0, symName: __ZN16llm_graph_resultD2Ev, symObjAddr: 0xB578, symBinAddr: 0x461DC, symSize: 0x148 }
  - { offset: 0x211E9A, size: 0x8, addend: 0x0, symName: __ZN16llm_graph_resultD0Ev, symObjAddr: 0xA45C, symBinAddr: 0x45620, symSize: 0x14 }
  - { offset: 0x211F15, size: 0x8, addend: 0x0, symName: __ZN17llm_graph_contextD1Ev, symObjAddr: 0xA470, symBinAddr: 0x45634, symSize: 0x3C }
  - { offset: 0x211FC9, size: 0x8, addend: 0x0, symName: __ZN17llm_graph_contextD0Ev, symObjAddr: 0xA4AC, symBinAddr: 0x45670, symSize: 0x3C }
  - { offset: 0x212438, size: 0x8, addend: 0x0, symName: __ZN17llm_graph_input_iD1Ev, symObjAddr: 0xABD8, symBinAddr: 0x260464, symSize: 0x4 }
  - { offset: 0x212461, size: 0x8, addend: 0x0, symName: __ZN17llm_graph_input_iD0Ev, symObjAddr: 0xABDC, symBinAddr: 0x260468, symSize: 0x4 }
  - { offset: 0x21288D, size: 0x8, addend: 0x0, symName: __ZNSt3__112__hash_tableIiNS_4hashIiEENS_8equal_toIiEENS_9allocatorIiEEE11__do_rehashILb1EEEvm, symObjAddr: 0xAFBC, symBinAddr: 0x45EDC, symSize: 0x180 }
  - { offset: 0x212C1A, size: 0x8, addend: 0x0, symName: __ZNSt3__16__treeINS_12__value_typeIiP11ggml_tensorEENS_19__map_value_compareIiS4_NS_4lessIiEELb1EEENS_9allocatorIS4_EEE7destroyEPNS_11__tree_nodeIS4_PvEE, symObjAddr: 0xB13C, symBinAddr: 0x4605C, symSize: 0x44 }
  - { offset: 0x21313B, size: 0x8, addend: 0x0, symName: __ZNSt3__110__function6__funcIPFP11ggml_tensorP12ggml_contextS3_S3_ENS_9allocatorIS7_EES6_ED1Ev, symObjAddr: 0xB484, symBinAddr: 0x460E8, symSize: 0x4 }
  - { offset: 0x213167, size: 0x8, addend: 0x0, symName: __ZNSt3__110__function6__funcIPFP11ggml_tensorP12ggml_contextS3_S3_ENS_9allocatorIS7_EES6_ED0Ev, symObjAddr: 0xB488, symBinAddr: 0x460EC, symSize: 0x4 }
  - { offset: 0x21327E, size: 0x8, addend: 0x0, symName: __ZNKSt3__110__function6__funcIPFP11ggml_tensorP12ggml_contextS3_S3_ENS_9allocatorIS7_EES6_E7__cloneEv, symObjAddr: 0xB48C, symBinAddr: 0x460F0, symSize: 0x38 }
  - { offset: 0x21347F, size: 0x8, addend: 0x0, symName: __ZNKSt3__110__function6__funcIPFP11ggml_tensorP12ggml_contextS3_S3_ENS_9allocatorIS7_EES6_E7__cloneEPNS0_6__baseIS6_EE, symObjAddr: 0xB4C4, symBinAddr: 0x46128, symSize: 0x18 }
  - { offset: 0x2134B4, size: 0x8, addend: 0x0, symName: __ZNKSt3__110__function6__funcIPFP11ggml_tensorP12ggml_contextS3_S3_ENS_9allocatorIS7_EES6_E7__cloneEPNS0_6__baseIS6_EE, symObjAddr: 0xB4C4, symBinAddr: 0x46128, symSize: 0x18 }
  - { offset: 0x2134E2, size: 0x8, addend: 0x0, symName: __ZNKSt3__110__function6__funcIPFP11ggml_tensorP12ggml_contextS3_S3_ENS_9allocatorIS7_EES6_E7__cloneEPNS0_6__baseIS6_EE, symObjAddr: 0xB4C4, symBinAddr: 0x46128, symSize: 0x18 }
  - { offset: 0x21353B, size: 0x8, addend: 0x0, symName: __ZNSt3__110__function6__funcIPFP11ggml_tensorP12ggml_contextS3_S3_ENS_9allocatorIS7_EES6_E7destroyEv, symObjAddr: 0xB4DC, symBinAddr: 0x46140, symSize: 0x4 }
  - { offset: 0x213592, size: 0x8, addend: 0x0, symName: __ZNSt3__110__function6__funcIPFP11ggml_tensorP12ggml_contextS3_S3_ENS_9allocatorIS7_EES6_E18destroy_deallocateEv, symObjAddr: 0xB4E0, symBinAddr: 0x46144, symSize: 0x4 }
  - { offset: 0x2135C7, size: 0x8, addend: 0x0, symName: __ZNSt3__110__function6__funcIPFP11ggml_tensorP12ggml_contextS3_S3_ENS_9allocatorIS7_EES6_E18destroy_deallocateEv, symObjAddr: 0xB4E0, symBinAddr: 0x46144, symSize: 0x4 }
  - { offset: 0x2135EA, size: 0x8, addend: 0x0, symName: __ZNSt3__110__function6__funcIPFP11ggml_tensorP12ggml_contextS3_S3_ENS_9allocatorIS7_EES6_E18destroy_deallocateEv, symObjAddr: 0xB4E0, symBinAddr: 0x46144, symSize: 0x4 }
  - { offset: 0x21361D, size: 0x8, addend: 0x0, symName: __ZNSt3__110__function6__funcIPFP11ggml_tensorP12ggml_contextS3_S3_ENS_9allocatorIS7_EES6_E18destroy_deallocateEv, symObjAddr: 0xB4E0, symBinAddr: 0x46144, symSize: 0x4 }
  - { offset: 0x2136CA, size: 0x8, addend: 0x0, symName: __ZNSt3__110__function6__funcIPFP11ggml_tensorP12ggml_contextS3_S3_ENS_9allocatorIS7_EES6_EclEOS5_OS3_SC_, symObjAddr: 0xB4E4, symBinAddr: 0x46148, symSize: 0x14 }
  - { offset: 0x213721, size: 0x8, addend: 0x0, symName: __ZNSt3__110__function6__funcIPFP11ggml_tensorP12ggml_contextS3_S3_ENS_9allocatorIS7_EES6_EclEOS5_OS3_SC_, symObjAddr: 0xB4E4, symBinAddr: 0x46148, symSize: 0x14 }
  - { offset: 0x213758, size: 0x8, addend: 0x0, symName: __ZNSt3__110__function6__funcIPFP11ggml_tensorP12ggml_contextS3_S3_ENS_9allocatorIS7_EES6_EclEOS5_OS3_SC_, symObjAddr: 0xB4E4, symBinAddr: 0x46148, symSize: 0x14 }
  - { offset: 0x21378E, size: 0x8, addend: 0x0, symName: __ZNSt3__110__function6__funcIPFP11ggml_tensorP12ggml_contextS3_S3_ENS_9allocatorIS7_EES6_EclEOS5_OS3_SC_, symObjAddr: 0xB4E4, symBinAddr: 0x46148, symSize: 0x14 }
  - { offset: 0x2137C5, size: 0x8, addend: 0x0, symName: __ZNSt3__110__function6__funcIPFP11ggml_tensorP12ggml_contextS3_S3_ENS_9allocatorIS7_EES6_EclEOS5_OS3_SC_, symObjAddr: 0xB4E4, symBinAddr: 0x46148, symSize: 0x14 }
  - { offset: 0x213862, size: 0x8, addend: 0x0, symName: __ZNKSt3__110__function6__funcIPFP11ggml_tensorP12ggml_contextS3_S3_ENS_9allocatorIS7_EES6_E6targetERKSt9type_info, symObjAddr: 0xB4F8, symBinAddr: 0x4615C, symSize: 0x74 }
  - { offset: 0x213927, size: 0x8, addend: 0x0, symName: __ZNKSt3__110__function6__funcIPFP11ggml_tensorP12ggml_contextS3_S3_ENS_9allocatorIS7_EES6_E11target_typeEv, symObjAddr: 0xB56C, symBinAddr: 0x461D0, symSize: 0xC }
  - { offset: 0x2158E5, size: 0x8, addend: 0x0, symName: __ZN13llama_hparams15set_swa_patternEjb, symObjAddr: 0x0, symBinAddr: 0x46324, symSize: 0x1C8 }
  - { offset: 0x217A8A, size: 0x8, addend: 0x0, symName: __ZN13llama_hparams15set_swa_patternEjb, symObjAddr: 0x0, symBinAddr: 0x46324, symSize: 0x1C8 }
  - { offset: 0x217AFD, size: 0x8, addend: 0x0, symName: __ZNK13llama_hparams10is_swa_anyEv, symObjAddr: 0x1C8, symBinAddr: 0x464EC, symSize: 0x50 }
  - { offset: 0x217B3C, size: 0x8, addend: 0x0, symName: __ZNK13llama_hparams6n_headEj, symObjAddr: 0x218, symBinAddr: 0x4653C, symSize: 0x38 }
  - { offset: 0x217B69, size: 0x8, addend: 0x0, symName: __ZNK13llama_hparams9n_head_kvEj, symObjAddr: 0x250, symBinAddr: 0x46574, symSize: 0x38 }
  - { offset: 0x217B9B, size: 0x8, addend: 0x0, symName: __ZNK13llama_hparams9n_head_kvEj, symObjAddr: 0x250, symBinAddr: 0x46574, symSize: 0x38 }
  - { offset: 0x217BC8, size: 0x8, addend: 0x0, symName: __ZNK13llama_hparams4n_ffEj, symObjAddr: 0x288, symBinAddr: 0x465AC, symSize: 0x38 }
  - { offset: 0x217BDA, size: 0x8, addend: 0x0, symName: __ZNK13llama_hparams4n_ffEj, symObjAddr: 0x288, symBinAddr: 0x465AC, symSize: 0x38 }
  - { offset: 0x217C14, size: 0x8, addend: 0x0, symName: __ZNK13llama_hparams5n_gqaEj, symObjAddr: 0x2C0, symBinAddr: 0x465E4, symSize: 0x54 }
  - { offset: 0x217C72, size: 0x8, addend: 0x0, symName: __ZNK13llama_hparams5n_gqaEj, symObjAddr: 0x2C0, symBinAddr: 0x465E4, symSize: 0x54 }
  - { offset: 0x217D0E, size: 0x8, addend: 0x0, symName: __ZNK13llama_hparams10n_embd_inpEv, symObjAddr: 0x314, symBinAddr: 0x46638, symSize: 0x14 }
  - { offset: 0x217D20, size: 0x8, addend: 0x0, symName: __ZNK13llama_hparams10n_embd_inpEv, symObjAddr: 0x314, symBinAddr: 0x46638, symSize: 0x14 }
  - { offset: 0x217D59, size: 0x8, addend: 0x0, symName: __ZNK13llama_hparams10n_embd_outEv, symObjAddr: 0x328, symBinAddr: 0x4664C, symSize: 0x18 }
  - { offset: 0x217D82, size: 0x8, addend: 0x0, symName: __ZNK13llama_hparams12n_embd_k_gqaEj, symObjAddr: 0x340, symBinAddr: 0x46664, symSize: 0x40 }
  - { offset: 0x217DD7, size: 0x8, addend: 0x0, symName: __ZNK13llama_hparams12n_embd_v_gqaEj, symObjAddr: 0x380, symBinAddr: 0x466A4, symSize: 0x40 }
  - { offset: 0x217DE9, size: 0x8, addend: 0x0, symName: __ZNK13llama_hparams12n_embd_v_gqaEj, symObjAddr: 0x380, symBinAddr: 0x466A4, symSize: 0x40 }
  - { offset: 0x217E3E, size: 0x8, addend: 0x0, symName: __ZNK13llama_hparams24is_n_embd_k_gqa_variableEv, symObjAddr: 0x3C0, symBinAddr: 0x466E4, symSize: 0x6C }
  - { offset: 0x217E83, size: 0x8, addend: 0x0, symName: __ZNK13llama_hparams24is_n_embd_k_gqa_variableEv, symObjAddr: 0x3C0, symBinAddr: 0x466E4, symSize: 0x6C }
  - { offset: 0x217F65, size: 0x8, addend: 0x0, symName: __ZNK13llama_hparams24is_n_embd_v_gqa_variableEv, symObjAddr: 0x42C, symBinAddr: 0x46750, symSize: 0x6C }
  - { offset: 0x217FA5, size: 0x8, addend: 0x0, symName: __ZNK13llama_hparams24is_n_embd_v_gqa_variableEv, symObjAddr: 0x42C, symBinAddr: 0x46750, symSize: 0x6C }
  - { offset: 0x218087, size: 0x8, addend: 0x0, symName: __ZNK13llama_hparams16n_embd_k_gqa_maxEv, symObjAddr: 0x498, symBinAddr: 0x467BC, symSize: 0x138 }
  - { offset: 0x218099, size: 0x8, addend: 0x0, symName: __ZNK13llama_hparams16n_embd_k_gqa_maxEv, symObjAddr: 0x498, symBinAddr: 0x467BC, symSize: 0x138 }
  - { offset: 0x21815D, size: 0x8, addend: 0x0, symName: __ZNK13llama_hparams16n_embd_v_gqa_maxEv, symObjAddr: 0x5D0, symBinAddr: 0x468F4, symSize: 0x138 }
  - { offset: 0x21816F, size: 0x8, addend: 0x0, symName: __ZNK13llama_hparams16n_embd_v_gqa_maxEv, symObjAddr: 0x5D0, symBinAddr: 0x468F4, symSize: 0x138 }
  - { offset: 0x218233, size: 0x8, addend: 0x0, symName: __ZNK13llama_hparams8n_embd_rEv, symObjAddr: 0x708, symBinAddr: 0x46A2C, symSize: 0x58 }
  - { offset: 0x218245, size: 0x8, addend: 0x0, symName: __ZNK13llama_hparams8n_embd_rEv, symObjAddr: 0x708, symBinAddr: 0x46A2C, symSize: 0x58 }
  - { offset: 0x21826E, size: 0x8, addend: 0x0, symName: __ZNK13llama_hparams8n_embd_sEv, symObjAddr: 0x760, symBinAddr: 0x46A84, symSize: 0x2C }
  - { offset: 0x218297, size: 0x8, addend: 0x0, symName: __ZNK13llama_hparams12is_recurrentEj, symObjAddr: 0x78C, symBinAddr: 0x46AB0, symSize: 0x50 }
  - { offset: 0x2182D1, size: 0x8, addend: 0x0, symName: __ZNK13llama_hparams14n_pos_per_embdEv, symObjAddr: 0x7DC, symBinAddr: 0x46B00, symSize: 0x1C }
  - { offset: 0x2182E4, size: 0x8, addend: 0x0, symName: __ZNK13llama_hparams14n_pos_per_embdEv, symObjAddr: 0x7DC, symBinAddr: 0x46B00, symSize: 0x1C }
  - { offset: 0x21830D, size: 0x8, addend: 0x0, symName: __ZNK13llama_hparams6is_swaEj, symObjAddr: 0x7F8, symBinAddr: 0x46B1C, symSize: 0x40 }
  - { offset: 0x218347, size: 0x8, addend: 0x0, symName: __ZNK13llama_hparams6is_mlaEv, symObjAddr: 0x838, symBinAddr: 0x46B5C, symSize: 0x20 }
  - { offset: 0x21835A, size: 0x8, addend: 0x0, symName: __ZNK13llama_hparams6is_mlaEv, symObjAddr: 0x838, symBinAddr: 0x46B5C, symSize: 0x20 }
  - { offset: 0x218394, size: 0x8, addend: 0x0, symName: __ZNK13llama_hparams17n_embd_head_k_mlaEv, symObjAddr: 0x858, symBinAddr: 0x46B7C, symSize: 0x30 }
  - { offset: 0x2183BF, size: 0x8, addend: 0x0, symName: __ZNK13llama_hparams17n_embd_head_k_mlaEv, symObjAddr: 0x858, symBinAddr: 0x46B7C, symSize: 0x30 }
  - { offset: 0x2183D9, size: 0x8, addend: 0x0, symName: __ZNK13llama_hparams17n_embd_head_v_mlaEv, symObjAddr: 0x888, symBinAddr: 0x46BAC, symSize: 0x30 }
  - { offset: 0x218404, size: 0x8, addend: 0x0, symName: __ZNK13llama_hparams17n_embd_head_v_mlaEv, symObjAddr: 0x888, symBinAddr: 0x46BAC, symSize: 0x30 }
  - { offset: 0x21841E, size: 0x8, addend: 0x0, symName: __ZNK13llama_hparams6has_kvEj, symObjAddr: 0x8B8, symBinAddr: 0x46BDC, symSize: 0x14 }
  - { offset: 0x21846A, size: 0x8, addend: 0x0, symName: __ZNK13llama_hparams10n_layer_kvEv, symObjAddr: 0x8CC, symBinAddr: 0x46BF0, symSize: 0x19C }
  - { offset: 0x2184CF, size: 0x8, addend: 0x0, symName: __ZNK13llama_hparams9use_mropeEv, symObjAddr: 0xA68, symBinAddr: 0x46D8C, symSize: 0x24 }
  - { offset: 0x21A425, size: 0x8, addend: 0x0, symName: __ZL14g_logger_state.0, symObjAddr: 0x1878, symBinAddr: 0x2D42A8, symSize: 0x0 }
  - { offset: 0x21A430, size: 0x8, addend: 0x0, symName: __ZL14g_logger_state.1, symObjAddr: 0x2E1C8, symBinAddr: 0x3600A8, symSize: 0x0 }
  - { offset: 0x221619, size: 0x8, addend: 0x0, symName: __ZN9time_measC2ERxb, symObjAddr: 0x0, symBinAddr: 0x46DB0, symSize: 0x48 }
  - { offset: 0x2216A0, size: 0x8, addend: 0x0, symName: __ZN9time_measC1ERxb, symObjAddr: 0x48, symBinAddr: 0x46DF8, symSize: 0x48 }
  - { offset: 0x221721, size: 0x8, addend: 0x0, symName: __ZN9time_measD2Ev, symObjAddr: 0x90, symBinAddr: 0x46E40, symSize: 0x44 }
  - { offset: 0x22176D, size: 0x8, addend: 0x0, symName: __ZN9time_measD1Ev, symObjAddr: 0xE4, symBinAddr: 0x46E84, symSize: 0x44 }
  - { offset: 0x2217BE, size: 0x8, addend: 0x0, symName: _llama_log_get, symObjAddr: 0x128, symBinAddr: 0x46EC8, symSize: 0x4 }
  - { offset: 0x2217F4, size: 0x8, addend: 0x0, symName: _llama_log_get, symObjAddr: 0x128, symBinAddr: 0x46EC8, symSize: 0x4 }
  - { offset: 0x221827, size: 0x8, addend: 0x0, symName: _llama_log_set, symObjAddr: 0x12C, symBinAddr: 0x46ECC, symSize: 0x44 }
  - { offset: 0x22188B, size: 0x8, addend: 0x0, symName: __Z26llama_log_callback_default14ggml_log_levelPKcPv, symObjAddr: 0x170, symBinAddr: 0x46F10, symSize: 0x30 }
  - { offset: 0x221B23, size: 0x8, addend: 0x0, symName: __Z18llama_log_internal14ggml_log_levelPKcz, symObjAddr: 0x1A0, symBinAddr: 0x46F40, symSize: 0x10C }
  - { offset: 0x221EDF, size: 0x8, addend: 0x0, symName: __Z11replace_allRNSt3__112basic_stringIcNS_11char_traitsIcEENS_9allocatorIcEEEERKS5_S8_, symObjAddr: 0x2AC, symBinAddr: 0x4704C, symSize: 0x1F8 }
  - { offset: 0x222850, size: 0x8, addend: 0x0, symName: __Z6formatPKcz, symObjAddr: 0x4A4, symBinAddr: 0x47244, symSize: 0x158 }
  - { offset: 0x222F08, size: 0x8, addend: 0x0, symName: __Z25llama_format_tensor_shapeRKNSt3__16vectorIxNS_9allocatorIxEEEE, symObjAddr: 0x5FC, symBinAddr: 0x4739C, symSize: 0x180 }
  - { offset: 0x2232AA, size: 0x8, addend: 0x0, symName: __ZNSt3__16vectorIxNS_9allocatorIxEEE20__throw_out_of_rangeB8ne200100Ev, symObjAddr: 0x1388, symBinAddr: 0x47E84, symSize: 0x14 }
  - { offset: 0x2232E2, size: 0x8, addend: 0x0, symName: __Z25llama_format_tensor_shapePK11ggml_tensor, symObjAddr: 0x77C, symBinAddr: 0x4751C, symSize: 0x180 }
  - { offset: 0x2237C4, size: 0x8, addend: 0x0, symName: __Z14gguf_kv_to_strPK12gguf_contexti, symObjAddr: 0x8FC, symBinAddr: 0x4769C, symSize: 0x5EC }
  - { offset: 0x224D3A, size: 0x8, addend: 0x0, symName: __ZL16gguf_data_to_str9gguf_typePKvi, symObjAddr: 0x107C, symBinAddr: 0x47C88, symSize: 0x1FC }
  - { offset: 0x2277C3, size: 0x8, addend: 0x0, symName: __ZN16llama_io_write_i12write_stringERKNSt3__112basic_stringIcNS0_11char_traitsIcEENS0_9allocatorIcEEEE, symObjAddr: 0x0, symBinAddr: 0x47E98, symSize: 0x78 }
  - { offset: 0x22A2A0, size: 0x8, addend: 0x0, symName: __ZN16llama_io_write_i12write_stringERKNSt3__112basic_stringIcNS0_11char_traitsIcEENS0_9allocatorIcEEEE, symObjAddr: 0x0, symBinAddr: 0x47E98, symSize: 0x78 }
  - { offset: 0x22A3B1, size: 0x8, addend: 0x0, symName: __ZN15llama_io_read_i11read_stringERNSt3__112basic_stringIcNS0_11char_traitsIcEENS0_9allocatorIcEEEE, symObjAddr: 0x78, symBinAddr: 0x47F10, symSize: 0x64 }
  - { offset: 0x22C329, size: 0x8, addend: 0x0, symName: __ZN19llama_kv_cache_iswaC2ERK11llama_model9ggml_typeS3_bbbbjjjjRKNSt3__18functionIFbiEEERKNS5_IFiiEEE, symObjAddr: 0x0, symBinAddr: 0x47F74, symSize: 0x348 }
  - { offset: 0x250DCE, size: 0x8, addend: 0x0, symName: __ZNSt3__111make_uniqueB8ne200100I27llama_kv_cache_iswa_contextJP19llama_kv_cache_iswaNS_6vectorIN14llama_kv_cache9slot_infoENS_9allocatorIS6_EEEES9_NS4_I12llama_ubatchNS7_ISA_EEEEELi0EEENS_10unique_ptrIT_NS_14default_deleteISE_EEEEDpOT0_, symObjAddr: 0xF28, symBinAddr: 0x48E40, symSize: 0x25C }
  - { offset: 0x25A1CA, size: 0x8, addend: 0x0, symName: __ZN19llama_kv_cache_iswaC1ERK11llama_model9ggml_typeS3_bbbbjjjjRKNSt3__18functionIFbiEEERKNS5_IFiiEEE, symObjAddr: 0x348, symBinAddr: 0x482BC, symSize: 0x20 }
  - { offset: 0x25ACA8, size: 0x8, addend: 0x0, symName: __ZN19llama_kv_cache_iswaC2ERK11llama_model9ggml_typeS3_bbbbjjjjRKNSt3__18functionIFbiEEERKNS5_IFiiEEE, symObjAddr: 0x0, symBinAddr: 0x47F74, symSize: 0x348 }
  - { offset: 0x25B53D, size: 0x8, addend: 0x0, symName: __ZN19llama_kv_cache_iswa5clearEb, symObjAddr: 0x368, symBinAddr: 0x482DC, symSize: 0x40 }
  - { offset: 0x25B5D1, size: 0x8, addend: 0x0, symName: __ZN19llama_kv_cache_iswa6seq_rmEiii, symObjAddr: 0x3A8, symBinAddr: 0x4831C, symSize: 0x6C }
  - { offset: 0x25B6B4, size: 0x8, addend: 0x0, symName: __ZN19llama_kv_cache_iswa6seq_cpEiiii, symObjAddr: 0x414, symBinAddr: 0x48388, symSize: 0x68 }
  - { offset: 0x25B78A, size: 0x8, addend: 0x0, symName: __ZN19llama_kv_cache_iswa8seq_keepEi, symObjAddr: 0x47C, symBinAddr: 0x483F0, symSize: 0x40 }
  - { offset: 0x25B81E, size: 0x8, addend: 0x0, symName: __ZN19llama_kv_cache_iswa7seq_addEiiii, symObjAddr: 0x4BC, symBinAddr: 0x48430, symSize: 0x68 }
  - { offset: 0x25B8F4, size: 0x8, addend: 0x0, symName: __ZN19llama_kv_cache_iswa7seq_divEiiii, symObjAddr: 0x524, symBinAddr: 0x48498, symSize: 0x68 }
  - { offset: 0x25B9CA, size: 0x8, addend: 0x0, symName: __ZNK19llama_kv_cache_iswa11seq_pos_minEi, symObjAddr: 0x58C, symBinAddr: 0x48500, symSize: 0x10 }
  - { offset: 0x25BA03, size: 0x8, addend: 0x0, symName: __ZNK19llama_kv_cache_iswa11seq_pos_minEi, symObjAddr: 0x58C, symBinAddr: 0x48500, symSize: 0x10 }
  - { offset: 0x25BA33, size: 0x8, addend: 0x0, symName: __ZNK19llama_kv_cache_iswa11seq_pos_maxEi, symObjAddr: 0x59C, symBinAddr: 0x48510, symSize: 0x10 }
  - { offset: 0x25BA6C, size: 0x8, addend: 0x0, symName: __ZNK19llama_kv_cache_iswa11seq_pos_maxEi, symObjAddr: 0x59C, symBinAddr: 0x48510, symSize: 0x10 }
  - { offset: 0x25C043, size: 0x8, addend: 0x0, symName: __ZNK19llama_kv_cache_iswa16memory_breakdownEv, symObjAddr: 0x5AC, symBinAddr: 0x48520, symSize: 0x1C8 }
  - { offset: 0x25D1F1, size: 0x8, addend: 0x0, symName: __ZN19llama_kv_cache_iswa10init_batchER18llama_batch_allocrjb, symObjAddr: 0x774, symBinAddr: 0x486E8, symSize: 0x758 }
  - { offset: 0x25F569, size: 0x8, addend: 0x0, symName: __ZNSt3__16vectorI12llama_ubatchNS_9allocatorIS1_EEE24__emplace_back_slow_pathIJS1_EEEPS1_DpOT_, symObjAddr: 0x258C, symBinAddr: 0x4A28C, symSize: 0x1C0 }
  - { offset: 0x25FB80, size: 0x8, addend: 0x0, symName: __ZNSt3__16vectorI12llama_ubatchNS_9allocatorIS1_EEE20__throw_length_errorB8ne200100Ev, symObjAddr: 0x274C, symBinAddr: 0x4A44C, symSize: 0x14 }
  - { offset: 0x25FB96, size: 0x8, addend: 0x0, symName: __ZNSt3__16vectorIN14llama_kv_cache9slot_infoENS_9allocatorIS2_EEED1B8ne200100Ev, symObjAddr: 0x1184, symBinAddr: 0x4909C, symSize: 0xC4 }
  - { offset: 0x2600DC, size: 0x8, addend: 0x0, symName: __ZNSt3__16vectorI12llama_ubatchNS_9allocatorIS1_EEED1B8ne200100Ev, symObjAddr: 0x1248, symBinAddr: 0x49160, symSize: 0x98 }
  - { offset: 0x2604DB, size: 0x8, addend: 0x0, symName: __ZN27llama_kv_cache_iswa_contextC2EP19llama_kv_cache_iswaNSt3__16vectorIN14llama_kv_cache9slot_infoENS2_9allocatorIS5_EEEES8_NS3_I12llama_ubatchNS6_IS9_EEEE, symObjAddr: 0x1750, symBinAddr: 0x49668, symSize: 0x5B4 }
  - { offset: 0x2620CD, size: 0x8, addend: 0x0, symName: __ZN19llama_kv_cache_iswa9init_fullEv, symObjAddr: 0x12E0, symBinAddr: 0x491F8, symSize: 0x54 }
  - { offset: 0x262173, size: 0x8, addend: 0x0, symName: __ZN27llama_kv_cache_iswa_contextC2EP19llama_kv_cache_iswa, symObjAddr: 0x14E8, symBinAddr: 0x49400, symSize: 0x120 }
  - { offset: 0x26242A, size: 0x8, addend: 0x0, symName: __ZN19llama_kv_cache_iswa11init_updateEP13llama_contextb, symObjAddr: 0x1334, symBinAddr: 0x4924C, symSize: 0x6C }
  - { offset: 0x26250D, size: 0x8, addend: 0x0, symName: __ZN27llama_kv_cache_iswa_contextC2EP19llama_kv_cache_iswaP13llama_contextb, symObjAddr: 0x160C, symBinAddr: 0x49524, symSize: 0x140 }
  - { offset: 0x2627BA, size: 0x8, addend: 0x0, symName: __ZNK19llama_kv_cache_iswa13get_can_shiftEv, symObjAddr: 0x13A0, symBinAddr: 0x492B8, symSize: 0x38 }
  - { offset: 0x26281F, size: 0x8, addend: 0x0, symName: __ZNK19llama_kv_cache_iswa11state_writeER16llama_io_write_iij, symObjAddr: 0x13D8, symBinAddr: 0x492F0, symSize: 0x5C }
  - { offset: 0x2628C9, size: 0x8, addend: 0x0, symName: __ZN19llama_kv_cache_iswa10state_readER15llama_io_read_iij, symObjAddr: 0x1434, symBinAddr: 0x4934C, symSize: 0x5C }
  - { offset: 0x262989, size: 0x8, addend: 0x0, symName: __ZNK19llama_kv_cache_iswa8get_baseEv, symObjAddr: 0x1490, symBinAddr: 0x493A8, symSize: 0x8 }
  - { offset: 0x2629AD, size: 0x8, addend: 0x0, symName: __ZNK19llama_kv_cache_iswa8get_baseEv, symObjAddr: 0x1490, symBinAddr: 0x493A8, symSize: 0x8 }
  - { offset: 0x2629C9, size: 0x8, addend: 0x0, symName: __ZNK19llama_kv_cache_iswa7get_swaEv, symObjAddr: 0x1498, symBinAddr: 0x493B0, symSize: 0x8 }
  - { offset: 0x2629ED, size: 0x8, addend: 0x0, symName: __ZNK19llama_kv_cache_iswa7get_swaEv, symObjAddr: 0x1498, symBinAddr: 0x493B0, symSize: 0x8 }
  - { offset: 0x262A09, size: 0x8, addend: 0x0, symName: __ZN27llama_kv_cache_iswa_contextC2E19llama_memory_status, symObjAddr: 0x14A0, symBinAddr: 0x493B8, symSize: 0x24 }
  - { offset: 0x262A6C, size: 0x8, addend: 0x0, symName: __ZN27llama_kv_cache_iswa_contextC1E19llama_memory_status, symObjAddr: 0x14C4, symBinAddr: 0x493DC, symSize: 0x24 }
  - { offset: 0x262A95, size: 0x8, addend: 0x0, symName: __ZN27llama_kv_cache_iswa_contextC1E19llama_memory_status, symObjAddr: 0x14C4, symBinAddr: 0x493DC, symSize: 0x24 }
  - { offset: 0x262BE7, size: 0x8, addend: 0x0, symName: __ZN27llama_kv_cache_iswa_contextC1EP19llama_kv_cache_iswa, symObjAddr: 0x1608, symBinAddr: 0x49520, symSize: 0x4 }
  - { offset: 0x262C11, size: 0x8, addend: 0x0, symName: __ZN27llama_kv_cache_iswa_contextC1EP19llama_kv_cache_iswa, symObjAddr: 0x1608, symBinAddr: 0x49520, symSize: 0x4 }
  - { offset: 0x262C2B, size: 0x8, addend: 0x0, symName: __ZN27llama_kv_cache_iswa_contextC1EP19llama_kv_cache_iswaP13llama_contextb, symObjAddr: 0x174C, symBinAddr: 0x49664, symSize: 0x4 }
  - { offset: 0x262C68, size: 0x8, addend: 0x0, symName: __ZN27llama_kv_cache_iswa_contextC1EP19llama_kv_cache_iswaP13llama_contextb, symObjAddr: 0x174C, symBinAddr: 0x49664, symSize: 0x4 }
  - { offset: 0x263022, size: 0x8, addend: 0x0, symName: __ZNSt3__16vectorI12llama_ubatchNS_9allocatorIS1_EEE20__throw_length_errorB8ne200100Ev, symObjAddr: 0x274C, symBinAddr: 0x4A44C, symSize: 0x14 }
  - { offset: 0x263045, size: 0x8, addend: 0x0, symName: __ZNSt3__128__exception_guard_exceptionsINS_6vectorI12llama_ubatchNS_9allocatorIS2_EEE16__destroy_vectorEED1B8ne200100Ev, symObjAddr: 0x27D4, symBinAddr: 0x4A460, symSize: 0xA8 }
  - { offset: 0x263280, size: 0x8, addend: 0x0, symName: __ZN27llama_kv_cache_iswa_contextC1EP19llama_kv_cache_iswaNSt3__16vectorIN14llama_kv_cache9slot_infoENS2_9allocatorIS5_EEEES8_NS3_I12llama_ubatchNS6_IS9_EEEE, symObjAddr: 0x1D04, symBinAddr: 0x49C1C, symSize: 0x4 }
  - { offset: 0x2632C2, size: 0x8, addend: 0x0, symName: __ZN27llama_kv_cache_iswa_contextC1EP19llama_kv_cache_iswaNSt3__16vectorIN14llama_kv_cache9slot_infoENS2_9allocatorIS5_EEEES8_NS3_I12llama_ubatchNS6_IS9_EEEE, symObjAddr: 0x1D04, symBinAddr: 0x49C1C, symSize: 0x4 }
  - { offset: 0x2632F1, size: 0x8, addend: 0x0, symName: __ZN27llama_kv_cache_iswa_contextD2Ev, symObjAddr: 0x1D08, symBinAddr: 0x49C20, symSize: 0xD4 }
  - { offset: 0x2636A0, size: 0x8, addend: 0x0, symName: __ZN27llama_kv_cache_iswa_contextD1Ev, symObjAddr: 0x1DDC, symBinAddr: 0x49CF4, symSize: 0xD4 }
  - { offset: 0x263A6C, size: 0x8, addend: 0x0, symName: __ZN27llama_kv_cache_iswa_contextD0Ev, symObjAddr: 0x1EB0, symBinAddr: 0x49DC8, symSize: 0xD4 }
  - { offset: 0x263E44, size: 0x8, addend: 0x0, symName: __ZN27llama_kv_cache_iswa_context4nextEv, symObjAddr: 0x1F84, symBinAddr: 0x49E9C, symSize: 0x70 }
  - { offset: 0x263EE3, size: 0x8, addend: 0x0, symName: __ZN27llama_kv_cache_iswa_context5applyEv, symObjAddr: 0x1FF4, symBinAddr: 0x49F0C, symSize: 0x44 }
  - { offset: 0x263F73, size: 0x8, addend: 0x0, symName: __ZNK27llama_kv_cache_iswa_context10get_statusEv, symObjAddr: 0x2038, symBinAddr: 0x49F50, symSize: 0x8 }
  - { offset: 0x263FBF, size: 0x8, addend: 0x0, symName: __ZNK27llama_kv_cache_iswa_context10get_ubatchEv, symObjAddr: 0x2040, symBinAddr: 0x49F58, symSize: 0x10 }
  - { offset: 0x264025, size: 0x8, addend: 0x0, symName: __ZNK27llama_kv_cache_iswa_context8get_baseEv, symObjAddr: 0x2050, symBinAddr: 0x49F68, symSize: 0x8 }
  - { offset: 0x264051, size: 0x8, addend: 0x0, symName: __ZNK27llama_kv_cache_iswa_context8get_baseEv, symObjAddr: 0x2050, symBinAddr: 0x49F68, symSize: 0x8 }
  - { offset: 0x26406E, size: 0x8, addend: 0x0, symName: __ZNK27llama_kv_cache_iswa_context7get_swaEv, symObjAddr: 0x2058, symBinAddr: 0x49F70, symSize: 0x8 }
  - { offset: 0x26409A, size: 0x8, addend: 0x0, symName: __ZNK27llama_kv_cache_iswa_context7get_swaEv, symObjAddr: 0x2058, symBinAddr: 0x49F70, symSize: 0x8 }
  - { offset: 0x2640D1, size: 0x8, addend: 0x0, symName: __ZN19llama_kv_cache_iswaD1Ev, symObjAddr: 0x2060, symBinAddr: 0x49F78, symSize: 0x5C }
  - { offset: 0x264265, size: 0x8, addend: 0x0, symName: __ZN19llama_kv_cache_iswaD0Ev, symObjAddr: 0x20BC, symBinAddr: 0x49FD4, symSize: 0x5C }
  - { offset: 0x264404, size: 0x8, addend: 0x0, symName: '__ZNSt3__110__function6__funcIZN19llama_kv_cache_iswaC1ERK11llama_model9ggml_typeS6_bbbbjjjjRKNS_8functionIFbiEEERKNS7_IFiiEEEE3$_0NS_9allocatorISG_EES8_ED1Ev', symObjAddr: 0x2118, symBinAddr: 0x4A030, symSize: 0x4 }
  - { offset: 0x264430, size: 0x8, addend: 0x0, symName: '__ZNSt3__110__function6__funcIZN19llama_kv_cache_iswaC1ERK11llama_model9ggml_typeS6_bbbbjjjjRKNS_8functionIFbiEEERKNS7_IFiiEEEE3$_0NS_9allocatorISG_EES8_ED0Ev', symObjAddr: 0x211C, symBinAddr: 0x4A034, symSize: 0x4 }
  - { offset: 0x264547, size: 0x8, addend: 0x0, symName: '__ZNKSt3__110__function6__funcIZN19llama_kv_cache_iswaC1ERK11llama_model9ggml_typeS6_bbbbjjjjRKNS_8functionIFbiEEERKNS7_IFiiEEEE3$_0NS_9allocatorISG_EES8_E7__cloneEv', symObjAddr: 0x2120, symBinAddr: 0x4A038, symSize: 0x38 }
  - { offset: 0x26475A, size: 0x8, addend: 0x0, symName: '__ZNKSt3__110__function6__funcIZN19llama_kv_cache_iswaC1ERK11llama_model9ggml_typeS6_bbbbjjjjRKNS_8functionIFbiEEERKNS7_IFiiEEEE3$_0NS_9allocatorISG_EES8_E7__cloneEPNS0_6__baseIS8_EE', symObjAddr: 0x2158, symBinAddr: 0x4A070, symSize: 0x18 }
  - { offset: 0x26478F, size: 0x8, addend: 0x0, symName: '__ZNKSt3__110__function6__funcIZN19llama_kv_cache_iswaC1ERK11llama_model9ggml_typeS6_bbbbjjjjRKNS_8functionIFbiEEERKNS7_IFiiEEEE3$_0NS_9allocatorISG_EES8_E7__cloneEPNS0_6__baseIS8_EE', symObjAddr: 0x2158, symBinAddr: 0x4A070, symSize: 0x18 }
  - { offset: 0x2647B4, size: 0x8, addend: 0x0, symName: '__ZNKSt3__110__function6__funcIZN19llama_kv_cache_iswaC1ERK11llama_model9ggml_typeS6_bbbbjjjjRKNS_8functionIFbiEEERKNS7_IFiiEEEE3$_0NS_9allocatorISG_EES8_E7__cloneEPNS0_6__baseIS8_EE', symObjAddr: 0x2158, symBinAddr: 0x4A070, symSize: 0x18 }
  - { offset: 0x264828, size: 0x8, addend: 0x0, symName: '__ZNSt3__110__function6__funcIZN19llama_kv_cache_iswaC1ERK11llama_model9ggml_typeS6_bbbbjjjjRKNS_8functionIFbiEEERKNS7_IFiiEEEE3$_0NS_9allocatorISG_EES8_E7destroyEv', symObjAddr: 0x2170, symBinAddr: 0x4A088, symSize: 0x4 }
  - { offset: 0x26487D, size: 0x8, addend: 0x0, symName: '__ZNSt3__110__function6__funcIZN19llama_kv_cache_iswaC1ERK11llama_model9ggml_typeS6_bbbbjjjjRKNS_8functionIFbiEEERKNS7_IFiiEEEE3$_0NS_9allocatorISG_EES8_E18destroy_deallocateEv', symObjAddr: 0x2174, symBinAddr: 0x4A08C, symSize: 0x4 }
  - { offset: 0x2648B2, size: 0x8, addend: 0x0, symName: '__ZNSt3__110__function6__funcIZN19llama_kv_cache_iswaC1ERK11llama_model9ggml_typeS6_bbbbjjjjRKNS_8functionIFbiEEERKNS7_IFiiEEEE3$_0NS_9allocatorISG_EES8_E18destroy_deallocateEv', symObjAddr: 0x2174, symBinAddr: 0x4A08C, symSize: 0x4 }
  - { offset: 0x2648D5, size: 0x8, addend: 0x0, symName: '__ZNSt3__110__function6__funcIZN19llama_kv_cache_iswaC1ERK11llama_model9ggml_typeS6_bbbbjjjjRKNS_8functionIFbiEEERKNS7_IFiiEEEE3$_0NS_9allocatorISG_EES8_E18destroy_deallocateEv', symObjAddr: 0x2174, symBinAddr: 0x4A08C, symSize: 0x4 }
  - { offset: 0x264908, size: 0x8, addend: 0x0, symName: '__ZNSt3__110__function6__funcIZN19llama_kv_cache_iswaC1ERK11llama_model9ggml_typeS6_bbbbjjjjRKNS_8functionIFbiEEERKNS7_IFiiEEEE3$_0NS_9allocatorISG_EES8_E18destroy_deallocateEv', symObjAddr: 0x2174, symBinAddr: 0x4A08C, symSize: 0x4 }
  - { offset: 0x264A28, size: 0x8, addend: 0x0, symName: '__ZNSt3__110__function6__funcIZN19llama_kv_cache_iswaC1ERK11llama_model9ggml_typeS6_bbbbjjjjRKNS_8functionIFbiEEERKNS7_IFiiEEEE3$_0NS_9allocatorISG_EES8_EclEOi', symObjAddr: 0x2178, symBinAddr: 0x4A090, symSize: 0x60 }
  - { offset: 0x264BDF, size: 0x8, addend: 0x0, symName: '__ZNKSt3__110__function6__funcIZN19llama_kv_cache_iswaC1ERK11llama_model9ggml_typeS6_bbbbjjjjRKNS_8functionIFbiEEERKNS7_IFiiEEEE3$_0NS_9allocatorISG_EES8_E6targetERKSt9type_info', symObjAddr: 0x21D8, symBinAddr: 0x4A0F0, symSize: 0x64 }
  - { offset: 0x264CAA, size: 0x8, addend: 0x0, symName: '__ZNKSt3__110__function6__funcIZN19llama_kv_cache_iswaC1ERK11llama_model9ggml_typeS6_bbbbjjjjRKNS_8functionIFbiEEERKNS7_IFiiEEEE3$_0NS_9allocatorISG_EES8_E11target_typeEv', symObjAddr: 0x223C, symBinAddr: 0x4A154, symSize: 0xC }
  - { offset: 0x264CCD, size: 0x8, addend: 0x0, symName: '__ZNSt3__110__function6__funcIZN19llama_kv_cache_iswaC1ERK11llama_model9ggml_typeS6_bbbbjjjjRKNS_8functionIFbiEEERKNS7_IFiiEEEE3$_1NS_9allocatorISG_EES8_ED1Ev', symObjAddr: 0x2270, symBinAddr: 0x4A160, symSize: 0x4 }
  - { offset: 0x264CF9, size: 0x8, addend: 0x0, symName: '__ZNSt3__110__function6__funcIZN19llama_kv_cache_iswaC1ERK11llama_model9ggml_typeS6_bbbbjjjjRKNS_8functionIFbiEEERKNS7_IFiiEEEE3$_1NS_9allocatorISG_EES8_ED0Ev', symObjAddr: 0x2274, symBinAddr: 0x4A164, symSize: 0x4 }
  - { offset: 0x264E10, size: 0x8, addend: 0x0, symName: '__ZNKSt3__110__function6__funcIZN19llama_kv_cache_iswaC1ERK11llama_model9ggml_typeS6_bbbbjjjjRKNS_8functionIFbiEEERKNS7_IFiiEEEE3$_1NS_9allocatorISG_EES8_E7__cloneEv', symObjAddr: 0x2278, symBinAddr: 0x4A168, symSize: 0x38 }
  - { offset: 0x265023, size: 0x8, addend: 0x0, symName: '__ZNKSt3__110__function6__funcIZN19llama_kv_cache_iswaC1ERK11llama_model9ggml_typeS6_bbbbjjjjRKNS_8functionIFbiEEERKNS7_IFiiEEEE3$_1NS_9allocatorISG_EES8_E7__cloneEPNS0_6__baseIS8_EE', symObjAddr: 0x22B0, symBinAddr: 0x4A1A0, symSize: 0x18 }
  - { offset: 0x265058, size: 0x8, addend: 0x0, symName: '__ZNKSt3__110__function6__funcIZN19llama_kv_cache_iswaC1ERK11llama_model9ggml_typeS6_bbbbjjjjRKNS_8functionIFbiEEERKNS7_IFiiEEEE3$_1NS_9allocatorISG_EES8_E7__cloneEPNS0_6__baseIS8_EE', symObjAddr: 0x22B0, symBinAddr: 0x4A1A0, symSize: 0x18 }
  - { offset: 0x26507D, size: 0x8, addend: 0x0, symName: '__ZNKSt3__110__function6__funcIZN19llama_kv_cache_iswaC1ERK11llama_model9ggml_typeS6_bbbbjjjjRKNS_8functionIFbiEEERKNS7_IFiiEEEE3$_1NS_9allocatorISG_EES8_E7__cloneEPNS0_6__baseIS8_EE', symObjAddr: 0x22B0, symBinAddr: 0x4A1A0, symSize: 0x18 }
  - { offset: 0x2650F1, size: 0x8, addend: 0x0, symName: '__ZNSt3__110__function6__funcIZN19llama_kv_cache_iswaC1ERK11llama_model9ggml_typeS6_bbbbjjjjRKNS_8functionIFbiEEERKNS7_IFiiEEEE3$_1NS_9allocatorISG_EES8_E7destroyEv', symObjAddr: 0x22C8, symBinAddr: 0x4A1B8, symSize: 0x4 }
  - { offset: 0x265146, size: 0x8, addend: 0x0, symName: '__ZNSt3__110__function6__funcIZN19llama_kv_cache_iswaC1ERK11llama_model9ggml_typeS6_bbbbjjjjRKNS_8functionIFbiEEERKNS7_IFiiEEEE3$_1NS_9allocatorISG_EES8_E18destroy_deallocateEv', symObjAddr: 0x22CC, symBinAddr: 0x4A1BC, symSize: 0x4 }
  - { offset: 0x26517B, size: 0x8, addend: 0x0, symName: '__ZNSt3__110__function6__funcIZN19llama_kv_cache_iswaC1ERK11llama_model9ggml_typeS6_bbbbjjjjRKNS_8functionIFbiEEERKNS7_IFiiEEEE3$_1NS_9allocatorISG_EES8_E18destroy_deallocateEv', symObjAddr: 0x22CC, symBinAddr: 0x4A1BC, symSize: 0x4 }
  - { offset: 0x26519E, size: 0x8, addend: 0x0, symName: '__ZNSt3__110__function6__funcIZN19llama_kv_cache_iswaC1ERK11llama_model9ggml_typeS6_bbbbjjjjRKNS_8functionIFbiEEERKNS7_IFiiEEEE3$_1NS_9allocatorISG_EES8_E18destroy_deallocateEv', symObjAddr: 0x22CC, symBinAddr: 0x4A1BC, symSize: 0x4 }
  - { offset: 0x2651D1, size: 0x8, addend: 0x0, symName: '__ZNSt3__110__function6__funcIZN19llama_kv_cache_iswaC1ERK11llama_model9ggml_typeS6_bbbbjjjjRKNS_8functionIFbiEEERKNS7_IFiiEEEE3$_1NS_9allocatorISG_EES8_E18destroy_deallocateEv', symObjAddr: 0x22CC, symBinAddr: 0x4A1BC, symSize: 0x4 }
  - { offset: 0x265273, size: 0x8, addend: 0x0, symName: '__ZNSt3__110__function6__funcIZN19llama_kv_cache_iswaC1ERK11llama_model9ggml_typeS6_bbbbjjjjRKNS_8functionIFbiEEERKNS7_IFiiEEEE3$_1NS_9allocatorISG_EES8_EclEOi', symObjAddr: 0x22D0, symBinAddr: 0x4A1C0, symSize: 0x5C }
  - { offset: 0x2653D1, size: 0x8, addend: 0x0, symName: '__ZNKSt3__110__function6__funcIZN19llama_kv_cache_iswaC1ERK11llama_model9ggml_typeS6_bbbbjjjjRKNS_8functionIFbiEEERKNS7_IFiiEEEE3$_1NS_9allocatorISG_EES8_E6targetERKSt9type_info', symObjAddr: 0x232C, symBinAddr: 0x4A21C, symSize: 0x64 }
  - { offset: 0x265485, size: 0x8, addend: 0x0, symName: '__ZNKSt3__110__function6__funcIZN19llama_kv_cache_iswaC1ERK11llama_model9ggml_typeS6_bbbbjjjjRKNS_8functionIFbiEEERKNS7_IFiiEEEE3$_1NS_9allocatorISG_EES8_E11target_typeEv', symObjAddr: 0x2390, symBinAddr: 0x4A280, symSize: 0xC }
  - { offset: 0x2A4264, size: 0x8, addend: 0x0, symName: __ZNSt3__135__uninitialized_allocator_copy_implB8ne200100INS_9allocatorINS_6vectorIjNS1_IjEEEEEEPS4_S6_S6_EET2_RT_T0_T1_S7_, symObjAddr: 0x10580, symBinAddr: 0x5A0BC, symSize: 0xF8 }
  - { offset: 0x2A5494, size: 0x8, addend: 0x0, symName: __ZNSt3__134__uninitialized_allocator_relocateB8ne200100INS_9allocatorIN14llama_kv_cache9slot_infoEEEPS3_EEvRT_T0_S8_S8_, symObjAddr: 0x12118, symBinAddr: 0x5B708, symSize: 0xF8 }
  - { offset: 0x2A54EF, size: 0x8, addend: 0x0, symName: __ZNSt3__134__uninitialized_allocator_relocateB8ne200100INS_9allocatorIN14llama_kv_cache9slot_infoEEEPS3_EEvRT_T0_S8_S8_, symObjAddr: 0x12118, symBinAddr: 0x5B708, symSize: 0xF8 }
  - { offset: 0x2AE7B9, size: 0x8, addend: 0x0, symName: __ZN14llama_kv_cacheC2ERK11llama_model9ggml_typeS3_bbbjjjj14llama_swa_typeRKNSt3__18functionIFbiEEERKNS6_IFiiEEE, symObjAddr: 0x0, symBinAddr: 0x4A508, symSize: 0x120C }
  - { offset: 0x2B20CD, size: 0x8, addend: 0x0, symName: __ZN14llama_kv_cache7prepareERKNSt3__16vectorI12llama_ubatchNS0_9allocatorIS2_EEEE, symObjAddr: 0x351C, symBinAddr: 0x4D9C8, symSize: 0xF0C }
  - { offset: 0x2B88D4, size: 0x8, addend: 0x0, symName: __ZNSt3__16vectorI14llama_kv_cellsNS_9allocatorIS1_EEE8__appendEm, symObjAddr: 0x10DC4, symBinAddr: 0x5A614, symSize: 0x25C }
  - { offset: 0x2B9039, size: 0x8, addend: 0x0, symName: __ZNSt3__16vectorI14llama_kv_cellsNS_9allocatorIS1_EEE20__throw_length_errorB8ne200100Ev, symObjAddr: 0x11020, symBinAddr: 0x5A870, symSize: 0x14 }
  - { offset: 0x2B9044, size: 0x8, addend: 0x0, symName: __ZNSt3__19allocatorI14llama_kv_cellsE7destroyB8ne200100EPS1_, symObjAddr: 0x10BAC, symBinAddr: 0x5A530, symSize: 0x90 }
  - { offset: 0x2B96A8, size: 0x8, addend: 0x0, symName: __ZN14llama_kv_cells6resizeEj, symObjAddr: 0x120C, symBinAddr: 0x4B714, symSize: 0x178 }
  - { offset: 0x2B9B3C, size: 0x8, addend: 0x0, symName: __ZNSt3__16vectorIjNS_9allocatorIjEEE8__appendEmRKj, symObjAddr: 0x11158, symBinAddr: 0x5A9A8, symSize: 0x234 }
  - { offset: 0x2BA0A0, size: 0x8, addend: 0x0, symName: __ZNSt3__112__hash_tableINS_17__hash_value_typeIiiEENS_22__unordered_map_hasherIiS2_NS_4hashIiEENS_8equal_toIiEELb1EEENS_21__unordered_map_equalIiS2_S7_S5_Lb1EEENS_9allocatorIS2_EEE25__emplace_unique_key_argsIiJRKNS_21piecewise_construct_tENS_5tupleIJOiEEENSI_IJEEEEEENS_4pairINS_15__hash_iteratorIPNS_11__hash_nodeIS2_PvEEEEbEERKT_DpOT0_, symObjAddr: 0x113D4, symBinAddr: 0x5ABDC, symSize: 0x328 }
  - { offset: 0x2BA7E4, size: 0x8, addend: 0x0, symName: __ZNSt3__16vectorIN14llama_kv_cache8kv_layerENS_9allocatorIS2_EEE24__emplace_back_slow_pathIJS2_EEEPS2_DpOT_, symObjAddr: 0x1187C, symBinAddr: 0x5B084, symSize: 0x1D4 }
  - { offset: 0x2BB02E, size: 0x8, addend: 0x0, symName: __ZNSt3__16vectorIN14llama_kv_cache8kv_layerENS_9allocatorIS2_EEE20__throw_length_errorB8ne200100Ev, symObjAddr: 0x11A50, symBinAddr: 0x5B258, symSize: 0x14 }
  - { offset: 0x2BB044, size: 0x8, addend: 0x0, symName: __ZNSt3__112__hash_tableINS_17__hash_value_typeIiiEENS_22__unordered_map_hasherIiS2_NS_4hashIiEENS_8equal_toIiEELb1EEENS_21__unordered_map_equalIiS2_S7_S5_Lb1EEENS_9allocatorIS2_EEE25__emplace_unique_key_argsIiJRKNS_21piecewise_construct_tENS_5tupleIJRKiEEENSI_IJEEEEEENS_4pairINS_15__hash_iteratorIPNS_11__hash_nodeIS2_PvEEEEbEERKT_DpOT0_, symObjAddr: 0x11A64, symBinAddr: 0x5B26C, symSize: 0x328 }
  - { offset: 0x2BB877, size: 0x8, addend: 0x0, symName: __ZNSt3__16__treeINS_12__value_typeIP24ggml_backend_buffer_typeNS_10unique_ptrI12ggml_context20ggml_context_deleterEEEENS_19__map_value_compareIS3_S8_ZN14llama_kv_cacheC1ERK11llama_model9ggml_typeSE_bbbjjjj14llama_swa_typeRKNS_8functionIFbiEEERKNSG_IFiiEEEE28ggml_backend_buft_comparatorLb1EEENS_9allocatorIS8_EEE7destroyEPNS_11__tree_nodeIS8_PvEE, symObjAddr: 0x10C3C, symBinAddr: 0x5A5C0, symSize: 0x54 }
  - { offset: 0x2BBA83, size: 0x8, addend: 0x0, symName: __ZNSt3__112__hash_tableINS_17__hash_value_typeIiiEENS_22__unordered_map_hasherIiS2_NS_4hashIiEENS_8equal_toIiEELb1EEENS_21__unordered_map_equalIiS2_S7_S5_Lb1EEENS_9allocatorIS2_EEE25__emplace_unique_key_argsIiJRKNS_21piecewise_construct_tENS_5tupleIJOiEEENSI_IJEEEEEENS_4pairINS_15__hash_iteratorIPNS_11__hash_nodeIS2_PvEEEEbEERKT_DpOT0_, symObjAddr: 0x113D4, symBinAddr: 0x5ABDC, symSize: 0x328 }
  - { offset: 0x2BBA8E, size: 0x8, addend: 0x0, symName: __ZNSt3__16vectorINS_4pairINS_10unique_ptrI12ggml_context20ggml_context_deleterEENS2_I19ggml_backend_buffer27ggml_backend_buffer_deleterEEEENS_9allocatorIS9_EEE20__throw_length_errorB8ne200100Ev, symObjAddr: 0x11D8C, symBinAddr: 0x5B594, symSize: 0x14 }
  - { offset: 0x2BBAB1, size: 0x8, addend: 0x0, symName: __ZN14llama_kv_cache8kv_layerD1Ev, symObjAddr: 0x1384, symBinAddr: 0x4B88C, symSize: 0x40 }
  - { offset: 0x2BBD39, size: 0x8, addend: 0x0, symName: __ZNSt3__113unordered_mapIiiNS_4hashIiEENS_8equal_toIiEENS_9allocatorINS_4pairIKiiEEEEED1B8ne200100Ev, symObjAddr: 0x1484, symBinAddr: 0x4B98C, symSize: 0x48 }
  - { offset: 0x2BBFCC, size: 0x8, addend: 0x0, symName: __ZNSt3__16vectorIN14llama_kv_cache8kv_layerENS_9allocatorIS2_EEED1B8ne200100Ev, symObjAddr: 0x14CC, symBinAddr: 0x4B9D4, symSize: 0x80 }
  - { offset: 0x2BC3BE, size: 0x8, addend: 0x0, symName: __ZN14llama_kv_cache16stream_copy_infoD1Ev, symObjAddr: 0x154C, symBinAddr: 0x4BA54, symSize: 0x40 }
  - { offset: 0x2BC63A, size: 0x8, addend: 0x0, symName: __ZNSt3__16vectorI14llama_kv_cellsNS_9allocatorIS1_EEED1B8ne200100Ev, symObjAddr: 0x158C, symBinAddr: 0x4BA94, symSize: 0x68 }
  - { offset: 0x2BC7A3, size: 0x8, addend: 0x0, symName: __ZNSt3__16vectorINS_4pairINS_10unique_ptrI12ggml_context20ggml_context_deleterEENS2_I19ggml_backend_buffer27ggml_backend_buffer_deleterEEEENS_9allocatorIS9_EEED1B8ne200100Ev, symObjAddr: 0x15F4, symBinAddr: 0x4BAFC, symSize: 0x84 }
  - { offset: 0x2BD012, size: 0x8, addend: 0x0, symName: __ZNSt3__16vectorI17llama_kv_cell_extNS_9allocatorIS1_EEE8__appendEm, symObjAddr: 0xF898, symBinAddr: 0x59A00, symSize: 0x120 }
  - { offset: 0x2BD446, size: 0x8, addend: 0x0, symName: __ZNSt3__16vectorI17llama_kv_cell_extNS_9allocatorIS1_EEE20__throw_length_errorB8ne200100Ev, symObjAddr: 0xF9B8, symBinAddr: 0x59B20, symSize: 0x14 }
  - { offset: 0x2BD451, size: 0x8, addend: 0x0, symName: __ZNSt3__16vectorINS_6bitsetILm256EEENS_9allocatorIS2_EEE8__appendEm, symObjAddr: 0xF9CC, symBinAddr: 0x59B34, symSize: 0x120 }
  - { offset: 0x2BD8BC, size: 0x8, addend: 0x0, symName: __ZNSt3__16__treeIjNS_4lessIjEENS_9allocatorIjEEE7destroyEPNS_11__tree_nodeIjPvEE, symObjAddr: 0xFCAC, symBinAddr: 0x59C54, symSize: 0x44 }
  - { offset: 0x2BDA89, size: 0x8, addend: 0x0, symName: __ZNK14llama_kv_cache12size_k_bytesEv, symObjAddr: 0x13C4, symBinAddr: 0x4B8CC, symSize: 0x64 }
  - { offset: 0x2BDB37, size: 0x8, addend: 0x0, symName: __ZNK14llama_kv_cache12size_v_bytesEv, symObjAddr: 0x1428, symBinAddr: 0x4B930, symSize: 0x5C }
  - { offset: 0x2BE21C, size: 0x8, addend: 0x0, symName: __ZN14llama_kv_cacheC1ERK11llama_model9ggml_typeS3_bbbjjjj14llama_swa_typeRKNSt3__18functionIFbiEEERKNS6_IFiiEEE, symObjAddr: 0x1678, symBinAddr: 0x4BB80, symSize: 0x20 }
  - { offset: 0x2BE3C3, size: 0x8, addend: 0x0, symName: __ZN14llama_kv_cache5clearEb, symObjAddr: 0x1698, symBinAddr: 0x4BBA0, symSize: 0x148 }
  - { offset: 0x2BED58, size: 0x8, addend: 0x0, symName: __ZN14llama_kv_cache6seq_rmEiii, symObjAddr: 0x17E0, symBinAddr: 0x4BCE8, symSize: 0x444 }
  - { offset: 0x2BF90B, size: 0x8, addend: 0x0, symName: __ZN14llama_kv_cells6seq_rmEji, symObjAddr: 0x1C24, symBinAddr: 0x4C12C, symSize: 0x288 }
  - { offset: 0x2BF91E, size: 0x8, addend: 0x0, symName: __ZN14llama_kv_cells6seq_rmEji, symObjAddr: 0x1C24, symBinAddr: 0x4C12C, symSize: 0x288 }
  - { offset: 0x2C002E, size: 0x8, addend: 0x0, symName: __ZN14llama_kv_cache6seq_cpEiiii, symObjAddr: 0x1EAC, symBinAddr: 0x4C3B4, symSize: 0x638 }
  - { offset: 0x2C07C4, size: 0x8, addend: 0x0, symName: __ZN14llama_kv_cache6seq_cpEiiii, symObjAddr: 0x1EAC, symBinAddr: 0x4C3B4, symSize: 0x638 }
  - { offset: 0x2C1CA5, size: 0x8, addend: 0x0, symName: __ZN14llama_kv_cells7seq_addEji, symObjAddr: 0x24E4, symBinAddr: 0x4C9EC, symSize: 0x110 }
  - { offset: 0x2C1CB0, size: 0x8, addend: 0x0, symName: __ZN14llama_kv_cells7seq_addEji, symObjAddr: 0x24E4, symBinAddr: 0x4C9EC, symSize: 0x110 }
  - { offset: 0x2C206D, size: 0x8, addend: 0x0, symName: __ZNK14llama_kv_cache8get_sizeEv, symObjAddr: 0x25F4, symBinAddr: 0x4CAFC, symSize: 0x24 }
  - { offset: 0x2C2078, size: 0x8, addend: 0x0, symName: __ZN14llama_kv_cells7pos_addEji, symObjAddr: 0x2618, symBinAddr: 0x4CB20, symSize: 0x144 }
  - { offset: 0x2C24A8, size: 0x8, addend: 0x0, symName: __ZNSt3__16vectorI14llama_kv_cellsNS_9allocatorIS1_EEE8__appendEm, symObjAddr: 0x10DC4, symBinAddr: 0x5A614, symSize: 0x25C }
  - { offset: 0x2C291B, size: 0x8, addend: 0x0, symName: __ZNK14llama_kv_cache8get_sizeEv, symObjAddr: 0x25F4, symBinAddr: 0x4CAFC, symSize: 0x24 }
  - { offset: 0x2C2948, size: 0x8, addend: 0x0, symName: __ZNK14llama_kv_cache8get_sizeEv, symObjAddr: 0x25F4, symBinAddr: 0x4CAFC, symSize: 0x24 }
  - { offset: 0x2C29D1, size: 0x8, addend: 0x0, symName: __ZN14llama_kv_cells10seq_pos_rmEj, symObjAddr: 0x1015C, symBinAddr: 0x59C98, symSize: 0x128 }
  - { offset: 0x2C2DB0, size: 0x8, addend: 0x0, symName: __ZN14llama_kv_cells11seq_pos_addEj, symObjAddr: 0x10284, symBinAddr: 0x59DC0, symSize: 0x11C }
  - { offset: 0x2C31A2, size: 0x8, addend: 0x0, symName: __ZN14llama_kv_cache8seq_keepEi, symObjAddr: 0x275C, symBinAddr: 0x4CC64, symSize: 0xE4 }
  - { offset: 0x2C3334, size: 0x8, addend: 0x0, symName: __ZN14llama_kv_cells8seq_keepEji, symObjAddr: 0x2840, symBinAddr: 0x4CD48, symSize: 0x25C }
  - { offset: 0x2C3347, size: 0x8, addend: 0x0, symName: __ZN14llama_kv_cells8seq_keepEji, symObjAddr: 0x2840, symBinAddr: 0x4CD48, symSize: 0x25C }
  - { offset: 0x2C3C6B, size: 0x8, addend: 0x0, symName: __ZN14llama_kv_cache7seq_addEiiii, symObjAddr: 0x2A9C, symBinAddr: 0x4CFA4, symSize: 0x1F0 }
  - { offset: 0x2C3C76, size: 0x8, addend: 0x0, symName: __ZN14llama_kv_cache7seq_addEiiii, symObjAddr: 0x2A9C, symBinAddr: 0x4CFA4, symSize: 0x1F0 }
  - { offset: 0x2C3E9A, size: 0x8, addend: 0x0, symName: __ZN14llama_kv_cache7seq_divEiiii, symObjAddr: 0x2C8C, symBinAddr: 0x4D194, symSize: 0x1F0 }
  - { offset: 0x2C3EEC, size: 0x8, addend: 0x0, symName: __ZN14llama_kv_cache7seq_divEiiii, symObjAddr: 0x2C8C, symBinAddr: 0x4D194, symSize: 0x1F0 }
  - { offset: 0x2C4136, size: 0x8, addend: 0x0, symName: __ZNK14llama_kv_cache11seq_pos_minEi, symObjAddr: 0x2E7C, symBinAddr: 0x4D384, symSize: 0x7C }
  - { offset: 0x2C41B3, size: 0x8, addend: 0x0, symName: __ZNK14llama_kv_cache11seq_pos_minEi, symObjAddr: 0x2E7C, symBinAddr: 0x4D384, symSize: 0x7C }
  - { offset: 0x2C42A5, size: 0x8, addend: 0x0, symName: __ZNK14llama_kv_cache11seq_pos_maxEi, symObjAddr: 0x2EF8, symBinAddr: 0x4D400, symSize: 0xB8 }
  - { offset: 0x2C434F, size: 0x8, addend: 0x0, symName: __ZNK14llama_kv_cache11seq_pos_maxEi, symObjAddr: 0x2EF8, symBinAddr: 0x4D400, symSize: 0xB8 }
  - { offset: 0x2C44D5, size: 0x8, addend: 0x0, symName: __ZNK14llama_kv_cache16memory_breakdownEv, symObjAddr: 0x2FB0, symBinAddr: 0x4D4B8, symSize: 0x1F8 }
  - { offset: 0x2C4A88, size: 0x8, addend: 0x0, symName: __ZNK14llama_kv_cache16memory_breakdownEv, symObjAddr: 0x2FB0, symBinAddr: 0x4D4B8, symSize: 0x1F8 }
  - { offset: 0x2C5971, size: 0x8, addend: 0x0, symName: __ZN14llama_kv_cache10init_batchER18llama_batch_allocrjb, symObjAddr: 0x31A8, symBinAddr: 0x4D6B0, symSize: 0x318 }
  - { offset: 0x2C848E, size: 0x8, addend: 0x0, symName: __ZNK14llama_kv_cache9find_slotERK12llama_ubatchb, symObjAddr: 0x47F8, symBinAddr: 0x4EB48, symSize: 0xC18 }
  - { offset: 0x2CA9F3, size: 0x8, addend: 0x0, symName: __ZN14llama_kv_cache9slot_infoC2ERKS0_, symObjAddr: 0x103A0, symBinAddr: 0x59EDC, symSize: 0x148 }
  - { offset: 0x2CB04F, size: 0x8, addend: 0x0, symName: __ZNSt3__16vectorIN14llama_kv_cache9slot_infoENS_9allocatorIS2_EEE24__emplace_back_slow_pathIJRKS2_EEEPS2_DpOT_, symObjAddr: 0x11FB8, symBinAddr: 0x5B5A8, symSize: 0x14C }
  - { offset: 0x2CB42F, size: 0x8, addend: 0x0, symName: __ZZN14llama_kv_cache7prepareERKNSt3__16vectorI12llama_ubatchNS0_9allocatorIS2_EEEEEN7state_tD1Ev, symObjAddr: 0x552C, symBinAddr: 0x4F87C, symSize: 0xD4 }
  - { offset: 0x2CBADF, size: 0x8, addend: 0x0, symName: __ZN14llama_kv_cache12apply_ubatchERKNS_9slot_infoERK12llama_ubatch, symObjAddr: 0x5600, symBinAddr: 0x4F950, symSize: 0xA2C }
  - { offset: 0x2CD49B, size: 0x8, addend: 0x0, symName: __ZN14llama_kv_cells3setERKNSt3__16vectorIjNS0_9allocatorIjEEEERKS_, symObjAddr: 0x602C, symBinAddr: 0x5037C, symSize: 0x250 }
  - { offset: 0x2CD4DF, size: 0x8, addend: 0x0, symName: __ZN14llama_kv_cells3setERKNSt3__16vectorIjNS0_9allocatorIjEEEERKS_, symObjAddr: 0x602C, symBinAddr: 0x5037C, symSize: 0x250 }
  - { offset: 0x2CDBD1, size: 0x8, addend: 0x0, symName: __ZNSt3__16vectorI14llama_kv_cellsNS_9allocatorIS1_EEE20__throw_length_errorB8ne200100Ev, symObjAddr: 0x11020, symBinAddr: 0x5A870, symSize: 0x14 }
  - { offset: 0x2CDBE9, size: 0x8, addend: 0x0, symName: __ZNSt3__19allocatorI14llama_kv_cellsE9constructB8ne200100IS1_JS1_EEEvPT_DpOT0_, symObjAddr: 0x11034, symBinAddr: 0x5A884, symSize: 0x124 }
  - { offset: 0x2CDBF4, size: 0x8, addend: 0x0, symName: __ZNSt3__16vectorIZN14llama_kv_cache7prepareERKNS0_I12llama_ubatchNS_9allocatorIS2_EEEEE7state_tNS3_IS8_EEE20__throw_length_errorB8ne200100Ev, symObjAddr: 0x122C8, symBinAddr: 0x5B8B8, symSize: 0x14 }
  - { offset: 0x2CDC0C, size: 0x8, addend: 0x0, symName: __ZNSt3__113unordered_mapIiNS_6vectorIjNS_9allocatorIjEEEENS_4hashIiEENS_8equal_toIiEENS2_INS_4pairIKiS4_EEEEED1B8ne200100Ev, symObjAddr: 0x122DC, symBinAddr: 0x5B8CC, symSize: 0x68 }
  - { offset: 0x2CDC17, size: 0x8, addend: 0x0, symName: __ZN14llama_kv_cache9slot_infoD1Ev, symObjAddr: 0x5410, symBinAddr: 0x4F760, symSize: 0x84 }
  - { offset: 0x2CDFF9, size: 0x8, addend: 0x0, symName: __ZN14llama_kv_cellsD1Ev, symObjAddr: 0x5494, symBinAddr: 0x4F7E4, symSize: 0x98 }
  - { offset: 0x2CE63A, size: 0x8, addend: 0x0, symName: __ZNSt3__16vectorIZN14llama_kv_cache7prepareERKNS0_I12llama_ubatchNS_9allocatorIS2_EEEEE7state_tNS3_IS8_EEED1B8ne200100Ev, symObjAddr: 0x627C, symBinAddr: 0x505CC, symSize: 0x58 }
  - { offset: 0x2CE7C0, size: 0x8, addend: 0x0, symName: __ZN14llama_kv_cache9init_fullEv, symObjAddr: 0x4584, symBinAddr: 0x4E8D4, symSize: 0x54 }
  - { offset: 0x2CE869, size: 0x8, addend: 0x0, symName: __ZN22llama_kv_cache_contextC2EP14llama_kv_cache, symObjAddr: 0xE9F0, symBinAddr: 0x58D40, symSize: 0x290 }
  - { offset: 0x2CF22F, size: 0x8, addend: 0x0, symName: __ZN14llama_kv_cache11init_updateEP13llama_contextb, symObjAddr: 0x45D8, symBinAddr: 0x4E928, symSize: 0x160 }
  - { offset: 0x2CF534, size: 0x8, addend: 0x0, symName: __ZNK14llama_kv_cache13get_has_shiftEv, symObjAddr: 0x4738, symBinAddr: 0x4EA88, symSize: 0xC0 }
  - { offset: 0x2CFC33, size: 0x8, addend: 0x0, symName: __ZNSt3__16vectorINS0_IjNS_9allocatorIjEEEENS1_IS3_EEE8__appendEm, symObjAddr: 0x10A2C, symBinAddr: 0x5A3B0, symSize: 0x180 }
  - { offset: 0x2D0076, size: 0x8, addend: 0x0, symName: __ZNSt3__19allocatorI14llama_kv_cellsE7destroyB8ne200100EPS1_, symObjAddr: 0x10BAC, symBinAddr: 0x5A530, symSize: 0x90 }
  - { offset: 0x2D021C, size: 0x8, addend: 0x0, symName: __ZN14llama_kv_cache6updateEP13llama_contextbRKNS_16stream_copy_infoE, symObjAddr: 0x62D4, symBinAddr: 0x50624, symSize: 0x338 }
  - { offset: 0x2D05EA, size: 0x8, addend: 0x0, symName: __ZNK14llama_kv_cache17build_graph_shiftEP16llm_graph_resultP13llama_context, symObjAddr: 0x660C, symBinAddr: 0x5095C, symSize: 0x2D0 }
  - { offset: 0x2D062B, size: 0x8, addend: 0x0, symName: __ZNK14llama_kv_cache17build_graph_shiftEP16llm_graph_resultP13llama_context, symObjAddr: 0x660C, symBinAddr: 0x5095C, symSize: 0x2D0 }
  - { offset: 0x2D0E79, size: 0x8, addend: 0x0, symName: __ZNK14llama_kv_cache16build_rope_shiftERK13llama_cparamsP12ggml_contextP11ggml_tensorS6_S6_ff, symObjAddr: 0xC670, symBinAddr: 0x569C0, symSize: 0x110 }
  - { offset: 0x2D1015, size: 0x8, addend: 0x0, symName: __ZNK14llama_kv_cache13get_can_shiftEv, symObjAddr: 0x68DC, symBinAddr: 0x50C2C, symSize: 0x8 }
  - { offset: 0x2D103B, size: 0x8, addend: 0x0, symName: __ZNK14llama_kv_cache12get_n_streamEv, symObjAddr: 0x68E4, symBinAddr: 0x50C34, symSize: 0x8 }
  - { offset: 0x2D105D, size: 0x8, addend: 0x0, symName: __ZNK14llama_kv_cache8get_n_kvERKNS_9slot_infoE, symObjAddr: 0x68EC, symBinAddr: 0x50C3C, symSize: 0xCC }
  - { offset: 0x2D109C, size: 0x8, addend: 0x0, symName: __ZNK14llama_kv_cache8get_n_kvERKNS_9slot_infoE, symObjAddr: 0x68EC, symBinAddr: 0x50C3C, symSize: 0xCC }
  - { offset: 0x2D10BA, size: 0x8, addend: 0x0, symName: __ZNK14llama_kv_cache8get_n_kvERKNS_9slot_infoE, symObjAddr: 0x68EC, symBinAddr: 0x50C3C, symSize: 0xCC }
  - { offset: 0x2D10D7, size: 0x8, addend: 0x0, symName: __ZNK14llama_kv_cache8get_n_kvERKNS_9slot_infoE, symObjAddr: 0x68EC, symBinAddr: 0x50C3C, symSize: 0xCC }
  - { offset: 0x2D134F, size: 0x8, addend: 0x0, symName: __ZNK14llama_kv_cache5get_kEP12ggml_contextijRKNS_9slot_infoE, symObjAddr: 0x69B8, symBinAddr: 0x50D08, symSize: 0x200 }
  - { offset: 0x2D16DB, size: 0x8, addend: 0x0, symName: __ZNK14llama_kv_cache5get_vEP12ggml_contextijRKNS_9slot_infoE, symObjAddr: 0x6BB8, symBinAddr: 0x50F08, symSize: 0x294 }
  - { offset: 0x2D1726, size: 0x8, addend: 0x0, symName: __ZNK14llama_kv_cache5get_vEP12ggml_contextijRKNS_9slot_infoE, symObjAddr: 0x6BB8, symBinAddr: 0x50F08, symSize: 0x294 }
  - { offset: 0x2D1ACA, size: 0x8, addend: 0x0, symName: __ZNK14llama_kv_cache5cpy_kEP12ggml_contextP11ggml_tensorS3_iRKNS_9slot_infoE, symObjAddr: 0x6E4C, symBinAddr: 0x5119C, symSize: 0x1F8 }
  - { offset: 0x2D1AD5, size: 0x8, addend: 0x0, symName: __ZNK14llama_kv_cache5cpy_kEP12ggml_contextP11ggml_tensorS3_iRKNS_9slot_infoE, symObjAddr: 0x6E4C, symBinAddr: 0x5119C, symSize: 0x1F8 }
  - { offset: 0x2D1E9C, size: 0x8, addend: 0x0, symName: __ZNK14llama_kv_cache5cpy_vEP12ggml_contextP11ggml_tensorS3_iRKNS_9slot_infoE, symObjAddr: 0x7044, symBinAddr: 0x51394, symSize: 0x2D0 }
  - { offset: 0x2D1EF3, size: 0x8, addend: 0x0, symName: __ZNK14llama_kv_cache5cpy_vEP12ggml_contextP11ggml_tensorS3_iRKNS_9slot_infoE, symObjAddr: 0x7044, symBinAddr: 0x51394, symSize: 0x2D0 }
  - { offset: 0x2D23B9, size: 0x8, addend: 0x0, symName: __ZNK14llama_kv_cache18build_input_k_idxsEP12ggml_contextRK12llama_ubatch, symObjAddr: 0x7314, symBinAddr: 0x51664, symSize: 0x34 }
  - { offset: 0x2D242D, size: 0x8, addend: 0x0, symName: __ZNK14llama_kv_cache18build_input_k_idxsEP12ggml_contextRK12llama_ubatch, symObjAddr: 0x7314, symBinAddr: 0x51664, symSize: 0x34 }
  - { offset: 0x2D2498, size: 0x8, addend: 0x0, symName: __ZNK14llama_kv_cache18build_input_v_idxsEP12ggml_contextRK12llama_ubatch, symObjAddr: 0x7348, symBinAddr: 0x51698, symSize: 0x54 }
  - { offset: 0x2D250B, size: 0x8, addend: 0x0, symName: __ZNK14llama_kv_cache16set_input_k_idxsEP11ggml_tensorPK12llama_ubatchRKNS_9slot_infoE, symObjAddr: 0x739C, symBinAddr: 0x516EC, symSize: 0x3F8 }
  - { offset: 0x2D26A8, size: 0x8, addend: 0x0, symName: __ZNK14llama_kv_cache16set_input_v_idxsEP11ggml_tensorPK12llama_ubatchRKNS_9slot_infoE, symObjAddr: 0x7794, symBinAddr: 0x51AE4, symSize: 0x5A4 }
  - { offset: 0x2D26CD, size: 0x8, addend: 0x0, symName: __ZNK14llama_kv_cache16set_input_v_idxsEP11ggml_tensorPK12llama_ubatchRKNS_9slot_infoE, symObjAddr: 0x7794, symBinAddr: 0x51AE4, symSize: 0x5A4 }
  - { offset: 0x2D29AC, size: 0x8, addend: 0x0, symName: __ZNK14llama_kv_cache17set_input_k_shiftEP11ggml_tensor, symObjAddr: 0x7D38, symBinAddr: 0x52088, symSize: 0x310 }
  - { offset: 0x2D29BF, size: 0x8, addend: 0x0, symName: __ZNK14llama_kv_cache17set_input_k_shiftEP11ggml_tensor, symObjAddr: 0x7D38, symBinAddr: 0x52088, symSize: 0x310 }
  - { offset: 0x2D2AD2, size: 0x8, addend: 0x0, symName: __ZNK14llama_kv_cache17set_input_kq_maskEP11ggml_tensorPK12llama_ubatchb, symObjAddr: 0x8048, symBinAddr: 0x52398, symSize: 0x4480 }
  - { offset: 0x2D54AB, size: 0x8, addend: 0x0, symName: __ZNK14llama_kv_cache17set_input_kq_maskEP11ggml_tensorPK12llama_ubatchb, symObjAddr: 0x8048, symBinAddr: 0x52398, symSize: 0x4480 }
  - { offset: 0x2E544A, size: 0x8, addend: 0x0, symName: __ZNSt3__112__hash_tableINS_17__hash_value_typeIiNS_6vectorIjNS_9allocatorIjEEEEEENS_22__unordered_map_hasherIiS6_NS_4hashIiEENS_8equal_toIiEELb1EEENS_21__unordered_map_equalIiS6_SB_S9_Lb1EEENS3_IS6_EEE25__emplace_unique_key_argsIiJRKNS_21piecewise_construct_tENS_5tupleIJRKiEEENSL_IJEEEEEENS_4pairINS_15__hash_iteratorIPNS_11__hash_nodeIS6_PvEEEEbEERKT_DpOT0_, symObjAddr: 0x123A0, symBinAddr: 0x5B990, symSize: 0x338 }
  - { offset: 0x2E5B82, size: 0x8, addend: 0x0, symName: __ZNSt3__112__hash_tableINS_17__hash_value_typeIijEENS_22__unordered_map_hasherIiS2_NS_4hashIiEENS_8equal_toIiEELb1EEENS_21__unordered_map_equalIiS2_S7_S5_Lb1EEENS_9allocatorIS2_EEE25__emplace_unique_key_argsIiJRKNS_21piecewise_construct_tENS_5tupleIJRKiEEENSI_IJEEEEEENS_4pairINS_15__hash_iteratorIPNS_11__hash_nodeIS2_PvEEEEbEERKT_DpOT0_, symObjAddr: 0x128B8, symBinAddr: 0x5BEA8, symSize: 0x328 }
  - { offset: 0x2E62C6, size: 0x8, addend: 0x0, symName: __ZNSt3__16vectorI14llama_kv_cellsNS_9allocatorIS1_EEE20__throw_out_of_rangeB8ne200100Ev, symObjAddr: 0x1238C, symBinAddr: 0x5B97C, symSize: 0x14 }
  - { offset: 0x2E62DE, size: 0x8, addend: 0x0, symName: __ZNSt3__112__hash_tableINS_17__hash_value_typeIiNS_6vectorIjNS_9allocatorIjEEEEEENS_22__unordered_map_hasherIiS6_NS_4hashIiEENS_8equal_toIiEELb1EEENS_21__unordered_map_equalIiS6_SB_S9_Lb1EEENS3_IS6_EEE25__emplace_unique_key_argsIiJRKNS_21piecewise_construct_tENS_5tupleIJRKiEEENSL_IJEEEEEENS_4pairINS_15__hash_iteratorIPNS_11__hash_nodeIS6_PvEEEEbEERKT_DpOT0_, symObjAddr: 0x123A0, symBinAddr: 0x5B990, symSize: 0x338 }
  - { offset: 0x2E62E9, size: 0x8, addend: 0x0, symName: __ZNSt3__113unordered_mapIiNS_6vectorIjNS_9allocatorIjEEEENS_4hashIiEENS_8equal_toIiEENS2_INS_4pairIKiS4_EEEEED1B8ne200100Ev, symObjAddr: 0x122DC, symBinAddr: 0x5B8CC, symSize: 0x68 }
  - { offset: 0x2E6704, size: 0x8, addend: 0x0, symName: __ZNSt3__113unordered_mapIijNS_4hashIiEENS_8equal_toIiEENS_9allocatorINS_4pairIKijEEEEED1B8ne200100Ev, symObjAddr: 0x12344, symBinAddr: 0x5B934, symSize: 0x48 }
  - { offset: 0x2E69AD, size: 0x8, addend: 0x0, symName: __ZNK14llama_kv_cache20set_input_pos_bucketEP11ggml_tensorPK12llama_ubatch, symObjAddr: 0xC4C8, symBinAddr: 0x56818, symSize: 0x144 }
  - { offset: 0x2E6B72, size: 0x8, addend: 0x0, symName: __ZNK14llama_kv_cache10total_sizeEv, symObjAddr: 0xC60C, symBinAddr: 0x5695C, symSize: 0x64 }
  - { offset: 0x2E6BAA, size: 0x8, addend: 0x0, symName: __ZNK14llama_kv_cache10total_sizeEv, symObjAddr: 0xC60C, symBinAddr: 0x5695C, symSize: 0x64 }
  - { offset: 0x2E6DEB, size: 0x8, addend: 0x0, symName: __ZN23llm_graph_input_k_shift9set_inputEPK12llama_ubatch, symObjAddr: 0xC780, symBinAddr: 0x56AD0, symSize: 0x314 }
  - { offset: 0x2E6F28, size: 0x8, addend: 0x0, symName: __ZNK14llama_kv_cache11state_writeER16llama_io_write_iij, symObjAddr: 0xCA94, symBinAddr: 0x56DE4, symSize: 0x540 }
  - { offset: 0x2E76B1, size: 0x8, addend: 0x0, symName: __ZNK14llama_kv_cache11state_writeER16llama_io_write_iij, symObjAddr: 0xCA94, symBinAddr: 0x56DE4, symSize: 0x540 }
  - { offset: 0x2E83AB, size: 0x8, addend: 0x0, symName: __ZNK14llama_kv_cache16state_write_metaER16llama_io_write_iRKNS_13cell_ranges_tEi, symObjAddr: 0xCFD4, symBinAddr: 0x57324, symSize: 0x27C }
  - { offset: 0x2E8B63, size: 0x8, addend: 0x0, symName: __ZNK14llama_kv_cache16state_write_dataER16llama_io_write_iRKNS_13cell_ranges_tE, symObjAddr: 0xD250, symBinAddr: 0x575A0, symSize: 0x384 }
  - { offset: 0x2E9384, size: 0x8, addend: 0x0, symName: __ZNSt3__16vectorINS_4pairIjjEENS_9allocatorIS2_EEE20__throw_length_errorB8ne200100Ev, symObjAddr: 0x12D60, symBinAddr: 0x5C350, symSize: 0x14 }
  - { offset: 0x2E939C, size: 0x8, addend: 0x0, symName: __ZNSt3__16vectorIN14llama_kv_cache9slot_infoENS_9allocatorIS2_EEE8__appendEm, symObjAddr: 0x12D74, symBinAddr: 0x5C364, symSize: 0x1D8 }
  - { offset: 0x2E968D, size: 0x8, addend: 0x0, symName: __ZN14llama_kv_cache10state_readER15llama_io_read_iij, symObjAddr: 0xD5D4, symBinAddr: 0x57924, symSize: 0x29C }
  - { offset: 0x2E9D13, size: 0x8, addend: 0x0, symName: __ZN14llama_kv_cache15state_read_metaER15llama_io_read_ijjRNS_9slot_infoEi, symObjAddr: 0xD870, symBinAddr: 0x57BC0, symSize: 0x834 }
  - { offset: 0x2EAEDF, size: 0x8, addend: 0x0, symName: __ZN14llama_kv_cache15state_read_dataER15llama_io_read_ijjRKNS_9slot_infoE, symObjAddr: 0xE0A4, symBinAddr: 0x583F4, symSize: 0x8DC }
  - { offset: 0x2EBB4C, size: 0x8, addend: 0x0, symName: __ZN22llama_kv_cache_contextC2E19llama_memory_status, symObjAddr: 0xE980, symBinAddr: 0x58CD0, symSize: 0x38 }
  - { offset: 0x2EC820, size: 0x8, addend: 0x0, symName: __ZN22llama_kv_cache_contextC2E19llama_memory_status, symObjAddr: 0xE980, symBinAddr: 0x58CD0, symSize: 0x38 }
  - { offset: 0x2EC8C4, size: 0x8, addend: 0x0, symName: __ZN22llama_kv_cache_contextC1E19llama_memory_status, symObjAddr: 0xE9B8, symBinAddr: 0x58D08, symSize: 0x38 }
  - { offset: 0x2EC8ED, size: 0x8, addend: 0x0, symName: __ZN22llama_kv_cache_contextC1E19llama_memory_status, symObjAddr: 0xE9B8, symBinAddr: 0x58D08, symSize: 0x38 }
  - { offset: 0x2ECB1A, size: 0x8, addend: 0x0, symName: __ZNSt3__16vectorIN14llama_kv_cache9slot_infoENS_9allocatorIS2_EEE6resizeEm, symObjAddr: 0xEC80, symBinAddr: 0x58FD0, symSize: 0xF0 }
  - { offset: 0x2ED021, size: 0x8, addend: 0x0, symName: __ZNSt3__16vectorIN14llama_kv_cache9slot_infoENS_9allocatorIS2_EEE8__appendEm, symObjAddr: 0x12D74, symBinAddr: 0x5C364, symSize: 0x1D8 }
  - { offset: 0x2ED568, size: 0x8, addend: 0x0, symName: __ZN22llama_kv_cache_contextC1EP14llama_kv_cache, symObjAddr: 0xED70, symBinAddr: 0x590C0, symSize: 0x4 }
  - { offset: 0x2ED592, size: 0x8, addend: 0x0, symName: __ZN22llama_kv_cache_contextC1EP14llama_kv_cache, symObjAddr: 0xED70, symBinAddr: 0x590C0, symSize: 0x4 }
  - { offset: 0x2ED5AC, size: 0x8, addend: 0x0, symName: __ZN22llama_kv_cache_contextC2EP14llama_kv_cacheP13llama_contextbNS0_16stream_copy_infoE, symObjAddr: 0xED74, symBinAddr: 0x590C4, symSize: 0x8C }
  - { offset: 0x2ED74B, size: 0x8, addend: 0x0, symName: __ZN22llama_kv_cache_contextC1EP14llama_kv_cacheP13llama_contextbNS0_16stream_copy_infoE, symObjAddr: 0xEE00, symBinAddr: 0x59150, symSize: 0x8C }
  - { offset: 0x2ED922, size: 0x8, addend: 0x0, symName: __ZN22llama_kv_cache_contextC2EP14llama_kv_cacheNSt3__16vectorINS0_9slot_infoENS2_9allocatorIS4_EEEENS3_I12llama_ubatchNS5_IS8_EEEE, symObjAddr: 0xEE8C, symBinAddr: 0x591DC, symSize: 0x6C }
  - { offset: 0x2EDA72, size: 0x8, addend: 0x0, symName: __ZN22llama_kv_cache_contextC1EP14llama_kv_cacheNSt3__16vectorINS0_9slot_infoENS2_9allocatorIS4_EEEENS3_I12llama_ubatchNS5_IS8_EEEE, symObjAddr: 0xEEF8, symBinAddr: 0x59248, symSize: 0x6C }
  - { offset: 0x2EDAAB, size: 0x8, addend: 0x0, symName: __ZN22llama_kv_cache_contextC1EP14llama_kv_cacheNSt3__16vectorINS0_9slot_infoENS2_9allocatorIS4_EEEENS3_I12llama_ubatchNS5_IS8_EEEE, symObjAddr: 0xEEF8, symBinAddr: 0x59248, symSize: 0x6C }
  - { offset: 0x2EDC12, size: 0x8, addend: 0x0, symName: __ZN22llama_kv_cache_contextD2Ev, symObjAddr: 0xEF64, symBinAddr: 0x592B4, symSize: 0x158 }
  - { offset: 0x2EE650, size: 0x8, addend: 0x0, symName: __ZN22llama_kv_cache_contextD1Ev, symObjAddr: 0xF0BC, symBinAddr: 0x5940C, symSize: 0x4 }
  - { offset: 0x2EE673, size: 0x8, addend: 0x0, symName: __ZN22llama_kv_cache_contextD1Ev, symObjAddr: 0xF0BC, symBinAddr: 0x5940C, symSize: 0x4 }
  - { offset: 0x2EE6A3, size: 0x8, addend: 0x0, symName: __ZN22llama_kv_cache_contextD0Ev, symObjAddr: 0xF0C0, symBinAddr: 0x59410, symSize: 0x14 }
  - { offset: 0x2EE701, size: 0x8, addend: 0x0, symName: __ZN22llama_kv_cache_context4nextEv, symObjAddr: 0xF0D4, symBinAddr: 0x59424, symSize: 0x38 }
  - { offset: 0x2EE7DC, size: 0x8, addend: 0x0, symName: __ZN22llama_kv_cache_context5applyEv, symObjAddr: 0xF10C, symBinAddr: 0x5945C, symSize: 0x13C }
  - { offset: 0x2EEAD5, size: 0x8, addend: 0x0, symName: __ZNK22llama_kv_cache_context10get_statusEv, symObjAddr: 0xF248, symBinAddr: 0x59598, symSize: 0x8 }
  - { offset: 0x2EEB21, size: 0x8, addend: 0x0, symName: __ZNK22llama_kv_cache_context10get_ubatchEv, symObjAddr: 0xF250, symBinAddr: 0x595A0, symSize: 0x14 }
  - { offset: 0x2EEB72, size: 0x8, addend: 0x0, symName: __ZNK22llama_kv_cache_context8get_n_kvEv, symObjAddr: 0xF264, symBinAddr: 0x595B4, symSize: 0x8 }
  - { offset: 0x2EEBBE, size: 0x8, addend: 0x0, symName: __ZNK22llama_kv_cache_context5get_kEP12ggml_contexti, symObjAddr: 0xF26C, symBinAddr: 0x595BC, symSize: 0x1C }
  - { offset: 0x2EEC48, size: 0x8, addend: 0x0, symName: __ZNK22llama_kv_cache_context5get_vEP12ggml_contexti, symObjAddr: 0xF288, symBinAddr: 0x595D8, symSize: 0x1C }
  - { offset: 0x2EECD2, size: 0x8, addend: 0x0, symName: __ZNK22llama_kv_cache_context5cpy_kEP12ggml_contextP11ggml_tensorS3_i, symObjAddr: 0xF2A4, symBinAddr: 0x595F4, symSize: 0x8 }
  - { offset: 0x2EED5F, size: 0x8, addend: 0x0, symName: __ZNK22llama_kv_cache_context5cpy_vEP12ggml_contextP11ggml_tensorS3_i, symObjAddr: 0xF2AC, symBinAddr: 0x595FC, symSize: 0x8 }
  - { offset: 0x2EEE35, size: 0x8, addend: 0x0, symName: __ZNK22llama_kv_cache_context18build_input_k_idxsEP12ggml_contextRK12llama_ubatch, symObjAddr: 0xF2B4, symBinAddr: 0x59604, symSize: 0x34 }
  - { offset: 0x2EEF21, size: 0x8, addend: 0x0, symName: __ZNK22llama_kv_cache_context18build_input_v_idxsEP12ggml_contextRK12llama_ubatch, symObjAddr: 0xF2E8, symBinAddr: 0x59638, symSize: 0x58 }
  - { offset: 0x2EEFD2, size: 0x8, addend: 0x0, symName: __ZNK22llama_kv_cache_context17set_input_k_shiftEP11ggml_tensor, symObjAddr: 0xF340, symBinAddr: 0x59690, symSize: 0x310 }
  - { offset: 0x2EF114, size: 0x8, addend: 0x0, symName: __ZNK22llama_kv_cache_context16set_input_k_idxsEP11ggml_tensorPK12llama_ubatch, symObjAddr: 0xF650, symBinAddr: 0x599A0, symSize: 0x18 }
  - { offset: 0x2EF127, size: 0x8, addend: 0x0, symName: __ZNK22llama_kv_cache_context16set_input_k_idxsEP11ggml_tensorPK12llama_ubatch, symObjAddr: 0xF650, symBinAddr: 0x599A0, symSize: 0x18 }
  - { offset: 0x2EF1B1, size: 0x8, addend: 0x0, symName: __ZNK22llama_kv_cache_context16set_input_v_idxsEP11ggml_tensorPK12llama_ubatch, symObjAddr: 0xF668, symBinAddr: 0x599B8, symSize: 0x18 }
  - { offset: 0x2EF23B, size: 0x8, addend: 0x0, symName: __ZNK22llama_kv_cache_context17set_input_kq_maskEP11ggml_tensorPK12llama_ubatchb, symObjAddr: 0xF680, symBinAddr: 0x599D0, symSize: 0x8 }
  - { offset: 0x2EF2B8, size: 0x8, addend: 0x0, symName: __ZNK22llama_kv_cache_context20set_input_pos_bucketEP11ggml_tensorPK12llama_ubatch, symObjAddr: 0xF688, symBinAddr: 0x599D8, symSize: 0x8 }
  - { offset: 0x2EF31B, size: 0x8, addend: 0x0, symName: __ZN14llama_kv_cacheD1Ev, symObjAddr: 0xF690, symBinAddr: 0x599E0, symSize: 0x4 }
  - { offset: 0x2EF33E, size: 0x8, addend: 0x0, symName: __ZN14llama_kv_cacheD1Ev, symObjAddr: 0xF690, symBinAddr: 0x599E0, symSize: 0x4 }
  - { offset: 0x2EF351, size: 0x8, addend: 0x0, symName: __ZN14llama_kv_cacheD2Ev, symObjAddr: 0x1089C, symBinAddr: 0x5A220, symSize: 0x190 }
  - { offset: 0x2F0323, size: 0x8, addend: 0x0, symName: __ZN14llama_kv_cacheD0Ev, symObjAddr: 0xF694, symBinAddr: 0x599E4, symSize: 0x14 }
  - { offset: 0x2F037D, size: 0x8, addend: 0x0, symName: __ZN23llm_graph_input_k_shiftD1Ev, symObjAddr: 0xF6A8, symBinAddr: 0x599F8, symSize: 0x4 }
  - { offset: 0x2F03A6, size: 0x8, addend: 0x0, symName: __ZN23llm_graph_input_k_shiftD0Ev, symObjAddr: 0xF6AC, symBinAddr: 0x599FC, symSize: 0x4 }
  - { offset: 0x2F07A5, size: 0x8, addend: 0x0, symName: __ZNSt3__16vectorI17llama_kv_cell_extNS_9allocatorIS1_EEE20__throw_length_errorB8ne200100Ev, symObjAddr: 0xF9B8, symBinAddr: 0x59B20, symSize: 0x14 }
  - { offset: 0x2F07BD, size: 0x8, addend: 0x0, symName: __ZNSt3__16vectorINS_6bitsetILm256EEENS_9allocatorIS2_EEE8__appendEm, symObjAddr: 0xF9CC, symBinAddr: 0x59B34, symSize: 0x120 }
  - { offset: 0x2F0ECD, size: 0x8, addend: 0x0, symName: __ZNSt3__16vectorINS0_IjNS_9allocatorIjEEEENS1_IS3_EEE20__throw_length_errorB8ne200100Ev, symObjAddr: 0x1056C, symBinAddr: 0x5A0A8, symSize: 0x14 }
  - { offset: 0x2F0EE5, size: 0x8, addend: 0x0, symName: __ZNSt3__135__uninitialized_allocator_copy_implB8ne200100INS_9allocatorINS_6vectorIjNS1_IjEEEEEEPS4_S6_S6_EET2_RT_T0_T1_S7_, symObjAddr: 0x10580, symBinAddr: 0x5A0BC, symSize: 0xF8 }
  - { offset: 0x2F0EF0, size: 0x8, addend: 0x0, symName: __ZNSt3__128__exception_guard_exceptionsINS_6vectorINS1_IjNS_9allocatorIjEEEENS2_IS4_EEE16__destroy_vectorEED1B8ne200100Ev, symObjAddr: 0x104E8, symBinAddr: 0x5A024, symSize: 0x84 }
  - { offset: 0x2F121D, size: 0x8, addend: 0x0, symName: __ZNSt3__128__exception_guard_exceptionsINS_29_AllocatorDestroyRangeReverseINS_9allocatorINS_6vectorIjNS2_IjEEEEEEPS5_EEED1B8ne200100Ev, symObjAddr: 0x10678, symBinAddr: 0x5A1B4, symSize: 0x6C }
  - { offset: 0x2F23B7, size: 0x8, addend: 0x0, symName: __ZNSt3__19allocatorI14llama_kv_cellsE9constructB8ne200100IS1_JS1_EEEvPT_DpOT0_, symObjAddr: 0x11034, symBinAddr: 0x5A884, symSize: 0x124 }
  - { offset: 0x2F23E7, size: 0x8, addend: 0x0, symName: __ZNSt3__19allocatorI14llama_kv_cellsE9constructB8ne200100IS1_JS1_EEEvPT_DpOT0_, symObjAddr: 0x11034, symBinAddr: 0x5A884, symSize: 0x124 }
  - { offset: 0x2F2409, size: 0x8, addend: 0x0, symName: __ZNSt3__19allocatorI14llama_kv_cellsE9constructB8ne200100IS1_JS1_EEEvPT_DpOT0_, symObjAddr: 0x11034, symBinAddr: 0x5A884, symSize: 0x124 }
  - { offset: 0x2F2BD7, size: 0x8, addend: 0x0, symName: __ZNSt3__112__hash_tableINS_17__hash_value_typeIiiEENS_22__unordered_map_hasherIiS2_NS_4hashIiEENS_8equal_toIiEELb1EEENS_21__unordered_map_equalIiS2_S7_S5_Lb1EEENS_9allocatorIS2_EEE11__do_rehashILb1EEEvm, symObjAddr: 0x116FC, symBinAddr: 0x5AF04, symSize: 0x180 }
  - { offset: 0x2F2F64, size: 0x8, addend: 0x0, symName: __ZNSt3__16vectorIN14llama_kv_cache8kv_layerENS_9allocatorIS2_EEE24__emplace_back_slow_pathIJS2_EEEPS2_DpOT_, symObjAddr: 0x1187C, symBinAddr: 0x5B084, symSize: 0x1D4 }
  - { offset: 0x2F3165, size: 0x8, addend: 0x0, symName: __ZNSt3__16vectorIN14llama_kv_cache8kv_layerENS_9allocatorIS2_EEE20__throw_length_errorB8ne200100Ev, symObjAddr: 0x11A50, symBinAddr: 0x5B258, symSize: 0x14 }
  - { offset: 0x2F317D, size: 0x8, addend: 0x0, symName: __ZNSt3__112__hash_tableINS_17__hash_value_typeIiiEENS_22__unordered_map_hasherIiS2_NS_4hashIiEENS_8equal_toIiEELb1EEENS_21__unordered_map_equalIiS2_S7_S5_Lb1EEENS_9allocatorIS2_EEE25__emplace_unique_key_argsIiJRKNS_21piecewise_construct_tENS_5tupleIJRKiEEENSI_IJEEEEEENS_4pairINS_15__hash_iteratorIPNS_11__hash_nodeIS2_PvEEEEbEERKT_DpOT0_, symObjAddr: 0x11A64, symBinAddr: 0x5B26C, symSize: 0x328 }
  - { offset: 0x2F349D, size: 0x8, addend: 0x0, symName: __ZNSt3__16vectorIN14llama_kv_cache9slot_infoENS_9allocatorIS2_EEE24__emplace_back_slow_pathIJRKS2_EEEPS2_DpOT_, symObjAddr: 0x11FB8, symBinAddr: 0x5B5A8, symSize: 0x14C }
  - { offset: 0x2F3616, size: 0x8, addend: 0x0, symName: __ZNSt3__16vectorIN14llama_kv_cache9slot_infoENS_9allocatorIS2_EEE20__throw_length_errorB8ne200100Ev, symObjAddr: 0x12104, symBinAddr: 0x5B6F4, symSize: 0x14 }
  - { offset: 0x2F362E, size: 0x8, addend: 0x0, symName: __ZNSt3__134__uninitialized_allocator_relocateB8ne200100INS_9allocatorIN14llama_kv_cache9slot_infoEEEPS3_EEvRT_T0_S8_S8_, symObjAddr: 0x12118, symBinAddr: 0x5B708, symSize: 0xF8 }
  - { offset: 0x2F3639, size: 0x8, addend: 0x0, symName: __ZNSt3__114__split_bufferIN14llama_kv_cache9slot_infoERNS_9allocatorIS2_EEED2Ev, symObjAddr: 0x12210, symBinAddr: 0x5B800, symSize: 0xB8 }
  - { offset: 0x2F4144, size: 0x8, addend: 0x0, symName: __ZNSt3__112__hash_tableINS_17__hash_value_typeIiNS_6vectorIjNS_9allocatorIjEEEEEENS_22__unordered_map_hasherIiS6_NS_4hashIiEENS_8equal_toIiEELb1EEENS_21__unordered_map_equalIiS6_SB_S9_Lb1EEENS3_IS6_EEE11__do_rehashILb1EEEvm, symObjAddr: 0x12738, symBinAddr: 0x5BD28, symSize: 0x180 }
  - { offset: 0x2F44D1, size: 0x8, addend: 0x0, symName: __ZNSt3__112__hash_tableINS_17__hash_value_typeIijEENS_22__unordered_map_hasherIiS2_NS_4hashIiEENS_8equal_toIiEELb1EEENS_21__unordered_map_equalIiS2_S7_S5_Lb1EEENS_9allocatorIS2_EEE25__emplace_unique_key_argsIiJRKNS_21piecewise_construct_tENS_5tupleIJRKiEEENSI_IJEEEEEENS_4pairINS_15__hash_iteratorIPNS_11__hash_nodeIS2_PvEEEEbEERKT_DpOT0_, symObjAddr: 0x128B8, symBinAddr: 0x5BEA8, symSize: 0x328 }
  - { offset: 0x2F44E6, size: 0x8, addend: 0x0, symName: __ZNSt3__110unique_ptrINS_11__hash_nodeINS_17__hash_value_typeIiNS_6vectorIjNS_9allocatorIjEEEEEEPvEENS_22__hash_node_destructorINS4_IS9_EEEEED1B8ne200100Ev, symObjAddr: 0x126D8, symBinAddr: 0x5BCC8, symSize: 0x60 }
  - { offset: 0x2F4CFB, size: 0x8, addend: 0x0, symName: __ZNSt3__112__hash_tableINS_17__hash_value_typeIijEENS_22__unordered_map_hasherIiS2_NS_4hashIiEENS_8equal_toIiEELb1EEENS_21__unordered_map_equalIiS2_S7_S5_Lb1EEENS_9allocatorIS2_EEE11__do_rehashILb1EEEvm, symObjAddr: 0x12BE0, symBinAddr: 0x5C1D0, symSize: 0x180 }
  - { offset: 0x2F5088, size: 0x8, addend: 0x0, symName: __ZNSt3__16vectorINS_4pairIjjEENS_9allocatorIS2_EEE20__throw_length_errorB8ne200100Ev, symObjAddr: 0x12D60, symBinAddr: 0x5C350, symSize: 0x14 }
  - { offset: 0x2F7114, size: 0x8, addend: 0x0, symName: __ZN24llama_memory_hybrid_iswaC2ERK11llama_model9ggml_typeS3_bbjjjS3_S3_jjbbRKNSt3__18functionIFbiEEES9_, symObjAddr: 0x0, symBinAddr: 0x5C53C, symSize: 0x340 }
  - { offset: 0x322A52, size: 0x8, addend: 0x0, symName: __ZNSt3__111make_uniqueB8ne200100I32llama_memory_hybrid_iswa_contextJP24llama_memory_hybrid_iswaNS_6vectorIN14llama_kv_cache9slot_infoENS_9allocatorIS6_EEEES9_NS4_I12llama_ubatchNS7_ISA_EEEEELi0EEENS_10unique_ptrIT_NS_14default_deleteISE_EEEEDpOT0_, symObjAddr: 0x98C, symBinAddr: 0x5CE6C, symSize: 0x25C }
  - { offset: 0x32D80A, size: 0x8, addend: 0x0, symName: __ZN24llama_memory_hybrid_iswaC1ERK11llama_model9ggml_typeS3_bbjjjS3_S3_jjbbRKNSt3__18functionIFbiEEES9_, symObjAddr: 0x340, symBinAddr: 0x5C87C, symSize: 0x34 }
  - { offset: 0x32E42D, size: 0x8, addend: 0x0, symName: __ZN24llama_memory_hybrid_iswaC2ERK11llama_model9ggml_typeS3_bbjjjS3_S3_jjbbRKNSt3__18functionIFbiEEES9_, symObjAddr: 0x0, symBinAddr: 0x5C53C, symSize: 0x340 }
  - { offset: 0x32F986, size: 0x8, addend: 0x0, symName: __ZN24llama_memory_hybrid_iswa10init_batchER18llama_batch_allocrjb, symObjAddr: 0x374, symBinAddr: 0x5C8B0, symSize: 0x5BC }
  - { offset: 0x331ADC, size: 0x8, addend: 0x0, symName: __ZN32llama_memory_hybrid_iswa_contextC2EP24llama_memory_hybrid_iswaNSt3__16vectorIN14llama_kv_cache9slot_infoENS2_9allocatorIS5_EEEES8_NS3_I12llama_ubatchNS6_IS9_EEEE, symObjAddr: 0x1620, symBinAddr: 0x5D9A4, symSize: 0x5A4 }
  - { offset: 0x33369A, size: 0x8, addend: 0x0, symName: __ZN24llama_memory_hybrid_iswa9init_fullEv, symObjAddr: 0xD44, symBinAddr: 0x5D0C8, symSize: 0x54 }
  - { offset: 0x333740, size: 0x8, addend: 0x0, symName: __ZN32llama_memory_hybrid_iswa_contextC2EP24llama_memory_hybrid_iswa, symObjAddr: 0x13B8, symBinAddr: 0x5D73C, symSize: 0x120 }
  - { offset: 0x3339EF, size: 0x8, addend: 0x0, symName: __ZN24llama_memory_hybrid_iswa11init_updateEP13llama_contextb, symObjAddr: 0xD98, symBinAddr: 0x5D11C, symSize: 0x6C }
  - { offset: 0x333AD2, size: 0x8, addend: 0x0, symName: __ZN32llama_memory_hybrid_iswa_contextC2EP24llama_memory_hybrid_iswaP13llama_contextb, symObjAddr: 0x14DC, symBinAddr: 0x5D860, symSize: 0x140 }
  - { offset: 0x333D76, size: 0x8, addend: 0x0, symName: __ZNK24llama_memory_hybrid_iswa13get_can_shiftEv, symObjAddr: 0xE04, symBinAddr: 0x5D188, symSize: 0x10 }
  - { offset: 0x333DA1, size: 0x8, addend: 0x0, symName: __ZNK24llama_memory_hybrid_iswa13get_can_shiftEv, symObjAddr: 0xE04, symBinAddr: 0x5D188, symSize: 0x10 }
  - { offset: 0x333DC9, size: 0x8, addend: 0x0, symName: __ZN24llama_memory_hybrid_iswa5clearEb, symObjAddr: 0xE14, symBinAddr: 0x5D198, symSize: 0x40 }
  - { offset: 0x333E5D, size: 0x8, addend: 0x0, symName: __ZN24llama_memory_hybrid_iswa6seq_rmEiii, symObjAddr: 0xE54, symBinAddr: 0x5D1D8, symSize: 0x6C }
  - { offset: 0x333F1D, size: 0x8, addend: 0x0, symName: __ZN24llama_memory_hybrid_iswa6seq_cpEiiii, symObjAddr: 0xEC0, symBinAddr: 0x5D244, symSize: 0x68 }
  - { offset: 0x333FF3, size: 0x8, addend: 0x0, symName: __ZN24llama_memory_hybrid_iswa8seq_keepEi, symObjAddr: 0xF28, symBinAddr: 0x5D2AC, symSize: 0x40 }
  - { offset: 0x334087, size: 0x8, addend: 0x0, symName: __ZN24llama_memory_hybrid_iswa7seq_addEiiii, symObjAddr: 0xF68, symBinAddr: 0x5D2EC, symSize: 0x68 }
  - { offset: 0x33415D, size: 0x8, addend: 0x0, symName: __ZN24llama_memory_hybrid_iswa7seq_divEiiii, symObjAddr: 0xFD0, symBinAddr: 0x5D354, symSize: 0x68 }
  - { offset: 0x334233, size: 0x8, addend: 0x0, symName: __ZNK24llama_memory_hybrid_iswa11seq_pos_minEi, symObjAddr: 0x1038, symBinAddr: 0x5D3BC, symSize: 0x58 }
  - { offset: 0x3342CE, size: 0x8, addend: 0x0, symName: __ZNK24llama_memory_hybrid_iswa11seq_pos_maxEi, symObjAddr: 0x1090, symBinAddr: 0x5D414, symSize: 0x58 }
  - { offset: 0x33490B, size: 0x8, addend: 0x0, symName: __ZNK24llama_memory_hybrid_iswa16memory_breakdownEv, symObjAddr: 0x10E8, symBinAddr: 0x5D46C, symSize: 0x1C8 }
  - { offset: 0x33505F, size: 0x8, addend: 0x0, symName: __ZNK24llama_memory_hybrid_iswa11state_writeER16llama_io_write_iij, symObjAddr: 0x12B0, symBinAddr: 0x5D634, symSize: 0x58 }
  - { offset: 0x33511F, size: 0x8, addend: 0x0, symName: __ZN24llama_memory_hybrid_iswa10state_readER15llama_io_read_iij, symObjAddr: 0x1308, symBinAddr: 0x5D68C, symSize: 0x58 }
  - { offset: 0x3351F5, size: 0x8, addend: 0x0, symName: __ZNK24llama_memory_hybrid_iswa12get_mem_attnEv, symObjAddr: 0x1360, symBinAddr: 0x5D6E4, symSize: 0x8 }
  - { offset: 0x335219, size: 0x8, addend: 0x0, symName: __ZNK24llama_memory_hybrid_iswa12get_mem_attnEv, symObjAddr: 0x1360, symBinAddr: 0x5D6E4, symSize: 0x8 }
  - { offset: 0x33524B, size: 0x8, addend: 0x0, symName: __ZNK24llama_memory_hybrid_iswa12get_mem_recrEv, symObjAddr: 0x1368, symBinAddr: 0x5D6EC, symSize: 0x8 }
  - { offset: 0x33526F, size: 0x8, addend: 0x0, symName: __ZNK24llama_memory_hybrid_iswa12get_mem_recrEv, symObjAddr: 0x1368, symBinAddr: 0x5D6EC, symSize: 0x8 }
  - { offset: 0x33528B, size: 0x8, addend: 0x0, symName: __ZN32llama_memory_hybrid_iswa_contextC2E19llama_memory_status, symObjAddr: 0x1370, symBinAddr: 0x5D6F4, symSize: 0x24 }
  - { offset: 0x3352EE, size: 0x8, addend: 0x0, symName: __ZN32llama_memory_hybrid_iswa_contextC1E19llama_memory_status, symObjAddr: 0x1394, symBinAddr: 0x5D718, symSize: 0x24 }
  - { offset: 0x335317, size: 0x8, addend: 0x0, symName: __ZN32llama_memory_hybrid_iswa_contextC1E19llama_memory_status, symObjAddr: 0x1394, symBinAddr: 0x5D718, symSize: 0x24 }
  - { offset: 0x335469, size: 0x8, addend: 0x0, symName: __ZN32llama_memory_hybrid_iswa_contextC1EP24llama_memory_hybrid_iswa, symObjAddr: 0x14D8, symBinAddr: 0x5D85C, symSize: 0x4 }
  - { offset: 0x335493, size: 0x8, addend: 0x0, symName: __ZN32llama_memory_hybrid_iswa_contextC1EP24llama_memory_hybrid_iswa, symObjAddr: 0x14D8, symBinAddr: 0x5D85C, symSize: 0x4 }
  - { offset: 0x3354AD, size: 0x8, addend: 0x0, symName: __ZN32llama_memory_hybrid_iswa_contextC1EP24llama_memory_hybrid_iswaP13llama_contextb, symObjAddr: 0x161C, symBinAddr: 0x5D9A0, symSize: 0x4 }
  - { offset: 0x3354EA, size: 0x8, addend: 0x0, symName: __ZN32llama_memory_hybrid_iswa_contextC1EP24llama_memory_hybrid_iswaP13llama_contextb, symObjAddr: 0x161C, symBinAddr: 0x5D9A0, symSize: 0x4 }
  - { offset: 0x335A0C, size: 0x8, addend: 0x0, symName: __ZN32llama_memory_hybrid_iswa_contextC1EP24llama_memory_hybrid_iswaNSt3__16vectorIN14llama_kv_cache9slot_infoENS2_9allocatorIS5_EEEES8_NS3_I12llama_ubatchNS6_IS9_EEEE, symObjAddr: 0x1BC4, symBinAddr: 0x5DF48, symSize: 0x4 }
  - { offset: 0x335A4E, size: 0x8, addend: 0x0, symName: __ZN32llama_memory_hybrid_iswa_contextC1EP24llama_memory_hybrid_iswaNSt3__16vectorIN14llama_kv_cache9slot_infoENS2_9allocatorIS5_EEEES8_NS3_I12llama_ubatchNS6_IS9_EEEE, symObjAddr: 0x1BC4, symBinAddr: 0x5DF48, symSize: 0x4 }
  - { offset: 0x335A7D, size: 0x8, addend: 0x0, symName: __ZN32llama_memory_hybrid_iswa_context4nextEv, symObjAddr: 0x1BC8, symBinAddr: 0x5DF4C, symSize: 0x70 }
  - { offset: 0x335B18, size: 0x8, addend: 0x0, symName: __ZN32llama_memory_hybrid_iswa_context5applyEv, symObjAddr: 0x1C38, symBinAddr: 0x5DFBC, symSize: 0x44 }
  - { offset: 0x335BA5, size: 0x8, addend: 0x0, symName: __ZNK32llama_memory_hybrid_iswa_context10get_statusEv, symObjAddr: 0x1C7C, symBinAddr: 0x5E000, symSize: 0x8 }
  - { offset: 0x335BF1, size: 0x8, addend: 0x0, symName: __ZNK32llama_memory_hybrid_iswa_context10get_ubatchEv, symObjAddr: 0x1C84, symBinAddr: 0x5E008, symSize: 0x10 }
  - { offset: 0x335C57, size: 0x8, addend: 0x0, symName: __ZNK32llama_memory_hybrid_iswa_context8get_attnEv, symObjAddr: 0x1C94, symBinAddr: 0x5E018, symSize: 0x8 }
  - { offset: 0x335C83, size: 0x8, addend: 0x0, symName: __ZNK32llama_memory_hybrid_iswa_context8get_attnEv, symObjAddr: 0x1C94, symBinAddr: 0x5E018, symSize: 0x8 }
  - { offset: 0x335CA0, size: 0x8, addend: 0x0, symName: __ZNK32llama_memory_hybrid_iswa_context8get_recrEv, symObjAddr: 0x1C9C, symBinAddr: 0x5E020, symSize: 0x8 }
  - { offset: 0x335CCC, size: 0x8, addend: 0x0, symName: __ZNK32llama_memory_hybrid_iswa_context8get_recrEv, symObjAddr: 0x1C9C, symBinAddr: 0x5E020, symSize: 0x8 }
  - { offset: 0x335D8C, size: 0x8, addend: 0x0, symName: __ZN24llama_memory_hybrid_iswaD1Ev, symObjAddr: 0x1CA4, symBinAddr: 0x5E028, symSize: 0x5C }
  - { offset: 0x335F20, size: 0x8, addend: 0x0, symName: __ZN24llama_memory_hybrid_iswaD0Ev, symObjAddr: 0x1D00, symBinAddr: 0x5E084, symSize: 0x5C }
  - { offset: 0x3360D9, size: 0x8, addend: 0x0, symName: __ZN32llama_memory_hybrid_iswa_contextD1Ev, symObjAddr: 0x1D5C, symBinAddr: 0x5E0E0, symSize: 0xD4 }
  - { offset: 0x33649E, size: 0x8, addend: 0x0, symName: __ZN32llama_memory_hybrid_iswa_contextD0Ev, symObjAddr: 0x1E30, symBinAddr: 0x5E1B4, symSize: 0xD4 }
  - { offset: 0x33686E, size: 0x8, addend: 0x0, symName: '__ZNSt3__110__function6__funcIZN24llama_memory_hybrid_iswaC1ERK11llama_model9ggml_typeS6_bbjjjS6_S6_jjbbRKNS_8functionIFbiEEESB_E3$_0NS_9allocatorISC_EES8_ED1Ev', symObjAddr: 0x1F04, symBinAddr: 0x5E288, symSize: 0x4 }
  - { offset: 0x33689A, size: 0x8, addend: 0x0, symName: '__ZNSt3__110__function6__funcIZN24llama_memory_hybrid_iswaC1ERK11llama_model9ggml_typeS6_bbjjjS6_S6_jjbbRKNS_8functionIFbiEEESB_E3$_0NS_9allocatorISC_EES8_ED0Ev', symObjAddr: 0x1F08, symBinAddr: 0x5E28C, symSize: 0x4 }
  - { offset: 0x336951, size: 0x8, addend: 0x0, symName: '__ZNKSt3__110__function6__funcIZN24llama_memory_hybrid_iswaC1ERK11llama_model9ggml_typeS6_bbjjjS6_S6_jjbbRKNS_8functionIFbiEEESB_E3$_0NS_9allocatorISC_EES8_E7__cloneEv', symObjAddr: 0x1F0C, symBinAddr: 0x5E290, symSize: 0x34 }
  - { offset: 0x336AA3, size: 0x8, addend: 0x0, symName: '__ZNKSt3__110__function6__funcIZN24llama_memory_hybrid_iswaC1ERK11llama_model9ggml_typeS6_bbjjjS6_S6_jjbbRKNS_8functionIFbiEEESB_E3$_0NS_9allocatorISC_EES8_E7__cloneEPNS0_6__baseIS8_EE', symObjAddr: 0x1F40, symBinAddr: 0x5E2C4, symSize: 0x14 }
  - { offset: 0x336B10, size: 0x8, addend: 0x0, symName: '__ZNSt3__110__function6__funcIZN24llama_memory_hybrid_iswaC1ERK11llama_model9ggml_typeS6_bbjjjS6_S6_jjbbRKNS_8functionIFbiEEESB_E3$_0NS_9allocatorISC_EES8_E7destroyEv', symObjAddr: 0x1F54, symBinAddr: 0x5E2D8, symSize: 0x4 }
  - { offset: 0x336B65, size: 0x8, addend: 0x0, symName: '__ZNSt3__110__function6__funcIZN24llama_memory_hybrid_iswaC1ERK11llama_model9ggml_typeS6_bbjjjS6_S6_jjbbRKNS_8functionIFbiEEESB_E3$_0NS_9allocatorISC_EES8_E18destroy_deallocateEv', symObjAddr: 0x1F58, symBinAddr: 0x5E2DC, symSize: 0x4 }
  - { offset: 0x336B9A, size: 0x8, addend: 0x0, symName: '__ZNSt3__110__function6__funcIZN24llama_memory_hybrid_iswaC1ERK11llama_model9ggml_typeS6_bbjjjS6_S6_jjbbRKNS_8functionIFbiEEESB_E3$_0NS_9allocatorISC_EES8_E18destroy_deallocateEv', symObjAddr: 0x1F58, symBinAddr: 0x5E2DC, symSize: 0x4 }
  - { offset: 0x336BBD, size: 0x8, addend: 0x0, symName: '__ZNSt3__110__function6__funcIZN24llama_memory_hybrid_iswaC1ERK11llama_model9ggml_typeS6_bbjjjS6_S6_jjbbRKNS_8functionIFbiEEESB_E3$_0NS_9allocatorISC_EES8_E18destroy_deallocateEv', symObjAddr: 0x1F58, symBinAddr: 0x5E2DC, symSize: 0x4 }
  - { offset: 0x336BF0, size: 0x8, addend: 0x0, symName: '__ZNSt3__110__function6__funcIZN24llama_memory_hybrid_iswaC1ERK11llama_model9ggml_typeS6_bbjjjS6_S6_jjbbRKNS_8functionIFbiEEESB_E3$_0NS_9allocatorISC_EES8_E18destroy_deallocateEv', symObjAddr: 0x1F58, symBinAddr: 0x5E2DC, symSize: 0x4 }
  - { offset: 0x336C92, size: 0x8, addend: 0x0, symName: '__ZNSt3__110__function6__funcIZN24llama_memory_hybrid_iswaC1ERK11llama_model9ggml_typeS6_bbjjjS6_S6_jjbbRKNS_8functionIFbiEEESB_E3$_0NS_9allocatorISC_EES8_EclEOi', symObjAddr: 0x1F5C, symBinAddr: 0x5E2E0, symSize: 0x24 }
  - { offset: 0x336D96, size: 0x8, addend: 0x0, symName: '__ZNKSt3__110__function6__funcIZN24llama_memory_hybrid_iswaC1ERK11llama_model9ggml_typeS6_bbjjjS6_S6_jjbbRKNS_8functionIFbiEEESB_E3$_0NS_9allocatorISC_EES8_E6targetERKSt9type_info', symObjAddr: 0x1F80, symBinAddr: 0x5E304, symSize: 0x64 }
  - { offset: 0x336E61, size: 0x8, addend: 0x0, symName: '__ZNKSt3__110__function6__funcIZN24llama_memory_hybrid_iswaC1ERK11llama_model9ggml_typeS6_bbjjjS6_S6_jjbbRKNS_8functionIFbiEEESB_E3$_0NS_9allocatorISC_EES8_E11target_typeEv', symObjAddr: 0x1FE4, symBinAddr: 0x5E368, symSize: 0xC }
  - { offset: 0x336E84, size: 0x8, addend: 0x0, symName: '__ZNSt3__110__function6__funcIZN24llama_memory_hybrid_iswaC1ERK11llama_model9ggml_typeS6_bbjjjS6_S6_jjbbRKNS_8functionIFbiEEESB_E3$_1NS_9allocatorISC_EES8_ED1Ev', symObjAddr: 0x2018, symBinAddr: 0x5E374, symSize: 0x4 }
  - { offset: 0x336EB0, size: 0x8, addend: 0x0, symName: '__ZNSt3__110__function6__funcIZN24llama_memory_hybrid_iswaC1ERK11llama_model9ggml_typeS6_bbjjjS6_S6_jjbbRKNS_8functionIFbiEEESB_E3$_1NS_9allocatorISC_EES8_ED0Ev', symObjAddr: 0x201C, symBinAddr: 0x5E378, symSize: 0x4 }
  - { offset: 0x336F67, size: 0x8, addend: 0x0, symName: '__ZNKSt3__110__function6__funcIZN24llama_memory_hybrid_iswaC1ERK11llama_model9ggml_typeS6_bbjjjS6_S6_jjbbRKNS_8functionIFbiEEESB_E3$_1NS_9allocatorISC_EES8_E7__cloneEv', symObjAddr: 0x2020, symBinAddr: 0x5E37C, symSize: 0x34 }
  - { offset: 0x3370B9, size: 0x8, addend: 0x0, symName: '__ZNKSt3__110__function6__funcIZN24llama_memory_hybrid_iswaC1ERK11llama_model9ggml_typeS6_bbjjjS6_S6_jjbbRKNS_8functionIFbiEEESB_E3$_1NS_9allocatorISC_EES8_E7__cloneEPNS0_6__baseIS8_EE', symObjAddr: 0x2054, symBinAddr: 0x5E3B0, symSize: 0x14 }
  - { offset: 0x337126, size: 0x8, addend: 0x0, symName: '__ZNSt3__110__function6__funcIZN24llama_memory_hybrid_iswaC1ERK11llama_model9ggml_typeS6_bbjjjS6_S6_jjbbRKNS_8functionIFbiEEESB_E3$_1NS_9allocatorISC_EES8_E7destroyEv', symObjAddr: 0x2068, symBinAddr: 0x5E3C4, symSize: 0x4 }
  - { offset: 0x33717B, size: 0x8, addend: 0x0, symName: '__ZNSt3__110__function6__funcIZN24llama_memory_hybrid_iswaC1ERK11llama_model9ggml_typeS6_bbjjjS6_S6_jjbbRKNS_8functionIFbiEEESB_E3$_1NS_9allocatorISC_EES8_E18destroy_deallocateEv', symObjAddr: 0x206C, symBinAddr: 0x5E3C8, symSize: 0x4 }
  - { offset: 0x3371B0, size: 0x8, addend: 0x0, symName: '__ZNSt3__110__function6__funcIZN24llama_memory_hybrid_iswaC1ERK11llama_model9ggml_typeS6_bbjjjS6_S6_jjbbRKNS_8functionIFbiEEESB_E3$_1NS_9allocatorISC_EES8_E18destroy_deallocateEv', symObjAddr: 0x206C, symBinAddr: 0x5E3C8, symSize: 0x4 }
  - { offset: 0x3371D3, size: 0x8, addend: 0x0, symName: '__ZNSt3__110__function6__funcIZN24llama_memory_hybrid_iswaC1ERK11llama_model9ggml_typeS6_bbjjjS6_S6_jjbbRKNS_8functionIFbiEEESB_E3$_1NS_9allocatorISC_EES8_E18destroy_deallocateEv', symObjAddr: 0x206C, symBinAddr: 0x5E3C8, symSize: 0x4 }
  - { offset: 0x337206, size: 0x8, addend: 0x0, symName: '__ZNSt3__110__function6__funcIZN24llama_memory_hybrid_iswaC1ERK11llama_model9ggml_typeS6_bbjjjS6_S6_jjbbRKNS_8functionIFbiEEESB_E3$_1NS_9allocatorISC_EES8_E18destroy_deallocateEv', symObjAddr: 0x206C, symBinAddr: 0x5E3C8, symSize: 0x4 }
  - { offset: 0x3372A8, size: 0x8, addend: 0x0, symName: '__ZNSt3__110__function6__funcIZN24llama_memory_hybrid_iswaC1ERK11llama_model9ggml_typeS6_bbjjjS6_S6_jjbbRKNS_8functionIFbiEEESB_E3$_1NS_9allocatorISC_EES8_EclEOi', symObjAddr: 0x2070, symBinAddr: 0x5E3CC, symSize: 0x10 }
  - { offset: 0x337351, size: 0x8, addend: 0x0, symName: '__ZNKSt3__110__function6__funcIZN24llama_memory_hybrid_iswaC1ERK11llama_model9ggml_typeS6_bbjjjS6_S6_jjbbRKNS_8functionIFbiEEESB_E3$_1NS_9allocatorISC_EES8_E6targetERKSt9type_info', symObjAddr: 0x2080, symBinAddr: 0x5E3DC, symSize: 0x64 }
  - { offset: 0x337405, size: 0x8, addend: 0x0, symName: '__ZNKSt3__110__function6__funcIZN24llama_memory_hybrid_iswaC1ERK11llama_model9ggml_typeS6_bbjjjS6_S6_jjbbRKNS_8functionIFbiEEESB_E3$_1NS_9allocatorISC_EES8_E11target_typeEv', symObjAddr: 0x20E4, symBinAddr: 0x5E440, symSize: 0xC }
  - { offset: 0x3395F9, size: 0x8, addend: 0x0, symName: __ZN19llama_memory_hybridC2ERK11llama_model9ggml_typeS3_bjjj14llama_swa_typeS3_S3_jjbbRKNSt3__18functionIFbiEEESA_, symObjAddr: 0x0, symBinAddr: 0x5E44C, symSize: 0x340 }
  - { offset: 0x364DA6, size: 0x8, addend: 0x0, symName: __ZNSt3__111make_uniqueB8ne200100I27llama_memory_hybrid_contextJP19llama_memory_hybridNS_6vectorIN14llama_kv_cache9slot_infoENS_9allocatorIS6_EEEENS4_I12llama_ubatchNS7_ISA_EEEEELi0EEENS_10unique_ptrIT_NS_14default_deleteISE_EEEEDpOT0_, symObjAddr: 0x994, symBinAddr: 0x5ED84, symSize: 0x1B0 }
  - { offset: 0x36F07C, size: 0x8, addend: 0x0, symName: __ZN19llama_memory_hybridC1ERK11llama_model9ggml_typeS3_bjjj14llama_swa_typeS3_S3_jjbbRKNSt3__18functionIFbiEEESA_, symObjAddr: 0x340, symBinAddr: 0x5E78C, symSize: 0x34 }
  - { offset: 0x36FC9A, size: 0x8, addend: 0x0, symName: __ZN19llama_memory_hybridC2ERK11llama_model9ggml_typeS3_bjjj14llama_swa_typeS3_S3_jjbbRKNSt3__18functionIFbiEEESA_, symObjAddr: 0x0, symBinAddr: 0x5E44C, symSize: 0x340 }
  - { offset: 0x3711F3, size: 0x8, addend: 0x0, symName: __ZN19llama_memory_hybrid10init_batchER18llama_batch_allocrjb, symObjAddr: 0x374, symBinAddr: 0x5E7C0, symSize: 0x5C4 }
  - { offset: 0x372E71, size: 0x8, addend: 0x0, symName: __ZN27llama_memory_hybrid_contextC2EP19llama_memory_hybridNSt3__16vectorIN14llama_kv_cache9slot_infoENS2_9allocatorIS5_EEEENS3_I12llama_ubatchNS6_IS9_EEEE, symObjAddr: 0x1584, symBinAddr: 0x5F818, symSize: 0x4E8 }
  - { offset: 0x37447B, size: 0x8, addend: 0x0, symName: __ZN19llama_memory_hybrid9init_fullEv, symObjAddr: 0xCA0, symBinAddr: 0x5EF34, symSize: 0x54 }
  - { offset: 0x374521, size: 0x8, addend: 0x0, symName: __ZN27llama_memory_hybrid_contextC2EP19llama_memory_hybrid, symObjAddr: 0x131C, symBinAddr: 0x5F5B0, symSize: 0x120 }
  - { offset: 0x3747D0, size: 0x8, addend: 0x0, symName: __ZN19llama_memory_hybrid11init_updateEP13llama_contextb, symObjAddr: 0xCF4, symBinAddr: 0x5EF88, symSize: 0x6C }
  - { offset: 0x3748B3, size: 0x8, addend: 0x0, symName: __ZN27llama_memory_hybrid_contextC2EP19llama_memory_hybridP13llama_contextb, symObjAddr: 0x1440, symBinAddr: 0x5F6D4, symSize: 0x140 }
  - { offset: 0x374B57, size: 0x8, addend: 0x0, symName: __ZNK19llama_memory_hybrid13get_can_shiftEv, symObjAddr: 0xD60, symBinAddr: 0x5EFF4, symSize: 0x10 }
  - { offset: 0x374B82, size: 0x8, addend: 0x0, symName: __ZNK19llama_memory_hybrid13get_can_shiftEv, symObjAddr: 0xD60, symBinAddr: 0x5EFF4, symSize: 0x10 }
  - { offset: 0x374BAA, size: 0x8, addend: 0x0, symName: __ZN19llama_memory_hybrid5clearEb, symObjAddr: 0xD70, symBinAddr: 0x5F004, symSize: 0x40 }
  - { offset: 0x374C3E, size: 0x8, addend: 0x0, symName: __ZN19llama_memory_hybrid6seq_rmEiii, symObjAddr: 0xDB0, symBinAddr: 0x5F044, symSize: 0x6C }
  - { offset: 0x374CFE, size: 0x8, addend: 0x0, symName: __ZN19llama_memory_hybrid6seq_cpEiiii, symObjAddr: 0xE1C, symBinAddr: 0x5F0B0, symSize: 0x68 }
  - { offset: 0x374DD4, size: 0x8, addend: 0x0, symName: __ZN19llama_memory_hybrid8seq_keepEi, symObjAddr: 0xE84, symBinAddr: 0x5F118, symSize: 0x40 }
  - { offset: 0x374E68, size: 0x8, addend: 0x0, symName: __ZN19llama_memory_hybrid7seq_addEiiii, symObjAddr: 0xEC4, symBinAddr: 0x5F158, symSize: 0x68 }
  - { offset: 0x374F3E, size: 0x8, addend: 0x0, symName: __ZN19llama_memory_hybrid7seq_divEiiii, symObjAddr: 0xF2C, symBinAddr: 0x5F1C0, symSize: 0x68 }
  - { offset: 0x375014, size: 0x8, addend: 0x0, symName: __ZNK19llama_memory_hybrid11seq_pos_minEi, symObjAddr: 0xF94, symBinAddr: 0x5F228, symSize: 0x58 }
  - { offset: 0x3750AF, size: 0x8, addend: 0x0, symName: __ZNK19llama_memory_hybrid11seq_pos_maxEi, symObjAddr: 0xFEC, symBinAddr: 0x5F280, symSize: 0x58 }
  - { offset: 0x3756EC, size: 0x8, addend: 0x0, symName: __ZNK19llama_memory_hybrid16memory_breakdownEv, symObjAddr: 0x1044, symBinAddr: 0x5F2D8, symSize: 0x1C8 }
  - { offset: 0x375E40, size: 0x8, addend: 0x0, symName: __ZNK19llama_memory_hybrid11state_writeER16llama_io_write_iij, symObjAddr: 0x120C, symBinAddr: 0x5F4A0, symSize: 0x5C }
  - { offset: 0x375EEA, size: 0x8, addend: 0x0, symName: __ZN19llama_memory_hybrid10state_readER15llama_io_read_iij, symObjAddr: 0x1268, symBinAddr: 0x5F4FC, symSize: 0x5C }
  - { offset: 0x375FAA, size: 0x8, addend: 0x0, symName: __ZNK19llama_memory_hybrid12get_mem_attnEv, symObjAddr: 0x12C4, symBinAddr: 0x5F558, symSize: 0x8 }
  - { offset: 0x375FCE, size: 0x8, addend: 0x0, symName: __ZNK19llama_memory_hybrid12get_mem_attnEv, symObjAddr: 0x12C4, symBinAddr: 0x5F558, symSize: 0x8 }
  - { offset: 0x376000, size: 0x8, addend: 0x0, symName: __ZNK19llama_memory_hybrid12get_mem_recrEv, symObjAddr: 0x12CC, symBinAddr: 0x5F560, symSize: 0x8 }
  - { offset: 0x376024, size: 0x8, addend: 0x0, symName: __ZNK19llama_memory_hybrid12get_mem_recrEv, symObjAddr: 0x12CC, symBinAddr: 0x5F560, symSize: 0x8 }
  - { offset: 0x376040, size: 0x8, addend: 0x0, symName: __ZN27llama_memory_hybrid_contextC2E19llama_memory_status, symObjAddr: 0x12D4, symBinAddr: 0x5F568, symSize: 0x24 }
  - { offset: 0x3760A3, size: 0x8, addend: 0x0, symName: __ZN27llama_memory_hybrid_contextC1E19llama_memory_status, symObjAddr: 0x12F8, symBinAddr: 0x5F58C, symSize: 0x24 }
  - { offset: 0x3760CC, size: 0x8, addend: 0x0, symName: __ZN27llama_memory_hybrid_contextC1E19llama_memory_status, symObjAddr: 0x12F8, symBinAddr: 0x5F58C, symSize: 0x24 }
  - { offset: 0x37621E, size: 0x8, addend: 0x0, symName: __ZN27llama_memory_hybrid_contextC1EP19llama_memory_hybrid, symObjAddr: 0x143C, symBinAddr: 0x5F6D0, symSize: 0x4 }
  - { offset: 0x376248, size: 0x8, addend: 0x0, symName: __ZN27llama_memory_hybrid_contextC1EP19llama_memory_hybrid, symObjAddr: 0x143C, symBinAddr: 0x5F6D0, symSize: 0x4 }
  - { offset: 0x376262, size: 0x8, addend: 0x0, symName: __ZN27llama_memory_hybrid_contextC1EP19llama_memory_hybridP13llama_contextb, symObjAddr: 0x1580, symBinAddr: 0x5F814, symSize: 0x4 }
  - { offset: 0x37629F, size: 0x8, addend: 0x0, symName: __ZN27llama_memory_hybrid_contextC1EP19llama_memory_hybridP13llama_contextb, symObjAddr: 0x1580, symBinAddr: 0x5F814, symSize: 0x4 }
  - { offset: 0x3767C1, size: 0x8, addend: 0x0, symName: __ZN27llama_memory_hybrid_contextC1EP19llama_memory_hybridNSt3__16vectorIN14llama_kv_cache9slot_infoENS2_9allocatorIS5_EEEENS3_I12llama_ubatchNS6_IS9_EEEE, symObjAddr: 0x1A6C, symBinAddr: 0x5FD00, symSize: 0x4 }
  - { offset: 0x3767FB, size: 0x8, addend: 0x0, symName: __ZN27llama_memory_hybrid_contextC1EP19llama_memory_hybridNSt3__16vectorIN14llama_kv_cache9slot_infoENS2_9allocatorIS5_EEEENS3_I12llama_ubatchNS6_IS9_EEEE, symObjAddr: 0x1A6C, symBinAddr: 0x5FD00, symSize: 0x4 }
  - { offset: 0x376823, size: 0x8, addend: 0x0, symName: __ZN27llama_memory_hybrid_context4nextEv, symObjAddr: 0x1A70, symBinAddr: 0x5FD04, symSize: 0x70 }
  - { offset: 0x3768BE, size: 0x8, addend: 0x0, symName: __ZN27llama_memory_hybrid_context5applyEv, symObjAddr: 0x1AE0, symBinAddr: 0x5FD74, symSize: 0x44 }
  - { offset: 0x37694B, size: 0x8, addend: 0x0, symName: __ZNK27llama_memory_hybrid_context10get_statusEv, symObjAddr: 0x1B24, symBinAddr: 0x5FDB8, symSize: 0x8 }
  - { offset: 0x376996, size: 0x8, addend: 0x0, symName: __ZNK27llama_memory_hybrid_context10get_ubatchEv, symObjAddr: 0x1B2C, symBinAddr: 0x5FDC0, symSize: 0x10 }
  - { offset: 0x3769FC, size: 0x8, addend: 0x0, symName: __ZNK27llama_memory_hybrid_context8get_attnEv, symObjAddr: 0x1B3C, symBinAddr: 0x5FDD0, symSize: 0x8 }
  - { offset: 0x376A28, size: 0x8, addend: 0x0, symName: __ZNK27llama_memory_hybrid_context8get_attnEv, symObjAddr: 0x1B3C, symBinAddr: 0x5FDD0, symSize: 0x8 }
  - { offset: 0x376A45, size: 0x8, addend: 0x0, symName: __ZNK27llama_memory_hybrid_context8get_recrEv, symObjAddr: 0x1B44, symBinAddr: 0x5FDD8, symSize: 0x8 }
  - { offset: 0x376A71, size: 0x8, addend: 0x0, symName: __ZNK27llama_memory_hybrid_context8get_recrEv, symObjAddr: 0x1B44, symBinAddr: 0x5FDD8, symSize: 0x8 }
  - { offset: 0x376B31, size: 0x8, addend: 0x0, symName: __ZN19llama_memory_hybridD1Ev, symObjAddr: 0x1B4C, symBinAddr: 0x5FDE0, symSize: 0x5C }
  - { offset: 0x376CC5, size: 0x8, addend: 0x0, symName: __ZN19llama_memory_hybridD0Ev, symObjAddr: 0x1BA8, symBinAddr: 0x5FE3C, symSize: 0x5C }
  - { offset: 0x376E7E, size: 0x8, addend: 0x0, symName: __ZN27llama_memory_hybrid_contextD1Ev, symObjAddr: 0x1C04, symBinAddr: 0x5FE98, symSize: 0xD4 }
  - { offset: 0x377243, size: 0x8, addend: 0x0, symName: __ZN27llama_memory_hybrid_contextD0Ev, symObjAddr: 0x1CD8, symBinAddr: 0x5FF6C, symSize: 0xD4 }
  - { offset: 0x377613, size: 0x8, addend: 0x0, symName: '__ZNSt3__110__function6__funcIZN19llama_memory_hybridC1ERK11llama_model9ggml_typeS6_bjjj14llama_swa_typeS6_S6_jjbbRKNS_8functionIFbiEEESC_E3$_0NS_9allocatorISD_EES9_ED1Ev', symObjAddr: 0x1DAC, symBinAddr: 0x60040, symSize: 0x4 }
  - { offset: 0x37763F, size: 0x8, addend: 0x0, symName: '__ZNSt3__110__function6__funcIZN19llama_memory_hybridC1ERK11llama_model9ggml_typeS6_bjjj14llama_swa_typeS6_S6_jjbbRKNS_8functionIFbiEEESC_E3$_0NS_9allocatorISD_EES9_ED0Ev', symObjAddr: 0x1DB0, symBinAddr: 0x60044, symSize: 0x4 }
  - { offset: 0x3776F6, size: 0x8, addend: 0x0, symName: '__ZNKSt3__110__function6__funcIZN19llama_memory_hybridC1ERK11llama_model9ggml_typeS6_bjjj14llama_swa_typeS6_S6_jjbbRKNS_8functionIFbiEEESC_E3$_0NS_9allocatorISD_EES9_E7__cloneEv', symObjAddr: 0x1DB4, symBinAddr: 0x60048, symSize: 0x34 }
  - { offset: 0x377848, size: 0x8, addend: 0x0, symName: '__ZNKSt3__110__function6__funcIZN19llama_memory_hybridC1ERK11llama_model9ggml_typeS6_bjjj14llama_swa_typeS6_S6_jjbbRKNS_8functionIFbiEEESC_E3$_0NS_9allocatorISD_EES9_E7__cloneEPNS0_6__baseIS9_EE', symObjAddr: 0x1DE8, symBinAddr: 0x6007C, symSize: 0x14 }
  - { offset: 0x3778B5, size: 0x8, addend: 0x0, symName: '__ZNSt3__110__function6__funcIZN19llama_memory_hybridC1ERK11llama_model9ggml_typeS6_bjjj14llama_swa_typeS6_S6_jjbbRKNS_8functionIFbiEEESC_E3$_0NS_9allocatorISD_EES9_E7destroyEv', symObjAddr: 0x1DFC, symBinAddr: 0x60090, symSize: 0x4 }
  - { offset: 0x37790A, size: 0x8, addend: 0x0, symName: '__ZNSt3__110__function6__funcIZN19llama_memory_hybridC1ERK11llama_model9ggml_typeS6_bjjj14llama_swa_typeS6_S6_jjbbRKNS_8functionIFbiEEESC_E3$_0NS_9allocatorISD_EES9_E18destroy_deallocateEv', symObjAddr: 0x1E00, symBinAddr: 0x60094, symSize: 0x4 }
  - { offset: 0x37793F, size: 0x8, addend: 0x0, symName: '__ZNSt3__110__function6__funcIZN19llama_memory_hybridC1ERK11llama_model9ggml_typeS6_bjjj14llama_swa_typeS6_S6_jjbbRKNS_8functionIFbiEEESC_E3$_0NS_9allocatorISD_EES9_E18destroy_deallocateEv', symObjAddr: 0x1E00, symBinAddr: 0x60094, symSize: 0x4 }
  - { offset: 0x377962, size: 0x8, addend: 0x0, symName: '__ZNSt3__110__function6__funcIZN19llama_memory_hybridC1ERK11llama_model9ggml_typeS6_bjjj14llama_swa_typeS6_S6_jjbbRKNS_8functionIFbiEEESC_E3$_0NS_9allocatorISD_EES9_E18destroy_deallocateEv', symObjAddr: 0x1E00, symBinAddr: 0x60094, symSize: 0x4 }
  - { offset: 0x377995, size: 0x8, addend: 0x0, symName: '__ZNSt3__110__function6__funcIZN19llama_memory_hybridC1ERK11llama_model9ggml_typeS6_bjjj14llama_swa_typeS6_S6_jjbbRKNS_8functionIFbiEEESC_E3$_0NS_9allocatorISD_EES9_E18destroy_deallocateEv', symObjAddr: 0x1E00, symBinAddr: 0x60094, symSize: 0x4 }
  - { offset: 0x377A37, size: 0x8, addend: 0x0, symName: '__ZNSt3__110__function6__funcIZN19llama_memory_hybridC1ERK11llama_model9ggml_typeS6_bjjj14llama_swa_typeS6_S6_jjbbRKNS_8functionIFbiEEESC_E3$_0NS_9allocatorISD_EES9_EclEOi', symObjAddr: 0x1E04, symBinAddr: 0x60098, symSize: 0x24 }
  - { offset: 0x377B3B, size: 0x8, addend: 0x0, symName: '__ZNKSt3__110__function6__funcIZN19llama_memory_hybridC1ERK11llama_model9ggml_typeS6_bjjj14llama_swa_typeS6_S6_jjbbRKNS_8functionIFbiEEESC_E3$_0NS_9allocatorISD_EES9_E6targetERKSt9type_info', symObjAddr: 0x1E28, symBinAddr: 0x600BC, symSize: 0x64 }
  - { offset: 0x377C06, size: 0x8, addend: 0x0, symName: '__ZNKSt3__110__function6__funcIZN19llama_memory_hybridC1ERK11llama_model9ggml_typeS6_bjjj14llama_swa_typeS6_S6_jjbbRKNS_8functionIFbiEEESC_E3$_0NS_9allocatorISD_EES9_E11target_typeEv', symObjAddr: 0x1E8C, symBinAddr: 0x60120, symSize: 0xC }
  - { offset: 0x377C29, size: 0x8, addend: 0x0, symName: '__ZNSt3__110__function6__funcIZN19llama_memory_hybridC1ERK11llama_model9ggml_typeS6_bjjj14llama_swa_typeS6_S6_jjbbRKNS_8functionIFbiEEESC_E3$_1NS_9allocatorISD_EES9_ED1Ev', symObjAddr: 0x1EC0, symBinAddr: 0x6012C, symSize: 0x4 }
  - { offset: 0x377C55, size: 0x8, addend: 0x0, symName: '__ZNSt3__110__function6__funcIZN19llama_memory_hybridC1ERK11llama_model9ggml_typeS6_bjjj14llama_swa_typeS6_S6_jjbbRKNS_8functionIFbiEEESC_E3$_1NS_9allocatorISD_EES9_ED0Ev', symObjAddr: 0x1EC4, symBinAddr: 0x60130, symSize: 0x4 }
  - { offset: 0x377D0C, size: 0x8, addend: 0x0, symName: '__ZNKSt3__110__function6__funcIZN19llama_memory_hybridC1ERK11llama_model9ggml_typeS6_bjjj14llama_swa_typeS6_S6_jjbbRKNS_8functionIFbiEEESC_E3$_1NS_9allocatorISD_EES9_E7__cloneEv', symObjAddr: 0x1EC8, symBinAddr: 0x60134, symSize: 0x34 }
  - { offset: 0x377E5E, size: 0x8, addend: 0x0, symName: '__ZNKSt3__110__function6__funcIZN19llama_memory_hybridC1ERK11llama_model9ggml_typeS6_bjjj14llama_swa_typeS6_S6_jjbbRKNS_8functionIFbiEEESC_E3$_1NS_9allocatorISD_EES9_E7__cloneEPNS0_6__baseIS9_EE', symObjAddr: 0x1EFC, symBinAddr: 0x60168, symSize: 0x14 }
  - { offset: 0x377ECB, size: 0x8, addend: 0x0, symName: '__ZNSt3__110__function6__funcIZN19llama_memory_hybridC1ERK11llama_model9ggml_typeS6_bjjj14llama_swa_typeS6_S6_jjbbRKNS_8functionIFbiEEESC_E3$_1NS_9allocatorISD_EES9_E7destroyEv', symObjAddr: 0x1F10, symBinAddr: 0x6017C, symSize: 0x4 }
  - { offset: 0x377F20, size: 0x8, addend: 0x0, symName: '__ZNSt3__110__function6__funcIZN19llama_memory_hybridC1ERK11llama_model9ggml_typeS6_bjjj14llama_swa_typeS6_S6_jjbbRKNS_8functionIFbiEEESC_E3$_1NS_9allocatorISD_EES9_E18destroy_deallocateEv', symObjAddr: 0x1F14, symBinAddr: 0x60180, symSize: 0x4 }
  - { offset: 0x377F55, size: 0x8, addend: 0x0, symName: '__ZNSt3__110__function6__funcIZN19llama_memory_hybridC1ERK11llama_model9ggml_typeS6_bjjj14llama_swa_typeS6_S6_jjbbRKNS_8functionIFbiEEESC_E3$_1NS_9allocatorISD_EES9_E18destroy_deallocateEv', symObjAddr: 0x1F14, symBinAddr: 0x60180, symSize: 0x4 }
  - { offset: 0x377F78, size: 0x8, addend: 0x0, symName: '__ZNSt3__110__function6__funcIZN19llama_memory_hybridC1ERK11llama_model9ggml_typeS6_bjjj14llama_swa_typeS6_S6_jjbbRKNS_8functionIFbiEEESC_E3$_1NS_9allocatorISD_EES9_E18destroy_deallocateEv', symObjAddr: 0x1F14, symBinAddr: 0x60180, symSize: 0x4 }
  - { offset: 0x377FAB, size: 0x8, addend: 0x0, symName: '__ZNSt3__110__function6__funcIZN19llama_memory_hybridC1ERK11llama_model9ggml_typeS6_bjjj14llama_swa_typeS6_S6_jjbbRKNS_8functionIFbiEEESC_E3$_1NS_9allocatorISD_EES9_E18destroy_deallocateEv', symObjAddr: 0x1F14, symBinAddr: 0x60180, symSize: 0x4 }
  - { offset: 0x37804D, size: 0x8, addend: 0x0, symName: '__ZNSt3__110__function6__funcIZN19llama_memory_hybridC1ERK11llama_model9ggml_typeS6_bjjj14llama_swa_typeS6_S6_jjbbRKNS_8functionIFbiEEESC_E3$_1NS_9allocatorISD_EES9_EclEOi', symObjAddr: 0x1F18, symBinAddr: 0x60184, symSize: 0x10 }
  - { offset: 0x3780F6, size: 0x8, addend: 0x0, symName: '__ZNKSt3__110__function6__funcIZN19llama_memory_hybridC1ERK11llama_model9ggml_typeS6_bjjj14llama_swa_typeS6_S6_jjbbRKNS_8functionIFbiEEESC_E3$_1NS_9allocatorISD_EES9_E6targetERKSt9type_info', symObjAddr: 0x1F28, symBinAddr: 0x60194, symSize: 0x64 }
  - { offset: 0x3781AA, size: 0x8, addend: 0x0, symName: '__ZNKSt3__110__function6__funcIZN19llama_memory_hybridC1ERK11llama_model9ggml_typeS6_bjjj14llama_swa_typeS6_S6_jjbbRKNS_8functionIFbiEEESC_E3$_1NS_9allocatorISD_EES9_E11target_typeEv', symObjAddr: 0x1F8C, symBinAddr: 0x601F8, symSize: 0xC }
  - { offset: 0x3A2C53, size: 0x8, addend: 0x0, symName: __ZN22llama_memory_recurrentC2ERK11llama_model9ggml_typeS3_bjjRKNSt3__18functionIFbiEEE, symObjAddr: 0x0, symBinAddr: 0x60204, symSize: 0x788 }
  - { offset: 0x3A576C, size: 0x8, addend: 0x0, symName: __ZNSt3__16vectorIN22llama_memory_recurrent8mem_cellENS_9allocatorIS2_EEE8__appendEm, symObjAddr: 0x470C, symBinAddr: 0x643FC, symSize: 0x220 }
  - { offset: 0x3A5F68, size: 0x8, addend: 0x0, symName: __ZNSt3__16vectorIN22llama_memory_recurrent8mem_cellENS_9allocatorIS2_EEE20__throw_length_errorB8ne200100Ev, symObjAddr: 0x492C, symBinAddr: 0x6461C, symSize: 0x14 }
  - { offset: 0x3A5F73, size: 0x8, addend: 0x0, symName: __ZNSt3__16vectorIP11ggml_tensorNS_9allocatorIS2_EEE8__appendEm, symObjAddr: 0x4A68, symBinAddr: 0x646E4, symSize: 0x120 }
  - { offset: 0x3A64A1, size: 0x8, addend: 0x0, symName: __ZNSt3__16__treeINS_12__value_typeIP24ggml_backend_buffer_typeNS_10unique_ptrI12ggml_context20ggml_context_deleterEEEENS_19__map_value_compareIS3_S8_ZN22llama_memory_recurrentC1ERK11llama_model9ggml_typeSE_bjjRKNS_8functionIFbiEEEE28ggml_backend_buft_comparatorLb1EEENS_9allocatorIS8_EEE7destroyEPNS_11__tree_nodeIS8_PvEE, symObjAddr: 0x4A14, symBinAddr: 0x64690, symSize: 0x54 }
  - { offset: 0x3A686B, size: 0x8, addend: 0x0, symName: __ZNSt3__16vectorIN22llama_memory_recurrent8mem_cellENS_9allocatorIS2_EEED1B8ne200100Ev, symObjAddr: 0x8C4, symBinAddr: 0x60A44, symSize: 0x68 }
  - { offset: 0x3A6ACF, size: 0x8, addend: 0x0, symName: __ZNK22llama_memory_recurrent12size_r_bytesEv, symObjAddr: 0x788, symBinAddr: 0x6098C, symSize: 0x5C }
  - { offset: 0x3A6B7C, size: 0x8, addend: 0x0, symName: __ZNK22llama_memory_recurrent12size_s_bytesEv, symObjAddr: 0x7E4, symBinAddr: 0x609E8, symSize: 0x5C }
  - { offset: 0x3A70ED, size: 0x8, addend: 0x0, symName: __ZN22llama_memory_recurrentC1ERK11llama_model9ggml_typeS3_bjjRKNSt3__18functionIFbiEEE, symObjAddr: 0x92C, symBinAddr: 0x60AAC, symSize: 0x4 }
  - { offset: 0x3A7181, size: 0x8, addend: 0x0, symName: __ZN22llama_memory_recurrentC1ERK11llama_model9ggml_typeS3_bjjRKNSt3__18functionIFbiEEE, symObjAddr: 0x92C, symBinAddr: 0x60AAC, symSize: 0x4 }
  - { offset: 0x3A7273, size: 0x8, addend: 0x0, symName: __ZN22llama_memory_recurrent5clearEb, symObjAddr: 0x930, symBinAddr: 0x60AB0, symSize: 0xCC }
  - { offset: 0x3A7731, size: 0x8, addend: 0x0, symName: __ZN22llama_memory_recurrent6seq_rmEiii, symObjAddr: 0x9FC, symBinAddr: 0x60B7C, symSize: 0x2F0 }
  - { offset: 0x3A7EF4, size: 0x8, addend: 0x0, symName: __ZN22llama_memory_recurrent6seq_cpEiiii, symObjAddr: 0xCEC, symBinAddr: 0x60E6C, symSize: 0x1E8 }
  - { offset: 0x3A84FB, size: 0x8, addend: 0x0, symName: __ZN22llama_memory_recurrent8seq_keepEi, symObjAddr: 0xED4, symBinAddr: 0x61054, symSize: 0x1B8 }
  - { offset: 0x3A8947, size: 0x8, addend: 0x0, symName: __ZN22llama_memory_recurrent7seq_addEiiii, symObjAddr: 0x108C, symBinAddr: 0x6120C, symSize: 0xA0 }
  - { offset: 0x3A8B22, size: 0x8, addend: 0x0, symName: __ZN22llama_memory_recurrent7seq_divEiiii, symObjAddr: 0x112C, symBinAddr: 0x612AC, symSize: 0xA8 }
  - { offset: 0x3A8D68, size: 0x8, addend: 0x0, symName: __ZNK22llama_memory_recurrent11seq_pos_minEi, symObjAddr: 0x11D4, symBinAddr: 0x61354, symSize: 0x8C }
  - { offset: 0x3A8F40, size: 0x8, addend: 0x0, symName: __ZNK22llama_memory_recurrent11seq_pos_maxEi, symObjAddr: 0x1260, symBinAddr: 0x613E0, symSize: 0x80 }
  - { offset: 0x3A96CC, size: 0x8, addend: 0x0, symName: __ZNK22llama_memory_recurrent16memory_breakdownEv, symObjAddr: 0x12E0, symBinAddr: 0x61460, symSize: 0x160 }
  - { offset: 0x3AA303, size: 0x8, addend: 0x0, symName: __ZN22llama_memory_recurrent10init_batchER18llama_batch_allocrjb, symObjAddr: 0x1440, symBinAddr: 0x615C0, symSize: 0x474 }
  - { offset: 0x3AB266, size: 0x8, addend: 0x0, symName: __ZN22llama_memory_recurrent7prepareERKNSt3__16vectorI12llama_ubatchNS0_9allocatorIS2_EEEE, symObjAddr: 0x1910, symBinAddr: 0x61A34, symSize: 0x128 }
  - { offset: 0x3AB92A, size: 0x8, addend: 0x0, symName: __ZNSt3__16vectorIN22llama_memory_recurrent8mem_cellENS_9allocatorIS2_EEE16__init_with_sizeB8ne200100IPS2_S7_EEvT_T0_m, symObjAddr: 0x517C, symBinAddr: 0x64804, symSize: 0x150 }
  - { offset: 0x3ABE31, size: 0x8, addend: 0x0, symName: __ZN22llama_memory_recurrent9find_slotERK12llama_ubatch, symObjAddr: 0x1B70, symBinAddr: 0x61BFC, symSize: 0xDD0 }
  - { offset: 0x3AD7CB, size: 0x8, addend: 0x0, symName: __ZN22llama_memory_recurrent9init_fullEv, symObjAddr: 0x1AD0, symBinAddr: 0x61B5C, symSize: 0x54 }
  - { offset: 0x3AD8C9, size: 0x8, addend: 0x0, symName: __ZN22llama_memory_recurrent11init_updateEP13llama_contextb, symObjAddr: 0x1B24, symBinAddr: 0x61BB0, symSize: 0x4C }
  - { offset: 0x3ADD94, size: 0x8, addend: 0x0, symName: __ZNK22llama_memory_recurrent13get_can_shiftEv, symObjAddr: 0x2940, symBinAddr: 0x629CC, symSize: 0x8 }
  - { offset: 0x3ADDBA, size: 0x8, addend: 0x0, symName: __ZNK22llama_memory_recurrent10total_sizeEv, symObjAddr: 0x2948, symBinAddr: 0x629D4, symSize: 0x64 }
  - { offset: 0x3AE5D6, size: 0x8, addend: 0x0, symName: __ZNK22llama_memory_recurrent11state_writeER16llama_io_write_iij, symObjAddr: 0x29AC, symBinAddr: 0x62A38, symSize: 0x4AC }
  - { offset: 0x3AF3B1, size: 0x8, addend: 0x0, symName: __ZNK22llama_memory_recurrent16state_write_metaER16llama_io_write_iRKNSt3__16vectorINS2_4pairIjjEENS2_9allocatorIS5_EEEEi, symObjAddr: 0x2E58, symBinAddr: 0x62EE4, symSize: 0x15C }
  - { offset: 0x3AF6D5, size: 0x8, addend: 0x0, symName: __ZNK22llama_memory_recurrent16state_write_dataER16llama_io_write_iRKNSt3__16vectorINS2_4pairIjjEENS2_9allocatorIS5_EEEE, symObjAddr: 0x2FB4, symBinAddr: 0x63040, symSize: 0x22C }
  - { offset: 0x3AFC35, size: 0x8, addend: 0x0, symName: __ZN22llama_memory_recurrent10state_readER15llama_io_read_iij, symObjAddr: 0x31E0, symBinAddr: 0x6326C, symSize: 0xF8 }
  - { offset: 0x3AFD34, size: 0x8, addend: 0x0, symName: __ZN22llama_memory_recurrent15state_read_metaER15llama_io_read_iji, symObjAddr: 0x32D8, symBinAddr: 0x63364, symSize: 0x5F4 }
  - { offset: 0x3B067B, size: 0x8, addend: 0x0, symName: __ZN22llama_memory_recurrent15state_read_dataER15llama_io_read_ij, symObjAddr: 0x38CC, symBinAddr: 0x63958, symSize: 0x568 }
  - { offset: 0x3B17AD, size: 0x8, addend: 0x0, symName: __ZN30llama_memory_recurrent_contextC2E19llama_memory_status, symObjAddr: 0x3E34, symBinAddr: 0x63EC0, symSize: 0x24 }
  - { offset: 0x3B1811, size: 0x8, addend: 0x0, symName: __ZN30llama_memory_recurrent_contextC1E19llama_memory_status, symObjAddr: 0x3E58, symBinAddr: 0x63EE4, symSize: 0x24 }
  - { offset: 0x3B183A, size: 0x8, addend: 0x0, symName: __ZN30llama_memory_recurrent_contextC1E19llama_memory_status, symObjAddr: 0x3E58, symBinAddr: 0x63EE4, symSize: 0x24 }
  - { offset: 0x3B1899, size: 0x8, addend: 0x0, symName: __ZN30llama_memory_recurrent_contextC2EP22llama_memory_recurrent, symObjAddr: 0x3E7C, symBinAddr: 0x63F08, symSize: 0x2C }
  - { offset: 0x3B18FD, size: 0x8, addend: 0x0, symName: __ZN30llama_memory_recurrent_contextC1EP22llama_memory_recurrent, symObjAddr: 0x3EA8, symBinAddr: 0x63F34, symSize: 0x2C }
  - { offset: 0x3B1926, size: 0x8, addend: 0x0, symName: __ZN30llama_memory_recurrent_contextC1EP22llama_memory_recurrent, symObjAddr: 0x3EA8, symBinAddr: 0x63F34, symSize: 0x2C }
  - { offset: 0x3B1985, size: 0x8, addend: 0x0, symName: __ZN30llama_memory_recurrent_contextC2EP22llama_memory_recurrentNSt3__16vectorI12llama_ubatchNS2_9allocatorIS4_EEEE, symObjAddr: 0x3ED4, symBinAddr: 0x63F60, symSize: 0x40 }
  - { offset: 0x3B1A00, size: 0x8, addend: 0x0, symName: __ZN30llama_memory_recurrent_contextC1EP22llama_memory_recurrentNSt3__16vectorI12llama_ubatchNS2_9allocatorIS4_EEEE, symObjAddr: 0x3F14, symBinAddr: 0x63FA0, symSize: 0x40 }
  - { offset: 0x3B1A31, size: 0x8, addend: 0x0, symName: __ZN30llama_memory_recurrent_contextC1EP22llama_memory_recurrentNSt3__16vectorI12llama_ubatchNS2_9allocatorIS4_EEEE, symObjAddr: 0x3F14, symBinAddr: 0x63FA0, symSize: 0x40 }
  - { offset: 0x3B1AA7, size: 0x8, addend: 0x0, symName: __ZN30llama_memory_recurrent_contextD2Ev, symObjAddr: 0x3F54, symBinAddr: 0x63FE0, symSize: 0xA4 }
  - { offset: 0x3B1D18, size: 0x8, addend: 0x0, symName: __ZN30llama_memory_recurrent_contextD1Ev, symObjAddr: 0x3FF8, symBinAddr: 0x64084, symSize: 0xA4 }
  - { offset: 0x3B1FA6, size: 0x8, addend: 0x0, symName: __ZN30llama_memory_recurrent_contextD0Ev, symObjAddr: 0x409C, symBinAddr: 0x64128, symSize: 0xA4 }
  - { offset: 0x3B2240, size: 0x8, addend: 0x0, symName: __ZN30llama_memory_recurrent_context4nextEv, symObjAddr: 0x4140, symBinAddr: 0x641CC, symSize: 0x38 }
  - { offset: 0x3B22C1, size: 0x8, addend: 0x0, symName: __ZN30llama_memory_recurrent_context5applyEv, symObjAddr: 0x4178, symBinAddr: 0x64204, symSize: 0x34 }
  - { offset: 0x3B22ED, size: 0x8, addend: 0x0, symName: __ZN30llama_memory_recurrent_context5applyEv, symObjAddr: 0x4178, symBinAddr: 0x64204, symSize: 0x34 }
  - { offset: 0x3B2335, size: 0x8, addend: 0x0, symName: __ZNK30llama_memory_recurrent_context10get_statusEv, symObjAddr: 0x41AC, symBinAddr: 0x64238, symSize: 0x8 }
  - { offset: 0x3B2381, size: 0x8, addend: 0x0, symName: __ZNK30llama_memory_recurrent_context10get_ubatchEv, symObjAddr: 0x41B4, symBinAddr: 0x64240, symSize: 0x10 }
  - { offset: 0x3B23D1, size: 0x8, addend: 0x0, symName: __ZNK30llama_memory_recurrent_context8get_n_rsEv, symObjAddr: 0x41C4, symBinAddr: 0x64250, symSize: 0x20 }
  - { offset: 0x3B23FB, size: 0x8, addend: 0x0, symName: __ZNK30llama_memory_recurrent_context8get_headEv, symObjAddr: 0x41E4, symBinAddr: 0x64270, symSize: 0x1C }
  - { offset: 0x3B2425, size: 0x8, addend: 0x0, symName: __ZNK30llama_memory_recurrent_context8get_rs_zEv, symObjAddr: 0x4200, symBinAddr: 0x6428C, symSize: 0x1C }
  - { offset: 0x3B244F, size: 0x8, addend: 0x0, symName: __ZNK30llama_memory_recurrent_context8get_sizeEv, symObjAddr: 0x421C, symBinAddr: 0x642A8, symSize: 0xC }
  - { offset: 0x3B2479, size: 0x8, addend: 0x0, symName: __ZNK30llama_memory_recurrent_context7get_r_lEi, symObjAddr: 0x4228, symBinAddr: 0x642B4, symSize: 0x10 }
  - { offset: 0x3B24D0, size: 0x8, addend: 0x0, symName: __ZNK30llama_memory_recurrent_context7get_s_lEi, symObjAddr: 0x4238, symBinAddr: 0x642C4, symSize: 0x10 }
  - { offset: 0x3B2528, size: 0x8, addend: 0x0, symName: __ZNK30llama_memory_recurrent_context6s_copyEi, symObjAddr: 0x4248, symBinAddr: 0x642D4, symSize: 0x20 }
  - { offset: 0x3B257F, size: 0x8, addend: 0x0, symName: __ZN22llama_memory_recurrentD1Ev, symObjAddr: 0x4268, symBinAddr: 0x642F4, symSize: 0x4 }
  - { offset: 0x3B25A2, size: 0x8, addend: 0x0, symName: __ZN22llama_memory_recurrentD1Ev, symObjAddr: 0x4268, symBinAddr: 0x642F4, symSize: 0x4 }
  - { offset: 0x3B25B5, size: 0x8, addend: 0x0, symName: __ZN22llama_memory_recurrentD2Ev, symObjAddr: 0x461C, symBinAddr: 0x6430C, symSize: 0xF0 }
  - { offset: 0x3B2D4D, size: 0x8, addend: 0x0, symName: __ZN22llama_memory_recurrentD0Ev, symObjAddr: 0x426C, symBinAddr: 0x642F8, symSize: 0x14 }
  - { offset: 0x3B3CA6, size: 0x8, addend: 0x0, symName: __ZNSt3__16vectorIN22llama_memory_recurrent8mem_cellENS_9allocatorIS2_EEE20__throw_length_errorB8ne200100Ev, symObjAddr: 0x492C, symBinAddr: 0x6461C, symSize: 0x14 }
  - { offset: 0x3B3DC0, size: 0x8, addend: 0x0, symName: __ZNSt3__128__exception_guard_exceptionsINS_29_AllocatorDestroyRangeReverseINS_9allocatorIN22llama_memory_recurrent8mem_cellEEEPS4_EEED1B8ne200100Ev, symObjAddr: 0x49B4, symBinAddr: 0x64630, symSize: 0x60 }
  - { offset: 0x3B452C, size: 0x8, addend: 0x0, symName: __ZNSt3__16vectorIN22llama_memory_recurrent8mem_cellENS_9allocatorIS2_EEE16__init_with_sizeB8ne200100IPS2_S7_EEvT_T0_m, symObjAddr: 0x517C, symBinAddr: 0x64804, symSize: 0x150 }
  - { offset: 0x3B47C2, size: 0x8, addend: 0x0, symName: __ZNSt3__13setIiNS_4lessIiEENS_9allocatorIiEEE6insertB8ne200100INS_21__tree_const_iteratorIiPNS_11__tree_nodeIiPvEElEEEEvT_SD_, symObjAddr: 0x5344, symBinAddr: 0x649CC, symSize: 0xF8 }
  - { offset: 0x3B4808, size: 0x8, addend: 0x0, symName: __ZNSt3__13setIiNS_4lessIiEENS_9allocatorIiEEE6insertB8ne200100INS_21__tree_const_iteratorIiPNS_11__tree_nodeIiPvEElEEEEvT_SD_, symObjAddr: 0x5344, symBinAddr: 0x649CC, symSize: 0xF8 }
  - { offset: 0x3B4AE1, size: 0x8, addend: 0x0, symName: __ZNSt3__128__exception_guard_exceptionsINS_6vectorIN22llama_memory_recurrent8mem_cellENS_9allocatorIS3_EEE16__destroy_vectorEED1B8ne200100Ev, symObjAddr: 0x52CC, symBinAddr: 0x64954, symSize: 0x78 }
  - { offset: 0x3B4B0E, size: 0x8, addend: 0x0, symName: __ZNSt3__128__exception_guard_exceptionsINS_6vectorIN22llama_memory_recurrent8mem_cellENS_9allocatorIS3_EEE16__destroy_vectorEED1B8ne200100Ev, symObjAddr: 0x52CC, symBinAddr: 0x64954, symSize: 0x78 }
  - { offset: 0x3B4E71, size: 0x8, addend: 0x0, symName: __ZNSt3__16__treeIiNS_4lessIiEENS_9allocatorIiEEE12__find_equalIiEERPNS_16__tree_node_baseIPvEENS_21__tree_const_iteratorIiPNS_11__tree_nodeIiS8_EElEERPNS_15__tree_end_nodeISA_EESB_RKT_, symObjAddr: 0x543C, symBinAddr: 0x64AC4, symSize: 0x1B0 }
  - { offset: 0x3B4ED4, size: 0x8, addend: 0x0, symName: __ZNSt3__16__treeIiNS_4lessIiEENS_9allocatorIiEEE12__find_equalIiEERPNS_16__tree_node_baseIPvEENS_21__tree_const_iteratorIiPNS_11__tree_nodeIiS8_EElEERPNS_15__tree_end_nodeISA_EESB_RKT_, symObjAddr: 0x543C, symBinAddr: 0x64AC4, symSize: 0x1B0 }
  - { offset: 0x3B4EF0, size: 0x8, addend: 0x0, symName: __ZNSt3__16__treeIiNS_4lessIiEENS_9allocatorIiEEE12__find_equalIiEERPNS_16__tree_node_baseIPvEENS_21__tree_const_iteratorIiPNS_11__tree_nodeIiS8_EElEERPNS_15__tree_end_nodeISA_EESB_RKT_, symObjAddr: 0x543C, symBinAddr: 0x64AC4, symSize: 0x1B0 }
  - { offset: 0x3B70AF, size: 0x8, addend: 0x0, symName: __Z27llama_memory_status_combine19llama_memory_statusS_, symObjAddr: 0x0, symBinAddr: 0x64C74, symSize: 0x38 }
  - { offset: 0x3B70C4, size: 0x8, addend: 0x0, symName: __Z27llama_memory_status_combine19llama_memory_statusS_, symObjAddr: 0x0, symBinAddr: 0x64C74, symSize: 0x38 }
  - { offset: 0x3B7110, size: 0x8, addend: 0x0, symName: __Z27llama_memory_status_is_fail19llama_memory_status, symObjAddr: 0x38, symBinAddr: 0x64CAC, symSize: 0x10 }
  - { offset: 0x3B9C9F, size: 0x8, addend: 0x0, symName: __ZN10llama_mmap9SUPPORTEDE, symObjAddr: 0x1B24, symBinAddr: 0x29A1EA, symSize: 0x0 }
  - { offset: 0x3BF3B0, size: 0x8, addend: 0x0, symName: __ZN11llama_mlock9SUPPORTEDE, symObjAddr: 0x1B25, symBinAddr: 0x29A1EB, symSize: 0x0 }
  - { offset: 0x3BF5F8, size: 0x8, addend: 0x0, symName: __ZN10llama_fileC2EPKcS1_b, symObjAddr: 0x0, symBinAddr: 0x64CBC, symSize: 0x70 }
  - { offset: 0x3BF6E1, size: 0x8, addend: 0x0, symName: __ZN10llama_file4implC2EPKcS2_b, symObjAddr: 0x150C, symBinAddr: 0x6611C, symSize: 0xF0 }
  - { offset: 0x3BFAF0, size: 0x8, addend: 0x0, symName: __ZN10llama_fileC1EPKcS1_b, symObjAddr: 0x70, symBinAddr: 0x64D2C, symSize: 0x70 }
  - { offset: 0x3BFDBE, size: 0x8, addend: 0x0, symName: __ZN10llama_fileD2Ev, symObjAddr: 0xE0, symBinAddr: 0x64D9C, symSize: 0x6C }
  - { offset: 0x3BFFDC, size: 0x8, addend: 0x0, symName: __ZN10llama_fileD1Ev, symObjAddr: 0x14C, symBinAddr: 0x64E08, symSize: 0x6C }
  - { offset: 0x3C01F4, size: 0x8, addend: 0x0, symName: __ZNK10llama_file4tellEv, symObjAddr: 0x1B8, symBinAddr: 0x64E74, symSize: 0x8 }
  - { offset: 0x3C0220, size: 0x8, addend: 0x0, symName: __ZNK10llama_file4tellEv, symObjAddr: 0x1B8, symBinAddr: 0x64E74, symSize: 0x8 }
  - { offset: 0x3C0249, size: 0x8, addend: 0x0, symName: __ZNK10llama_file4impl4tellEv, symObjAddr: 0x1C0, symBinAddr: 0x64E7C, symSize: 0x158 }
  - { offset: 0x3C04E1, size: 0x8, addend: 0x0, symName: __ZNK10llama_file4sizeEv, symObjAddr: 0x318, symBinAddr: 0x64FD4, symSize: 0xC }
  - { offset: 0x3C0505, size: 0x8, addend: 0x0, symName: __ZNK10llama_file4sizeEv, symObjAddr: 0x318, symBinAddr: 0x64FD4, symSize: 0xC }
  - { offset: 0x3C053C, size: 0x8, addend: 0x0, symName: __ZNK10llama_file14read_alignmentEv, symObjAddr: 0x324, symBinAddr: 0x64FE0, symSize: 0xC }
  - { offset: 0x3C0568, size: 0x8, addend: 0x0, symName: __ZNK10llama_file14read_alignmentEv, symObjAddr: 0x324, symBinAddr: 0x64FE0, symSize: 0xC }
  - { offset: 0x3C05B6, size: 0x8, addend: 0x0, symName: __ZNK10llama_file13has_direct_ioEv, symObjAddr: 0x330, symBinAddr: 0x64FEC, symSize: 0x28 }
  - { offset: 0x3C05E2, size: 0x8, addend: 0x0, symName: __ZNK10llama_file13has_direct_ioEv, symObjAddr: 0x330, symBinAddr: 0x64FEC, symSize: 0x28 }
  - { offset: 0x3C061C, size: 0x8, addend: 0x0, symName: __ZNK10llama_file7file_idEv, symObjAddr: 0x358, symBinAddr: 0x65014, symSize: 0x1C }
  - { offset: 0x3C0640, size: 0x8, addend: 0x0, symName: __ZNK10llama_file7file_idEv, symObjAddr: 0x358, symBinAddr: 0x65014, symSize: 0x1C }
  - { offset: 0x3C067C, size: 0x8, addend: 0x0, symName: __ZNK10llama_file4seekEmi, symObjAddr: 0x374, symBinAddr: 0x65030, symSize: 0x8 }
  - { offset: 0x3C06C4, size: 0x8, addend: 0x0, symName: __ZNK10llama_file4seekEmi, symObjAddr: 0x374, symBinAddr: 0x65030, symSize: 0x8 }
  - { offset: 0x3C06FC, size: 0x8, addend: 0x0, symName: __ZNK10llama_file4impl4seekEmi, symObjAddr: 0x37C, symBinAddr: 0x65038, symSize: 0xEC }
  - { offset: 0x3C08ED, size: 0x8, addend: 0x0, symName: __ZN10llama_file8read_rawEPvm, symObjAddr: 0x468, symBinAddr: 0x65124, symSize: 0x24 }
  - { offset: 0x3C0935, size: 0x8, addend: 0x0, symName: __ZN10llama_file8read_rawEPvm, symObjAddr: 0x468, symBinAddr: 0x65124, symSize: 0x24 }
  - { offset: 0x3C09A6, size: 0x8, addend: 0x0, symName: __ZN10llama_file4impl18read_aligned_chunkEPvm, symObjAddr: 0x11D8, symBinAddr: 0x65E94, symSize: 0x15C }
  - { offset: 0x3C0D02, size: 0x8, addend: 0x0, symName: __ZN10llama_file4impl15read_raw_unsafeEPvm, symObjAddr: 0x494, symBinAddr: 0x65150, symSize: 0x378 }
  - { offset: 0x3C10DA, size: 0x8, addend: 0x0, symName: __ZN10llama_file15read_raw_unsafeEPvm, symObjAddr: 0x48C, symBinAddr: 0x65148, symSize: 0x8 }
  - { offset: 0x3C1122, size: 0x8, addend: 0x0, symName: __ZN10llama_file15read_raw_unsafeEPvm, symObjAddr: 0x48C, symBinAddr: 0x65148, symSize: 0x8 }
  - { offset: 0x3C1171, size: 0x8, addend: 0x0, symName: __ZN10llama_file4impl7init_fpEPKc, symObjAddr: 0x1344, symBinAddr: 0x65FF0, symSize: 0x118 }
  - { offset: 0x3C14E1, size: 0x8, addend: 0x0, symName: __ZN10llama_file8read_u32Ev, symObjAddr: 0x80C, symBinAddr: 0x654C8, symSize: 0x64 }
  - { offset: 0x3C15BE, size: 0x8, addend: 0x0, symName: __ZNK10llama_file9write_rawEPKvm, symObjAddr: 0x870, symBinAddr: 0x6552C, symSize: 0x8 }
  - { offset: 0x3C1606, size: 0x8, addend: 0x0, symName: __ZNK10llama_file9write_rawEPKvm, symObjAddr: 0x870, symBinAddr: 0x6552C, symSize: 0x8 }
  - { offset: 0x3C163E, size: 0x8, addend: 0x0, symName: __ZNK10llama_file4impl9write_rawEPKvm, symObjAddr: 0x878, symBinAddr: 0x65534, symSize: 0xF0 }
  - { offset: 0x3C183F, size: 0x8, addend: 0x0, symName: __ZNK10llama_file9write_u32Ej, symObjAddr: 0x968, symBinAddr: 0x65624, symSize: 0x2C }
  - { offset: 0x3C198C, size: 0x8, addend: 0x0, symName: __ZN10llama_mmapC2EP10llama_filemb, symObjAddr: 0x994, symBinAddr: 0x65650, symSize: 0x70 }
  - { offset: 0x3C1A75, size: 0x8, addend: 0x0, symName: __ZN10llama_mmap4implC2EP10llama_filemb, symObjAddr: 0x1610, symBinAddr: 0x6620C, symSize: 0x298 }
  - { offset: 0x3C23B0, size: 0x8, addend: 0x0, symName: __ZN10llama_mmapC1EP10llama_filemb, symObjAddr: 0xA04, symBinAddr: 0x656C0, symSize: 0x70 }
  - { offset: 0x3C258F, size: 0x8, addend: 0x0, symName: __ZN10llama_mmapD2Ev, symObjAddr: 0xA74, symBinAddr: 0x65730, symSize: 0x3C }
  - { offset: 0x3C2670, size: 0x8, addend: 0x0, symName: __ZN10llama_mmap4implD2Ev, symObjAddr: 0x18A8, symBinAddr: 0x664A4, symSize: 0xA4 }
  - { offset: 0x3C2891, size: 0x8, addend: 0x0, symName: __ZN10llama_mmapD1Ev, symObjAddr: 0xAB0, symBinAddr: 0x6576C, symSize: 0x3C }
  - { offset: 0x3C29B9, size: 0x8, addend: 0x0, symName: __ZNK10llama_mmap4sizeEv, symObjAddr: 0xAEC, symBinAddr: 0x657A8, symSize: 0xC }
  - { offset: 0x3C29E5, size: 0x8, addend: 0x0, symName: __ZNK10llama_mmap4sizeEv, symObjAddr: 0xAEC, symBinAddr: 0x657A8, symSize: 0xC }
  - { offset: 0x3C2A00, size: 0x8, addend: 0x0, symName: __ZNK10llama_mmap4addrEv, symObjAddr: 0xAF8, symBinAddr: 0x657B4, symSize: 0xC }
  - { offset: 0x3C2A2C, size: 0x8, addend: 0x0, symName: __ZNK10llama_mmap4addrEv, symObjAddr: 0xAF8, symBinAddr: 0x657B4, symSize: 0xC }
  - { offset: 0x3C2A47, size: 0x8, addend: 0x0, symName: __ZN10llama_mmap14unmap_fragmentEmm, symObjAddr: 0xB04, symBinAddr: 0x657C0, symSize: 0x8 }
  - { offset: 0x3C2A8F, size: 0x8, addend: 0x0, symName: __ZN10llama_mmap14unmap_fragmentEmm, symObjAddr: 0xB04, symBinAddr: 0x657C0, symSize: 0x8 }
  - { offset: 0x3C2AC7, size: 0x8, addend: 0x0, symName: __ZN10llama_mmap4impl14unmap_fragmentEmm, symObjAddr: 0xB0C, symBinAddr: 0x657C8, symSize: 0x4AC }
  - { offset: 0x3C4431, size: 0x8, addend: 0x0, symName: __ZNSt3__16vectorINS_4pairImmEENS_9allocatorIS2_EEE20__throw_length_errorB8ne200100Ev, symObjAddr: 0x145C, symBinAddr: 0x66108, symSize: 0x14 }
  - { offset: 0x3C4508, size: 0x8, addend: 0x0, symName: __ZN11llama_mlockC2Ev, symObjAddr: 0xFB8, symBinAddr: 0x65C74, symSize: 0x34 }
  - { offset: 0x3C45E4, size: 0x8, addend: 0x0, symName: __ZN11llama_mlockC1Ev, symObjAddr: 0xFEC, symBinAddr: 0x65CA8, symSize: 0x34 }
  - { offset: 0x3C474F, size: 0x8, addend: 0x0, symName: __ZN11llama_mlockD2Ev, symObjAddr: 0x1020, symBinAddr: 0x65CDC, symSize: 0x34 }
  - { offset: 0x3C4773, size: 0x8, addend: 0x0, symName: __ZN11llama_mlockD2Ev, symObjAddr: 0x1020, symBinAddr: 0x65CDC, symSize: 0x34 }
  - { offset: 0x3C4791, size: 0x8, addend: 0x0, symName: __ZN11llama_mlockD2Ev, symObjAddr: 0x1020, symBinAddr: 0x65CDC, symSize: 0x34 }
  - { offset: 0x3C47AF, size: 0x8, addend: 0x0, symName: __ZN11llama_mlockD2Ev, symObjAddr: 0x1020, symBinAddr: 0x65CDC, symSize: 0x34 }
  - { offset: 0x3C4823, size: 0x8, addend: 0x0, symName: __ZN11llama_mlockD1Ev, symObjAddr: 0x1054, symBinAddr: 0x65D10, symSize: 0x34 }
  - { offset: 0x3C4853, size: 0x8, addend: 0x0, symName: __ZN11llama_mlockD1Ev, symObjAddr: 0x1054, symBinAddr: 0x65D10, symSize: 0x34 }
  - { offset: 0x3C4871, size: 0x8, addend: 0x0, symName: __ZN11llama_mlockD1Ev, symObjAddr: 0x1054, symBinAddr: 0x65D10, symSize: 0x34 }
  - { offset: 0x3C488F, size: 0x8, addend: 0x0, symName: __ZN11llama_mlockD1Ev, symObjAddr: 0x1054, symBinAddr: 0x65D10, symSize: 0x34 }
  - { offset: 0x3C48AD, size: 0x8, addend: 0x0, symName: __ZN11llama_mlockD1Ev, symObjAddr: 0x1054, symBinAddr: 0x65D10, symSize: 0x34 }
  - { offset: 0x3C4943, size: 0x8, addend: 0x0, symName: __ZN11llama_mlock4initEPv, symObjAddr: 0x1088, symBinAddr: 0x65D44, symSize: 0x4C }
  - { offset: 0x3C497F, size: 0x8, addend: 0x0, symName: __ZN11llama_mlock4initEPv, symObjAddr: 0x1088, symBinAddr: 0x65D44, symSize: 0x4C }
  - { offset: 0x3C49B3, size: 0x8, addend: 0x0, symName: __ZN11llama_mlock7grow_toEm, symObjAddr: 0x10D4, symBinAddr: 0x65D90, symSize: 0x8 }
  - { offset: 0x3C49C6, size: 0x8, addend: 0x0, symName: __ZN11llama_mlock7grow_toEm, symObjAddr: 0x10D4, symBinAddr: 0x65D90, symSize: 0x8 }
  - { offset: 0x3C4A00, size: 0x8, addend: 0x0, symName: __ZN11llama_mlock7grow_toEm, symObjAddr: 0x10D4, symBinAddr: 0x65D90, symSize: 0x8 }
  - { offset: 0x3C4A31, size: 0x8, addend: 0x0, symName: __ZN11llama_mlock4impl7grow_toEm, symObjAddr: 0x10DC, symBinAddr: 0x65D98, symSize: 0xF4 }
  - { offset: 0x3C4B29, size: 0x8, addend: 0x0, symName: __Z14llama_path_maxv, symObjAddr: 0x11D0, symBinAddr: 0x65E8C, symSize: 0x8 }
  - { offset: 0x3C4BA6, size: 0x8, addend: 0x0, symName: __Z14llama_path_maxv, symObjAddr: 0x11D0, symBinAddr: 0x65E8C, symSize: 0x8 }
  - { offset: 0x3C4F6D, size: 0x8, addend: 0x0, symName: __ZN10llama_mmap4implC2EP10llama_filemb, symObjAddr: 0x1610, symBinAddr: 0x6620C, symSize: 0x298 }
  - { offset: 0x3E70C6, size: 0x8, addend: 0x0, symName: __ZNSt3__120__throw_future_errorB8ne200100ENS_11future_errcE, symObjAddr: 0xBC2C, symBinAddr: 0x71670, symSize: 0x5C }
  - { offset: 0x3E81CB, size: 0x8, addend: 0x0, symName: '__ZNSt3__114__thread_proxyB8ne200100INS_5tupleIJNS_10unique_ptrINS_15__thread_structENS_14default_deleteIS3_EEEEMNS_19__async_assoc_stateINS_4pairIP11ggml_tensorbEENS_12__async_funcIZN18llama_model_loader13load_all_dataEP12ggml_contextRNS_13unordered_mapIjP19ggml_backend_bufferNS_4hashIjEENS_8equal_toIjEENS_9allocatorINS8_IKjSI_EEEEEEPNS_6vectorINS2_I11llama_mlockNS4_ISU_EEEENSN_ISW_EEEEPFbfPvES10_E3$_0JEEEEEFvvEPS15_EEEEES10_S10_', symObjAddr: 0xBC88, symBinAddr: 0x716CC, symSize: 0x8C }
  - { offset: 0x3E8597, size: 0x8, addend: 0x0, symName: '__ZNSt3__114__thread_proxyB8ne200100INS_5tupleIJNS_10unique_ptrINS_15__thread_structENS_14default_deleteIS3_EEEEMNS_19__async_assoc_stateINS_4pairIP11ggml_tensorbEENS_12__async_funcIZN18llama_model_loader13load_all_dataEP12ggml_contextRNS_13unordered_mapIjP19ggml_backend_bufferNS_4hashIjEENS_8equal_toIjEENS_9allocatorINS8_IKjSI_EEEEEEPNS_6vectorINS2_I11llama_mlockNS4_ISU_EEEENSN_ISW_EEEEPFbfPvES10_E3$_1JEEEEEFvvEPS15_EEEEES10_S10_', symObjAddr: 0xBF94, symBinAddr: 0x719D8, symSize: 0x8C }
  - { offset: 0x3ED23A, size: 0x8, addend: 0x0, symName: __ZN18llama_model_loader13load_all_dataEP12ggml_contextRNSt3__113unordered_mapIjP19ggml_backend_bufferNS2_4hashIjEENS2_8equal_toIjEENS2_9allocatorINS2_4pairIKjS5_EEEEEEPNS2_6vectorINS2_10unique_ptrI11llama_mlockNS2_14default_deleteISJ_EEEENSA_ISM_EEEEPFbfPvESQ_, symObjAddr: 0x5E50, symBinAddr: 0x6C250, symSize: 0x1A48 }
  - { offset: 0x3F19BB, size: 0x8, addend: 0x0, symName: __Z23llama_file_version_name10llama_fver, symObjAddr: 0x0, symBinAddr: 0x66548, symSize: 0x28 }
  - { offset: 0x3F1AA8, size: 0x8, addend: 0x0, symName: __ZN18llama_model_loader9get_arr_nIjEENSt3__19enable_ifIXsr3std11is_integralIT_EE5valueEbE4typeE6llm_kvRS3_b, symObjAddr: 0x28, symBinAddr: 0x66570, symSize: 0xA0 }
  - { offset: 0x3F1D34, size: 0x8, addend: 0x0, symName: __ZN18llama_model_loader9get_arr_nIjEENSt3__19enable_ifIXsr3std11is_integralIT_EE5valueEbE4typeERKNS1_12basic_stringIcNS1_11char_traitsIcEENS1_9allocatorIcEEEERS3_b, symObjAddr: 0xC8, symBinAddr: 0x66610, symSize: 0x128 }
  - { offset: 0x3F20A5, size: 0x8, addend: 0x0, symName: __ZN8GGUFMeta3GKVINS_9ArrayInfoEE6get_kvEPK12gguf_contexti, symObjAddr: 0x8290, symBinAddr: 0x6E544, symSize: 0x150 }
  - { offset: 0x3F22E1, size: 0x8, addend: 0x0, symName: __ZN18llama_model_loader7get_arrINSt3__16vectorINS1_12basic_stringIcNS1_11char_traitsIcEENS1_9allocatorIcEEEENS6_IS8_EEEEEEb6llm_kvRT_b, symObjAddr: 0x1F0, symBinAddr: 0x66738, symSize: 0xA0 }
  - { offset: 0x3F256D, size: 0x8, addend: 0x0, symName: __ZN18llama_model_loader7get_arrINSt3__112basic_stringIcNS1_11char_traitsIcEENS1_9allocatorIcEEEEEEbRKS7_RNS1_6vectorIT_NS5_ISB_EEEEb, symObjAddr: 0x290, symBinAddr: 0x667D8, symSize: 0x3B0 }
  - { offset: 0x3F3A98, size: 0x8, addend: 0x0, symName: __ZNSt3__112__hash_tableINS_17__hash_value_typeINS_12basic_stringIcNS_11char_traitsIcEENS_9allocatorIcEEEE23llama_model_kv_overrideEENS_22__unordered_map_hasherIS7_S9_NS_4hashIS7_EENS_8equal_toIS7_EELb1EEENS_21__unordered_map_equalIS7_S9_SE_SC_Lb1EEENS5_IS9_EEE4findIS7_EENS_15__hash_iteratorIPNS_11__hash_nodeIS9_PvEEEERKT_, symObjAddr: 0x85BC, symBinAddr: 0x6E694, symSize: 0x1B4 }
  - { offset: 0x3F3AD8, size: 0x8, addend: 0x0, symName: __ZN18llama_model_loader7get_keyIbEEb6llm_kvRT_b, symObjAddr: 0x640, symBinAddr: 0x66B88, symSize: 0xA0 }
  - { offset: 0x3F3D64, size: 0x8, addend: 0x0, symName: __ZN18llama_model_loader7get_keyIbEEbRKNSt3__112basic_stringIcNS1_11char_traitsIcEENS1_9allocatorIcEEEERT_b, symObjAddr: 0x6E0, symBinAddr: 0x66C28, symSize: 0x15C }
  - { offset: 0x3F4225, size: 0x8, addend: 0x0, symName: __ZNSt3__112__hash_tableINS_17__hash_value_typeINS_12basic_stringIcNS_11char_traitsIcEENS_9allocatorIcEEEE23llama_model_kv_overrideEENS_22__unordered_map_hasherIS7_S9_NS_4hashIS7_EENS_8equal_toIS7_EELb1EEENS_21__unordered_map_equalIS7_S9_SE_SC_Lb1EEENS5_IS9_EEE4findIS7_EENS_15__hash_iteratorIPNS_11__hash_nodeIS9_PvEEEERKT_, symObjAddr: 0x85BC, symBinAddr: 0x6E694, symSize: 0x1B4 }
  - { offset: 0x3F452E, size: 0x8, addend: 0x0, symName: __ZN8GGUFMeta3GKVIbE17validate_overrideE28llama_model_kv_override_typePK23llama_model_kv_override, symObjAddr: 0x8CBC, symBinAddr: 0x6E948, symSize: 0x240 }
  - { offset: 0x3F4710, size: 0x8, addend: 0x0, symName: __ZN8GGUFMeta3GKVIbE6get_kvEPK12gguf_contexti, symObjAddr: 0x8BBC, symBinAddr: 0x6E848, symSize: 0x100 }
  - { offset: 0x3F48E1, size: 0x8, addend: 0x0, symName: __ZN18llama_model_loader7get_keyIfEEb6llm_kvRT_b, symObjAddr: 0x83C, symBinAddr: 0x66D84, symSize: 0xA0 }
  - { offset: 0x3F4B6D, size: 0x8, addend: 0x0, symName: __ZN18llama_model_loader7get_keyIfEEbRKNSt3__112basic_stringIcNS1_11char_traitsIcEENS1_9allocatorIcEEEERT_b, symObjAddr: 0x8DC, symBinAddr: 0x66E24, symSize: 0x160 }
  - { offset: 0x3F5006, size: 0x8, addend: 0x0, symName: __ZN8GGUFMeta3GKVIfE17validate_overrideE28llama_model_kv_override_typePK23llama_model_kv_override, symObjAddr: 0x8FFC, symBinAddr: 0x6EC88, symSize: 0x240 }
  - { offset: 0x3F51E8, size: 0x8, addend: 0x0, symName: __ZN8GGUFMeta3GKVIfE6get_kvEPK12gguf_contexti, symObjAddr: 0x8EFC, symBinAddr: 0x6EB88, symSize: 0x100 }
  - { offset: 0x3F53B9, size: 0x8, addend: 0x0, symName: __ZN18llama_model_loader7get_keyIjEEb6llm_kvRT_b, symObjAddr: 0xA3C, symBinAddr: 0x66F84, symSize: 0xA0 }
  - { offset: 0x3F5622, size: 0x8, addend: 0x0, symName: __ZN18llama_model_loader7get_keyIjEEbRKNSt3__112basic_stringIcNS1_11char_traitsIcEENS1_9allocatorIcEEEERT_b, symObjAddr: 0xADC, symBinAddr: 0x67024, symSize: 0x15C }
  - { offset: 0x3F5ABB, size: 0x8, addend: 0x0, symName: __ZN8GGUFMeta3GKVIjE17validate_overrideE28llama_model_kv_override_typePK23llama_model_kv_override, symObjAddr: 0x933C, symBinAddr: 0x6EFC8, symSize: 0x240 }
  - { offset: 0x3F5C9D, size: 0x8, addend: 0x0, symName: __ZN8GGUFMeta3GKVIjE6get_kvEPK12gguf_contexti, symObjAddr: 0x923C, symBinAddr: 0x6EEC8, symSize: 0x100 }
  - { offset: 0x3F5E6E, size: 0x8, addend: 0x0, symName: __ZN18llama_model_loader7get_keyINSt3__112basic_stringIcNS1_11char_traitsIcEENS1_9allocatorIcEEEEEEb6llm_kvRT_b, symObjAddr: 0xC38, symBinAddr: 0x67180, symSize: 0xA0 }
  - { offset: 0x3F60FA, size: 0x8, addend: 0x0, symName: __ZN18llama_model_loader7get_keyINSt3__112basic_stringIcNS1_11char_traitsIcEENS1_9allocatorIcEEEEEEbRKS7_RT_b, symObjAddr: 0xCD8, symBinAddr: 0x67220, symSize: 0x184 }
  - { offset: 0x3F674A, size: 0x8, addend: 0x0, symName: __ZN8GGUFMeta3GKVINSt3__112basic_stringIcNS1_11char_traitsIcEENS1_9allocatorIcEEEEE17validate_overrideE28llama_model_kv_override_typePK23llama_model_kv_override, symObjAddr: 0x9700, symBinAddr: 0x6F38C, symSize: 0x240 }
  - { offset: 0x3F692C, size: 0x8, addend: 0x0, symName: __ZN8GGUFMeta3GKVINSt3__112basic_stringIcNS1_11char_traitsIcEENS1_9allocatorIcEEEEE6get_kvEPK12gguf_contexti, symObjAddr: 0x957C, symBinAddr: 0x6F208, symSize: 0x184 }
  - { offset: 0x3F6DC2, size: 0x8, addend: 0x0, symName: __ZN18llama_model_loader7get_keyI18llama_pooling_typeEEb6llm_kvRT_b, symObjAddr: 0xE5C, symBinAddr: 0x673A4, symSize: 0xA0 }
  - { offset: 0x3F70B0, size: 0x8, addend: 0x0, symName: __ZN18llama_model_loader14get_key_or_arrE6llm_kvRjb, symObjAddr: 0xEFC, symBinAddr: 0x67444, symSize: 0x1FC }
  - { offset: 0x3F769E, size: 0x8, addend: 0x0, symName: __ZN18llama_model_loader14get_key_or_arrINSt3__15arrayIiLm4EEEEEb6llm_kvRT_jb, symObjAddr: 0x10F8, symBinAddr: 0x67640, symSize: 0xA8 }
  - { offset: 0x3F7940, size: 0x8, addend: 0x0, symName: __ZN18llama_model_loader14get_key_or_arrIiLm4EEEbRKNSt3__112basic_stringIcNS1_11char_traitsIcEENS1_9allocatorIcEEEERNS1_5arrayIT_XT0_EEEjb, symObjAddr: 0x11A0, symBinAddr: 0x676E8, symSize: 0x32C }
  - { offset: 0x3F8010, size: 0x8, addend: 0x0, symName: __ZN18llama_model_loader7get_arrIiLm4EEEbRKNSt3__112basic_stringIcNS1_11char_traitsIcEENS1_9allocatorIcEEEERNS1_5arrayIT_XT0_EEEb, symObjAddr: 0x9940, symBinAddr: 0x6F5CC, symSize: 0x320 }
  - { offset: 0x3F86B1, size: 0x8, addend: 0x0, symName: __ZN18llama_model_loader7get_keyIiEEbRKNSt3__112basic_stringIcNS1_11char_traitsIcEENS1_9allocatorIcEEEERT_b, symObjAddr: 0x4744, symBinAddr: 0x6AB44, symSize: 0x15C }
  - { offset: 0x3F8A7D, size: 0x8, addend: 0x0, symName: __ZN18llama_model_loader14get_key_or_arrINSt3__15arrayIjLm512EEEEEb6llm_kvRT_jb, symObjAddr: 0x14CC, symBinAddr: 0x67A14, symSize: 0xA8 }
  - { offset: 0x3F8D1F, size: 0x8, addend: 0x0, symName: __ZN18llama_model_loader14get_key_or_arrIjLm512EEEbRKNSt3__112basic_stringIcNS1_11char_traitsIcEENS1_9allocatorIcEEEERNS1_5arrayIT_XT0_EEEjb, symObjAddr: 0x1574, symBinAddr: 0x67ABC, symSize: 0x34C }
  - { offset: 0x3F93F0, size: 0x8, addend: 0x0, symName: __ZN18llama_model_loader7get_arrIjLm512EEEbRKNSt3__112basic_stringIcNS1_11char_traitsIcEENS1_9allocatorIcEEEERNS1_5arrayIT_XT0_EEEb, symObjAddr: 0x9C60, symBinAddr: 0x6F8EC, symSize: 0x880 }
  - { offset: 0x3F9A8C, size: 0x8, addend: 0x0, symName: __ZN18llama_model_loader14get_key_or_arrINSt3__15arrayIfLm512EEEEEb6llm_kvRT_jb, symObjAddr: 0x18C0, symBinAddr: 0x67E08, symSize: 0xA8 }
  - { offset: 0x3F9D2E, size: 0x8, addend: 0x0, symName: __ZN18llama_model_loader14get_key_or_arrIfLm512EEEbRKNSt3__112basic_stringIcNS1_11char_traitsIcEENS1_9allocatorIcEEEERNS1_5arrayIT_XT0_EEEjb, symObjAddr: 0x1968, symBinAddr: 0x67EB0, symSize: 0x350 }
  - { offset: 0x3FA3FF, size: 0x8, addend: 0x0, symName: __ZN18llama_model_loader7get_arrIfLm512EEEbRKNSt3__112basic_stringIcNS1_11char_traitsIcEENS1_9allocatorIcEEEERNS1_5arrayIT_XT0_EEEb, symObjAddr: 0xA4E0, symBinAddr: 0x7016C, symSize: 0x2D8 }
  - { offset: 0x3FCFEF, size: 0x8, addend: 0x0, symName: __ZN18llama_model_loaderC2ERKNSt3__112basic_stringIcNS0_11char_traitsIcEENS0_9allocatorIcEEEERNS0_6vectorIS6_NS4_IS6_EEEEbbbbPK23llama_model_kv_overridePK32llama_model_tensor_buft_override, symObjAddr: 0x1CB8, symBinAddr: 0x68200, symSize: 0x27E8 }
  - { offset: 0x40642F, size: 0x8, addend: 0x0, symName: __ZNSt3__112__hash_tableINS_17__hash_value_typeINS_12basic_stringIcNS_11char_traitsIcEENS_9allocatorIcEEEE23llama_model_kv_overrideEENS_22__unordered_map_hasherIS7_S9_NS_4hashIS7_EENS_8equal_toIS7_EELb1EEENS_21__unordered_map_equalIS7_S9_SE_SC_Lb1EEENS5_IS9_EEE25__emplace_unique_key_argsIS7_JNS_4pairIKS7_S8_EEEEENSL_INS_15__hash_iteratorIPNS_11__hash_nodeIS9_PvEEEEbEERKT_DpOT0_, symObjAddr: 0xA818, symBinAddr: 0x704A4, symSize: 0x430 }
  - { offset: 0x406DAB, size: 0x8, addend: 0x0, symName: __ZNK18llama_model_loader20weight_name_comparerclERKNSt3__112basic_stringIcNS1_11char_traitsIcEENS1_9allocatorIcEEEES9_, symObjAddr: 0xAE50, symBinAddr: 0x70AC8, symSize: 0xF4 }
  - { offset: 0x407068, size: 0x8, addend: 0x0, symName: __ZN18llama_model_loader19llama_tensor_weightC2EPK10llama_filetPK12gguf_contextP11ggml_tensor, symObjAddr: 0x7E70, symBinAddr: 0x6E260, symSize: 0x1B8 }
  - { offset: 0x4072F0, size: 0x8, addend: 0x0, symName: __ZNSt3__16__treeINS_12__value_typeINS_12basic_stringIcNS_11char_traitsIcEENS_9allocatorIcEEEEN18llama_model_loader19llama_tensor_weightEEENS_19__map_value_compareIS7_SA_NS8_20weight_name_comparerELb1EEENS5_ISA_EEE25__emplace_unique_key_argsIS7_JRS7_S9_EEENS_4pairINS_15__tree_iteratorISA_PNS_11__tree_nodeISA_PvEElEEbEERKT_DpOT0_, symObjAddr: 0xAF44, symBinAddr: 0x70BBC, symSize: 0x158 }
  - { offset: 0x4076A2, size: 0x8, addend: 0x0, symName: __ZN8GGUFMeta3GKVItE17validate_overrideE28llama_model_kv_override_typePK23llama_model_kv_override, symObjAddr: 0xB3A8, symBinAddr: 0x70E74, symSize: 0x240 }
  - { offset: 0x407884, size: 0x8, addend: 0x0, symName: __ZN8GGUFMeta3GKVItE6get_kvEPK12gguf_contexti, symObjAddr: 0xB2A8, symBinAddr: 0x70D74, symSize: 0x100 }
  - { offset: 0x407A63, size: 0x8, addend: 0x0, symName: __ZN18llama_model_loader7get_keyItEEbRKNSt3__112basic_stringIcNS1_11char_traitsIcEENS1_9allocatorIcEEEERT_b, symObjAddr: 0x4544, symBinAddr: 0x6A9E8, symSize: 0x15C }
  - { offset: 0x407F40, size: 0x8, addend: 0x0, symName: __ZNSt3__16__treeINS_12__value_typeI9ggml_typejEENS_19__map_value_compareIS2_S3_NS_4lessIS2_EELb1EEENS_9allocatorIS3_EEE7destroyEPNS_11__tree_nodeIS3_PvEE, symObjAddr: 0xB928, symBinAddr: 0x713F4, symSize: 0x44 }
  - { offset: 0x408061, size: 0x8, addend: 0x0, symName: __ZNK18llama_model_loader20weight_name_comparerclERKNSt3__112basic_stringIcNS1_11char_traitsIcEENS1_9allocatorIcEEEES9_, symObjAddr: 0xAE50, symBinAddr: 0x70AC8, symSize: 0xF4 }
  - { offset: 0x40806C, size: 0x8, addend: 0x0, symName: __ZNSt3__16vectorINS_10unique_ptrI10llama_fileNS_14default_deleteIS2_EEEENS_9allocatorIS5_EEE20__throw_length_errorB8ne200100Ev, symObjAddr: 0xAE28, symBinAddr: 0x70AB4, symSize: 0x14 }
  - { offset: 0x408099, size: 0x8, addend: 0x0, symName: __ZNSt3__16vectorIP18ggml_backend_eventNS_9allocatorIS2_EEE12emplace_backIJRS2_EEES7_DpOT_, symObjAddr: 0x8164, symBinAddr: 0x6E418, symSize: 0xF0 }
  - { offset: 0x408239, size: 0x8, addend: 0x0, symName: __ZNSt3__110unique_ptrINS_11__tree_nodeINS_12__value_typeINS_12basic_stringIcNS_11char_traitsIcEENS_9allocatorIcEEEEN18llama_model_loader19llama_tensor_weightEEEPvEENS_22__tree_node_destructorINS6_ISD_EEEEED1B8ne200100Ev, symObjAddr: 0xB09C, symBinAddr: 0x70D14, symSize: 0x60 }
  - { offset: 0x408567, size: 0x8, addend: 0x0, symName: __ZNSt3__16vectorINS_10unique_ptrI12ggml_context20ggml_context_deleterEENS_9allocatorIS4_EEED1B8ne200100Ev, symObjAddr: 0x48A0, symBinAddr: 0x6ACA0, symSize: 0x70 }
  - { offset: 0x40875E, size: 0x8, addend: 0x0, symName: __ZNSt3__113unordered_mapINS_12basic_stringIcNS_11char_traitsIcEENS_9allocatorIcEEEE23llama_model_kv_overrideNS_4hashIS6_EENS_8equal_toIS6_EENS4_INS_4pairIKS6_S7_EEEEED1B8ne200100Ev, symObjAddr: 0x4910, symBinAddr: 0x6AD10, symSize: 0x68 }
  - { offset: 0x408B64, size: 0x8, addend: 0x0, symName: __ZNSt3__16__treeINS_12__value_typeINS_12basic_stringIcNS_11char_traitsIcEENS_9allocatorIcEEEEN18llama_model_loader19llama_tensor_weightEEENS_19__map_value_compareIS7_SA_NS8_20weight_name_comparerELb1EEENS5_ISA_EEE7destroyEPNS_11__tree_nodeISA_PvEE, symObjAddr: 0xA7B8, symBinAddr: 0x70444, symSize: 0x60 }
  - { offset: 0x408DA8, size: 0x8, addend: 0x0, symName: __ZNSt3__16vectorINS_10unique_ptrI10llama_mmapNS_14default_deleteIS2_EEEENS_9allocatorIS5_EEED1B8ne200100Ev, symObjAddr: 0x4978, symBinAddr: 0x6AD78, symSize: 0x70 }
  - { offset: 0x408FC5, size: 0x8, addend: 0x0, symName: __ZNSt3__16vectorINS_10unique_ptrI10llama_fileNS_14default_deleteIS2_EEEENS_9allocatorIS5_EEED1B8ne200100Ev, symObjAddr: 0x49E8, symBinAddr: 0x6ADE8, symSize: 0x70 }
  - { offset: 0x409367, size: 0x8, addend: 0x0, symName: __ZN18llama_model_loader7get_keyItEEbRKNSt3__112basic_stringIcNS1_11char_traitsIcEENS1_9allocatorIcEEEERT_b, symObjAddr: 0x4544, symBinAddr: 0x6A9E8, symSize: 0x15C }
  - { offset: 0x409475, size: 0x8, addend: 0x0, symName: __ZN8GGUFMeta3GKVIiE17validate_overrideE28llama_model_kv_override_typePK23llama_model_kv_override, symObjAddr: 0xB6E8, symBinAddr: 0x711B4, symSize: 0x240 }
  - { offset: 0x409657, size: 0x8, addend: 0x0, symName: __ZN8GGUFMeta3GKVIiE6get_kvEPK12gguf_contexti, symObjAddr: 0xB5E8, symBinAddr: 0x710B4, symSize: 0x100 }
  - { offset: 0x409DEA, size: 0x8, addend: 0x0, symName: __ZN18llama_model_loaderC1ERKNSt3__112basic_stringIcNS0_11char_traitsIcEENS0_9allocatorIcEEEERNS0_6vectorIS6_NS4_IS6_EEEEbbbbPK23llama_model_kv_overridePK32llama_model_tensor_buft_override, symObjAddr: 0x4A58, symBinAddr: 0x6AE58, symSize: 0xC }
  - { offset: 0x409EE2, size: 0x8, addend: 0x0, symName: __ZNK18llama_model_loader13get_arch_nameEv, symObjAddr: 0x4A64, symBinAddr: 0x6AE64, symSize: 0x28 }
  - { offset: 0x409F28, size: 0x8, addend: 0x0, symName: __ZNK18llama_model_loader13get_arch_nameEv, symObjAddr: 0x4A64, symBinAddr: 0x6AE64, symSize: 0x28 }
  - { offset: 0x409F60, size: 0x8, addend: 0x0, symName: __ZNK18llama_model_loader8get_archEv, symObjAddr: 0x4A8C, symBinAddr: 0x6AE8C, symSize: 0x8 }
  - { offset: 0x40A042, size: 0x8, addend: 0x0, symName: __ZNK18llama_model_loader10get_weightEPKc, symObjAddr: 0x4A94, symBinAddr: 0x6AE94, symSize: 0x14C }
  - { offset: 0x40A616, size: 0x8, addend: 0x0, symName: __ZNK18llama_model_loader14require_weightEPKc, symObjAddr: 0x4BE0, symBinAddr: 0x6AFE0, symSize: 0xC4 }
  - { offset: 0x40A797, size: 0x8, addend: 0x0, symName: __ZNK18llama_model_loader15get_tensor_metaEPKc, symObjAddr: 0x4CA4, symBinAddr: 0x6B0A4, symSize: 0x1C }
  - { offset: 0x40A81E, size: 0x8, addend: 0x0, symName: __ZNK18llama_model_loader19require_tensor_metaERKNSt3__112basic_stringIcNS0_11char_traitsIcEENS0_9allocatorIcEEEE, symObjAddr: 0x4CC0, symBinAddr: 0x6B0C0, symSize: 0xEC }
  - { offset: 0x40AAB1, size: 0x8, addend: 0x0, symName: __ZNK18llama_model_loader17check_tensor_dimsERKNSt3__112basic_stringIcNS0_11char_traitsIcEENS0_9allocatorIcEEEERKNS0_6vectorIxNS4_IxEEEEb, symObjAddr: 0x4DAC, symBinAddr: 0x6B1AC, symSize: 0x2E0 }
  - { offset: 0x40B573, size: 0x8, addend: 0x0, symName: __ZN18llama_model_loader13create_tensorEP12ggml_contextRKNSt3__112basic_stringIcNS2_11char_traitsIcEENS2_9allocatorIcEEEERKSt16initializer_listIxEi, symObjAddr: 0x508C, symBinAddr: 0x6B48C, symSize: 0x174 }
  - { offset: 0x40BC02, size: 0x8, addend: 0x0, symName: __ZNSt3__16vectorIxNS_9allocatorIxEEE20__throw_length_errorB8ne200100Ev, symObjAddr: 0xB9E0, symBinAddr: 0x71438, symSize: 0x14 }
  - { offset: 0x40BC1A, size: 0x8, addend: 0x0, symName: __ZNSt3__16vectorINS_10unique_ptrI10llama_mmapNS_14default_deleteIS2_EEEENS_9allocatorIS5_EEE20__throw_length_errorB8ne200100Ev, symObjAddr: 0xB9F4, symBinAddr: 0x7144C, symSize: 0x14 }
  - { offset: 0x40BC25, size: 0x8, addend: 0x0, symName: __ZN18llama_model_loader21create_tensor_as_viewEP12ggml_contextP11ggml_tensorRKNSt3__112basic_stringIcNS4_11char_traitsIcEENS4_9allocatorIcEEEERKSt16initializer_listIxEmb, symObjAddr: 0x5200, symBinAddr: 0x6B600, symSize: 0x28C }
  - { offset: 0x40C470, size: 0x8, addend: 0x0, symName: __ZNK18llama_model_loader20done_getting_tensorsEv, symObjAddr: 0x548C, symBinAddr: 0x6B88C, symSize: 0xD0 }
  - { offset: 0x40D1B6, size: 0x8, addend: 0x0, symName: __ZN18llama_model_loader13init_mappingsEbPNSt3__16vectorINS0_10unique_ptrI11llama_mlockNS0_14default_deleteIS3_EEEENS0_9allocatorIS6_EEEE, symObjAddr: 0x555C, symBinAddr: 0x6B95C, symSize: 0x52C }
  - { offset: 0x40E97D, size: 0x8, addend: 0x0, symName: __ZNSt3__16vectorINS_10unique_ptrI10llama_mmapNS_14default_deleteIS2_EEEENS_9allocatorIS5_EEE20__throw_length_errorB8ne200100Ev, symObjAddr: 0xB9F4, symBinAddr: 0x7144C, symSize: 0x14 }
  - { offset: 0x40E9AA, size: 0x8, addend: 0x0, symName: __ZNSt3__16vectorINS_10unique_ptrI11llama_mlockNS_14default_deleteIS2_EEEENS_9allocatorIS5_EEE20__throw_length_errorB8ne200100Ev, symObjAddr: 0xBA1C, symBinAddr: 0x71460, symSize: 0x14 }
  - { offset: 0x40E9B5, size: 0x8, addend: 0x0, symName: __ZNSt3__16vectorINS_10unique_ptrI11llama_mlockNS_14default_deleteIS2_EEEENS_9allocatorIS5_EEE20__throw_length_errorB8ne200100Ev, symObjAddr: 0xBA1C, symBinAddr: 0x71460, symSize: 0x14 }
  - { offset: 0x40E9CD, size: 0x8, addend: 0x0, symName: __ZNSt3__16vectorINS_10unique_ptrI10llama_mmapNS_14default_deleteIS2_EEEENS_9allocatorIS5_EEE20__throw_out_of_rangeB8ne200100Ev, symObjAddr: 0xBA30, symBinAddr: 0x71474, symSize: 0x14 }
  - { offset: 0x40E9D8, size: 0x8, addend: 0x0, symName: __ZNSt3__110unique_ptrI10llama_mmapNS_14default_deleteIS1_EEED1B8ne200100Ev, symObjAddr: 0x5AC4, symBinAddr: 0x6BEC4, symSize: 0x3C }
  - { offset: 0x40EA70, size: 0x8, addend: 0x0, symName: __ZNSt3__110unique_ptrI11llama_mlockNS_14default_deleteIS1_EEED1B8ne200100Ev, symObjAddr: 0x5A88, symBinAddr: 0x6BE88, symSize: 0x3C }
  - { offset: 0x40EC23, size: 0x8, addend: 0x0, symName: __ZNK18llama_model_loader17get_mapping_rangeEPmS0_PPviP12ggml_context, symObjAddr: 0x5B00, symBinAddr: 0x6BF00, symSize: 0x134 }
  - { offset: 0x40EEA7, size: 0x8, addend: 0x0, symName: __ZNK18llama_model_loader13load_data_forEP11ggml_tensor, symObjAddr: 0x5C34, symBinAddr: 0x6C034, symSize: 0x21C }
  - { offset: 0x40EEB2, size: 0x8, addend: 0x0, symName: __ZNSt3__16vectorINS_10unique_ptrI10llama_mmapNS_14default_deleteIS2_EEEENS_9allocatorIS5_EEE20__throw_out_of_rangeB8ne200100Ev, symObjAddr: 0xBA30, symBinAddr: 0x71474, symSize: 0x14 }
  - { offset: 0x40EECA, size: 0x8, addend: 0x0, symName: __ZNSt3__16vectorINS_10unique_ptrI10llama_fileNS_14default_deleteIS2_EEEENS_9allocatorIS5_EEE20__throw_out_of_rangeB8ne200100Ev, symObjAddr: 0xBA44, symBinAddr: 0x71488, symSize: 0x14 }
  - { offset: 0x40EED5, size: 0x8, addend: 0x0, symName: __ZNK18llama_model_loader13load_data_forEP11ggml_tensor, symObjAddr: 0x5C34, symBinAddr: 0x6C034, symSize: 0x21C }
  - { offset: 0x41192B, size: 0x8, addend: 0x0, symName: __ZNSt3__113__assoc_stateINS_4pairIP11ggml_tensorbEEE4moveEv, symObjAddr: 0xC07C, symBinAddr: 0x71AC0, symSize: 0xCC }
  - { offset: 0x411B2A, size: 0x8, addend: 0x0, symName: __ZNSt3__16vectorIP18ggml_backend_eventNS_9allocatorIS2_EEE12emplace_backIJRS2_EEES7_DpOT_, symObjAddr: 0x8164, symBinAddr: 0x6E418, symSize: 0xF0 }
  - { offset: 0x411F22, size: 0x8, addend: 0x0, symName: __ZNSt3__16vectorIP19ggml_backend_bufferNS_9allocatorIS2_EEE20__throw_length_errorB8ne200100Ev, symObjAddr: 0x8254, symBinAddr: 0x6E508, symSize: 0x14 }
  - { offset: 0x411F73, size: 0x8, addend: 0x0, symName: __ZNSt3__16vectorINS_10unique_ptrI10llama_fileNS_14default_deleteIS2_EEEENS_9allocatorIS5_EEE20__throw_out_of_rangeB8ne200100Ev, symObjAddr: 0xBA44, symBinAddr: 0x71488, symSize: 0x14 }
  - { offset: 0x411F8B, size: 0x8, addend: 0x0, symName: '__ZNSt3__119__async_assoc_stateINS_4pairIP11ggml_tensorbEENS_12__async_funcIZN18llama_model_loader13load_all_dataEP12ggml_contextRNS_13unordered_mapIjP19ggml_backend_bufferNS_4hashIjEENS_8equal_toIjEENS_9allocatorINS1_IKjSB_EEEEEEPNS_6vectorINS_10unique_ptrI11llama_mlockNS_14default_deleteISO_EEEENSG_ISR_EEEEPFbfPvESV_E3$_0JEEEED1Ev', symObjAddr: 0xBA58, symBinAddr: 0x7149C, symSize: 0x4C }
  - { offset: 0x411F96, size: 0x8, addend: 0x0, symName: __ZNSt3__16vectorINS_4pairImmEENS_9allocatorIS2_EEE20__throw_out_of_rangeB8ne200100Ev, symObjAddr: 0xC148, symBinAddr: 0x71B8C, symSize: 0x14 }
  - { offset: 0x411FB9, size: 0x8, addend: 0x0, symName: __ZNSt3__16vectorINS_6futureINS_4pairIP11ggml_tensorbEEEENS_9allocatorIS6_EEE20__throw_length_errorB8ne200100Ev, symObjAddr: 0xBD98, symBinAddr: 0x717DC, symSize: 0x14 }
  - { offset: 0x411FD1, size: 0x8, addend: 0x0, symName: __ZNSt3__16vectorINS_10unique_ptrI11llama_mlockNS_14default_deleteIS2_EEEENS_9allocatorIS5_EEE20__throw_out_of_rangeB8ne200100Ev, symObjAddr: 0xBDAC, symBinAddr: 0x717F0, symSize: 0x14 }
  - { offset: 0x411FDC, size: 0x8, addend: 0x0, symName: __ZNSt3__16vectorINS_10unique_ptrI11llama_mlockNS_14default_deleteIS2_EEEENS_9allocatorIS5_EEE20__throw_out_of_rangeB8ne200100Ev, symObjAddr: 0xBDAC, symBinAddr: 0x717F0, symSize: 0x14 }
  - { offset: 0x411FF4, size: 0x8, addend: 0x0, symName: '__ZNSt3__119__async_assoc_stateINS_4pairIP11ggml_tensorbEENS_12__async_funcIZN18llama_model_loader13load_all_dataEP12ggml_contextRNS_13unordered_mapIjP19ggml_backend_bufferNS_4hashIjEENS_8equal_toIjEENS_9allocatorINS1_IKjSB_EEEEEEPNS_6vectorINS_10unique_ptrI11llama_mlockNS_14default_deleteISO_EEEENSG_ISR_EEEEPFbfPvESV_E3$_1JEEEED1Ev', symObjAddr: 0xBDC0, symBinAddr: 0x71804, symSize: 0x4C }
  - { offset: 0x411FFF, size: 0x8, addend: 0x0, symName: __ZNSt3__16vectorI7no_initIhENS_9allocatorIS2_EEE20__throw_length_errorB8ne200100Ev, symObjAddr: 0xC068, symBinAddr: 0x71AAC, symSize: 0x14 }
  - { offset: 0x412017, size: 0x8, addend: 0x0, symName: __ZNSt3__113__assoc_stateINS_4pairIP11ggml_tensorbEEE4moveEv, symObjAddr: 0xC07C, symBinAddr: 0x71AC0, symSize: 0xCC }
  - { offset: 0x412022, size: 0x8, addend: 0x0, symName: __ZNSt3__16vectorIP19ggml_backend_bufferNS_9allocatorIS2_EEE20__throw_length_errorB8ne200100Ev, symObjAddr: 0x8254, symBinAddr: 0x6E508, symSize: 0x14 }
  - { offset: 0x41203A, size: 0x8, addend: 0x0, symName: __ZNSt3__16vectorIPvNS_9allocatorIS1_EEE20__throw_length_errorB8ne200100Ev, symObjAddr: 0x8268, symBinAddr: 0x6E51C, symSize: 0x14 }
  - { offset: 0x412045, size: 0x8, addend: 0x0, symName: __ZNSt3__16vectorIPvNS_9allocatorIS1_EEE20__throw_length_errorB8ne200100Ev, symObjAddr: 0x8268, symBinAddr: 0x6E51C, symSize: 0x14 }
  - { offset: 0x41205D, size: 0x8, addend: 0x0, symName: __ZNSt3__16vectorIP18ggml_backend_eventNS_9allocatorIS2_EEE20__throw_length_errorB8ne200100Ev, symObjAddr: 0x827C, symBinAddr: 0x6E530, symSize: 0x14 }
  - { offset: 0x412068, size: 0x8, addend: 0x0, symName: '__ZNSt3__110unique_ptrINS_5tupleIJNS0_INS_15__thread_structENS_14default_deleteIS2_EEEEMNS_19__async_assoc_stateINS_4pairIP11ggml_tensorbEENS_12__async_funcIZN18llama_model_loader13load_all_dataEP12ggml_contextRNS_13unordered_mapIjP19ggml_backend_bufferNS_4hashIjEENS_8equal_toIjEENS_9allocatorINS7_IKjSH_EEEEEEPNS_6vectorINS0_I11llama_mlockNS3_IST_EEEENSM_ISV_EEEEPFbfPvESZ_E3$_1JEEEEEFvvEPS14_EEENS3_IS18_EEED1B8ne200100Ev', symObjAddr: 0xC020, symBinAddr: 0x71A64, symSize: 0x48 }
  - { offset: 0x412210, size: 0x8, addend: 0x0, symName: __ZNSt3__110unique_ptrINS_15__thread_structENS_14default_deleteIS1_EEED1B8ne200100Ev, symObjAddr: 0xBD5C, symBinAddr: 0x717A0, symSize: 0x3C }
  - { offset: 0x4122A8, size: 0x8, addend: 0x0, symName: '__ZNSt3__110unique_ptrINS_5tupleIJNS0_INS_15__thread_structENS_14default_deleteIS2_EEEEMNS_19__async_assoc_stateINS_4pairIP11ggml_tensorbEENS_12__async_funcIZN18llama_model_loader13load_all_dataEP12ggml_contextRNS_13unordered_mapIjP19ggml_backend_bufferNS_4hashIjEENS_8equal_toIjEENS_9allocatorINS7_IKjSH_EEEEEEPNS_6vectorINS0_I11llama_mlockNS3_IST_EEEENSM_ISV_EEEEPFbfPvESZ_E3$_0JEEEEEFvvEPS14_EEENS3_IS18_EEED1B8ne200100Ev', symObjAddr: 0xBD14, symBinAddr: 0x71758, symSize: 0x48 }
  - { offset: 0x412450, size: 0x8, addend: 0x0, symName: __ZNSt3__16vectorINS_6futureINS_4pairIP11ggml_tensorbEEEENS_9allocatorIS6_EEED1B8ne200100Ev, symObjAddr: 0x7898, symBinAddr: 0x6DC98, symSize: 0x80 }
  - { offset: 0x412656, size: 0x8, addend: 0x0, symName: __ZNK18llama_model_loader10ftype_nameEv, symObjAddr: 0x7918, symBinAddr: 0x6DD18, symSize: 0xC }
  - { offset: 0x412696, size: 0x8, addend: 0x0, symName: __ZL22llama_model_ftype_name11llama_ftype, symObjAddr: 0x7924, symBinAddr: 0x6DD24, symSize: 0x3EC }
  - { offset: 0x412B1F, size: 0x8, addend: 0x0, symName: __ZNK18llama_model_loader10print_infoEv, symObjAddr: 0x7D10, symBinAddr: 0x6E110, symSize: 0x150 }
  - { offset: 0x413320, size: 0x8, addend: 0x0, symName: __ZNSt3__16vectorIP18ggml_backend_eventNS_9allocatorIS2_EEE20__throw_length_errorB8ne200100Ev, symObjAddr: 0x827C, symBinAddr: 0x6E530, symSize: 0x14 }
  - { offset: 0x413338, size: 0x8, addend: 0x0, symName: __ZN8GGUFMeta3GKVINS_9ArrayInfoEE6get_kvEPK12gguf_contexti, symObjAddr: 0x8290, symBinAddr: 0x6E544, symSize: 0x150 }
  - { offset: 0x414405, size: 0x8, addend: 0x0, symName: __ZNSt3__112__hash_tableINS_17__hash_value_typeINS_12basic_stringIcNS_11char_traitsIcEENS_9allocatorIcEEEE23llama_model_kv_overrideEENS_22__unordered_map_hasherIS7_S9_NS_4hashIS7_EENS_8equal_toIS7_EELb1EEENS_21__unordered_map_equalIS7_S9_SE_SC_Lb1EEENS5_IS9_EEE11__do_rehashILb1EEEvm, symObjAddr: 0xACA8, symBinAddr: 0x70934, symSize: 0x180 }
  - { offset: 0x414792, size: 0x8, addend: 0x0, symName: __ZNSt3__16vectorINS_10unique_ptrI10llama_fileNS_14default_deleteIS2_EEEENS_9allocatorIS5_EEE20__throw_length_errorB8ne200100Ev, symObjAddr: 0xAE28, symBinAddr: 0x70AB4, symSize: 0x14 }
  - { offset: 0x4147A7, size: 0x8, addend: 0x0, symName: __ZNSt3__110unique_ptrINS_11__hash_nodeINS_17__hash_value_typeINS_12basic_stringIcNS_11char_traitsIcEENS_9allocatorIcEEEE23llama_model_kv_overrideEEPvEENS_22__hash_node_destructorINS6_ISC_EEEEED1B8ne200100Ev, symObjAddr: 0xAC48, symBinAddr: 0x708D4, symSize: 0x60 }
  - { offset: 0x414D4C, size: 0x8, addend: 0x0, symName: '__ZNSt3__119__async_assoc_stateINS_4pairIP11ggml_tensorbEENS_12__async_funcIZN18llama_model_loader13load_all_dataEP12ggml_contextRNS_13unordered_mapIjP19ggml_backend_bufferNS_4hashIjEENS_8equal_toIjEENS_9allocatorINS1_IKjSB_EEEEEEPNS_6vectorINS_10unique_ptrI11llama_mlockNS_14default_deleteISO_EEEENSG_ISR_EEEEPFbfPvESV_E3$_0JEEEED1Ev', symObjAddr: 0xBA58, symBinAddr: 0x7149C, symSize: 0x4C }
  - { offset: 0x414DE8, size: 0x8, addend: 0x0, symName: '__ZNSt3__119__async_assoc_stateINS_4pairIP11ggml_tensorbEENS_12__async_funcIZN18llama_model_loader13load_all_dataEP12ggml_contextRNS_13unordered_mapIjP19ggml_backend_bufferNS_4hashIjEENS_8equal_toIjEENS_9allocatorINS1_IKjSB_EEEEEEPNS_6vectorINS_10unique_ptrI11llama_mlockNS_14default_deleteISO_EEEENSG_ISR_EEEEPFbfPvESV_E3$_0JEEEED0Ev', symObjAddr: 0xBAA4, symBinAddr: 0x714E8, symSize: 0x50 }
  - { offset: 0x414EA2, size: 0x8, addend: 0x0, symName: '__ZNSt3__119__async_assoc_stateINS_4pairIP11ggml_tensorbEENS_12__async_funcIZN18llama_model_loader13load_all_dataEP12ggml_contextRNS_13unordered_mapIjP19ggml_backend_bufferNS_4hashIjEENS_8equal_toIjEENS_9allocatorINS1_IKjSB_EEEEEEPNS_6vectorINS_10unique_ptrI11llama_mlockNS_14default_deleteISO_EEEENSG_ISR_EEEEPFbfPvESV_E3$_0JEEEE16__on_zero_sharedEv', symObjAddr: 0xBAF4, symBinAddr: 0x71538, symSize: 0x30 }
  - { offset: 0x41510E, size: 0x8, addend: 0x0, symName: '__ZNSt3__119__async_assoc_stateINS_4pairIP11ggml_tensorbEENS_12__async_funcIZN18llama_model_loader13load_all_dataEP12ggml_contextRNS_13unordered_mapIjP19ggml_backend_bufferNS_4hashIjEENS_8equal_toIjEENS_9allocatorINS1_IKjSB_EEEEEEPNS_6vectorINS_10unique_ptrI11llama_mlockNS_14default_deleteISO_EEEENSG_ISR_EEEEPFbfPvESV_E3$_0JEEEE9__executeEv', symObjAddr: 0xBB24, symBinAddr: 0x71568, symSize: 0x108 }
  - { offset: 0x4155D2, size: 0x8, addend: 0x0, symName: '__ZNSt3__119__async_assoc_stateINS_4pairIP11ggml_tensorbEENS_12__async_funcIZN18llama_model_loader13load_all_dataEP12ggml_contextRNS_13unordered_mapIjP19ggml_backend_bufferNS_4hashIjEENS_8equal_toIjEENS_9allocatorINS1_IKjSB_EEEEEEPNS_6vectorINS_10unique_ptrI11llama_mlockNS_14default_deleteISO_EEEENSG_ISR_EEEEPFbfPvESV_E3$_1JEEEED1Ev', symObjAddr: 0xBDC0, symBinAddr: 0x71804, symSize: 0x4C }
  - { offset: 0x41566E, size: 0x8, addend: 0x0, symName: '__ZNSt3__119__async_assoc_stateINS_4pairIP11ggml_tensorbEENS_12__async_funcIZN18llama_model_loader13load_all_dataEP12ggml_contextRNS_13unordered_mapIjP19ggml_backend_bufferNS_4hashIjEENS_8equal_toIjEENS_9allocatorINS1_IKjSB_EEEEEEPNS_6vectorINS_10unique_ptrI11llama_mlockNS_14default_deleteISO_EEEENSG_ISR_EEEEPFbfPvESV_E3$_1JEEEED0Ev', symObjAddr: 0xBE0C, symBinAddr: 0x71850, symSize: 0x50 }
  - { offset: 0x415710, size: 0x8, addend: 0x0, symName: '__ZNSt3__119__async_assoc_stateINS_4pairIP11ggml_tensorbEENS_12__async_funcIZN18llama_model_loader13load_all_dataEP12ggml_contextRNS_13unordered_mapIjP19ggml_backend_bufferNS_4hashIjEENS_8equal_toIjEENS_9allocatorINS1_IKjSB_EEEEEEPNS_6vectorINS_10unique_ptrI11llama_mlockNS_14default_deleteISO_EEEENSG_ISR_EEEEPFbfPvESV_E3$_1JEEEE16__on_zero_sharedEv', symObjAddr: 0xBE5C, symBinAddr: 0x718A0, symSize: 0x30 }
  - { offset: 0x4157C2, size: 0x8, addend: 0x0, symName: '__ZNSt3__119__async_assoc_stateINS_4pairIP11ggml_tensorbEENS_12__async_funcIZN18llama_model_loader13load_all_dataEP12ggml_contextRNS_13unordered_mapIjP19ggml_backend_bufferNS_4hashIjEENS_8equal_toIjEENS_9allocatorINS1_IKjSB_EEEEEEPNS_6vectorINS_10unique_ptrI11llama_mlockNS_14default_deleteISO_EEEENSG_ISR_EEEEPFbfPvESV_E3$_1JEEEE9__executeEv', symObjAddr: 0xBE8C, symBinAddr: 0x718D0, symSize: 0x108 }
  - { offset: 0x4315C3, size: 0x8, addend: 0x0, symName: __ZN17llama_model_saverC2ERK11llama_model, symObjAddr: 0x0, symBinAddr: 0x71BA0, symSize: 0x38 }
  - { offset: 0x431635, size: 0x8, addend: 0x0, symName: __ZN17llama_model_saverC1ERK11llama_model, symObjAddr: 0x38, symBinAddr: 0x71BD8, symSize: 0x38 }
  - { offset: 0x4316A4, size: 0x8, addend: 0x0, symName: __ZN17llama_model_saverD2Ev, symObjAddr: 0x70, symBinAddr: 0x71C10, symSize: 0x2C }
  - { offset: 0x4316FD, size: 0x8, addend: 0x0, symName: __ZN17llama_model_saverD1Ev, symObjAddr: 0xAC, symBinAddr: 0x71C3C, symSize: 0x2C }
  - { offset: 0x431859, size: 0x8, addend: 0x0, symName: __ZN17llama_model_saver6add_kvE6llm_kvj, symObjAddr: 0xD8, symBinAddr: 0x71C68, symSize: 0x98 }
  - { offset: 0x431B35, size: 0x8, addend: 0x0, symName: __ZN17llama_model_saver6add_kvE6llm_kvi, symObjAddr: 0x170, symBinAddr: 0x71D00, symSize: 0x98 }
  - { offset: 0x431E11, size: 0x8, addend: 0x0, symName: __ZN17llama_model_saver6add_kvE6llm_kvf, symObjAddr: 0x208, symBinAddr: 0x71D98, symSize: 0x98 }
  - { offset: 0x4320E7, size: 0x8, addend: 0x0, symName: __ZN17llama_model_saver6add_kvE6llm_kvb, symObjAddr: 0x2A0, symBinAddr: 0x71E30, symSize: 0x98 }
  - { offset: 0x4323C3, size: 0x8, addend: 0x0, symName: __ZN17llama_model_saver6add_kvE6llm_kvPKc, symObjAddr: 0x338, symBinAddr: 0x71EC8, symSize: 0x98 }
  - { offset: 0x4326B2, size: 0x8, addend: 0x0, symName: __ZN17llama_model_saver6add_kvE6llm_kvc, symObjAddr: 0x3D0, symBinAddr: 0x71F60, symSize: 0x20 }
  - { offset: 0x4326EF, size: 0x8, addend: 0x0, symName: __ZN17llama_model_saver6add_kvE6llm_kvRKNSt3__16vectorINS1_12basic_stringIcNS1_11char_traitsIcEENS1_9allocatorIcEEEENS6_IS8_EEEE, symObjAddr: 0x3F0, symBinAddr: 0x71F80, symSize: 0x2D4 }
  - { offset: 0x432998, size: 0x8, addend: 0x0, symName: __ZN17llama_model_saver6add_kvE6llm_kvRKNSt3__16vectorINS1_12basic_stringIcNS1_11char_traitsIcEENS1_9allocatorIcEEEENS6_IS8_EEEE, symObjAddr: 0x3F0, symBinAddr: 0x71F80, symSize: 0x2D4 }
  - { offset: 0x432FF6, size: 0x8, addend: 0x0, symName: __ZNSt3__16vectorIPKcNS_9allocatorIS2_EEE20__throw_length_errorB8ne200100Ev, symObjAddr: 0x2CC8, symBinAddr: 0x747E8, symSize: 0x14 }
  - { offset: 0x433295, size: 0x8, addend: 0x0, symName: __ZN17llama_model_saver10add_tensorEPK11ggml_tensor, symObjAddr: 0x6C4, symBinAddr: 0x72254, symSize: 0x1A0 }
  - { offset: 0x433666, size: 0x8, addend: 0x0, symName: __ZN17llama_model_saver17add_kv_from_modelEv, symObjAddr: 0x864, symBinAddr: 0x723F4, symSize: 0x1E68 }
  - { offset: 0x434180, size: 0x8, addend: 0x0, symName: __ZN17llama_model_saver17add_kv_from_modelEv, symObjAddr: 0x864, symBinAddr: 0x723F4, symSize: 0x1E68 }
  - { offset: 0x43EBB0, size: 0x8, addend: 0x0, symName: __ZN17llama_model_saver6add_kvINSt3__112basic_stringIcNS1_11char_traitsIcEENS1_9allocatorIcEEEEEEv6llm_kvRKT_b, symObjAddr: 0x26CC, symBinAddr: 0x7425C, symSize: 0x148 }
  - { offset: 0x43EFE7, size: 0x8, addend: 0x0, symName: __ZN17llama_model_saver6add_kvINSt3__15arrayIjLm512EEEEEv6llm_kvRKT_b, symObjAddr: 0x2814, symBinAddr: 0x743A4, symSize: 0x13C }
  - { offset: 0x43F599, size: 0x8, addend: 0x0, symName: __ZN17llama_model_saver22add_tensors_from_modelEv, symObjAddr: 0x29C0, symBinAddr: 0x744E0, symSize: 0x2EC }
  - { offset: 0x440073, size: 0x8, addend: 0x0, symName: __ZN17llama_model_saver4saveERKNSt3__112basic_stringIcNS0_11char_traitsIcEENS0_9allocatorIcEEEE, symObjAddr: 0x2CAC, symBinAddr: 0x747CC, symSize: 0x1C }
  - { offset: 0x4420DA, size: 0x8, addend: 0x0, symName: __ZL24LLAMA_ROPE_SCALING_TYPES, symObjAddr: 0x515180, symBinAddr: 0x3600B0, symSize: 0x0 }
  - { offset: 0x49FE59, size: 0x8, addend: 0x0, symName: __ZNSt3__111make_uniqueB8ne200100I20llm_build_nemotron_hJRK11llama_modelRK16llm_graph_paramsELi0EEENS_10unique_ptrIT_NS_14default_deleteIS9_EEEEDpOT0_, symObjAddr: 0x3E680, symBinAddr: 0xB2DFC, symSize: 0x5C }
  - { offset: 0x49FEFF, size: 0x8, addend: 0x0, symName: __ZNSt3__111make_uniqueB8ne200100I14llm_build_phi3ILb1EEJRK11llama_modelRK16llm_graph_paramsELi0EEENS_10unique_ptrIT_NS_14default_deleteISA_EEEEDpOT0_, symObjAddr: 0x3D7C4, symBinAddr: 0xB1F40, symSize: 0x5C }
  - { offset: 0x49FFA5, size: 0x8, addend: 0x0, symName: __ZNSt3__111make_uniqueB8ne200100I15llm_build_mambaJRK11llama_modelRK16llm_graph_paramsELi0EEENS_10unique_ptrIT_NS_14default_deleteIS9_EEEEDpOT0_, symObjAddr: 0x3DE3C, symBinAddr: 0xB25B8, symSize: 0x5C }
  - { offset: 0x4A004B, size: 0x8, addend: 0x0, symName: __ZNSt3__111make_uniqueB8ne200100I14llm_build_lfm2JRK11llama_modelRK16llm_graph_paramsELi0EEENS_10unique_ptrIT_NS_14default_deleteIS9_EEEEDpOT0_, symObjAddr: 0x3EFD8, symBinAddr: 0xB3754, symSize: 0x5C }
  - { offset: 0x4A00F1, size: 0x8, addend: 0x0, symName: __ZNSt3__111make_uniqueB8ne200100I20llm_build_mimo2_iswaJRK11llama_modelRK16llm_graph_paramsELi0EEENS_10unique_ptrIT_NS_14default_deleteIS9_EEEEDpOT0_, symObjAddr: 0x3F370, symBinAddr: 0xB3AEC, symSize: 0x5C }
  - { offset: 0x4A0197, size: 0x8, addend: 0x0, symName: __ZNSt3__111make_uniqueB8ne200100I14llm_build_rnd1JRK11llama_modelRK16llm_graph_paramsELi0EEENS_10unique_ptrIT_NS_14default_deleteIS9_EEEEDpOT0_, symObjAddr: 0x3D4E4, symBinAddr: 0xB1C60, symSize: 0x5C }
  - { offset: 0x4A023D, size: 0x8, addend: 0x0, symName: __ZNSt3__111make_uniqueB8ne200100I16llm_build_cogvlmJRK11llama_modelRK16llm_graph_paramsELi0EEENS_10unique_ptrIT_NS_14default_deleteIS9_EEEEDpOT0_, symObjAddr: 0x3F200, symBinAddr: 0xB397C, symSize: 0x5C }
  - { offset: 0x4A02E3, size: 0x8, addend: 0x0, symName: __ZNSt3__111make_uniqueB8ne200100I17llm_build_smollm3JRK11llama_modelRK16llm_graph_paramsELi0EEENS_10unique_ptrIT_NS_14default_deleteIS9_EEEEDpOT0_, symObjAddr: 0x3EEC4, symBinAddr: 0xB3640, symSize: 0x5C }
  - { offset: 0x4A0389, size: 0x8, addend: 0x0, symName: __ZNSt3__111make_uniqueB8ne200100I15llm_build_afmoeJRK11llama_modelRK16llm_graph_paramsELi0EEENS_10unique_ptrIT_NS_14default_deleteIS9_EEEEDpOT0_, symObjAddr: 0x3ECF8, symBinAddr: 0xB3474, symSize: 0x5C }
  - { offset: 0x4A042F, size: 0x8, addend: 0x0, symName: __ZNSt3__111make_uniqueB8ne200100I16llm_build_bitnetJRK11llama_modelRK16llm_graph_paramsELi0EEENS_10unique_ptrIT_NS_14default_deleteIS9_EEEEDpOT0_, symObjAddr: 0x3E4B4, symBinAddr: 0xB2C30, symSize: 0x5C }
  - { offset: 0x4A04D5, size: 0x8, addend: 0x0, symName: __ZNSt3__111make_uniqueB8ne200100I20llm_build_exaone_moeJRK11llama_modelRK16llm_graph_paramsELi0EEENS_10unique_ptrIT_NS_14default_deleteIS9_EEEEDpOT0_, symObjAddr: 0x3E7F0, symBinAddr: 0xB2F6C, symSize: 0x5C }
  - { offset: 0x4A057B, size: 0x8, addend: 0x0, symName: __ZNSt3__111make_uniqueB8ne200100I24llm_build_granite_hybridJRK11llama_modelRK16llm_graph_paramsELi0EEENS_10unique_ptrIT_NS_14default_deleteIS9_EEEEDpOT0_, symObjAddr: 0x3E9BC, symBinAddr: 0xB3138, symSize: 0x5C }
  - { offset: 0x4A0621, size: 0x8, addend: 0x0, symName: __ZNSt3__111make_uniqueB8ne200100I18llm_build_grovemoeJRK11llama_modelRK16llm_graph_paramsELi0EEENS_10unique_ptrIT_NS_14default_deleteIS9_EEEEDpOT0_, symObjAddr: 0x3F0EC, symBinAddr: 0xB3868, symSize: 0x5C }
  - { offset: 0x4A06C7, size: 0x8, addend: 0x0, symName: __ZNSt3__111make_uniqueB8ne200100I14llm_build_jaisJRK11llama_modelRK16llm_graph_paramsELi0EEENS_10unique_ptrIT_NS_14default_deleteIS9_EEEEDpOT0_, symObjAddr: 0x3E5C8, symBinAddr: 0xB2D44, symSize: 0x5C }
  - { offset: 0x4A076D, size: 0x8, addend: 0x0, symName: __ZNSt3__111make_uniqueB8ne200100I18llm_build_mistral3JRK11llama_modelRK16llm_graph_paramsELi0EEENS_10unique_ptrIT_NS_14default_deleteIS9_EEEEDpOT0_, symObjAddr: 0x3F314, symBinAddr: 0xB3A90, symSize: 0x5C }
  - { offset: 0x4A0813, size: 0x8, addend: 0x0, symName: __ZNSt3__111make_uniqueB8ne200100I24llm_build_pangu_embeddedJRK11llama_modelRK16llm_graph_paramsELi0EEENS_10unique_ptrIT_NS_14default_deleteIS9_EEEEDpOT0_, symObjAddr: 0x3F25C, symBinAddr: 0xB39D8, symSize: 0x5C }
  - { offset: 0x4A08B9, size: 0x8, addend: 0x0, symName: __ZNSt3__111make_uniqueB8ne200100I15llm_build_olmoeJRK11llama_modelRK16llm_graph_paramsELi0EEENS_10unique_ptrIT_NS_14default_deleteIS9_EEEEDpOT0_, symObjAddr: 0x3E178, symBinAddr: 0xB28F4, symSize: 0x5C }
  - { offset: 0x4A095F, size: 0x8, addend: 0x0, symName: __ZNSt3__111make_uniqueB8ne200100I16llm_build_arcticJRK11llama_modelRK16llm_graph_paramsELi0EEENS_10unique_ptrIT_NS_14default_deleteIS9_EEEEDpOT0_, symObjAddr: 0x3E28C, symBinAddr: 0xB2A08, symSize: 0x5C }
  - { offset: 0x4A0A05, size: 0x8, addend: 0x0, symName: __ZNSt3__111make_uniqueB8ne200100I14llm_build_glm4JRK11llama_modelRK16llm_graph_paramsELi0EEENS_10unique_ptrIT_NS_14default_deleteIS9_EEEEDpOT0_, symObjAddr: 0x3E3FC, symBinAddr: 0xB2B78, symSize: 0x5C }
  - { offset: 0x4A0AAB, size: 0x8, addend: 0x0, symName: __ZNSt3__111make_uniqueB8ne200100I26llm_build_wavtokenizer_decJRK11llama_modelRK16llm_graph_paramsELi0EEENS_10unique_ptrIT_NS_14default_deleteIS9_EEEEDpOT0_, symObjAddr: 0x3EA74, symBinAddr: 0xB31F0, symSize: 0x5C }
  - { offset: 0x4A0B51, size: 0x8, addend: 0x0, symName: __ZNSt3__111make_uniqueB8ne200100I17llm_build_chatglmJRK11llama_modelRK16llm_graph_paramsELi0EEENS_10unique_ptrIT_NS_14default_deleteIS9_EEEEDpOT0_, symObjAddr: 0x3E3A0, symBinAddr: 0xB2B1C, symSize: 0x5C }
  - { offset: 0x4A0BF7, size: 0x8, addend: 0x0, symName: __ZNSt3__111make_uniqueB8ne200100I22llm_build_gemma3n_iswaJRK11llama_modelRK16llm_graph_paramsELi0EEENS_10unique_ptrIT_NS_14default_deleteIS9_EEEEDpOT0_, symObjAddr: 0x3DD28, symBinAddr: 0xB24A4, symSize: 0x5C }
  - { offset: 0x4A0C9D, size: 0x8, addend: 0x0, symName: __ZNSt3__111make_uniqueB8ne200100I19llm_build_chameleonJRK11llama_modelRK16llm_graph_paramsELi0EEENS_10unique_ptrIT_NS_14default_deleteIS9_EEEEDpOT0_, symObjAddr: 0x3EA18, symBinAddr: 0xB3194, symSize: 0x5C }
  - { offset: 0x4A0D43, size: 0x8, addend: 0x0, symName: __ZNSt3__111make_uniqueB8ne200100I15llm_build_gemmaJRK11llama_modelRK16llm_graph_paramsELi0EEENS_10unique_ptrIT_NS_14default_deleteIS9_EEEEDpOT0_, symObjAddr: 0x3DBB8, symBinAddr: 0xB2334, symSize: 0x5C }
  - { offset: 0x4A0DE9, size: 0x8, addend: 0x0, symName: __ZNSt3__111make_uniqueB8ne200100I18llm_build_deepseekJRK11llama_modelRK16llm_graph_paramsELi0EEENS_10unique_ptrIT_NS_14default_deleteIS9_EEEEDpOT0_, symObjAddr: 0x3E2E8, symBinAddr: 0xB2A64, symSize: 0x5C }
  - { offset: 0x4A0E8F, size: 0x8, addend: 0x0, symName: __ZNSt3__111make_uniqueB8ne200100I18llm_build_glm4_moeJRK11llama_modelRK16llm_graph_paramsELi0EEENS_10unique_ptrIT_NS_14default_deleteIS9_EEEEDpOT0_, symObjAddr: 0x3E458, symBinAddr: 0xB2BD4, symSize: 0x5C }
  - { offset: 0x4A0F35, size: 0x8, addend: 0x0, symName: __ZNSt3__111make_uniqueB8ne200100I19llm_build_deepseek2JRK11llama_modelRK16llm_graph_paramsELi0EEENS_10unique_ptrIT_NS_14default_deleteIS9_EEEEDpOT0_, symObjAddr: 0x3E344, symBinAddr: 0xB2AC0, symSize: 0x5C }
  - { offset: 0x4A0FDB, size: 0x8, addend: 0x0, symName: __ZNSt3__111make_uniqueB8ne200100I15llm_build_rwkv6JRK11llama_modelRK16llm_graph_paramsELi0EEENS_10unique_ptrIT_NS_14default_deleteIS9_EEEEDpOT0_, symObjAddr: 0x3E84C, symBinAddr: 0xB2FC8, symSize: 0x5C }
  - { offset: 0x4A1081, size: 0x8, addend: 0x0, symName: __ZNSt3__111make_uniqueB8ne200100I17llm_build_qwen2vlJRK11llama_modelRK16llm_graph_paramsELi0EEENS_10unique_ptrIT_NS_14default_deleteIS9_EEEEDpOT0_, symObjAddr: 0x3D540, symBinAddr: 0xB1CBC, symSize: 0x5C }
  - { offset: 0x4A1127, size: 0x8, addend: 0x0, symName: __ZNSt3__111make_uniqueB8ne200100I23llm_build_hunyuan_denseJRK11llama_modelRK16llm_graph_paramsELi0EEENS_10unique_ptrIT_NS_14default_deleteIS9_EEEEDpOT0_, symObjAddr: 0x3EE68, symBinAddr: 0xB35E4, symSize: 0x5C }
  - { offset: 0x4A11CD, size: 0x8, addend: 0x0, symName: __ZNSt3__111make_uniqueB8ne200100I15llm_build_olmo2ILb1EEJRK11llama_modelRK16llm_graph_paramsELi0EEENS_10unique_ptrIT_NS_14default_deleteISA_EEEEDpOT0_, symObjAddr: 0x3E0C0, symBinAddr: 0xB283C, symSize: 0x5C }
  - { offset: 0x4A1273, size: 0x8, addend: 0x0, symName: __ZNSt3__111make_uniqueB8ne200100I22llm_build_smallthinkerILb1EEJRK11llama_modelRK16llm_graph_paramsELi0EEENS_10unique_ptrIT_NS_14default_deleteISA_EEEEDpOT0_, symObjAddr: 0x3F034, symBinAddr: 0xB37B0, symSize: 0x5C }
  - { offset: 0x4A1319, size: 0x8, addend: 0x0, symName: __ZNSt3__111make_uniqueB8ne200100I17llm_build_openelmJRK11llama_modelRK16llm_graph_paramsELi0EEENS_10unique_ptrIT_NS_14default_deleteIS9_EEEEDpOT0_, symObjAddr: 0x3E1D4, symBinAddr: 0xB2950, symSize: 0x5C }
  - { offset: 0x4A13BF, size: 0x8, addend: 0x0, symName: __ZNSt3__111make_uniqueB8ne200100I25llm_build_openai_moe_iswaJRK11llama_modelRK16llm_graph_paramsELi0EEENS_10unique_ptrIT_NS_14default_deleteIS9_EEEEDpOT0_, symObjAddr: 0x3EF20, symBinAddr: 0xB369C, symSize: 0x5C }
  - { offset: 0x4A1465, size: 0x8, addend: 0x0, symName: __ZNSt3__111make_uniqueB8ne200100I19llm_build_codeshellJRK11llama_modelRK16llm_graph_paramsELi0EEENS_10unique_ptrIT_NS_14default_deleteIS9_EEEEDpOT0_, symObjAddr: 0x3DA48, symBinAddr: 0xB21C4, symSize: 0x5C }
  - { offset: 0x4A150B, size: 0x8, addend: 0x0, symName: __ZNSt3__111make_uniqueB8ne200100I16llm_build_plamo3ILb1EEJRK11llama_modelRK16llm_graph_paramsELi0EEENS_10unique_ptrIT_NS_14default_deleteISA_EEEEDpOT0_, symObjAddr: 0x3D934, symBinAddr: 0xB20B0, symSize: 0x5C }
  - { offset: 0x4A15B1, size: 0x8, addend: 0x0, symName: __ZNSt3__111make_uniqueB8ne200100I15llm_build_orionJRK11llama_modelRK16llm_graph_paramsELi0EEENS_10unique_ptrIT_NS_14default_deleteIS9_EEEEDpOT0_, symObjAddr: 0x3DAA4, symBinAddr: 0xB2220, symSize: 0x5C }
  - { offset: 0x4A1657, size: 0x8, addend: 0x0, symName: __ZNSt3__111make_uniqueB8ne200100I14llm_build_qwenJRK11llama_modelRK16llm_graph_paramsELi0EEENS_10unique_ptrIT_NS_14default_deleteIS9_EEEEDpOT0_, symObjAddr: 0x3D318, symBinAddr: 0xB1A94, symSize: 0x5C }
  - { offset: 0x4A16FD, size: 0x8, addend: 0x0, symName: __ZNSt3__111make_uniqueB8ne200100I19llm_build_internlm2JRK11llama_modelRK16llm_graph_paramsELi0EEENS_10unique_ptrIT_NS_14default_deleteIS9_EEEEDpOT0_, symObjAddr: 0x3DB00, symBinAddr: 0xB227C, symSize: 0x5C }
  - { offset: 0x4A17A3, size: 0x8, addend: 0x0, symName: __ZNSt3__111make_uniqueB8ne200100I22llm_build_cohere2_iswaJRK11llama_modelRK16llm_graph_paramsELi0EEENS_10unique_ptrIT_NS_14default_deleteIS9_EEEEDpOT0_, symObjAddr: 0x3DFAC, symBinAddr: 0xB2728, symSize: 0x5C }
  - { offset: 0x4A1849, size: 0x8, addend: 0x0, symName: __ZNSt3__111make_uniqueB8ne200100I21llm_build_bailingmoe2JRK11llama_modelRK16llm_graph_paramsELi0EEENS_10unique_ptrIT_NS_14default_deleteIS9_EEEEDpOT0_, symObjAddr: 0x3EB88, symBinAddr: 0xB3304, symSize: 0x5C }
  - { offset: 0x4A18EF, size: 0x8, addend: 0x0, symName: __ZNSt3__111make_uniqueB8ne200100I15llm_build_dots1JRK11llama_modelRK16llm_graph_paramsELi0EEENS_10unique_ptrIT_NS_14default_deleteIS9_EEEEDpOT0_, symObjAddr: 0x3EC40, symBinAddr: 0xB33BC, symSize: 0x5C }
  - { offset: 0x4A1995, size: 0x8, addend: 0x0, symName: __ZNSt3__111make_uniqueB8ne200100I19llm_build_starcoderJRK11llama_modelRK16llm_graph_paramsELi0EEENS_10unique_ptrIT_NS_14default_deleteIS9_EEEEDpOT0_, symObjAddr: 0x3D094, symBinAddr: 0xB1810, symSize: 0x5C }
  - { offset: 0x4A1A3B, size: 0x8, addend: 0x0, symName: __ZNSt3__111make_uniqueB8ne200100I16llm_build_plamo2JRK11llama_modelRK16llm_graph_paramsELi0EEENS_10unique_ptrIT_NS_14default_deleteIS9_EEEEDpOT0_, symObjAddr: 0x3D8D8, symBinAddr: 0xB2054, symSize: 0x5C }
  - { offset: 0x4A1AE1, size: 0x8, addend: 0x0, symName: __ZNSt3__111make_uniqueB8ne200100I18llm_build_stablelmJRK11llama_modelRK16llm_graph_paramsELi0EEENS_10unique_ptrIT_NS_14default_deleteIS9_EEEEDpOT0_, symObjAddr: 0x3D2BC, symBinAddr: 0xB1A38, symSize: 0x5C }
  - { offset: 0x4A1B87, size: 0x8, addend: 0x0, symName: __ZNSt3__111make_uniqueB8ne200100I16llm_build_refactJRK11llama_modelRK16llm_graph_paramsELi0EEENS_10unique_ptrIT_NS_14default_deleteIS9_EEEEDpOT0_, symObjAddr: 0x3D0F0, symBinAddr: 0xB186C, symSize: 0x5C }
  - { offset: 0x4A1C2D, size: 0x8, addend: 0x0, symName: __ZNSt3__111make_uniqueB8ne200100I14llm_build_gpt2JRK11llama_modelRK16llm_graph_paramsELi0EEENS_10unique_ptrIT_NS_14default_deleteIS9_EEEEDpOT0_, symObjAddr: 0x3D9EC, symBinAddr: 0xB2168, symSize: 0x5C }
  - { offset: 0x4A1CD3, size: 0x8, addend: 0x0, symName: __ZNSt3__111make_uniqueB8ne200100I13llm_build_mptJRK11llama_modelRK16llm_graph_paramsELi0EEENS_10unique_ptrIT_NS_14default_deleteIS9_EEEEDpOT0_, symObjAddr: 0x3D260, symBinAddr: 0xB19DC, symSize: 0x5C }
  - { offset: 0x4A1D79, size: 0x8, addend: 0x0, symName: __ZNSt3__111make_uniqueB8ne200100I14llm_build_deciJRK11llama_modelRK16llm_graph_paramsELi0EEENS_10unique_ptrIT_NS_14default_deleteIS9_EEEEDpOT0_, symObjAddr: 0x3CF24, symBinAddr: 0xB16A0, symSize: 0x5C }
  - { offset: 0x4A1E1F, size: 0x8, addend: 0x0, symName: __ZNSt3__111make_uniqueB8ne200100I16llm_build_falconJRK11llama_modelRK16llm_graph_paramsELi0EEENS_10unique_ptrIT_NS_14default_deleteIS9_EEEEDpOT0_, symObjAddr: 0x3CFDC, symBinAddr: 0xB1758, symSize: 0x5C }
  - { offset: 0x4A1EC5, size: 0x8, addend: 0x0, symName: __ZNSt3__111make_uniqueB8ne200100I14llm_build_dbrxJRK11llama_modelRK16llm_graph_paramsELi0EEENS_10unique_ptrIT_NS_14default_deleteIS9_EEEEDpOT0_, symObjAddr: 0x3E008, symBinAddr: 0xB2784, symSize: 0x5C }
  - { offset: 0x4A1F6B, size: 0x8, addend: 0x0, symName: __ZNSt3__111make_uniqueB8ne200100I18llm_build_neo_bertJRK11llama_modelRK16llm_graph_paramsELi0EEENS_10unique_ptrIT_NS_14default_deleteIS9_EEEEDpOT0_, symObjAddr: 0x3D1A8, symBinAddr: 0xB1924, symSize: 0x5C }
  - { offset: 0x4A2011, size: 0x8, addend: 0x0, symName: __ZNSt3__111make_uniqueB8ne200100I20llm_build_llama_iswaJRK11llama_modelRK16llm_graph_paramsELi0EEENS_10unique_ptrIT_NS_14default_deleteIS9_EEEEDpOT0_, symObjAddr: 0x3CE10, symBinAddr: 0xB158C, symSize: 0x5C }
  - { offset: 0x4A20B7, size: 0x8, addend: 0x0, symName: __ZNSt3__111make_uniqueB8ne200100I15llm_build_llamaILb0EEJRK11llama_modelRK16llm_graph_paramsELi0EEENS_10unique_ptrIT_NS_14default_deleteISA_EEEEDpOT0_, symObjAddr: 0x3CDB4, symBinAddr: 0xB1530, symSize: 0x5C }
  - { offset: 0x4A215D, size: 0x8, addend: 0x0, symName: __ZNSt3__111make_uniqueB8ne200100I15llm_build_qwen2JRK11llama_modelRK16llm_graph_paramsELi0EEENS_10unique_ptrIT_NS_14default_deleteIS9_EEEEDpOT0_, symObjAddr: 0x3D374, symBinAddr: 0xB1AF0, symSize: 0x5C }
  - { offset: 0x4A2203, size: 0x8, addend: 0x0, symName: __ZNSt3__111make_uniqueB8ne200100I25llm_build_gemma_embeddingJRK11llama_modelRK16llm_graph_paramsELi0EEENS_10unique_ptrIT_NS_14default_deleteIS9_EEEEDpOT0_, symObjAddr: 0x3DD84, symBinAddr: 0xB2500, symSize: 0x5C }
  - { offset: 0x4A22A9, size: 0x8, addend: 0x0, symName: __ZNSt3__111make_uniqueB8ne200100I21llm_build_modern_bertJRK11llama_modelRK16llm_graph_paramsELi0EEENS_10unique_ptrIT_NS_14default_deleteIS9_EEEEDpOT0_, symObjAddr: 0x3D14C, symBinAddr: 0xB18C8, symSize: 0x5C }
  - { offset: 0x4A234F, size: 0x8, addend: 0x0, symName: __ZNSt3__111make_uniqueB8ne200100I18llm_build_baichuanJRK11llama_modelRK16llm_graph_paramsELi0EEENS_10unique_ptrIT_NS_14default_deleteIS9_EEEEDpOT0_, symObjAddr: 0x3CF80, symBinAddr: 0xB16FC, symSize: 0x5C }
  - { offset: 0x4A23F5, size: 0x8, addend: 0x0, symName: __ZNSt3__111make_uniqueB8ne200100I19llm_build_qwen3nextJRK11llama_modelRK16llm_graph_paramsELi0EEENS_10unique_ptrIT_NS_14default_deleteIS9_EEEEDpOT0_, symObjAddr: 0x3F2B8, symBinAddr: 0xB3A34, symSize: 0x5C }
  - { offset: 0x4A249B, size: 0x8, addend: 0x0, symName: __ZNSt3__111make_uniqueB8ne200100I21llm_build_gemma2_iswaJRK11llama_modelRK16llm_graph_paramsELi0EEENS_10unique_ptrIT_NS_14default_deleteIS9_EEEEDpOT0_, symObjAddr: 0x3DC14, symBinAddr: 0xB2390, symSize: 0x5C }
  - { offset: 0x4A2541, size: 0x8, addend: 0x0, symName: __ZNSt3__111make_uniqueB8ne200100I17llm_build_gptneoxJRK11llama_modelRK16llm_graph_paramsELi0EEENS_10unique_ptrIT_NS_14default_deleteIS9_EEEEDpOT0_, symObjAddr: 0x3E230, symBinAddr: 0xB29AC, symSize: 0x5C }
  - { offset: 0x4A25E7, size: 0x8, addend: 0x0, symName: __ZNSt3__111make_uniqueB8ne200100I14llm_build_grokJRK11llama_modelRK16llm_graph_paramsELi0EEENS_10unique_ptrIT_NS_14default_deleteIS9_EEEEDpOT0_, symObjAddr: 0x3D038, symBinAddr: 0xB17B4, symSize: 0x5C }
  - { offset: 0x4A268D, size: 0x8, addend: 0x0, symName: __ZNSt3__111make_uniqueB8ne200100I20llm_build_qwen3vlmoeJRK11llama_modelRK16llm_graph_paramsELi0EEENS_10unique_ptrIT_NS_14default_deleteIS9_EEEEDpOT0_, symObjAddr: 0x3D70C, symBinAddr: 0xB1E88, symSize: 0x5C }
  - { offset: 0x4A2733, size: 0x8, addend: 0x0, symName: __ZNSt3__111make_uniqueB8ne200100I16llm_build_xverseJRK11llama_modelRK16llm_graph_paramsELi0EEENS_10unique_ptrIT_NS_14default_deleteIS9_EEEEDpOT0_, symObjAddr: 0x3DEF4, symBinAddr: 0xB2670, symSize: 0x5C }
  - { offset: 0x4A27D9, size: 0x8, addend: 0x0, symName: __ZNSt3__111make_uniqueB8ne200100I14llm_build_phi2JRK11llama_modelRK16llm_graph_paramsELi0EEENS_10unique_ptrIT_NS_14default_deleteIS9_EEEEDpOT0_, symObjAddr: 0x3D768, symBinAddr: 0xB1EE4, symSize: 0x5C }
  - { offset: 0x4A287F, size: 0x8, addend: 0x0, symName: __ZNSt3__111make_uniqueB8ne200100I15llm_build_plamoJRK11llama_modelRK16llm_graph_paramsELi0EEENS_10unique_ptrIT_NS_14default_deleteIS9_EEEEDpOT0_, symObjAddr: 0x3D87C, symBinAddr: 0xB1FF8, symSize: 0x5C }
  - { offset: 0x4A2925, size: 0x8, addend: 0x0, symName: __ZNSt3__111make_uniqueB8ne200100I19llm_build_falcon_h1JRK11llama_modelRK16llm_graph_paramsELi0EEENS_10unique_ptrIT_NS_14default_deleteIS9_EEEEDpOT0_, symObjAddr: 0x3EF7C, symBinAddr: 0xB36F8, symSize: 0x5C }
  - { offset: 0x4A29CB, size: 0x8, addend: 0x0, symName: __ZNSt3__111make_uniqueB8ne200100I19llm_build_maincoderJRK11llama_modelRK16llm_graph_paramsELi0EEENS_10unique_ptrIT_NS_14default_deleteIS9_EEEEDpOT0_, symObjAddr: 0x3CEC8, symBinAddr: 0xB1644, symSize: 0x5C }
  - { offset: 0x4A2A71, size: 0x8, addend: 0x0, symName: __ZNSt3__111make_uniqueB8ne200100I15llm_build_bloomJRK11llama_modelRK16llm_graph_paramsELi0EEENS_10unique_ptrIT_NS_14default_deleteIS9_EEEEDpOT0_, symObjAddr: 0x3D204, symBinAddr: 0xB1980, symSize: 0x5C }
  - { offset: 0x4A2B17, size: 0x8, addend: 0x0, symName: __ZNSt3__111make_uniqueB8ne200100I15llm_build_jambaJRK11llama_modelRK16llm_graph_paramsELi0EEENS_10unique_ptrIT_NS_14default_deleteIS9_EEEEDpOT0_, symObjAddr: 0x3DE98, symBinAddr: 0xB2614, symSize: 0x5C }
  - { offset: 0x4A2BBD, size: 0x8, addend: 0x0, symName: __ZNSt3__111make_uniqueB8ne200100I16llm_build_exaoneJRK11llama_modelRK16llm_graph_paramsELi0EEENS_10unique_ptrIT_NS_14default_deleteIS9_EEEEDpOT0_, symObjAddr: 0x3E6DC, symBinAddr: 0xB2E58, symSize: 0x5C }
  - { offset: 0x4A2C63, size: 0x8, addend: 0x0, symName: __ZNSt3__111make_uniqueB8ne200100I15llm_build_qwen3JRK11llama_modelRK16llm_graph_paramsELi0EEENS_10unique_ptrIT_NS_14default_deleteIS9_EEEEDpOT0_, symObjAddr: 0x3D5F8, symBinAddr: 0xB1D74, symSize: 0x5C }
  - { offset: 0x4A2D09, size: 0x8, addend: 0x0, symName: __ZNSt3__111make_uniqueB8ne200100I18llm_build_qwen2moeJRK11llama_modelRK16llm_graph_paramsELi0EEENS_10unique_ptrIT_NS_14default_deleteIS9_EEEEDpOT0_, symObjAddr: 0x3D59C, symBinAddr: 0xB1D18, symSize: 0x5C }
  - { offset: 0x4A2DAF, size: 0x8, addend: 0x0, symName: __ZNSt3__111make_uniqueB8ne200100I17llm_build_qwen3vlJRK11llama_modelRK16llm_graph_paramsELi0EEENS_10unique_ptrIT_NS_14default_deleteIS9_EEEEDpOT0_, symObjAddr: 0x3D6B0, symBinAddr: 0xB1E2C, symSize: 0x5C }
  - { offset: 0x4A2E55, size: 0x8, addend: 0x0, symName: __ZNSt3__111make_uniqueB8ne200100I17llm_build_exaone4ILb1EEJRK11llama_modelRK16llm_graph_paramsELi0EEENS_10unique_ptrIT_NS_14default_deleteISA_EEEEDpOT0_, symObjAddr: 0x3E738, symBinAddr: 0xB2EB4, symSize: 0x5C }
  - { offset: 0x4A2EFB, size: 0x8, addend: 0x0, symName: __ZNSt3__111make_uniqueB8ne200100I18llm_build_qwen3moeJRK11llama_modelRK16llm_graph_paramsELi0EEENS_10unique_ptrIT_NS_14default_deleteIS9_EEEEDpOT0_, symObjAddr: 0x3D654, symBinAddr: 0xB1DD0, symSize: 0x5C }
  - { offset: 0x4A2FA1, size: 0x8, addend: 0x0, symName: __ZNSt3__111make_uniqueB8ne200100I15llm_build_rwkv7JRK11llama_modelRK16llm_graph_paramsELi0EEENS_10unique_ptrIT_NS_14default_deleteIS9_EEEEDpOT0_, symObjAddr: 0x3E904, symBinAddr: 0xB3080, symSize: 0x5C }
  - { offset: 0x4A3047, size: 0x8, addend: 0x0, symName: __ZNSt3__111make_uniqueB8ne200100I20llm_build_starcoder2JRK11llama_modelRK16llm_graph_paramsELi0EEENS_10unique_ptrIT_NS_14default_deleteIS9_EEEEDpOT0_, symObjAddr: 0x3DDE0, symBinAddr: 0xB255C, symSize: 0x5C }
  - { offset: 0x4A30ED, size: 0x8, addend: 0x0, symName: __ZNSt3__111make_uniqueB8ne200100I15llm_build_arceeJRK11llama_modelRK16llm_graph_paramsELi0EEENS_10unique_ptrIT_NS_14default_deleteIS9_EEEEDpOT0_, symObjAddr: 0x3EC9C, symBinAddr: 0xB3418, symSize: 0x5C }
  - { offset: 0x4A3193, size: 0x8, addend: 0x0, symName: __ZNSt3__111make_uniqueB8ne200100I16llm_build_t5_decJRK11llama_modelRK16llm_graph_paramsELi0EEENS_10unique_ptrIT_NS_14default_deleteIS9_EEEEDpOT0_, symObjAddr: 0x3E56C, symBinAddr: 0xB2CE8, symSize: 0x5C }
  - { offset: 0x4A3239, size: 0x8, addend: 0x0, symName: __ZNSt3__111make_uniqueB8ne200100I20llm_build_minimax_m2JRK11llama_modelRK16llm_graph_paramsELi0EEENS_10unique_ptrIT_NS_14default_deleteIS9_EEEEDpOT0_, symObjAddr: 0x3F1A4, symBinAddr: 0xB3920, symSize: 0x5C }
  - { offset: 0x4A32DF, size: 0x8, addend: 0x0, symName: __ZNSt3__111make_uniqueB8ne200100I17llm_build_apertusJRK11llama_modelRK16llm_graph_paramsELi0EEENS_10unique_ptrIT_NS_14default_deleteIS9_EEEEDpOT0_, symObjAddr: 0x3F148, symBinAddr: 0xB38C4, symSize: 0x5C }
  - { offset: 0x4A3385, size: 0x8, addend: 0x0, symName: __ZNSt3__111make_uniqueB8ne200100I16llm_build_gemma3ILb1EEJRK11llama_modelRK16llm_graph_paramsELi0EEENS_10unique_ptrIT_NS_14default_deleteISA_EEEEDpOT0_, symObjAddr: 0x3DC70, symBinAddr: 0xB23EC, symSize: 0x5C }
  - { offset: 0x4A342B, size: 0x8, addend: 0x0, symName: __ZNSt3__111make_uniqueB8ne200100I18llm_build_seed_ossJRK11llama_modelRK16llm_graph_paramsELi0EEENS_10unique_ptrIT_NS_14default_deleteIS9_EEEEDpOT0_, symObjAddr: 0x3EBE4, symBinAddr: 0xB3360, symSize: 0x5C }
  - { offset: 0x4A34D1, size: 0x8, addend: 0x0, symName: __ZNSt3__111make_uniqueB8ne200100I19llm_build_command_rJRK11llama_modelRK16llm_graph_paramsELi0EEENS_10unique_ptrIT_NS_14default_deleteIS9_EEEEDpOT0_, symObjAddr: 0x3DF50, symBinAddr: 0xB26CC, symSize: 0x5C }
  - { offset: 0x4A3577, size: 0x8, addend: 0x0, symName: __ZNSt3__111make_uniqueB8ne200100I18llm_build_minicpm3JRK11llama_modelRK16llm_graph_paramsELi0EEENS_10unique_ptrIT_NS_14default_deleteIS9_EEEEDpOT0_, symObjAddr: 0x3DB5C, symBinAddr: 0xB22D8, symSize: 0x5C }
  - { offset: 0x4A361D, size: 0x8, addend: 0x0, symName: __ZNSt3__111make_uniqueB8ne200100I18llm_build_nemotronJRK11llama_modelRK16llm_graph_paramsELi0EEENS_10unique_ptrIT_NS_14default_deleteIS9_EEEEDpOT0_, symObjAddr: 0x3E624, symBinAddr: 0xB2DA0, symSize: 0x5C }
  - { offset: 0x4A36C3, size: 0x8, addend: 0x0, symName: __ZNSt3__111make_uniqueB8ne200100I19llm_build_llada_moeJRK11llama_modelRK16llm_graph_paramsELi0EEENS_10unique_ptrIT_NS_14default_deleteIS9_EEEEDpOT0_, symObjAddr: 0x3D488, symBinAddr: 0xB1C04, symSize: 0x5C }
  - { offset: 0x4A3769, size: 0x8, addend: 0x0, symName: __ZNSt3__111make_uniqueB8ne200100I14llm_build_olmoJRK11llama_modelRK16llm_graph_paramsELi0EEENS_10unique_ptrIT_NS_14default_deleteIS9_EEEEDpOT0_, symObjAddr: 0x3E064, symBinAddr: 0xB27E0, symSize: 0x5C }
  - { offset: 0x4A380F, size: 0x8, addend: 0x0, symName: __ZNSt3__111make_uniqueB8ne200100I22llm_build_ernie4_5_moeJRK11llama_modelRK16llm_graph_paramsELi0EEENS_10unique_ptrIT_NS_14default_deleteIS9_EEEEDpOT0_, symObjAddr: 0x3EDB0, symBinAddr: 0xB352C, symSize: 0x5C }
  - { offset: 0x4A38B5, size: 0x8, addend: 0x0, symName: __ZNSt3__111make_uniqueB8ne200100I18llm_build_ernie4_5JRK11llama_modelRK16llm_graph_paramsELi0EEENS_10unique_ptrIT_NS_14default_deleteIS9_EEEEDpOT0_, symObjAddr: 0x3ED54, symBinAddr: 0xB34D0, symSize: 0x5C }
  - { offset: 0x4A395B, size: 0x8, addend: 0x0, symName: __ZNSt3__111make_uniqueB8ne200100I20llm_build_bailingmoeJRK11llama_modelRK16llm_graph_paramsELi0EEENS_10unique_ptrIT_NS_14default_deleteIS9_EEEEDpOT0_, symObjAddr: 0x3EB2C, symBinAddr: 0xB32A8, symSize: 0x5C }
  - { offset: 0x4A3A01, size: 0x8, addend: 0x0, symName: __ZNSt3__111make_uniqueB8ne200100I13llm_build_plmJRK11llama_modelRK16llm_graph_paramsELi0EEENS_10unique_ptrIT_NS_14default_deleteIS9_EEEEDpOT0_, symObjAddr: 0x3EAD0, symBinAddr: 0xB324C, symSize: 0x5C }
  - { offset: 0x4A3AA7, size: 0x8, addend: 0x0, symName: __ZNSt3__111make_uniqueB8ne200100I15llm_build_dreamJRK11llama_modelRK16llm_graph_paramsELi0EEENS_10unique_ptrIT_NS_14default_deleteIS9_EEEEDpOT0_, symObjAddr: 0x3D3D0, symBinAddr: 0xB1B4C, symSize: 0x5C }
  - { offset: 0x4A3B4D, size: 0x8, addend: 0x0, symName: __ZNSt3__111make_uniqueB8ne200100I16llm_build_arwkv7JRK11llama_modelRK16llm_graph_paramsELi0EEENS_10unique_ptrIT_NS_14default_deleteIS9_EEEEDpOT0_, symObjAddr: 0x3E960, symBinAddr: 0xB30DC, symSize: 0x5C }
  - { offset: 0x4A3BF3, size: 0x8, addend: 0x0, symName: __ZNSt3__111make_uniqueB8ne200100I20llm_build_rwkv6qwen2JRK11llama_modelRK16llm_graph_paramsELi0EEENS_10unique_ptrIT_NS_14default_deleteIS9_EEEEDpOT0_, symObjAddr: 0x3E8A8, symBinAddr: 0xB3024, symSize: 0x5C }
  - { offset: 0x4A3C99, size: 0x8, addend: 0x0, symName: __ZNSt3__111make_uniqueB8ne200100I15llm_build_lladaJRK11llama_modelRK16llm_graph_paramsELi0EEENS_10unique_ptrIT_NS_14default_deleteIS9_EEEEDpOT0_, symObjAddr: 0x3D42C, symBinAddr: 0xB1BA8, symSize: 0x5C }
  - { offset: 0x4A3D3F, size: 0x8, addend: 0x0, symName: __ZNSt3__111make_uniqueB8ne200100I21llm_build_hunyuan_moeJRK11llama_modelRK16llm_graph_paramsELi0EEENS_10unique_ptrIT_NS_14default_deleteIS9_EEEEDpOT0_, symObjAddr: 0x3EE0C, symBinAddr: 0xB3588, symSize: 0x5C }
  - { offset: 0x4A3DE5, size: 0x8, addend: 0x0, symName: __ZNSt3__111make_uniqueB8ne200100I15llm_build_llamaILb1EEJRK11llama_modelRK16llm_graph_paramsELi0EEENS_10unique_ptrIT_NS_14default_deleteISA_EEEEDpOT0_, symObjAddr: 0x3CE6C, symBinAddr: 0xB15E8, symSize: 0x5C }
  - { offset: 0x4A3E8B, size: 0x8, addend: 0x0, symName: __ZNSt3__111make_uniqueB8ne200100I14llm_build_phi3ILb0EEJRK11llama_modelRK16llm_graph_paramsELi0EEENS_10unique_ptrIT_NS_14default_deleteISA_EEEEDpOT0_, symObjAddr: 0x3D820, symBinAddr: 0xB1F9C, symSize: 0x5C }
  - { offset: 0x4A3F31, size: 0x8, addend: 0x0, symName: __ZNSt3__111make_uniqueB8ne200100I15llm_build_olmo2ILb0EEJRK11llama_modelRK16llm_graph_paramsELi0EEENS_10unique_ptrIT_NS_14default_deleteISA_EEEEDpOT0_, symObjAddr: 0x3E11C, symBinAddr: 0xB2898, symSize: 0x5C }
  - { offset: 0x4A3FD7, size: 0x8, addend: 0x0, symName: __ZNSt3__111make_uniqueB8ne200100I22llm_build_smallthinkerILb0EEJRK11llama_modelRK16llm_graph_paramsELi0EEENS_10unique_ptrIT_NS_14default_deleteISA_EEEEDpOT0_, symObjAddr: 0x3F090, symBinAddr: 0xB380C, symSize: 0x5C }
  - { offset: 0x4A407D, size: 0x8, addend: 0x0, symName: __ZNSt3__111make_uniqueB8ne200100I17llm_build_exaone4ILb0EEJRK11llama_modelRK16llm_graph_paramsELi0EEENS_10unique_ptrIT_NS_14default_deleteISA_EEEEDpOT0_, symObjAddr: 0x3E794, symBinAddr: 0xB2F10, symSize: 0x5C }
  - { offset: 0x4A4123, size: 0x8, addend: 0x0, symName: __ZNSt3__111make_uniqueB8ne200100I16llm_build_gemma3ILb0EEJRK11llama_modelRK16llm_graph_paramsELi0EEENS_10unique_ptrIT_NS_14default_deleteISA_EEEEDpOT0_, symObjAddr: 0x3DCCC, symBinAddr: 0xB2448, symSize: 0x5C }
  - { offset: 0x4A41C9, size: 0x8, addend: 0x0, symName: __ZNSt3__111make_uniqueB8ne200100I16llm_build_plamo3ILb0EEJRK11llama_modelRK16llm_graph_paramsELi0EEENS_10unique_ptrIT_NS_14default_deleteISA_EEEEDpOT0_, symObjAddr: 0x3D990, symBinAddr: 0xB210C, symSize: 0x5C }
  - { offset: 0x4A426F, size: 0x8, addend: 0x0, symName: __ZNSt3__111make_uniqueB8ne200100I16llm_build_t5_encJRK11llama_modelRK16llm_graph_paramsELi0EEENS_10unique_ptrIT_NS_14default_deleteIS9_EEEEDpOT0_, symObjAddr: 0x3E510, symBinAddr: 0xB2C8C, symSize: 0x5C }
  - { offset: 0x4B4228, size: 0x8, addend: 0x0, symName: __ZN11llama_model12load_tensorsER18llama_model_loader, symObjAddr: 0x5A50, symBinAddr: 0x7A1CC, symSize: 0x3338C }
  - { offset: 0x5450F4, size: 0x8, addend: 0x0, symName: __ZNK11llama_model10print_infoEv, symObjAddr: 0x3A254, symBinAddr: 0xAE9D0, symSize: 0x12B0 }
  - { offset: 0x548477, size: 0x8, addend: 0x0, symName: __ZNK11llama_model13create_memoryERK19llama_memory_paramsRK13llama_cparams, symObjAddr: 0x3BC98, symBinAddr: 0xB0414, symSize: 0x5A4 }
  - { offset: 0x550E11, size: 0x8, addend: 0x0, symName: __Z13llm_type_name8llm_type, symObjAddr: 0x0, symBinAddr: 0x747FC, symSize: 0x28 }
  - { offset: 0x550EB3, size: 0x8, addend: 0x0, symName: __ZNSt3__13mapI23llama_rope_scaling_typePKcNS_4lessIS1_EENS_9allocatorINS_4pairIKS1_S3_EEEEED1B8ne200100Ev, symObjAddr: 0x28, symBinAddr: 0x74824, symSize: 0x28 }
  - { offset: 0x550F67, size: 0x8, addend: 0x0, symName: __ZNSt3__16__treeINS_12__value_typeI23llama_rope_scaling_typePKcEENS_19__map_value_compareIS2_S5_NS_4lessIS2_EELb1EEENS_9allocatorIS5_EEE7destroyEPNS_11__tree_nodeIS5_PvEE, symObjAddr: 0x4BF14, symBinAddr: 0xB854C, symSize: 0x44 }
  - { offset: 0x55136E, size: 0x8, addend: 0x0, symName: __Z28llama_rope_scaling_type_name23llama_rope_scaling_type, symObjAddr: 0x50, symBinAddr: 0x7484C, symSize: 0xE0 }
  - { offset: 0x551697, size: 0x8, addend: 0x0, symName: __ZN11llama_modelC2ERK18llama_model_params, symObjAddr: 0x130, symBinAddr: 0x7492C, symSize: 0x2EC }
  - { offset: 0x551BEF, size: 0x8, addend: 0x0, symName: __ZN11llama_modelC2ERK18llama_model_params, symObjAddr: 0x130, symBinAddr: 0x7492C, symSize: 0x2EC }
  - { offset: 0x5522B2, size: 0x8, addend: 0x0, symName: __ZNSt3__113unordered_setIP18llama_adapter_loraNS_4hashIS2_EENS_8equal_toIS2_EENS_9allocatorIS2_EEED1B8ne200100Ev, symObjAddr: 0x41C, symBinAddr: 0x74C18, symSize: 0x48 }
  - { offset: 0x552545, size: 0x8, addend: 0x0, symName: __ZNSt3__16vectorINS_4pairINS_12basic_stringIcNS_11char_traitsIcEENS_9allocatorIcEEEEP11ggml_tensorEENS5_ISA_EEED1B8ne200100Ev, symObjAddr: 0x464, symBinAddr: 0x74C60, symSize: 0x70 }
  - { offset: 0x5527D1, size: 0x8, addend: 0x0, symName: __ZNSt3__113unordered_mapINS_12basic_stringIcNS_11char_traitsIcEENS_9allocatorIcEEEES6_NS_4hashIS6_EENS_8equal_toIS6_EENS4_INS_4pairIKS6_S6_EEEEED1B8ne200100Ev, symObjAddr: 0x4D4, symBinAddr: 0x74CD0, symSize: 0x84 }
  - { offset: 0x55355A, size: 0x8, addend: 0x0, symName: __ZN11llama_modelC1ERK18llama_model_params, symObjAddr: 0x5C8, symBinAddr: 0x74D54, symSize: 0x4 }
  - { offset: 0x553597, size: 0x8, addend: 0x0, symName: __ZN11llama_modelC1ERK18llama_model_params, symObjAddr: 0x5C8, symBinAddr: 0x74D54, symSize: 0x4 }
  - { offset: 0x5536D6, size: 0x8, addend: 0x0, symName: __ZN11llama_modelD2Ev, symObjAddr: 0x5CC, symBinAddr: 0x74D58, symSize: 0x1C4 }
  - { offset: 0x554801, size: 0x8, addend: 0x0, symName: __ZN11llama_model4implD2Ev, symObjAddr: 0x4BF58, symBinAddr: 0xB8590, symSize: 0x16C }
  - { offset: 0x555BEC, size: 0x8, addend: 0x0, symName: __ZN11llama_modelD1Ev, symObjAddr: 0x7A0, symBinAddr: 0x74F1C, symSize: 0x4 }
  - { offset: 0x555C0F, size: 0x8, addend: 0x0, symName: __ZN11llama_modelD1Ev, symObjAddr: 0x7A0, symBinAddr: 0x74F1C, symSize: 0x4 }
  - { offset: 0x555C3E, size: 0x8, addend: 0x0, symName: __ZN11llama_model10load_statsER18llama_model_loader, symObjAddr: 0x7A4, symBinAddr: 0x74F20, symSize: 0x10 }
  - { offset: 0x555C76, size: 0x8, addend: 0x0, symName: __ZN11llama_model10load_statsER18llama_model_loader, symObjAddr: 0x7A4, symBinAddr: 0x74F20, symSize: 0x10 }
  - { offset: 0x555CE7, size: 0x8, addend: 0x0, symName: __ZN11llama_model9load_archER18llama_model_loader, symObjAddr: 0x7B4, symBinAddr: 0x74F30, symSize: 0x174 }
  - { offset: 0x5563BA, size: 0x8, addend: 0x0, symName: __ZN11llama_model12load_hparamsER18llama_model_loader, symObjAddr: 0x928, symBinAddr: 0x750A4, symSize: 0x4ECC }
  - { offset: 0x558E22, size: 0x8, addend: 0x0, symName: _llama_model_rope_type, symObjAddr: 0x5944, symBinAddr: 0x7A0C0, symSize: 0xBC }
  - { offset: 0x558E50, size: 0x8, addend: 0x0, symName: __ZN11llama_model10load_vocabER18llama_model_loader, symObjAddr: 0x5A00, symBinAddr: 0x7A17C, symSize: 0x50 }
  - { offset: 0x558E78, size: 0x8, addend: 0x0, symName: __ZNK11llama_model9arch_nameEv, symObjAddr: 0x57F4, symBinAddr: 0x79F70, symSize: 0xA8 }
  - { offset: 0x5590E1, size: 0x8, addend: 0x0, symName: __ZNK11llama_model9type_nameEv, symObjAddr: 0x589C, symBinAddr: 0x7A018, symSize: 0xA8 }
  - { offset: 0x5590EC, size: 0x8, addend: 0x0, symName: __ZNK11llama_model9type_nameEv, symObjAddr: 0x589C, symBinAddr: 0x7A018, symSize: 0xA8 }
  - { offset: 0x559355, size: 0x8, addend: 0x0, symName: _llama_model_rope_type, symObjAddr: 0x5944, symBinAddr: 0x7A0C0, symSize: 0xBC }
  - { offset: 0x559360, size: 0x8, addend: 0x0, symName: __ZN11llama_model10load_vocabER18llama_model_loader, symObjAddr: 0x5A00, symBinAddr: 0x7A17C, symSize: 0x50 }
  - { offset: 0x55CA5C, size: 0x8, addend: 0x0, symName: __ZNSt3__16vectorINS_4pairIP19ggml_backend_deviceP24ggml_backend_buffer_typeEENS_9allocatorIS6_EEE18__insert_with_sizeB8ne200100INS_11__wrap_iterIPS6_EESD_EESD_NSB_IPKS6_EET_T0_l, symObjAddr: 0x4CEE0, symBinAddr: 0xB87F4, symSize: 0x540 }
  - { offset: 0x55D5EA, size: 0x8, addend: 0x0, symName: __ZNSt3__16vectorIN11llama_model4impl9layer_devENS_9allocatorIS3_EEE8__appendEm, symObjAddr: 0x4D434, symBinAddr: 0xB8D34, symSize: 0x120 }
  - { offset: 0x55D9C8, size: 0x8, addend: 0x0, symName: __ZNSt3__16vectorIN11llama_model4impl9layer_devENS_9allocatorIS3_EEE20__throw_length_errorB8ne200100Ev, symObjAddr: 0x4D554, symBinAddr: 0xB8E54, symSize: 0x14 }
  - { offset: 0x55D9E4, size: 0x8, addend: 0x0, symName: '__ZZN11llama_model12load_tensorsER18llama_model_loaderENK3$_1clEi', symObjAddr: 0x38E10, symBinAddr: 0xAD58C, symSize: 0x1B8 }
  - { offset: 0x55DD3D, size: 0x8, addend: 0x0, symName: __ZNSt3__16vectorI11llama_layerNS_9allocatorIS1_EEE6resizeEm, symObjAddr: 0x38FC8, symBinAddr: 0xAD744, symSize: 0x44 }
  - { offset: 0x55DD55, size: 0x8, addend: 0x0, symName: __ZNSt3__16vectorI11llama_layerNS_9allocatorIS1_EEE8__appendEm, symObjAddr: 0x4D5D0, symBinAddr: 0xB8ED0, symSize: 0x1AC }
  - { offset: 0x55E16A, size: 0x8, addend: 0x0, symName: __ZNSt3__16vectorI11llama_layerNS_9allocatorIS1_EEE20__throw_length_errorB8ne200100Ev, symObjAddr: 0x4D77C, symBinAddr: 0xB907C, symSize: 0x14 }
  - { offset: 0x55E1A8, size: 0x8, addend: 0x0, symName: '__ZZN11llama_model12load_tensorsER18llama_model_loaderENK3$_3clERK11LLM_TN_IMPLRKSt16initializer_listIxEi', symObjAddr: 0x3900C, symBinAddr: 0xAD788, symSize: 0xAF4 }
  - { offset: 0x5602FE, size: 0x8, addend: 0x0, symName: __ZNSt3__16vectorI11llama_layerNS_9allocatorIS1_EEE6resizeEm, symObjAddr: 0x38FC8, symBinAddr: 0xAD744, symSize: 0x44 }
  - { offset: 0x560332, size: 0x8, addend: 0x0, symName: __ZNSt3__16vectorI11llama_layerNS_9allocatorIS1_EEE6resizeEm, symObjAddr: 0x38FC8, symBinAddr: 0xAD744, symSize: 0x44 }
  - { offset: 0x5603C8, size: 0x8, addend: 0x0, symName: __ZNSt3__16vectorINS_4pairIP12ggml_contextNS_13unordered_mapIjP19ggml_backend_bufferNS_4hashIjEENS_8equal_toIjEENS_9allocatorINS1_IKjS6_EEEEEEEENSB_ISG_EEE7reserveEm, symObjAddr: 0x39B00, symBinAddr: 0xAE27C, symSize: 0x108 }
  - { offset: 0x5609A9, size: 0x8, addend: 0x0, symName: __ZNSt3__114__split_bufferINS_4pairINS_10unique_ptrI12ggml_context20ggml_context_deleterEENS_6vectorINS2_I19ggml_backend_buffer27ggml_backend_buffer_deleterEENS_9allocatorIS9_EEEEEERNSA_ISD_EEE17__destruct_at_endB8ne200100EPSD_, symObjAddr: 0x4D988, symBinAddr: 0xB9274, symSize: 0xB4 }
  - { offset: 0x560CDD, size: 0x8, addend: 0x0, symName: __ZNSt3__112__hash_tableINS_17__hash_value_typeIjP19ggml_backend_bufferEENS_22__unordered_map_hasherIjS4_NS_4hashIjEENS_8equal_toIjEELb1EEENS_21__unordered_map_equalIjS4_S9_S7_Lb1EEENS_9allocatorIS4_EEE11__do_rehashILb1EEEvm, symObjAddr: 0x4DA84, symBinAddr: 0xB9370, symSize: 0x180 }
  - { offset: 0x5610A9, size: 0x8, addend: 0x0, symName: __ZNSt3__112__hash_tableINS_17__hash_value_typeIjP19ggml_backend_bufferEENS_22__unordered_map_hasherIjS4_NS_4hashIjEENS_8equal_toIjEELb1EEENS_21__unordered_map_equalIjS4_S9_S7_Lb1EEENS_9allocatorIS4_EEE25__emplace_unique_key_argsIjJRjRS3_EEENS_4pairINS_15__hash_iteratorIPNS_11__hash_nodeIS4_PvEEEEbEERKT_DpOT0_, symObjAddr: 0x4DC18, symBinAddr: 0xB94F0, symSize: 0x304 }
  - { offset: 0x5618A5, size: 0x8, addend: 0x0, symName: __ZNSt3__16vectorINS_4pairINS_10unique_ptrI12ggml_context20ggml_context_deleterEENS0_INS2_I19ggml_backend_buffer27ggml_backend_buffer_deleterEENS_9allocatorIS8_EEEEEENS9_ISC_EEE24__emplace_back_slow_pathIJS5_SB_EEEPSC_DpOT_, symObjAddr: 0x4DF30, symBinAddr: 0xB97F4, symSize: 0x11C }
  - { offset: 0x561D83, size: 0x8, addend: 0x0, symName: __ZNSt3__16vectorINS_4pairIP12ggml_contextNS_13unordered_mapIjP19ggml_backend_bufferNS_4hashIjEENS_8equal_toIjEENS_9allocatorINS1_IKjS6_EEEEEEEENSB_ISG_EEE24__emplace_back_slow_pathIJRS3_RSF_EEEPSG_DpOT_, symObjAddr: 0x4E04C, symBinAddr: 0xB9910, symSize: 0x170 }
  - { offset: 0x561DB0, size: 0x8, addend: 0x0, symName: __ZNSt3__113unordered_mapIjP19ggml_backend_bufferNS_4hashIjEENS_8equal_toIjEENS_9allocatorINS_4pairIKjS2_EEEEEC2ERKSC_, symObjAddr: 0x4E1BC, symBinAddr: 0xB9A80, symSize: 0x140 }
  - { offset: 0x562148, size: 0x8, addend: 0x0, symName: __ZNSt3__16vectorINS_4pairIP12ggml_contextNS_13unordered_mapIjP19ggml_backend_bufferNS_4hashIjEENS_8equal_toIjEENS_9allocatorINS1_IKjS6_EEEEEEEENSB_ISG_EEE24__emplace_back_slow_pathIJRS3_RSF_EEEPSG_DpOT_, symObjAddr: 0x4E04C, symBinAddr: 0xB9910, symSize: 0x170 }
  - { offset: 0x5628A4, size: 0x8, addend: 0x0, symName: __ZNSt3__16__treeINS_12__value_typeIP24ggml_backend_buffer_typeNS_10unique_ptrI12ggml_context20ggml_context_deleterEEEENS_19__map_value_compareIS3_S8_ZN11llama_model12load_tensorsER18llama_model_loaderE28ggml_backend_buft_comparatorLb1EEENS_9allocatorIS8_EEE7destroyEPNS_11__tree_nodeIS8_PvEE, symObjAddr: 0x4D568, symBinAddr: 0xB8E68, symSize: 0x54 }
  - { offset: 0x562A8C, size: 0x8, addend: 0x0, symName: __ZNSt3__16vectorINS_4pairINS_12basic_stringIcNS_11char_traitsIcEENS_9allocatorIcEEEEP11ggml_tensorEENS5_ISA_EEE20__throw_length_errorB8ne200100Ev, symObjAddr: 0x4E664, symBinAddr: 0xB9F28, symSize: 0x14 }
  - { offset: 0x562AC1, size: 0x8, addend: 0x0, symName: __ZNSt3__16vectorINS_4pairIP19ggml_backend_deviceP24ggml_backend_buffer_typeEENS_9allocatorIS6_EEE20__throw_length_errorB8ne200100Ev, symObjAddr: 0x3FBF4, symBinAddr: 0xB4148, symSize: 0x14 }
  - { offset: 0x562AEE, size: 0x8, addend: 0x0, symName: __ZNSt3__112__hash_tableINS_17__hash_value_typeIjP19ggml_backend_bufferEENS_22__unordered_map_hasherIjS4_NS_4hashIjEENS_8equal_toIjEELb1EEENS_21__unordered_map_equalIjS4_S9_S7_Lb1EEENS_9allocatorIS4_EEE25__emplace_unique_key_argsIjJRjRS3_EEENS_4pairINS_15__hash_iteratorIPNS_11__hash_nodeIS4_PvEEEEbEERKT_DpOT0_, symObjAddr: 0x4DC18, symBinAddr: 0xB94F0, symSize: 0x304 }
  - { offset: 0x562B03, size: 0x8, addend: 0x0, symName: __ZNSt3__16vectorINS_4pairIP12ggml_contextNS_13unordered_mapIjP19ggml_backend_bufferNS_4hashIjEENS_8equal_toIjEENS_9allocatorINS1_IKjS6_EEEEEEEENSB_ISG_EEE20__throw_length_errorB8ne200100Ev, symObjAddr: 0x4D7A4, symBinAddr: 0xB9090, symSize: 0x14 }
  - { offset: 0x562B18, size: 0x8, addend: 0x0, symName: __ZNSt3__16vectorINS_4pairINS_10unique_ptrI12ggml_context20ggml_context_deleterEENS0_INS2_I19ggml_backend_buffer27ggml_backend_buffer_deleterEENS_9allocatorIS8_EEEEEENS9_ISC_EEE24__emplace_back_slow_pathIJS5_SB_EEEPSC_DpOT_, symObjAddr: 0x4DF30, symBinAddr: 0xB97F4, symSize: 0x11C }
  - { offset: 0x562B23, size: 0x8, addend: 0x0, symName: __ZNSt3__16vectorINS_4pairINS_10unique_ptrI12ggml_context20ggml_context_deleterEENS0_INS2_I19ggml_backend_buffer27ggml_backend_buffer_deleterEENS_9allocatorIS8_EEEEEENS9_ISC_EEE20__throw_length_errorB8ne200100Ev, symObjAddr: 0x4D974, symBinAddr: 0xB9260, symSize: 0x14 }
  - { offset: 0x562B3B, size: 0x8, addend: 0x0, symName: __ZNSt3__114__split_bufferINS_4pairINS_10unique_ptrI12ggml_context20ggml_context_deleterEENS_6vectorINS2_I19ggml_backend_buffer27ggml_backend_buffer_deleterEENS_9allocatorIS9_EEEEEERNSA_ISD_EEE17__destruct_at_endB8ne200100EPSD_, symObjAddr: 0x4D988, symBinAddr: 0xB9274, symSize: 0xB4 }
  - { offset: 0x562B50, size: 0x8, addend: 0x0, symName: __ZNSt3__16vectorIN11llama_model4impl9layer_devENS_9allocatorIS3_EEE8__appendEm, symObjAddr: 0x4D434, symBinAddr: 0xB8D34, symSize: 0x120 }
  - { offset: 0x562B5B, size: 0x8, addend: 0x0, symName: __ZNSt3__16vectorINS_10unique_ptrI19ggml_backend_buffer27ggml_backend_buffer_deleterEENS_9allocatorIS4_EEED1B8ne200100Ev, symObjAddr: 0x39C08, symBinAddr: 0xAE384, symSize: 0x70 }
  - { offset: 0x562D49, size: 0x8, addend: 0x0, symName: __ZNSt3__113unordered_mapIjP19ggml_backend_bufferNS_4hashIjEENS_8equal_toIjEENS_9allocatorINS_4pairIKjS2_EEEEED1B8ne200100Ev, symObjAddr: 0x39C78, symBinAddr: 0xAE3F4, symSize: 0x48 }
  - { offset: 0x562FDD, size: 0x8, addend: 0x0, symName: __ZNSt3__114__split_bufferINS_4pairINS_12basic_stringIcNS_11char_traitsIcEENS_9allocatorIcEEEEP11ggml_tensorEERNS5_ISA_EEED1Ev, symObjAddr: 0x4E600, symBinAddr: 0xB9EC4, symSize: 0x64 }
  - { offset: 0x563210, size: 0x8, addend: 0x0, symName: __ZNSt3__16vectorINS_4pairIP12ggml_contextNS_13unordered_mapIjP19ggml_backend_bufferNS_4hashIjEENS_8equal_toIjEENS_9allocatorINS1_IKjS6_EEEEEEEENSB_ISG_EEED1B8ne200100Ev, symObjAddr: 0x39CC0, symBinAddr: 0xAE43C, symSize: 0x88 }
  - { offset: 0x56365E, size: 0x8, addend: 0x0, symName: __ZNK11llama_model12n_gpu_layersEv, symObjAddr: 0x38DDC, symBinAddr: 0xAD558, symSize: 0x20 }
  - { offset: 0x563680, size: 0x8, addend: 0x0, symName: __ZNK11llama_model9n_devicesEv, symObjAddr: 0x38DFC, symBinAddr: 0xAD578, symSize: 0x14 }
  - { offset: 0x5636A4, size: 0x8, addend: 0x0, symName: __ZNK11llama_model9n_devicesEv, symObjAddr: 0x38DFC, symBinAddr: 0xAD578, symSize: 0x14 }
  - { offset: 0x5637CB, size: 0x8, addend: 0x0, symName: __ZNSt3__16vectorIP19ggml_backend_deviceNS_9allocatorIS2_EEE20__throw_out_of_rangeB8ne200100Ev, symObjAddr: 0x3FCA4, symBinAddr: 0xB415C, symSize: 0x14 }
  - { offset: 0x5637E3, size: 0x8, addend: 0x0, symName: __ZL18select_weight_buftRK13llama_hparamsP11ggml_tensor7ggml_opRKNSt3__16vectorINS5_4pairIP19ggml_backend_deviceP24ggml_backend_buffer_typeEENS5_9allocatorISC_EEEE, symObjAddr: 0x3FCB8, symBinAddr: 0xB4170, symSize: 0x6D4 }
  - { offset: 0x564111, size: 0x8, addend: 0x0, symName: __ZNSt3__111basic_regexIcNS_12regex_traitsIcEEEC2B8ne200100EPKcNS_15regex_constants18syntax_option_typeE, symObjAddr: 0x403E8, symBinAddr: 0xB4844, symSize: 0xC8 }
  - { offset: 0x5646B0, size: 0x8, addend: 0x0, symName: __ZL18select_weight_buftRK13llama_hparamsP11ggml_tensor7ggml_opRKNSt3__16vectorINS5_4pairIP19ggml_backend_deviceP24ggml_backend_buffer_typeEENS5_9allocatorISC_EEEE, symObjAddr: 0x3FCB8, symBinAddr: 0xB4170, symSize: 0x6D4 }
  - { offset: 0x56525B, size: 0x8, addend: 0x0, symName: __ZNSt3__16vectorIN11llama_model4impl9layer_devENS_9allocatorIS3_EEE20__throw_out_of_rangeB8ne200100Ev, symObjAddr: 0x4D5BC, symBinAddr: 0xB8EBC, symSize: 0x14 }
  - { offset: 0x565273, size: 0x8, addend: 0x0, symName: __ZNSt3__16vectorI11llama_layerNS_9allocatorIS1_EEE8__appendEm, symObjAddr: 0x4D5D0, symBinAddr: 0xB8ED0, symSize: 0x1AC }
  - { offset: 0x565485, size: 0x8, addend: 0x0, symName: __ZNSt3__16vectorINS_4pairIP12ggml_contextNS_13unordered_mapIjP19ggml_backend_bufferNS_4hashIjEENS_8equal_toIjEENS_9allocatorINS1_IKjS6_EEEEEEEENSB_ISG_EEE26__swap_out_circular_bufferERNS_14__split_bufferISG_RSH_EE, symObjAddr: 0x4D7B8, symBinAddr: 0xB90A4, symSize: 0x140 }
  - { offset: 0x565AA9, size: 0x8, addend: 0x0, symName: __ZNSt3__16vectorINS_4pairIP12ggml_contextNS_13unordered_mapIjP19ggml_backend_bufferNS_4hashIjEENS_8equal_toIjEENS_9allocatorINS1_IKjS6_EEEEEEEENSB_ISG_EEE20__throw_length_errorB8ne200100Ev, symObjAddr: 0x4D7A4, symBinAddr: 0xB9090, symSize: 0x14 }
  - { offset: 0x565AC1, size: 0x8, addend: 0x0, symName: __ZNSt3__16vectorINS_4pairIP12ggml_contextNS_13unordered_mapIjP19ggml_backend_bufferNS_4hashIjEENS_8equal_toIjEENS_9allocatorINS1_IKjS6_EEEEEEEENSB_ISG_EEE26__swap_out_circular_bufferERNS_14__split_bufferISG_RSH_EE, symObjAddr: 0x4D7B8, symBinAddr: 0xB90A4, symSize: 0x140 }
  - { offset: 0x565ACC, size: 0x8, addend: 0x0, symName: __ZNSt3__114__split_bufferINS_4pairIP12ggml_contextNS_13unordered_mapIjP19ggml_backend_bufferNS_4hashIjEENS_8equal_toIjEENS_9allocatorINS1_IKjS6_EEEEEEEERNSB_ISG_EEED1Ev, symObjAddr: 0x4D8F8, symBinAddr: 0xB91E4, symSize: 0x7C }
  - { offset: 0x565F32, size: 0x8, addend: 0x0, symName: __ZNK11llama_model4descEv, symObjAddr: 0x39D48, symBinAddr: 0xAE4C4, symSize: 0x2C }
  - { offset: 0x565F56, size: 0x8, addend: 0x0, symName: __ZNK11llama_model4descEv, symObjAddr: 0x39D48, symBinAddr: 0xAE4C4, symSize: 0x2C }
  - { offset: 0x5660EC, size: 0x8, addend: 0x0, symName: __ZNSt3__16vectorINS_4pairIP19ggml_backend_deviceP24ggml_backend_buffer_typeEENS_9allocatorIS6_EEE18__insert_with_sizeB8ne200100INS_11__wrap_iterIPS6_EESD_EESD_NSB_IPKS6_EET_T0_l, symObjAddr: 0x4CEE0, symBinAddr: 0xB87F4, symSize: 0x540 }
  - { offset: 0x5660F7, size: 0x8, addend: 0x0, symName: __ZNK11llama_model4sizeEv, symObjAddr: 0x39D74, symBinAddr: 0xAE4F0, symSize: 0xC }
  - { offset: 0x56611B, size: 0x8, addend: 0x0, symName: __ZNK11llama_model4sizeEv, symObjAddr: 0x39D74, symBinAddr: 0xAE4F0, symSize: 0xC }
  - { offset: 0x56613A, size: 0x8, addend: 0x0, symName: __ZNK11llama_model9n_tensorsEv, symObjAddr: 0x39D80, symBinAddr: 0xAE4FC, symSize: 0x14 }
  - { offset: 0x566166, size: 0x8, addend: 0x0, symName: __ZNK11llama_model9n_tensorsEv, symObjAddr: 0x39D80, symBinAddr: 0xAE4FC, symSize: 0x14 }
  - { offset: 0x566185, size: 0x8, addend: 0x0, symName: __ZNK11llama_model10split_modeEv, symObjAddr: 0x39D94, symBinAddr: 0xAE510, symSize: 0xC }
  - { offset: 0x566ABB, size: 0x8, addend: 0x0, symName: __ZNK11llama_model16memory_breakdownEv, symObjAddr: 0x39DA0, symBinAddr: 0xAE51C, symSize: 0x4A8 }
  - { offset: 0x5677C8, size: 0x8, addend: 0x0, symName: __ZNK11llama_model10n_elementsEv, symObjAddr: 0x3A248, symBinAddr: 0xAE9C4, symSize: 0xC }
  - { offset: 0x5677EC, size: 0x8, addend: 0x0, symName: __ZNK11llama_model10n_elementsEv, symObjAddr: 0x3A248, symBinAddr: 0xAE9C4, symSize: 0xC }
  - { offset: 0x5684CA, size: 0x8, addend: 0x0, symName: '__ZZNK11llama_model10print_infoEvENK3$_6clERKNSt3__18functionIFjjEEEj', symObjAddr: 0x3B504, symBinAddr: 0xAFC80, symSize: 0x2E4 }
  - { offset: 0x569479, size: 0x8, addend: 0x0, symName: __ZNK11llama_model9dev_layerEi, symObjAddr: 0x3B7E8, symBinAddr: 0xAFF64, symSize: 0x30 }
  - { offset: 0x5694B5, size: 0x8, addend: 0x0, symName: __ZNK11llama_model9dev_layerEi, symObjAddr: 0x3B7E8, symBinAddr: 0xAFF64, symSize: 0x30 }
  - { offset: 0x569516, size: 0x8, addend: 0x0, symName: __ZNK11llama_model10dev_outputEv, symObjAddr: 0x3B818, symBinAddr: 0xAFF94, symSize: 0xC }
  - { offset: 0x569521, size: 0x8, addend: 0x0, symName: __ZNK11llama_model10dev_outputEv, symObjAddr: 0x3B818, symBinAddr: 0xAFF94, symSize: 0xC }
  - { offset: 0x56954D, size: 0x8, addend: 0x0, symName: __ZNK11llama_model10dev_outputEv, symObjAddr: 0x3B818, symBinAddr: 0xAFF94, symSize: 0xC }
  - { offset: 0x5695E8, size: 0x8, addend: 0x0, symName: __ZNK11llama_model11select_buftEi, symObjAddr: 0x3B824, symBinAddr: 0xAFFA0, symSize: 0x2E0 }
  - { offset: 0x569F5D, size: 0x8, addend: 0x0, symName: __ZNK11llama_model20has_tensor_overridesEv, symObjAddr: 0x3BB04, symBinAddr: 0xB0280, symSize: 0xC }
  - { offset: 0x569F89, size: 0x8, addend: 0x0, symName: __ZNK11llama_model20has_tensor_overridesEv, symObjAddr: 0x3BB04, symBinAddr: 0xB0280, symSize: 0xC }
  - { offset: 0x569FD4, size: 0x8, addend: 0x0, symName: __ZNK11llama_model10get_tensorEPKc, symObjAddr: 0x3BB10, symBinAddr: 0xB028C, symSize: 0xC0 }
  - { offset: 0x56A292, size: 0x8, addend: 0x0, symName: __ZNK11llama_model18get_rope_freq_baseERK13llama_cparamsi, symObjAddr: 0x3BBD0, symBinAddr: 0xB034C, symSize: 0x44 }
  - { offset: 0x56A2DC, size: 0x8, addend: 0x0, symName: __ZNK11llama_model19get_rope_freq_scaleERK13llama_cparamsi, symObjAddr: 0x3BC14, symBinAddr: 0xB0390, symSize: 0x44 }
  - { offset: 0x56A348, size: 0x8, addend: 0x0, symName: __ZNK11llama_model16get_rope_factorsERK13llama_cparamsi, symObjAddr: 0x3BC58, symBinAddr: 0xB03D4, symSize: 0x40 }
  - { offset: 0x56A3A0, size: 0x8, addend: 0x0, symName: __ZNK11llama_model16get_rope_factorsERK13llama_cparamsi, symObjAddr: 0x3BC58, symBinAddr: 0xB03D4, symSize: 0x40 }
  - { offset: 0x56A5F7, size: 0x8, addend: 0x0, symName: '__ZNSt3__18functionIFbiEEaSIZNK11llama_model13create_memoryERK19llama_memory_paramsRK13llama_cparamsE3$_2vEERS2_OT_', symObjAddr: 0x3C374, symBinAddr: 0xB0AF0, symSize: 0x9C }
  - { offset: 0x56A7F9, size: 0x8, addend: 0x0, symName: '__ZNSt3__18functionIFbiEEaSIZNK11llama_model13create_memoryERK19llama_memory_paramsRK13llama_cparamsE3$_3vEERS2_OT_', symObjAddr: 0x3C410, symBinAddr: 0xB0B8C, symSize: 0x9C }
  - { offset: 0x56A9FB, size: 0x8, addend: 0x0, symName: '__ZNSt3__18functionIFiiEEaSIZNK11llama_model13create_memoryERK19llama_memory_paramsRK13llama_cparamsE3$_4vEERS2_OT_', symObjAddr: 0x3C4AC, symBinAddr: 0xB0C28, symSize: 0x9C }
  - { offset: 0x56ABFD, size: 0x8, addend: 0x0, symName: '__ZNSt3__18functionIFbiEEaSIZNK11llama_model13create_memoryERK19llama_memory_paramsRK13llama_cparamsE3$_0vEERS2_OT_', symObjAddr: 0x3C23C, symBinAddr: 0xB09B8, symSize: 0x9C }
  - { offset: 0x56ADF1, size: 0x8, addend: 0x0, symName: '__ZNSt3__18functionIFbiEEaSIZNK11llama_model13create_memoryERK19llama_memory_paramsRK13llama_cparamsE3$_1vEERS2_OT_', symObjAddr: 0x3C2D8, symBinAddr: 0xB0A54, symSize: 0x9C }
  - { offset: 0x56B1D3, size: 0x8, addend: 0x0, symName: __ZNSt3__110__function12__value_funcIFbiEE4swapB8ne200100ERS3_, symObjAddr: 0x4EC88, symBinAddr: 0xBA508, symSize: 0x1A0 }
  - { offset: 0x56BA53, size: 0x8, addend: 0x0, symName: __ZNSt3__110__function12__value_funcIFiiEE4swapB8ne200100ERS3_, symObjAddr: 0x4F228, symBinAddr: 0xBAAA8, symSize: 0x1A0 }
  - { offset: 0x56BC7D, size: 0x8, addend: 0x0, symName: __ZNK11llama_model11build_graphERK16llm_graph_params, symObjAddr: 0x3C548, symBinAddr: 0xB0CC4, symSize: 0x86C }
  - { offset: 0x56F35E, size: 0x8, addend: 0x0, symName: _llama_model_default_params, symObjAddr: 0x3F3CC, symBinAddr: 0xB3B48, symSize: 0x2C }
  - { offset: 0x56F38A, size: 0x8, addend: 0x0, symName: _llama_model_get_vocab, symObjAddr: 0x3F3F8, symBinAddr: 0xB3B74, symSize: 0xC }
  - { offset: 0x56F3EA, size: 0x8, addend: 0x0, symName: _llama_free_model, symObjAddr: 0x3F404, symBinAddr: 0xB3B80, symSize: 0x1C }
  - { offset: 0x56F412, size: 0x8, addend: 0x0, symName: _llama_free_model, symObjAddr: 0x3F404, symBinAddr: 0xB3B80, symSize: 0x1C }
  - { offset: 0x56F458, size: 0x8, addend: 0x0, symName: _llama_model_free, symObjAddr: 0x3F420, symBinAddr: 0xB3B9C, symSize: 0x1C }
  - { offset: 0x56F49F, size: 0x8, addend: 0x0, symName: _llama_model_n_ctx_train, symObjAddr: 0x3F43C, symBinAddr: 0xB3BB8, symSize: 0x8 }
  - { offset: 0x56F4BD, size: 0x8, addend: 0x0, symName: _llama_model_n_embd, symObjAddr: 0x3F444, symBinAddr: 0xB3BC0, symSize: 0x8 }
  - { offset: 0x56F4DB, size: 0x8, addend: 0x0, symName: _llama_model_n_embd_inp, symObjAddr: 0x3F44C, symBinAddr: 0xB3BC8, symSize: 0x8 }
  - { offset: 0x56F507, size: 0x8, addend: 0x0, symName: _llama_model_n_embd_out, symObjAddr: 0x3F454, symBinAddr: 0xB3BD0, symSize: 0x8 }
  - { offset: 0x56F533, size: 0x8, addend: 0x0, symName: _llama_model_n_layer, symObjAddr: 0x3F45C, symBinAddr: 0xB3BD8, symSize: 0x8 }
  - { offset: 0x56F551, size: 0x8, addend: 0x0, symName: _llama_model_n_head, symObjAddr: 0x3F464, symBinAddr: 0xB3BE0, symSize: 0xC }
  - { offset: 0x56F56F, size: 0x8, addend: 0x0, symName: _llama_model_n_head_kv, symObjAddr: 0x3F470, symBinAddr: 0xB3BEC, symSize: 0xC }
  - { offset: 0x56F59B, size: 0x8, addend: 0x0, symName: _llama_model_n_swa, symObjAddr: 0x3F47C, symBinAddr: 0xB3BF8, symSize: 0x8 }
  - { offset: 0x56F5C7, size: 0x8, addend: 0x0, symName: _llama_model_n_cls_out, symObjAddr: 0x3F484, symBinAddr: 0xB3C00, symSize: 0x8 }
  - { offset: 0x56F615, size: 0x8, addend: 0x0, symName: _llama_model_cls_label, symObjAddr: 0x3F48C, symBinAddr: 0xB3C08, symSize: 0x4C }
  - { offset: 0x56F727, size: 0x8, addend: 0x0, symName: _llama_n_ctx_train, symObjAddr: 0x3F4D8, symBinAddr: 0xB3C54, symSize: 0x8 }
  - { offset: 0x56F755, size: 0x8, addend: 0x0, symName: _llama_n_ctx_train, symObjAddr: 0x3F4D8, symBinAddr: 0xB3C54, symSize: 0x8 }
  - { offset: 0x56F78B, size: 0x8, addend: 0x0, symName: _llama_n_embd, symObjAddr: 0x3F4E0, symBinAddr: 0xB3C5C, symSize: 0x8 }
  - { offset: 0x56F7B9, size: 0x8, addend: 0x0, symName: _llama_n_embd, symObjAddr: 0x3F4E0, symBinAddr: 0xB3C5C, symSize: 0x8 }
  - { offset: 0x56F7EF, size: 0x8, addend: 0x0, symName: _llama_n_layer, symObjAddr: 0x3F4E8, symBinAddr: 0xB3C64, symSize: 0x8 }
  - { offset: 0x56F81D, size: 0x8, addend: 0x0, symName: _llama_n_layer, symObjAddr: 0x3F4E8, symBinAddr: 0xB3C64, symSize: 0x8 }
  - { offset: 0x56F853, size: 0x8, addend: 0x0, symName: _llama_n_head, symObjAddr: 0x3F4F0, symBinAddr: 0xB3C6C, symSize: 0xC }
  - { offset: 0x56F881, size: 0x8, addend: 0x0, symName: _llama_n_head, symObjAddr: 0x3F4F0, symBinAddr: 0xB3C6C, symSize: 0xC }
  - { offset: 0x56F89E, size: 0x8, addend: 0x0, symName: _llama_model_rope_freq_scale_train, symObjAddr: 0x3F4FC, symBinAddr: 0xB3C78, symSize: 0x8 }
  - { offset: 0x56F8F0, size: 0x8, addend: 0x0, symName: _llama_model_meta_val_str, symObjAddr: 0x3F504, symBinAddr: 0xB3C80, symSize: 0x140 }
  - { offset: 0x57011A, size: 0x8, addend: 0x0, symName: _llama_model_meta_count, symObjAddr: 0x3F644, symBinAddr: 0xB3DC0, symSize: 0xC }
  - { offset: 0x570188, size: 0x8, addend: 0x0, symName: _llama_model_meta_key_str, symObjAddr: 0x3F650, symBinAddr: 0xB3DCC, symSize: 0x20 }
  - { offset: 0x570268, size: 0x8, addend: 0x0, symName: _llama_model_meta_key_by_index, symObjAddr: 0x3F670, symBinAddr: 0xB3DEC, symSize: 0x88 }
  - { offset: 0x5704A6, size: 0x8, addend: 0x0, symName: _llama_model_meta_val_str_by_index, symObjAddr: 0x3F6F8, symBinAddr: 0xB3E74, symSize: 0x88 }
  - { offset: 0x5706B4, size: 0x8, addend: 0x0, symName: _llama_model_desc, symObjAddr: 0x3F780, symBinAddr: 0xB3EFC, symSize: 0xAC }
  - { offset: 0x57096A, size: 0x8, addend: 0x0, symName: _llama_model_size, symObjAddr: 0x3F82C, symBinAddr: 0xB3FA8, symSize: 0xC }
  - { offset: 0x570998, size: 0x8, addend: 0x0, symName: _llama_model_size, symObjAddr: 0x3F82C, symBinAddr: 0xB3FA8, symSize: 0xC }
  - { offset: 0x5709B4, size: 0x8, addend: 0x0, symName: _llama_model_size, symObjAddr: 0x3F82C, symBinAddr: 0xB3FA8, symSize: 0xC }
  - { offset: 0x5709D4, size: 0x8, addend: 0x0, symName: _llama_model_chat_template, symObjAddr: 0x3F838, symBinAddr: 0xB3FB4, symSize: 0x134 }
  - { offset: 0x570D31, size: 0x8, addend: 0x0, symName: _llama_model_n_params, symObjAddr: 0x3F96C, symBinAddr: 0xB40E8, symSize: 0xC }
  - { offset: 0x570D5F, size: 0x8, addend: 0x0, symName: _llama_model_n_params, symObjAddr: 0x3F96C, symBinAddr: 0xB40E8, symSize: 0xC }
  - { offset: 0x570D7B, size: 0x8, addend: 0x0, symName: _llama_model_n_params, symObjAddr: 0x3F96C, symBinAddr: 0xB40E8, symSize: 0xC }
  - { offset: 0x570D9B, size: 0x8, addend: 0x0, symName: _llama_model_has_encoder, symObjAddr: 0x3F978, symBinAddr: 0xB40F4, symSize: 0x14 }
  - { offset: 0x570DC7, size: 0x8, addend: 0x0, symName: _llama_model_has_decoder, symObjAddr: 0x3F98C, symBinAddr: 0xB4108, symSize: 0x10 }
  - { offset: 0x570DF3, size: 0x8, addend: 0x0, symName: _llama_model_decoder_start_token, symObjAddr: 0x3F99C, symBinAddr: 0xB4118, symSize: 0xC }
  - { offset: 0x570E1F, size: 0x8, addend: 0x0, symName: _llama_model_is_recurrent, symObjAddr: 0x3F9A8, symBinAddr: 0xB4124, symSize: 0x8 }
  - { offset: 0x570E59, size: 0x8, addend: 0x0, symName: _llama_model_is_hybrid, symObjAddr: 0x3F9B0, symBinAddr: 0xB412C, symSize: 0x8 }
  - { offset: 0x570E93, size: 0x8, addend: 0x0, symName: _llama_model_is_diffusion, symObjAddr: 0x3F9B8, symBinAddr: 0xB4134, symSize: 0x8 }
  - { offset: 0x570EE3, size: 0x8, addend: 0x0, symName: __Z29llama_internal_get_tensor_mapPK11llama_model, symObjAddr: 0x3F9C0, symBinAddr: 0xB413C, symSize: 0xC }
  - { offset: 0x571A80, size: 0x8, addend: 0x0, symName: __ZNSt3__111basic_regexIcNS_12regex_traitsIcEEE7__parseIPKcEET_S7_S7_, symObjAddr: 0x4050C, symBinAddr: 0xB490C, symSize: 0x340 }
  - { offset: 0x5729E1, size: 0x8, addend: 0x0, symName: __ZNSt3__111basic_regexIcNS_12regex_traitsIcEEE13__parse_egrepIPKcEET_S7_S7_, symObjAddr: 0x40EB8, symBinAddr: 0xB526C, symSize: 0x1A0 }
  - { offset: 0x572F2E, size: 0x8, addend: 0x0, symName: __ZNSt3__111basic_regexIcNS_12regex_traitsIcEEE24__parse_extended_reg_expIPKcEET_S7_S7_, symObjAddr: 0x40BBC, symBinAddr: 0xB4F70, symSize: 0x15C }
  - { offset: 0x57324E, size: 0x8, addend: 0x0, symName: __ZNSt3__111basic_regexIcNS_12regex_traitsIcEEE12__parse_grepIPKcEET_S7_S7_, symObjAddr: 0x40D18, symBinAddr: 0xB50CC, symSize: 0x1A0 }
  - { offset: 0x573262, size: 0x8, addend: 0x0, symName: __ZNSt3__111basic_regexIcNS_12regex_traitsIcEEE21__parse_basic_reg_expIPKcEET_S7_S7_, symObjAddr: 0x40A44, symBinAddr: 0xB4DF8, symSize: 0x178 }
  - { offset: 0x5735BE, size: 0x8, addend: 0x0, symName: __ZNSt3__111basic_regexIcNS_12regex_traitsIcEEE24__parse_extended_reg_expIPKcEET_S7_S7_, symObjAddr: 0x40BBC, symBinAddr: 0xB4F70, symSize: 0x15C }
  - { offset: 0x5735D2, size: 0x8, addend: 0x0, symName: __ZNSt3__111basic_regexIcNS_12regex_traitsIcEEE12__parse_grepIPKcEET_S7_S7_, symObjAddr: 0x40D18, symBinAddr: 0xB50CC, symSize: 0x1A0 }
  - { offset: 0x573B1F, size: 0x8, addend: 0x0, symName: __ZNSt3__111basic_regexIcNS_12regex_traitsIcEEE19__parse_alternativeIPKcEET_S7_S7_, symObjAddr: 0x4129C, symBinAddr: 0xB540C, symSize: 0xA0 }
  - { offset: 0x573C64, size: 0x8, addend: 0x0, symName: __ZNSt3__111basic_regexIcNS_12regex_traitsIcEEE16__parse_ecma_expIPKcEET_S7_S7_, symObjAddr: 0x40898, symBinAddr: 0xB4C4C, symSize: 0x1AC }
  - { offset: 0x574056, size: 0x8, addend: 0x0, symName: __ZNSt3__111basic_regexIcNS_12regex_traitsIcEEE12__parse_termIPKcEET_S7_S7_, symObjAddr: 0x4133C, symBinAddr: 0xB54AC, symSize: 0x94 }
  - { offset: 0x5742F1, size: 0x8, addend: 0x0, symName: __ZNSt3__111basic_regexIcNS_12regex_traitsIcEEE18__parse_nondupl_REIPKcEET_S7_S7_, symObjAddr: 0x4856C, symBinAddr: 0xB7920, symSize: 0x2F8 }
  - { offset: 0x57497D, size: 0x8, addend: 0x0, symName: __ZNSt3__111basic_regexIcNS_12regex_traitsIcEEE22__parse_RE_dupl_symbolIPKcEET_S7_S7_PNS_16__owns_one_stateIcEEjj, symObjAddr: 0x48864, symBinAddr: 0xB7C18, symSize: 0x274 }
  - { offset: 0x574991, size: 0x8, addend: 0x0, symName: __ZNSt3__111basic_regexIcNS_12regex_traitsIcEEE22__parse_RE_dupl_symbolIPKcEET_S7_S7_PNS_16__owns_one_stateIcEEjj, symObjAddr: 0x48864, symBinAddr: 0xB7C18, symSize: 0x274 }
  - { offset: 0x574F40, size: 0x8, addend: 0x0, symName: __ZNSt3__111basic_regexIcNS_12regex_traitsIcEEE22__parse_ERE_expressionIPKcEET_S7_S7_, symObjAddr: 0x48C08, symBinAddr: 0xB7E8C, symSize: 0x1F0 }
  - { offset: 0x5752C8, size: 0x8, addend: 0x0, symName: __ZNSt3__111basic_regexIcNS_12regex_traitsIcEEE33__parse_one_char_or_coll_elem_EREIPKcEET_S7_S7_, symObjAddr: 0x48DF8, symBinAddr: 0xB807C, symSize: 0x158 }
  - { offset: 0x5753AE, size: 0x8, addend: 0x0, symName: __ZNSt3__111basic_regexIcNS_12regex_traitsIcEEE23__parse_ERE_dupl_symbolIPKcEET_S7_S7_PNS_16__owns_one_stateIcEEjj, symObjAddr: 0x41984, symBinAddr: 0xB5AF4, symSize: 0x3E4 }
  - { offset: 0x57594D, size: 0x8, addend: 0x0, symName: __ZNSt3__111basic_regexIcNS_12regex_traitsIcEEE17__parse_assertionIPKcEET_S7_S7_, symObjAddr: 0x413D0, symBinAddr: 0xB5540, symSize: 0x37C }
  - { offset: 0x575F63, size: 0x8, addend: 0x0, symName: __ZNSt3__111basic_regexIcNS_12regex_traitsIcEEE12__parse_atomIPKcEET_S7_S7_, symObjAddr: 0x4174C, symBinAddr: 0xB58BC, symSize: 0x238 }
  - { offset: 0x5762C4, size: 0x8, addend: 0x0, symName: __ZNSt3__111basic_regexIcNS_12regex_traitsIcEEE23__parse_ERE_dupl_symbolIPKcEET_S7_S7_PNS_16__owns_one_stateIcEEjj, symObjAddr: 0x41984, symBinAddr: 0xB5AF4, symSize: 0x3E4 }
  - { offset: 0x576753, size: 0x8, addend: 0x0, symName: __ZNSt3__111basic_regexIcNS_12regex_traitsIcEEE26__parse_bracket_expressionIPKcEET_S7_S7_, symObjAddr: 0x435FC, symBinAddr: 0xB6058, symSize: 0x160 }
  - { offset: 0x576927, size: 0x8, addend: 0x0, symName: __ZNSt3__111basic_regexIcNS_12regex_traitsIcEEE19__parse_atom_escapeIPKcEET_S7_S7_, symObjAddr: 0x4347C, symBinAddr: 0xB5ED8, symSize: 0x180 }
  - { offset: 0x576AB3, size: 0x8, addend: 0x0, symName: __ZNSt3__111basic_regexIcNS_12regex_traitsIcEEE26__parse_bracket_expressionIPKcEET_S7_S7_, symObjAddr: 0x435FC, symBinAddr: 0xB6058, symSize: 0x160 }
  - { offset: 0x576AC7, size: 0x8, addend: 0x0, symName: __ZNSt3__111basic_regexIcNS_12regex_traitsIcEEE25__parse_pattern_characterIPKcEET_S7_S7_, symObjAddr: 0x437A8, symBinAddr: 0xB61B8, symSize: 0x7C }
  - { offset: 0x57AE56, size: 0x8, addend: 0x0, symName: __ZNSt3__111basic_regexIcNS_12regex_traitsIcEEE30__parse_character_class_escapeIPKcEET_S7_S7_, symObjAddr: 0x43900, symBinAddr: 0xB6234, symSize: 0x25C }
  - { offset: 0x57B2B1, size: 0x8, addend: 0x0, symName: __ZNSt3__111basic_regexIcNS_12regex_traitsIcEEE24__parse_character_escapeIPKcEET_S7_S7_PNS_12basic_stringIcNS_11char_traitsIcEENS_9allocatorIcEEEE, symObjAddr: 0x43B5C, symBinAddr: 0xB6490, symSize: 0x40C }
  - { offset: 0x57BDC3, size: 0x8, addend: 0x0, symName: __ZNSt3__111basic_regexIcNS_12regex_traitsIcEEE23__parse_expression_termIPKcEET_S7_S7_PNS_20__bracket_expressionIcS2_EE, symObjAddr: 0x45C94, symBinAddr: 0xB689C, symSize: 0x54C }
  - { offset: 0x57E12A, size: 0x8, addend: 0x0, symName: __ZNSt3__111basic_regexIcNS_12regex_traitsIcEEE25__parse_equivalence_classIPKcEET_S7_S7_PNS_20__bracket_expressionIcS2_EE, symObjAddr: 0x461E0, symBinAddr: 0xB6DE8, symSize: 0x270 }
  - { offset: 0x57EB9E, size: 0x8, addend: 0x0, symName: __ZNSt3__111basic_regexIcNS_12regex_traitsIcEEE18__parse_awk_escapeIPKcEET_S7_S7_PNS_12basic_stringIcNS_11char_traitsIcEENS_9allocatorIcEEEE, symObjAddr: 0x466A4, symBinAddr: 0xB72AC, symSize: 0x2E4 }
  - { offset: 0x57ECC3, size: 0x8, addend: 0x0, symName: __ZNSt3__111basic_regexIcNS_12regex_traitsIcEEE24__parse_collating_symbolIPKcEET_S7_S7_RNS_12basic_stringIcNS_11char_traitsIcEENS_9allocatorIcEEEE, symObjAddr: 0x46450, symBinAddr: 0xB7058, symSize: 0xD0 }
  - { offset: 0x57F039, size: 0x8, addend: 0x0, symName: __ZNSt3__111basic_regexIcNS_12regex_traitsIcEEE20__parse_class_escapeIPKcEET_S7_S7_RNS_12basic_stringIcNS_11char_traitsIcEENS_9allocatorIcEEEEPNS_20__bracket_expressionIcS2_EE, symObjAddr: 0x46520, symBinAddr: 0xB7128, symSize: 0x184 }
  - { offset: 0x57F044, size: 0x8, addend: 0x0, symName: __ZNKSt3__112regex_traitsIcE20__lookup_collatenameIPKcEENS_12basic_stringIcNS_11char_traitsIcEENS_9allocatorIcEEEET_SB_c, symObjAddr: 0x4702C, symBinAddr: 0xB7590, symSize: 0x23C }
  - { offset: 0x57FB3F, size: 0x8, addend: 0x0, symName: __ZNKSt3__112regex_traitsIcE18__lookup_classnameIPKcEEjT_S5_bc, symObjAddr: 0x47620, symBinAddr: 0xB77CC, symSize: 0x154 }
  - { offset: 0x58083E, size: 0x8, addend: 0x0, symName: __ZNSt3__111basic_regexIcNS_12regex_traitsIcEEE20__parse_class_escapeIPKcEET_S7_S7_RNS_12basic_stringIcNS_11char_traitsIcEENS_9allocatorIcEEEEPNS_20__bracket_expressionIcS2_EE, symObjAddr: 0x46520, symBinAddr: 0xB7128, symSize: 0x184 }
  - { offset: 0x5809D6, size: 0x8, addend: 0x0, symName: __ZNSt3__111basic_regexIcNS_12regex_traitsIcEEE18__parse_awk_escapeIPKcEET_S7_S7_PNS_12basic_stringIcNS_11char_traitsIcEENS_9allocatorIcEEEE, symObjAddr: 0x466A4, symBinAddr: 0xB72AC, symSize: 0x2E4 }
  - { offset: 0x583B39, size: 0x8, addend: 0x0, symName: __ZNSt3__111basic_regexIcNS_12regex_traitsIcEEE22__parse_ERE_expressionIPKcEET_S7_S7_, symObjAddr: 0x48C08, symBinAddr: 0xB7E8C, symSize: 0x1F0 }
  - { offset: 0x583B44, size: 0x8, addend: 0x0, symName: __ZNSt3__111basic_regexIcNS_12regex_traitsIcEEE33__parse_one_char_or_coll_elem_EREIPKcEET_S7_S7_, symObjAddr: 0x48DF8, symBinAddr: 0xB807C, symSize: 0x158 }
  - { offset: 0x583D2D, size: 0x8, addend: 0x0, symName: __ZNSt3__111basic_regexIcNS_12regex_traitsIcEEE23__parse_QUOTED_CHAR_EREIPKcEET_S7_S7_, symObjAddr: 0x48F50, symBinAddr: 0xB81D4, symSize: 0xD8 }
  - { offset: 0x589F3C, size: 0x8, addend: 0x0, symName: __ZNSt3__13mapI23llama_rope_scaling_typePKcNS_4lessIS1_EENS_9allocatorINS_4pairIKS1_S3_EEEEEC2B8ne200100ESt16initializer_listIS9_ERKS5_, symObjAddr: 0x4BC74, symBinAddr: 0xB82AC, symSize: 0xF0 }
  - { offset: 0x58A2BE, size: 0x8, addend: 0x0, symName: __ZNSt3__16__treeINS_12__value_typeI23llama_rope_scaling_typePKcEENS_19__map_value_compareIS2_S5_NS_4lessIS2_EELb1EEENS_9allocatorIS5_EEE12__find_equalIS2_EERPNS_16__tree_node_baseIPvEENS_21__tree_const_iteratorIS5_PNS_11__tree_nodeIS5_SF_EElEERPNS_15__tree_end_nodeISH_EESI_RKT_, symObjAddr: 0x4BD64, symBinAddr: 0xB839C, symSize: 0x1B0 }
  - { offset: 0x58A321, size: 0x8, addend: 0x0, symName: __ZNSt3__16__treeINS_12__value_typeI23llama_rope_scaling_typePKcEENS_19__map_value_compareIS2_S5_NS_4lessIS2_EELb1EEENS_9allocatorIS5_EEE12__find_equalIS2_EERPNS_16__tree_node_baseIPvEENS_21__tree_const_iteratorIS5_PNS_11__tree_nodeIS5_SF_EElEERPNS_15__tree_end_nodeISH_EESI_RKT_, symObjAddr: 0x4BD64, symBinAddr: 0xB839C, symSize: 0x1B0 }
  - { offset: 0x58A33D, size: 0x8, addend: 0x0, symName: __ZNSt3__16__treeINS_12__value_typeI23llama_rope_scaling_typePKcEENS_19__map_value_compareIS2_S5_NS_4lessIS2_EELb1EEENS_9allocatorIS5_EEE12__find_equalIS2_EERPNS_16__tree_node_baseIPvEENS_21__tree_const_iteratorIS5_PNS_11__tree_nodeIS5_SF_EElEERPNS_15__tree_end_nodeISH_EESI_RKT_, symObjAddr: 0x4BD64, symBinAddr: 0xB839C, symSize: 0x1B0 }
  - { offset: 0x58AC04, size: 0x8, addend: 0x0, symName: __ZNSt3__16__treeINS_12__value_typeIP19ggml_backend_deviceNS_6vectorINS_4pairIS3_P24ggml_backend_buffer_typeEENS_9allocatorIS8_EEEEEENS_19__map_value_compareIS3_SC_NS_4lessIS3_EELb1EEENS9_ISC_EEE7destroyEPNS_11__tree_nodeISC_PvEE, symObjAddr: 0x4C0C4, symBinAddr: 0xB86FC, symSize: 0x50 }
  - { offset: 0x58AEBA, size: 0x8, addend: 0x0, symName: __ZNSt3__16vectorINS_4pairINS_10unique_ptrI12ggml_context20ggml_context_deleterEENS0_INS2_I19ggml_backend_buffer27ggml_backend_buffer_deleterEENS_9allocatorIS8_EEEEEENS9_ISC_EEE22__base_destruct_at_endB8ne200100EPSC_, symObjAddr: 0x4C114, symBinAddr: 0xB874C, symSize: 0xA8 }
  - { offset: 0x58D3F0, size: 0x8, addend: 0x0, symName: __ZNSt3__16vectorIN11llama_model4impl9layer_devENS_9allocatorIS3_EEE20__throw_length_errorB8ne200100Ev, symObjAddr: 0x4D554, symBinAddr: 0xB8E54, symSize: 0x14 }
  - { offset: 0x58D408, size: 0x8, addend: 0x0, symName: __ZNSt3__16__treeINS_12__value_typeIP24ggml_backend_buffer_typeNS_10unique_ptrI12ggml_context20ggml_context_deleterEEEENS_19__map_value_compareIS3_S8_ZN11llama_model12load_tensorsER18llama_model_loaderE28ggml_backend_buft_comparatorLb1EEENS_9allocatorIS8_EEE7destroyEPNS_11__tree_nodeIS8_PvEE, symObjAddr: 0x4D568, symBinAddr: 0xB8E68, symSize: 0x54 }
  - { offset: 0x58D7C9, size: 0x8, addend: 0x0, symName: __ZNSt3__16vectorI11llama_layerNS_9allocatorIS1_EEE20__throw_length_errorB8ne200100Ev, symObjAddr: 0x4D77C, symBinAddr: 0xB907C, symSize: 0x14 }
  - { offset: 0x58DA54, size: 0x8, addend: 0x0, symName: __ZNSt3__112__hash_tableINS_17__hash_value_typeIjP19ggml_backend_bufferEENS_22__unordered_map_hasherIjS4_NS_4hashIjEENS_8equal_toIjEELb1EEENS_21__unordered_map_equalIjS4_S9_S7_Lb1EEENS_9allocatorIS4_EEED1Ev, symObjAddr: 0x4DA3C, symBinAddr: 0xB9328, symSize: 0x48 }
  - { offset: 0x58E346, size: 0x8, addend: 0x0, symName: __ZNSt3__112__hash_tableINS_17__hash_value_typeIjP19ggml_backend_bufferEENS_22__unordered_map_hasherIjS4_NS_4hashIjEENS_8equal_toIjEELb1EEENS_21__unordered_map_equalIjS4_S9_S7_Lb1EEENS_9allocatorIS4_EEE25__emplace_unique_key_argsIjJRKNS_4pairIKjS3_EEEEENSH_INS_15__hash_iteratorIPNS_11__hash_nodeIS4_PvEEEEbEERKT_DpOT0_, symObjAddr: 0x4E2FC, symBinAddr: 0xB9BC0, symSize: 0x304 }
  - { offset: 0x58EB9E, size: 0x8, addend: 0x0, symName: '__ZNSt3__110__function6__funcIZNK11llama_model10print_infoEvE3$_0NS_9allocatorIS3_EEFjjEED1Ev', symObjAddr: 0x4E6BC, symBinAddr: 0xB9F3C, symSize: 0x4 }
  - { offset: 0x58EBCA, size: 0x8, addend: 0x0, symName: '__ZNSt3__110__function6__funcIZNK11llama_model10print_infoEvE3$_0NS_9allocatorIS3_EEFjjEED0Ev', symObjAddr: 0x4E6C0, symBinAddr: 0xB9F40, symSize: 0x4 }
  - { offset: 0x58EC81, size: 0x8, addend: 0x0, symName: '__ZNKSt3__110__function6__funcIZNK11llama_model10print_infoEvE3$_0NS_9allocatorIS3_EEFjjEE7__cloneEv', symObjAddr: 0x4E6C4, symBinAddr: 0xB9F44, symSize: 0x34 }
  - { offset: 0x58EDD3, size: 0x8, addend: 0x0, symName: '__ZNKSt3__110__function6__funcIZNK11llama_model10print_infoEvE3$_0NS_9allocatorIS3_EEFjjEE7__cloneEPNS0_6__baseIS6_EE', symObjAddr: 0x4E6F8, symBinAddr: 0xB9F78, symSize: 0x14 }
  - { offset: 0x58EE40, size: 0x8, addend: 0x0, symName: '__ZNSt3__110__function6__funcIZNK11llama_model10print_infoEvE3$_0NS_9allocatorIS3_EEFjjEE7destroyEv', symObjAddr: 0x4E70C, symBinAddr: 0xB9F8C, symSize: 0x4 }
  - { offset: 0x58EE95, size: 0x8, addend: 0x0, symName: '__ZNSt3__110__function6__funcIZNK11llama_model10print_infoEvE3$_0NS_9allocatorIS3_EEFjjEE18destroy_deallocateEv', symObjAddr: 0x4E710, symBinAddr: 0xB9F90, symSize: 0x4 }
  - { offset: 0x58EECA, size: 0x8, addend: 0x0, symName: '__ZNSt3__110__function6__funcIZNK11llama_model10print_infoEvE3$_0NS_9allocatorIS3_EEFjjEE18destroy_deallocateEv', symObjAddr: 0x4E710, symBinAddr: 0xB9F90, symSize: 0x4 }
  - { offset: 0x58EEED, size: 0x8, addend: 0x0, symName: '__ZNSt3__110__function6__funcIZNK11llama_model10print_infoEvE3$_0NS_9allocatorIS3_EEFjjEE18destroy_deallocateEv', symObjAddr: 0x4E710, symBinAddr: 0xB9F90, symSize: 0x4 }
  - { offset: 0x58EF20, size: 0x8, addend: 0x0, symName: '__ZNSt3__110__function6__funcIZNK11llama_model10print_infoEvE3$_0NS_9allocatorIS3_EEFjjEE18destroy_deallocateEv', symObjAddr: 0x4E710, symBinAddr: 0xB9F90, symSize: 0x4 }
  - { offset: 0x58EFC3, size: 0x8, addend: 0x0, symName: '__ZNSt3__110__function6__funcIZNK11llama_model10print_infoEvE3$_0NS_9allocatorIS3_EEFjjEEclEOj', symObjAddr: 0x4E714, symBinAddr: 0xB9F94, symSize: 0x10 }
  - { offset: 0x58F06C, size: 0x8, addend: 0x0, symName: '__ZNKSt3__110__function6__funcIZNK11llama_model10print_infoEvE3$_0NS_9allocatorIS3_EEFjjEE6targetERKSt9type_info', symObjAddr: 0x4E724, symBinAddr: 0xB9FA4, symSize: 0x64 }
  - { offset: 0x58F120, size: 0x8, addend: 0x0, symName: '__ZNKSt3__110__function6__funcIZNK11llama_model10print_infoEvE3$_0NS_9allocatorIS3_EEFjjEE11target_typeEv', symObjAddr: 0x4E788, symBinAddr: 0xBA008, symSize: 0xC }
  - { offset: 0x58F143, size: 0x8, addend: 0x0, symName: '__ZNSt3__110__function6__funcIZNK11llama_model10print_infoEvE3$_1NS_9allocatorIS3_EEFjjEED1Ev', symObjAddr: 0x4E794, symBinAddr: 0xBA014, symSize: 0x4 }
  - { offset: 0x58F16F, size: 0x8, addend: 0x0, symName: '__ZNSt3__110__function6__funcIZNK11llama_model10print_infoEvE3$_1NS_9allocatorIS3_EEFjjEED0Ev', symObjAddr: 0x4E798, symBinAddr: 0xBA018, symSize: 0x4 }
  - { offset: 0x58F226, size: 0x8, addend: 0x0, symName: '__ZNKSt3__110__function6__funcIZNK11llama_model10print_infoEvE3$_1NS_9allocatorIS3_EEFjjEE7__cloneEv', symObjAddr: 0x4E79C, symBinAddr: 0xBA01C, symSize: 0x34 }
  - { offset: 0x58F378, size: 0x8, addend: 0x0, symName: '__ZNKSt3__110__function6__funcIZNK11llama_model10print_infoEvE3$_1NS_9allocatorIS3_EEFjjEE7__cloneEPNS0_6__baseIS6_EE', symObjAddr: 0x4E7D0, symBinAddr: 0xBA050, symSize: 0x14 }
  - { offset: 0x58F3E5, size: 0x8, addend: 0x0, symName: '__ZNSt3__110__function6__funcIZNK11llama_model10print_infoEvE3$_1NS_9allocatorIS3_EEFjjEE7destroyEv', symObjAddr: 0x4E7E4, symBinAddr: 0xBA064, symSize: 0x4 }
  - { offset: 0x58F43A, size: 0x8, addend: 0x0, symName: '__ZNSt3__110__function6__funcIZNK11llama_model10print_infoEvE3$_1NS_9allocatorIS3_EEFjjEE18destroy_deallocateEv', symObjAddr: 0x4E7E8, symBinAddr: 0xBA068, symSize: 0x4 }
  - { offset: 0x58F46F, size: 0x8, addend: 0x0, symName: '__ZNSt3__110__function6__funcIZNK11llama_model10print_infoEvE3$_1NS_9allocatorIS3_EEFjjEE18destroy_deallocateEv', symObjAddr: 0x4E7E8, symBinAddr: 0xBA068, symSize: 0x4 }
  - { offset: 0x58F492, size: 0x8, addend: 0x0, symName: '__ZNSt3__110__function6__funcIZNK11llama_model10print_infoEvE3$_1NS_9allocatorIS3_EEFjjEE18destroy_deallocateEv', symObjAddr: 0x4E7E8, symBinAddr: 0xBA068, symSize: 0x4 }
  - { offset: 0x58F4C5, size: 0x8, addend: 0x0, symName: '__ZNSt3__110__function6__funcIZNK11llama_model10print_infoEvE3$_1NS_9allocatorIS3_EEFjjEE18destroy_deallocateEv', symObjAddr: 0x4E7E8, symBinAddr: 0xBA068, symSize: 0x4 }
  - { offset: 0x58F568, size: 0x8, addend: 0x0, symName: '__ZNSt3__110__function6__funcIZNK11llama_model10print_infoEvE3$_1NS_9allocatorIS3_EEFjjEEclEOj', symObjAddr: 0x4E7EC, symBinAddr: 0xBA06C, symSize: 0x10 }
  - { offset: 0x58F611, size: 0x8, addend: 0x0, symName: '__ZNKSt3__110__function6__funcIZNK11llama_model10print_infoEvE3$_1NS_9allocatorIS3_EEFjjEE6targetERKSt9type_info', symObjAddr: 0x4E7FC, symBinAddr: 0xBA07C, symSize: 0x64 }
  - { offset: 0x58F6C5, size: 0x8, addend: 0x0, symName: '__ZNKSt3__110__function6__funcIZNK11llama_model10print_infoEvE3$_1NS_9allocatorIS3_EEFjjEE11target_typeEv', symObjAddr: 0x4E860, symBinAddr: 0xBA0E0, symSize: 0xC }
  - { offset: 0x58F6E8, size: 0x8, addend: 0x0, symName: '__ZNSt3__110__function6__funcIZNK11llama_model10print_infoEvE3$_2NS_9allocatorIS3_EEFjjEED1Ev', symObjAddr: 0x4E86C, symBinAddr: 0xBA0EC, symSize: 0x4 }
  - { offset: 0x58F714, size: 0x8, addend: 0x0, symName: '__ZNSt3__110__function6__funcIZNK11llama_model10print_infoEvE3$_2NS_9allocatorIS3_EEFjjEED0Ev', symObjAddr: 0x4E870, symBinAddr: 0xBA0F0, symSize: 0x4 }
  - { offset: 0x58F7CB, size: 0x8, addend: 0x0, symName: '__ZNKSt3__110__function6__funcIZNK11llama_model10print_infoEvE3$_2NS_9allocatorIS3_EEFjjEE7__cloneEv', symObjAddr: 0x4E874, symBinAddr: 0xBA0F4, symSize: 0x34 }
  - { offset: 0x58F91D, size: 0x8, addend: 0x0, symName: '__ZNKSt3__110__function6__funcIZNK11llama_model10print_infoEvE3$_2NS_9allocatorIS3_EEFjjEE7__cloneEPNS0_6__baseIS6_EE', symObjAddr: 0x4E8A8, symBinAddr: 0xBA128, symSize: 0x14 }
  - { offset: 0x58F98A, size: 0x8, addend: 0x0, symName: '__ZNSt3__110__function6__funcIZNK11llama_model10print_infoEvE3$_2NS_9allocatorIS3_EEFjjEE7destroyEv', symObjAddr: 0x4E8BC, symBinAddr: 0xBA13C, symSize: 0x4 }
  - { offset: 0x58F9DF, size: 0x8, addend: 0x0, symName: '__ZNSt3__110__function6__funcIZNK11llama_model10print_infoEvE3$_2NS_9allocatorIS3_EEFjjEE18destroy_deallocateEv', symObjAddr: 0x4E8C0, symBinAddr: 0xBA140, symSize: 0x4 }
  - { offset: 0x58FA14, size: 0x8, addend: 0x0, symName: '__ZNSt3__110__function6__funcIZNK11llama_model10print_infoEvE3$_2NS_9allocatorIS3_EEFjjEE18destroy_deallocateEv', symObjAddr: 0x4E8C0, symBinAddr: 0xBA140, symSize: 0x4 }
  - { offset: 0x58FA37, size: 0x8, addend: 0x0, symName: '__ZNSt3__110__function6__funcIZNK11llama_model10print_infoEvE3$_2NS_9allocatorIS3_EEFjjEE18destroy_deallocateEv', symObjAddr: 0x4E8C0, symBinAddr: 0xBA140, symSize: 0x4 }
  - { offset: 0x58FA6A, size: 0x8, addend: 0x0, symName: '__ZNSt3__110__function6__funcIZNK11llama_model10print_infoEvE3$_2NS_9allocatorIS3_EEFjjEE18destroy_deallocateEv', symObjAddr: 0x4E8C0, symBinAddr: 0xBA140, symSize: 0x4 }
  - { offset: 0x58FB0D, size: 0x8, addend: 0x0, symName: '__ZNSt3__110__function6__funcIZNK11llama_model10print_infoEvE3$_2NS_9allocatorIS3_EEFjjEEclEOj', symObjAddr: 0x4E8C4, symBinAddr: 0xBA144, symSize: 0x10 }
  - { offset: 0x58FBB6, size: 0x8, addend: 0x0, symName: '__ZNKSt3__110__function6__funcIZNK11llama_model10print_infoEvE3$_2NS_9allocatorIS3_EEFjjEE6targetERKSt9type_info', symObjAddr: 0x4E8D4, symBinAddr: 0xBA154, symSize: 0x64 }
  - { offset: 0x58FC6A, size: 0x8, addend: 0x0, symName: '__ZNKSt3__110__function6__funcIZNK11llama_model10print_infoEvE3$_2NS_9allocatorIS3_EEFjjEE11target_typeEv', symObjAddr: 0x4E938, symBinAddr: 0xBA1B8, symSize: 0xC }
  - { offset: 0x58FC8D, size: 0x8, addend: 0x0, symName: '__ZNSt3__110__function6__funcIZNK11llama_model10print_infoEvE3$_3NS_9allocatorIS3_EEFjjEED1Ev', symObjAddr: 0x4E944, symBinAddr: 0xBA1C4, symSize: 0x4 }
  - { offset: 0x58FCB9, size: 0x8, addend: 0x0, symName: '__ZNSt3__110__function6__funcIZNK11llama_model10print_infoEvE3$_3NS_9allocatorIS3_EEFjjEED0Ev', symObjAddr: 0x4E948, symBinAddr: 0xBA1C8, symSize: 0x4 }
  - { offset: 0x58FD70, size: 0x8, addend: 0x0, symName: '__ZNKSt3__110__function6__funcIZNK11llama_model10print_infoEvE3$_3NS_9allocatorIS3_EEFjjEE7__cloneEv', symObjAddr: 0x4E94C, symBinAddr: 0xBA1CC, symSize: 0x34 }
  - { offset: 0x58FEC2, size: 0x8, addend: 0x0, symName: '__ZNKSt3__110__function6__funcIZNK11llama_model10print_infoEvE3$_3NS_9allocatorIS3_EEFjjEE7__cloneEPNS0_6__baseIS6_EE', symObjAddr: 0x4E980, symBinAddr: 0xBA200, symSize: 0x14 }
  - { offset: 0x58FF2F, size: 0x8, addend: 0x0, symName: '__ZNSt3__110__function6__funcIZNK11llama_model10print_infoEvE3$_3NS_9allocatorIS3_EEFjjEE7destroyEv', symObjAddr: 0x4E994, symBinAddr: 0xBA214, symSize: 0x4 }
  - { offset: 0x58FF84, size: 0x8, addend: 0x0, symName: '__ZNSt3__110__function6__funcIZNK11llama_model10print_infoEvE3$_3NS_9allocatorIS3_EEFjjEE18destroy_deallocateEv', symObjAddr: 0x4E998, symBinAddr: 0xBA218, symSize: 0x4 }
  - { offset: 0x58FFB9, size: 0x8, addend: 0x0, symName: '__ZNSt3__110__function6__funcIZNK11llama_model10print_infoEvE3$_3NS_9allocatorIS3_EEFjjEE18destroy_deallocateEv', symObjAddr: 0x4E998, symBinAddr: 0xBA218, symSize: 0x4 }
  - { offset: 0x58FFDC, size: 0x8, addend: 0x0, symName: '__ZNSt3__110__function6__funcIZNK11llama_model10print_infoEvE3$_3NS_9allocatorIS3_EEFjjEE18destroy_deallocateEv', symObjAddr: 0x4E998, symBinAddr: 0xBA218, symSize: 0x4 }
  - { offset: 0x59000F, size: 0x8, addend: 0x0, symName: '__ZNSt3__110__function6__funcIZNK11llama_model10print_infoEvE3$_3NS_9allocatorIS3_EEFjjEE18destroy_deallocateEv', symObjAddr: 0x4E998, symBinAddr: 0xBA218, symSize: 0x4 }
  - { offset: 0x5900B2, size: 0x8, addend: 0x0, symName: '__ZNSt3__110__function6__funcIZNK11llama_model10print_infoEvE3$_3NS_9allocatorIS3_EEFjjEEclEOj', symObjAddr: 0x4E99C, symBinAddr: 0xBA21C, symSize: 0x10 }
  - { offset: 0x59015B, size: 0x8, addend: 0x0, symName: '__ZNKSt3__110__function6__funcIZNK11llama_model10print_infoEvE3$_3NS_9allocatorIS3_EEFjjEE6targetERKSt9type_info', symObjAddr: 0x4E9AC, symBinAddr: 0xBA22C, symSize: 0x64 }
  - { offset: 0x59020F, size: 0x8, addend: 0x0, symName: '__ZNKSt3__110__function6__funcIZNK11llama_model10print_infoEvE3$_3NS_9allocatorIS3_EEFjjEE11target_typeEv', symObjAddr: 0x4EA10, symBinAddr: 0xBA290, symSize: 0xC }
  - { offset: 0x590232, size: 0x8, addend: 0x0, symName: '__ZNSt3__110__function6__funcIZNK11llama_model10print_infoEvE3$_4NS_9allocatorIS3_EEFjjEED1Ev', symObjAddr: 0x4EA1C, symBinAddr: 0xBA29C, symSize: 0x4 }
  - { offset: 0x59025E, size: 0x8, addend: 0x0, symName: '__ZNSt3__110__function6__funcIZNK11llama_model10print_infoEvE3$_4NS_9allocatorIS3_EEFjjEED0Ev', symObjAddr: 0x4EA20, symBinAddr: 0xBA2A0, symSize: 0x4 }
  - { offset: 0x590315, size: 0x8, addend: 0x0, symName: '__ZNKSt3__110__function6__funcIZNK11llama_model10print_infoEvE3$_4NS_9allocatorIS3_EEFjjEE7__cloneEv', symObjAddr: 0x4EA24, symBinAddr: 0xBA2A4, symSize: 0x34 }
  - { offset: 0x590467, size: 0x8, addend: 0x0, symName: '__ZNKSt3__110__function6__funcIZNK11llama_model10print_infoEvE3$_4NS_9allocatorIS3_EEFjjEE7__cloneEPNS0_6__baseIS6_EE', symObjAddr: 0x4EA58, symBinAddr: 0xBA2D8, symSize: 0x14 }
  - { offset: 0x5904D4, size: 0x8, addend: 0x0, symName: '__ZNSt3__110__function6__funcIZNK11llama_model10print_infoEvE3$_4NS_9allocatorIS3_EEFjjEE7destroyEv', symObjAddr: 0x4EA6C, symBinAddr: 0xBA2EC, symSize: 0x4 }
  - { offset: 0x590529, size: 0x8, addend: 0x0, symName: '__ZNSt3__110__function6__funcIZNK11llama_model10print_infoEvE3$_4NS_9allocatorIS3_EEFjjEE18destroy_deallocateEv', symObjAddr: 0x4EA70, symBinAddr: 0xBA2F0, symSize: 0x4 }
  - { offset: 0x59055E, size: 0x8, addend: 0x0, symName: '__ZNSt3__110__function6__funcIZNK11llama_model10print_infoEvE3$_4NS_9allocatorIS3_EEFjjEE18destroy_deallocateEv', symObjAddr: 0x4EA70, symBinAddr: 0xBA2F0, symSize: 0x4 }
  - { offset: 0x590581, size: 0x8, addend: 0x0, symName: '__ZNSt3__110__function6__funcIZNK11llama_model10print_infoEvE3$_4NS_9allocatorIS3_EEFjjEE18destroy_deallocateEv', symObjAddr: 0x4EA70, symBinAddr: 0xBA2F0, symSize: 0x4 }
  - { offset: 0x5905B4, size: 0x8, addend: 0x0, symName: '__ZNSt3__110__function6__funcIZNK11llama_model10print_infoEvE3$_4NS_9allocatorIS3_EEFjjEE18destroy_deallocateEv', symObjAddr: 0x4EA70, symBinAddr: 0xBA2F0, symSize: 0x4 }
  - { offset: 0x590657, size: 0x8, addend: 0x0, symName: '__ZNSt3__110__function6__funcIZNK11llama_model10print_infoEvE3$_4NS_9allocatorIS3_EEFjjEEclEOj', symObjAddr: 0x4EA74, symBinAddr: 0xBA2F4, symSize: 0x10 }
  - { offset: 0x590700, size: 0x8, addend: 0x0, symName: '__ZNKSt3__110__function6__funcIZNK11llama_model10print_infoEvE3$_4NS_9allocatorIS3_EEFjjEE6targetERKSt9type_info', symObjAddr: 0x4EA84, symBinAddr: 0xBA304, symSize: 0x64 }
  - { offset: 0x5907B4, size: 0x8, addend: 0x0, symName: '__ZNKSt3__110__function6__funcIZNK11llama_model10print_infoEvE3$_4NS_9allocatorIS3_EEFjjEE11target_typeEv', symObjAddr: 0x4EAE8, symBinAddr: 0xBA368, symSize: 0xC }
  - { offset: 0x5907D7, size: 0x8, addend: 0x0, symName: '__ZNSt3__110__function6__funcIZNK11llama_model10print_infoEvE3$_5NS_9allocatorIS3_EEFjjEED1Ev', symObjAddr: 0x4EAF4, symBinAddr: 0xBA374, symSize: 0x4 }
  - { offset: 0x590803, size: 0x8, addend: 0x0, symName: '__ZNSt3__110__function6__funcIZNK11llama_model10print_infoEvE3$_5NS_9allocatorIS3_EEFjjEED0Ev', symObjAddr: 0x4EAF8, symBinAddr: 0xBA378, symSize: 0x4 }
  - { offset: 0x5908BA, size: 0x8, addend: 0x0, symName: '__ZNKSt3__110__function6__funcIZNK11llama_model10print_infoEvE3$_5NS_9allocatorIS3_EEFjjEE7__cloneEv', symObjAddr: 0x4EAFC, symBinAddr: 0xBA37C, symSize: 0x34 }
  - { offset: 0x590A0C, size: 0x8, addend: 0x0, symName: '__ZNKSt3__110__function6__funcIZNK11llama_model10print_infoEvE3$_5NS_9allocatorIS3_EEFjjEE7__cloneEPNS0_6__baseIS6_EE', symObjAddr: 0x4EB30, symBinAddr: 0xBA3B0, symSize: 0x14 }
  - { offset: 0x590A79, size: 0x8, addend: 0x0, symName: '__ZNSt3__110__function6__funcIZNK11llama_model10print_infoEvE3$_5NS_9allocatorIS3_EEFjjEE7destroyEv', symObjAddr: 0x4EB44, symBinAddr: 0xBA3C4, symSize: 0x4 }
  - { offset: 0x590ACE, size: 0x8, addend: 0x0, symName: '__ZNSt3__110__function6__funcIZNK11llama_model10print_infoEvE3$_5NS_9allocatorIS3_EEFjjEE18destroy_deallocateEv', symObjAddr: 0x4EB48, symBinAddr: 0xBA3C8, symSize: 0x4 }
  - { offset: 0x590B03, size: 0x8, addend: 0x0, symName: '__ZNSt3__110__function6__funcIZNK11llama_model10print_infoEvE3$_5NS_9allocatorIS3_EEFjjEE18destroy_deallocateEv', symObjAddr: 0x4EB48, symBinAddr: 0xBA3C8, symSize: 0x4 }
  - { offset: 0x590B26, size: 0x8, addend: 0x0, symName: '__ZNSt3__110__function6__funcIZNK11llama_model10print_infoEvE3$_5NS_9allocatorIS3_EEFjjEE18destroy_deallocateEv', symObjAddr: 0x4EB48, symBinAddr: 0xBA3C8, symSize: 0x4 }
  - { offset: 0x590B59, size: 0x8, addend: 0x0, symName: '__ZNSt3__110__function6__funcIZNK11llama_model10print_infoEvE3$_5NS_9allocatorIS3_EEFjjEE18destroy_deallocateEv', symObjAddr: 0x4EB48, symBinAddr: 0xBA3C8, symSize: 0x4 }
  - { offset: 0x590BFC, size: 0x8, addend: 0x0, symName: '__ZNSt3__110__function6__funcIZNK11llama_model10print_infoEvE3$_5NS_9allocatorIS3_EEFjjEEclEOj', symObjAddr: 0x4EB4C, symBinAddr: 0xBA3CC, symSize: 0x10 }
  - { offset: 0x590CA5, size: 0x8, addend: 0x0, symName: '__ZNKSt3__110__function6__funcIZNK11llama_model10print_infoEvE3$_5NS_9allocatorIS3_EEFjjEE6targetERKSt9type_info', symObjAddr: 0x4EB5C, symBinAddr: 0xBA3DC, symSize: 0x64 }
  - { offset: 0x590D59, size: 0x8, addend: 0x0, symName: '__ZNKSt3__110__function6__funcIZNK11llama_model10print_infoEvE3$_5NS_9allocatorIS3_EEFjjEE11target_typeEv', symObjAddr: 0x4EBC0, symBinAddr: 0xBA440, symSize: 0xC }
  - { offset: 0x590D7C, size: 0x8, addend: 0x0, symName: '__ZNSt3__110__function6__funcIZNK11llama_model13create_memoryERK19llama_memory_paramsRK13llama_cparamsE3$_0NS_9allocatorIS9_EEFbiEED1Ev', symObjAddr: 0x4EBCC, symBinAddr: 0xBA44C, symSize: 0x4 }
  - { offset: 0x590DA8, size: 0x8, addend: 0x0, symName: '__ZNSt3__110__function6__funcIZNK11llama_model13create_memoryERK19llama_memory_paramsRK13llama_cparamsE3$_0NS_9allocatorIS9_EEFbiEED0Ev', symObjAddr: 0x4EBD0, symBinAddr: 0xBA450, symSize: 0x4 }
  - { offset: 0x590E5F, size: 0x8, addend: 0x0, symName: '__ZNKSt3__110__function6__funcIZNK11llama_model13create_memoryERK19llama_memory_paramsRK13llama_cparamsE3$_0NS_9allocatorIS9_EEFbiEE7__cloneEv', symObjAddr: 0x4EBD4, symBinAddr: 0xBA454, symSize: 0x24 }
  - { offset: 0x590FAD, size: 0x8, addend: 0x0, symName: '__ZNKSt3__110__function6__funcIZNK11llama_model13create_memoryERK19llama_memory_paramsRK13llama_cparamsE3$_0NS_9allocatorIS9_EEFbiEE7__cloneEPNS0_6__baseISC_EE', symObjAddr: 0x4EBF8, symBinAddr: 0xBA478, symSize: 0x10 }
  - { offset: 0x590FE0, size: 0x8, addend: 0x0, symName: '__ZNKSt3__110__function6__funcIZNK11llama_model13create_memoryERK19llama_memory_paramsRK13llama_cparamsE3$_0NS_9allocatorIS9_EEFbiEE7__cloneEPNS0_6__baseISC_EE', symObjAddr: 0x4EBF8, symBinAddr: 0xBA478, symSize: 0x10 }
  - { offset: 0x590FFC, size: 0x8, addend: 0x0, symName: '__ZNKSt3__110__function6__funcIZNK11llama_model13create_memoryERK19llama_memory_paramsRK13llama_cparamsE3$_0NS_9allocatorIS9_EEFbiEE7__cloneEPNS0_6__baseISC_EE', symObjAddr: 0x4EBF8, symBinAddr: 0xBA478, symSize: 0x10 }
  - { offset: 0x591018, size: 0x8, addend: 0x0, symName: '__ZNSt3__110__function6__funcIZNK11llama_model13create_memoryERK19llama_memory_paramsRK13llama_cparamsE3$_0NS_9allocatorIS9_EEFbiEE7destroyEv', symObjAddr: 0x4EC08, symBinAddr: 0xBA488, symSize: 0x4 }
  - { offset: 0x59106D, size: 0x8, addend: 0x0, symName: '__ZNSt3__110__function6__funcIZNK11llama_model13create_memoryERK19llama_memory_paramsRK13llama_cparamsE3$_0NS_9allocatorIS9_EEFbiEE18destroy_deallocateEv', symObjAddr: 0x4EC0C, symBinAddr: 0xBA48C, symSize: 0x4 }
  - { offset: 0x5910A2, size: 0x8, addend: 0x0, symName: '__ZNSt3__110__function6__funcIZNK11llama_model13create_memoryERK19llama_memory_paramsRK13llama_cparamsE3$_0NS_9allocatorIS9_EEFbiEE18destroy_deallocateEv', symObjAddr: 0x4EC0C, symBinAddr: 0xBA48C, symSize: 0x4 }
  - { offset: 0x5910C5, size: 0x8, addend: 0x0, symName: '__ZNSt3__110__function6__funcIZNK11llama_model13create_memoryERK19llama_memory_paramsRK13llama_cparamsE3$_0NS_9allocatorIS9_EEFbiEE18destroy_deallocateEv', symObjAddr: 0x4EC0C, symBinAddr: 0xBA48C, symSize: 0x4 }
  - { offset: 0x5910F8, size: 0x8, addend: 0x0, symName: '__ZNSt3__110__function6__funcIZNK11llama_model13create_memoryERK19llama_memory_paramsRK13llama_cparamsE3$_0NS_9allocatorIS9_EEFbiEE18destroy_deallocateEv', symObjAddr: 0x4EC0C, symBinAddr: 0xBA48C, symSize: 0x4 }
  - { offset: 0x591120, size: 0x8, addend: 0x0, symName: '__ZNSt3__110__function6__funcIZNK11llama_model13create_memoryERK19llama_memory_paramsRK13llama_cparamsE3$_0NS_9allocatorIS9_EEFbiEEclEOi', symObjAddr: 0x4EC10, symBinAddr: 0xBA490, symSize: 0x8 }
  - { offset: 0x59114F, size: 0x8, addend: 0x0, symName: '__ZNKSt3__110__function6__funcIZNK11llama_model13create_memoryERK19llama_memory_paramsRK13llama_cparamsE3$_0NS_9allocatorIS9_EEFbiEE6targetERKSt9type_info', symObjAddr: 0x4EC18, symBinAddr: 0xBA498, symSize: 0x64 }
  - { offset: 0x591203, size: 0x8, addend: 0x0, symName: '__ZNKSt3__110__function6__funcIZNK11llama_model13create_memoryERK19llama_memory_paramsRK13llama_cparamsE3$_0NS_9allocatorIS9_EEFbiEE11target_typeEv', symObjAddr: 0x4EC7C, symBinAddr: 0xBA4FC, symSize: 0xC }
  - { offset: 0x59122C, size: 0x8, addend: 0x0, symName: '__ZNSt3__110__function6__funcIZNK11llama_model13create_memoryERK19llama_memory_paramsRK13llama_cparamsE3$_1NS_9allocatorIS9_EEFbiEED1Ev', symObjAddr: 0x4EE28, symBinAddr: 0xBA6A8, symSize: 0x4 }
  - { offset: 0x591258, size: 0x8, addend: 0x0, symName: '__ZNSt3__110__function6__funcIZNK11llama_model13create_memoryERK19llama_memory_paramsRK13llama_cparamsE3$_1NS_9allocatorIS9_EEFbiEED0Ev', symObjAddr: 0x4EE2C, symBinAddr: 0xBA6AC, symSize: 0x4 }
  - { offset: 0x59130F, size: 0x8, addend: 0x0, symName: '__ZNKSt3__110__function6__funcIZNK11llama_model13create_memoryERK19llama_memory_paramsRK13llama_cparamsE3$_1NS_9allocatorIS9_EEFbiEE7__cloneEv', symObjAddr: 0x4EE30, symBinAddr: 0xBA6B0, symSize: 0x24 }
  - { offset: 0x59145D, size: 0x8, addend: 0x0, symName: '__ZNKSt3__110__function6__funcIZNK11llama_model13create_memoryERK19llama_memory_paramsRK13llama_cparamsE3$_1NS_9allocatorIS9_EEFbiEE7__cloneEPNS0_6__baseISC_EE', symObjAddr: 0x4EE54, symBinAddr: 0xBA6D4, symSize: 0x10 }
  - { offset: 0x591490, size: 0x8, addend: 0x0, symName: '__ZNKSt3__110__function6__funcIZNK11llama_model13create_memoryERK19llama_memory_paramsRK13llama_cparamsE3$_1NS_9allocatorIS9_EEFbiEE7__cloneEPNS0_6__baseISC_EE', symObjAddr: 0x4EE54, symBinAddr: 0xBA6D4, symSize: 0x10 }
  - { offset: 0x5914AC, size: 0x8, addend: 0x0, symName: '__ZNKSt3__110__function6__funcIZNK11llama_model13create_memoryERK19llama_memory_paramsRK13llama_cparamsE3$_1NS_9allocatorIS9_EEFbiEE7__cloneEPNS0_6__baseISC_EE', symObjAddr: 0x4EE54, symBinAddr: 0xBA6D4, symSize: 0x10 }
  - { offset: 0x5914C8, size: 0x8, addend: 0x0, symName: '__ZNSt3__110__function6__funcIZNK11llama_model13create_memoryERK19llama_memory_paramsRK13llama_cparamsE3$_1NS_9allocatorIS9_EEFbiEE7destroyEv', symObjAddr: 0x4EE64, symBinAddr: 0xBA6E4, symSize: 0x4 }
  - { offset: 0x59151D, size: 0x8, addend: 0x0, symName: '__ZNSt3__110__function6__funcIZNK11llama_model13create_memoryERK19llama_memory_paramsRK13llama_cparamsE3$_1NS_9allocatorIS9_EEFbiEE18destroy_deallocateEv', symObjAddr: 0x4EE68, symBinAddr: 0xBA6E8, symSize: 0x4 }
  - { offset: 0x591552, size: 0x8, addend: 0x0, symName: '__ZNSt3__110__function6__funcIZNK11llama_model13create_memoryERK19llama_memory_paramsRK13llama_cparamsE3$_1NS_9allocatorIS9_EEFbiEE18destroy_deallocateEv', symObjAddr: 0x4EE68, symBinAddr: 0xBA6E8, symSize: 0x4 }
  - { offset: 0x591575, size: 0x8, addend: 0x0, symName: '__ZNSt3__110__function6__funcIZNK11llama_model13create_memoryERK19llama_memory_paramsRK13llama_cparamsE3$_1NS_9allocatorIS9_EEFbiEE18destroy_deallocateEv', symObjAddr: 0x4EE68, symBinAddr: 0xBA6E8, symSize: 0x4 }
  - { offset: 0x5915A8, size: 0x8, addend: 0x0, symName: '__ZNSt3__110__function6__funcIZNK11llama_model13create_memoryERK19llama_memory_paramsRK13llama_cparamsE3$_1NS_9allocatorIS9_EEFbiEE18destroy_deallocateEv', symObjAddr: 0x4EE68, symBinAddr: 0xBA6E8, symSize: 0x4 }
  - { offset: 0x5915D0, size: 0x8, addend: 0x0, symName: '__ZNSt3__110__function6__funcIZNK11llama_model13create_memoryERK19llama_memory_paramsRK13llama_cparamsE3$_1NS_9allocatorIS9_EEFbiEEclEOi', symObjAddr: 0x4EE6C, symBinAddr: 0xBA6EC, symSize: 0x8 }
  - { offset: 0x5915FF, size: 0x8, addend: 0x0, symName: '__ZNKSt3__110__function6__funcIZNK11llama_model13create_memoryERK19llama_memory_paramsRK13llama_cparamsE3$_1NS_9allocatorIS9_EEFbiEE6targetERKSt9type_info', symObjAddr: 0x4EE74, symBinAddr: 0xBA6F4, symSize: 0x64 }
  - { offset: 0x5916B3, size: 0x8, addend: 0x0, symName: '__ZNKSt3__110__function6__funcIZNK11llama_model13create_memoryERK19llama_memory_paramsRK13llama_cparamsE3$_1NS_9allocatorIS9_EEFbiEE11target_typeEv', symObjAddr: 0x4EED8, symBinAddr: 0xBA758, symSize: 0xC }
  - { offset: 0x5916D6, size: 0x8, addend: 0x0, symName: '__ZNSt3__110__function6__funcIZNK11llama_model13create_memoryERK19llama_memory_paramsRK13llama_cparamsE3$_2NS_9allocatorIS9_EEFbiEED1Ev', symObjAddr: 0x4EEE4, symBinAddr: 0xBA764, symSize: 0x4 }
  - { offset: 0x591702, size: 0x8, addend: 0x0, symName: '__ZNSt3__110__function6__funcIZNK11llama_model13create_memoryERK19llama_memory_paramsRK13llama_cparamsE3$_2NS_9allocatorIS9_EEFbiEED0Ev', symObjAddr: 0x4EEE8, symBinAddr: 0xBA768, symSize: 0x4 }
  - { offset: 0x5917B9, size: 0x8, addend: 0x0, symName: '__ZNKSt3__110__function6__funcIZNK11llama_model13create_memoryERK19llama_memory_paramsRK13llama_cparamsE3$_2NS_9allocatorIS9_EEFbiEE7__cloneEv', symObjAddr: 0x4EEEC, symBinAddr: 0xBA76C, symSize: 0x34 }
  - { offset: 0x59190B, size: 0x8, addend: 0x0, symName: '__ZNKSt3__110__function6__funcIZNK11llama_model13create_memoryERK19llama_memory_paramsRK13llama_cparamsE3$_2NS_9allocatorIS9_EEFbiEE7__cloneEPNS0_6__baseISC_EE', symObjAddr: 0x4EF20, symBinAddr: 0xBA7A0, symSize: 0x14 }
  - { offset: 0x591978, size: 0x8, addend: 0x0, symName: '__ZNSt3__110__function6__funcIZNK11llama_model13create_memoryERK19llama_memory_paramsRK13llama_cparamsE3$_2NS_9allocatorIS9_EEFbiEE7destroyEv', symObjAddr: 0x4EF34, symBinAddr: 0xBA7B4, symSize: 0x4 }
  - { offset: 0x5919CD, size: 0x8, addend: 0x0, symName: '__ZNSt3__110__function6__funcIZNK11llama_model13create_memoryERK19llama_memory_paramsRK13llama_cparamsE3$_2NS_9allocatorIS9_EEFbiEE18destroy_deallocateEv', symObjAddr: 0x4EF38, symBinAddr: 0xBA7B8, symSize: 0x4 }
  - { offset: 0x591A02, size: 0x8, addend: 0x0, symName: '__ZNSt3__110__function6__funcIZNK11llama_model13create_memoryERK19llama_memory_paramsRK13llama_cparamsE3$_2NS_9allocatorIS9_EEFbiEE18destroy_deallocateEv', symObjAddr: 0x4EF38, symBinAddr: 0xBA7B8, symSize: 0x4 }
  - { offset: 0x591A25, size: 0x8, addend: 0x0, symName: '__ZNSt3__110__function6__funcIZNK11llama_model13create_memoryERK19llama_memory_paramsRK13llama_cparamsE3$_2NS_9allocatorIS9_EEFbiEE18destroy_deallocateEv', symObjAddr: 0x4EF38, symBinAddr: 0xBA7B8, symSize: 0x4 }
  - { offset: 0x591A58, size: 0x8, addend: 0x0, symName: '__ZNSt3__110__function6__funcIZNK11llama_model13create_memoryERK19llama_memory_paramsRK13llama_cparamsE3$_2NS_9allocatorIS9_EEFbiEE18destroy_deallocateEv', symObjAddr: 0x4EF38, symBinAddr: 0xBA7B8, symSize: 0x4 }
  - { offset: 0x591AFB, size: 0x8, addend: 0x0, symName: '__ZNSt3__110__function6__funcIZNK11llama_model13create_memoryERK19llama_memory_paramsRK13llama_cparamsE3$_2NS_9allocatorIS9_EEFbiEEclEOi', symObjAddr: 0x4EF3C, symBinAddr: 0xBA7BC, symSize: 0x54 }
  - { offset: 0x591B7E, size: 0x8, addend: 0x0, symName: '__ZNKSt3__110__function6__funcIZNK11llama_model13create_memoryERK19llama_memory_paramsRK13llama_cparamsE3$_2NS_9allocatorIS9_EEFbiEE6targetERKSt9type_info', symObjAddr: 0x4EF90, symBinAddr: 0xBA810, symSize: 0x64 }
  - { offset: 0x591C32, size: 0x8, addend: 0x0, symName: '__ZNKSt3__110__function6__funcIZNK11llama_model13create_memoryERK19llama_memory_paramsRK13llama_cparamsE3$_2NS_9allocatorIS9_EEFbiEE11target_typeEv', symObjAddr: 0x4EFF4, symBinAddr: 0xBA874, symSize: 0xC }
  - { offset: 0x591C55, size: 0x8, addend: 0x0, symName: '__ZNSt3__110__function6__funcIZNK11llama_model13create_memoryERK19llama_memory_paramsRK13llama_cparamsE3$_3NS_9allocatorIS9_EEFbiEED1Ev', symObjAddr: 0x4F000, symBinAddr: 0xBA880, symSize: 0x4 }
  - { offset: 0x591C81, size: 0x8, addend: 0x0, symName: '__ZNSt3__110__function6__funcIZNK11llama_model13create_memoryERK19llama_memory_paramsRK13llama_cparamsE3$_3NS_9allocatorIS9_EEFbiEED0Ev', symObjAddr: 0x4F004, symBinAddr: 0xBA884, symSize: 0x4 }
  - { offset: 0x591D38, size: 0x8, addend: 0x0, symName: '__ZNKSt3__110__function6__funcIZNK11llama_model13create_memoryERK19llama_memory_paramsRK13llama_cparamsE3$_3NS_9allocatorIS9_EEFbiEE7__cloneEv', symObjAddr: 0x4F008, symBinAddr: 0xBA888, symSize: 0x34 }
  - { offset: 0x591E8A, size: 0x8, addend: 0x0, symName: '__ZNKSt3__110__function6__funcIZNK11llama_model13create_memoryERK19llama_memory_paramsRK13llama_cparamsE3$_3NS_9allocatorIS9_EEFbiEE7__cloneEPNS0_6__baseISC_EE', symObjAddr: 0x4F03C, symBinAddr: 0xBA8BC, symSize: 0x14 }
  - { offset: 0x591EF7, size: 0x8, addend: 0x0, symName: '__ZNSt3__110__function6__funcIZNK11llama_model13create_memoryERK19llama_memory_paramsRK13llama_cparamsE3$_3NS_9allocatorIS9_EEFbiEE7destroyEv', symObjAddr: 0x4F050, symBinAddr: 0xBA8D0, symSize: 0x4 }
  - { offset: 0x591F4C, size: 0x8, addend: 0x0, symName: '__ZNSt3__110__function6__funcIZNK11llama_model13create_memoryERK19llama_memory_paramsRK13llama_cparamsE3$_3NS_9allocatorIS9_EEFbiEE18destroy_deallocateEv', symObjAddr: 0x4F054, symBinAddr: 0xBA8D4, symSize: 0x4 }
  - { offset: 0x591F81, size: 0x8, addend: 0x0, symName: '__ZNSt3__110__function6__funcIZNK11llama_model13create_memoryERK19llama_memory_paramsRK13llama_cparamsE3$_3NS_9allocatorIS9_EEFbiEE18destroy_deallocateEv', symObjAddr: 0x4F054, symBinAddr: 0xBA8D4, symSize: 0x4 }
  - { offset: 0x591FA4, size: 0x8, addend: 0x0, symName: '__ZNSt3__110__function6__funcIZNK11llama_model13create_memoryERK19llama_memory_paramsRK13llama_cparamsE3$_3NS_9allocatorIS9_EEFbiEE18destroy_deallocateEv', symObjAddr: 0x4F054, symBinAddr: 0xBA8D4, symSize: 0x4 }
  - { offset: 0x591FD7, size: 0x8, addend: 0x0, symName: '__ZNSt3__110__function6__funcIZNK11llama_model13create_memoryERK19llama_memory_paramsRK13llama_cparamsE3$_3NS_9allocatorIS9_EEFbiEE18destroy_deallocateEv', symObjAddr: 0x4F054, symBinAddr: 0xBA8D4, symSize: 0x4 }
  - { offset: 0x59207A, size: 0x8, addend: 0x0, symName: '__ZNSt3__110__function6__funcIZNK11llama_model13create_memoryERK19llama_memory_paramsRK13llama_cparamsE3$_3NS_9allocatorIS9_EEFbiEEclEOi', symObjAddr: 0x4F058, symBinAddr: 0xBA8D8, symSize: 0x44 }
  - { offset: 0x592123, size: 0x8, addend: 0x0, symName: '__ZNKSt3__110__function6__funcIZNK11llama_model13create_memoryERK19llama_memory_paramsRK13llama_cparamsE3$_3NS_9allocatorIS9_EEFbiEE6targetERKSt9type_info', symObjAddr: 0x4F09C, symBinAddr: 0xBA91C, symSize: 0x64 }
  - { offset: 0x5921D7, size: 0x8, addend: 0x0, symName: '__ZNKSt3__110__function6__funcIZNK11llama_model13create_memoryERK19llama_memory_paramsRK13llama_cparamsE3$_3NS_9allocatorIS9_EEFbiEE11target_typeEv', symObjAddr: 0x4F100, symBinAddr: 0xBA980, symSize: 0xC }
  - { offset: 0x5921FA, size: 0x8, addend: 0x0, symName: '__ZNSt3__110__function6__funcIZNK11llama_model13create_memoryERK19llama_memory_paramsRK13llama_cparamsE3$_4NS_9allocatorIS9_EEFiiEED1Ev', symObjAddr: 0x4F10C, symBinAddr: 0xBA98C, symSize: 0x4 }
  - { offset: 0x592226, size: 0x8, addend: 0x0, symName: '__ZNSt3__110__function6__funcIZNK11llama_model13create_memoryERK19llama_memory_paramsRK13llama_cparamsE3$_4NS_9allocatorIS9_EEFiiEED0Ev', symObjAddr: 0x4F110, symBinAddr: 0xBA990, symSize: 0x4 }
  - { offset: 0x5922DD, size: 0x8, addend: 0x0, symName: '__ZNKSt3__110__function6__funcIZNK11llama_model13create_memoryERK19llama_memory_paramsRK13llama_cparamsE3$_4NS_9allocatorIS9_EEFiiEE7__cloneEv', symObjAddr: 0x4F114, symBinAddr: 0xBA994, symSize: 0x34 }
  - { offset: 0x59242F, size: 0x8, addend: 0x0, symName: '__ZNKSt3__110__function6__funcIZNK11llama_model13create_memoryERK19llama_memory_paramsRK13llama_cparamsE3$_4NS_9allocatorIS9_EEFiiEE7__cloneEPNS0_6__baseISC_EE', symObjAddr: 0x4F148, symBinAddr: 0xBA9C8, symSize: 0x14 }
  - { offset: 0x59249C, size: 0x8, addend: 0x0, symName: '__ZNSt3__110__function6__funcIZNK11llama_model13create_memoryERK19llama_memory_paramsRK13llama_cparamsE3$_4NS_9allocatorIS9_EEFiiEE7destroyEv', symObjAddr: 0x4F15C, symBinAddr: 0xBA9DC, symSize: 0x4 }
  - { offset: 0x5924F1, size: 0x8, addend: 0x0, symName: '__ZNSt3__110__function6__funcIZNK11llama_model13create_memoryERK19llama_memory_paramsRK13llama_cparamsE3$_4NS_9allocatorIS9_EEFiiEE18destroy_deallocateEv', symObjAddr: 0x4F160, symBinAddr: 0xBA9E0, symSize: 0x4 }
  - { offset: 0x592526, size: 0x8, addend: 0x0, symName: '__ZNSt3__110__function6__funcIZNK11llama_model13create_memoryERK19llama_memory_paramsRK13llama_cparamsE3$_4NS_9allocatorIS9_EEFiiEE18destroy_deallocateEv', symObjAddr: 0x4F160, symBinAddr: 0xBA9E0, symSize: 0x4 }
  - { offset: 0x592549, size: 0x8, addend: 0x0, symName: '__ZNSt3__110__function6__funcIZNK11llama_model13create_memoryERK19llama_memory_paramsRK13llama_cparamsE3$_4NS_9allocatorIS9_EEFiiEE18destroy_deallocateEv', symObjAddr: 0x4F160, symBinAddr: 0xBA9E0, symSize: 0x4 }
  - { offset: 0x59257C, size: 0x8, addend: 0x0, symName: '__ZNSt3__110__function6__funcIZNK11llama_model13create_memoryERK19llama_memory_paramsRK13llama_cparamsE3$_4NS_9allocatorIS9_EEFiiEE18destroy_deallocateEv', symObjAddr: 0x4F160, symBinAddr: 0xBA9E0, symSize: 0x4 }
  - { offset: 0x59261F, size: 0x8, addend: 0x0, symName: '__ZNSt3__110__function6__funcIZNK11llama_model13create_memoryERK19llama_memory_paramsRK13llama_cparamsE3$_4NS_9allocatorIS9_EEFiiEEclEOi', symObjAddr: 0x4F164, symBinAddr: 0xBA9E4, symSize: 0x54 }
  - { offset: 0x5926A2, size: 0x8, addend: 0x0, symName: '__ZNKSt3__110__function6__funcIZNK11llama_model13create_memoryERK19llama_memory_paramsRK13llama_cparamsE3$_4NS_9allocatorIS9_EEFiiEE6targetERKSt9type_info', symObjAddr: 0x4F1B8, symBinAddr: 0xBAA38, symSize: 0x64 }
  - { offset: 0x592756, size: 0x8, addend: 0x0, symName: '__ZNKSt3__110__function6__funcIZNK11llama_model13create_memoryERK19llama_memory_paramsRK13llama_cparamsE3$_4NS_9allocatorIS9_EEFiiEE11target_typeEv', symObjAddr: 0x4F21C, symBinAddr: 0xBAA9C, symSize: 0xC }
  - { offset: 0x592808, size: 0x8, addend: 0x0, symName: __GLOBAL__sub_I_llama_model.cpp, symObjAddr: 0x59580, symBinAddr: 0xBAC48, symSize: 0x98 }
  - { offset: 0x594A53, size: 0x8, addend: 0x0, symName: __ZL25llama_model_quantize_implRKNSt3__112basic_stringIcNS_11char_traitsIcEENS_9allocatorIcEEEES7_PK27llama_model_quantize_params, symObjAddr: 0x254, symBinAddr: 0xBAF34, symSize: 0x6054 }
  - { offset: 0x5CC6A9, size: 0x8, addend: 0x0, symName: '__ZNSt3__111__introsortINS_17_ClassicAlgPolicyERZL25llama_model_quantize_implRKNS_12basic_stringIcNS_11char_traitsIcEENS_9allocatorIcEEEES9_PK27llama_model_quantize_paramsE3$_0PPKN18llama_model_loader19llama_tensor_weightELb0EEEvT1_SK_T0_NS_15iterator_traitsISK_E15difference_typeEb', symObjAddr: 0x12434, symBinAddr: 0xC1788, symSize: 0xEA8 }
  - { offset: 0x5CE41C, size: 0x8, addend: 0x0, symName: '__ZNSt3__127__insertion_sort_incompleteB8ne200100INS_17_ClassicAlgPolicyERZL25llama_model_quantize_implRKNS_12basic_stringIcNS_11char_traitsIcEENS_9allocatorIcEEEES9_PK27llama_model_quantize_paramsE3$_0PPKN18llama_model_loader19llama_tensor_weightEEEbT1_SK_T0_', symObjAddr: 0x13450, symBinAddr: 0xC27A4, symSize: 0x41C }
  - { offset: 0x5EA781, size: 0x8, addend: 0x0, symName: '__ZNSt3__17__sort4B8ne200100INS_17_ClassicAlgPolicyERZL25llama_model_quantize_implRKNS_12basic_stringIcNS_11char_traitsIcEENS_9allocatorIcEEEES9_PK27llama_model_quantize_paramsE3$_0PPKN18llama_model_loader19llama_tensor_weightELi0EEEvT1_SK_SK_SK_T0_', symObjAddr: 0x132DC, symBinAddr: 0xC2630, symSize: 0x174 }
  - { offset: 0x5EB254, size: 0x8, addend: 0x0, symName: '__ZNSt3__114__thread_proxyB8ne200100INS_5tupleIJNS_10unique_ptrINS_15__thread_structENS_14default_deleteIS3_EEEEZL28llama_tensor_dequantize_implP11ggml_tensorRNS_6vectorI7no_initIfENS_9allocatorISB_EEEERNS9_INS_6threadENSC_ISG_EEEEmiE3$_09ggml_typePhPfmEEEEEPvSP_', symObjAddr: 0x17A38, symBinAddr: 0xC30F0, symSize: 0xB4 }
  - { offset: 0x5EB63F, size: 0x8, addend: 0x0, symName: '__ZNSt3__114__thread_proxyB8ne200100INS_5tupleIJNS_10unique_ptrINS_15__thread_structENS_14default_deleteIS3_EEEEZL26llama_tensor_quantize_impl9ggml_typePKfPvxxxS9_RNS_6vectorINS_6threadENS_9allocatorISC_EEEEiE3$_0EEEEESA_SA_', symObjAddr: 0x17C98, symBinAddr: 0xC3314, symSize: 0x78 }
  - { offset: 0x5F04A7, size: 0x8, addend: 0x0, symName: _llama_model_quantize_default_params, symObjAddr: 0x0, symBinAddr: 0xBACE0, symSize: 0x30 }
  - { offset: 0x5F074F, size: 0x8, addend: 0x0, symName: _llama_model_quantize, symObjAddr: 0x30, symBinAddr: 0xBAD10, symSize: 0x224 }
  - { offset: 0x5F90A9, size: 0x8, addend: 0x0, symName: __ZNSt3__16vectorIiNS_9allocatorIiEEE18__assign_with_sizeB8ne200100IPiS5_EEvT_T0_l, symObjAddr: 0x6B48, symBinAddr: 0xC162C, symSize: 0x148 }
  - { offset: 0x5FA497, size: 0x8, addend: 0x0, symName: '__ZZL25llama_model_quantize_implRKNSt3__112basic_stringIcNS_11char_traitsIcEENS_9allocatorIcEEEES7_PK27llama_model_quantize_paramsENK3$_2clEi', symObjAddr: 0x63A4, symBinAddr: 0xC0F88, symSize: 0x394 }
  - { offset: 0x5FB10C, size: 0x8, addend: 0x0, symName: '__ZZL25llama_model_quantize_implRKNSt3__112basic_stringIcNS_11char_traitsIcEENS_9allocatorIcEEEES7_PK27llama_model_quantize_paramsENK3$_1clEv', symObjAddr: 0x6738, symBinAddr: 0xC131C, symSize: 0x1F0 }
  - { offset: 0x5FB852, size: 0x8, addend: 0x0, symName: __ZNKSt3__112__hash_tableINS_17__hash_value_typeINS_12basic_stringIcNS_11char_traitsIcEENS_9allocatorIcEEEENS_6vectorIfNS5_IfEEEEEENS_22__unordered_map_hasherIS7_SB_NS_4hashIS7_EENS_8equal_toIS7_EELb1EEENS_21__unordered_map_equalIS7_SB_SG_SE_Lb1EEENS5_ISB_EEE4findIS7_EENS_21__hash_const_iteratorIPNS_11__hash_nodeISB_PvEEEERKT_, symObjAddr: 0x17424, symBinAddr: 0xC2F28, symSize: 0x1B4 }
  - { offset: 0x5FBE58, size: 0x8, addend: 0x0, symName: '__ZZL21llama_tensor_get_typeR19quantize_state_impl9ggml_typePK11ggml_tensor11llama_ftypeENK3$_1clEiiPKc', symObjAddr: 0x172C0, symBinAddr: 0xC2DC4, symSize: 0x164 }
  - { offset: 0x5FC04E, size: 0x8, addend: 0x0, symName: __ZNSt3__16__treeINS_12__value_typeIiNS_12basic_stringIcNS_11char_traitsIcEENS_9allocatorIcEEEEEENS_19__map_value_compareIiS8_NS_4lessIiEELb1EEENS5_IS8_EEE7destroyEPNS_11__tree_nodeIS8_PvEE, symObjAddr: 0x17D58, symBinAddr: 0xC33D4, symSize: 0x60 }
  - { offset: 0x5FC290, size: 0x8, addend: 0x0, symName: __ZN18llama_model_loaderD2Ev, symObjAddr: 0x17DB8, symBinAddr: 0xC3434, symSize: 0x1AC }
  - { offset: 0x5FCFB8, size: 0x8, addend: 0x0, symName: __ZNSt3__16vectorINS_6threadENS_9allocatorIS1_EEE20__throw_length_errorB8ne200100Ev, symObjAddr: 0x138B0, symBinAddr: 0xC2BC0, symSize: 0x14 }
  - { offset: 0x5FCFD0, size: 0x8, addend: 0x0, symName: __ZNSt3__114__split_bufferINS_6threadERNS_9allocatorIS1_EEED1Ev, symObjAddr: 0x138C4, symBinAddr: 0xC2BD4, symSize: 0x50 }
  - { offset: 0x5FD00B, size: 0x8, addend: 0x0, symName: __ZNSt3__16vectorIPKN18llama_model_loader19llama_tensor_weightENS_9allocatorIS4_EEE20__throw_length_errorB8ne200100Ev, symObjAddr: 0x6D40, symBinAddr: 0xC1774, symSize: 0x14 }
  - { offset: 0x5FD043, size: 0x8, addend: 0x0, symName: __ZNSt3__16vectorI7no_initIfENS_9allocatorIS2_EEE20__throw_length_errorB8ne200100Ev, symObjAddr: 0x17A24, symBinAddr: 0xC30DC, symSize: 0x14 }
  - { offset: 0x5FD05B, size: 0x8, addend: 0x0, symName: '__ZNSt3__114__thread_proxyB8ne200100INS_5tupleIJNS_10unique_ptrINS_15__thread_structENS_14default_deleteIS3_EEEEZL28llama_tensor_dequantize_implP11ggml_tensorRNS_6vectorI7no_initIfENS_9allocatorISB_EEEERNS9_INS_6threadENSC_ISG_EEEEmiE3$_09ggml_typePhPfmEEEEEPvSP_', symObjAddr: 0x17A38, symBinAddr: 0xC30F0, symSize: 0xB4 }
  - { offset: 0x5FD066, size: 0x8, addend: 0x0, symName: __ZNSt3__128__exception_guard_exceptionsINS_6vectorINS_10unique_ptrI12gguf_context20gguf_context_deleterEENS_9allocatorIS5_EEE16__destroy_vectorEED1B8ne200100Ev, symObjAddr: 0x13914, symBinAddr: 0xC2C24, symSize: 0x80 }
  - { offset: 0x5FD264, size: 0x8, addend: 0x0, symName: '__ZNSt3__110unique_ptrINS_5tupleIJNS0_INS_15__thread_structENS_14default_deleteIS2_EEEEZL28llama_tensor_dequantize_implP11ggml_tensorRNS_6vectorI7no_initIfENS_9allocatorISA_EEEERNS8_INS_6threadENSB_ISF_EEEEmiE3$_09ggml_typePhPfmEEENS3_ISN_EEED1B8ne200100Ev', symObjAddr: 0x17AEC, symBinAddr: 0xC31A4, symSize: 0x48 }
  - { offset: 0x5FD463, size: 0x8, addend: 0x0, symName: __ZNSt3__114__split_bufferINS_6threadERNS_9allocatorIS1_EEED1Ev, symObjAddr: 0x138C4, symBinAddr: 0xC2BD4, symSize: 0x50 }
  - { offset: 0x5FD5B8, size: 0x8, addend: 0x0, symName: __ZNSt3__16vectorINS_10unique_ptrI12gguf_context20gguf_context_deleterEENS_9allocatorIS4_EEED1B8ne200100Ev, symObjAddr: 0x69DC, symBinAddr: 0xC1564, symSize: 0x70 }
  - { offset: 0x5FD7A6, size: 0x8, addend: 0x0, symName: __ZNSt3__114basic_ofstreamIcNS_11char_traitsIcEEED1Ev, symObjAddr: 0x6984, symBinAddr: 0xC150C, symSize: 0x58 }
  - { offset: 0x5FD897, size: 0x8, addend: 0x0, symName: '__ZNSt3__110unique_ptrINS_5tupleIJNS0_INS_15__thread_structENS_14default_deleteIS2_EEEEZL26llama_tensor_quantize_impl9ggml_typePKfPvxxxS8_RNS_6vectorINS_6threadENS_9allocatorISB_EEEEiE3$_0EEENS3_ISH_EEED1B8ne200100Ev', symObjAddr: 0x17D10, symBinAddr: 0xC338C, symSize: 0x48 }
  - { offset: 0x5FDA3F, size: 0x8, addend: 0x0, symName: __ZNSt3__16vectorINS_6threadENS_9allocatorIS1_EEED1B8ne200100Ev, symObjAddr: 0x6A4C, symBinAddr: 0xC15D4, symSize: 0x58 }
  - { offset: 0x5FE0C6, size: 0x8, addend: 0x0, symName: __ZNSt3__114basic_ofstreamIcNS_11char_traitsIcEEEC1ERKNS_12basic_stringIcS2_NS_9allocatorIcEEEEj, symObjAddr: 0x13994, symBinAddr: 0xC2CA4, symSize: 0x120 }
  - { offset: 0x61A639, size: 0x8, addend: 0x0, symName: '__ZZL26llama_tensor_quantize_impl9ggml_typePKfPvxxxS1_RNSt3__16vectorINS3_6threadENS3_9allocatorIS5_EEEEiENK3$_0clEv', symObjAddr: 0x17B70, symBinAddr: 0xC31EC, symSize: 0x128 }
  - { offset: 0x61D38D, size: 0x8, addend: 0x0, symName: __MergedGlobals, symObjAddr: 0x1DC08, symBinAddr: 0x2D43F0, symSize: 0x0 }
  - { offset: 0x61D59C, size: 0x8, addend: 0x0, symName: __ZL22llama_sampler_greedy_i, symObjAddr: 0x1DAC8, symBinAddr: 0x2D42B0, symSize: 0x0 }
  - { offset: 0x61D5AA, size: 0x8, addend: 0x0, symName: __ZL12get_rng_seedj, symObjAddr: 0xADC, symBinAddr: 0xC40BC, symSize: 0x160 }
  - { offset: 0x61D5D6, size: 0x8, addend: 0x0, symName: __MergedGlobals.177, symObjAddr: 0x1FE800, symBinAddr: 0x360158, symSize: 0x0 }
  - { offset: 0x61D971, size: 0x8, addend: 0x0, symName: __MergedGlobals, symObjAddr: 0x1DC08, symBinAddr: 0x2D43F0, symSize: 0x0 }
  - { offset: 0x61D98E, size: 0x8, addend: 0x0, symName: __MergedGlobals, symObjAddr: 0x1DC08, symBinAddr: 0x2D43F0, symSize: 0x0 }
  - { offset: 0x61D9AC, size: 0x8, addend: 0x0, symName: __MergedGlobals, symObjAddr: 0x1DC08, symBinAddr: 0x2D43F0, symSize: 0x0 }
  - { offset: 0x61D9BD, size: 0x8, addend: 0x0, symName: __ZL43llama_token_data_array_partial_sort_inplaceP22llama_token_data_arrayi, symObjAddr: 0x4928, symBinAddr: 0xC7E7C, symSize: 0x4BC }
  - { offset: 0x61E0B9, size: 0x8, addend: 0x0, symName: __ZL35llama_token_data_array_partial_sortRK22llama_token_data_arrayiRNSt3__16vectorI16llama_token_dataNS2_9allocatorIS4_EEEE, symObjAddr: 0x4DE4, symBinAddr: 0xC8338, symSize: 0x5B8 }
  - { offset: 0x633A2D, size: 0x8, addend: 0x0, symName: '__ZNSt3__111__introsortINS_17_ClassicAlgPolicyERZL35llama_token_data_array_partial_sortRK22llama_token_data_arrayiRNS_6vectorI16llama_token_dataNS_9allocatorIS6_EEEEE3$_0PS6_Lb0EEEvT1_SE_T0_NS_15iterator_traitsISE_E15difference_typeEb', symObjAddr: 0x5460, symBinAddr: 0xC8904, symSize: 0xDA4 }
  - { offset: 0x634E9F, size: 0x8, addend: 0x0, symName: '__ZNSt3__127__insertion_sort_incompleteB8ne200100INS_17_ClassicAlgPolicyERZL35llama_token_data_array_partial_sortRK22llama_token_data_arrayiRNS_6vectorI16llama_token_dataNS_9allocatorIS6_EEEEE3$_0PS6_EEbT1_SE_T0_', symObjAddr: 0x6444, symBinAddr: 0xC98E8, symSize: 0x4B4 }
  - { offset: 0x637002, size: 0x8, addend: 0x0, symName: '__ZNSt3__111__introsortINS_17_ClassicAlgPolicyERZL27llama_sampler_typical_applyP13llama_samplerP22llama_token_data_arrayE3$_0PmLb0EEEvT1_S9_T0_NS_15iterator_traitsIS9_E15difference_typeEb', symObjAddr: 0x843C, symBinAddr: 0xCB8B8, symSize: 0xAD8 }
  - { offset: 0x638C1A, size: 0x8, addend: 0x0, symName: '__ZNSt3__127__insertion_sort_incompleteB8ne200100INS_17_ClassicAlgPolicyERZL27llama_sampler_typical_applyP13llama_samplerP22llama_token_data_arrayE3$_0PmEEbT1_S9_T0_', symObjAddr: 0x90B0, symBinAddr: 0xCC52C, symSize: 0x358 }
  - { offset: 0x643F21, size: 0x8, addend: 0x0, symName: __ZNSt3__113regex_replaceB8ne200100INS_20back_insert_iteratorINS_12basic_stringIcNS_11char_traitsIcEENS_9allocatorIcEEEEEEPKcNS_12regex_traitsIcEEcEET_SD_T0_SE_RKNS_11basic_regexIT2_T1_EEPKSG_NS_15regex_constants15match_flag_typeE, symObjAddr: 0x14980, symBinAddr: 0xCEFE0, symSize: 0x284 }
  - { offset: 0x6469BF, size: 0x8, addend: 0x0, symName: '__ZNSt3__119__partial_sort_implB8ne200100INS_17_ClassicAlgPolicyERZL35llama_token_data_array_partial_sortRK22llama_token_data_arrayiRNS_6vectorI16llama_token_dataNS_9allocatorIS6_EEEEE3$_0PS6_SD_EET1_SE_SE_T2_OT0_', symObjAddr: 0x68F8, symBinAddr: 0xC9D9C, symSize: 0x40C }
  - { offset: 0x6470CE, size: 0x8, addend: 0x0, symName: '__ZNSt3__17__sort5B8ne200100INS_17_ClassicAlgPolicyERZL35llama_token_data_array_partial_sortRK22llama_token_data_arrayiRNS_6vectorI16llama_token_dataNS_9allocatorIS6_EEEEE3$_0PS6_Li0EEEvT1_SE_SE_SE_SE_T0_', symObjAddr: 0x6204, symBinAddr: 0xC96A8, symSize: 0x240 }
  - { offset: 0x648806, size: 0x8, addend: 0x0, symName: '__ZNSt3__17__sort5B8ne200100INS_17_ClassicAlgPolicyERZL27llama_sampler_typical_applyP13llama_samplerP22llama_token_data_arrayE3$_0PmLi0EEEvT1_S9_S9_S9_S9_T0_', symObjAddr: 0x8F14, symBinAddr: 0xCC390, symSize: 0x19C }
  - { offset: 0x648874, size: 0x8, addend: 0x0, symName: '__ZNSt3__17__sort5B8ne200100INS_17_ClassicAlgPolicyERZL27llama_sampler_typical_applyP13llama_samplerP22llama_token_data_arrayE3$_0PmLi0EEEvT1_S9_S9_S9_S9_T0_', symObjAddr: 0x8F14, symBinAddr: 0xCC390, symSize: 0x19C }
  - { offset: 0x64F1DB, size: 0x8, addend: 0x0, symName: __MergedGlobals, symObjAddr: 0x1DC08, symBinAddr: 0x2D43F0, symSize: 0x0 }
  - { offset: 0x64F1F9, size: 0x8, addend: 0x0, symName: __MergedGlobals, symObjAddr: 0x1DC08, symBinAddr: 0x2D43F0, symSize: 0x0 }
  - { offset: 0x64F217, size: 0x8, addend: 0x0, symName: __MergedGlobals, symObjAddr: 0x1DC08, symBinAddr: 0x2D43F0, symSize: 0x0 }
  - { offset: 0x64F235, size: 0x8, addend: 0x0, symName: __MergedGlobals, symObjAddr: 0x1DC08, symBinAddr: 0x2D43F0, symSize: 0x0 }
  - { offset: 0x64F253, size: 0x8, addend: 0x0, symName: __MergedGlobals, symObjAddr: 0x1DC08, symBinAddr: 0x2D43F0, symSize: 0x0 }
  - { offset: 0x64F271, size: 0x8, addend: 0x0, symName: __MergedGlobals, symObjAddr: 0x1DC08, symBinAddr: 0x2D43F0, symSize: 0x0 }
  - { offset: 0x64F28F, size: 0x8, addend: 0x0, symName: __MergedGlobals, symObjAddr: 0x1DC08, symBinAddr: 0x2D43F0, symSize: 0x0 }
  - { offset: 0x64F2AD, size: 0x8, addend: 0x0, symName: __MergedGlobals, symObjAddr: 0x1DC08, symBinAddr: 0x2D43F0, symSize: 0x0 }
  - { offset: 0x64F2BE, size: 0x8, addend: 0x0, symName: __ZL31llama_sampler_init_grammar_implPK11llama_vocabPKcS3_bPS3_mPKimS4_m, symObjAddr: 0x12CC, symBinAddr: 0xC48AC, symSize: 0x600 }
  - { offset: 0x64F2DF, size: 0x8, addend: 0x0, symName: __MergedGlobals.177, symObjAddr: 0x1FE800, symBinAddr: 0x360158, symSize: 0x0 }
  - { offset: 0x650C60, size: 0x8, addend: 0x0, symName: __ZL23llama_sampler_grammar_i, symObjAddr: 0x1DBB8, symBinAddr: 0x2D43A0, symSize: 0x0 }
  - { offset: 0x650C7B, size: 0x8, addend: 0x0, symName: __MergedGlobals, symObjAddr: 0x1DC08, symBinAddr: 0x2D43F0, symSize: 0x0 }
  - { offset: 0x650C9E, size: 0x8, addend: 0x0, symName: __MergedGlobals, symObjAddr: 0x1DC08, symBinAddr: 0x2D43F0, symSize: 0x0 }
  - { offset: 0x650CBC, size: 0x8, addend: 0x0, symName: __MergedGlobals, symObjAddr: 0x1DC08, symBinAddr: 0x2D43F0, symSize: 0x0 }
  - { offset: 0x650CDA, size: 0x8, addend: 0x0, symName: __ZL26llama_sampler_adaptive_p_i, symObjAddr: 0x1DB18, symBinAddr: 0x2D4300, symSize: 0x0 }
  - { offset: 0x650D30, size: 0x8, addend: 0x0, symName: __MergedGlobals, symObjAddr: 0x1DC08, symBinAddr: 0x2D43F0, symSize: 0x0 }
  - { offset: 0x650D4E, size: 0x8, addend: 0x0, symName: __ZL22llama_sampler_infill_i, symObjAddr: 0x1DB68, symBinAddr: 0x2D4350, symSize: 0x0 }
  - { offset: 0x65225B, size: 0x8, addend: 0x0, symName: __ZL17llama_sample_distP22llama_token_data_arrayRNSt3__123mersenne_twister_engineIjLm32ELm624ELm397ELm31ELj2567483615ELm11ELj4294967295ELm7ELj2636928640ELm15ELj4022730752ELm18ELj1812433253EEE, symObjAddr: 0xAF00, symBinAddr: 0xCE37C, symSize: 0x1D0 }
  - { offset: 0x653EB9, size: 0x8, addend: 0x0, symName: _llama_sampler_init, symObjAddr: 0x0, symBinAddr: 0xC35E0, symSize: 0x2C }
  - { offset: 0x653EE0, size: 0x8, addend: 0x0, symName: _llama_sampler_name, symObjAddr: 0x2C, symBinAddr: 0xC360C, symSize: 0x1C }
  - { offset: 0x653F18, size: 0x8, addend: 0x0, symName: _llama_sampler_accept, symObjAddr: 0x48, symBinAddr: 0xC3628, symSize: 0x18 }
  - { offset: 0x653F47, size: 0x8, addend: 0x0, symName: _llama_sampler_apply, symObjAddr: 0x60, symBinAddr: 0xC3640, symSize: 0x48 }
  - { offset: 0x653F7C, size: 0x8, addend: 0x0, symName: _llama_sampler_reset, symObjAddr: 0xA8, symBinAddr: 0xC3688, symSize: 0x18 }
  - { offset: 0x653FA9, size: 0x8, addend: 0x0, symName: _llama_sampler_reset, symObjAddr: 0xA8, symBinAddr: 0xC3688, symSize: 0x18 }
  - { offset: 0x653FF8, size: 0x8, addend: 0x0, symName: _llama_sampler_clone, symObjAddr: 0xC0, symBinAddr: 0xC36A0, symSize: 0x60 }
  - { offset: 0x654048, size: 0x8, addend: 0x0, symName: _llama_sampler_free, symObjAddr: 0x120, symBinAddr: 0xC3700, symSize: 0x38 }
  - { offset: 0x65405B, size: 0x8, addend: 0x0, symName: _llama_sampler_free, symObjAddr: 0x120, symBinAddr: 0xC3700, symSize: 0x38 }
  - { offset: 0x6540BF, size: 0x8, addend: 0x0, symName: _llama_sampler_chain_init, symObjAddr: 0x158, symBinAddr: 0xC3738, symSize: 0x58 }
  - { offset: 0x65435C, size: 0x8, addend: 0x0, symName: _llama_sampler_sample, symObjAddr: 0x1B0, symBinAddr: 0xC3790, symSize: 0x63C }
  - { offset: 0x654C3F, size: 0x8, addend: 0x0, symName: __ZNSt3__16vectorI16llama_token_dataNS_9allocatorIS1_EEE8__appendEm, symObjAddr: 0x1C284, symBinAddr: 0xD3CDC, symSize: 0x180 }
  - { offset: 0x654FFE, size: 0x8, addend: 0x0, symName: __ZNSt3__16vectorIN19llama_sampler_chain4infoENS_9allocatorIS2_EEE20__throw_length_errorB8ne200100Ev, symObjAddr: 0x1C404, symBinAddr: 0xD3E5C, symSize: 0x14 }
  - { offset: 0x6553A2, size: 0x8, addend: 0x0, symName: _llama_sampler_chain_add, symObjAddr: 0x7EC, symBinAddr: 0xC3DCC, symSize: 0xF4 }
  - { offset: 0x6557A9, size: 0x8, addend: 0x0, symName: _llama_sampler_chain_get, symObjAddr: 0x8E0, symBinAddr: 0xC3EC0, symSize: 0x50 }
  - { offset: 0x6557B4, size: 0x8, addend: 0x0, symName: __ZNSt3__16vectorIN19llama_sampler_chain4infoENS_9allocatorIS2_EEE20__throw_length_errorB8ne200100Ev, symObjAddr: 0x1C404, symBinAddr: 0xD3E5C, symSize: 0x14 }
  - { offset: 0x6557D7, size: 0x8, addend: 0x0, symName: _llama_sampler_chain_get, symObjAddr: 0x8E0, symBinAddr: 0xC3EC0, symSize: 0x50 }
  - { offset: 0x655955, size: 0x8, addend: 0x0, symName: _llama_sampler_chain_remove, symObjAddr: 0x930, symBinAddr: 0xC3F10, symSize: 0x88 }
  - { offset: 0x655B81, size: 0x8, addend: 0x0, symName: _llama_sampler_chain_n, symObjAddr: 0x9B8, symBinAddr: 0xC3F98, symSize: 0x14 }
  - { offset: 0x655C08, size: 0x8, addend: 0x0, symName: _llama_sampler_init_greedy, symObjAddr: 0x9CC, symBinAddr: 0xC3FAC, symSize: 0x58 }
  - { offset: 0x655C77, size: 0x8, addend: 0x0, symName: __ZN21llama_sampler_backendC2EPKc, symObjAddr: 0x39A0, symBinAddr: 0xC6EF4, symSize: 0x138 }
  - { offset: 0x6562C7, size: 0x8, addend: 0x0, symName: _llama_sampler_init_dist, symObjAddr: 0xA24, symBinAddr: 0xC4004, symSize: 0xB8 }
  - { offset: 0x6565FD, size: 0x8, addend: 0x0, symName: __ZNSt3__113random_deviceC1B8ne200100Ev, symObjAddr: 0x3AD8, symBinAddr: 0xC702C, symSize: 0x98 }
  - { offset: 0x65695E, size: 0x8, addend: 0x0, symName: __ZN21llama_sampler_backendD1Ev, symObjAddr: 0xC3C, symBinAddr: 0xC421C, symSize: 0x58 }
  - { offset: 0x656BA2, size: 0x8, addend: 0x0, symName: _llama_sampler_init_top_k, symObjAddr: 0xC94, symBinAddr: 0xC4274, symSize: 0xA0 }
  - { offset: 0x656C19, size: 0x8, addend: 0x0, symName: _llama_sampler_init_top_p, symObjAddr: 0xD34, symBinAddr: 0xC4314, symSize: 0xA4 }
  - { offset: 0x656CD8, size: 0x8, addend: 0x0, symName: _llama_sampler_init_min_p, symObjAddr: 0xDD8, symBinAddr: 0xC43B8, symSize: 0x9C }
  - { offset: 0x656D58, size: 0x8, addend: 0x0, symName: _llama_sampler_init_typical, symObjAddr: 0xE74, symBinAddr: 0xC4454, symSize: 0x80 }
  - { offset: 0x656DA4, size: 0x8, addend: 0x0, symName: _llama_sampler_init_temp, symObjAddr: 0xEF4, symBinAddr: 0xC44D4, symSize: 0x98 }
  - { offset: 0x656E1B, size: 0x8, addend: 0x0, symName: _llama_sampler_init_temp_ext, symObjAddr: 0xF8C, symBinAddr: 0xC456C, symSize: 0xB4 }
  - { offset: 0x656EAD, size: 0x8, addend: 0x0, symName: _llama_sampler_init_xtc, symObjAddr: 0x1040, symBinAddr: 0xC4620, symSize: 0xE4 }
  - { offset: 0x656FAE, size: 0x8, addend: 0x0, symName: _llama_sampler_init_mirostat, symObjAddr: 0x1124, symBinAddr: 0xC4704, symSize: 0xC8 }
  - { offset: 0x6570C0, size: 0x8, addend: 0x0, symName: _llama_sampler_init_mirostat_v2, symObjAddr: 0x11EC, symBinAddr: 0xC47CC, symSize: 0xAC }
  - { offset: 0x6571C0, size: 0x8, addend: 0x0, symName: _llama_sampler_init_grammar, symObjAddr: 0x1298, symBinAddr: 0xC4878, symSize: 0x34 }
  - { offset: 0x6576B8, size: 0x8, addend: 0x0, symName: _llama_sampler_init_grammar_lazy, symObjAddr: 0x18CC, symBinAddr: 0xC4EAC, symSize: 0x34 }
  - { offset: 0x657788, size: 0x8, addend: 0x0, symName: _llama_sampler_init_grammar_lazy_patterns, symObjAddr: 0x1900, symBinAddr: 0xC4EE0, symSize: 0x34 }
  - { offset: 0x657AFF, size: 0x8, addend: 0x0, symName: _llama_sampler_init_penalties, symObjAddr: 0x1934, symBinAddr: 0xC4F14, symSize: 0x11C }
  - { offset: 0x657E19, size: 0x8, addend: 0x0, symName: _llama_sampler_init_top_n_sigma, symObjAddr: 0x1A50, symBinAddr: 0xC5030, symSize: 0x74 }
  - { offset: 0x659386, size: 0x8, addend: 0x0, symName: _llama_sampler_init_dry, symObjAddr: 0x1AC4, symBinAddr: 0xC50A4, symSize: 0xB6C }
  - { offset: 0x65C56C, size: 0x8, addend: 0x0, symName: __ZNSt3__112__hash_tableINS_17__hash_value_typeIiNS_6vectorIiNS_9allocatorIiEEEEEENS_22__unordered_map_hasherIiS6_NS_4hashIiEENS_8equal_toIiEELb1EEENS_21__unordered_map_equalIiS6_SB_S9_Lb1EEENS3_IS6_EEE27__node_insert_multi_prepareEmRS6_, symObjAddr: 0x18A58, symBinAddr: 0xD05D0, symSize: 0x27C }
  - { offset: 0x65C82B, size: 0x8, addend: 0x0, symName: __ZNSt3__112__hash_tableINS_17__hash_value_typeIiNS_6vectorIiNS_9allocatorIiEEEEEENS_22__unordered_map_hasherIiS6_NS_4hashIiEENS_8equal_toIiEELb1EEENS_21__unordered_map_equalIiS6_SB_S9_Lb1EEENS3_IS6_EEE19__node_insert_multiEPNS_11__hash_nodeIS6_PvEE, symObjAddr: 0x188CC, symBinAddr: 0xD0444, symSize: 0x12C }
  - { offset: 0x65CBE0, size: 0x8, addend: 0x0, symName: __ZNSt3__118unordered_multimapIiNS_6vectorIiNS_9allocatorIiEEEENS_4hashIiEENS_8equal_toIiEENS2_INS_4pairIKiS4_EEEEED1B8ne200100Ev, symObjAddr: 0x2678, symBinAddr: 0xC5C10, symSize: 0x68 }
  - { offset: 0x65CFFB, size: 0x8, addend: 0x0, symName: __ZNSt3__110unique_ptrINS_11__hash_nodeINS_17__hash_value_typeIiNS_6vectorIiNS_9allocatorIiEEEEEEPvEENS_22__hash_node_destructorINS4_IS9_EEEEED1B8ne200100Ev, symObjAddr: 0x189F8, symBinAddr: 0xD0570, symSize: 0x60 }
  - { offset: 0x65D6E0, size: 0x8, addend: 0x0, symName: __Z30llama_sampler_init_dry_testingiffiiRKNSt3__16vectorINS0_IiNS_9allocatorIiEEEENS1_IS3_EEEE, symObjAddr: 0x26E0, symBinAddr: 0xC5C78, symSize: 0x2B4 }
  - { offset: 0x65E1C0, size: 0x8, addend: 0x0, symName: _llama_sampler_init_adaptive_p, symObjAddr: 0x2994, symBinAddr: 0xC5F2C, symSize: 0x108 }
  - { offset: 0x65E579, size: 0x8, addend: 0x0, symName: _llama_sampler_init_logit_bias, symObjAddr: 0x2A9C, symBinAddr: 0xC6034, symSize: 0xF4 }
  - { offset: 0x65EAD4, size: 0x8, addend: 0x0, symName: _llama_sampler_init_infill, symObjAddr: 0x2B90, symBinAddr: 0xC6128, symSize: 0x138 }
  - { offset: 0x65EFC7, size: 0x8, addend: 0x0, symName: _llama_sampler_get_seed, symObjAddr: 0x2CC8, symBinAddr: 0xC6260, symSize: 0xD8 }
  - { offset: 0x65F134, size: 0x8, addend: 0x0, symName: _llama_perf_sampler, symObjAddr: 0x2DA0, symBinAddr: 0xC6338, symSize: 0x7C }
  - { offset: 0x65F1C4, size: 0x8, addend: 0x0, symName: _llama_perf_sampler_print, symObjAddr: 0x2E1C, symBinAddr: 0xC63B4, symSize: 0xA4 }
  - { offset: 0x65F22F, size: 0x8, addend: 0x0, symName: _llama_perf_sampler_print, symObjAddr: 0x2E1C, symBinAddr: 0xC63B4, symSize: 0xA4 }
  - { offset: 0x65F303, size: 0x8, addend: 0x0, symName: _llama_perf_sampler_reset, symObjAddr: 0x2EC0, symBinAddr: 0xC6458, symSize: 0x58 }
  - { offset: 0x65F316, size: 0x8, addend: 0x0, symName: _llama_perf_sampler_reset, symObjAddr: 0x2EC0, symBinAddr: 0xC6458, symSize: 0x58 }
  - { offset: 0x65F350, size: 0x8, addend: 0x0, symName: __ZL24llama_sampler_chain_namePK13llama_sampler, symObjAddr: 0x2F18, symBinAddr: 0xC64B0, symSize: 0xC }
  - { offset: 0x65F363, size: 0x8, addend: 0x0, symName: __ZL24llama_sampler_chain_namePK13llama_sampler, symObjAddr: 0x2F18, symBinAddr: 0xC64B0, symSize: 0xC }
  - { offset: 0x65F3BE, size: 0x8, addend: 0x0, symName: __ZL26llama_sampler_chain_acceptP13llama_sampleri, symObjAddr: 0x2F24, symBinAddr: 0xC64BC, symSize: 0xA0 }
  - { offset: 0x65F4DE, size: 0x8, addend: 0x0, symName: __ZL25llama_sampler_chain_applyP13llama_samplerP22llama_token_data_array, symObjAddr: 0x2FC4, symBinAddr: 0xC655C, symSize: 0xB0 }
  - { offset: 0x65F61A, size: 0x8, addend: 0x0, symName: __ZL25llama_sampler_chain_resetP13llama_sampler, symObjAddr: 0x3074, symBinAddr: 0xC660C, symSize: 0x4C }
  - { offset: 0x65F76E, size: 0x8, addend: 0x0, symName: __ZL25llama_sampler_chain_clonePK13llama_sampler, symObjAddr: 0x30C0, symBinAddr: 0xC6658, symSize: 0xE0 }
  - { offset: 0x65F917, size: 0x8, addend: 0x0, symName: __ZL24llama_sampler_chain_freeP13llama_sampler, symObjAddr: 0x31A0, symBinAddr: 0xC6738, symSize: 0xA0 }
  - { offset: 0x65F9F1, size: 0x8, addend: 0x0, symName: __ZL24llama_sampler_chain_freeP13llama_sampler, symObjAddr: 0x31A0, symBinAddr: 0xC6738, symSize: 0xA0 }
  - { offset: 0x65FD5D, size: 0x8, addend: 0x0, symName: __ZL32llama_sampler_chain_backend_initP13llama_samplerP24ggml_backend_buffer_type, symObjAddr: 0x3240, symBinAddr: 0xC67D8, symSize: 0xB4 }
  - { offset: 0x65FE56, size: 0x8, addend: 0x0, symName: __ZL34llama_sampler_chain_backend_acceptP13llama_samplerP12ggml_contextP11ggml_cgraphP11ggml_tensor, symObjAddr: 0x32F4, symBinAddr: 0xC688C, symSize: 0x84 }
  - { offset: 0x65FE69, size: 0x8, addend: 0x0, symName: __ZL34llama_sampler_chain_backend_acceptP13llama_samplerP12ggml_contextP11ggml_cgraphP11ggml_tensor, symObjAddr: 0x32F4, symBinAddr: 0xC688C, symSize: 0x84 }
  - { offset: 0x65FF7F, size: 0x8, addend: 0x0, symName: __ZL33llama_sampler_chain_backend_applyP13llama_samplerP12ggml_contextP11ggml_cgraphP18llama_sampler_data, symObjAddr: 0x3378, symBinAddr: 0xC6910, symSize: 0xB8 }
  - { offset: 0x660097, size: 0x8, addend: 0x0, symName: __ZL37llama_sampler_chain_backend_set_inputP13llama_sampler, symObjAddr: 0x3430, symBinAddr: 0xC69C8, symSize: 0x54 }
  - { offset: 0x6600AA, size: 0x8, addend: 0x0, symName: __ZL37llama_sampler_chain_backend_set_inputP13llama_sampler, symObjAddr: 0x3430, symBinAddr: 0xC69C8, symSize: 0x54 }
  - { offset: 0x660193, size: 0x8, addend: 0x0, symName: __ZL25llama_sampler_greedy_namePK13llama_sampler, symObjAddr: 0x3494, symBinAddr: 0xC6A1C, symSize: 0xC0 }
  - { offset: 0x6603F8, size: 0x8, addend: 0x0, symName: __ZL26llama_sampler_greedy_applyP13llama_samplerP22llama_token_data_array, symObjAddr: 0x3554, symBinAddr: 0xC6ADC, symSize: 0x5C }
  - { offset: 0x66044A, size: 0x8, addend: 0x0, symName: __ZL26llama_sampler_greedy_resetP13llama_sampler, symObjAddr: 0x35B0, symBinAddr: 0xC6B38, symSize: 0x4 }
  - { offset: 0x66048C, size: 0x8, addend: 0x0, symName: __ZL26llama_sampler_greedy_clonePK13llama_sampler, symObjAddr: 0x35B4, symBinAddr: 0xC6B3C, symSize: 0x58 }
  - { offset: 0x66057C, size: 0x8, addend: 0x0, symName: __ZL25llama_sampler_greedy_freeP13llama_sampler, symObjAddr: 0x360C, symBinAddr: 0xC6B94, symSize: 0x68 }
  - { offset: 0x6607EF, size: 0x8, addend: 0x0, symName: __ZL33llama_sampler_greedy_backend_initP13llama_samplerP24ggml_backend_buffer_type, symObjAddr: 0x3674, symBinAddr: 0xC6BFC, symSize: 0x60 }
  - { offset: 0x660880, size: 0x8, addend: 0x0, symName: __ZL34llama_sampler_greedy_backend_applyP13llama_samplerP12ggml_contextP11ggml_cgraphP18llama_sampler_data, symObjAddr: 0x36D4, symBinAddr: 0xC6C5C, symSize: 0x3C }
  - { offset: 0x660893, size: 0x8, addend: 0x0, symName: __ZL29llama_sampler_backend_supportP13llama_samplerP24ggml_backend_buffer_type, symObjAddr: 0x3710, symBinAddr: 0xC6C98, symSize: 0x25C }
  - { offset: 0x660D36, size: 0x8, addend: 0x0, symName: __ZL34llama_sampler_greedy_backend_applyP13llama_samplerP12ggml_contextP11ggml_cgraphP18llama_sampler_data, symObjAddr: 0x36D4, symBinAddr: 0xC6C5C, symSize: 0x3C }
  - { offset: 0x66106E, size: 0x8, addend: 0x0, symName: __ZL23llama_sampler_dist_namePK13llama_sampler, symObjAddr: 0x3B70, symBinAddr: 0xC70C4, symSize: 0xC0 }
  - { offset: 0x6613F8, size: 0x8, addend: 0x0, symName: __ZL24llama_sampler_dist_applyP13llama_samplerP22llama_token_data_array, symObjAddr: 0x3C30, symBinAddr: 0xC7184, symSize: 0x324 }
  - { offset: 0x661665, size: 0x8, addend: 0x0, symName: __ZL24llama_sampler_dist_resetP13llama_sampler, symObjAddr: 0x3F54, symBinAddr: 0xC74A8, symSize: 0x68 }
  - { offset: 0x661715, size: 0x8, addend: 0x0, symName: __ZL24llama_sampler_dist_clonePK13llama_sampler, symObjAddr: 0x3FBC, symBinAddr: 0xC7510, symSize: 0xE4 }
  - { offset: 0x661951, size: 0x8, addend: 0x0, symName: __ZL23llama_sampler_dist_freeP13llama_sampler, symObjAddr: 0x40A0, symBinAddr: 0xC75F4, symSize: 0x90 }
  - { offset: 0x661CFF, size: 0x8, addend: 0x0, symName: __ZL31llama_sampler_dist_backend_initP13llama_samplerP24ggml_backend_buffer_type, symObjAddr: 0x4130, symBinAddr: 0xC7684, symSize: 0x13C }
  - { offset: 0x66202E, size: 0x8, addend: 0x0, symName: __ZL32llama_sampler_dist_backend_applyP13llama_samplerP12ggml_contextP11ggml_cgraphP18llama_sampler_data, symObjAddr: 0x426C, symBinAddr: 0xC77C0, symSize: 0x144 }
  - { offset: 0x66239D, size: 0x8, addend: 0x0, symName: __ZL36llama_sampler_dist_backend_set_inputP13llama_sampler, symObjAddr: 0x43B0, symBinAddr: 0xC7904, symSize: 0x18C }
  - { offset: 0x66251C, size: 0x8, addend: 0x0, symName: __ZL24llama_sampler_empty_namePK13llama_sampler, symObjAddr: 0x453C, symBinAddr: 0xC7A90, symSize: 0xC }
  - { offset: 0x66254B, size: 0x8, addend: 0x0, symName: __ZL24llama_sampler_empty_namePK13llama_sampler, symObjAddr: 0x453C, symBinAddr: 0xC7A90, symSize: 0xC }
  - { offset: 0x66258B, size: 0x8, addend: 0x0, symName: __ZL26llama_sampler_empty_acceptP13llama_sampleri, symObjAddr: 0x4548, symBinAddr: 0xC7A9C, symSize: 0x4 }
  - { offset: 0x6625BF, size: 0x8, addend: 0x0, symName: __ZL25llama_sampler_empty_applyP13llama_samplerP22llama_token_data_array, symObjAddr: 0x454C, symBinAddr: 0xC7AA0, symSize: 0x4 }
  - { offset: 0x6625F3, size: 0x8, addend: 0x0, symName: __ZL25llama_sampler_empty_resetP13llama_sampler, symObjAddr: 0x4550, symBinAddr: 0xC7AA4, symSize: 0x4 }
  - { offset: 0x66261B, size: 0x8, addend: 0x0, symName: __ZL25llama_sampler_empty_clonePK13llama_sampler, symObjAddr: 0x4554, symBinAddr: 0xC7AA8, symSize: 0x44 }
  - { offset: 0x66269E, size: 0x8, addend: 0x0, symName: __ZL24llama_sampler_empty_freeP13llama_sampler, symObjAddr: 0x4598, symBinAddr: 0xC7AEC, symSize: 0x10 }
  - { offset: 0x6626CA, size: 0x8, addend: 0x0, symName: __ZL32llama_sampler_empty_backend_initP13llama_samplerP24ggml_backend_buffer_type, symObjAddr: 0x45A8, symBinAddr: 0xC7AFC, symSize: 0x8 }
  - { offset: 0x662702, size: 0x8, addend: 0x0, symName: __ZL34llama_sampler_empty_backend_acceptP13llama_samplerP12ggml_contextP11ggml_cgraphP11ggml_tensor, symObjAddr: 0x45B0, symBinAddr: 0xC7B04, symSize: 0x4 }
  - { offset: 0x66274E, size: 0x8, addend: 0x0, symName: __ZL33llama_sampler_empty_backend_applyP13llama_samplerP12ggml_contextP11ggml_cgraphP18llama_sampler_data, symObjAddr: 0x45B4, symBinAddr: 0xC7B08, symSize: 0x4 }
  - { offset: 0x66279A, size: 0x8, addend: 0x0, symName: __ZL37llama_sampler_empty_backend_set_inputP13llama_sampler, symObjAddr: 0x45B8, symBinAddr: 0xC7B0C, symSize: 0x4 }
  - { offset: 0x6627C2, size: 0x8, addend: 0x0, symName: __ZL24llama_sampler_top_k_namePK13llama_sampler, symObjAddr: 0x45BC, symBinAddr: 0xC7B10, symSize: 0xC0 }
  - { offset: 0x662A4E, size: 0x8, addend: 0x0, symName: __ZL25llama_sampler_top_k_applyP13llama_samplerP22llama_token_data_array, symObjAddr: 0x467C, symBinAddr: 0xC7BD0, symSize: 0x58 }
  - { offset: 0x662AF4, size: 0x8, addend: 0x0, symName: __ZL25llama_sampler_top_k_clonePK13llama_sampler, symObjAddr: 0x46D4, symBinAddr: 0xC7C28, symSize: 0xA4 }
  - { offset: 0x662BDE, size: 0x8, addend: 0x0, symName: __ZL24llama_sampler_top_k_freeP13llama_sampler, symObjAddr: 0x4778, symBinAddr: 0xC7CCC, symSize: 0x68 }
  - { offset: 0x662E2F, size: 0x8, addend: 0x0, symName: __ZL32llama_sampler_top_k_backend_initP13llama_samplerP24ggml_backend_buffer_type, symObjAddr: 0x47E0, symBinAddr: 0xC7D34, symSize: 0x60 }
  - { offset: 0x662EC0, size: 0x8, addend: 0x0, symName: __ZL33llama_sampler_top_k_backend_applyP13llama_samplerP12ggml_contextP11ggml_cgraphP18llama_sampler_data, symObjAddr: 0x4840, symBinAddr: 0xC7D94, symSize: 0xE8 }
  - { offset: 0x662ED3, size: 0x8, addend: 0x0, symName: __ZL33llama_sampler_top_k_backend_applyP13llama_samplerP12ggml_contextP11ggml_cgraphP18llama_sampler_data, symObjAddr: 0x4840, symBinAddr: 0xC7D94, symSize: 0xE8 }
  - { offset: 0x66375C, size: 0x8, addend: 0x0, symName: __ZNSt3__16vectorIP16llama_token_dataNS_9allocatorIS2_EEE20__throw_length_errorB8ne200100Ev, symObjAddr: 0x544C, symBinAddr: 0xC88F0, symSize: 0x14 }
  - { offset: 0x663774, size: 0x8, addend: 0x0, symName: '__ZNSt3__111__introsortINS_17_ClassicAlgPolicyERZL35llama_token_data_array_partial_sortRK22llama_token_data_arrayiRNS_6vectorI16llama_token_dataNS_9allocatorIS6_EEEEE3$_0PS6_Lb0EEEvT1_SE_T0_NS_15iterator_traitsISE_E15difference_typeEb', symObjAddr: 0x5460, symBinAddr: 0xC8904, symSize: 0xDA4 }
  - { offset: 0x663837, size: 0x8, addend: 0x0, symName: __ZL24llama_sampler_top_p_namePK13llama_sampler, symObjAddr: 0x6D04, symBinAddr: 0xCA1A8, symSize: 0xC0 }
  - { offset: 0x663B13, size: 0x8, addend: 0x0, symName: __ZL25llama_sampler_top_p_applyP13llama_samplerP22llama_token_data_array, symObjAddr: 0x6DC4, symBinAddr: 0xCA268, symSize: 0x348 }
  - { offset: 0x663E75, size: 0x8, addend: 0x0, symName: __ZL25llama_sampler_top_p_clonePK13llama_sampler, symObjAddr: 0x710C, symBinAddr: 0xCA5B0, symSize: 0xA8 }
  - { offset: 0x663EBB, size: 0x8, addend: 0x0, symName: __ZL25llama_sampler_top_p_clonePK13llama_sampler, symObjAddr: 0x710C, symBinAddr: 0xCA5B0, symSize: 0xA8 }
  - { offset: 0x663FED, size: 0x8, addend: 0x0, symName: __ZL24llama_sampler_top_p_freeP13llama_sampler, symObjAddr: 0x71B4, symBinAddr: 0xCA658, symSize: 0x78 }
  - { offset: 0x66436A, size: 0x8, addend: 0x0, symName: __ZL32llama_sampler_top_p_backend_initP13llama_samplerP24ggml_backend_buffer_type, symObjAddr: 0x722C, symBinAddr: 0xCA6D0, symSize: 0x60 }
  - { offset: 0x6643FB, size: 0x8, addend: 0x0, symName: __ZL33llama_sampler_top_p_backend_applyP13llama_samplerP12ggml_contextP11ggml_cgraphP18llama_sampler_data, symObjAddr: 0x728C, symBinAddr: 0xCA730, symSize: 0x2A0 }
  - { offset: 0x66440E, size: 0x8, addend: 0x0, symName: __ZL33llama_sampler_top_p_backend_applyP13llama_samplerP12ggml_contextP11ggml_cgraphP18llama_sampler_data, symObjAddr: 0x728C, symBinAddr: 0xCA730, symSize: 0x2A0 }
  - { offset: 0x6648B2, size: 0x8, addend: 0x0, symName: __ZL24llama_sampler_min_p_namePK13llama_sampler, symObjAddr: 0x752C, symBinAddr: 0xCA9D0, symSize: 0xC0 }
  - { offset: 0x6649C9, size: 0x8, addend: 0x0, symName: __ZL24llama_sampler_min_p_namePK13llama_sampler, symObjAddr: 0x752C, symBinAddr: 0xCA9D0, symSize: 0xC0 }
  - { offset: 0x664F28, size: 0x8, addend: 0x0, symName: __ZL25llama_sampler_min_p_applyP13llama_samplerP22llama_token_data_array, symObjAddr: 0x75EC, symBinAddr: 0xCAA90, symSize: 0x2DC }
  - { offset: 0x6656B5, size: 0x8, addend: 0x0, symName: __ZNSt3__16vectorI16llama_token_dataNS_9allocatorIS1_EEE20__throw_length_errorB8ne200100Ev, symObjAddr: 0x7B54, symBinAddr: 0xCAFF8, symSize: 0x14 }
  - { offset: 0x6656CD, size: 0x8, addend: 0x0, symName: __ZL26llama_sampler_typical_namePK13llama_sampler, symObjAddr: 0x7B68, symBinAddr: 0xCB00C, symSize: 0xC }
  - { offset: 0x66570B, size: 0x8, addend: 0x0, symName: __ZL25llama_sampler_min_p_clonePK13llama_sampler, symObjAddr: 0x78C8, symBinAddr: 0xCAD6C, symSize: 0xA0 }
  - { offset: 0x6657FE, size: 0x8, addend: 0x0, symName: __ZL24llama_sampler_min_p_freeP13llama_sampler, symObjAddr: 0x7968, symBinAddr: 0xCAE0C, symSize: 0x68 }
  - { offset: 0x665A4F, size: 0x8, addend: 0x0, symName: __ZL32llama_sampler_min_p_backend_initP13llama_samplerP24ggml_backend_buffer_type, symObjAddr: 0x79D0, symBinAddr: 0xCAE74, symSize: 0x60 }
  - { offset: 0x665AE0, size: 0x8, addend: 0x0, symName: __ZL33llama_sampler_min_p_backend_applyP13llama_samplerP12ggml_contextP11ggml_cgraphP18llama_sampler_data, symObjAddr: 0x7A30, symBinAddr: 0xCAED4, symSize: 0x124 }
  - { offset: 0x665AF3, size: 0x8, addend: 0x0, symName: __ZL33llama_sampler_min_p_backend_applyP13llama_samplerP12ggml_contextP11ggml_cgraphP18llama_sampler_data, symObjAddr: 0x7A30, symBinAddr: 0xCAED4, symSize: 0x124 }
  - { offset: 0x665CF6, size: 0x8, addend: 0x0, symName: __ZL26llama_sampler_typical_namePK13llama_sampler, symObjAddr: 0x7B68, symBinAddr: 0xCB00C, symSize: 0xC }
  - { offset: 0x666201, size: 0x8, addend: 0x0, symName: __ZL27llama_sampler_typical_applyP13llama_samplerP22llama_token_data_array, symObjAddr: 0x7B74, symBinAddr: 0xCB018, symSize: 0x80C }
  - { offset: 0x6675BB, size: 0x8, addend: 0x0, symName: '__ZNSt3__111__introsortINS_17_ClassicAlgPolicyERZL27llama_sampler_typical_applyP13llama_samplerP22llama_token_data_arrayE3$_0PmLb0EEEvT1_S9_T0_NS_15iterator_traitsIS9_E15difference_typeEb', symObjAddr: 0x843C, symBinAddr: 0xCB8B8, symSize: 0xAD8 }
  - { offset: 0x6675F9, size: 0x8, addend: 0x0, symName: __ZL27llama_sampler_typical_clonePK13llama_sampler, symObjAddr: 0x8380, symBinAddr: 0xCB824, symSize: 0x84 }
  - { offset: 0x667677, size: 0x8, addend: 0x0, symName: __ZL26llama_sampler_typical_freeP13llama_sampler, symObjAddr: 0x8404, symBinAddr: 0xCB8A8, symSize: 0x10 }
  - { offset: 0x667774, size: 0x8, addend: 0x0, symName: __ZL23llama_sampler_temp_namePK13llama_sampler, symObjAddr: 0x9408, symBinAddr: 0xCC884, symSize: 0xC0 }
  - { offset: 0x667A36, size: 0x8, addend: 0x0, symName: __ZL24llama_sampler_temp_applyP13llama_samplerP22llama_token_data_array, symObjAddr: 0x94C8, symBinAddr: 0xCC944, symSize: 0x138 }
  - { offset: 0x667B03, size: 0x8, addend: 0x0, symName: __ZL24llama_sampler_temp_clonePK13llama_sampler, symObjAddr: 0x9600, symBinAddr: 0xCCA7C, symSize: 0x9C }
  - { offset: 0x667BED, size: 0x8, addend: 0x0, symName: __ZL23llama_sampler_temp_freeP13llama_sampler, symObjAddr: 0x969C, symBinAddr: 0xCCB18, symSize: 0x68 }
