---
triple:          'x86_64-apple-darwin'
binary-path:     '/opt/UnitySrc/personal/ocs-test/llama_dart/src/native/llama_cpp/build-ios-sim/framework/llama.framework/llama'
relocations:
  - { offset: 0x25BBC, size: 0x8, addend: 0x0, symName: __ZNSt3__127__tree_balance_after_insertB8ne200100IPNS_16__tree_node_baseIPvEEEEvT_S5_, symObjAddr: 0x3580, symBinAddr: 0x4030, symSize: 0x180 }
  - { offset: 0x26EB7, size: 0x8, addend: 0x0, symName: __ZNSt3__120__throw_length_errorB8ne200100EPKc, symObjAddr: 0x3710, symBinAddr: 0x41C0, symSize: 0x50 }
  - { offset: 0x274BE, size: 0x8, addend: 0x0, symName: __ZNSt3__120__throw_out_of_rangeB8ne200100EPKc, symObjAddr: 0x4850, symBinAddr: 0x5300, symSize: 0x50 }
  - { offset: 0x28EE1, size: 0x8, addend: 0x0, symName: __ZSt28__throw_bad_array_new_lengthB8ne200100v, symObjAddr: 0x3540, symBinAddr: 0x3FF0, symSize: 0x40 }
  - { offset: 0x303C3, size: 0x8, addend: 0x0, symName: __ZNK18llama_adapter_cvec10tensor_forEi, symObjAddr: 0x0, symBinAddr: 0xAB0, symSize: 0x30 }
  - { offset: 0x3042B, size: 0x8, addend: 0x0, symName: __ZNK18llama_adapter_cvec8apply_toEP12ggml_contextP11ggml_tensori, symObjAddr: 0x30, symBinAddr: 0xAE0, symSize: 0x50 }
  - { offset: 0x30AF2, size: 0x8, addend: 0x0, symName: __ZN18llama_adapter_cvec4initERK11llama_model, symObjAddr: 0x80, symBinAddr: 0xB30, symSize: 0x7E0 }
  - { offset: 0x339C9, size: 0x8, addend: 0x0, symName: __ZNSt3__16__treeINS_12__value_typeIP24ggml_backend_buffer_typeP12ggml_contextEENS_19__map_value_compareIS3_S6_NS_4lessIS3_EELb1EEENS_9allocatorIS6_EEE7destroyEPNS_11__tree_nodeIS6_PvEE, symObjAddr: 0x5DB0, symBinAddr: 0x6860, symSize: 0x40 }
  - { offset: 0x33AE0, size: 0x8, addend: 0x0, symName: __ZNSt3__16vectorINS_10unique_ptrI19ggml_backend_buffer27ggml_backend_buffer_deleterEENS_9allocatorIS4_EEE20__throw_length_errorB8ne200100Ev, symObjAddr: 0x55A0, symBinAddr: 0x6050, symSize: 0x10 }
  - { offset: 0x33AF8, size: 0x8, addend: 0x0, symName: __ZNSt3__16vectorIhNS_9allocatorIhEEE20__throw_length_errorB8ne200100Ev, symObjAddr: 0x55B0, symBinAddr: 0x6060, symSize: 0x10 }
  - { offset: 0x33B03, size: 0x8, addend: 0x0, symName: __ZNSt3__16vectorIP11ggml_tensorNS_9allocatorIS2_EEE20__throw_length_errorB8ne200100Ev, symObjAddr: 0x5DF0, symBinAddr: 0x68A0, symSize: 0x10 }
  - { offset: 0x33B1B, size: 0x8, addend: 0x0, symName: __ZNSt3__112__hash_tableINS_17__hash_value_typeINS_12basic_stringIcNS_11char_traitsIcEENS_9allocatorIcEEEE25llama_adapter_lora_weightEENS_22__unordered_map_hasherIS7_S9_NS_4hashIS7_EENS_8equal_toIS7_EELb1EEENS_21__unordered_map_equalIS7_S9_SE_SC_Lb1EEENS5_IS9_EEE4findIS7_EENS_15__hash_iteratorIPNS_11__hash_nodeIS9_PvEEEERKT_, symObjAddr: 0x5E00, symBinAddr: 0x68B0, symSize: 0x290 }
  - { offset: 0x33B26, size: 0x8, addend: 0x0, symName: __ZNSt3__16vectorINS_10unique_ptrI12ggml_context20ggml_context_deleterEENS_9allocatorIS4_EEE20__throw_length_errorB8ne200100Ev, symObjAddr: 0x3700, symBinAddr: 0x41B0, symSize: 0x10 }
  - { offset: 0x33B3E, size: 0x8, addend: 0x0, symName: __ZNSt3__120__throw_length_errorB8ne200100EPKc, symObjAddr: 0x3710, symBinAddr: 0x41C0, symSize: 0x50 }
  - { offset: 0x33B85, size: 0x8, addend: 0x0, symName: __ZN18llama_adapter_cvec5applyERK11llama_modelPKfmiii, symObjAddr: 0x860, symBinAddr: 0x1310, symSize: 0x130 }
  - { offset: 0x3402D, size: 0x8, addend: 0x0, symName: __ZN18llama_adapter_lora10get_weightEP11ggml_tensor, symObjAddr: 0x990, symBinAddr: 0x1440, symSize: 0xF0 }
  - { offset: 0x345FD, size: 0x8, addend: 0x0, symName: __ZNSt3__112__hash_tableINS_17__hash_value_typeINS_12basic_stringIcNS_11char_traitsIcEENS_9allocatorIcEEEE25llama_adapter_lora_weightEENS_22__unordered_map_hasherIS7_S9_NS_4hashIS7_EENS_8equal_toIS7_EELb1EEENS_21__unordered_map_equalIS7_S9_SE_SC_Lb1EEENS5_IS9_EEE4findIS7_EENS_15__hash_iteratorIPNS_11__hash_nodeIS9_PvEEEERKT_, symObjAddr: 0x5E00, symBinAddr: 0x68B0, symSize: 0x290 }
  - { offset: 0x348FB, size: 0x8, addend: 0x0, symName: __ZNSt3__112basic_stringIcNS_11char_traitsIcEENS_9allocatorIcEEE20__throw_length_errorB8ne200100Ev, symObjAddr: 0x48D0, symBinAddr: 0x5380, symSize: 0x10 }
  - { offset: 0x34913, size: 0x8, addend: 0x0, symName: __ZNSt3__112basic_stringIcNS_11char_traitsIcEENS_9allocatorIcEEE25__init_copy_ctor_externalEPKcm, symObjAddr: 0x48E0, symBinAddr: 0x5390, symSize: 0x80 }
  - { offset: 0x3491E, size: 0x8, addend: 0x0, symName: __ZNSt3__112basic_stringIcNS_11char_traitsIcEENS_9allocatorIcEEEC1B8ne200100ILi0EEEPKc, symObjAddr: 0xA80, symBinAddr: 0x1530, symSize: 0x90 }
  - { offset: 0x34DCA, size: 0x8, addend: 0x0, symName: _llama_adapter_lora_init, symObjAddr: 0xB10, symBinAddr: 0x15C0, symSize: 0x100 }
  - { offset: 0x35074, size: 0x8, addend: 0x0, symName: __ZL28llama_adapter_lora_init_implR11llama_modelPKcR18llama_adapter_lora, symObjAddr: 0xC10, symBinAddr: 0x16C0, symSize: 0x2600 }
  - { offset: 0x3D5BE, size: 0x8, addend: 0x0, symName: __ZN18llama_adapter_loraD2Ev, symObjAddr: 0x5C20, symBinAddr: 0x66D0, symSize: 0x190 }
  - { offset: 0x3F608, size: 0x8, addend: 0x0, symName: __ZNSt3__112__hash_tableINS_17__hash_value_typeINS_12basic_stringIcNS_11char_traitsIcEENS_9allocatorIcEEEES7_EENS_22__unordered_map_hasherIS7_S8_NS_4hashIS7_EENS_8equal_toIS7_EELb1EEENS_21__unordered_map_equalIS7_S8_SD_SB_Lb1EEENS5_IS8_EEE21__emplace_unique_implIJRPKcRKS7_EEENS_4pairINS_15__hash_iteratorIPNS_11__hash_nodeIS8_PvEEEEbEEDpOT_, symObjAddr: 0x39B0, symBinAddr: 0x4460, symSize: 0x110 }
  - { offset: 0x3FDF7, size: 0x8, addend: 0x0, symName: __ZNSt3__112basic_stringIcNS_11char_traitsIcEENS_9allocatorIcEEE25__init_copy_ctor_externalEPKcm, symObjAddr: 0x48E0, symBinAddr: 0x5390, symSize: 0x80 }
  - { offset: 0x400C4, size: 0x8, addend: 0x0, symName: __ZNSt3__16vectorIiNS_9allocatorIiEEE8__appendEm, symObjAddr: 0x4960, symBinAddr: 0x5410, symSize: 0x150 }
  - { offset: 0x40546, size: 0x8, addend: 0x0, symName: __ZNSt3__16__treeINS_12__value_typeINS_12basic_stringIcNS_11char_traitsIcEENS_9allocatorIcEEEE25llama_adapter_lora_weightEENS_19__map_value_compareIS7_S9_NS_4lessIS7_EELb1EEENS5_IS9_EEE4findIS7_EENS_15__tree_iteratorIS9_PNS_11__tree_nodeIS9_PvEElEERKT_, symObjAddr: 0x4AC0, symBinAddr: 0x5570, symSize: 0x110 }
  - { offset: 0x408AA, size: 0x8, addend: 0x0, symName: __ZNSt3__16__treeINS_12__value_typeINS_12basic_stringIcNS_11char_traitsIcEENS_9allocatorIcEEEE25llama_adapter_lora_weightEENS_19__map_value_compareIS7_S9_NS_4lessIS7_EELb1EEENS5_IS9_EEE25__emplace_unique_key_argsIS7_JRKNS_21piecewise_construct_tENS_5tupleIJRKS7_EEENSK_IJEEEEEENS_4pairINS_15__tree_iteratorIS9_PNS_11__tree_nodeIS9_PvEElEEbEERKT_DpOT0_, symObjAddr: 0x4BD0, symBinAddr: 0x5680, symSize: 0x1C0 }
  - { offset: 0x410A0, size: 0x8, addend: 0x0, symName: __ZNSt3__112__hash_tableINS_17__hash_value_typeINS_12basic_stringIcNS_11char_traitsIcEENS_9allocatorIcEEEE25llama_adapter_lora_weightEENS_22__unordered_map_hasherIS7_S9_NS_4hashIS7_EENS_8equal_toIS7_EELb1EEENS_21__unordered_map_equalIS7_S9_SE_SC_Lb1EEENS5_IS9_EEE25__emplace_unique_key_argsIS7_JRKNS_21piecewise_construct_tENS_5tupleIJRKS7_EEENSO_IJEEEEEENS_4pairINS_15__hash_iteratorIPNS_11__hash_nodeIS9_PvEEEEbEERKT_DpOT0_, symObjAddr: 0x4DF0, symBinAddr: 0x58A0, symSize: 0x5B0 }
  - { offset: 0x41C17, size: 0x8, addend: 0x0, symName: '__ZZL28llama_adapter_lora_init_implR11llama_modelPKcR18llama_adapter_loraENK3$_4clEP11ggml_tensorS7_', symObjAddr: 0x37F0, symBinAddr: 0x42A0, symSize: 0x190 }
  - { offset: 0x42216, size: 0x8, addend: 0x0, symName: __ZNSt3__112__hash_tableIP18llama_adapter_loraNS_4hashIS2_EENS_8equal_toIS2_EENS_9allocatorIS2_EEE25__emplace_unique_key_argsIS2_JS2_EEENS_4pairINS_15__hash_iteratorIPNS_11__hash_nodeIS2_PvEEEEbEERKT_DpOT0_, symObjAddr: 0x55C0, symBinAddr: 0x6070, symSize: 0x460 }
  - { offset: 0x4299D, size: 0x8, addend: 0x0, symName: __ZNSt3__16__treeINS_12__value_typeINS_12basic_stringIcNS_11char_traitsIcEENS_9allocatorIcEEEE25llama_adapter_lora_weightEENS_19__map_value_compareIS7_S9_NS_4lessIS7_EELb1EEENS5_IS9_EEE7destroyEPNS_11__tree_nodeIS9_PvEE, symObjAddr: 0x5BD0, symBinAddr: 0x6680, symSize: 0x50 }
  - { offset: 0x42C4D, size: 0x8, addend: 0x0, symName: __ZNSt3__112basic_stringIcNS_11char_traitsIcEENS_9allocatorIcEEE20__throw_out_of_rangeB8ne200100Ev, symObjAddr: 0x4840, symBinAddr: 0x52F0, symSize: 0x10 }
  - { offset: 0x42C65, size: 0x8, addend: 0x0, symName: __ZNSt3__120__throw_out_of_rangeB8ne200100EPKc, symObjAddr: 0x4850, symBinAddr: 0x5300, symSize: 0x50 }
  - { offset: 0x42C70, size: 0x8, addend: 0x0, symName: __ZNSt3__16vectorIP24ggml_backend_buffer_typeNS_9allocatorIS2_EEE20__throw_length_errorB8ne200100Ev, symObjAddr: 0x4DE0, symBinAddr: 0x5890, symSize: 0x10 }
  - { offset: 0x42C88, size: 0x8, addend: 0x0, symName: __ZNSt3__112__hash_tableINS_17__hash_value_typeINS_12basic_stringIcNS_11char_traitsIcEENS_9allocatorIcEEEE25llama_adapter_lora_weightEENS_22__unordered_map_hasherIS7_S9_NS_4hashIS7_EENS_8equal_toIS7_EELb1EEENS_21__unordered_map_equalIS7_S9_SE_SC_Lb1EEENS5_IS9_EEE25__emplace_unique_key_argsIS7_JRKNS_21piecewise_construct_tENS_5tupleIJRKS7_EEENSO_IJEEEEEENS_4pairINS_15__hash_iteratorIPNS_11__hash_nodeIS9_PvEEEEbEERKT_DpOT0_, symObjAddr: 0x4DF0, symBinAddr: 0x58A0, symSize: 0x5B0 }
  - { offset: 0x42C93, size: 0x8, addend: 0x0, symName: __ZNSt3__110unique_ptrI12gguf_context20gguf_context_deleterED1B8ne200100Ev, symObjAddr: 0x3980, symBinAddr: 0x4430, symSize: 0x30 }
  - { offset: 0x42D20, size: 0x8, addend: 0x0, symName: __ZNSt3__110unique_ptrI19ggml_backend_buffer27ggml_backend_buffer_deleterED1B8ne200100Ev, symObjAddr: 0x37C0, symBinAddr: 0x4270, symSize: 0x30 }
  - { offset: 0x42DAD, size: 0x8, addend: 0x0, symName: __ZNSt3__110unique_ptrI12ggml_context20ggml_context_deleterED1B8ne200100Ev, symObjAddr: 0x3790, symBinAddr: 0x4240, symSize: 0x30 }
  - { offset: 0x42E6E, size: 0x8, addend: 0x0, symName: _llama_adapter_meta_val_str, symObjAddr: 0x3220, symBinAddr: 0x3CD0, symSize: 0x130 }
  - { offset: 0x434E5, size: 0x8, addend: 0x0, symName: __ZNKSt3__112__hash_tableINS_17__hash_value_typeINS_12basic_stringIcNS_11char_traitsIcEENS_9allocatorIcEEEES7_EENS_22__unordered_map_hasherIS7_S8_NS_4hashIS7_EENS_8equal_toIS7_EELb1EEENS_21__unordered_map_equalIS7_S8_SD_SB_Lb1EEENS5_IS8_EEE4findIS7_EENS_21__hash_const_iteratorIPNS_11__hash_nodeIS8_PvEEEERKT_, symObjAddr: 0x6090, symBinAddr: 0x6B40, symSize: 0x289 }
  - { offset: 0x43833, size: 0x8, addend: 0x0, symName: _llama_adapter_meta_count, symObjAddr: 0x3350, symBinAddr: 0x3E00, symSize: 0x10 }
  - { offset: 0x43904, size: 0x8, addend: 0x0, symName: _llama_adapter_meta_key_by_index, symObjAddr: 0x3360, symBinAddr: 0x3E10, symSize: 0xB0 }
  - { offset: 0x43AB7, size: 0x8, addend: 0x0, symName: _llama_adapter_meta_val_str_by_index, symObjAddr: 0x3410, symBinAddr: 0x3EC0, symSize: 0xB0 }
  - { offset: 0x43C6A, size: 0x8, addend: 0x0, symName: _llama_adapter_lora_free, symObjAddr: 0x34C0, symBinAddr: 0x3F70, symSize: 0x10 }
  - { offset: 0x43C8D, size: 0x8, addend: 0x0, symName: _llama_adapter_get_alora_n_invocation_tokens, symObjAddr: 0x34D0, symBinAddr: 0x3F80, symSize: 0x30 }
  - { offset: 0x43CEE, size: 0x8, addend: 0x0, symName: _llama_adapter_get_alora_invocation_tokens, symObjAddr: 0x3500, symBinAddr: 0x3FB0, symSize: 0x40 }
  - { offset: 0x43D8D, size: 0x8, addend: 0x0, symName: __ZNSt12length_errorC1B8ne200100EPKc, symObjAddr: 0x3760, symBinAddr: 0x4210, symSize: 0x30 }
  - { offset: 0x442C5, size: 0x8, addend: 0x0, symName: __ZNSt3__16vectorIhNS_9allocatorIhEEE20__throw_length_errorB8ne200100Ev, symObjAddr: 0x55B0, symBinAddr: 0x6060, symSize: 0x10 }
  - { offset: 0x442DD, size: 0x8, addend: 0x0, symName: __ZNSt3__112__hash_tableIP18llama_adapter_loraNS_4hashIS2_EENS_8equal_toIS2_EENS_9allocatorIS2_EEE25__emplace_unique_key_argsIS2_JS2_EEENS_4pairINS_15__hash_iteratorIPNS_11__hash_nodeIS2_PvEEEEbEERKT_DpOT0_, symObjAddr: 0x55C0, symBinAddr: 0x6070, symSize: 0x460 }
  - { offset: 0x44785, size: 0x8, addend: 0x0, symName: __ZNSt3__14pairIKNS_12basic_stringIcNS_11char_traitsIcEENS_9allocatorIcEEEES6_EC2B8ne200100IRPKcRS7_Li0EEEOT_OT0_, symObjAddr: 0x3CA0, symBinAddr: 0x4750, symSize: 0x100 }
  - { offset: 0x44C01, size: 0x8, addend: 0x0, symName: __ZNKSt3__121__murmur2_or_cityhashImLm64EEclB8ne200100EPKvm, symObjAddr: 0x3DA0, symBinAddr: 0x4850, symSize: 0x4B0 }
  - { offset: 0x456F0, size: 0x8, addend: 0x0, symName: __ZNSt3__112__hash_tableINS_17__hash_value_typeINS_12basic_stringIcNS_11char_traitsIcEENS_9allocatorIcEEEES7_EENS_22__unordered_map_hasherIS7_S8_NS_4hashIS7_EENS_8equal_toIS7_EELb1EEENS_21__unordered_map_equalIS7_S8_SD_SB_Lb1EEENS5_IS8_EEE20__node_insert_uniqueEPNS_11__hash_nodeIS8_PvEE, symObjAddr: 0x3AC0, symBinAddr: 0x4570, symSize: 0x190 }
  - { offset: 0x45926, size: 0x8, addend: 0x0, symName: __ZNSt3__110unique_ptrINS_11__hash_nodeINS_17__hash_value_typeINS_12basic_stringIcNS_11char_traitsIcEENS_9allocatorIcEEEES8_EEPvEENS_22__hash_node_destructorINS6_ISB_EEEEED1B8ne200100Ev, symObjAddr: 0x3C50, symBinAddr: 0x4700, symSize: 0x50 }
  - { offset: 0x45DA3, size: 0x8, addend: 0x0, symName: __ZNSt3__112__hash_tableINS_17__hash_value_typeINS_12basic_stringIcNS_11char_traitsIcEENS_9allocatorIcEEEES7_EENS_22__unordered_map_hasherIS7_S8_NS_4hashIS7_EENS_8equal_toIS7_EELb1EEENS_21__unordered_map_equalIS7_S8_SD_SB_Lb1EEENS5_IS8_EEE28__node_insert_unique_prepareB8ne200100EmRS8_, symObjAddr: 0x4250, symBinAddr: 0x4D00, symSize: 0x440 }
  - { offset: 0x46464, size: 0x8, addend: 0x0, symName: __ZNSt3__112__hash_tableINS_17__hash_value_typeINS_12basic_stringIcNS_11char_traitsIcEENS_9allocatorIcEEEES7_EENS_22__unordered_map_hasherIS7_S8_NS_4hashIS7_EENS_8equal_toIS7_EELb1EEENS_21__unordered_map_equalIS7_S8_SD_SB_Lb1EEENS5_IS8_EEE11__do_rehashILb1EEEvm, symObjAddr: 0x4690, symBinAddr: 0x5140, symSize: 0x1B0 }
  - { offset: 0x46930, size: 0x8, addend: 0x0, symName: __ZNSt12out_of_rangeC1B8ne200100EPKc, symObjAddr: 0x48A0, symBinAddr: 0x5350, symSize: 0x30 }
  - { offset: 0x46CCD, size: 0x8, addend: 0x0, symName: __ZNSt3__16vectorIiNS_9allocatorIiEEE20__throw_length_errorB8ne200100Ev, symObjAddr: 0x4AB0, symBinAddr: 0x5560, symSize: 0x10 }
  - { offset: 0x46CE5, size: 0x8, addend: 0x0, symName: __ZNSt3__16__treeINS_12__value_typeINS_12basic_stringIcNS_11char_traitsIcEENS_9allocatorIcEEEE25llama_adapter_lora_weightEENS_19__map_value_compareIS7_S9_NS_4lessIS7_EELb1EEENS5_IS9_EEE4findIS7_EENS_15__tree_iteratorIS9_PNS_11__tree_nodeIS9_PvEElEERKT_, symObjAddr: 0x4AC0, symBinAddr: 0x5570, symSize: 0x110 }
  - { offset: 0x4729A, size: 0x8, addend: 0x0, symName: __ZNSt3__110unique_ptrINS_11__tree_nodeINS_12__value_typeINS_12basic_stringIcNS_11char_traitsIcEENS_9allocatorIcEEEE25llama_adapter_lora_weightEEPvEENS_22__tree_node_destructorINS6_ISC_EEEEED1B8ne200100Ev, symObjAddr: 0x4D90, symBinAddr: 0x5840, symSize: 0x50 }
  - { offset: 0x47ABE, size: 0x8, addend: 0x0, symName: __ZNSt3__112__hash_tableINS_17__hash_value_typeINS_12basic_stringIcNS_11char_traitsIcEENS_9allocatorIcEEEE25llama_adapter_lora_weightEENS_22__unordered_map_hasherIS7_S9_NS_4hashIS7_EENS_8equal_toIS7_EELb1EEENS_21__unordered_map_equalIS7_S9_SE_SC_Lb1EEENS5_IS9_EEE11__do_rehashILb1EEEvm, symObjAddr: 0x53F0, symBinAddr: 0x5EA0, symSize: 0x1B0 }
  - { offset: 0x47E7A, size: 0x8, addend: 0x0, symName: __ZNSt3__110unique_ptrINS_11__hash_nodeINS_17__hash_value_typeINS_12basic_stringIcNS_11char_traitsIcEENS_9allocatorIcEEEE25llama_adapter_lora_weightEEPvEENS_22__hash_node_destructorINS6_ISC_EEEEED1B8ne200100Ev, symObjAddr: 0x53A0, symBinAddr: 0x5E50, symSize: 0x50 }
  - { offset: 0x487AF, size: 0x8, addend: 0x0, symName: __ZNSt3__112__hash_tableIP18llama_adapter_loraNS_4hashIS2_EENS_8equal_toIS2_EENS_9allocatorIS2_EEE11__do_rehashILb1EEEvm, symObjAddr: 0x5A20, symBinAddr: 0x64D0, symSize: 0x1B0 }
  - { offset: 0x4B5C5, size: 0x8, addend: 0x0, symName: __ZL14LLM_ARCH_NAMES, symObjAddr: 0x72C80, symBinAddr: 0x3AF040, symSize: 0x0 }
  - { offset: 0x5AE4A, size: 0x8, addend: 0x0, symName: __ZL12LLM_KV_NAMES, symObjAddr: 0x72C98, symBinAddr: 0x3AF058, symSize: 0x0 }
  - { offset: 0x5B270, size: 0x8, addend: 0x0, symName: __ZL16LLM_TENSOR_NAMES, symObjAddr: 0x72CB0, symBinAddr: 0x3AF070, symSize: 0x0 }
  - { offset: 0x5BB3B, size: 0x8, addend: 0x0, symName: __ZL16LLM_TENSOR_INFOS, symObjAddr: 0x72CC8, symBinAddr: 0x3AF088, symSize: 0x0 }
  - { offset: 0x5C2D4, size: 0x8, addend: 0x0, symName: __ZNSt3__13mapI8llm_archPKcNS_4lessIS1_EENS_9allocatorINS_4pairIKS1_S3_EEEEED1B8ne200100Ev, symObjAddr: 0x0, symBinAddr: 0x6DD0, symSize: 0x10 }
  - { offset: 0x5C387, size: 0x8, addend: 0x0, symName: __ZNSt3__16__treeINS_12__value_typeI8llm_archPKcEENS_19__map_value_compareIS2_S5_NS_4lessIS2_EELb1EEENS_9allocatorIS5_EEE7destroyEPNS_11__tree_nodeIS5_PvEE, symObjAddr: 0x2BC0, symBinAddr: 0x9800, symSize: 0x40 }
  - { offset: 0x5C512, size: 0x8, addend: 0x0, symName: __ZNSt3__13mapI6llm_kvPKcNS_4lessIS1_EENS_9allocatorINS_4pairIKS1_S3_EEEEED1B8ne200100Ev, symObjAddr: 0x10, symBinAddr: 0x6DE0, symSize: 0x10 }
  - { offset: 0x5C5C5, size: 0x8, addend: 0x0, symName: __ZNSt3__16__treeINS_12__value_typeI6llm_kvPKcEENS_19__map_value_compareIS2_S5_NS_4lessIS2_EELb1EEENS_9allocatorIS5_EEE7destroyEPNS_11__tree_nodeIS5_PvEE, symObjAddr: 0x2D70, symBinAddr: 0x99B0, symSize: 0x40 }
  - { offset: 0x5C750, size: 0x8, addend: 0x0, symName: __ZNSt3__13mapI10llm_tensorPKcNS_4lessIS1_EENS_9allocatorINS_4pairIKS1_S3_EEEEED1B8ne200100Ev, symObjAddr: 0x20, symBinAddr: 0x6DF0, symSize: 0x10 }
  - { offset: 0x5C803, size: 0x8, addend: 0x0, symName: __ZNSt3__16__treeINS_12__value_typeI10llm_tensorPKcEENS_19__map_value_compareIS2_S5_NS_4lessIS2_EELb1EEENS_9allocatorIS5_EEE7destroyEPNS_11__tree_nodeIS5_PvEE, symObjAddr: 0x2F20, symBinAddr: 0x9B60, symSize: 0x40 }
  - { offset: 0x5C98E, size: 0x8, addend: 0x0, symName: __ZNSt3__13mapI10llm_tensor15llm_tensor_infoNS_4lessIS1_EENS_9allocatorINS_4pairIKS1_S2_EEEEED1B8ne200100Ev, symObjAddr: 0x30, symBinAddr: 0x6E00, symSize: 0x10 }
  - { offset: 0x5CA41, size: 0x8, addend: 0x0, symName: __ZNSt3__16__treeINS_12__value_typeI10llm_tensor15llm_tensor_infoEENS_19__map_value_compareIS2_S4_NS_4lessIS2_EELb1EEENS_9allocatorIS4_EEE7destroyEPNS_11__tree_nodeIS4_PvEE, symObjAddr: 0x30D0, symBinAddr: 0x9D10, symSize: 0x40 }
  - { offset: 0x5CB5D, size: 0x8, addend: 0x0, symName: __ZN6LLM_KVC2E8llm_archPKc, symObjAddr: 0x40, symBinAddr: 0x6E10, symSize: 0x10 }
  - { offset: 0x5CBC6, size: 0x8, addend: 0x0, symName: __ZN6LLM_KVC1E8llm_archPKc, symObjAddr: 0x50, symBinAddr: 0x6E20, symSize: 0x10 }
  - { offset: 0x5CF92, size: 0x8, addend: 0x0, symName: __ZNK6LLM_KVclE6llm_kv, symObjAddr: 0x60, symBinAddr: 0x6E30, symSize: 0xD0 }
  - { offset: 0x5D55B, size: 0x8, addend: 0x0, symName: __ZN11LLM_TN_IMPLC2E8llm_arch10llm_tensorPKcii, symObjAddr: 0x130, symBinAddr: 0x6F00, symSize: 0x2090 }
  - { offset: 0x5E5F1, size: 0x8, addend: 0x0, symName: __ZNSt3__13setI10llm_tensorNS_4lessIS1_EENS_9allocatorIS1_EEE6insertB8ne200100IPKS1_EEvT_SA_, symObjAddr: 0x2740, symBinAddr: 0x9510, symSize: 0x140 }
  - { offset: 0x5E637, size: 0x8, addend: 0x0, symName: __ZNSt3__13setI10llm_tensorNS_4lessIS1_EENS_9allocatorIS1_EEE6insertB8ne200100IPKS1_EEvT_SA_, symObjAddr: 0x2740, symBinAddr: 0x9510, symSize: 0x140 }
  - { offset: 0x5E9CE, size: 0x8, addend: 0x0, symName: __ZNSt3__13setI10llm_tensorNS_4lessIS1_EENS_9allocatorIS1_EEEC1B8ne200100ESt16initializer_listIS1_ERKS3_, symObjAddr: 0x2700, symBinAddr: 0x94D0, symSize: 0x40 }
  - { offset: 0x5EB29, size: 0x8, addend: 0x0, symName: __ZNSt3__16__treeI10llm_tensorNS_4lessIS1_EENS_9allocatorIS1_EEE7destroyEPNS_11__tree_nodeIS1_PvEE, symObjAddr: 0x2A10, symBinAddr: 0x9650, symSize: 0x40 }
  - { offset: 0x5EC40, size: 0x8, addend: 0x0, symName: __ZN11LLM_TN_IMPLC1E8llm_arch10llm_tensorPKcii, symObjAddr: 0x21C0, symBinAddr: 0x8F90, symSize: 0x10 }
  - { offset: 0x5F19F, size: 0x8, addend: 0x0, symName: __ZNK11LLM_TN_IMPL3strEv, symObjAddr: 0x21D0, symBinAddr: 0x8FA0, symSize: 0x200 }
  - { offset: 0x5FACC, size: 0x8, addend: 0x0, symName: __Z13llm_arch_name8llm_arch, symObjAddr: 0x23D0, symBinAddr: 0x91A0, symSize: 0x50 }
  - { offset: 0x5FB0D, size: 0x8, addend: 0x0, symName: __Z13llm_arch_name8llm_arch, symObjAddr: 0x23D0, symBinAddr: 0x91A0, symSize: 0x50 }
  - { offset: 0x5FB22, size: 0x8, addend: 0x0, symName: __Z13llm_arch_name8llm_arch, symObjAddr: 0x23D0, symBinAddr: 0x91A0, symSize: 0x50 }
  - { offset: 0x5FB40, size: 0x8, addend: 0x0, symName: __Z13llm_arch_name8llm_arch, symObjAddr: 0x23D0, symBinAddr: 0x91A0, symSize: 0x50 }
  - { offset: 0x5FD37, size: 0x8, addend: 0x0, symName: __Z20llm_arch_from_stringRKNSt3__112basic_stringIcNS_11char_traitsIcEENS_9allocatorIcEEEE, symObjAddr: 0x2420, symBinAddr: 0x91F0, symSize: 0x100 }
  - { offset: 0x600CF, size: 0x8, addend: 0x0, symName: __Z19llm_tensor_info_for10llm_tensor, symObjAddr: 0x2520, symBinAddr: 0x92F0, symSize: 0x50 }
  - { offset: 0x601B4, size: 0x8, addend: 0x0, symName: __Z21llm_arch_is_recurrentRK8llm_arch, symObjAddr: 0x2570, symBinAddr: 0x9340, symSize: 0x20 }
  - { offset: 0x601E3, size: 0x8, addend: 0x0, symName: __Z18llm_arch_is_hybridRK8llm_arch, symObjAddr: 0x2590, symBinAddr: 0x9360, symSize: 0x150 }
  - { offset: 0x60212, size: 0x8, addend: 0x0, symName: __Z21llm_arch_is_diffusionRK8llm_arch, symObjAddr: 0x26E0, symBinAddr: 0x94B0, symSize: 0x20 }
  - { offset: 0x6094B, size: 0x8, addend: 0x0, symName: __ZNSt3__13mapI8llm_archPKcNS_4lessIS1_EENS_9allocatorINS_4pairIKS1_S3_EEEEEC2B8ne200100ESt16initializer_listIS9_ERKS5_, symObjAddr: 0x2A50, symBinAddr: 0x9690, symSize: 0x170 }
  - { offset: 0x61270, size: 0x8, addend: 0x0, symName: __ZNSt3__13mapI6llm_kvPKcNS_4lessIS1_EENS_9allocatorINS_4pairIKS1_S3_EEEEEC2B8ne200100ESt16initializer_listIS9_ERKS5_, symObjAddr: 0x2C00, symBinAddr: 0x9840, symSize: 0x170 }
  - { offset: 0x61B61, size: 0x8, addend: 0x0, symName: __ZNSt3__13mapI10llm_tensorPKcNS_4lessIS1_EENS_9allocatorINS_4pairIKS1_S3_EEEEEC2B8ne200100ESt16initializer_listIS9_ERKS5_, symObjAddr: 0x2DB0, symBinAddr: 0x99F0, symSize: 0x170 }
  - { offset: 0x62486, size: 0x8, addend: 0x0, symName: __ZNSt3__13mapI10llm_tensor15llm_tensor_infoNS_4lessIS1_EENS_9allocatorINS_4pairIKS1_S2_EEEEEC2B8ne200100ESt16initializer_listIS8_ERKS4_, symObjAddr: 0x2F60, symBinAddr: 0x9BA0, symSize: 0x170 }
  - { offset: 0x62BB1, size: 0x8, addend: 0x0, symName: __GLOBAL__sub_I_llama_arch.cpp, symObjAddr: 0x3360, symBinAddr: 0x9D50, symSize: 0x166 }
  - { offset: 0x7480C, size: 0x8, addend: 0x0, symName: __ZNSt3__124__put_character_sequenceB8ne200100IcNS_11char_traitsIcEEEERNS_13basic_ostreamIT_T0_EES7_PKS4_m, symObjAddr: 0x6B40, symBinAddr: 0x10750, symSize: 0x150 }
  - { offset: 0x7BCB7, size: 0x8, addend: 0x0, symName: __ZNSt3__116__pad_and_outputB8ne200100IcNS_11char_traitsIcEEEENS_19ostreambuf_iteratorIT_T0_EES6_PKS4_S8_S8_RNS_8ios_baseES4_, symObjAddr: 0x6C90, symBinAddr: 0x108A0, symSize: 0x160 }
  - { offset: 0x803A3, size: 0x8, addend: 0x0, symName: __ZN18llama_batch_allocrC2Ej, symObjAddr: 0x0, symBinAddr: 0x9EC0, symSize: 0x370 }
  - { offset: 0x811E6, size: 0x8, addend: 0x0, symName: __ZNSt3__16vectorINS_3setIiNS_4lessIiEENS_9allocatorIiEEEENS4_IS6_EEE8__appendEm, symObjAddr: 0x5760, symBinAddr: 0xF610, symSize: 0x220 }
  - { offset: 0x818C7, size: 0x8, addend: 0x0, symName: __ZNSt3__16vectorINS0_IbNS_9allocatorIbEEEENS1_IS3_EEE8__appendEm, symObjAddr: 0x5A50, symBinAddr: 0xF840, symSize: 0x260 }
  - { offset: 0x81F69, size: 0x8, addend: 0x0, symName: __ZNSt3__16vectorIbNS_9allocatorIbEEE6resizeEmb, symObjAddr: 0x370, symBinAddr: 0xA230, symSize: 0x2A0 }
  - { offset: 0x82790, size: 0x8, addend: 0x0, symName: __ZNSt3__16vectorIiNS_9allocatorIiEEE8__appendEmRKi, symObjAddr: 0x5E10, symBinAddr: 0xFC00, symSize: 0x200 }
  - { offset: 0x82C1A, size: 0x8, addend: 0x0, symName: __ZNSt3__113unordered_mapINS_6bitsetILm256EEENS_6vectorIiNS_9allocatorIiEEEENS_4hashIS2_EENS_8equal_toIS2_EENS4_INS_4pairIKS2_S6_EEEEED1B8ne200100Ev, symObjAddr: 0x610, symBinAddr: 0xA4D0, symSize: 0x70 }
  - { offset: 0x83019, size: 0x8, addend: 0x0, symName: __ZNSt3__16vectorINS0_IbNS_9allocatorIbEEEENS1_IS3_EEED1B8ne200100Ev, symObjAddr: 0x680, symBinAddr: 0xA540, symSize: 0x70 }
  - { offset: 0x83265, size: 0x8, addend: 0x0, symName: __ZNSt3__16vectorINS_3setIiNS_4lessIiEENS_9allocatorIiEEEENS4_IS6_EEED1B8ne200100Ev, symObjAddr: 0x6F0, symBinAddr: 0xA5B0, symSize: 0x70 }
  - { offset: 0x83692, size: 0x8, addend: 0x0, symName: __ZNSt3__16vectorIbNS_9allocatorIbEEE7reserveEm, symObjAddr: 0x5CC0, symBinAddr: 0xFAB0, symSize: 0x140 }
  - { offset: 0x83A66, size: 0x8, addend: 0x0, symName: __ZNSt3__16vectorIbNS_9allocatorIbEEE20__throw_length_errorB8ne200100Ev, symObjAddr: 0x5E00, symBinAddr: 0xFBF0, symSize: 0x10 }
  - { offset: 0x83A7E, size: 0x8, addend: 0x0, symName: __ZNSt3__16vectorIiNS_9allocatorIiEEE8__appendEmRKi, symObjAddr: 0x5E10, symBinAddr: 0xFC00, symSize: 0x200 }
  - { offset: 0x83F79, size: 0x8, addend: 0x0, symName: __ZNSt3__16__treeIiNS_4lessIiEENS_9allocatorIiEEE7destroyEPNS_11__tree_nodeIiPvEE, symObjAddr: 0x5720, symBinAddr: 0xF5D0, symSize: 0x40 }
  - { offset: 0x84090, size: 0x8, addend: 0x0, symName: __ZN18llama_batch_allocrC1Ej, symObjAddr: 0x760, symBinAddr: 0xA620, symSize: 0x10 }
  - { offset: 0x8583C, size: 0x8, addend: 0x0, symName: __ZN18llama_batch_allocr4initERK11llama_batchRK11llama_vocabPK14llama_memory_ijjb, symObjAddr: 0x770, symBinAddr: 0xA630, symSize: 0x1CA0 }
  - { offset: 0x89614, size: 0x8, addend: 0x0, symName: __ZN18llama_batch_allocr5clearEv, symObjAddr: 0x2410, symBinAddr: 0xC2D0, symSize: 0x1E0 }
  - { offset: 0x8A24E, size: 0x8, addend: 0x0, symName: __ZNSt3__16vectorIPiNS_9allocatorIS1_EEE8__appendEm, symObjAddr: 0x6170, symBinAddr: 0xFE00, symSize: 0x150 }
  - { offset: 0x8A66C, size: 0x8, addend: 0x0, symName: __ZN18llama_batch_allocr12ubatch_printERK12llama_ubatchi, symObjAddr: 0x25F0, symBinAddr: 0xC4B0, symSize: 0xCD0 }
  - { offset: 0x8BABA, size: 0x8, addend: 0x0, symName: __ZNSt3__118basic_stringstreamIcNS_11char_traitsIcEENS_9allocatorIcEEEC1B8ne200100Ev, symObjAddr: 0x32C0, symBinAddr: 0xD180, symSize: 0x180 }
  - { offset: 0x8BD52, size: 0x8, addend: 0x0, symName: __ZNSt3__112__hash_tableINS_17__hash_value_typeINS_6bitsetILm256EEENS_6vectorIiNS_9allocatorIiEEEEEENS_22__unordered_map_hasherIS3_S8_NS_4hashIS3_EENS_8equal_toIS3_EELb1EEENS_21__unordered_map_equalIS3_S8_SD_SB_Lb1EEENS5_IS8_EEE25__emplace_unique_key_argsIS3_JRKNS_21piecewise_construct_tENS_5tupleIJRKS3_EEENSN_IJEEEEEENS_4pairINS_15__hash_iteratorIPNS_11__hash_nodeIS8_PvEEEEbEERKT_DpOT0_, symObjAddr: 0x6370, symBinAddr: 0xFF80, symSize: 0x4B0 }
  - { offset: 0x8C5D3, size: 0x8, addend: 0x0, symName: __ZNSt3__16vectorINS_6bitsetILm256EEENS_9allocatorIS2_EEE20__throw_length_errorB8ne200100Ev, symObjAddr: 0x6360, symBinAddr: 0xFF70, symSize: 0x10 }
  - { offset: 0x8C5EB, size: 0x8, addend: 0x0, symName: __ZNSt3__112__hash_tableINS_17__hash_value_typeINS_6bitsetILm256EEENS_6vectorIiNS_9allocatorIiEEEEEENS_22__unordered_map_hasherIS3_S8_NS_4hashIS3_EENS_8equal_toIS3_EELb1EEENS_21__unordered_map_equalIS3_S8_SD_SB_Lb1EEENS5_IS8_EEE25__emplace_unique_key_argsIS3_JRKNS_21piecewise_construct_tENS_5tupleIJRKS3_EEENSN_IJEEEEEENS_4pairINS_15__hash_iteratorIPNS_11__hash_nodeIS8_PvEEEEbEERKT_DpOT0_, symObjAddr: 0x6370, symBinAddr: 0xFF80, symSize: 0x4B0 }
  - { offset: 0x8C610, size: 0x8, addend: 0x0, symName: __ZNSt3__16vectorIaNS_9allocatorIaEEE20__throw_length_errorB8ne200100Ev, symObjAddr: 0x62D0, symBinAddr: 0xFF60, symSize: 0x10 }
  - { offset: 0x8C639, size: 0x8, addend: 0x0, symName: __ZN12llama_ubatchD1Ev, symObjAddr: 0x3560, symBinAddr: 0xD420, symSize: 0x40 }
  - { offset: 0x8C707, size: 0x8, addend: 0x0, symName: __ZNSt3__118basic_stringstreamIcNS_11char_traitsIcEENS_9allocatorIcEEED1Ev, symObjAddr: 0x34E0, symBinAddr: 0xD3A0, symSize: 0x80 }
  - { offset: 0x8CCDF, size: 0x8, addend: 0x0, symName: __ZNSt3__115basic_stringbufIcNS_11char_traitsIcEENS_9allocatorIcEEE15__init_buf_ptrsB8ne200100Ev, symObjAddr: 0x6A20, symBinAddr: 0x10630, symSize: 0x120 }
  - { offset: 0x8CF3C, size: 0x8, addend: 0x0, symName: __ZNK18llama_batch_allocr11seq_pos_minEi, symObjAddr: 0x3440, symBinAddr: 0xD300, symSize: 0x30 }
  - { offset: 0x8CFD9, size: 0x8, addend: 0x0, symName: __ZNK18llama_batch_allocr11seq_pos_maxEi, symObjAddr: 0x3470, symBinAddr: 0xD330, symSize: 0x70 }
  - { offset: 0x8D147, size: 0x8, addend: 0x0, symName: __ZN18llama_batch_allocr11split_resetEv, symObjAddr: 0x35A0, symBinAddr: 0xD460, symSize: 0x40 }
  - { offset: 0x8D67B, size: 0x8, addend: 0x0, symName: __ZN18llama_batch_allocr14ubatch_reserveEjj, symObjAddr: 0x35E0, symBinAddr: 0xD4A0, symSize: 0x550 }
  - { offset: 0x8E7E8, size: 0x8, addend: 0x0, symName: __ZNSt3__110shared_ptrIN12llama_ubatch6data_tEED1B8ne200100Ev, symObjAddr: 0x3B30, symBinAddr: 0xD9F0, symSize: 0x40 }
  - { offset: 0x8E87F, size: 0x8, addend: 0x0, symName: __ZNK18llama_batch_allocr9get_batchEv, symObjAddr: 0x3B70, symBinAddr: 0xDA30, symSize: 0x10 }
  - { offset: 0x8E8A9, size: 0x8, addend: 0x0, symName: __ZNK18llama_batch_allocr12get_n_tokensEv, symObjAddr: 0x3B80, symBinAddr: 0xDA40, symSize: 0x10 }
  - { offset: 0x8E8C9, size: 0x8, addend: 0x0, symName: __ZNK18llama_batch_allocr13get_n_outputsEv, symObjAddr: 0x3B90, symBinAddr: 0xDA50, symSize: 0x10 }
  - { offset: 0x8E8F1, size: 0x8, addend: 0x0, symName: __ZNK18llama_batch_allocr10get_n_usedEv, symObjAddr: 0x3BA0, symBinAddr: 0xDA60, symSize: 0x10 }
  - { offset: 0x8E919, size: 0x8, addend: 0x0, symName: __ZN18llama_batch_allocr11get_out_idsEv, symObjAddr: 0x3BB0, symBinAddr: 0xDA70, symSize: 0x10 }
  - { offset: 0x8E941, size: 0x8, addend: 0x0, symName: __ZN18llama_batch_allocr12split_simpleEj, symObjAddr: 0x3BC0, symBinAddr: 0xDA80, symSize: 0x250 }
  - { offset: 0x8F080, size: 0x8, addend: 0x0, symName: __ZN18llama_batch_allocr10ubatch_addERKNSt3__16vectorIiNS0_9allocatorIiEEEEjb, symObjAddr: 0x3E10, symBinAddr: 0xDCD0, symSize: 0xB80 }
  - { offset: 0x912FA, size: 0x8, addend: 0x0, symName: __ZNSt3__16vectorIfNS_9allocatorIfEEE8__appendEm, symObjAddr: 0x73E0, symBinAddr: 0x10FF0, symSize: 0x150 }
  - { offset: 0x91C0B, size: 0x8, addend: 0x0, symName: __ZN18llama_batch_allocr11split_equalEjb, symObjAddr: 0x4990, symBinAddr: 0xE850, symSize: 0x860 }
  - { offset: 0x9367A, size: 0x8, addend: 0x0, symName: __ZNSt3__16vectorIiNS_9allocatorIiEEE18__insert_with_sizeB8ne200100INS_11__wrap_iterIPiEES7_EES7_NS5_IPKiEET_T0_l, symObjAddr: 0x6FA0, symBinAddr: 0x10BB0, symSize: 0x440 }
  - { offset: 0x94302, size: 0x8, addend: 0x0, symName: __ZNSt3__128__exception_guard_exceptionsINS_6vectorINS1_IiNS_9allocatorIiEEEENS2_IS4_EEE16__destroy_vectorEED1B8ne200100Ev, symObjAddr: 0x6F30, symBinAddr: 0x10B40, symSize: 0x70 }
  - { offset: 0x94587, size: 0x8, addend: 0x0, symName: __ZNSt3__16vectorINS0_IiNS_9allocatorIiEEEENS1_IS3_EEED1B8ne200100Ev, symObjAddr: 0x51F0, symBinAddr: 0xF0B0, symSize: 0x70 }
  - { offset: 0x94854, size: 0x8, addend: 0x0, symName: __ZN18llama_batch_allocr9split_seqEj, symObjAddr: 0x5260, symBinAddr: 0xF120, symSize: 0x300 }
  - { offset: 0x95187, size: 0x8, addend: 0x0, symName: _llama_batch_get_one, symObjAddr: 0x5560, symBinAddr: 0xF420, symSize: 0x30 }
  - { offset: 0x951C1, size: 0x8, addend: 0x0, symName: _llama_batch_init, symObjAddr: 0x5590, symBinAddr: 0xF450, symSize: 0xE0 }
  - { offset: 0x952C6, size: 0x8, addend: 0x0, symName: _llama_batch_free, symObjAddr: 0x5670, symBinAddr: 0xF530, symSize: 0xA0 }
  - { offset: 0x9589B, size: 0x8, addend: 0x0, symName: __ZNSt3__16vectorINS_3setIiNS_4lessIiEENS_9allocatorIiEEEENS4_IS6_EEE20__throw_length_errorB8ne200100Ev, symObjAddr: 0x5980, symBinAddr: 0xF830, symSize: 0x10 }
  - { offset: 0x95CA6, size: 0x8, addend: 0x0, symName: __ZNSt3__16vectorINS0_IbNS_9allocatorIbEEEENS1_IS3_EEE20__throw_length_errorB8ne200100Ev, symObjAddr: 0x5CB0, symBinAddr: 0xFAA0, symSize: 0x10 }
  - { offset: 0x95CBE, size: 0x8, addend: 0x0, symName: __ZNSt3__16vectorIbNS_9allocatorIbEEE7reserveEm, symObjAddr: 0x5CC0, symBinAddr: 0xFAB0, symSize: 0x140 }
  - { offset: 0x962C9, size: 0x8, addend: 0x0, symName: __ZNSt3__16vectorIPiNS_9allocatorIS1_EEE20__throw_length_errorB8ne200100Ev, symObjAddr: 0x62C0, symBinAddr: 0xFF50, symSize: 0x10 }
  - { offset: 0x962E1, size: 0x8, addend: 0x0, symName: __ZNSt3__16vectorIaNS_9allocatorIaEEE20__throw_length_errorB8ne200100Ev, symObjAddr: 0x62D0, symBinAddr: 0xFF60, symSize: 0x10 }
  - { offset: 0x968FD, size: 0x8, addend: 0x0, symName: __ZNSt3__112__hash_tableINS_17__hash_value_typeINS_6bitsetILm256EEENS_6vectorIiNS_9allocatorIiEEEEEENS_22__unordered_map_hasherIS3_S8_NS_4hashIS3_EENS_8equal_toIS3_EELb1EEENS_21__unordered_map_equalIS3_S8_SD_SB_Lb1EEENS5_IS8_EEE11__do_rehashILb1EEEvm, symObjAddr: 0x6870, symBinAddr: 0x10480, symSize: 0x1B0 }
  - { offset: 0x96CB9, size: 0x8, addend: 0x0, symName: __ZNSt3__110unique_ptrINS_11__hash_nodeINS_17__hash_value_typeINS_6bitsetILm256EEENS_6vectorIiNS_9allocatorIiEEEEEEPvEENS_22__hash_node_destructorINS6_ISB_EEEEED1B8ne200100Ev, symObjAddr: 0x6820, symBinAddr: 0x10430, symSize: 0x50 }
  - { offset: 0x97626, size: 0x8, addend: 0x0, symName: __ZNSt3__120__shared_ptr_emplaceIN12llama_ubatch6data_tENS_9allocatorIS2_EEED1Ev, symObjAddr: 0x6DF0, symBinAddr: 0x10A00, symSize: 0x20 }
  - { offset: 0x9767E, size: 0x8, addend: 0x0, symName: __ZNSt3__120__shared_ptr_emplaceIN12llama_ubatch6data_tENS_9allocatorIS2_EEED0Ev, symObjAddr: 0x6E10, symBinAddr: 0x10A20, symSize: 0x30 }
  - { offset: 0x9778A, size: 0x8, addend: 0x0, symName: __ZNSt3__120__shared_ptr_emplaceIN12llama_ubatch6data_tENS_9allocatorIS2_EEE16__on_zero_sharedEv, symObjAddr: 0x6E40, symBinAddr: 0x10A50, symSize: 0x10 }
  - { offset: 0x9784E, size: 0x8, addend: 0x0, symName: __ZN12llama_ubatch6data_tD2Ev, symObjAddr: 0x6E60, symBinAddr: 0x10A70, symSize: 0xD0 }
  - { offset: 0x98330, size: 0x8, addend: 0x0, symName: __ZNSt3__120__shared_ptr_emplaceIN12llama_ubatch6data_tENS_9allocatorIS2_EEE21__on_zero_shared_weakEv, symObjAddr: 0x6E50, symBinAddr: 0x10A60, symSize: 0x10 }
  - { offset: 0x98A7A, size: 0x8, addend: 0x0, symName: __ZNSt3__16vectorIfNS_9allocatorIfEEE20__throw_length_errorB8ne200100Ev, symObjAddr: 0x7530, symBinAddr: 0x11140, symSize: 0x10 }
  - { offset: 0x9A9A5, size: 0x8, addend: 0x0, symName: __ZL18LLM_CHAT_TEMPLATES, symObjAddr: 0x869C0, symBinAddr: 0x3AF0A0, symSize: 0x0 }
  - { offset: 0xA2863, size: 0x8, addend: 0x0, symName: __ZNSt3__1eqB8ne200100IcNS_11char_traitsIcEENS_9allocatorIcEEEEbRKNS_12basic_stringIT_T0_T1_EEPKS6_, symObjAddr: 0x5CF0, symBinAddr: 0x16C30, symSize: 0x70 }
  - { offset: 0xA2A33, size: 0x8, addend: 0x0, symName: __ZNSt3__1lsB8ne200100IcNS_11char_traitsIcEENS_9allocatorIcEEEERNS_13basic_ostreamIT_T0_EES9_RKNS_12basic_stringIS6_S7_T1_EE, symObjAddr: 0x5D60, symBinAddr: 0x16CA0, symSize: 0x30 }
  - { offset: 0xA2ABF, size: 0x8, addend: 0x0, symName: __ZNSt3__1neB8ne200100IcNS_11char_traitsIcEENS_9allocatorIcEEEEbRKNS_12basic_stringIT_T0_T1_EEPKS6_, symObjAddr: 0x5F40, symBinAddr: 0x16E80, symSize: 0x70 }
  - { offset: 0xA4DDA, size: 0x8, addend: 0x0, symName: __ZNSt3__13mapINS_12basic_stringIcNS_11char_traitsIcEENS_9allocatorIcEEEE17llm_chat_templateNS_4lessIS6_EENS4_INS_4pairIKS6_S7_EEEEED1B8ne200100Ev, symObjAddr: 0x0, symBinAddr: 0x11150, symSize: 0x10 }
  - { offset: 0xA4E8D, size: 0x8, addend: 0x0, symName: __ZNSt3__16__treeINS_12__value_typeINS_12basic_stringIcNS_11char_traitsIcEENS_9allocatorIcEEEE17llm_chat_templateEENS_19__map_value_compareIS7_S9_NS_4lessIS7_EELb1EEENS5_IS9_EEE7destroyEPNS_11__tree_nodeIS9_PvEE, symObjAddr: 0x6910, symBinAddr: 0x17520, symSize: 0x50 }
  - { offset: 0xA5124, size: 0x8, addend: 0x0, symName: __Z26llm_chat_template_from_strRKNSt3__112basic_stringIcNS_11char_traitsIcEENS_9allocatorIcEEEE, symObjAddr: 0x10, symBinAddr: 0x11160, symSize: 0x20 }
  - { offset: 0xA5157, size: 0x8, addend: 0x0, symName: __ZNKSt3__13mapINS_12basic_stringIcNS_11char_traitsIcEENS_9allocatorIcEEEE17llm_chat_templateNS_4lessIS6_EENS4_INS_4pairIKS6_S7_EEEEE2atERSB_, symObjAddr: 0x30, symBinAddr: 0x11180, symSize: 0x110 }
  - { offset: 0xA570F, size: 0x8, addend: 0x0, symName: __Z24llm_chat_detect_templateRKNSt3__112basic_stringIcNS_11char_traitsIcEENS_9allocatorIcEEEE, symObjAddr: 0x140, symBinAddr: 0x11290, symSize: 0x7D0 }
  - { offset: 0xA5DDB, size: 0x8, addend: 0x0, symName: '__ZZ24llm_chat_detect_templateRKNSt3__112basic_stringIcNS_11char_traitsIcEENS_9allocatorIcEEEEENK3$_0clEPKc', symObjAddr: 0x910, symBinAddr: 0x11A60, symSize: 0xD0 }
  - { offset: 0xA608C, size: 0x8, addend: 0x0, symName: __ZNKSt3__112basic_stringIcNS_11char_traitsIcEENS_9allocatorIcEEE4findB8ne200100EPKcm, symObjAddr: 0x9E0, symBinAddr: 0x11B30, symSize: 0xE0 }
  - { offset: 0xA6B83, size: 0x8, addend: 0x0, symName: __Z23llm_chat_apply_template17llm_chat_templateRKNSt3__16vectorIPK18llama_chat_messageNS0_9allocatorIS4_EEEERNS0_12basic_stringIcNS0_11char_traitsIcEENS5_IcEEEEb, symObjAddr: 0xAC0, symBinAddr: 0x11C10, symSize: 0x5020 }
  - { offset: 0xB7AA3, size: 0x8, addend: 0x0, symName: __ZL4trimRKNSt3__112basic_stringIcNS_11char_traitsIcEENS_9allocatorIcEEEE, symObjAddr: 0x5D90, symBinAddr: 0x16CD0, symSize: 0x1B0 }
  - { offset: 0xB895E, size: 0x8, addend: 0x0, symName: _llama_chat_builtin_templates, symObjAddr: 0x6030, symBinAddr: 0x16EF0, symSize: 0xA0 }
  - { offset: 0xB8E62, size: 0x8, addend: 0x0, symName: __ZNSt3__16__treeINS_12__value_typeINS_12basic_stringIcNS_11char_traitsIcEENS_9allocatorIcEEEE17llm_chat_templateEENS_19__map_value_compareIS7_S9_NS_4lessIS7_EELb1EEENS5_IS9_EEE30__emplace_hint_unique_key_argsIS7_JRKNS_4pairIKS7_S8_EEEEENSH_INS_15__tree_iteratorIS9_PNS_11__tree_nodeIS9_PvEElEEbEENS_21__tree_const_iteratorIS9_SQ_lEERKT_DpOT0_, symObjAddr: 0x6200, symBinAddr: 0x16F90, symSize: 0xF0 }
  - { offset: 0xB9253, size: 0x8, addend: 0x0, symName: __ZNSt3__16__treeINS_12__value_typeINS_12basic_stringIcNS_11char_traitsIcEENS_9allocatorIcEEEE17llm_chat_templateEENS_19__map_value_compareIS7_S9_NS_4lessIS7_EELb1EEENS5_IS9_EEE12__find_equalIS7_EERPNS_16__tree_node_baseIPvEENS_21__tree_const_iteratorIS9_PNS_11__tree_nodeIS9_SI_EElEERPNS_15__tree_end_nodeISK_EESL_RKT_, symObjAddr: 0x62F0, symBinAddr: 0x17080, symSize: 0x450 }
  - { offset: 0xB9F55, size: 0x8, addend: 0x0, symName: __ZNSt3__110unique_ptrINS_11__tree_nodeINS_12__value_typeINS_12basic_stringIcNS_11char_traitsIcEENS_9allocatorIcEEEE17llm_chat_templateEEPvEENS_22__tree_node_destructorINS6_ISC_EEEEED1B8ne200100Ev, symObjAddr: 0x6740, symBinAddr: 0x174D0, symSize: 0x50 }
  - { offset: 0xBB0FD, size: 0x8, addend: 0x0, symName: __GLOBAL__sub_I_llama_chat.cpp, symObjAddr: 0x7580, symBinAddr: 0x17570, symSize: 0x970 }
  - { offset: 0xBE157, size: 0x8, addend: 0x0, symName: __GLOBAL__sub_I_llama_chat.cpp.cold.1, symObjAddr: 0x7EF0, symBinAddr: 0x2B4B40, symSize: 0x2B }
  - { offset: 0xF397B, size: 0x8, addend: 0x0, symName: __ZNSt3__113__tree_removeB8ne200100IPNS_16__tree_node_baseIPvEEEEvT_S5_, symObjAddr: 0x10190, symBinAddr: 0x27BE0, symSize: 0x380 }
  - { offset: 0xFF20D, size: 0x8, addend: 0x0, symName: __ZN13llama_contextC2ERK11llama_model20llama_context_params, symObjAddr: 0x0, symBinAddr: 0x17EE0, symSize: 0x1C00 }
  - { offset: 0x103521, size: 0x8, addend: 0x0, symName: __ZNK13llama_context12graph_get_cbEv, symObjAddr: 0x8AC0, symBinAddr: 0x20920, symSize: 0x20 }
  - { offset: 0x105B06, size: 0x8, addend: 0x0, symName: __ZN13llama_context11set_samplerEiP13llama_sampler, symObjAddr: 0x1C00, symBinAddr: 0x19AE0, symSize: 0x370 }
  - { offset: 0x1066EE, size: 0x8, addend: 0x0, symName: __ZN13llama_context14output_reserveEi, symObjAddr: 0x2020, symBinAddr: 0x19F00, symSize: 0x430 }
  - { offset: 0x107072, size: 0x8, addend: 0x0, symName: __ZN13llama_context13sched_reserveEv, symObjAddr: 0x2450, symBinAddr: 0x1A330, symSize: 0x980 }
  - { offset: 0x1084C8, size: 0x8, addend: 0x0, symName: __ZNSt3__16vectorINS_10unique_ptrI12ggml_backend20ggml_backend_deleterEENS_9allocatorIS4_EEE20__throw_length_errorB8ne200100Ev, symObjAddr: 0xFFD0, symBinAddr: 0x27BA0, symSize: 0x10 }
  - { offset: 0x1084E0, size: 0x8, addend: 0x0, symName: __ZNSt3__16vectorINS_4pairIP12ggml_backendPFvS3_iEEENS_9allocatorIS6_EEE20__throw_length_errorB8ne200100Ev, symObjAddr: 0xFFE0, symBinAddr: 0x27BB0, symSize: 0x10 }
  - { offset: 0x1084EB, size: 0x8, addend: 0x0, symName: __ZNSt3__16vectorIP12ggml_backendNS_9allocatorIS2_EEE20__throw_length_errorB8ne200100Ev, symObjAddr: 0x10000, symBinAddr: 0x27BC0, symSize: 0x10 }
  - { offset: 0x108503, size: 0x8, addend: 0x0, symName: __ZNSt3__16vectorImNS_9allocatorImEEE20__throw_length_errorB8ne200100Ev, symObjAddr: 0x10010, symBinAddr: 0x27BD0, symSize: 0x10 }
  - { offset: 0x10850E, size: 0x8, addend: 0x0, symName: __ZNSt3__16vectorImNS_9allocatorImEEE20__throw_length_errorB8ne200100Ev, symObjAddr: 0x10010, symBinAddr: 0x27BD0, symSize: 0x10 }
  - { offset: 0x10853B, size: 0x8, addend: 0x0, symName: __ZNSt3__16vectorIP12ggml_backendNS_9allocatorIS2_EEE20__throw_length_errorB8ne200100Ev, symObjAddr: 0x10000, symBinAddr: 0x27BC0, symSize: 0x10 }
  - { offset: 0x108546, size: 0x8, addend: 0x0, symName: __ZNSt3__16vectorINS_4pairIP12ggml_backendPFvS3_iEEENS_9allocatorIS6_EEE20__throw_length_errorB8ne200100Ev, symObjAddr: 0xFFE0, symBinAddr: 0x27BB0, symSize: 0x10 }
  - { offset: 0x1085C7, size: 0x8, addend: 0x0, symName: __ZNSt3__16vectorINS_10unique_ptrI12ggml_backend20ggml_backend_deleterEENS_9allocatorIS4_EEED1B8ne200100Ev, symObjAddr: 0x2E00, symBinAddr: 0x1ACB0, symSize: 0x80 }
  - { offset: 0x108788, size: 0x8, addend: 0x0, symName: __ZNSt3__110unique_ptrI18ggml_backend_sched26ggml_backend_sched_deleterED1B8ne200100Ev, symObjAddr: 0x2E80, symBinAddr: 0x1AD30, symSize: 0x30 }
  - { offset: 0x108815, size: 0x8, addend: 0x0, symName: __ZNSt3__110unique_ptrI18llama_batch_allocrNS_14default_deleteIS1_EEED1B8ne200100Ev, symObjAddr: 0x2EB0, symBinAddr: 0x1AD60, symSize: 0x40 }
  - { offset: 0x1088D4, size: 0x8, addend: 0x0, symName: __ZNSt3__16__treeINS_12__value_typeIiNS_6vectorIfNS_9allocatorIfEEEEEENS_19__map_value_compareIiS6_NS_4lessIiEELb1EEENS3_IS6_EEE7destroyEPNS_11__tree_nodeIS6_PvEE, symObjAddr: 0xFF80, symBinAddr: 0x27B50, symSize: 0x50 }
  - { offset: 0x108B8A, size: 0x8, addend: 0x0, symName: __ZN13llama_context13sampling_infoD1Ev, symObjAddr: 0x2EF0, symBinAddr: 0x1ADA0, symSize: 0x70 }
  - { offset: 0x109128, size: 0x8, addend: 0x0, symName: __ZN11llama_crossD1Ev, symObjAddr: 0x2F60, symBinAddr: 0x1AE10, symSize: 0x80 }
  - { offset: 0x10946D, size: 0x8, addend: 0x0, symName: __ZNSt3__113unordered_mapIP18llama_adapter_lorafNS_4hashIS2_EENS_8equal_toIS2_EENS_9allocatorINS_4pairIKS2_fEEEEED1B8ne200100Ev, symObjAddr: 0x2FE0, symBinAddr: 0x1AE90, symSize: 0x50 }
  - { offset: 0x1096F2, size: 0x8, addend: 0x0, symName: __ZN18llama_adapter_cvecD2Ev, symObjAddr: 0xF3A0, symBinAddr: 0x271C0, symSize: 0xF0 }
  - { offset: 0x10A2B3, size: 0x8, addend: 0x0, symName: _llama_set_abort_callback, symObjAddr: 0x1F70, symBinAddr: 0x19E50, symSize: 0xB0 }
  - { offset: 0x10A64E, size: 0x8, addend: 0x0, symName: __ZN13llama_context11synchronizeEv, symObjAddr: 0x34D0, symBinAddr: 0x1B370, symSize: 0xC0 }
  - { offset: 0x10A713, size: 0x8, addend: 0x0, symName: __ZNSt3__16vectorIjNS_9allocatorIjEEE8__appendEm, symObjAddr: 0x11280, symBinAddr: 0x28940, symSize: 0x150 }
  - { offset: 0x10B04B, size: 0x8, addend: 0x0, symName: __ZN13llama_context13graph_reserveEjjjPK22llama_memory_context_ibPm, symObjAddr: 0x3610, symBinAddr: 0x1B4B0, symSize: 0x5C0 }
  - { offset: 0x10BEE1, size: 0x8, addend: 0x0, symName: __ZNSt3__113__tree_removeB8ne200100IPNS_16__tree_node_baseIPvEEEEvT_S5_, symObjAddr: 0x10190, symBinAddr: 0x27BE0, symSize: 0x380 }
  - { offset: 0x10C131, size: 0x8, addend: 0x0, symName: __ZN18llama_batch_allocrD2Ev, symObjAddr: 0xF650, symBinAddr: 0x272B0, symSize: 0x1F0 }
  - { offset: 0x10D525, size: 0x8, addend: 0x0, symName: __ZNSt3__16__treeINS_12__value_typeIiP13llama_samplerEENS_19__map_value_compareIiS4_NS_4lessIiEELb1EEENS_9allocatorIS4_EEE7destroyEPNS_11__tree_nodeIS4_PvEE, symObjAddr: 0xFF40, symBinAddr: 0x27B10, symSize: 0x40 }
  - { offset: 0x10DC13, size: 0x8, addend: 0x0, symName: __ZN13llama_contextC1ERK11llama_model20llama_context_params, symObjAddr: 0x3030, symBinAddr: 0x1AEE0, symSize: 0x10 }
  - { offset: 0x10DD1A, size: 0x8, addend: 0x0, symName: __ZN13llama_contextD2Ev, symObjAddr: 0x3040, symBinAddr: 0x1AEF0, symSize: 0x470 }
  - { offset: 0x10F777, size: 0x8, addend: 0x0, symName: __ZN13llama_contextD1Ev, symObjAddr: 0x34C0, symBinAddr: 0x1B360, symSize: 0x10 }
  - { offset: 0x10F7D1, size: 0x8, addend: 0x0, symName: __ZNK13llama_context15graph_max_nodesEj, symObjAddr: 0x3590, symBinAddr: 0x1B430, symSize: 0x80 }
  - { offset: 0x110079, size: 0x8, addend: 0x0, symName: __ZNSt3__13mapIiP13llama_samplerNS_4lessIiEENS_9allocatorINS_4pairIKiS2_EEEEE6insertB8ne200100INS_20__map_const_iteratorINS_21__tree_const_iteratorINS_12__value_typeIiS2_EEPNS_11__tree_nodeISF_PvEElEEEEEEvT_SM_, symObjAddr: 0x113E0, symBinAddr: 0x28AA0, symSize: 0x100 }
  - { offset: 0x1100BF, size: 0x8, addend: 0x0, symName: __ZNSt3__13mapIiP13llama_samplerNS_4lessIiEENS_9allocatorINS_4pairIKiS2_EEEEE6insertB8ne200100INS_20__map_const_iteratorINS_21__tree_const_iteratorINS_12__value_typeIiS2_EEPNS_11__tree_nodeISF_PvEElEEEEEEvT_SM_, symObjAddr: 0x113E0, symBinAddr: 0x28AA0, symSize: 0x100 }
  - { offset: 0x1104CC, size: 0x8, addend: 0x0, symName: __ZN16llm_graph_paramsD1Ev, symObjAddr: 0x6120, symBinAddr: 0x1DFC0, symSize: 0x90 }
  - { offset: 0x1106EC, size: 0x8, addend: 0x0, symName: __ZNK13llama_context9get_modelEv, symObjAddr: 0x3BD0, symBinAddr: 0x1BA70, symSize: 0x10 }
  - { offset: 0x11070C, size: 0x8, addend: 0x0, symName: __ZNK13llama_context11get_cparamsEv, symObjAddr: 0x3BE0, symBinAddr: 0x1BA80, symSize: 0x10 }
  - { offset: 0x110734, size: 0x8, addend: 0x0, symName: __ZNK13llama_context9get_schedEv, symObjAddr: 0x3BF0, symBinAddr: 0x1BA90, symSize: 0x10 }
  - { offset: 0x11077C, size: 0x8, addend: 0x0, symName: __ZNK13llama_context5n_ctxEv, symObjAddr: 0x3C00, symBinAddr: 0x1BAA0, symSize: 0x10 }
  - { offset: 0x11079C, size: 0x8, addend: 0x0, symName: __ZNK13llama_context9n_ctx_seqEv, symObjAddr: 0x3C10, symBinAddr: 0x1BAB0, symSize: 0x10 }
  - { offset: 0x1107BC, size: 0x8, addend: 0x0, symName: __ZNK13llama_context7n_batchEv, symObjAddr: 0x3C20, symBinAddr: 0x1BAC0, symSize: 0x10 }
  - { offset: 0x1107DC, size: 0x8, addend: 0x0, symName: __ZNK13llama_context8n_ubatchEv, symObjAddr: 0x3C30, symBinAddr: 0x1BAD0, symSize: 0x10 }
  - { offset: 0x1107FC, size: 0x8, addend: 0x0, symName: __ZNK13llama_context9n_seq_maxEv, symObjAddr: 0x3C40, symBinAddr: 0x1BAE0, symSize: 0x10 }
  - { offset: 0x11081C, size: 0x8, addend: 0x0, symName: __ZNK13llama_context9n_threadsEv, symObjAddr: 0x3C50, symBinAddr: 0x1BAF0, symSize: 0x10 }
  - { offset: 0x11083C, size: 0x8, addend: 0x0, symName: __ZNK13llama_context15n_threads_batchEv, symObjAddr: 0x3C60, symBinAddr: 0x1BB00, symSize: 0x10 }
  - { offset: 0x110872, size: 0x8, addend: 0x0, symName: __ZNK13llama_context10get_memoryEv, symObjAddr: 0x3C70, symBinAddr: 0x1BB10, symSize: 0x10 }
  - { offset: 0x1108C8, size: 0x8, addend: 0x0, symName: __ZN13llama_context13memory_updateEb, symObjAddr: 0x3C80, symBinAddr: 0x1BB20, symSize: 0x1B0 }
  - { offset: 0x110CD0, size: 0x8, addend: 0x0, symName: __ZNK13llama_context12pooling_typeEv, symObjAddr: 0x3E30, symBinAddr: 0x1BCD0, symSize: 0x10 }
  - { offset: 0x110CF0, size: 0x8, addend: 0x0, symName: __ZN13llama_context10get_logitsEv, symObjAddr: 0x3E40, symBinAddr: 0x1BCE0, symSize: 0x20 }
  - { offset: 0x110D27, size: 0x8, addend: 0x0, symName: __ZN13llama_context14output_reorderEv, symObjAddr: 0x3E60, symBinAddr: 0x1BD00, symSize: 0x950 }
  - { offset: 0x110F75, size: 0x8, addend: 0x0, symName: __ZNK13llama_context18output_resolve_rowEi, symObjAddr: 0x47B0, symBinAddr: 0x1C650, symSize: 0x1B0 }
  - { offset: 0x1110E2, size: 0x8, addend: 0x0, symName: __ZN13llama_context14get_logits_ithEi, symObjAddr: 0x4960, symBinAddr: 0x1C800, symSize: 0x280 }
  - { offset: 0x111299, size: 0x8, addend: 0x0, symName: __ZN13llama_context14get_embeddingsEv, symObjAddr: 0x4BE0, symBinAddr: 0x1CA80, symSize: 0x20 }
  - { offset: 0x1112D0, size: 0x8, addend: 0x0, symName: __ZNK13llama_context18get_sampled_tokensEv, symObjAddr: 0x4C00, symBinAddr: 0x1CAA0, symSize: 0x10 }
  - { offset: 0x1112F8, size: 0x8, addend: 0x0, symName: __ZN13llama_context18get_embeddings_ithEi, symObjAddr: 0x4C10, symBinAddr: 0x1CAB0, symSize: 0x290 }
  - { offset: 0x1115DF, size: 0x8, addend: 0x0, symName: __ZN13llama_context18get_embeddings_seqEi, symObjAddr: 0x4EA0, symBinAddr: 0x1CD40, symSize: 0x50 }
  - { offset: 0x111613, size: 0x8, addend: 0x0, symName: __ZN13llama_context18get_embeddings_seqEi, symObjAddr: 0x4EA0, symBinAddr: 0x1CD40, symSize: 0x50 }
  - { offset: 0x111631, size: 0x8, addend: 0x0, symName: __ZN13llama_context18get_embeddings_seqEi, symObjAddr: 0x4EA0, symBinAddr: 0x1CD40, symSize: 0x50 }
  - { offset: 0x111658, size: 0x8, addend: 0x0, symName: __ZN13llama_context18get_embeddings_seqEi, symObjAddr: 0x4EA0, symBinAddr: 0x1CD40, symSize: 0x50 }
  - { offset: 0x11176D, size: 0x8, addend: 0x0, symName: __ZN13llama_context21get_sampled_token_ithEi, symObjAddr: 0x4EF0, symBinAddr: 0x1CD90, symSize: 0xD0 }
  - { offset: 0x111836, size: 0x8, addend: 0x0, symName: __ZN13llama_context21get_sampled_probs_ithEi, symObjAddr: 0x4FC0, symBinAddr: 0x1CE60, symSize: 0xE0 }
  - { offset: 0x111913, size: 0x8, addend: 0x0, symName: __ZN13llama_context22get_sampled_logits_ithEi, symObjAddr: 0x50A0, symBinAddr: 0x1CF40, symSize: 0xE0 }
  - { offset: 0x111A06, size: 0x8, addend: 0x0, symName: __ZN13llama_context26get_sampled_candidates_ithEi, symObjAddr: 0x5180, symBinAddr: 0x1D020, symSize: 0xA0 }
  - { offset: 0x111ABE, size: 0x8, addend: 0x0, symName: __ZN13llama_context28get_sampled_candidates_countEi, symObjAddr: 0x5220, symBinAddr: 0x1D0C0, symSize: 0xB0 }
  - { offset: 0x111B92, size: 0x8, addend: 0x0, symName: __ZN13llama_context24get_sampled_logits_countEi, symObjAddr: 0x52D0, symBinAddr: 0x1D170, symSize: 0xC0 }
  - { offset: 0x111C66, size: 0x8, addend: 0x0, symName: __ZN13llama_context23get_sampled_probs_countEi, symObjAddr: 0x5390, symBinAddr: 0x1D230, symSize: 0xB0 }
  - { offset: 0x111D3A, size: 0x8, addend: 0x0, symName: __ZN13llama_context17attach_threadpoolEP15ggml_threadpoolS1_, symObjAddr: 0x5440, symBinAddr: 0x1D2E0, symSize: 0x50 }
  - { offset: 0x111D81, size: 0x8, addend: 0x0, symName: __ZN13llama_context17detach_threadpoolEv, symObjAddr: 0x5490, symBinAddr: 0x1D330, symSize: 0x40 }
  - { offset: 0x111DB6, size: 0x8, addend: 0x0, symName: __ZN13llama_context13set_n_threadsEii, symObjAddr: 0x54D0, symBinAddr: 0x1D370, symSize: 0x50 }
  - { offset: 0x111E09, size: 0x8, addend: 0x0, symName: __ZN13llama_context18set_abort_callbackEPFbPvES0_, symObjAddr: 0x5520, symBinAddr: 0x1D3C0, symSize: 0xB0 }
  - { offset: 0x111F98, size: 0x8, addend: 0x0, symName: __ZN13llama_context14set_embeddingsEb, symObjAddr: 0x55D0, symBinAddr: 0x1D470, symSize: 0x40 }
  - { offset: 0x111FDC, size: 0x8, addend: 0x0, symName: __ZN13llama_context15set_causal_attnEb, symObjAddr: 0x5610, symBinAddr: 0x1D4B0, symSize: 0x40 }
  - { offset: 0x112020, size: 0x8, addend: 0x0, symName: __ZN13llama_context10set_warmupEb, symObjAddr: 0x5650, symBinAddr: 0x1D4F0, symSize: 0x40 }
  - { offset: 0x1120B6, size: 0x8, addend: 0x0, symName: __ZN13llama_context16set_adapter_loraEP18llama_adapter_loraf, symObjAddr: 0x5690, symBinAddr: 0x1D530, symSize: 0xA0 }
  - { offset: 0x1121E9, size: 0x8, addend: 0x0, symName: __ZNSt3__112__hash_tableINS_17__hash_value_typeIP18llama_adapter_lorafEENS_22__unordered_map_hasherIS3_S4_NS_4hashIS3_EENS_8equal_toIS3_EELb1EEENS_21__unordered_map_equalIS3_S4_S9_S7_Lb1EEENS_9allocatorIS4_EEE4findIS3_EENS_15__hash_iteratorIPNS_11__hash_nodeIS4_PvEEEERKT_, symObjAddr: 0x10510, symBinAddr: 0x27F60, symSize: 0x180 }
  - { offset: 0x112240, size: 0x8, addend: 0x0, symName: __ZNSt3__112__hash_tableINS_17__hash_value_typeIP18llama_adapter_lorafEENS_22__unordered_map_hasherIS3_S4_NS_4hashIS3_EENS_8equal_toIS3_EELb1EEENS_21__unordered_map_equalIS3_S4_S9_S7_Lb1EEENS_9allocatorIS4_EEE4findIS3_EENS_15__hash_iteratorIPNS_11__hash_nodeIS4_PvEEEERKT_, symObjAddr: 0x10510, symBinAddr: 0x27F60, symSize: 0x180 }
  - { offset: 0x11225C, size: 0x8, addend: 0x0, symName: __ZNSt3__112__hash_tableINS_17__hash_value_typeIP18llama_adapter_lorafEENS_22__unordered_map_hasherIS3_S4_NS_4hashIS3_EENS_8equal_toIS3_EELb1EEENS_21__unordered_map_equalIS3_S4_S9_S7_Lb1EEENS_9allocatorIS4_EEE4findIS3_EENS_15__hash_iteratorIPNS_11__hash_nodeIS4_PvEEEERKT_, symObjAddr: 0x10510, symBinAddr: 0x27F60, symSize: 0x180 }
  - { offset: 0x112352, size: 0x8, addend: 0x0, symName: __ZNSt3__112__hash_tableINS_17__hash_value_typeIP18llama_adapter_lorafEENS_22__unordered_map_hasherIS3_S4_NS_4hashIS3_EENS_8equal_toIS3_EELb1EEENS_21__unordered_map_equalIS3_S4_S9_S7_Lb1EEENS_9allocatorIS4_EEE25__emplace_unique_key_argsIS3_JRKNS_21piecewise_construct_tENS_5tupleIJRKS3_EEENSK_IJEEEEEENS_4pairINS_15__hash_iteratorIPNS_11__hash_nodeIS4_PvEEEEbEERKT_DpOT0_, symObjAddr: 0x10690, symBinAddr: 0x280E0, symSize: 0x460 }
  - { offset: 0x112C9E, size: 0x8, addend: 0x0, symName: __ZN13llama_context15rm_adapter_loraEP18llama_adapter_lora, symObjAddr: 0x5730, symBinAddr: 0x1D5D0, symSize: 0x90 }
  - { offset: 0x112EF3, size: 0x8, addend: 0x0, symName: __ZNSt3__112__hash_tableINS_17__hash_value_typeIP18llama_adapter_lorafEENS_22__unordered_map_hasherIS3_S4_NS_4hashIS3_EENS_8equal_toIS3_EELb1EEENS_21__unordered_map_equalIS3_S4_S9_S7_Lb1EEENS_9allocatorIS4_EEE6removeENS_21__hash_const_iteratorIPNS_11__hash_nodeIS4_PvEEEE, symObjAddr: 0x10CA0, symBinAddr: 0x286F0, symSize: 0x200 }
  - { offset: 0x1131DD, size: 0x8, addend: 0x0, symName: __ZN13llama_context18clear_adapter_loraEv, symObjAddr: 0x57C0, symBinAddr: 0x1D660, symSize: 0x90 }
  - { offset: 0x1133EB, size: 0x8, addend: 0x0, symName: __ZN13llama_context18apply_adapter_cvecEPKfmiii, symObjAddr: 0x5850, symBinAddr: 0x1D6F0, symSize: 0x80 }
  - { offset: 0x113477, size: 0x8, addend: 0x0, symName: __ZN13llama_context14process_ubatchERK12llama_ubatch14llm_graph_typeP22llama_memory_context_iR11ggml_status, symObjAddr: 0x58D0, symBinAddr: 0x1D770, symSize: 0x590 }
  - { offset: 0x114068, size: 0x8, addend: 0x0, symName: __ZN13llama_context13graph_computeEP11ggml_cgraphb, symObjAddr: 0x6050, symBinAddr: 0x1DEF0, symSize: 0xD0 }
  - { offset: 0x114270, size: 0x8, addend: 0x0, symName: __ZNK13llama_context12graph_paramsEP16llm_graph_resultRK12llama_ubatchPK22llama_memory_context_i14llm_graph_type, symObjAddr: 0x5E60, symBinAddr: 0x1DD00, symSize: 0x1F0 }
  - { offset: 0x114FA7, size: 0x8, addend: 0x0, symName: __ZN13llama_context6encodeERK11llama_batch, symObjAddr: 0x61B0, symBinAddr: 0x1E050, symSize: 0xB70 }
  - { offset: 0x117BA2, size: 0x8, addend: 0x0, symName: __ZN13llama_context6decodeERK11llama_batch, symObjAddr: 0x6D60, symBinAddr: 0x1EBC0, symSize: 0x1A80 }
  - { offset: 0x11AB2F, size: 0x8, addend: 0x0, symName: __ZL24copy_tensor_async_floatsRKNSt3__13mapIiP11ggml_tensorNS_4lessIiEENS_9allocatorINS_4pairIKiS2_EEEEEEPfmRNS_6vectorIjNS5_IjEEEERKNS0_IijS4_NS5_INS6_IS7_jEEEEEEP18ggml_backend_sched, symObjAddr: 0x87E0, symBinAddr: 0x20640, symSize: 0x1C0 }
  - { offset: 0x11AF93, size: 0x8, addend: 0x0, symName: __ZNSt3__16__treeINS_12__value_typeIijEENS_19__map_value_compareIiS2_NS_4lessIiEELb1EEENS_9allocatorIS2_EEE7destroyEPNS_11__tree_nodeIS2_PvEE, symObjAddr: 0x11230, symBinAddr: 0x288F0, symSize: 0x40 }
  - { offset: 0x11B0BD, size: 0x8, addend: 0x0, symName: __ZNSt3__16vectorIN13llama_context9swap_infoENS_9allocatorIS2_EEE9push_backB8ne200100EOS2_, symObjAddr: 0x89A0, symBinAddr: 0x20800, symSize: 0x110 }
  - { offset: 0x11B7B3, size: 0x8, addend: 0x0, symName: __ZNSt3__16vectorIN13llama_context9swap_infoENS_9allocatorIS2_EEE20__throw_length_errorB8ne200100Ev, symObjAddr: 0x11270, symBinAddr: 0x28930, symSize: 0x10 }
  - { offset: 0x11B7CB, size: 0x8, addend: 0x0, symName: __ZNSt3__16vectorIjNS_9allocatorIjEEE8__appendEm, symObjAddr: 0x11280, symBinAddr: 0x28940, symSize: 0x150 }
  - { offset: 0x11B7D6, size: 0x8, addend: 0x0, symName: __ZNK13llama_context18get_gf_res_reserveEv, symObjAddr: 0x8AB0, symBinAddr: 0x20910, symSize: 0x10 }
  - { offset: 0x11B917, size: 0x8, addend: 0x0, symName: __ZN13llama_context14state_get_sizeEv, symObjAddr: 0x8AE0, symBinAddr: 0x20940, symSize: 0x90 }
  - { offset: 0x11B9D9, size: 0x8, addend: 0x0, symName: __ZN13llama_context16state_write_dataER16llama_io_write_i, symObjAddr: 0x8B70, symBinAddr: 0x209D0, symSize: 0x350 }
  - { offset: 0x11C585, size: 0x8, addend: 0x0, symName: __ZN20llama_io_write_dummyD1Ev, symObjAddr: 0x8EC0, symBinAddr: 0x20D20, symSize: 0x10 }
  - { offset: 0x11C6FE, size: 0x8, addend: 0x0, symName: __ZN13llama_context14state_get_dataEPhm, symObjAddr: 0x8ED0, symBinAddr: 0x20D30, symSize: 0xA0 }
  - { offset: 0x11C7FC, size: 0x8, addend: 0x0, symName: __ZN21llama_io_write_bufferD1Ev, symObjAddr: 0x8F70, symBinAddr: 0x20DD0, symSize: 0x10 }
  - { offset: 0x11C96F, size: 0x8, addend: 0x0, symName: __ZN13llama_context14state_set_dataEPKhm, symObjAddr: 0x8F80, symBinAddr: 0x20DE0, symSize: 0xA0 }
  - { offset: 0x11CA6D, size: 0x8, addend: 0x0, symName: __ZN13llama_context15state_read_dataER15llama_io_read_i, symObjAddr: 0x9020, symBinAddr: 0x20E80, symSize: 0x560 }
  - { offset: 0x11DB93, size: 0x8, addend: 0x0, symName: __ZN20llama_io_read_bufferD1Ev, symObjAddr: 0x9580, symBinAddr: 0x213E0, symSize: 0x10 }
  - { offset: 0x11DBFC, size: 0x8, addend: 0x0, symName: __ZN13llama_context18state_seq_get_sizeEij, symObjAddr: 0x9590, symBinAddr: 0x213F0, symSize: 0xB0 }
  - { offset: 0x11DD30, size: 0x8, addend: 0x0, symName: __ZN13llama_context20state_seq_write_dataER16llama_io_write_iij, symObjAddr: 0x9640, symBinAddr: 0x214A0, symSize: 0x30 }
  - { offset: 0x11DDAB, size: 0x8, addend: 0x0, symName: __ZN13llama_context18state_seq_get_dataEiPhmj, symObjAddr: 0x9670, symBinAddr: 0x214D0, symSize: 0xC0 }
  - { offset: 0x11DF58, size: 0x8, addend: 0x0, symName: __ZN13llama_context18state_seq_set_dataEiPKhmj, symObjAddr: 0x9730, symBinAddr: 0x21590, symSize: 0xC0 }
  - { offset: 0x11E0C8, size: 0x8, addend: 0x0, symName: __ZN13llama_context19state_seq_read_dataER15llama_io_read_iij, symObjAddr: 0x97F0, symBinAddr: 0x21650, symSize: 0x30 }
  - { offset: 0x11E596, size: 0x8, addend: 0x0, symName: __ZN13llama_context15state_load_fileEPKcPimPm, symObjAddr: 0x9820, symBinAddr: 0x21680, symSize: 0x1C0 }
  - { offset: 0x11EA4F, size: 0x8, addend: 0x0, symName: __ZN18llama_io_read_fileD1Ev, symObjAddr: 0x99E0, symBinAddr: 0x21840, symSize: 0x30 }
  - { offset: 0x11ED0A, size: 0x8, addend: 0x0, symName: __ZN13llama_context15state_save_fileEPKcPKim, symObjAddr: 0x9A10, symBinAddr: 0x21870, symSize: 0x100 }
  - { offset: 0x11F0FD, size: 0x8, addend: 0x0, symName: __ZN19llama_io_write_fileD1Ev, symObjAddr: 0x9B10, symBinAddr: 0x21970, symSize: 0x30 }
  - { offset: 0x11F24E, size: 0x8, addend: 0x0, symName: __ZN13llama_context19state_seq_load_fileEiPKcPimPm, symObjAddr: 0x9B40, symBinAddr: 0x219A0, symSize: 0x250 }
  - { offset: 0x11F799, size: 0x8, addend: 0x0, symName: __ZN13llama_context19state_seq_save_fileEiPKcPKim, symObjAddr: 0x9D90, symBinAddr: 0x21BF0, symSize: 0x170 }
  - { offset: 0x11FC4E, size: 0x8, addend: 0x0, symName: __ZN19llama_io_write_file7n_bytesEv, symObjAddr: 0x9F00, symBinAddr: 0x21D60, symSize: 0x10 }
  - { offset: 0x11FC6E, size: 0x8, addend: 0x0, symName: __ZNK13llama_context13perf_get_dataEv, symObjAddr: 0x9F10, symBinAddr: 0x21D70, symSize: 0xA0 }
  - { offset: 0x11FD35, size: 0x8, addend: 0x0, symName: __ZN13llama_context10perf_resetEv, symObjAddr: 0x9FB0, symBinAddr: 0x21E10, symSize: 0x40 }
  - { offset: 0x1204C7, size: 0x8, addend: 0x0, symName: __ZNK13llama_context16memory_breakdownEv, symObjAddr: 0x9FF0, symBinAddr: 0x21E50, symSize: 0x4D0 }
  - { offset: 0x1218DB, size: 0x8, addend: 0x0, symName: __ZNSt3__16__treeINS_12__value_typeIP24ggml_backend_buffer_typemEENS_19__map_value_compareIS3_S4_NS_4lessIS3_EELb1EEENS_9allocatorIS4_EEE7destroyEPNS_11__tree_nodeIS4_PvEE, symObjAddr: 0x11850, symBinAddr: 0x28F10, symSize: 0x40 }
  - { offset: 0x121A0A, size: 0x8, addend: 0x0, symName: __ZNSt3__16__treeINS_12__value_typeIP24ggml_backend_buffer_type27llama_memory_breakdown_dataEENS_19__map_value_compareIS3_S5_NS_4lessIS3_EELb1EEENS_9allocatorIS5_EEE7destroyEPNS_11__tree_nodeIS5_PvEE, symObjAddr: 0x11810, symBinAddr: 0x28ED0, symSize: 0x40 }
  - { offset: 0x121BDA, size: 0x8, addend: 0x0, symName: __ZN13llama_context8opt_initEP11llama_model16llama_opt_params, symObjAddr: 0xA4C0, symBinAddr: 0x22320, symSize: 0x660 }
  - { offset: 0x122693, size: 0x8, addend: 0x0, symName: __ZN13llama_context14opt_epoch_iterEP16ggml_opt_datasetP15ggml_opt_resultRKNSt3__16vectorIiNS4_9allocatorIiEEEESA_R11llama_batchPFvbP16ggml_opt_contextS1_S3_xxxEbxxx, symObjAddr: 0xAB20, symBinAddr: 0x22980, symSize: 0x970 }
  - { offset: 0x123785, size: 0x8, addend: 0x0, symName: __ZN13llama_context9opt_epochEP16ggml_opt_datasetP15ggml_opt_resultS3_xPFvbP16ggml_opt_contextS1_S3_xxxES7_, symObjAddr: 0xB490, symBinAddr: 0x232F0, symSize: 0x390 }
  - { offset: 0x124399, size: 0x8, addend: 0x0, symName: _llama_context_default_params, symObjAddr: 0xB820, symBinAddr: 0x23680, symSize: 0x30 }
  - { offset: 0x1243F7, size: 0x8, addend: 0x0, symName: _llama_init_from_model, symObjAddr: 0xB850, symBinAddr: 0x236B0, symSize: 0x240 }
  - { offset: 0x1245F6, size: 0x8, addend: 0x0, symName: _llama_new_context_with_model, symObjAddr: 0xBA90, symBinAddr: 0x238F0, symSize: 0x10 }
  - { offset: 0x124664, size: 0x8, addend: 0x0, symName: _llama_free, symObjAddr: 0xBAA0, symBinAddr: 0x23900, symSize: 0x30 }
  - { offset: 0x1246B7, size: 0x8, addend: 0x0, symName: _llama_n_ctx, symObjAddr: 0xBAD0, symBinAddr: 0x23930, symSize: 0x10 }
  - { offset: 0x124718, size: 0x8, addend: 0x0, symName: _llama_n_ctx_seq, symObjAddr: 0xBAE0, symBinAddr: 0x23940, symSize: 0x10 }
  - { offset: 0x124760, size: 0x8, addend: 0x0, symName: _llama_n_batch, symObjAddr: 0xBAF0, symBinAddr: 0x23950, symSize: 0x10 }
  - { offset: 0x1247A8, size: 0x8, addend: 0x0, symName: _llama_n_ubatch, symObjAddr: 0xBB00, symBinAddr: 0x23960, symSize: 0x10 }
  - { offset: 0x1247F0, size: 0x8, addend: 0x0, symName: _llama_n_seq_max, symObjAddr: 0xBB10, symBinAddr: 0x23970, symSize: 0x10 }
  - { offset: 0x124851, size: 0x8, addend: 0x0, symName: _llama_get_model, symObjAddr: 0xBB20, symBinAddr: 0x23980, symSize: 0x10 }
  - { offset: 0x1248B2, size: 0x8, addend: 0x0, symName: _llama_pooling_type, symObjAddr: 0xBB30, symBinAddr: 0x23990, symSize: 0x10 }
  - { offset: 0x12492B, size: 0x8, addend: 0x0, symName: _llama_attach_threadpool, symObjAddr: 0xBB40, symBinAddr: 0x239A0, symSize: 0x50 }
  - { offset: 0x1249CC, size: 0x8, addend: 0x0, symName: _llama_detach_threadpool, symObjAddr: 0xBB90, symBinAddr: 0x239F0, symSize: 0x40 }
  - { offset: 0x124A55, size: 0x8, addend: 0x0, symName: _llama_set_n_threads, symObjAddr: 0xBBD0, symBinAddr: 0x23A30, symSize: 0x50 }
  - { offset: 0x124B00, size: 0x8, addend: 0x0, symName: _llama_n_threads, symObjAddr: 0xBC20, symBinAddr: 0x23A80, symSize: 0x10 }
  - { offset: 0x124B61, size: 0x8, addend: 0x0, symName: _llama_n_threads_batch, symObjAddr: 0xBC30, symBinAddr: 0x23A90, symSize: 0x10 }
  - { offset: 0x124BCE, size: 0x8, addend: 0x0, symName: _llama_set_embeddings, symObjAddr: 0xBC40, symBinAddr: 0x23AA0, symSize: 0x40 }
  - { offset: 0x124C70, size: 0x8, addend: 0x0, symName: _llama_set_causal_attn, symObjAddr: 0xBC80, symBinAddr: 0x23AE0, symSize: 0x40 }
  - { offset: 0x124D0C, size: 0x8, addend: 0x0, symName: _llama_set_warmup, symObjAddr: 0xBCC0, symBinAddr: 0x23B20, symSize: 0x40 }
  - { offset: 0x124D83, size: 0x8, addend: 0x0, symName: _llama_synchronize, symObjAddr: 0xBD00, symBinAddr: 0x23B60, symSize: 0x10 }
  - { offset: 0x124DD9, size: 0x8, addend: 0x0, symName: _llama_get_logits, symObjAddr: 0xBD10, symBinAddr: 0x23B70, symSize: 0x30 }
  - { offset: 0x124E4B, size: 0x8, addend: 0x0, symName: _llama_get_logits_ith, symObjAddr: 0xBD40, symBinAddr: 0x23BA0, symSize: 0x40 }
  - { offset: 0x124EED, size: 0x8, addend: 0x0, symName: _llama_get_embeddings, symObjAddr: 0xBD80, symBinAddr: 0x23BE0, symSize: 0x30 }
  - { offset: 0x124F5F, size: 0x8, addend: 0x0, symName: _llama_get_embeddings_ith, symObjAddr: 0xBDB0, symBinAddr: 0x23C10, symSize: 0x20 }
  - { offset: 0x124FEF, size: 0x8, addend: 0x0, symName: _llama_get_embeddings_seq, symObjAddr: 0xBDD0, symBinAddr: 0x23C30, symSize: 0x60 }
  - { offset: 0x1251BC, size: 0x8, addend: 0x0, symName: _llama_set_sampler, symObjAddr: 0xBE30, symBinAddr: 0x23C90, symSize: 0x10 }
  - { offset: 0x125229, size: 0x8, addend: 0x0, symName: _llama_get_sampled_token_ith, symObjAddr: 0xBE40, symBinAddr: 0x23CA0, symSize: 0x20 }
  - { offset: 0x125288, size: 0x8, addend: 0x0, symName: _llama_get_sampled_probs_ith, symObjAddr: 0xBE60, symBinAddr: 0x23CC0, symSize: 0x20 }
  - { offset: 0x1252E7, size: 0x8, addend: 0x0, symName: _llama_get_sampled_logits_ith, symObjAddr: 0xBE80, symBinAddr: 0x23CE0, symSize: 0x20 }
  - { offset: 0x12538A, size: 0x8, addend: 0x0, symName: _llama_get_sampled_candidates_ith, symObjAddr: 0xBEA0, symBinAddr: 0x23D00, symSize: 0xA0 }
  - { offset: 0x125487, size: 0x8, addend: 0x0, symName: _llama_get_sampled_candidates_count_ith, symObjAddr: 0xBF40, symBinAddr: 0x23DA0, symSize: 0x20 }
  - { offset: 0x1254E6, size: 0x8, addend: 0x0, symName: _llama_get_sampled_logits_count_ith, symObjAddr: 0xBF60, symBinAddr: 0x23DC0, symSize: 0x20 }
  - { offset: 0x125545, size: 0x8, addend: 0x0, symName: _llama_get_sampled_probs_count_ith, symObjAddr: 0xBF80, symBinAddr: 0x23DE0, symSize: 0x20 }
  - { offset: 0x1255E3, size: 0x8, addend: 0x0, symName: _llama_set_adapter_lora, symObjAddr: 0xBFA0, symBinAddr: 0x23E00, symSize: 0xA0 }
  - { offset: 0x12578D, size: 0x8, addend: 0x0, symName: _llama_rm_adapter_lora, symObjAddr: 0xC040, symBinAddr: 0x23EA0, symSize: 0xA0 }
  - { offset: 0x125A55, size: 0x8, addend: 0x0, symName: _llama_clear_adapter_lora, symObjAddr: 0xC0E0, symBinAddr: 0x23F40, symSize: 0x90 }
  - { offset: 0x125CDB, size: 0x8, addend: 0x0, symName: _llama_apply_adapter_cvec, symObjAddr: 0xC170, symBinAddr: 0x23FD0, symSize: 0x80 }
  - { offset: 0x125DE9, size: 0x8, addend: 0x0, symName: _llama_get_memory, symObjAddr: 0xC1F0, symBinAddr: 0x24050, symSize: 0x10 }
  - { offset: 0x125E51, size: 0x8, addend: 0x0, symName: _llama_memory_clear, symObjAddr: 0xC200, symBinAddr: 0x24060, symSize: 0x20 }
  - { offset: 0x125E94, size: 0x8, addend: 0x0, symName: _llama_memory_seq_rm, symObjAddr: 0xC220, symBinAddr: 0x24080, symSize: 0x20 }
  - { offset: 0x125EF8, size: 0x8, addend: 0x0, symName: _llama_memory_seq_cp, symObjAddr: 0xC240, symBinAddr: 0x240A0, symSize: 0x20 }
  - { offset: 0x125F67, size: 0x8, addend: 0x0, symName: _llama_memory_seq_keep, symObjAddr: 0xC260, symBinAddr: 0x240C0, symSize: 0x20 }
  - { offset: 0x125FA9, size: 0x8, addend: 0x0, symName: _llama_memory_seq_add, symObjAddr: 0xC280, symBinAddr: 0x240E0, symSize: 0x20 }
  - { offset: 0x126018, size: 0x8, addend: 0x0, symName: _llama_memory_seq_div, symObjAddr: 0xC2A0, symBinAddr: 0x24100, symSize: 0x20 }
  - { offset: 0x126087, size: 0x8, addend: 0x0, symName: _llama_memory_seq_pos_min, symObjAddr: 0xC2C0, symBinAddr: 0x24120, symSize: 0x20 }
  - { offset: 0x1260CD, size: 0x8, addend: 0x0, symName: _llama_memory_seq_pos_max, symObjAddr: 0xC2E0, symBinAddr: 0x24140, symSize: 0x20 }
  - { offset: 0x126113, size: 0x8, addend: 0x0, symName: _llama_memory_can_shift, symObjAddr: 0xC300, symBinAddr: 0x24160, symSize: 0x20 }
  - { offset: 0x126165, size: 0x8, addend: 0x0, symName: _llama_get_state_size, symObjAddr: 0xC320, symBinAddr: 0x24180, symSize: 0x10 }
  - { offset: 0x1261C3, size: 0x8, addend: 0x0, symName: _llama_state_get_size, symObjAddr: 0xC330, symBinAddr: 0x24190, symSize: 0x10 }
  - { offset: 0x126228, size: 0x8, addend: 0x0, symName: _llama_copy_state_data, symObjAddr: 0xC340, symBinAddr: 0x241A0, symSize: 0x30 }
  - { offset: 0x1262C6, size: 0x8, addend: 0x0, symName: _llama_state_get_data, symObjAddr: 0xC370, symBinAddr: 0x241D0, symSize: 0x30 }
  - { offset: 0x12634C, size: 0x8, addend: 0x0, symName: _llama_set_state_data, symObjAddr: 0xC3A0, symBinAddr: 0x24200, symSize: 0x30 }
  - { offset: 0x1263EA, size: 0x8, addend: 0x0, symName: _llama_state_set_data, symObjAddr: 0xC3D0, symBinAddr: 0x24230, symSize: 0x30 }
  - { offset: 0x12643D, size: 0x8, addend: 0x0, symName: _llama_load_session_file, symObjAddr: 0xC400, symBinAddr: 0x24260, symSize: 0x10 }
  - { offset: 0x1264D6, size: 0x8, addend: 0x0, symName: _llama_state_load_file, symObjAddr: 0xC410, symBinAddr: 0x24270, symSize: 0xA0 }
  - { offset: 0x1265B2, size: 0x8, addend: 0x0, symName: _llama_save_session_file, symObjAddr: 0xC4B0, symBinAddr: 0x24310, symSize: 0x10 }
  - { offset: 0x126635, size: 0x8, addend: 0x0, symName: _llama_state_save_file, symObjAddr: 0xC4C0, symBinAddr: 0x24320, symSize: 0xA0 }
  - { offset: 0x12672E, size: 0x8, addend: 0x0, symName: _llama_state_seq_get_size, symObjAddr: 0xC560, symBinAddr: 0x243C0, symSize: 0x10 }
  - { offset: 0x1267B5, size: 0x8, addend: 0x0, symName: _llama_state_seq_get_size_ext, symObjAddr: 0xC570, symBinAddr: 0x243D0, symSize: 0x10 }
  - { offset: 0x12684E, size: 0x8, addend: 0x0, symName: _llama_state_seq_get_data, symObjAddr: 0xC580, symBinAddr: 0x243E0, symSize: 0x40 }
  - { offset: 0x126914, size: 0x8, addend: 0x0, symName: _llama_state_seq_get_data_ext, symObjAddr: 0xC5C0, symBinAddr: 0x24420, symSize: 0x50 }
  - { offset: 0x1269C4, size: 0x8, addend: 0x0, symName: _llama_state_seq_set_data, symObjAddr: 0xC610, symBinAddr: 0x24470, symSize: 0x40 }
  - { offset: 0x126A8A, size: 0x8, addend: 0x0, symName: _llama_state_seq_set_data_ext, symObjAddr: 0xC650, symBinAddr: 0x244B0, symSize: 0x50 }
  - { offset: 0x126AEF, size: 0x8, addend: 0x0, symName: _llama_state_seq_save_file, symObjAddr: 0xC6A0, symBinAddr: 0x24500, symSize: 0xA0 }
  - { offset: 0x126BCB, size: 0x8, addend: 0x0, symName: _llama_state_seq_load_file, symObjAddr: 0xC740, symBinAddr: 0x245A0, symSize: 0xB0 }
  - { offset: 0x126CBF, size: 0x8, addend: 0x0, symName: _llama_encode, symObjAddr: 0xC7F0, symBinAddr: 0x24650, symSize: 0x40 }
  - { offset: 0x126D39, size: 0x8, addend: 0x0, symName: _llama_decode, symObjAddr: 0xC830, symBinAddr: 0x24690, symSize: 0x40 }
  - { offset: 0x126DD8, size: 0x8, addend: 0x0, symName: _llama_perf_context, symObjAddr: 0xC870, symBinAddr: 0x246D0, symSize: 0xB0 }
  - { offset: 0x126EE0, size: 0x8, addend: 0x0, symName: _llama_perf_context_print, symObjAddr: 0xC920, symBinAddr: 0x24780, symSize: 0x1D0 }
  - { offset: 0x12715F, size: 0x8, addend: 0x0, symName: _llama_perf_context_reset, symObjAddr: 0xCAF0, symBinAddr: 0x24950, symSize: 0x40 }
  - { offset: 0x1285AA, size: 0x8, addend: 0x0, symName: _llama_memory_breakdown_print, symObjAddr: 0xCB30, symBinAddr: 0x24990, symSize: 0x2720 }
  - { offset: 0x12FAB3, size: 0x8, addend: 0x0, symName: __ZNSt3__15arrayINS_12basic_stringIcNS_11char_traitsIcEENS_9allocatorIcEEEELm9EED2Ev, symObjAddr: 0xFE30, symBinAddr: 0x27A00, symSize: 0x110 }
  - { offset: 0x12FBFD, size: 0x8, addend: 0x0, symName: __ZNSt3__16__treeIP24ggml_backend_buffer_typeNS_4lessIS2_EENS_9allocatorIS2_EEE7destroyEPNS_11__tree_nodeIS2_PvEE, symObjAddr: 0x11990, symBinAddr: 0x28FD0, symSize: 0x40 }
  - { offset: 0x12FD29, size: 0x8, addend: 0x0, symName: __ZNSt3__16vectorINS_5arrayINS_12basic_stringIcNS_11char_traitsIcEENS_9allocatorIcEEEELm9EEENS5_IS8_EEE20__throw_length_errorB8ne200100Ev, symObjAddr: 0x11890, symBinAddr: 0x28F50, symSize: 0x10 }
  - { offset: 0x12FD4C, size: 0x8, addend: 0x0, symName: __ZNSt3__16vectorI27llama_memory_breakdown_dataNS_9allocatorIS1_EEE20__throw_length_errorB8ne200100Ev, symObjAddr: 0x119D0, symBinAddr: 0x29010, symSize: 0x10 }
  - { offset: 0x12FD6F, size: 0x8, addend: 0x0, symName: __ZNSt3__128__exception_guard_exceptionsINS_6vectorINS_12basic_stringIcNS_11char_traitsIcEENS_9allocatorIcEEEENS5_IS7_EEE16__destroy_vectorEED1B8ne200100Ev, symObjAddr: 0x11920, symBinAddr: 0x28F60, symSize: 0x70 }
  - { offset: 0x12FFCD, size: 0x8, addend: 0x0, symName: _llama_memory_breakdown_print.cold.1, symObjAddr: 0x11A70, symBinAddr: 0x2B4B70, symSize: 0x30 }
  - { offset: 0x1300A0, size: 0x8, addend: 0x0, symName: _llama_memory_breakdown_print.cold.2, symObjAddr: 0x11AA0, symBinAddr: 0x2B4BA0, symSize: 0x2B }
  - { offset: 0x130173, size: 0x8, addend: 0x0, symName: __ZNSt3__16vectorINS_12basic_stringIcNS_11char_traitsIcEENS_9allocatorIcEEEENS4_IS6_EEED1B8ne200100Ev, symObjAddr: 0xF250, symBinAddr: 0x270B0, symSize: 0x70 }
  - { offset: 0x1303D1, size: 0x8, addend: 0x0, symName: __ZNSt3__16vectorINS_5arrayINS_12basic_stringIcNS_11char_traitsIcEENS_9allocatorIcEEEELm9EEENS5_IS8_EEED1B8ne200100Ev, symObjAddr: 0xF2C0, symBinAddr: 0x27120, symSize: 0x70 }
  - { offset: 0x130581, size: 0x8, addend: 0x0, symName: _llama_opt_param_filter_all, symObjAddr: 0xF330, symBinAddr: 0x27190, symSize: 0x10 }
  - { offset: 0x1305BB, size: 0x8, addend: 0x0, symName: _llama_opt_init, symObjAddr: 0xF340, symBinAddr: 0x271A0, symSize: 0x10 }
  - { offset: 0x13061E, size: 0x8, addend: 0x0, symName: _llama_opt_epoch, symObjAddr: 0xF350, symBinAddr: 0x271B0, symSize: 0x10 }
  - { offset: 0x13135A, size: 0x8, addend: 0x0, symName: __ZN20llama_io_write_dummyD0Ev, symObjAddr: 0xF840, symBinAddr: 0x274A0, symSize: 0x10 }
  - { offset: 0x131386, size: 0x8, addend: 0x0, symName: __ZN20llama_io_write_dummy5writeEPKvm, symObjAddr: 0xF850, symBinAddr: 0x274B0, symSize: 0x10 }
  - { offset: 0x1313C5, size: 0x8, addend: 0x0, symName: __ZN20llama_io_write_dummy12write_tensorEPK11ggml_tensormm, symObjAddr: 0xF860, symBinAddr: 0x274C0, symSize: 0x10 }
  - { offset: 0x13140F, size: 0x8, addend: 0x0, symName: __ZN20llama_io_write_dummy7n_bytesEv, symObjAddr: 0xF870, symBinAddr: 0x274D0, symSize: 0x10 }
  - { offset: 0x131434, size: 0x8, addend: 0x0, symName: __ZN21llama_io_write_bufferD0Ev, symObjAddr: 0xF880, symBinAddr: 0x274E0, symSize: 0x10 }
  - { offset: 0x131460, size: 0x8, addend: 0x0, symName: __ZN21llama_io_write_buffer5writeEPKvm, symObjAddr: 0xF890, symBinAddr: 0x274F0, symSize: 0x80 }
  - { offset: 0x1314A7, size: 0x8, addend: 0x0, symName: __ZN21llama_io_write_buffer12write_tensorEPK11ggml_tensormm, symObjAddr: 0xF910, symBinAddr: 0x27570, symSize: 0x80 }
  - { offset: 0x131528, size: 0x8, addend: 0x0, symName: __ZN21llama_io_write_buffer7n_bytesEv, symObjAddr: 0xF990, symBinAddr: 0x275F0, symSize: 0x10 }
  - { offset: 0x13154D, size: 0x8, addend: 0x0, symName: __ZN20llama_io_read_bufferD0Ev, symObjAddr: 0xF9A0, symBinAddr: 0x27600, symSize: 0x10 }
  - { offset: 0x131579, size: 0x8, addend: 0x0, symName: __ZN20llama_io_read_buffer4readEm, symObjAddr: 0xF9B0, symBinAddr: 0x27610, symSize: 0x70 }
  - { offset: 0x1315C0, size: 0x8, addend: 0x0, symName: __ZN20llama_io_read_buffer7read_toEPvm, symObjAddr: 0xFA20, symBinAddr: 0x27680, symSize: 0x30 }
  - { offset: 0x131622, size: 0x8, addend: 0x0, symName: __ZN20llama_io_read_buffer7n_bytesEv, symObjAddr: 0xFA50, symBinAddr: 0x276B0, symSize: 0x10 }
  - { offset: 0x131647, size: 0x8, addend: 0x0, symName: __ZN18llama_io_read_fileD0Ev, symObjAddr: 0xFA60, symBinAddr: 0x276C0, symSize: 0x40 }
  - { offset: 0x131677, size: 0x8, addend: 0x0, symName: __ZN18llama_io_read_fileD0Ev, symObjAddr: 0xFA60, symBinAddr: 0x276C0, symSize: 0x40 }
  - { offset: 0x131695, size: 0x8, addend: 0x0, symName: __ZN18llama_io_read_fileD0Ev, symObjAddr: 0xFA60, symBinAddr: 0x276C0, symSize: 0x40 }
  - { offset: 0x131BB1, size: 0x8, addend: 0x0, symName: __ZN18llama_io_read_file4readEm, symObjAddr: 0xFAA0, symBinAddr: 0x27700, symSize: 0x120 }
  - { offset: 0x1320F3, size: 0x8, addend: 0x0, symName: __ZN18llama_io_read_file7read_toEPvm, symObjAddr: 0xFBC0, symBinAddr: 0x27820, symSize: 0x20 }
  - { offset: 0x13213A, size: 0x8, addend: 0x0, symName: __ZN18llama_io_read_file7n_bytesEv, symObjAddr: 0xFBE0, symBinAddr: 0x27840, symSize: 0x10 }
  - { offset: 0x1321C4, size: 0x8, addend: 0x0, symName: __ZN19llama_io_write_fileD0Ev, symObjAddr: 0xFC80, symBinAddr: 0x27850, symSize: 0x40 }
  - { offset: 0x1321F4, size: 0x8, addend: 0x0, symName: __ZN19llama_io_write_fileD0Ev, symObjAddr: 0xFC80, symBinAddr: 0x27850, symSize: 0x40 }
  - { offset: 0x132212, size: 0x8, addend: 0x0, symName: __ZN19llama_io_write_fileD0Ev, symObjAddr: 0xFC80, symBinAddr: 0x27850, symSize: 0x40 }
  - { offset: 0x13235A, size: 0x8, addend: 0x0, symName: __ZN19llama_io_write_file5writeEPKvm, symObjAddr: 0xFCC0, symBinAddr: 0x27890, symSize: 0x20 }
  - { offset: 0x132403, size: 0x8, addend: 0x0, symName: __ZN19llama_io_write_file12write_tensorEPK11ggml_tensormm, symObjAddr: 0xFCE0, symBinAddr: 0x278B0, symSize: 0x150 }
  - { offset: 0x133167, size: 0x8, addend: 0x0, symName: __ZNSt3__112__hash_tableINS_17__hash_value_typeIP18llama_adapter_lorafEENS_22__unordered_map_hasherIS3_S4_NS_4hashIS3_EENS_8equal_toIS3_EELb1EEENS_21__unordered_map_equalIS3_S4_S9_S7_Lb1EEENS_9allocatorIS4_EEE11__do_rehashILb1EEEvm, symObjAddr: 0x10AF0, symBinAddr: 0x28540, symSize: 0x1B0 }
  - { offset: 0x133DDF, size: 0x8, addend: 0x0, symName: __ZNSt3__16__treeINS_12__value_typeIijEENS_19__map_value_compareIiS2_NS_4lessIiEELb1EEENS_9allocatorIS2_EEE7destroyEPNS_11__tree_nodeIS2_PvEE, symObjAddr: 0x11230, symBinAddr: 0x288F0, symSize: 0x40 }
  - { offset: 0x1340FD, size: 0x8, addend: 0x0, symName: __ZNSt3__16vectorIjNS_9allocatorIjEEE20__throw_length_errorB8ne200100Ev, symObjAddr: 0x113D0, symBinAddr: 0x28A90, symSize: 0x10 }
  - { offset: 0x134115, size: 0x8, addend: 0x0, symName: __ZNSt3__13mapIiP13llama_samplerNS_4lessIiEENS_9allocatorINS_4pairIKiS2_EEEEE6insertB8ne200100INS_20__map_const_iteratorINS_21__tree_const_iteratorINS_12__value_typeIiS2_EEPNS_11__tree_nodeISF_PvEElEEEEEEvT_SM_, symObjAddr: 0x113E0, symBinAddr: 0x28AA0, symSize: 0x100 }
  - { offset: 0x134355, size: 0x8, addend: 0x0, symName: __ZNSt3__16__treeINS_12__value_typeIiP13llama_samplerEENS_19__map_value_compareIiS4_NS_4lessIiEELb1EEENS_9allocatorIS4_EEE12__find_equalIiEERPNS_16__tree_node_baseIPvEENS_21__tree_const_iteratorIS4_PNS_11__tree_nodeIS4_SE_EElEERPNS_15__tree_end_nodeISG_EESH_RKT_, symObjAddr: 0x114E0, symBinAddr: 0x28BA0, symSize: 0x160 }
  - { offset: 0x134794, size: 0x8, addend: 0x0, symName: '__ZNSt3__110__function6__funcIZNK13llama_context12graph_get_cbEvE3$_0NS_9allocatorIS3_EEFvRK12llama_ubatchP11ggml_tensorPKciEED1Ev', symObjAddr: 0x11640, symBinAddr: 0x28D00, symSize: 0x10 }
  - { offset: 0x1347BE, size: 0x8, addend: 0x0, symName: '__ZNSt3__110__function6__funcIZNK13llama_context12graph_get_cbEvE3$_0NS_9allocatorIS3_EEFvRK12llama_ubatchP11ggml_tensorPKciEED0Ev', symObjAddr: 0x11650, symBinAddr: 0x28D10, symSize: 0x10 }
  - { offset: 0x1348D5, size: 0x8, addend: 0x0, symName: '__ZNKSt3__110__function6__funcIZNK13llama_context12graph_get_cbEvE3$_0NS_9allocatorIS3_EEFvRK12llama_ubatchP11ggml_tensorPKciEE7__cloneEv', symObjAddr: 0x11660, symBinAddr: 0x28D20, symSize: 0x30 }
  - { offset: 0x134AC2, size: 0x8, addend: 0x0, symName: '__ZNKSt3__110__function6__funcIZNK13llama_context12graph_get_cbEvE3$_0NS_9allocatorIS3_EEFvRK12llama_ubatchP11ggml_tensorPKciEE7__cloneEPNS0_6__baseISD_EE', symObjAddr: 0x11690, symBinAddr: 0x28D50, symSize: 0x20 }
  - { offset: 0x134B6D, size: 0x8, addend: 0x0, symName: '__ZNSt3__110__function6__funcIZNK13llama_context12graph_get_cbEvE3$_0NS_9allocatorIS3_EEFvRK12llama_ubatchP11ggml_tensorPKciEE7destroyEv', symObjAddr: 0x116B0, symBinAddr: 0x28D70, symSize: 0x10 }
  - { offset: 0x134BC2, size: 0x8, addend: 0x0, symName: '__ZNSt3__110__function6__funcIZNK13llama_context12graph_get_cbEvE3$_0NS_9allocatorIS3_EEFvRK12llama_ubatchP11ggml_tensorPKciEE18destroy_deallocateEv', symObjAddr: 0x116C0, symBinAddr: 0x28D80, symSize: 0x10 }
  - { offset: 0x134DB6, size: 0x8, addend: 0x0, symName: '__ZNSt3__110__function6__funcIZNK13llama_context12graph_get_cbEvE3$_0NS_9allocatorIS3_EEFvRK12llama_ubatchP11ggml_tensorPKciEEclES8_OSA_OSC_Oi', symObjAddr: 0x116D0, symBinAddr: 0x28D90, symSize: 0x110 }
  - { offset: 0x1350CD, size: 0x8, addend: 0x0, symName: '__ZNKSt3__110__function6__funcIZNK13llama_context12graph_get_cbEvE3$_0NS_9allocatorIS3_EEFvRK12llama_ubatchP11ggml_tensorPKciEE6targetERKSt9type_info', symObjAddr: 0x117E0, symBinAddr: 0x28EA0, symSize: 0x20 }
  - { offset: 0x13513D, size: 0x8, addend: 0x0, symName: '__ZNKSt3__110__function6__funcIZNK13llama_context12graph_get_cbEvE3$_0NS_9allocatorIS3_EEFvRK12llama_ubatchP11ggml_tensorPKciEE11target_typeEv', symObjAddr: 0x11800, symBinAddr: 0x28EC0, symSize: 0x10 }
  - { offset: 0x1372F2, size: 0x8, addend: 0x0, symName: _llama_max_parallel_sequences, symObjAddr: 0x0, symBinAddr: 0x29020, symSize: 0xB }
  - { offset: 0x137300, size: 0x8, addend: 0x0, symName: _llama_max_parallel_sequences, symObjAddr: 0x0, symBinAddr: 0x29020, symSize: 0xB }
  - { offset: 0x137456, size: 0x8, addend: 0x0, symName: __ZNK29llama_grammar_trigger_pattern4findERKNSt3__112basic_stringIcNS0_11char_traitsIcEENS0_9allocatorIcEEEE, symObjAddr: 0x0, symBinAddr: 0x29030, symSize: 0x440 }
  - { offset: 0x13C567, size: 0x8, addend: 0x0, symName: __ZNSt3__119piecewise_constructE, symObjAddr: 0x19B90, symBinAddr: 0x2B8570, symSize: 0x0 }
  - { offset: 0x15A421, size: 0x8, addend: 0x0, symName: __ZNSt3__1plB8ne200100IcNS_11char_traitsIcEENS_9allocatorIcEEEENS_12basic_stringIT_T0_T1_EEOS9_SA_, symObjAddr: 0x7C0, symBinAddr: 0x297F0, symSize: 0x60 }
  - { offset: 0x15D201, size: 0x8, addend: 0x0, symName: __ZNSt3__135__uninitialized_allocator_copy_implB8ne200100INS_9allocatorINS_6vectorI21llama_grammar_elementNS1_IS3_EEEEEEPS5_S7_S7_EET2_RT_T0_T1_S8_, symObjAddr: 0x17DA0, symBinAddr: 0x40950, symSize: 0x100 }
  - { offset: 0x15D768, size: 0x8, addend: 0x0, symName: __ZNSt3__135__uninitialized_allocator_copy_implB8ne200100INS_9allocatorINS_6vectorIPK21llama_grammar_elementNS1_IS5_EEEEEEPS7_S9_S9_EET2_RT_T0_T1_SA_, symObjAddr: 0x17F60, symBinAddr: 0x40B10, symSize: 0x100 }
  - { offset: 0x15DCCF, size: 0x8, addend: 0x0, symName: __ZNSt3__130__uninitialized_allocator_copyB8ne200100INS_9allocatorI29llama_grammar_trigger_patternEEPS2_S4_S4_EET2_RT_T0_T1_S5_, symObjAddr: 0x180C0, symBinAddr: 0x40C70, symSize: 0x110 }
  - { offset: 0x15F3EE, size: 0x8, addend: 0x0, symName: __ZNSt3__119__throw_regex_errorB8ne200100ILNS_15regex_constants10error_typeE12EEEvv, symObjAddr: 0xD320, symBinAddr: 0x36160, symSize: 0x50 }
  - { offset: 0x15F414, size: 0x8, addend: 0x0, symName: __ZNSt3__119__throw_regex_errorB8ne200100ILNS_15regex_constants10error_typeE16EEEvv, symObjAddr: 0xD370, symBinAddr: 0x361B0, symSize: 0x50 }
  - { offset: 0x160E25, size: 0x8, addend: 0x0, symName: __ZNSt3__134__uninitialized_allocator_relocateB8ne200100INS_9allocatorI29llama_grammar_trigger_patternEEPS2_EEvRT_T0_S7_S7_, symObjAddr: 0xFFA0, symBinAddr: 0x38C50, symSize: 0x120 }
  - { offset: 0x160E80, size: 0x8, addend: 0x0, symName: __ZNSt3__134__uninitialized_allocator_relocateB8ne200100INS_9allocatorI29llama_grammar_trigger_patternEEPS2_EEvRT_T0_S7_S7_, symObjAddr: 0xFFA0, symBinAddr: 0x38C50, symSize: 0x120 }
  - { offset: 0x161568, size: 0x8, addend: 0x0, symName: __ZNSt3__119__throw_regex_errorB8ne200100ILNS_15regex_constants10error_typeE17EEEvv, symObjAddr: 0x103F0, symBinAddr: 0x390A0, symSize: 0x50 }
  - { offset: 0x161CA3, size: 0x8, addend: 0x0, symName: __ZNSt3__119__throw_regex_errorB8ne200100ILNS_15regex_constants10error_typeE14EEEvv, symObjAddr: 0x10D30, symBinAddr: 0x399E0, symSize: 0x50 }
  - { offset: 0x161F8C, size: 0x8, addend: 0x0, symName: __ZNSt3__119__throw_regex_errorB8ne200100ILNS_15regex_constants10error_typeE15EEEvv, symObjAddr: 0x170A0, symBinAddr: 0x3FCD0, symSize: 0x50 }
  - { offset: 0x162328, size: 0x8, addend: 0x0, symName: __ZNSt3__119__throw_regex_errorB8ne200100ILNS_15regex_constants10error_typeE6EEEvv, symObjAddr: 0x11960, symBinAddr: 0x3A610, symSize: 0x50 }
  - { offset: 0x1624D7, size: 0x8, addend: 0x0, symName: __ZNSt3__119__throw_regex_errorB8ne200100ILNS_15regex_constants10error_typeE11EEEvv, symObjAddr: 0x12200, symBinAddr: 0x3AEB0, symSize: 0x50 }
  - { offset: 0x16251B, size: 0x8, addend: 0x0, symName: __ZNSt3__119__throw_regex_errorB8ne200100ILNS_15regex_constants10error_typeE8EEEvv, symObjAddr: 0x169F0, symBinAddr: 0x3F620, symSize: 0x50 }
  - { offset: 0x162541, size: 0x8, addend: 0x0, symName: __ZNSt3__119__throw_regex_errorB8ne200100ILNS_15regex_constants10error_typeE7EEEvv, symObjAddr: 0x16A40, symBinAddr: 0x3F670, symSize: 0x50 }
  - { offset: 0x162690, size: 0x8, addend: 0x0, symName: __ZNSt3__119__throw_regex_errorB8ne200100ILNS_15regex_constants10error_typeE4EEEvv, symObjAddr: 0x12D00, symBinAddr: 0x3B9B0, symSize: 0x50 }
  - { offset: 0x1626B6, size: 0x8, addend: 0x0, symName: __ZNSt3__119__throw_regex_errorB8ne200100ILNS_15regex_constants10error_typeE3EEEvv, symObjAddr: 0x12470, symBinAddr: 0x3B120, symSize: 0x50 }
  - { offset: 0x1626DC, size: 0x8, addend: 0x0, symName: __ZNSt3__119__throw_regex_errorB8ne200100ILNS_15regex_constants10error_typeE5EEEvv, symObjAddr: 0x148E0, symBinAddr: 0x3D510, symSize: 0x50 }
  - { offset: 0x1632F0, size: 0x8, addend: 0x0, symName: __ZNSt3__119__throw_regex_errorB8ne200100ILNS_15regex_constants10error_typeE1EEEvv, symObjAddr: 0x15BA0, symBinAddr: 0x3E7D0, symSize: 0x50 }
  - { offset: 0x163316, size: 0x8, addend: 0x0, symName: __ZNSt3__119__throw_regex_errorB8ne200100ILNS_15regex_constants10error_typeE2EEEvv, symObjAddr: 0x16160, symBinAddr: 0x3ED90, symSize: 0x50 }
  - { offset: 0x163378, size: 0x8, addend: 0x0, symName: __ZNSt3__119__throw_regex_errorB8ne200100ILNS_15regex_constants10error_typeE9EEEvv, symObjAddr: 0x166F0, symBinAddr: 0x3F320, symSize: 0x50 }
  - { offset: 0x165111, size: 0x8, addend: 0x0, symName: __ZL11decode_utf8RKNSt3__112basic_stringIcNS_11char_traitsIcEENS_9allocatorIcEEEE18llama_partial_utf8, symObjAddr: 0x9210, symBinAddr: 0x321B0, symSize: 0x5E0 }
  - { offset: 0x16513B, size: 0x8, addend: 0x0, symName: __ZZL11decode_utf8RKNSt3__112basic_stringIcNS_11char_traitsIcEENS_9allocatorIcEEEE18llama_partial_utf8E6lookup, symObjAddr: 0x19B50, symBinAddr: 0x2B8530, symSize: 0x0 }
  - { offset: 0x1688B4, size: 0x8, addend: 0x0, symName: __ZNK29llama_grammar_trigger_pattern4findERKNSt3__112basic_stringIcNS0_11char_traitsIcEENS0_9allocatorIcEEEE, symObjAddr: 0x0, symBinAddr: 0x29030, symSize: 0x440 }
  - { offset: 0x169CE0, size: 0x8, addend: 0x0, symName: __ZNKSt3__111basic_regexIcNS_12regex_traitsIcEEE8__searchINS_9allocatorINS_9sub_matchIPKcEEEEEEbS8_S8_RNS_13match_resultsIS8_T_EENS_15regex_constants15match_flag_typeE, symObjAddr: 0xB610, symBinAddr: 0x34450, symSize: 0x340 }
  - { offset: 0x16A250, size: 0x8, addend: 0x0, symName: __ZNSt3__113match_resultsINS_11__wrap_iterIPKcEENS_9allocatorINS_9sub_matchIS4_EEEEE8__assignB8ne200100IS3_NS5_INS6_IS3_EEEEEEvS4_S4_RKNS0_IT_T0_EEb, symObjAddr: 0xB950, symBinAddr: 0x34790, symSize: 0x170 }
  - { offset: 0x16B5EC, size: 0x8, addend: 0x0, symName: __ZN20llama_grammar_parser13get_symbol_idEPKcm, symObjAddr: 0x440, symBinAddr: 0x29470, symSize: 0xE0 }
  - { offset: 0x16BB84, size: 0x8, addend: 0x0, symName: __ZNSt3__16__treeINS_12__value_typeINS_12basic_stringIcNS_11char_traitsIcEENS_9allocatorIcEEEEjEENS_19__map_value_compareIS7_S8_NS_4lessIS7_EELb1EEENS5_IS8_EEE25__emplace_unique_key_argsIS7_JS7_RjEEENS_4pairINS_15__tree_iteratorIS8_PNS_11__tree_nodeIS8_PvEElEEbEERKT_DpOT0_, symObjAddr: 0xF310, symBinAddr: 0x38150, symSize: 0x190 }
  - { offset: 0x16C18C, size: 0x8, addend: 0x0, symName: __ZNKSt3__111basic_regexIcNS_12regex_traitsIcEEE8__searchINS_9allocatorINS_9sub_matchIPKcEEEEEEbS8_S8_RNS_13match_resultsIS8_T_EENS_15regex_constants15match_flag_typeE, symObjAddr: 0xB610, symBinAddr: 0x34450, symSize: 0x340 }
  - { offset: 0x16C197, size: 0x8, addend: 0x0, symName: __ZNSt3__112basic_stringIcNS_11char_traitsIcEENS_9allocatorIcEEEC1B8ne200100EPKcm, symObjAddr: 0x520, symBinAddr: 0x29550, symSize: 0x90 }
  - { offset: 0x16C5BA, size: 0x8, addend: 0x0, symName: __ZN20llama_grammar_parser18generate_symbol_idERKNSt3__112basic_stringIcNS0_11char_traitsIcEENS0_9allocatorIcEEEE, symObjAddr: 0x5B0, symBinAddr: 0x295E0, symSize: 0x210 }
  - { offset: 0x16D0A1, size: 0x8, addend: 0x0, symName: __ZNSt3__16__treeINS_12__value_typeINS_12basic_stringIcNS_11char_traitsIcEENS_9allocatorIcEEEEjEENS_19__map_value_compareIS7_S8_NS_4lessIS7_EELb1EEENS5_IS8_EEE25__emplace_unique_key_argsIS7_JRKNS_21piecewise_construct_tENS_5tupleIJOS7_EEENSJ_IJEEEEEENS_4pairINS_15__tree_iteratorIS8_PNS_11__tree_nodeIS8_PvEElEEbEERKT_DpOT0_, symObjAddr: 0xF620, symBinAddr: 0x382E0, symSize: 0x190 }
  - { offset: 0x16D925, size: 0x8, addend: 0x0, symName: __ZN20llama_grammar_parser8add_ruleEjRKNSt3__16vectorI21llama_grammar_elementNS0_9allocatorIS2_EEEE, symObjAddr: 0x820, symBinAddr: 0x29850, symSize: 0xE0 }
  - { offset: 0x16DC31, size: 0x8, addend: 0x0, symName: __ZNSt3__16vectorINS0_I21llama_grammar_elementNS_9allocatorIS1_EEEENS2_IS4_EEE8__appendEm, symObjAddr: 0xF7B0, symBinAddr: 0x38470, symSize: 0x1A0 }
  - { offset: 0x16E0A5, size: 0x8, addend: 0x0, symName: __ZNSt3__16vectorI21llama_grammar_elementNS_9allocatorIS1_EEE18__assign_with_sizeB8ne200100IPS1_S6_EEvT_T0_l, symObjAddr: 0xF960, symBinAddr: 0x38620, symSize: 0x140 }
  - { offset: 0x16EADA, size: 0x8, addend: 0x0, symName: __ZNSt3__16__treeINS_12__value_typeIjNS_12basic_stringIcNS_11char_traitsIcEENS_9allocatorIcEEEEEENS_19__map_value_compareIjS8_NS_4lessIjEELb1EEENS5_IS8_EEE7destroyEPNS_11__tree_nodeIS8_PvEE, symObjAddr: 0xFAA0, symBinAddr: 0x38760, symSize: 0x50 }
  - { offset: 0x16EE94, size: 0x8, addend: 0x0, symName: __ZN20llama_grammar_parser16parse_alternatesEPKcRKNSt3__112basic_stringIcNS2_11char_traitsIcEENS2_9allocatorIcEEEEjb, symObjAddr: 0x900, symBinAddr: 0x29930, symSize: 0x3B0 }
  - { offset: 0x16FD11, size: 0x8, addend: 0x0, symName: __ZN20llama_grammar_parser14parse_sequenceEPKcRKNSt3__112basic_stringIcNS2_11char_traitsIcEENS2_9allocatorIcEEEERNS2_6vectorI21llama_grammar_elementNS6_ISC_EEEEb, symObjAddr: 0xCB0, symBinAddr: 0x29CE0, symSize: 0x1FE0 }
  - { offset: 0x173533, size: 0x8, addend: 0x0, symName: __ZNSt3__16vectorI21llama_grammar_elementNS_9allocatorIS1_EEE20__throw_length_errorB8ne200100Ev, symObjAddr: 0xAAE0, symBinAddr: 0x33A80, symSize: 0x10 }
  - { offset: 0x1736ED, size: 0x8, addend: 0x0, symName: '__ZZN20llama_grammar_parser14parse_sequenceEPKcRKNSt3__112basic_stringIcNS2_11char_traitsIcEENS2_9allocatorIcEEEERNS2_6vectorI21llama_grammar_elementNS6_ISC_EEEEbENK3$_0clEyy', symObjAddr: 0x31E0, symBinAddr: 0x2C180, symSize: 0x900 }
  - { offset: 0x17564B, size: 0x8, addend: 0x0, symName: __ZL10parse_charPKc, symObjAddr: 0x2C90, symBinAddr: 0x2BCC0, symSize: 0x380 }
  - { offset: 0x17594E, size: 0x8, addend: 0x0, symName: __ZL9parse_intPKc, symObjAddr: 0x3AE0, symBinAddr: 0x2CA80, symSize: 0x120 }
  - { offset: 0x175BF3, size: 0x8, addend: 0x0, symName: __ZL10parse_namePKc, symObjAddr: 0x3010, symBinAddr: 0x2C040, symSize: 0x140 }
  - { offset: 0x1760E5, size: 0x8, addend: 0x0, symName: __ZL9parse_hexPKci, symObjAddr: 0xA8C0, symBinAddr: 0x33860, symSize: 0x220 }
  - { offset: 0x176C28, size: 0x8, addend: 0x0, symName: __ZNSt3__16vectorI21llama_grammar_elementNS_9allocatorIS1_EEE18__insert_with_sizeB8ne200100INS_11__wrap_iterIPS1_EES8_EES8_NS6_IPKS1_EET_T0_l, symObjAddr: 0xAD00, symBinAddr: 0x33BE0, symSize: 0x450 }
  - { offset: 0x1778A2, size: 0x8, addend: 0x0, symName: __ZNSt3__16vectorI21llama_grammar_elementNS_9allocatorIS1_EEE8__appendEm, symObjAddr: 0xABB0, symBinAddr: 0x33A90, symSize: 0x150 }
  - { offset: 0x177CAB, size: 0x8, addend: 0x0, symName: __ZN20llama_grammar_parser10parse_ruleEPKc, symObjAddr: 0x3C00, symBinAddr: 0x2CBA0, symSize: 0x370 }
  - { offset: 0x178590, size: 0x8, addend: 0x0, symName: __ZN20llama_grammar_parser5parseEPKc, symObjAddr: 0x3F70, symBinAddr: 0x2CF10, symSize: 0x340 }
  - { offset: 0x1794D2, size: 0x8, addend: 0x0, symName: __ZN20llama_grammar_parser5printEP7__sFILE, symObjAddr: 0x42B0, symBinAddr: 0x2D250, symSize: 0x970 }
  - { offset: 0x17A821, size: 0x8, addend: 0x0, symName: __ZNSt3__16__treeINS_12__value_typeIjNS_12basic_stringIcNS_11char_traitsIcEENS_9allocatorIcEEEEEENS_19__map_value_compareIjS8_NS_4lessIjEELb1EEENS5_IS8_EEE7destroyEPNS_11__tree_nodeIS8_PvEE, symObjAddr: 0xFAA0, symBinAddr: 0x38760, symSize: 0x50 }
  - { offset: 0x17AF53, size: 0x8, addend: 0x0, symName: __ZNK20llama_grammar_parser7c_rulesEv, symObjAddr: 0x4C20, symBinAddr: 0x2DBC0, symSize: 0x230 }
  - { offset: 0x17B6E4, size: 0x8, addend: 0x0, symName: __ZNSt3__16vectorIPK21llama_grammar_elementNS_9allocatorIS3_EEE20__throw_length_errorB8ne200100Ev, symObjAddr: 0xFAF0, symBinAddr: 0x387B0, symSize: 0x10 }
  - { offset: 0x17B6FC, size: 0x8, addend: 0x0, symName: __ZNSt3__16vectorI23llama_grammar_candidateNS_9allocatorIS1_EEE20__throw_length_errorB8ne200100Ev, symObjAddr: 0xFB00, symBinAddr: 0x387C0, symSize: 0x10 }
  - { offset: 0x17B707, size: 0x8, addend: 0x0, symName: __Z23llama_grammar_get_rulesPK13llama_grammar, symObjAddr: 0x4E50, symBinAddr: 0x2DDF0, symSize: 0x10 }
  - { offset: 0x17B736, size: 0x8, addend: 0x0, symName: __Z24llama_grammar_get_stacksP13llama_grammar, symObjAddr: 0x4E60, symBinAddr: 0x2DE00, symSize: 0x10 }
  - { offset: 0x17BA58, size: 0x8, addend: 0x0, symName: __Z20llama_grammar_acceptP13llama_grammarj, symObjAddr: 0x4E70, symBinAddr: 0x2DE10, symSize: 0x160 }
  - { offset: 0x17C03A, size: 0x8, addend: 0x0, symName: __ZL24llama_grammar_accept_chrR13llama_grammarRKNSt3__16vectorIPK21llama_grammar_elementNS1_9allocatorIS5_EEEEjRNS2_IS8_NS6_IS8_EEEE, symObjAddr: 0x4FD0, symBinAddr: 0x2DF70, symSize: 0x280 }
  - { offset: 0x17C94D, size: 0x8, addend: 0x0, symName: __ZNSt3__16vectorINS0_IPK21llama_grammar_elementNS_9allocatorIS3_EEEENS4_IS6_EEE20__throw_length_errorB8ne200100Ev, symObjAddr: 0xB3D0, symBinAddr: 0x34230, symSize: 0x10 }
  - { offset: 0x17C965, size: 0x8, addend: 0x0, symName: __ZNSt3__110shared_ptrINS_13__empty_stateIcEEED1B8ne200100Ev, symObjAddr: 0xB3E0, symBinAddr: 0x34240, symSize: 0x40 }
  - { offset: 0x17C970, size: 0x8, addend: 0x0, symName: __ZNSt3__16vectorINS0_IPK21llama_grammar_elementNS_9allocatorIS3_EEEENS4_IS6_EEED1B8ne200100Ev, symObjAddr: 0x5250, symBinAddr: 0x2E1F0, symSize: 0x70 }
  - { offset: 0x17CF6F, size: 0x8, addend: 0x0, symName: __ZL27llama_grammar_advance_stackRKNSt3__16vectorINS0_I21llama_grammar_elementNS_9allocatorIS1_EEEENS2_IS4_EEEERKNS0_IPKS1_NS2_ISA_EEEERNS0_ISC_NS2_ISC_EEEE, symObjAddr: 0x63E0, symBinAddr: 0x2F380, symSize: 0x4C0 }
  - { offset: 0x17ED13, size: 0x8, addend: 0x0, symName: __Z41llama_grammar_reject_candidates_for_stackRKNSt3__16vectorINS0_I21llama_grammar_elementNS_9allocatorIS1_EEEENS2_IS4_EEEERKNS0_IPKS1_NS2_ISA_EEEERKNS0_I23llama_grammar_candidateNS2_ISF_EEEE, symObjAddr: 0x52C0, symBinAddr: 0x2E260, symSize: 0x1120 }
  - { offset: 0x181C79, size: 0x8, addend: 0x0, symName: __ZL31llama_grammar_reject_candidatesRKNSt3__16vectorINS0_I21llama_grammar_elementNS_9allocatorIS1_EEEENS2_IS4_EEEERKNS0_INS0_IPKS1_NS2_ISA_EEEENS2_ISC_EEEERKNS0_I23llama_grammar_candidateNS2_ISH_EEEE, symObjAddr: 0x68A0, symBinAddr: 0x2F840, symSize: 0x110 }
  - { offset: 0x182016, size: 0x8, addend: 0x0, symName: __ZNSt3__16vectorI23llama_grammar_candidateNS_9allocatorIS1_EEE20__throw_length_errorB8ne200100Ev, symObjAddr: 0xFB00, symBinAddr: 0x387C0, symSize: 0x10 }
  - { offset: 0x18202E, size: 0x8, addend: 0x0, symName: __ZNSt3__128__exception_guard_exceptionsINS_6vectorINS1_I21llama_grammar_elementNS_9allocatorIS2_EEEENS3_IS5_EEE16__destroy_vectorEED1B8ne200100Ev, symObjAddr: 0xFB10, symBinAddr: 0x387D0, symSize: 0x70 }
  - { offset: 0x18239E, size: 0x8, addend: 0x0, symName: __ZNSt3__16vectorINS0_IPK21llama_grammar_elementNS_9allocatorIS3_EEEENS4_IS6_EEE24__emplace_back_slow_pathIJRKS6_EEEPS6_DpOT_, symObjAddr: 0xB1D0, symBinAddr: 0x34030, symSize: 0x1A0 }
  - { offset: 0x183337, size: 0x8, addend: 0x0, symName: __Z23llama_grammar_init_implPK11llama_vocabPPK21llama_grammar_elementmm, symObjAddr: 0x69B0, symBinAddr: 0x2F950, symSize: 0x860 }
  - { offset: 0x185460, size: 0x8, addend: 0x0, symName: __ZL35llama_grammar_detect_left_recursionRKNSt3__16vectorINS0_I21llama_grammar_elementNS_9allocatorIS1_EEEENS2_IS4_EEEEmPNS0_IbNS2_IbEEEESB_SB_, symObjAddr: 0x7210, symBinAddr: 0x301B0, symSize: 0x170 }
  - { offset: 0x1857AA, size: 0x8, addend: 0x0, symName: __ZNSt3__16vectorINS0_I21llama_grammar_elementNS_9allocatorIS1_EEEENS2_IS4_EEE20__throw_length_errorB8ne200100Ev, symObjAddr: 0xF950, symBinAddr: 0x38610, symSize: 0x10 }
  - { offset: 0x1857C2, size: 0x8, addend: 0x0, symName: __ZNSt3__16vectorI21llama_grammar_elementNS_9allocatorIS1_EEE18__assign_with_sizeB8ne200100IPS1_S6_EEvT_T0_l, symObjAddr: 0xF960, symBinAddr: 0x38620, symSize: 0x140 }
  - { offset: 0x1857CD, size: 0x8, addend: 0x0, symName: __ZNSt3__128__exception_guard_exceptionsINS_6vectorINS1_I21llama_grammar_elementNS_9allocatorIS2_EEEENS3_IS5_EEE16__destroy_vectorEED1B8ne200100Ev, symObjAddr: 0xFB10, symBinAddr: 0x387D0, symSize: 0x70 }
  - { offset: 0x185A52, size: 0x8, addend: 0x0, symName: __ZNSt3__16vectorINS0_I21llama_grammar_elementNS_9allocatorIS1_EEEENS2_IS4_EEED1B8ne200100Ev, symObjAddr: 0x7380, symBinAddr: 0x30320, symSize: 0x70 }
  - { offset: 0x1867A8, size: 0x8, addend: 0x0, symName: __Z23llama_grammar_init_implPK11llama_vocabPKcS3_bPS3_mPKim, symObjAddr: 0x73F0, symBinAddr: 0x30390, symSize: 0xF70 }
  - { offset: 0x18A2A2, size: 0x8, addend: 0x0, symName: __ZNSt3__16__treeINS_12__value_typeINS_12basic_stringIcNS_11char_traitsIcEENS_9allocatorIcEEEEjEENS_19__map_value_compareIS7_S8_NS_4lessIS7_EELb1EEENS5_IS8_EEE4findIS7_EENS_15__tree_iteratorIS8_PNS_11__tree_nodeIS8_PvEElEERKT_, symObjAddr: 0xFB80, symBinAddr: 0x38840, symSize: 0x110 }
  - { offset: 0x18A606, size: 0x8, addend: 0x0, symName: __ZNSt3__16__treeINS_12__value_typeINS_12basic_stringIcNS_11char_traitsIcEENS_9allocatorIcEEEEjEENS_19__map_value_compareIS7_S8_NS_4lessIS7_EELb1EEENS5_IS8_EEE7destroyEPNS_11__tree_nodeIS8_PvEE, symObjAddr: 0xB420, symBinAddr: 0x34280, symSize: 0x50 }
  - { offset: 0x18A89D, size: 0x8, addend: 0x0, symName: __ZNSt3__13mapINS_12basic_stringIcNS_11char_traitsIcEENS_9allocatorIcEEEEjNS_4lessIS6_EENS4_INS_4pairIKS6_jEEEEE2atERSA_, symObjAddr: 0x8360, symBinAddr: 0x31300, symSize: 0x110 }
  - { offset: 0x18ABC9, size: 0x8, addend: 0x0, symName: __ZNSt3__16vectorI29llama_grammar_trigger_patternNS_9allocatorIS1_EEE24__emplace_back_slow_pathIJEEEPS1_DpOT_, symObjAddr: 0xFCA0, symBinAddr: 0x38950, symSize: 0x1D0 }
  - { offset: 0x18B179, size: 0x8, addend: 0x0, symName: __ZNSt3__111basic_regexIcNS_12regex_traitsIcEEEC2B8ne200100INS_11char_traitsIcEENS_9allocatorIcEEEERKNS_12basic_stringIcT_T0_EENS_15regex_constants18syntax_option_typeE, symObjAddr: 0x10150, symBinAddr: 0x38E00, symSize: 0xD0 }
  - { offset: 0x18B380, size: 0x8, addend: 0x0, symName: __ZNSt3__16vectorI29llama_grammar_trigger_patternNS_9allocatorIS1_EEE24__emplace_back_slow_pathIJEEEPS1_DpOT_, symObjAddr: 0xFCA0, symBinAddr: 0x38950, symSize: 0x1D0 }
  - { offset: 0x18B38B, size: 0x8, addend: 0x0, symName: __ZN20llama_grammar_parserD1Ev, symObjAddr: 0x8570, symBinAddr: 0x31510, symSize: 0x80 }
  - { offset: 0x18B6D0, size: 0x8, addend: 0x0, symName: __ZNSt3__16vectorI29llama_grammar_trigger_patternNS_9allocatorIS1_EEED1B8ne200100Ev, symObjAddr: 0x84C0, symBinAddr: 0x31460, symSize: 0xB0 }
  - { offset: 0x18BC18, size: 0x8, addend: 0x0, symName: __ZNSt3__111basic_regexIcNS_12regex_traitsIcEEED1Ev, symObjAddr: 0x8470, symBinAddr: 0x31410, symSize: 0x50 }
  - { offset: 0x18BF5F, size: 0x8, addend: 0x0, symName: __Z23llama_grammar_free_implP13llama_grammar, symObjAddr: 0x85F0, symBinAddr: 0x31590, symSize: 0x30 }
  - { offset: 0x18BFB6, size: 0x8, addend: 0x0, symName: __ZN13llama_grammarD2Ev, symObjAddr: 0xB470, symBinAddr: 0x342D0, symSize: 0x180 }
  - { offset: 0x18D4E1, size: 0x8, addend: 0x0, symName: __Z24llama_grammar_clone_implRK13llama_grammar, symObjAddr: 0x8620, symBinAddr: 0x315C0, symSize: 0x5E0 }
  - { offset: 0x18E6AF, size: 0x8, addend: 0x0, symName: __ZNSt3__16vectorINS_4pairIiNS1_ImmEEEENS_9allocatorIS3_EEE20__throw_length_errorB8ne200100Ev, symObjAddr: 0x180B0, symBinAddr: 0x40C60, symSize: 0x10 }
  - { offset: 0x18E6C7, size: 0x8, addend: 0x0, symName: __ZNSt3__130__uninitialized_allocator_copyB8ne200100INS_9allocatorI29llama_grammar_trigger_patternEEPS2_S4_S4_EET2_RT_T0_T1_S5_, symObjAddr: 0x180C0, symBinAddr: 0x40C70, symSize: 0x110 }
  - { offset: 0x18E6D2, size: 0x8, addend: 0x0, symName: __ZNSt3__16vectorI29llama_grammar_trigger_patternNS_9allocatorIS1_EEE20__throw_length_errorB8ne200100Ev, symObjAddr: 0xFF90, symBinAddr: 0x38C40, symSize: 0x10 }
  - { offset: 0x18E6EA, size: 0x8, addend: 0x0, symName: __ZNSt3__134__uninitialized_allocator_relocateB8ne200100INS_9allocatorI29llama_grammar_trigger_patternEEPS2_EEvRT_T0_S7_S7_, symObjAddr: 0xFFA0, symBinAddr: 0x38C50, symSize: 0x120 }
  - { offset: 0x18E6F5, size: 0x8, addend: 0x0, symName: __ZNSt3__128__exception_guard_exceptionsINS_6vectorI29llama_grammar_trigger_patternNS_9allocatorIS2_EEE16__destroy_vectorEED2B8ne200100Ev, symObjAddr: 0x181D0, symBinAddr: 0x40D80, symSize: 0xC0 }
  - { offset: 0x18EA7E, size: 0x8, addend: 0x0, symName: __ZNSt3__128__exception_guard_exceptionsINS_6vectorINS1_IPK21llama_grammar_elementNS_9allocatorIS4_EEEENS5_IS7_EEE16__destroy_vectorEED1B8ne200100Ev, symObjAddr: 0x17EF0, symBinAddr: 0x40AA0, symSize: 0x70 }
  - { offset: 0x18F42B, size: 0x8, addend: 0x0, symName: __Z24llama_grammar_apply_implRK13llama_grammarP22llama_token_data_array, symObjAddr: 0x8C00, symBinAddr: 0x31BA0, symSize: 0x610 }
  - { offset: 0x190B14, size: 0x8, addend: 0x0, symName: __ZNSt3__16vectorINS_4pairINS0_IjNS_9allocatorIjEEEE18llama_partial_utf8EENS2_IS6_EEE20__throw_length_errorB8ne200100Ev, symObjAddr: 0x18290, symBinAddr: 0x40E40, symSize: 0x10 }
  - { offset: 0x190B2C, size: 0x8, addend: 0x0, symName: __ZNSt3__16vectorINS0_IPK21llama_grammar_elementNS_9allocatorIS3_EEEENS4_IS6_EEE24__emplace_back_slow_pathIJRS6_EEEPS6_DpOT_, symObjAddr: 0x182A0, symBinAddr: 0x40E50, symSize: 0x19F }
  - { offset: 0x190B37, size: 0x8, addend: 0x0, symName: __ZNSt3__16vectorINS_4pairINS0_IjNS_9allocatorIjEEEE18llama_partial_utf8EENS2_IS6_EEED1B8ne200100Ev, symObjAddr: 0x97F0, symBinAddr: 0x32790, symSize: 0x70 }
  - { offset: 0x1915D8, size: 0x8, addend: 0x0, symName: __Z25llama_grammar_accept_implR13llama_grammari, symObjAddr: 0x9860, symBinAddr: 0x32800, symSize: 0x4E0 }
  - { offset: 0x192983, size: 0x8, addend: 0x0, symName: __Z26llama_grammar_accept_tokenR13llama_grammariRKNSt3__112basic_stringIcNS1_11char_traitsIcEENS1_9allocatorIcEEEE, symObjAddr: 0x9D40, symBinAddr: 0x32CE0, symSize: 0x910 }
  - { offset: 0x195764, size: 0x8, addend: 0x0, symName: __ZNSt3__16vectorINS_4pairIiNS1_ImmEEEENS_9allocatorIS3_EEE9push_backB8ne200100EOS3_, symObjAddr: 0xA650, symBinAddr: 0x335F0, symSize: 0x140 }
  - { offset: 0x195B7A, size: 0x8, addend: 0x0, symName: __ZNSt3__14pairINS_12basic_stringIcNS_11char_traitsIcEENS_9allocatorIcEEEES6_ED1Ev, symObjAddr: 0x142B0, symBinAddr: 0x3CEE0, symSize: 0x40 }
  - { offset: 0x195E92, size: 0x8, addend: 0x0, symName: __ZNSt3__16vectorINS0_IPK21llama_grammar_elementNS_9allocatorIS3_EEEENS4_IS6_EEE24__emplace_back_slow_pathIJRS6_EEEPS6_DpOT_, symObjAddr: 0x182A0, symBinAddr: 0x40E50, symSize: 0x19F }
  - { offset: 0x196676, size: 0x8, addend: 0x0, symName: __ZNSt3__128__exception_guard_exceptionsINS_29_AllocatorDestroyRangeReverseINS_9allocatorINS_6vectorIPK21llama_grammar_elementNS2_IS6_EEEEEEPS8_EEED1B8ne200100Ev, symObjAddr: 0x18060, symBinAddr: 0x40C10, symSize: 0x50 }
  - { offset: 0x1966A3, size: 0x8, addend: 0x0, symName: __ZNSt3__128__exception_guard_exceptionsINS_29_AllocatorDestroyRangeReverseINS_9allocatorINS_6vectorIPK21llama_grammar_elementNS2_IS6_EEEEEEPS8_EEED1B8ne200100Ev, symObjAddr: 0x18060, symBinAddr: 0x40C10, symSize: 0x50 }
  - { offset: 0x196B4A, size: 0x8, addend: 0x0, symName: __Z24llama_grammar_accept_strR13llama_grammarRKNSt3__112basic_stringIcNS1_11char_traitsIcEENS1_9allocatorIcEEEE, symObjAddr: 0xA790, symBinAddr: 0x33730, symSize: 0x130 }
  - { offset: 0x197427, size: 0x8, addend: 0x0, symName: __ZNSt3__114__split_bufferINS_6vectorIPK21llama_grammar_elementNS_9allocatorIS4_EEEERNS5_IS7_EEED1Ev, symObjAddr: 0xB370, symBinAddr: 0x341D0, symSize: 0x60 }
  - { offset: 0x1976CA, size: 0x8, addend: 0x0, symName: __ZNSt3__110shared_ptrINS_13__empty_stateIcEEED1B8ne200100Ev, symObjAddr: 0xB3E0, symBinAddr: 0x34240, symSize: 0x40 }
  - { offset: 0x197A4C, size: 0x8, addend: 0x0, symName: __ZNSt3__16vectorINS_9sub_matchIPKcEENS_9allocatorIS4_EEE6assignEmRKS4_, symObjAddr: 0xBAC0, symBinAddr: 0x34900, symSize: 0x220 }
  - { offset: 0x1980A2, size: 0x8, addend: 0x0, symName: __ZNKSt3__111basic_regexIcNS_12regex_traitsIcEEE27__match_at_start_posix_subsINS_9allocatorINS_9sub_matchIPKcEEEEEEbS8_S8_RNS_13match_resultsIS8_T_EENS_15regex_constants15match_flag_typeEb, symObjAddr: 0xCBF0, symBinAddr: 0x35A30, symSize: 0x6F0 }
  - { offset: 0x199D82, size: 0x8, addend: 0x0, symName: __ZNKSt3__111basic_regexIcNS_12regex_traitsIcEEE21__match_at_start_ecmaINS_9allocatorINS_9sub_matchIPKcEEEEEEbS8_S8_RNS_13match_resultsIS8_T_EENS_15regex_constants15match_flag_typeEb, symObjAddr: 0xBCE0, symBinAddr: 0x34B20, symSize: 0x4F0 }
  - { offset: 0x19AEE5, size: 0x8, addend: 0x0, symName: __ZNKSt3__111basic_regexIcNS_12regex_traitsIcEEE29__match_at_start_posix_nosubsINS_9allocatorINS_9sub_matchIPKcEEEEEEbS8_S8_RNS_13match_resultsIS8_T_EENS_15regex_constants15match_flag_typeEb, symObjAddr: 0xC1D0, symBinAddr: 0x35010, symSize: 0xA20 }
  - { offset: 0x19CE52, size: 0x8, addend: 0x0, symName: __ZNSt3__16vectorINS_9sub_matchINS_11__wrap_iterIPKcEEEENS_9allocatorIS6_EEE8__appendEm, symObjAddr: 0xF160, symBinAddr: 0x37FA0, symSize: 0x1A0 }
  - { offset: 0x19D69D, size: 0x8, addend: 0x0, symName: __ZNSt3__16vectorINS_9sub_matchIPKcEENS_9allocatorIS4_EEE20__throw_length_errorB8ne200100Ev, symObjAddr: 0xD9D0, symBinAddr: 0x36810, symSize: 0x10 }
  - { offset: 0x19D6B5, size: 0x8, addend: 0x0, symName: __ZNSt3__16vectorINS_4pairImPKcEENS_9allocatorIS4_EEE8__appendEm, symObjAddr: 0xD9E0, symBinAddr: 0x36820, symSize: 0x140 }
  - { offset: 0x19DD9E, size: 0x8, addend: 0x0, symName: __ZNSt3__16vectorINS_7__stateIcEENS_9allocatorIS2_EEE24__emplace_back_slow_pathIJS2_EEEPS2_DpOT_, symObjAddr: 0xD440, symBinAddr: 0x36280, symSize: 0x1D0 }
  - { offset: 0x19E45A, size: 0x8, addend: 0x0, symName: __ZNSt3__16vectorINS_9sub_matchIPKcEENS_9allocatorIS4_EEE8__appendEmRKS4_, symObjAddr: 0xD810, symBinAddr: 0x36650, symSize: 0x1C0 }
  - { offset: 0x19E995, size: 0x8, addend: 0x0, symName: __ZNSt3__16vectorINS_4pairImPKcEENS_9allocatorIS4_EEE8__appendEm, symObjAddr: 0xD9E0, symBinAddr: 0x36820, symSize: 0x140 }
  - { offset: 0x19EE0F, size: 0x8, addend: 0x0, symName: __ZNSt3__17__stateIcEC2ERKS1_, symObjAddr: 0xDB30, symBinAddr: 0x36970, symSize: 0x1A0 }
  - { offset: 0x19F467, size: 0x8, addend: 0x0, symName: __ZNSt3__17__stateIcED1Ev, symObjAddr: 0xD2E0, symBinAddr: 0x36120, symSize: 0x40 }
  - { offset: 0x19F6DE, size: 0x8, addend: 0x0, symName: __ZNSt3__16vectorINS_7__stateIcEENS_9allocatorIS2_EEED1B8ne200100Ev, symObjAddr: 0xD3C0, symBinAddr: 0x36200, symSize: 0x80 }
  - { offset: 0x19FF45, size: 0x8, addend: 0x0, symName: __ZNSt3__15dequeINS_7__stateIcEENS_9allocatorIS2_EEE19__add_back_capacityEv, symObjAddr: 0xDE90, symBinAddr: 0x36CD0, symSize: 0x3F0 }
  - { offset: 0x1A0CAC, size: 0x8, addend: 0x0, symName: __ZNSt3__15dequeINS_7__stateIcEENS_9allocatorIS2_EEE20__add_front_capacityEv, symObjAddr: 0xE7F0, symBinAddr: 0x37630, symSize: 0x400 }
  - { offset: 0x1A1AA2, size: 0x8, addend: 0x0, symName: __ZNSt3__15dequeINS_7__stateIcEENS_9allocatorIS2_EEED1B8ne200100Ev, symObjAddr: 0xDE20, symBinAddr: 0x36C60, symSize: 0x70 }
  - { offset: 0x1A1DDF, size: 0x8, addend: 0x0, symName: __ZNSt3__16vectorINS_9sub_matchIPKcEENS_9allocatorIS4_EEE18__assign_with_sizeB8ne200100IPS4_S9_EEvT_T0_l, symObjAddr: 0xEDC0, symBinAddr: 0x37C00, symSize: 0x1F0 }
  - { offset: 0x1A2636, size: 0x8, addend: 0x0, symName: __ZNSt3__16vectorINS_4pairImPKcEENS_9allocatorIS4_EEE18__assign_with_sizeB8ne200100IPS4_S9_EEvT_T0_l, symObjAddr: 0xEFB0, symBinAddr: 0x37DF0, symSize: 0x1B0 }
  - { offset: 0x1A2F8F, size: 0x8, addend: 0x0, symName: __ZNSt3__16vectorINS_7__stateIcEENS_9allocatorIS2_EEE26__swap_out_circular_bufferERNS_14__split_bufferIS2_RS4_EE, symObjAddr: 0xD610, symBinAddr: 0x36450, symSize: 0x170 }
  - { offset: 0x1A3519, size: 0x8, addend: 0x0, symName: __ZNSt3__16vectorINS_7__stateIcEENS_9allocatorIS2_EEE20__throw_length_errorB8ne200100Ev, symObjAddr: 0xD800, symBinAddr: 0x36640, symSize: 0x10 }
  - { offset: 0x1A3531, size: 0x8, addend: 0x0, symName: __ZNSt3__16vectorINS_9sub_matchIPKcEENS_9allocatorIS4_EEE8__appendEmRKS4_, symObjAddr: 0xD810, symBinAddr: 0x36650, symSize: 0x1C0 }
  - { offset: 0x1A353C, size: 0x8, addend: 0x0, symName: __ZNSt3__114__split_bufferINS_7__stateIcEERNS_9allocatorIS2_EEED1Ev, symObjAddr: 0xD780, symBinAddr: 0x365C0, symSize: 0x80 }
  - { offset: 0x1A3E02, size: 0x8, addend: 0x0, symName: __ZNSt3__16vectorINS_4pairImPKcEENS_9allocatorIS4_EEE20__throw_length_errorB8ne200100Ev, symObjAddr: 0xDB20, symBinAddr: 0x36960, symSize: 0x10 }
  - { offset: 0x1A3E1A, size: 0x8, addend: 0x0, symName: __ZNSt3__17__stateIcEC2ERKS1_, symObjAddr: 0xDB30, symBinAddr: 0x36970, symSize: 0x1A0 }
  - { offset: 0x1A421D, size: 0x8, addend: 0x0, symName: __ZNSt3__15dequeINS_7__stateIcEENS_9allocatorIS2_EEE5clearEv, symObjAddr: 0xDCD0, symBinAddr: 0x36B10, symSize: 0x150 }
  - { offset: 0x1A4BF8, size: 0x8, addend: 0x0, symName: __ZNSt3__114__split_bufferIPNS_7__stateIcEENS_9allocatorIS3_EEE12emplace_backIJRS3_EEEvDpOT_, symObjAddr: 0xE280, symBinAddr: 0x370C0, symSize: 0x1D0 }
  - { offset: 0x1A508F, size: 0x8, addend: 0x0, symName: __ZNSt3__114__split_bufferIPNS_7__stateIcEENS_9allocatorIS3_EEE12emplace_backIJS3_EEEvDpOT_, symObjAddr: 0xE450, symBinAddr: 0x37290, symSize: 0x1D0 }
  - { offset: 0x1A5526, size: 0x8, addend: 0x0, symName: __ZNSt3__114__split_bufferIPNS_7__stateIcEENS_9allocatorIS3_EEE13emplace_frontIJS3_EEEvDpOT_, symObjAddr: 0xE620, symBinAddr: 0x37460, symSize: 0x1D0 }
  - { offset: 0x1A5A72, size: 0x8, addend: 0x0, symName: __ZNSt3__114__split_bufferIPNS_7__stateIcEENS_9allocatorIS3_EEE13emplace_frontIJRS3_EEEvDpOT_, symObjAddr: 0xEBF0, symBinAddr: 0x37A30, symSize: 0x1D0 }
  - { offset: 0x1A6372, size: 0x8, addend: 0x0, symName: __ZNSt3__16vectorINS_9sub_matchINS_11__wrap_iterIPKcEEEENS_9allocatorIS6_EEE20__throw_length_errorB8ne200100Ev, symObjAddr: 0xF300, symBinAddr: 0x38140, symSize: 0x10 }
  - { offset: 0x1A638A, size: 0x8, addend: 0x0, symName: __ZNSt3__16__treeINS_12__value_typeINS_12basic_stringIcNS_11char_traitsIcEENS_9allocatorIcEEEEjEENS_19__map_value_compareIS7_S8_NS_4lessIS7_EELb1EEENS5_IS8_EEE25__emplace_unique_key_argsIS7_JS7_RjEEENS_4pairINS_15__tree_iteratorIS8_PNS_11__tree_nodeIS8_PvEElEEbEERKT_DpOT0_, symObjAddr: 0xF310, symBinAddr: 0x38150, symSize: 0x190 }
  - { offset: 0x1A6C59, size: 0x8, addend: 0x0, symName: __ZNSt3__114__split_bufferI29llama_grammar_trigger_patternRNS_9allocatorIS1_EEED1Ev, symObjAddr: 0xFED0, symBinAddr: 0x38B80, symSize: 0xC0 }
  - { offset: 0x1A6F77, size: 0x8, addend: 0x0, symName: __ZNSt3__111basic_regexIcNS_12regex_traitsIcEEEC1B8ne200100Ev, symObjAddr: 0xFE70, symBinAddr: 0x38B20, symSize: 0x60 }
  - { offset: 0x1A722E, size: 0x8, addend: 0x0, symName: __ZNSt3__128__exception_guard_exceptionsINS_29_AllocatorDestroyRangeReverseINS_9allocatorI29llama_grammar_trigger_patternEEPS3_EEED1B8ne200100Ev, symObjAddr: 0x100C0, symBinAddr: 0x38D70, symSize: 0x90 }
  - { offset: 0x1A754F, size: 0x8, addend: 0x0, symName: __ZNSt3__111basic_regexIcNS_12regex_traitsIcEEE7__parseINS_11__wrap_iterIPKcEEEET_S9_S9_, symObjAddr: 0x10220, symBinAddr: 0x38ED0, symSize: 0x1D0 }
  - { offset: 0x1A7F07, size: 0x8, addend: 0x0, symName: __ZNSt3__111basic_regexIcNS_12regex_traitsIcEEE13__parse_egrepINS_11__wrap_iterIPKcEEEET_S9_S9_, symObjAddr: 0x10B50, symBinAddr: 0x39800, symSize: 0x1E0 }
  - { offset: 0x1A8565, size: 0x8, addend: 0x0, symName: __ZNSt3__111basic_regexIcNS_12regex_traitsIcEEE24__parse_extended_reg_expINS_11__wrap_iterIPKcEEEET_S9_S9_, symObjAddr: 0x107E0, symBinAddr: 0x39490, symSize: 0x190 }
  - { offset: 0x1A89BD, size: 0x8, addend: 0x0, symName: __ZNSt3__111basic_regexIcNS_12regex_traitsIcEEE21__parse_basic_reg_expINS_11__wrap_iterIPKcEEEET_S9_S9_, symObjAddr: 0x106A0, symBinAddr: 0x39350, symSize: 0x140 }
  - { offset: 0x1A8E0F, size: 0x8, addend: 0x0, symName: __ZNSt3__111basic_regexIcNS_12regex_traitsIcEEE12__parse_grepINS_11__wrap_iterIPKcEEEET_S9_S9_, symObjAddr: 0x10970, symBinAddr: 0x39620, symSize: 0x1E0 }
  - { offset: 0x1A946D, size: 0x8, addend: 0x0, symName: __ZNSt3__111basic_regexIcNS_12regex_traitsIcEEE16__parse_ecma_expINS_11__wrap_iterIPKcEEEET_S9_S9_, symObjAddr: 0x10440, symBinAddr: 0x390F0, symSize: 0x260 }
  - { offset: 0x1A9D89, size: 0x8, addend: 0x0, symName: __ZNSt3__111basic_regexIcNS_12regex_traitsIcEEE17__parse_assertionINS_11__wrap_iterIPKcEEEET_S9_S9_, symObjAddr: 0x10F50, symBinAddr: 0x39C00, symSize: 0x2D0 }
  - { offset: 0x1AA4D1, size: 0x8, addend: 0x0, symName: __ZNSt3__111basic_regexIcNS_12regex_traitsIcEEE12__parse_atomINS_11__wrap_iterIPKcEEEET_S9_S9_, symObjAddr: 0x11220, symBinAddr: 0x39ED0, symSize: 0x2A0 }
  - { offset: 0x1AA94E, size: 0x8, addend: 0x0, symName: __ZNSt3__111basic_regexIcNS_12regex_traitsIcEEE23__parse_ERE_dupl_symbolINS_11__wrap_iterIPKcEEEET_S9_S9_PNS_16__owns_one_stateIcEEjj, symObjAddr: 0x114C0, symBinAddr: 0x3A170, symSize: 0x3F0 }
  - { offset: 0x1AB281, size: 0x8, addend: 0x0, symName: __ZNSt3__111basic_regexIcNS_12regex_traitsIcEEE18__parse_nondupl_REINS_11__wrap_iterIPKcEEEET_S9_S9_, symObjAddr: 0x170F0, symBinAddr: 0x3FD20, symSize: 0x2D0 }
  - { offset: 0x1ABB1A, size: 0x8, addend: 0x0, symName: __ZNSt3__111basic_regexIcNS_12regex_traitsIcEEE22__parse_RE_dupl_symbolINS_11__wrap_iterIPKcEEEET_S9_S9_PNS_16__owns_one_stateIcEEjj, symObjAddr: 0x173C0, symBinAddr: 0x3FFF0, symSize: 0x260 }
  - { offset: 0x1AC329, size: 0x8, addend: 0x0, symName: __ZNSt3__111basic_regexIcNS_12regex_traitsIcEEE22__parse_ERE_expressionINS_11__wrap_iterIPKcEEEET_S9_S9_, symObjAddr: 0x17720, symBinAddr: 0x40350, symSize: 0x240 }
  - { offset: 0x1AC8B5, size: 0x8, addend: 0x0, symName: __ZNSt3__111__end_stateIcED1Ev, symObjAddr: 0x10D80, symBinAddr: 0x39A30, symSize: 0x10 }
  - { offset: 0x1AC8E1, size: 0x8, addend: 0x0, symName: __ZNSt3__111__end_stateIcED0Ev, symObjAddr: 0x10D90, symBinAddr: 0x39A40, symSize: 0x10 }
  - { offset: 0x1AC901, size: 0x8, addend: 0x0, symName: __ZNKSt3__111__end_stateIcE6__execERNS_7__stateIcEE, symObjAddr: 0x10DA0, symBinAddr: 0x39A50, symSize: 0x10 }
  - { offset: 0x1AC935, size: 0x8, addend: 0x0, symName: __ZNKSt3__16__nodeIcE12__exec_splitEbRNS_7__stateIcEE, symObjAddr: 0x10DB0, symBinAddr: 0x39A60, symSize: 0x10 }
  - { offset: 0x1AC97C, size: 0x8, addend: 0x0, symName: __ZNKSt3__16__nodeIcE6__execERNS_7__stateIcEE, symObjAddr: 0x10DC0, symBinAddr: 0x39A70, symSize: 0x10 }
  - { offset: 0x1AC9C8, size: 0x8, addend: 0x0, symName: __ZNSt3__120__shared_ptr_pointerIPNS_13__empty_stateIcEENS_10shared_ptrIS2_E27__shared_ptr_default_deleteIS2_S2_EENS_9allocatorIS2_EEED1Ev, symObjAddr: 0x10DD0, symBinAddr: 0x39A80, symSize: 0x10 }
  - { offset: 0x1ACA20, size: 0x8, addend: 0x0, symName: __ZNSt3__120__shared_ptr_pointerIPNS_13__empty_stateIcEENS_10shared_ptrIS2_E27__shared_ptr_default_deleteIS2_S2_EENS_9allocatorIS2_EEED0Ev, symObjAddr: 0x10DE0, symBinAddr: 0x39A90, symSize: 0x20 }
  - { offset: 0x1ACA85, size: 0x8, addend: 0x0, symName: __ZNSt3__120__shared_ptr_pointerIPNS_13__empty_stateIcEENS_10shared_ptrIS2_E27__shared_ptr_default_deleteIS2_S2_EENS_9allocatorIS2_EEE16__on_zero_sharedEv, symObjAddr: 0x10E00, symBinAddr: 0x39AB0, symSize: 0x20 }
  - { offset: 0x1ACB1A, size: 0x8, addend: 0x0, symName: __ZNKSt3__120__shared_ptr_pointerIPNS_13__empty_stateIcEENS_10shared_ptrIS2_E27__shared_ptr_default_deleteIS2_S2_EENS_9allocatorIS2_EEE13__get_deleterERKSt9type_info, symObjAddr: 0x10E20, symBinAddr: 0x39AD0, symSize: 0x20 }
  - { offset: 0x1ACBE7, size: 0x8, addend: 0x0, symName: __ZNSt3__120__shared_ptr_pointerIPNS_13__empty_stateIcEENS_10shared_ptrIS2_E27__shared_ptr_default_deleteIS2_S2_EENS_9allocatorIS2_EEE21__on_zero_shared_weakEv, symObjAddr: 0x10E40, symBinAddr: 0x39AF0, symSize: 0x10 }
  - { offset: 0x1ACC96, size: 0x8, addend: 0x0, symName: __ZNSt3__113__empty_stateIcED1Ev, symObjAddr: 0x10E50, symBinAddr: 0x39B00, symSize: 0x30 }
  - { offset: 0x1ACD02, size: 0x8, addend: 0x0, symName: __ZNSt3__113__empty_stateIcED0Ev, symObjAddr: 0x10E80, symBinAddr: 0x39B30, symSize: 0x40 }
  - { offset: 0x1ACD26, size: 0x8, addend: 0x0, symName: __ZNSt3__113__empty_stateIcED0Ev, symObjAddr: 0x10E80, symBinAddr: 0x39B30, symSize: 0x40 }
  - { offset: 0x1ACD44, size: 0x8, addend: 0x0, symName: __ZNSt3__113__empty_stateIcED0Ev, symObjAddr: 0x10E80, symBinAddr: 0x39B30, symSize: 0x40 }
  - { offset: 0x1ACD62, size: 0x8, addend: 0x0, symName: __ZNSt3__113__empty_stateIcED0Ev, symObjAddr: 0x10E80, symBinAddr: 0x39B30, symSize: 0x40 }
  - { offset: 0x1ACDA9, size: 0x8, addend: 0x0, symName: __ZNKSt3__113__empty_stateIcE6__execERNS_7__stateIcEE, symObjAddr: 0x10EC0, symBinAddr: 0x39B70, symSize: 0x20 }
  - { offset: 0x1ACDFC, size: 0x8, addend: 0x0, symName: __ZNSt3__116__owns_one_stateIcED1Ev, symObjAddr: 0x10EE0, symBinAddr: 0x39B90, symSize: 0x30 }
  - { offset: 0x1ACE65, size: 0x8, addend: 0x0, symName: __ZNSt3__116__owns_one_stateIcED0Ev, symObjAddr: 0x10F10, symBinAddr: 0x39BC0, symSize: 0x40 }
  - { offset: 0x1ACE94, size: 0x8, addend: 0x0, symName: __ZNSt3__116__owns_one_stateIcED0Ev, symObjAddr: 0x10F10, symBinAddr: 0x39BC0, symSize: 0x40 }
  - { offset: 0x1ACEB2, size: 0x8, addend: 0x0, symName: __ZNSt3__116__owns_one_stateIcED0Ev, symObjAddr: 0x10F10, symBinAddr: 0x39BC0, symSize: 0x40 }
  - { offset: 0x1ACFDD, size: 0x8, addend: 0x0, symName: __ZNSt3__111basic_regexIcNS_12regex_traitsIcEEE16__push_lookaheadERKS3_bj, symObjAddr: 0x118B0, symBinAddr: 0x3A560, symSize: 0xB0 }
  - { offset: 0x1AD3DF, size: 0x8, addend: 0x0, symName: __ZNSt3__111basic_regexIcNS_12regex_traitsIcEEE19__parse_atom_escapeINS_11__wrap_iterIPKcEEEET_S9_S9_, symObjAddr: 0x11FB0, symBinAddr: 0x3AC60, symSize: 0x100 }
  - { offset: 0x1AD682, size: 0x8, addend: 0x0, symName: __ZNSt3__111basic_regexIcNS_12regex_traitsIcEEE26__parse_bracket_expressionINS_11__wrap_iterIPKcEEEET_S9_S9_, symObjAddr: 0x120B0, symBinAddr: 0x3AD60, symSize: 0x150 }
  - { offset: 0x1AD991, size: 0x8, addend: 0x0, symName: __ZNSt3__111basic_regexIcNS_12regex_traitsIcEEE25__parse_pattern_characterINS_11__wrap_iterIPKcEEEET_S9_S9_, symObjAddr: 0x12250, symBinAddr: 0x3AF00, symSize: 0x1B0 }
  - { offset: 0x1ADB90, size: 0x8, addend: 0x0, symName: __ZNSt3__111basic_regexIcNS_12regex_traitsIcEEE11__push_loopEmmPNS_16__owns_one_stateIcEEmmb, symObjAddr: 0x168A0, symBinAddr: 0x3F4D0, symSize: 0x150 }
  - { offset: 0x1AE179, size: 0x8, addend: 0x0, symName: __ZNSt3__120__l_anchor_multilineIcED1Ev, symObjAddr: 0x119B0, symBinAddr: 0x3A660, symSize: 0x30 }
  - { offset: 0x1AE202, size: 0x8, addend: 0x0, symName: __ZNSt3__120__l_anchor_multilineIcED0Ev, symObjAddr: 0x119E0, symBinAddr: 0x3A690, symSize: 0x40 }
  - { offset: 0x1AE232, size: 0x8, addend: 0x0, symName: __ZNSt3__120__l_anchor_multilineIcED0Ev, symObjAddr: 0x119E0, symBinAddr: 0x3A690, symSize: 0x40 }
  - { offset: 0x1AE250, size: 0x8, addend: 0x0, symName: __ZNSt3__120__l_anchor_multilineIcED0Ev, symObjAddr: 0x119E0, symBinAddr: 0x3A690, symSize: 0x40 }
  - { offset: 0x1AE26E, size: 0x8, addend: 0x0, symName: __ZNSt3__120__l_anchor_multilineIcED0Ev, symObjAddr: 0x119E0, symBinAddr: 0x3A690, symSize: 0x40 }
  - { offset: 0x1AE299, size: 0x8, addend: 0x0, symName: __ZNKSt3__120__l_anchor_multilineIcE6__execERNS_7__stateIcEE, symObjAddr: 0x11A20, symBinAddr: 0x3A6D0, symSize: 0x60 }
  - { offset: 0x1AE2FE, size: 0x8, addend: 0x0, symName: __ZNSt3__120__r_anchor_multilineIcED1Ev, symObjAddr: 0x11A80, symBinAddr: 0x3A730, symSize: 0x30 }
  - { offset: 0x1AE387, size: 0x8, addend: 0x0, symName: __ZNSt3__120__r_anchor_multilineIcED0Ev, symObjAddr: 0x11AB0, symBinAddr: 0x3A760, symSize: 0x40 }
  - { offset: 0x1AE3B7, size: 0x8, addend: 0x0, symName: __ZNSt3__120__r_anchor_multilineIcED0Ev, symObjAddr: 0x11AB0, symBinAddr: 0x3A760, symSize: 0x40 }
  - { offset: 0x1AE3D5, size: 0x8, addend: 0x0, symName: __ZNSt3__120__r_anchor_multilineIcED0Ev, symObjAddr: 0x11AB0, symBinAddr: 0x3A760, symSize: 0x40 }
  - { offset: 0x1AE3F3, size: 0x8, addend: 0x0, symName: __ZNSt3__120__r_anchor_multilineIcED0Ev, symObjAddr: 0x11AB0, symBinAddr: 0x3A760, symSize: 0x40 }
  - { offset: 0x1AE41E, size: 0x8, addend: 0x0, symName: __ZNKSt3__120__r_anchor_multilineIcE6__execERNS_7__stateIcEE, symObjAddr: 0x11AF0, symBinAddr: 0x3A7A0, symSize: 0x60 }
  - { offset: 0x1AE4A9, size: 0x8, addend: 0x0, symName: __ZNSt3__115__word_boundaryIcNS_12regex_traitsIcEEED1Ev, symObjAddr: 0x11B50, symBinAddr: 0x3A800, symSize: 0x50 }
  - { offset: 0x1AE56C, size: 0x8, addend: 0x0, symName: __ZNSt3__115__word_boundaryIcNS_12regex_traitsIcEEED0Ev, symObjAddr: 0x11BA0, symBinAddr: 0x3A850, symSize: 0x50 }
  - { offset: 0x1AE695, size: 0x8, addend: 0x0, symName: __ZNKSt3__115__word_boundaryIcNS_12regex_traitsIcEEE6__execERNS_7__stateIcEE, symObjAddr: 0x11BF0, symBinAddr: 0x3A8A0, symSize: 0x100 }
  - { offset: 0x1AE875, size: 0x8, addend: 0x0, symName: __ZNSt3__111__lookaheadIcNS_12regex_traitsIcEEED1Ev, symObjAddr: 0x11CF0, symBinAddr: 0x3A9A0, symSize: 0x90 }
  - { offset: 0x1AEA1E, size: 0x8, addend: 0x0, symName: __ZNSt3__111__lookaheadIcNS_12regex_traitsIcEEED0Ev, symObjAddr: 0x11D80, symBinAddr: 0x3AA30, symSize: 0x90 }
  - { offset: 0x1AEBCF, size: 0x8, addend: 0x0, symName: __ZNKSt3__111__lookaheadIcNS_12regex_traitsIcEEE6__execERNS_7__stateIcEE, symObjAddr: 0x11E10, symBinAddr: 0x3AAC0, symSize: 0x1A0 }
  - { offset: 0x1AF187, size: 0x8, addend: 0x0, symName: __ZNSt3__111basic_regexIcNS_12regex_traitsIcEEE11__push_charEc, symObjAddr: 0x12BD0, symBinAddr: 0x3B880, symSize: 0x130 }
  - { offset: 0x1AF526, size: 0x8, addend: 0x0, symName: __ZNSt3__111basic_regexIcNS_12regex_traitsIcEEE15__push_back_refEi, symObjAddr: 0x12D50, symBinAddr: 0x3BA00, symSize: 0xD0 }
  - { offset: 0x1AF77A, size: 0x8, addend: 0x0, symName: __ZNSt3__111basic_regexIcNS_12regex_traitsIcEEE30__parse_character_class_escapeINS_11__wrap_iterIPKcEEEET_S9_S9_, symObjAddr: 0x124C0, symBinAddr: 0x3B170, symSize: 0x2E0 }
  - { offset: 0x1AFD1D, size: 0x8, addend: 0x0, symName: __ZNSt3__111basic_regexIcNS_12regex_traitsIcEEE24__parse_character_escapeINS_11__wrap_iterIPKcEEEET_S9_S9_PNS_12basic_stringIcNS_11char_traitsIcEENS_9allocatorIcEEEE, symObjAddr: 0x127A0, symBinAddr: 0x3B450, symSize: 0x430 }
  - { offset: 0x1B0372, size: 0x8, addend: 0x0, symName: __ZNSt3__120__bracket_expressionIcNS_12regex_traitsIcEEEC2B8ne200100ERKS2_PNS_6__nodeIcEEbbb, symObjAddr: 0x135C0, symBinAddr: 0x3C270, symSize: 0x1A0 }
  - { offset: 0x1B0A90, size: 0x8, addend: 0x0, symName: __ZNSt3__120__bracket_expressionIcNS_12regex_traitsIcEEE10__add_charB8ne200100Ec, symObjAddr: 0x13440, symBinAddr: 0x3C0F0, symSize: 0x180 }
  - { offset: 0x1B0E00, size: 0x8, addend: 0x0, symName: __ZNSt3__111basic_regexIcNS_12regex_traitsIcEEE23__parse_expression_termINS_11__wrap_iterIPKcEEEET_S9_S9_PNS_20__bracket_expressionIcS2_EE, symObjAddr: 0x14930, symBinAddr: 0x3D560, symSize: 0x420 }
  - { offset: 0x1B1C48, size: 0x8, addend: 0x0, symName: __ZNSt3__123__match_any_but_newlineIcED1Ev, symObjAddr: 0x12400, symBinAddr: 0x3B0B0, symSize: 0x30 }
  - { offset: 0x1B1CD1, size: 0x8, addend: 0x0, symName: __ZNSt3__123__match_any_but_newlineIcED0Ev, symObjAddr: 0x12430, symBinAddr: 0x3B0E0, symSize: 0x40 }
  - { offset: 0x1B1D01, size: 0x8, addend: 0x0, symName: __ZNSt3__123__match_any_but_newlineIcED0Ev, symObjAddr: 0x12430, symBinAddr: 0x3B0E0, symSize: 0x40 }
  - { offset: 0x1B1D1F, size: 0x8, addend: 0x0, symName: __ZNSt3__123__match_any_but_newlineIcED0Ev, symObjAddr: 0x12430, symBinAddr: 0x3B0E0, symSize: 0x40 }
  - { offset: 0x1B1D3D, size: 0x8, addend: 0x0, symName: __ZNSt3__123__match_any_but_newlineIcED0Ev, symObjAddr: 0x12430, symBinAddr: 0x3B0E0, symSize: 0x40 }
  - { offset: 0x1B218D, size: 0x8, addend: 0x0, symName: __ZNSt3__118__match_char_icaseIcNS_12regex_traitsIcEEED1Ev, symObjAddr: 0x12E20, symBinAddr: 0x3BAD0, symSize: 0x50 }
  - { offset: 0x1B2250, size: 0x8, addend: 0x0, symName: __ZNSt3__118__match_char_icaseIcNS_12regex_traitsIcEEED0Ev, symObjAddr: 0x12E70, symBinAddr: 0x3BB20, symSize: 0x50 }
  - { offset: 0x1B231B, size: 0x8, addend: 0x0, symName: __ZNKSt3__118__match_char_icaseIcNS_12regex_traitsIcEEE6__execERNS_7__stateIcEE, symObjAddr: 0x12EC0, symBinAddr: 0x3BB70, symSize: 0x50 }
  - { offset: 0x1B23D4, size: 0x8, addend: 0x0, symName: __ZNSt3__120__match_char_collateIcNS_12regex_traitsIcEEED1Ev, symObjAddr: 0x12F10, symBinAddr: 0x3BBC0, symSize: 0x50 }
  - { offset: 0x1B2497, size: 0x8, addend: 0x0, symName: __ZNSt3__120__match_char_collateIcNS_12regex_traitsIcEEED0Ev, symObjAddr: 0x12F60, symBinAddr: 0x3BC10, symSize: 0x50 }
  - { offset: 0x1B2562, size: 0x8, addend: 0x0, symName: __ZNKSt3__120__match_char_collateIcNS_12regex_traitsIcEEE6__execERNS_7__stateIcEE, symObjAddr: 0x12FB0, symBinAddr: 0x3BC60, symSize: 0x40 }
  - { offset: 0x1B25D0, size: 0x8, addend: 0x0, symName: __ZNSt3__112__match_charIcED1Ev, symObjAddr: 0x12FF0, symBinAddr: 0x3BCA0, symSize: 0x30 }
  - { offset: 0x1B2659, size: 0x8, addend: 0x0, symName: __ZNSt3__112__match_charIcED0Ev, symObjAddr: 0x13020, symBinAddr: 0x3BCD0, symSize: 0x40 }
  - { offset: 0x1B2689, size: 0x8, addend: 0x0, symName: __ZNSt3__112__match_charIcED0Ev, symObjAddr: 0x13020, symBinAddr: 0x3BCD0, symSize: 0x40 }
  - { offset: 0x1B26A7, size: 0x8, addend: 0x0, symName: __ZNSt3__112__match_charIcED0Ev, symObjAddr: 0x13020, symBinAddr: 0x3BCD0, symSize: 0x40 }
  - { offset: 0x1B26C5, size: 0x8, addend: 0x0, symName: __ZNSt3__112__match_charIcED0Ev, symObjAddr: 0x13020, symBinAddr: 0x3BCD0, symSize: 0x40 }
  - { offset: 0x1B26F0, size: 0x8, addend: 0x0, symName: __ZNKSt3__112__match_charIcE6__execERNS_7__stateIcEE, symObjAddr: 0x13060, symBinAddr: 0x3BD10, symSize: 0x40 }
  - { offset: 0x1B275E, size: 0x8, addend: 0x0, symName: __ZNSt3__116__back_ref_icaseIcNS_12regex_traitsIcEEED1Ev, symObjAddr: 0x130A0, symBinAddr: 0x3BD50, symSize: 0x50 }
  - { offset: 0x1B2821, size: 0x8, addend: 0x0, symName: __ZNSt3__116__back_ref_icaseIcNS_12regex_traitsIcEEED0Ev, symObjAddr: 0x130F0, symBinAddr: 0x3BDA0, symSize: 0x50 }
  - { offset: 0x1B28EC, size: 0x8, addend: 0x0, symName: __ZNKSt3__116__back_ref_icaseIcNS_12regex_traitsIcEEE6__execERNS_7__stateIcEE, symObjAddr: 0x13140, symBinAddr: 0x3BDF0, symSize: 0xC0 }
  - { offset: 0x1B2A5A, size: 0x8, addend: 0x0, symName: __ZNSt3__118__back_ref_collateIcNS_12regex_traitsIcEEED1Ev, symObjAddr: 0x13200, symBinAddr: 0x3BEB0, symSize: 0x50 }
  - { offset: 0x1B2B1D, size: 0x8, addend: 0x0, symName: __ZNSt3__118__back_ref_collateIcNS_12regex_traitsIcEEED0Ev, symObjAddr: 0x13250, symBinAddr: 0x3BF00, symSize: 0x50 }
  - { offset: 0x1B2BE8, size: 0x8, addend: 0x0, symName: __ZNKSt3__118__back_ref_collateIcNS_12regex_traitsIcEEE6__execERNS_7__stateIcEE, symObjAddr: 0x132A0, symBinAddr: 0x3BF50, symSize: 0x80 }
  - { offset: 0x1B2CC1, size: 0x8, addend: 0x0, symName: __ZNSt3__110__back_refIcED1Ev, symObjAddr: 0x13320, symBinAddr: 0x3BFD0, symSize: 0x30 }
  - { offset: 0x1B2D4A, size: 0x8, addend: 0x0, symName: __ZNSt3__110__back_refIcED0Ev, symObjAddr: 0x13350, symBinAddr: 0x3C000, symSize: 0x40 }
  - { offset: 0x1B2D7A, size: 0x8, addend: 0x0, symName: __ZNSt3__110__back_refIcED0Ev, symObjAddr: 0x13350, symBinAddr: 0x3C000, symSize: 0x40 }
  - { offset: 0x1B2D98, size: 0x8, addend: 0x0, symName: __ZNSt3__110__back_refIcED0Ev, symObjAddr: 0x13350, symBinAddr: 0x3C000, symSize: 0x40 }
  - { offset: 0x1B2DB6, size: 0x8, addend: 0x0, symName: __ZNSt3__110__back_refIcED0Ev, symObjAddr: 0x13350, symBinAddr: 0x3C000, symSize: 0x40 }
  - { offset: 0x1B2DE1, size: 0x8, addend: 0x0, symName: __ZNKSt3__110__back_refIcE6__execERNS_7__stateIcEE, symObjAddr: 0x13390, symBinAddr: 0x3C040, symSize: 0xB0 }
  - { offset: 0x1B31E7, size: 0x8, addend: 0x0, symName: __ZNSt3__16vectorIcNS_9allocatorIcEEE20__throw_length_errorB8ne200100Ev, symObjAddr: 0x148D0, symBinAddr: 0x3D500, symSize: 0x10 }
  - { offset: 0x1B31FF, size: 0x8, addend: 0x0, symName: __ZNSt3__119__throw_regex_errorB8ne200100ILNS_15regex_constants10error_typeE5EEEvv, symObjAddr: 0x148E0, symBinAddr: 0x3D510, symSize: 0x50 }
  - { offset: 0x1B35CA, size: 0x8, addend: 0x0, symName: __ZNSt3__16vectorINS_4pairINS_12basic_stringIcNS_11char_traitsIcEENS_9allocatorIcEEEES7_EENS5_IS8_EEED1B8ne200100Ev, symObjAddr: 0x137D0, symBinAddr: 0x3C410, symSize: 0x90 }
  - { offset: 0x1B3C40, size: 0x8, addend: 0x0, symName: __ZNSt3__120__bracket_expressionIcNS_12regex_traitsIcEEED1Ev, symObjAddr: 0x13860, symBinAddr: 0x3C4A0, symSize: 0x10 }
  - { offset: 0x1B3C76, size: 0x8, addend: 0x0, symName: __ZNSt3__120__bracket_expressionIcNS_12regex_traitsIcEEED2Ev, symObjAddr: 0x142F0, symBinAddr: 0x3CF20, symSize: 0x150 }
  - { offset: 0x1B4698, size: 0x8, addend: 0x0, symName: __ZNSt3__120__bracket_expressionIcNS_12regex_traitsIcEEED0Ev, symObjAddr: 0x13870, symBinAddr: 0x3C4B0, symSize: 0x20 }
  - { offset: 0x1B4AEE, size: 0x8, addend: 0x0, symName: __ZNKSt3__120__bracket_expressionIcNS_12regex_traitsIcEEE6__execERNS_7__stateIcEE, symObjAddr: 0x13890, symBinAddr: 0x3C4D0, symSize: 0xA10 }
  - { offset: 0x1B65C1, size: 0x8, addend: 0x0, symName: __ZNKSt3__112regex_traitsIcE20__lookup_collatenameIPcEENS_12basic_stringIcNS_11char_traitsIcEENS_9allocatorIcEEEET_SA_c, symObjAddr: 0x14550, symBinAddr: 0x3D180, symSize: 0x210 }
  - { offset: 0x1B715E, size: 0x8, addend: 0x0, symName: __ZNKSt3__112regex_traitsIcE9transformIPcEENS_12basic_stringIcNS_11char_traitsIcEENS_9allocatorIcEEEET_SA_, symObjAddr: 0x14440, symBinAddr: 0x3D070, symSize: 0x110 }
  - { offset: 0x1B779F, size: 0x8, addend: 0x0, symName: __ZNKSt3__112regex_traitsIcE19__transform_primaryIPcEENS_12basic_stringIcNS_11char_traitsIcEENS_9allocatorIcEEEET_SA_c, symObjAddr: 0x14760, symBinAddr: 0x3D390, symSize: 0x170 }
  - { offset: 0x1B7F1E, size: 0x8, addend: 0x0, symName: __ZNSt3__14pairINS_12basic_stringIcNS_11char_traitsIcEENS_9allocatorIcEEEES6_ED1Ev, symObjAddr: 0x142B0, symBinAddr: 0x3CEE0, symSize: 0x40 }
  - { offset: 0x1B820F, size: 0x8, addend: 0x0, symName: __ZNSt3__111basic_regexIcNS_12regex_traitsIcEEE25__parse_equivalence_classINS_11__wrap_iterIPKcEEEET_S9_S9_PNS_20__bracket_expressionIcS2_EE, symObjAddr: 0x14D50, symBinAddr: 0x3D980, symSize: 0x250 }
  - { offset: 0x1B8D4D, size: 0x8, addend: 0x0, symName: __ZNSt3__111basic_regexIcNS_12regex_traitsIcEEE18__parse_awk_escapeINS_11__wrap_iterIPKcEEEET_S9_S9_PNS_12basic_stringIcNS_11char_traitsIcEENS_9allocatorIcEEEE, symObjAddr: 0x152A0, symBinAddr: 0x3DED0, symSize: 0x2E0 }
  - { offset: 0x1B8EC0, size: 0x8, addend: 0x0, symName: __ZNSt3__111basic_regexIcNS_12regex_traitsIcEEE23__parse_character_classINS_11__wrap_iterIPKcEEEET_S9_S9_PNS_20__bracket_expressionIcS2_EE, symObjAddr: 0x14FA0, symBinAddr: 0x3DBD0, symSize: 0x90 }
  - { offset: 0x1B91F7, size: 0x8, addend: 0x0, symName: __ZNSt3__111basic_regexIcNS_12regex_traitsIcEEE24__parse_collating_symbolINS_11__wrap_iterIPKcEEEET_S9_S9_RNS_12basic_stringIcNS_11char_traitsIcEENS_9allocatorIcEEEE, symObjAddr: 0x15030, symBinAddr: 0x3DC60, symSize: 0xD0 }
  - { offset: 0x1B9617, size: 0x8, addend: 0x0, symName: __ZNSt3__111basic_regexIcNS_12regex_traitsIcEEE20__parse_class_escapeINS_11__wrap_iterIPKcEEEET_S9_S9_RNS_12basic_stringIcNS_11char_traitsIcEENS_9allocatorIcEEEEPNS_20__bracket_expressionIcS2_EE, symObjAddr: 0x15100, symBinAddr: 0x3DD30, symSize: 0x1A0 }
  - { offset: 0x1B97F6, size: 0x8, addend: 0x0, symName: __ZNSt3__120__bracket_expressionIcNS_12regex_traitsIcEEE13__add_digraphB8ne200100Ecc, symObjAddr: 0x159C0, symBinAddr: 0x3E5F0, symSize: 0x1E0 }
  - { offset: 0x1B9E7C, size: 0x8, addend: 0x0, symName: __ZNSt3__120__bracket_expressionIcNS_12regex_traitsIcEEE11__add_rangeB8ne200100ENS_12basic_stringIcNS_11char_traitsIcEENS_9allocatorIcEEEES9_, symObjAddr: 0x15580, symBinAddr: 0x3E1B0, symSize: 0x440 }
  - { offset: 0x1BB5A4, size: 0x8, addend: 0x0, symName: __ZNKSt3__112regex_traitsIcE20__lookup_collatenameINS_11__wrap_iterIPKcEEEENS_12basic_stringIcNS_11char_traitsIcEENS_9allocatorIcEEEET_SD_c, symObjAddr: 0x15BF0, symBinAddr: 0x3E820, symSize: 0x210 }
  - { offset: 0x1BC156, size: 0x8, addend: 0x0, symName: __ZNKSt3__112regex_traitsIcE19__transform_primaryINS_11__wrap_iterIPcEEEENS_12basic_stringIcNS_11char_traitsIcEENS_9allocatorIcEEEET_SC_c, symObjAddr: 0x15E00, symBinAddr: 0x3EA30, symSize: 0x170 }
  - { offset: 0x1BC8EA, size: 0x8, addend: 0x0, symName: __ZNSt3__16vectorINS_12basic_stringIcNS_11char_traitsIcEENS_9allocatorIcEEEENS4_IS6_EEE24__emplace_back_slow_pathIJRKS6_EEEPS6_DpOT_, symObjAddr: 0x15F70, symBinAddr: 0x3EBA0, symSize: 0x180 }
  - { offset: 0x1BCD93, size: 0x8, addend: 0x0, symName: __ZNKSt3__112regex_traitsIcE18__lookup_classnameINS_11__wrap_iterIPKcEEEEjT_S7_bc, symObjAddr: 0x161B0, symBinAddr: 0x3EDE0, symSize: 0x120 }
  - { offset: 0x1BD4E4, size: 0x8, addend: 0x0, symName: __ZNSt3__120__bracket_expressionIcNS_12regex_traitsIcEEE14__add_neg_charB8ne200100Ec, symObjAddr: 0x162D0, symBinAddr: 0x3EF00, symSize: 0x180 }
  - { offset: 0x1BD916, size: 0x8, addend: 0x0, symName: __ZNKSt3__112regex_traitsIcE9transformINS_11__wrap_iterIPcEEEENS_12basic_stringIcNS_11char_traitsIcEENS_9allocatorIcEEEET_SC_, symObjAddr: 0x165E0, symBinAddr: 0x3F210, symSize: 0x110 }
  - { offset: 0x1BDF90, size: 0x8, addend: 0x0, symName: __ZNSt3__16vectorINS_4pairINS_12basic_stringIcNS_11char_traitsIcEENS_9allocatorIcEEEES7_EENS5_IS8_EEE9push_backB8ne200100EOS8_, symObjAddr: 0x16450, symBinAddr: 0x3F080, symSize: 0x190 }
  - { offset: 0x1BE87D, size: 0x8, addend: 0x0, symName: __ZNSt3__16vectorINS_4pairIccEENS_9allocatorIS2_EEE20__throw_length_errorB8ne200100Ev, symObjAddr: 0x16750, symBinAddr: 0x3F380, symSize: 0x10 }
  - { offset: 0x1BE895, size: 0x8, addend: 0x0, symName: __ZNSt3__128__begin_marked_subexpressionIcED1Ev, symObjAddr: 0x16760, symBinAddr: 0x3F390, symSize: 0x30 }
  - { offset: 0x1BED14, size: 0x8, addend: 0x0, symName: __ZNSt3__16vectorINS_12basic_stringIcNS_11char_traitsIcEENS_9allocatorIcEEEENS4_IS6_EEE20__throw_length_errorB8ne200100Ev, symObjAddr: 0x16150, symBinAddr: 0x3ED80, symSize: 0x10 }
  - { offset: 0x1BED2C, size: 0x8, addend: 0x0, symName: __ZNSt3__119__throw_regex_errorB8ne200100ILNS_15regex_constants10error_typeE2EEEvv, symObjAddr: 0x16160, symBinAddr: 0x3ED90, symSize: 0x50 }
  - { offset: 0x1BED37, size: 0x8, addend: 0x0, symName: __ZNSt3__114__split_bufferINS_12basic_stringIcNS_11char_traitsIcEENS_9allocatorIcEEEERNS4_IS6_EEED1Ev, symObjAddr: 0x160F0, symBinAddr: 0x3ED20, symSize: 0x60 }
  - { offset: 0x1BF2F6, size: 0x8, addend: 0x0, symName: __ZNSt3__16vectorINS_4pairINS_12basic_stringIcNS_11char_traitsIcEENS_9allocatorIcEEEES7_EENS5_IS8_EEE20__throw_length_errorB8ne200100Ev, symObjAddr: 0x16740, symBinAddr: 0x3F370, symSize: 0x10 }
  - { offset: 0x1BF30E, size: 0x8, addend: 0x0, symName: __ZNSt3__16vectorINS_4pairIccEENS_9allocatorIS2_EEE20__throw_length_errorB8ne200100Ev, symObjAddr: 0x16750, symBinAddr: 0x3F380, symSize: 0x10 }
  - { offset: 0x1BF336, size: 0x8, addend: 0x0, symName: __ZNSt3__128__begin_marked_subexpressionIcED1Ev, symObjAddr: 0x16760, symBinAddr: 0x3F390, symSize: 0x30 }
  - { offset: 0x1BF3BF, size: 0x8, addend: 0x0, symName: __ZNSt3__128__begin_marked_subexpressionIcED0Ev, symObjAddr: 0x16790, symBinAddr: 0x3F3C0, symSize: 0x40 }
  - { offset: 0x1BF3EF, size: 0x8, addend: 0x0, symName: __ZNSt3__128__begin_marked_subexpressionIcED0Ev, symObjAddr: 0x16790, symBinAddr: 0x3F3C0, symSize: 0x40 }
  - { offset: 0x1BF40D, size: 0x8, addend: 0x0, symName: __ZNSt3__128__begin_marked_subexpressionIcED0Ev, symObjAddr: 0x16790, symBinAddr: 0x3F3C0, symSize: 0x40 }
  - { offset: 0x1BF42B, size: 0x8, addend: 0x0, symName: __ZNSt3__128__begin_marked_subexpressionIcED0Ev, symObjAddr: 0x16790, symBinAddr: 0x3F3C0, symSize: 0x40 }
  - { offset: 0x1BF456, size: 0x8, addend: 0x0, symName: __ZNKSt3__128__begin_marked_subexpressionIcE6__execERNS_7__stateIcEE, symObjAddr: 0x167D0, symBinAddr: 0x3F400, symSize: 0x30 }
  - { offset: 0x1BF4EA, size: 0x8, addend: 0x0, symName: __ZNSt3__126__end_marked_subexpressionIcED1Ev, symObjAddr: 0x16800, symBinAddr: 0x3F430, symSize: 0x30 }
  - { offset: 0x1BF573, size: 0x8, addend: 0x0, symName: __ZNSt3__126__end_marked_subexpressionIcED0Ev, symObjAddr: 0x16830, symBinAddr: 0x3F460, symSize: 0x40 }
  - { offset: 0x1BF5A3, size: 0x8, addend: 0x0, symName: __ZNSt3__126__end_marked_subexpressionIcED0Ev, symObjAddr: 0x16830, symBinAddr: 0x3F460, symSize: 0x40 }
  - { offset: 0x1BF5C1, size: 0x8, addend: 0x0, symName: __ZNSt3__126__end_marked_subexpressionIcED0Ev, symObjAddr: 0x16830, symBinAddr: 0x3F460, symSize: 0x40 }
  - { offset: 0x1BF5DF, size: 0x8, addend: 0x0, symName: __ZNSt3__126__end_marked_subexpressionIcED0Ev, symObjAddr: 0x16830, symBinAddr: 0x3F460, symSize: 0x40 }
  - { offset: 0x1BF60A, size: 0x8, addend: 0x0, symName: __ZNKSt3__126__end_marked_subexpressionIcE6__execERNS_7__stateIcEE, symObjAddr: 0x16870, symBinAddr: 0x3F4A0, symSize: 0x30 }
  - { offset: 0x1BF8CF, size: 0x8, addend: 0x0, symName: __ZNSt3__16__loopIcED0Ev, symObjAddr: 0x16AE0, symBinAddr: 0x3F710, symSize: 0x60 }
  - { offset: 0x1BF9C0, size: 0x8, addend: 0x0, symName: __ZNSt3__16__loopIcED1Ev, symObjAddr: 0x16A90, symBinAddr: 0x3F6C0, symSize: 0x50 }
  - { offset: 0x1BFAE8, size: 0x8, addend: 0x0, symName: __ZNKSt3__16__loopIcE6__execERNS_7__stateIcEE, symObjAddr: 0x16B40, symBinAddr: 0x3F770, symSize: 0x260 }
  - { offset: 0x1BFC4E, size: 0x8, addend: 0x0, symName: __ZNKSt3__16__loopIcE12__exec_splitEbRNS_7__stateIcEE, symObjAddr: 0x16DA0, symBinAddr: 0x3F9D0, symSize: 0xF0 }
  - { offset: 0x1BFD35, size: 0x8, addend: 0x0, symName: __ZNSt3__117__owns_two_statesIcED1Ev, symObjAddr: 0x16E90, symBinAddr: 0x3FAC0, symSize: 0x50 }
  - { offset: 0x1BFDC7, size: 0x8, addend: 0x0, symName: __ZNSt3__117__owns_two_statesIcED0Ev, symObjAddr: 0x16EE0, symBinAddr: 0x3FB10, symSize: 0x60 }
  - { offset: 0x1BFE61, size: 0x8, addend: 0x0, symName: __ZNSt3__117__repeat_one_loopIcED1Ev, symObjAddr: 0x16F40, symBinAddr: 0x3FB70, symSize: 0x10 }
  - { offset: 0x1BFE8D, size: 0x8, addend: 0x0, symName: __ZNSt3__117__repeat_one_loopIcED0Ev, symObjAddr: 0x16F50, symBinAddr: 0x3FB80, symSize: 0x10 }
  - { offset: 0x1BFEB9, size: 0x8, addend: 0x0, symName: __ZNKSt3__117__repeat_one_loopIcE6__execERNS_7__stateIcEE, symObjAddr: 0x16F60, symBinAddr: 0x3FB90, symSize: 0x20 }
  - { offset: 0x1BFF27, size: 0x8, addend: 0x0, symName: __ZNSt3__111__alternateIcED1Ev, symObjAddr: 0x16F80, symBinAddr: 0x3FBB0, symSize: 0x50 }
  - { offset: 0x1BFFDB, size: 0x8, addend: 0x0, symName: __ZNSt3__111__alternateIcED0Ev, symObjAddr: 0x16FD0, symBinAddr: 0x3FC00, symSize: 0x60 }
  - { offset: 0x1C0095, size: 0x8, addend: 0x0, symName: __ZNKSt3__111__alternateIcE6__execERNS_7__stateIcEE, symObjAddr: 0x17030, symBinAddr: 0x3FC60, symSize: 0x10 }
  - { offset: 0x1C00C9, size: 0x8, addend: 0x0, symName: __ZNKSt3__111__alternateIcE12__exec_splitEbRNS_7__stateIcEE, symObjAddr: 0x17040, symBinAddr: 0x3FC70, symSize: 0x20 }
  - { offset: 0x1C0118, size: 0x8, addend: 0x0, symName: __ZNSt3__121__empty_non_own_stateIcED1Ev, symObjAddr: 0x17060, symBinAddr: 0x3FC90, symSize: 0x10 }
  - { offset: 0x1C0144, size: 0x8, addend: 0x0, symName: __ZNSt3__121__empty_non_own_stateIcED0Ev, symObjAddr: 0x17070, symBinAddr: 0x3FCA0, symSize: 0x10 }
  - { offset: 0x1C0170, size: 0x8, addend: 0x0, symName: __ZNKSt3__121__empty_non_own_stateIcE6__execERNS_7__stateIcEE, symObjAddr: 0x17080, symBinAddr: 0x3FCB0, symSize: 0x20 }
  - { offset: 0x1C04B5, size: 0x8, addend: 0x0, symName: __ZNSt3__111__match_anyIcED1Ev, symObjAddr: 0x17620, symBinAddr: 0x40250, symSize: 0x30 }
  - { offset: 0x1C053E, size: 0x8, addend: 0x0, symName: __ZNSt3__111__match_anyIcED0Ev, symObjAddr: 0x17650, symBinAddr: 0x40280, symSize: 0x40 }
  - { offset: 0x1C056E, size: 0x8, addend: 0x0, symName: __ZNSt3__111__match_anyIcED0Ev, symObjAddr: 0x17650, symBinAddr: 0x40280, symSize: 0x40 }
  - { offset: 0x1C058C, size: 0x8, addend: 0x0, symName: __ZNSt3__111__match_anyIcED0Ev, symObjAddr: 0x17650, symBinAddr: 0x40280, symSize: 0x40 }
  - { offset: 0x1C05AA, size: 0x8, addend: 0x0, symName: __ZNSt3__111__match_anyIcED0Ev, symObjAddr: 0x17650, symBinAddr: 0x40280, symSize: 0x40 }
  - { offset: 0x1C05D5, size: 0x8, addend: 0x0, symName: __ZNKSt3__111__match_anyIcE6__execERNS_7__stateIcEE, symObjAddr: 0x17690, symBinAddr: 0x402C0, symSize: 0x40 }
  - { offset: 0x1C0626, size: 0x8, addend: 0x0, symName: __ZNSt3__111basic_regexIcNS_12regex_traitsIcEEE15__test_back_refEc, symObjAddr: 0x176D0, symBinAddr: 0x40300, symSize: 0x50 }
  - { offset: 0x1C0750, size: 0x8, addend: 0x0, symName: __ZNSt3__111basic_regexIcNS_12regex_traitsIcEEE20__parse_ORD_CHAR_EREINS_11__wrap_iterIPKcEEEET_S9_S9_, symObjAddr: 0x17960, symBinAddr: 0x40590, symSize: 0x1C0 }
  - { offset: 0x1C07ED, size: 0x8, addend: 0x0, symName: __ZNSt3__111basic_regexIcNS_12regex_traitsIcEEE23__parse_QUOTED_CHAR_EREINS_11__wrap_iterIPKcEEEET_S9_S9_, symObjAddr: 0x17B20, symBinAddr: 0x40750, symSize: 0x200 }
  - { offset: 0x1C0A5A, size: 0x8, addend: 0x0, symName: __ZNSt3__128__exception_guard_exceptionsINS_29_AllocatorDestroyRangeReverseINS_9allocatorINS_6vectorI21llama_grammar_elementNS2_IS4_EEEEEEPS6_EEED1B8ne200100Ev, symObjAddr: 0x17EA0, symBinAddr: 0x40A50, symSize: 0x50 }
  - { offset: 0x1C0A87, size: 0x8, addend: 0x0, symName: __ZNSt3__128__exception_guard_exceptionsINS_29_AllocatorDestroyRangeReverseINS_9allocatorINS_6vectorI21llama_grammar_elementNS2_IS4_EEEEEEPS6_EEED1B8ne200100Ev, symObjAddr: 0x17EA0, symBinAddr: 0x40A50, symSize: 0x50 }
  - { offset: 0x1EEC31, size: 0x8, addend: 0x0, symName: __ZNSt3__125__throw_bad_function_callB8ne200100Ev, symObjAddr: 0xC940, symBinAddr: 0x4D350, symSize: 0x40 }
  - { offset: 0x1EF07D, size: 0x8, addend: 0x0, symName: __ZNSt3__111make_uniqueB8ne200100I24llm_graph_input_samplingJRKNS_3mapIiP13llama_samplerNS_4lessIiEENS_9allocatorINS_4pairIKiS4_EEEEEEELi0EEENS_10unique_ptrIT_NS_14default_deleteISG_EEEEDpOT0_, symObjAddr: 0xB390, symBinAddr: 0x4C2C0, symSize: 0x110 }
  - { offset: 0x1F8FD0, size: 0x8, addend: 0x0, symName: __ZN20llm_graph_input_embd9set_inputEPK12llama_ubatch, symObjAddr: 0x0, symBinAddr: 0x40FF0, symSize: 0xC0 }
  - { offset: 0x1F9105, size: 0x8, addend: 0x0, symName: __ZN20llm_graph_input_embd9can_reuseERK16llm_graph_params, symObjAddr: 0xC0, symBinAddr: 0x410B0, symSize: 0x70 }
  - { offset: 0x1F93B7, size: 0x8, addend: 0x0, symName: __ZN19llm_graph_input_pos9set_inputEPK12llama_ubatch, symObjAddr: 0x130, symBinAddr: 0x41120, symSize: 0x290 }
  - { offset: 0x1F977A, size: 0x8, addend: 0x0, symName: __ZN19llm_graph_input_pos9can_reuseERK16llm_graph_params, symObjAddr: 0x3C0, symBinAddr: 0x413B0, symSize: 0x20 }
  - { offset: 0x1F9A33, size: 0x8, addend: 0x0, symName: __ZN25llm_graph_input_attn_temp9set_inputEPK12llama_ubatch, symObjAddr: 0x3E0, symBinAddr: 0x413D0, symSize: 0x330 }
  - { offset: 0x1F9EB3, size: 0x8, addend: 0x0, symName: __ZN26llm_graph_input_pos_bucket9set_inputEPK12llama_ubatch, symObjAddr: 0x710, symBinAddr: 0x41700, symSize: 0x5C0 }
  - { offset: 0x1FA013, size: 0x8, addend: 0x0, symName: __Z30llama_relative_position_bucketiiyb, symObjAddr: 0xCD0, symBinAddr: 0x41CC0, symSize: 0xF0 }
  - { offset: 0x1FA078, size: 0x8, addend: 0x0, symName: __ZN29llm_graph_input_pos_bucket_kv9set_inputEPK12llama_ubatch, symObjAddr: 0xDC0, symBinAddr: 0x41DB0, symSize: 0x20 }
  - { offset: 0x1FA0B0, size: 0x8, addend: 0x0, symName: __ZN23llm_graph_input_out_ids9set_inputEPK12llama_ubatch, symObjAddr: 0xDE0, symBinAddr: 0x41DD0, symSize: 0x1C0 }
  - { offset: 0x1FA18A, size: 0x8, addend: 0x0, symName: __ZN23llm_graph_input_out_ids9can_reuseERK16llm_graph_params, symObjAddr: 0xFA0, symBinAddr: 0x41F90, symSize: 0x20 }
  - { offset: 0x1FA443, size: 0x8, addend: 0x0, symName: __ZN20llm_graph_input_mean9set_inputEPK12llama_ubatch, symObjAddr: 0xFC0, symBinAddr: 0x41FB0, symSize: 0x650 }
  - { offset: 0x1FAC3B, size: 0x8, addend: 0x0, symName: __ZN19llm_graph_input_cls9set_inputEPK12llama_ubatch, symObjAddr: 0x1610, symBinAddr: 0x42600, symSize: 0x4D0 }
  - { offset: 0x1FB25E, size: 0x8, addend: 0x0, symName: __ZN18llm_graph_input_rs9set_inputEPK12llama_ubatch, symObjAddr: 0x1AE0, symBinAddr: 0x42AD0, symSize: 0xA0 }
  - { offset: 0x1FB2F1, size: 0x8, addend: 0x0, symName: __ZN18llm_graph_input_rs9can_reuseERK16llm_graph_params, symObjAddr: 0x1B80, symBinAddr: 0x42B70, symSize: 0xB0 }
  - { offset: 0x1FB367, size: 0x8, addend: 0x0, symName: __ZN26llm_graph_input_cross_embd9set_inputEPK12llama_ubatch, symObjAddr: 0x1C30, symBinAddr: 0x42C20, symSize: 0x40 }
  - { offset: 0x1FB3F7, size: 0x8, addend: 0x0, symName: __ZN29llm_graph_input_attn_no_cache9set_inputEPK12llama_ubatch, symObjAddr: 0x1C70, symBinAddr: 0x42C60, symSize: 0x340 }
  - { offset: 0x1FB989, size: 0x8, addend: 0x0, symName: __ZL10print_maskPKfxxx14llama_swa_type, symObjAddr: 0x1FB0, symBinAddr: 0x42FA0, symSize: 0x220 }
  - { offset: 0x1FBB9E, size: 0x8, addend: 0x0, symName: __ZN23llm_graph_input_attn_kv9set_inputEPK12llama_ubatch, symObjAddr: 0x21D0, symBinAddr: 0x431C0, symSize: 0x60 }
  - { offset: 0x1FBBD8, size: 0x8, addend: 0x0, symName: __ZN23llm_graph_input_attn_kv9can_reuseERK16llm_graph_params, symObjAddr: 0x2230, symBinAddr: 0x43220, symSize: 0x60 }
  - { offset: 0x1FBC32, size: 0x8, addend: 0x0, symName: __ZN22llm_graph_input_attn_k9set_inputEPK12llama_ubatch, symObjAddr: 0x2290, symBinAddr: 0x43280, symSize: 0x40 }
  - { offset: 0x1FBC6C, size: 0x8, addend: 0x0, symName: __ZN22llm_graph_input_attn_k9can_reuseERK16llm_graph_params, symObjAddr: 0x22D0, symBinAddr: 0x432C0, symSize: 0x60 }
  - { offset: 0x1FBCC6, size: 0x8, addend: 0x0, symName: __ZN28llm_graph_input_attn_kv_iswa9set_inputEPK12llama_ubatch, symObjAddr: 0x2330, symBinAddr: 0x43320, symSize: 0xD0 }
  - { offset: 0x1FBD00, size: 0x8, addend: 0x0, symName: __ZN28llm_graph_input_attn_kv_iswa9can_reuseERK16llm_graph_params, symObjAddr: 0x2400, symBinAddr: 0x433F0, symSize: 0xC0 }
  - { offset: 0x1FBE36, size: 0x8, addend: 0x0, symName: __ZN26llm_graph_input_attn_cross9set_inputEPK12llama_ubatch, symObjAddr: 0x24C0, symBinAddr: 0x434B0, symSize: 0x210 }
  - { offset: 0x1FC0F1, size: 0x8, addend: 0x0, symName: __ZN26llm_graph_input_mem_hybrid9set_inputEPK12llama_ubatch, symObjAddr: 0x26D0, symBinAddr: 0x436C0, symSize: 0x110 }
  - { offset: 0x1FC206, size: 0x8, addend: 0x0, symName: __ZN26llm_graph_input_mem_hybrid9can_reuseERK16llm_graph_params, symObjAddr: 0x27E0, symBinAddr: 0x437D0, symSize: 0x130 }
  - { offset: 0x1FC336, size: 0x8, addend: 0x0, symName: __ZN31llm_graph_input_mem_hybrid_iswa9set_inputEPK12llama_ubatch, symObjAddr: 0x2910, symBinAddr: 0x43900, symSize: 0x190 }
  - { offset: 0x1FC4EC, size: 0x8, addend: 0x0, symName: __ZN31llm_graph_input_mem_hybrid_iswa9can_reuseERK16llm_graph_params, symObjAddr: 0x2AA0, symBinAddr: 0x43A90, symSize: 0x1B0 }
  - { offset: 0x1FCF58, size: 0x8, addend: 0x0, symName: __ZN24llm_graph_input_sampling9set_inputEPK12llama_ubatch, symObjAddr: 0x2C50, symBinAddr: 0x43C40, symSize: 0x210 }
  - { offset: 0x1FD897, size: 0x8, addend: 0x0, symName: __ZNSt3__112__hash_tableIiNS_4hashIiEENS_8equal_toIiEENS_9allocatorIiEEE25__emplace_unique_key_argsIiJRKiEEENS_4pairINS_15__hash_iteratorIPNS_11__hash_nodeIiPvEEEEbEERKT_DpOT0_, symObjAddr: 0xC040, symBinAddr: 0x4CCC0, symSize: 0x490 }
  - { offset: 0x1FDF23, size: 0x8, addend: 0x0, symName: __ZNSt3__113unordered_setIiNS_4hashIiEENS_8equal_toIiEENS_9allocatorIiEEED1B8ne200100Ev, symObjAddr: 0x2E60, symBinAddr: 0x43E50, symSize: 0x50 }
  - { offset: 0x1FE275, size: 0x8, addend: 0x0, symName: __ZN24llm_graph_input_sampling9can_reuseERK16llm_graph_params, symObjAddr: 0x2EB0, symBinAddr: 0x43EA0, symSize: 0x140 }
  - { offset: 0x1FE2B1, size: 0x8, addend: 0x0, symName: __ZN24llm_graph_input_sampling9can_reuseERK16llm_graph_params, symObjAddr: 0x2EB0, symBinAddr: 0x43EA0, symSize: 0x140 }
  - { offset: 0x1FEBC6, size: 0x8, addend: 0x0, symName: __ZN16llm_graph_resultC2Ex, symObjAddr: 0x2FF0, symBinAddr: 0x43FE0, symSize: 0x320 }
  - { offset: 0x1FF46E, size: 0x8, addend: 0x0, symName: __ZN16llm_graph_result5resetEv, symObjAddr: 0x3310, symBinAddr: 0x44300, symSize: 0x700 }
  - { offset: 0x2004CA, size: 0x8, addend: 0x0, symName: __ZNSt3__16vectorINS_10unique_ptrI17llm_graph_input_iNS_14default_deleteIS2_EEEENS_9allocatorIS5_EEED1B8ne200100Ev, symObjAddr: 0x3AD0, symBinAddr: 0x44A00, symSize: 0x80 }
  - { offset: 0x2006BF, size: 0x8, addend: 0x0, symName: __ZNSt3__16__treeINS_12__value_typeIiP11ggml_tensorEENS_19__map_value_compareIiS4_NS_4lessIiEELb1EEENS_9allocatorIS4_EEE7destroyEPNS_11__tree_nodeIS4_PvEE, symObjAddr: 0xC680, symBinAddr: 0x4D300, symSize: 0x40 }
  - { offset: 0x2012B8, size: 0x8, addend: 0x0, symName: __ZNSt3__16vectorINS_10unique_ptrI17llm_graph_input_iNS_14default_deleteIS2_EEEENS_9allocatorIS5_EEE20__throw_length_errorB8ne200100Ev, symObjAddr: 0xC6D0, symBinAddr: 0x4D340, symSize: 0x10 }
  - { offset: 0x201371, size: 0x8, addend: 0x0, symName: __ZN16llm_graph_resultC1Ex, symObjAddr: 0x3B50, symBinAddr: 0x44A80, symSize: 0x10 }
  - { offset: 0x2013C9, size: 0x8, addend: 0x0, symName: __ZNK16llm_graph_result13get_max_nodesEv, symObjAddr: 0x3B60, symBinAddr: 0x44A90, symSize: 0x10 }
  - { offset: 0x201455, size: 0x8, addend: 0x0, symName: __ZN16llm_graph_result10set_inputsEPK12llama_ubatch, symObjAddr: 0x3B70, symBinAddr: 0x44AA0, symSize: 0x40 }
  - { offset: 0x201638, size: 0x8, addend: 0x0, symName: __ZN16llm_graph_result11set_outputsEv, symObjAddr: 0x3BB0, symBinAddr: 0x44AE0, symSize: 0x1C0 }
  - { offset: 0x201D5D, size: 0x8, addend: 0x0, symName: __ZN16llm_graph_result9can_reuseERK16llm_graph_params, symObjAddr: 0x3D70, symBinAddr: 0x44CA0, symSize: 0x130 }
  - { offset: 0x201F31, size: 0x8, addend: 0x0, symName: __ZNK16llm_graph_params11allow_reuseERKS_, symObjAddr: 0x3EA0, symBinAddr: 0x44DD0, symSize: 0x3B0 }
  - { offset: 0x202834, size: 0x8, addend: 0x0, symName: __ZN16llm_graph_result9add_inputENSt3__110unique_ptrI17llm_graph_input_iNS0_14default_deleteIS2_EEEE, symObjAddr: 0x4250, symBinAddr: 0x45180, symSize: 0x140 }
  - { offset: 0x202D4B, size: 0x8, addend: 0x0, symName: __ZNSt3__16vectorINS_10unique_ptrI17llm_graph_input_iNS_14default_deleteIS2_EEEENS_9allocatorIS5_EEE20__throw_length_errorB8ne200100Ev, symObjAddr: 0xC6D0, symBinAddr: 0x4D340, symSize: 0x10 }
  - { offset: 0x202D6E, size: 0x8, addend: 0x0, symName: __ZN16llm_graph_result10set_paramsERK16llm_graph_params, symObjAddr: 0x4390, symBinAddr: 0x452C0, symSize: 0x20 }
  - { offset: 0x202DAD, size: 0x8, addend: 0x0, symName: __ZN16llm_graph_paramsaSERKS_, symObjAddr: 0x43B0, symBinAddr: 0x452E0, symSize: 0x1F0 }
  - { offset: 0x20340D, size: 0x8, addend: 0x0, symName: __ZNSt3__16__treeINS_12__value_typeIiP13llama_samplerEENS_19__map_value_compareIiS4_NS_4lessIiEELb1EEENS_9allocatorIS4_EEE14__assign_multiINS_21__tree_const_iteratorIS4_PNS_11__tree_nodeIS4_PvEElEEEEvT_SJ_, symObjAddr: 0xB910, symBinAddr: 0x4C7F0, symSize: 0x350 }
  - { offset: 0x203AF4, size: 0x8, addend: 0x0, symName: __ZNSt3__110__function12__value_funcIFvRK12llama_ubatchP11ggml_tensorPKciEE4swapB8ne200100ERSA_, symObjAddr: 0xBE20, symBinAddr: 0x4CB40, symSize: 0x140 }
  - { offset: 0x204688, size: 0x8, addend: 0x0, symName: __ZN17llm_graph_contextC2ERK16llm_graph_params, symObjAddr: 0x45A0, symBinAddr: 0x454D0, symSize: 0x200 }
  - { offset: 0x204B5D, size: 0x8, addend: 0x0, symName: __ZN17llm_graph_contextC1ERK16llm_graph_params, symObjAddr: 0x47A0, symBinAddr: 0x456D0, symSize: 0x10 }
  - { offset: 0x204C7B, size: 0x8, addend: 0x0, symName: __ZNK17llm_graph_context2cbEP11ggml_tensorPKci, symObjAddr: 0x47B0, symBinAddr: 0x456E0, symSize: 0x50 }
  - { offset: 0x204D86, size: 0x8, addend: 0x0, symName: __ZNK17llm_graph_context10build_cvecEP11ggml_tensori, symObjAddr: 0x4800, symBinAddr: 0x45730, symSize: 0x20 }
  - { offset: 0x204E24, size: 0x8, addend: 0x0, symName: __ZNK17llm_graph_context13build_lora_mmEP11ggml_tensorS1_, symObjAddr: 0x4820, symBinAddr: 0x45750, symSize: 0x100 }
  - { offset: 0x205051, size: 0x8, addend: 0x0, symName: __ZNK17llm_graph_context16build_lora_mm_idEP11ggml_tensorS1_S1_, symObjAddr: 0x4920, symBinAddr: 0x45850, symSize: 0x140 }
  - { offset: 0x205281, size: 0x8, addend: 0x0, symName: __ZNK17llm_graph_context10build_normEP11ggml_tensorS1_S1_13llm_norm_typei, symObjAddr: 0x4A60, symBinAddr: 0x45990, symSize: 0x1C0 }
  - { offset: 0x205620, size: 0x8, addend: 0x0, symName: __ZNK17llm_graph_context9build_ffnEP11ggml_tensorS1_S1_S1_S1_S1_S1_S1_S1_S1_S1_15llm_ffn_op_type17llm_ffn_gate_typei, symObjAddr: 0x4C20, symBinAddr: 0x45B50, symSize: 0x750 }
  - { offset: 0x20688C, size: 0x8, addend: 0x0, symName: __ZNK17llm_graph_context13build_moe_ffnEP11ggml_tensorS1_S1_S1_S1_S1_xx15llm_ffn_op_typebbf29llama_expert_gating_func_typeiS1_, symObjAddr: 0x5370, symBinAddr: 0x462A0, symSize: 0xA0 }
  - { offset: 0x2069E4, size: 0x8, addend: 0x0, symName: __ZNK17llm_graph_context13build_moe_ffnEP11ggml_tensorS1_S1_S1_S1_S1_S1_S1_S1_S1_xx15llm_ffn_op_typebbf29llama_expert_gating_func_typeiS1_, symObjAddr: 0x5410, symBinAddr: 0x46340, symSize: 0x1180 }
  - { offset: 0x20905C, size: 0x8, addend: 0x0, symName: __ZNK17llm_graph_context14build_inp_embdEP11ggml_tensor, symObjAddr: 0x6590, symBinAddr: 0x474C0, symSize: 0x4A0 }
  - { offset: 0x209C41, size: 0x8, addend: 0x0, symName: __ZNK17llm_graph_context13build_inp_posEv, symObjAddr: 0x6A30, symBinAddr: 0x47960, symSize: 0x1E0 }
  - { offset: 0x20A228, size: 0x8, addend: 0x0, symName: __ZNK17llm_graph_context20build_inp_attn_scaleEv, symObjAddr: 0x6C10, symBinAddr: 0x47B40, symSize: 0x1E0 }
  - { offset: 0x20A848, size: 0x8, addend: 0x0, symName: __ZNK17llm_graph_context17build_inp_out_idsEv, symObjAddr: 0x6DF0, symBinAddr: 0x47D20, symSize: 0x210 }
  - { offset: 0x20AE33, size: 0x8, addend: 0x0, symName: __ZNK17llm_graph_context14build_inp_meanEv, symObjAddr: 0x7000, symBinAddr: 0x47F30, symSize: 0x1E0 }
  - { offset: 0x20B403, size: 0x8, addend: 0x0, symName: __ZNK17llm_graph_context13build_inp_clsEv, symObjAddr: 0x71E0, symBinAddr: 0x48110, symSize: 0x1E0 }
  - { offset: 0x20B9D9, size: 0x8, addend: 0x0, symName: __ZNK17llm_graph_context20build_inp_cross_embdEv, symObjAddr: 0x73C0, symBinAddr: 0x482F0, symSize: 0x200 }
  - { offset: 0x20BFE8, size: 0x8, addend: 0x0, symName: __ZNK17llm_graph_context24build_inp_pos_bucket_encEv, symObjAddr: 0x75C0, symBinAddr: 0x484F0, symSize: 0x1E0 }
  - { offset: 0x20C649, size: 0x8, addend: 0x0, symName: __ZNK17llm_graph_context24build_inp_pos_bucket_decEv, symObjAddr: 0x77A0, symBinAddr: 0x486D0, symSize: 0x220 }
  - { offset: 0x20CCD5, size: 0x8, addend: 0x0, symName: __ZNK17llm_graph_context14build_pos_biasEP11ggml_tensorS1_, symObjAddr: 0x79C0, symBinAddr: 0x488F0, symSize: 0x120 }
  - { offset: 0x20CFDF, size: 0x8, addend: 0x0, symName: __ZNK17llm_graph_context14build_attn_mhaEP11ggml_tensorS1_S1_S1_S1_S1_S1_fi, symObjAddr: 0x7AE0, symBinAddr: 0x48A10, symSize: 0x7D0 }
  - { offset: 0x20E242, size: 0x8, addend: 0x0, symName: __ZNK17llm_graph_context23build_attn_inp_no_cacheEv, symObjAddr: 0x82B0, symBinAddr: 0x491E0, symSize: 0x2D0 }
  - { offset: 0x20E859, size: 0x8, addend: 0x0, symName: __ZNK17llm_graph_context10build_attnEP29llm_graph_input_attn_no_cacheP11ggml_tensorS3_S3_S3_S3_S3_S3_S3_fi, symObjAddr: 0x8580, symBinAddr: 0x494B0, symSize: 0x120 }
  - { offset: 0x20EBAD, size: 0x8, addend: 0x0, symName: __ZNK17llm_graph_context17build_attn_inp_kvEv, symObjAddr: 0x86A0, symBinAddr: 0x495D0, symSize: 0x180 }
  - { offset: 0x20F145, size: 0x8, addend: 0x0, symName: __ZL22build_attn_inp_kv_implP12ggml_contextRK12llama_ubatchRK13llama_hparamsRK13llama_cparamsPK22llama_kv_cache_context, symObjAddr: 0x8820, symBinAddr: 0x49750, symSize: 0x1E0 }
  - { offset: 0x20F59B, size: 0x8, addend: 0x0, symName: __ZNK17llm_graph_context10build_attnEP23llm_graph_input_attn_kvP11ggml_tensorS3_S3_S3_S3_S3_S3_S3_fi, symObjAddr: 0x8A00, symBinAddr: 0x49930, symSize: 0x1F0 }
  - { offset: 0x20FA21, size: 0x8, addend: 0x0, symName: __ZNK17llm_graph_context16build_attn_inp_kEv, symObjAddr: 0x8BF0, symBinAddr: 0x49B20, symSize: 0x2E0 }
  - { offset: 0x2100A8, size: 0x8, addend: 0x0, symName: __ZNK17llm_graph_context10build_attnEP22llm_graph_input_attn_kP11ggml_tensorS3_S3_S3_S3_S3_S3_S3_fi, symObjAddr: 0x8ED0, symBinAddr: 0x49E00, symSize: 0x1B0 }
  - { offset: 0x2103FA, size: 0x8, addend: 0x0, symName: __ZNK17llm_graph_context10build_attnEP28llm_graph_input_attn_kv_iswaP11ggml_tensorS3_S3_S3_S3_S3_S3_S3_fi, symObjAddr: 0x9080, symBinAddr: 0x49FB0, symSize: 0x230 }
  - { offset: 0x210779, size: 0x8, addend: 0x0, symName: __ZNK17llm_graph_context20build_attn_inp_crossEv, symObjAddr: 0x92B0, symBinAddr: 0x4A1E0, symSize: 0x210 }
  - { offset: 0x210D61, size: 0x8, addend: 0x0, symName: __ZNK17llm_graph_context10build_attnEP26llm_graph_input_attn_crossP11ggml_tensorS3_S3_S3_S3_S3_S3_S3_fi, symObjAddr: 0x94C0, symBinAddr: 0x4A3F0, symSize: 0x110 }
  - { offset: 0x2110B2, size: 0x8, addend: 0x0, symName: __ZNK17llm_graph_context22build_attn_inp_kv_iswaEv, symObjAddr: 0x95D0, symBinAddr: 0x4A500, symSize: 0x420 }
  - { offset: 0x2117E0, size: 0x8, addend: 0x0, symName: __ZNK17llm_graph_context8build_rsEP11ggml_tensorS1_S1_iijjjiRKNSt3__18functionIFS1_P12ggml_contextS1_S1_EEE, symObjAddr: 0x99F0, symBinAddr: 0x4A920, symSize: 0x180 }
  - { offset: 0x211B73, size: 0x8, addend: 0x0, symName: __ZNK17llm_graph_context12build_rs_inpEv, symObjAddr: 0x9B70, symBinAddr: 0x4AAA0, symSize: 0x170 }
  - { offset: 0x21210B, size: 0x8, addend: 0x0, symName: __ZL17build_rs_inp_implP12ggml_contextRK12llama_ubatchPK30llama_memory_recurrent_context, symObjAddr: 0x9CE0, symBinAddr: 0x4AC10, symSize: 0x110 }
  - { offset: 0x2124B3, size: 0x8, addend: 0x0, symName: __ZNK17llm_graph_context8build_rsEP18llm_graph_input_rsP11ggml_tensoriiRKNSt3__18functionIFS3_P12ggml_contextS3_S3_EEE, symObjAddr: 0x9DF0, symBinAddr: 0x4AD20, symSize: 0xA0 }
  - { offset: 0x212848, size: 0x8, addend: 0x0, symName: __ZNK17llm_graph_context27build_rwkv_token_shift_loadEP18llm_graph_input_rsRK12llama_ubatchi, symObjAddr: 0x9E90, symBinAddr: 0x4ADC0, symSize: 0x1B0 }
  - { offset: 0x212BC9, size: 0x8, addend: 0x0, symName: __ZNK17llm_graph_context28build_rwkv_token_shift_storeEP11ggml_tensorRK12llama_ubatchi, symObjAddr: 0xA040, symBinAddr: 0x4AF70, symSize: 0xF0 }
  - { offset: 0x212E02, size: 0x8, addend: 0x0, symName: __ZNK17llm_graph_context20build_inp_mem_hybridEv, symObjAddr: 0xA130, symBinAddr: 0x4B060, symSize: 0x280 }
  - { offset: 0x21381D, size: 0x8, addend: 0x0, symName: __ZNK17llm_graph_context25build_inp_mem_hybrid_iswaEv, symObjAddr: 0xA3B0, symBinAddr: 0x4B2E0, symSize: 0x4A0 }
  - { offset: 0x2141CB, size: 0x8, addend: 0x0, symName: __ZNK17llm_graph_context15build_dense_outEP11ggml_tensorS1_, symObjAddr: 0xA850, symBinAddr: 0x4B780, symSize: 0x100 }
  - { offset: 0x214354, size: 0x8, addend: 0x0, symName: __ZNK17llm_graph_context13build_poolingEP11ggml_tensorS1_S1_S1_, symObjAddr: 0xA950, symBinAddr: 0x4B880, symSize: 0x220 }
  - { offset: 0x214367, size: 0x8, addend: 0x0, symName: __ZNK17llm_graph_context13build_poolingEP11ggml_tensorS1_S1_S1_, symObjAddr: 0xA950, symBinAddr: 0x4B880, symSize: 0x220 }
  - { offset: 0x21520F, size: 0x8, addend: 0x0, symName: __ZNK17llm_graph_context14build_samplingEv, symObjAddr: 0xAB70, symBinAddr: 0x4BAA0, symSize: 0x820 }
  - { offset: 0x216E96, size: 0x8, addend: 0x0, symName: __ZNSt3__16__treeINS_12__value_typeIiiEENS_19__map_value_compareIiS2_NS_4lessIiEELb1EEENS_9allocatorIS2_EEE7destroyEPNS_11__tree_nodeIS2_PvEE, symObjAddr: 0xBF80, symBinAddr: 0x4CC80, symSize: 0x40 }
  - { offset: 0x21710E, size: 0x8, addend: 0x0, symName: __ZN20llm_graph_input_embdD1Ev, symObjAddr: 0xB4A0, symBinAddr: 0x4C3D0, symSize: 0x10 }
  - { offset: 0x217137, size: 0x8, addend: 0x0, symName: __ZN20llm_graph_input_embdD0Ev, symObjAddr: 0xB4B0, symBinAddr: 0x4C3E0, symSize: 0x10 }
  - { offset: 0x217160, size: 0x8, addend: 0x0, symName: __ZN19llm_graph_input_posD1Ev, symObjAddr: 0xB4C0, symBinAddr: 0x4C3F0, symSize: 0x10 }
  - { offset: 0x217189, size: 0x8, addend: 0x0, symName: __ZN19llm_graph_input_posD0Ev, symObjAddr: 0xB4D0, symBinAddr: 0x4C400, symSize: 0x10 }
  - { offset: 0x2171B2, size: 0x8, addend: 0x0, symName: __ZN25llm_graph_input_attn_tempD1Ev, symObjAddr: 0xB4E0, symBinAddr: 0x4C410, symSize: 0x10 }
  - { offset: 0x2171DB, size: 0x8, addend: 0x0, symName: __ZN25llm_graph_input_attn_tempD0Ev, symObjAddr: 0xB4F0, symBinAddr: 0x4C420, symSize: 0x10 }
  - { offset: 0x217204, size: 0x8, addend: 0x0, symName: __ZN17llm_graph_input_i9can_reuseERK16llm_graph_params, symObjAddr: 0xB500, symBinAddr: 0x4C430, symSize: 0x10 }
  - { offset: 0x217237, size: 0x8, addend: 0x0, symName: __ZN26llm_graph_input_pos_bucketD1Ev, symObjAddr: 0xB510, symBinAddr: 0x4C440, symSize: 0x10 }
  - { offset: 0x217260, size: 0x8, addend: 0x0, symName: __ZN26llm_graph_input_pos_bucketD0Ev, symObjAddr: 0xB520, symBinAddr: 0x4C450, symSize: 0x10 }
  - { offset: 0x217289, size: 0x8, addend: 0x0, symName: __ZN29llm_graph_input_pos_bucket_kvD1Ev, symObjAddr: 0xB530, symBinAddr: 0x4C460, symSize: 0x10 }
  - { offset: 0x2172B2, size: 0x8, addend: 0x0, symName: __ZN29llm_graph_input_pos_bucket_kvD0Ev, symObjAddr: 0xB540, symBinAddr: 0x4C470, symSize: 0x10 }
  - { offset: 0x2172DB, size: 0x8, addend: 0x0, symName: __ZN23llm_graph_input_out_idsD1Ev, symObjAddr: 0xB550, symBinAddr: 0x4C480, symSize: 0x10 }
  - { offset: 0x217304, size: 0x8, addend: 0x0, symName: __ZN23llm_graph_input_out_idsD0Ev, symObjAddr: 0xB560, symBinAddr: 0x4C490, symSize: 0x10 }
  - { offset: 0x21732D, size: 0x8, addend: 0x0, symName: __ZN20llm_graph_input_meanD1Ev, symObjAddr: 0xB570, symBinAddr: 0x4C4A0, symSize: 0x10 }
  - { offset: 0x217356, size: 0x8, addend: 0x0, symName: __ZN20llm_graph_input_meanD0Ev, symObjAddr: 0xB580, symBinAddr: 0x4C4B0, symSize: 0x10 }
  - { offset: 0x21737F, size: 0x8, addend: 0x0, symName: __ZN19llm_graph_input_clsD1Ev, symObjAddr: 0xB590, symBinAddr: 0x4C4C0, symSize: 0x10 }
  - { offset: 0x2173A8, size: 0x8, addend: 0x0, symName: __ZN19llm_graph_input_clsD0Ev, symObjAddr: 0xB5A0, symBinAddr: 0x4C4D0, symSize: 0x10 }
  - { offset: 0x2173D1, size: 0x8, addend: 0x0, symName: __ZN18llm_graph_input_rsD1Ev, symObjAddr: 0xB5B0, symBinAddr: 0x4C4E0, symSize: 0x10 }
  - { offset: 0x2173FA, size: 0x8, addend: 0x0, symName: __ZN18llm_graph_input_rsD0Ev, symObjAddr: 0xB5C0, symBinAddr: 0x4C4F0, symSize: 0x10 }
  - { offset: 0x217423, size: 0x8, addend: 0x0, symName: __ZN26llm_graph_input_cross_embdD1Ev, symObjAddr: 0xB5D0, symBinAddr: 0x4C500, symSize: 0x10 }
  - { offset: 0x21744C, size: 0x8, addend: 0x0, symName: __ZN26llm_graph_input_cross_embdD0Ev, symObjAddr: 0xB5E0, symBinAddr: 0x4C510, symSize: 0x10 }
  - { offset: 0x217475, size: 0x8, addend: 0x0, symName: __ZN29llm_graph_input_attn_no_cacheD1Ev, symObjAddr: 0xB5F0, symBinAddr: 0x4C520, symSize: 0x10 }
  - { offset: 0x21749E, size: 0x8, addend: 0x0, symName: __ZN29llm_graph_input_attn_no_cacheD0Ev, symObjAddr: 0xB600, symBinAddr: 0x4C530, symSize: 0x10 }
  - { offset: 0x2174C7, size: 0x8, addend: 0x0, symName: __ZN23llm_graph_input_attn_kvD1Ev, symObjAddr: 0xB610, symBinAddr: 0x4C540, symSize: 0x10 }
  - { offset: 0x2174F0, size: 0x8, addend: 0x0, symName: __ZN23llm_graph_input_attn_kvD0Ev, symObjAddr: 0xB620, symBinAddr: 0x4C550, symSize: 0x10 }
  - { offset: 0x217519, size: 0x8, addend: 0x0, symName: __ZN22llm_graph_input_attn_kD1Ev, symObjAddr: 0xB630, symBinAddr: 0x4C560, symSize: 0x10 }
  - { offset: 0x217542, size: 0x8, addend: 0x0, symName: __ZN22llm_graph_input_attn_kD0Ev, symObjAddr: 0xB640, symBinAddr: 0x4C570, symSize: 0x10 }
  - { offset: 0x21756B, size: 0x8, addend: 0x0, symName: __ZN28llm_graph_input_attn_kv_iswaD1Ev, symObjAddr: 0xB650, symBinAddr: 0x4C580, symSize: 0x10 }
  - { offset: 0x217594, size: 0x8, addend: 0x0, symName: __ZN28llm_graph_input_attn_kv_iswaD0Ev, symObjAddr: 0xB660, symBinAddr: 0x4C590, symSize: 0x10 }
  - { offset: 0x2175BD, size: 0x8, addend: 0x0, symName: __ZN26llm_graph_input_attn_crossD1Ev, symObjAddr: 0xB670, symBinAddr: 0x4C5A0, symSize: 0x10 }
  - { offset: 0x2175E6, size: 0x8, addend: 0x0, symName: __ZN26llm_graph_input_attn_crossD0Ev, symObjAddr: 0xB680, symBinAddr: 0x4C5B0, symSize: 0x10 }
  - { offset: 0x217629, size: 0x8, addend: 0x0, symName: __ZN26llm_graph_input_mem_hybridD1Ev, symObjAddr: 0xB690, symBinAddr: 0x4C5C0, symSize: 0x50 }
  - { offset: 0x2177B9, size: 0x8, addend: 0x0, symName: __ZN26llm_graph_input_mem_hybridD0Ev, symObjAddr: 0xB6E0, symBinAddr: 0x4C610, symSize: 0x50 }
  - { offset: 0x217976, size: 0x8, addend: 0x0, symName: __ZN31llm_graph_input_mem_hybrid_iswaD1Ev, symObjAddr: 0xB730, symBinAddr: 0x4C660, symSize: 0x50 }
  - { offset: 0x217B06, size: 0x8, addend: 0x0, symName: __ZN31llm_graph_input_mem_hybrid_iswaD0Ev, symObjAddr: 0xB780, symBinAddr: 0x4C6B0, symSize: 0x50 }
  - { offset: 0x217CC3, size: 0x8, addend: 0x0, symName: __ZN24llm_graph_input_samplingD1Ev, symObjAddr: 0xB7D0, symBinAddr: 0x4C700, symSize: 0x20 }
  - { offset: 0x217D9D, size: 0x8, addend: 0x0, symName: __ZN24llm_graph_input_samplingD0Ev, symObjAddr: 0xB7F0, symBinAddr: 0x4C720, symSize: 0x30 }
  - { offset: 0x217EA1, size: 0x8, addend: 0x0, symName: __ZN16llm_graph_resultD1Ev, symObjAddr: 0xB820, symBinAddr: 0x4C750, symSize: 0x10 }
  - { offset: 0x217ED7, size: 0x8, addend: 0x0, symName: __ZN16llm_graph_resultD2Ev, symObjAddr: 0xCA90, symBinAddr: 0x4D4A0, symSize: 0x161 }
  - { offset: 0x21879D, size: 0x8, addend: 0x0, symName: __ZN16llm_graph_resultD0Ev, symObjAddr: 0xB830, symBinAddr: 0x4C760, symSize: 0x20 }
  - { offset: 0x21881A, size: 0x8, addend: 0x0, symName: __ZN17llm_graph_contextD1Ev, symObjAddr: 0xB850, symBinAddr: 0x4C780, symSize: 0x30 }
  - { offset: 0x2188F4, size: 0x8, addend: 0x0, symName: __ZN17llm_graph_contextD0Ev, symObjAddr: 0xB880, symBinAddr: 0x4C7B0, symSize: 0x40 }
  - { offset: 0x218DA7, size: 0x8, addend: 0x0, symName: __ZN17llm_graph_input_iD1Ev, symObjAddr: 0xBF60, symBinAddr: 0x2B4BD0, symSize: 0x10 }
  - { offset: 0x218DD0, size: 0x8, addend: 0x0, symName: __ZN17llm_graph_input_iD0Ev, symObjAddr: 0xBF70, symBinAddr: 0x2B4BE0, symSize: 0x10 }
  - { offset: 0x2191FC, size: 0x8, addend: 0x0, symName: __ZNSt3__112__hash_tableIiNS_4hashIiEENS_8equal_toIiEENS_9allocatorIiEEE11__do_rehashILb1EEEvm, symObjAddr: 0xC4D0, symBinAddr: 0x4D150, symSize: 0x1B0 }
  - { offset: 0x219AC7, size: 0x8, addend: 0x0, symName: __ZNSt3__117bad_function_callD1Ev, symObjAddr: 0xC980, symBinAddr: 0x4D390, symSize: 0x10 }
  - { offset: 0x219B1D, size: 0x8, addend: 0x0, symName: __ZNSt3__117bad_function_callD0Ev, symObjAddr: 0xC990, symBinAddr: 0x4D3A0, symSize: 0x20 }
  - { offset: 0x219B80, size: 0x8, addend: 0x0, symName: __ZNSt3__110__function6__funcIPFP11ggml_tensorP12ggml_contextS3_S3_ENS_9allocatorIS7_EES6_ED1Ev, symObjAddr: 0xC9B0, symBinAddr: 0x4D3C0, symSize: 0x10 }
  - { offset: 0x219BAC, size: 0x8, addend: 0x0, symName: __ZNSt3__110__function6__funcIPFP11ggml_tensorP12ggml_contextS3_S3_ENS_9allocatorIS7_EES6_ED0Ev, symObjAddr: 0xC9C0, symBinAddr: 0x4D3D0, symSize: 0x10 }
  - { offset: 0x219CC3, size: 0x8, addend: 0x0, symName: __ZNKSt3__110__function6__funcIPFP11ggml_tensorP12ggml_contextS3_S3_ENS_9allocatorIS7_EES6_E7__cloneEv, symObjAddr: 0xC9D0, symBinAddr: 0x4D3E0, symSize: 0x30 }
  - { offset: 0x219ED4, size: 0x8, addend: 0x0, symName: __ZNKSt3__110__function6__funcIPFP11ggml_tensorP12ggml_contextS3_S3_ENS_9allocatorIS7_EES6_E7__cloneEPNS0_6__baseIS6_EE, symObjAddr: 0xCA00, symBinAddr: 0x4D410, symSize: 0x20 }
  - { offset: 0x219FC7, size: 0x8, addend: 0x0, symName: __ZNSt3__110__function6__funcIPFP11ggml_tensorP12ggml_contextS3_S3_ENS_9allocatorIS7_EES6_E7destroyEv, symObjAddr: 0xCA20, symBinAddr: 0x4D430, symSize: 0x10 }
  - { offset: 0x21A01E, size: 0x8, addend: 0x0, symName: __ZNSt3__110__function6__funcIPFP11ggml_tensorP12ggml_contextS3_S3_ENS_9allocatorIS7_EES6_E18destroy_deallocateEv, symObjAddr: 0xCA30, symBinAddr: 0x4D440, symSize: 0x10 }
  - { offset: 0x21A154, size: 0x8, addend: 0x0, symName: __ZNSt3__110__function6__funcIPFP11ggml_tensorP12ggml_contextS3_S3_ENS_9allocatorIS7_EES6_EclEOS5_OS3_SC_, symObjAddr: 0xCA40, symBinAddr: 0x4D450, symSize: 0x20 }
  - { offset: 0x21A2DA, size: 0x8, addend: 0x0, symName: __ZNKSt3__110__function6__funcIPFP11ggml_tensorP12ggml_contextS3_S3_ENS_9allocatorIS7_EES6_E6targetERKSt9type_info, symObjAddr: 0xCA60, symBinAddr: 0x4D470, symSize: 0x20 }
  - { offset: 0x21A348, size: 0x8, addend: 0x0, symName: __ZNKSt3__110__function6__funcIPFP11ggml_tensorP12ggml_contextS3_S3_ENS_9allocatorIS7_EES6_E11target_typeEv, symObjAddr: 0xCA80, symBinAddr: 0x4D490, symSize: 0x10 }
  - { offset: 0x21C305, size: 0x8, addend: 0x0, symName: __ZN13llama_hparams15set_swa_patternEjb, symObjAddr: 0x0, symBinAddr: 0x4D610, symSize: 0x140 }
  - { offset: 0x21E42F, size: 0x8, addend: 0x0, symName: __ZN13llama_hparams15set_swa_patternEjb, symObjAddr: 0x0, symBinAddr: 0x4D610, symSize: 0x140 }
  - { offset: 0x21E4A2, size: 0x8, addend: 0x0, symName: __ZNK13llama_hparams10is_swa_anyEv, symObjAddr: 0x140, symBinAddr: 0x4D750, symSize: 0x60 }
  - { offset: 0x21E4DF, size: 0x8, addend: 0x0, symName: __ZNK13llama_hparams6n_headEj, symObjAddr: 0x1A0, symBinAddr: 0x4D7B0, symSize: 0x30 }
  - { offset: 0x21E53E, size: 0x8, addend: 0x0, symName: __ZNK13llama_hparams9n_head_kvEj, symObjAddr: 0x1D0, symBinAddr: 0x4D7E0, symSize: 0x30 }
  - { offset: 0x21E57D, size: 0x8, addend: 0x0, symName: __ZNK13llama_hparams4n_ffEj, symObjAddr: 0x200, symBinAddr: 0x4D810, symSize: 0x30 }
  - { offset: 0x21E615, size: 0x8, addend: 0x0, symName: __ZNK13llama_hparams5n_gqaEj, symObjAddr: 0x230, symBinAddr: 0x4D840, symSize: 0x40 }
  - { offset: 0x21E6BC, size: 0x8, addend: 0x0, symName: __ZNK13llama_hparams10n_embd_inpEv, symObjAddr: 0x270, symBinAddr: 0x4D880, symSize: 0x20 }
  - { offset: 0x21E6F3, size: 0x8, addend: 0x0, symName: __ZNK13llama_hparams10n_embd_outEv, symObjAddr: 0x290, symBinAddr: 0x4D8A0, symSize: 0x20 }
  - { offset: 0x21E71A, size: 0x8, addend: 0x0, symName: __ZNK13llama_hparams12n_embd_k_gqaEj, symObjAddr: 0x2B0, symBinAddr: 0x4D8C0, symSize: 0x40 }
  - { offset: 0x21E77E, size: 0x8, addend: 0x0, symName: __ZNK13llama_hparams12n_embd_v_gqaEj, symObjAddr: 0x2F0, symBinAddr: 0x4D900, symSize: 0x40 }
  - { offset: 0x21E815, size: 0x8, addend: 0x0, symName: __ZNK13llama_hparams24is_n_embd_k_gqa_variableEv, symObjAddr: 0x330, symBinAddr: 0x4D940, symSize: 0x70 }
  - { offset: 0x21E909, size: 0x8, addend: 0x0, symName: __ZNK13llama_hparams24is_n_embd_v_gqa_variableEv, symObjAddr: 0x3A0, symBinAddr: 0x4D9B0, symSize: 0x70 }
  - { offset: 0x21E9CF, size: 0x8, addend: 0x0, symName: __ZNK13llama_hparams16n_embd_k_gqa_maxEv, symObjAddr: 0x410, symBinAddr: 0x4DA20, symSize: 0x1B0 }
  - { offset: 0x21EAAD, size: 0x8, addend: 0x0, symName: __ZNK13llama_hparams16n_embd_v_gqa_maxEv, symObjAddr: 0x5C0, symBinAddr: 0x4DBD0, symSize: 0x1B0 }
  - { offset: 0x21EB8B, size: 0x8, addend: 0x0, symName: __ZNK13llama_hparams8n_embd_rEv, symObjAddr: 0x770, symBinAddr: 0x4DD80, symSize: 0x50 }
  - { offset: 0x21EBB2, size: 0x8, addend: 0x0, symName: __ZNK13llama_hparams8n_embd_sEv, symObjAddr: 0x7C0, symBinAddr: 0x4DDD0, symSize: 0x30 }
  - { offset: 0x21EBD9, size: 0x8, addend: 0x0, symName: __ZNK13llama_hparams12is_recurrentEj, symObjAddr: 0x7F0, symBinAddr: 0x4DE00, symSize: 0x40 }
  - { offset: 0x21EC26, size: 0x8, addend: 0x0, symName: __ZNK13llama_hparams14n_pos_per_embdEv, symObjAddr: 0x830, symBinAddr: 0x4DE40, symSize: 0x20 }
  - { offset: 0x21EC4D, size: 0x8, addend: 0x0, symName: __ZNK13llama_hparams6is_swaEj, symObjAddr: 0x850, symBinAddr: 0x4DE60, symSize: 0x40 }
  - { offset: 0x21EC9A, size: 0x8, addend: 0x0, symName: __ZNK13llama_hparams6is_mlaEv, symObjAddr: 0x890, symBinAddr: 0x4DEA0, symSize: 0x20 }
  - { offset: 0x21ECD2, size: 0x8, addend: 0x0, symName: __ZNK13llama_hparams17n_embd_head_k_mlaEv, symObjAddr: 0x8B0, symBinAddr: 0x4DEC0, symSize: 0x30 }
  - { offset: 0x21ED0F, size: 0x8, addend: 0x0, symName: __ZNK13llama_hparams17n_embd_head_v_mlaEv, symObjAddr: 0x8E0, symBinAddr: 0x4DEF0, symSize: 0x30 }
  - { offset: 0x21ED52, size: 0x8, addend: 0x0, symName: __ZNK13llama_hparams6has_kvEj, symObjAddr: 0x910, symBinAddr: 0x4DF20, symSize: 0x20 }
  - { offset: 0x21ED9C, size: 0x8, addend: 0x0, symName: __ZNK13llama_hparams10n_layer_kvEv, symObjAddr: 0x930, symBinAddr: 0x4DF40, symSize: 0x110 }
  - { offset: 0x21EE01, size: 0x8, addend: 0x0, symName: __ZNK13llama_hparams9use_mropeEv, symObjAddr: 0xA40, symBinAddr: 0x4E050, symSize: 0x1D }
  - { offset: 0x220D56, size: 0x8, addend: 0x0, symName: __ZL14g_logger_state.0, symObjAddr: 0x1910, symBinAddr: 0x3232B0, symSize: 0x0 }
  - { offset: 0x220D61, size: 0x8, addend: 0x0, symName: __ZL14g_logger_state.1, symObjAddr: 0x2E660, symBinAddr: 0x3AF0B8, symSize: 0x0 }
  - { offset: 0x227F32, size: 0x8, addend: 0x0, symName: __ZN9time_measC2ERxb, symObjAddr: 0x0, symBinAddr: 0x4E070, symSize: 0x30 }
  - { offset: 0x227FB9, size: 0x8, addend: 0x0, symName: __ZN9time_measC1ERxb, symObjAddr: 0x30, symBinAddr: 0x4E0A0, symSize: 0x30 }
  - { offset: 0x22803E, size: 0x8, addend: 0x0, symName: __ZN9time_measD2Ev, symObjAddr: 0x60, symBinAddr: 0x4E0D0, symSize: 0x30 }
  - { offset: 0x22808A, size: 0x8, addend: 0x0, symName: __ZN9time_measD1Ev, symObjAddr: 0xA0, symBinAddr: 0x4E100, symSize: 0x30 }
  - { offset: 0x2280DB, size: 0x8, addend: 0x0, symName: _llama_log_get, symObjAddr: 0xD0, symBinAddr: 0x4E130, symSize: 0x10 }
  - { offset: 0x228144, size: 0x8, addend: 0x0, symName: _llama_log_set, symObjAddr: 0xE0, symBinAddr: 0x4E140, symSize: 0x40 }
  - { offset: 0x2281A8, size: 0x8, addend: 0x0, symName: __Z26llama_log_callback_default14ggml_log_levelPKcPv, symObjAddr: 0x120, symBinAddr: 0x4E180, symSize: 0x30 }
  - { offset: 0x228446, size: 0x8, addend: 0x0, symName: __Z18llama_log_internal14ggml_log_levelPKcz, symObjAddr: 0x150, symBinAddr: 0x4E1B0, symSize: 0x170 }
  - { offset: 0x22880F, size: 0x8, addend: 0x0, symName: __Z11replace_allRNSt3__112basic_stringIcNS_11char_traitsIcEENS_9allocatorIcEEEERKS5_S8_, symObjAddr: 0x2C0, symBinAddr: 0x4E320, symSize: 0x250 }
  - { offset: 0x2291FF, size: 0x8, addend: 0x0, symName: __Z6formatPKcz, symObjAddr: 0x510, symBinAddr: 0x4E570, symSize: 0x200 }
  - { offset: 0x229917, size: 0x8, addend: 0x0, symName: __Z25llama_format_tensor_shapeRKNSt3__16vectorIxNS_9allocatorIxEEEE, symObjAddr: 0x710, symBinAddr: 0x4E770, symSize: 0x180 }
  - { offset: 0x229D1D, size: 0x8, addend: 0x0, symName: __ZNSt3__16vectorIxNS_9allocatorIxEEE20__throw_out_of_rangeB8ne200100Ev, symObjAddr: 0x1360, symBinAddr: 0x4F130, symSize: 0x10 }
  - { offset: 0x229D55, size: 0x8, addend: 0x0, symName: __Z25llama_format_tensor_shapePK11ggml_tensor, symObjAddr: 0x890, symBinAddr: 0x4E8F0, symSize: 0x180 }
  - { offset: 0x22A2BA, size: 0x8, addend: 0x0, symName: __Z14gguf_kv_to_strPK12gguf_contexti, symObjAddr: 0xA10, symBinAddr: 0x4EA70, symSize: 0x590 }
  - { offset: 0x22B87A, size: 0x8, addend: 0x0, symName: __ZL16gguf_data_to_str9gguf_typePKvi, symObjAddr: 0x1120, symBinAddr: 0x4F000, symSize: 0x130 }
  - { offset: 0x22E41C, size: 0x8, addend: 0x0, symName: __ZN16llama_io_write_i12write_stringERKNSt3__112basic_stringIcNS0_11char_traitsIcEENS0_9allocatorIcEEEE, symObjAddr: 0x0, symBinAddr: 0x4F140, symSize: 0x60 }
  - { offset: 0x230E9E, size: 0x8, addend: 0x0, symName: __ZN16llama_io_write_i12write_stringERKNSt3__112basic_stringIcNS0_11char_traitsIcEENS0_9allocatorIcEEEE, symObjAddr: 0x0, symBinAddr: 0x4F140, symSize: 0x60 }
  - { offset: 0x230FB8, size: 0x8, addend: 0x0, symName: __ZN15llama_io_read_i11read_stringERNSt3__112basic_stringIcNS0_11char_traitsIcEENS0_9allocatorIcEEEE, symObjAddr: 0x60, symBinAddr: 0x4F1A0, symSize: 0x43 }
  - { offset: 0x232F31, size: 0x8, addend: 0x0, symName: __ZN19llama_kv_cache_iswaC2ERK11llama_model9ggml_typeS3_bbbbjjjjRKNSt3__18functionIFbiEEERKNS5_IFiiEEE, symObjAddr: 0x0, symBinAddr: 0x4F1F0, symSize: 0x3A0 }
  - { offset: 0x257A82, size: 0x8, addend: 0x0, symName: __ZNSt3__111make_uniqueB8ne200100I27llama_kv_cache_iswa_contextJP19llama_kv_cache_iswaNS_6vectorIN14llama_kv_cache9slot_infoENS_9allocatorIS6_EEEES9_NS4_I12llama_ubatchNS7_ISA_EEEEELi0EEENS_10unique_ptrIT_NS_14default_deleteISE_EEEEDpOT0_, symObjAddr: 0xEF0, symBinAddr: 0x500A0, symSize: 0x260 }
  - { offset: 0x260E33, size: 0x8, addend: 0x0, symName: __ZN19llama_kv_cache_iswaC1ERK11llama_model9ggml_typeS3_bbbbjjjjRKNSt3__18functionIFbiEEERKNS5_IFiiEEE, symObjAddr: 0x3A0, symBinAddr: 0x4F590, symSize: 0x10 }
  - { offset: 0x261903, size: 0x8, addend: 0x0, symName: __ZN19llama_kv_cache_iswaC2ERK11llama_model9ggml_typeS3_bbbbjjjjRKNSt3__18functionIFbiEEERKNS5_IFiiEEE, symObjAddr: 0x0, symBinAddr: 0x4F1F0, symSize: 0x3A0 }
  - { offset: 0x26218D, size: 0x8, addend: 0x0, symName: __ZN19llama_kv_cache_iswa5clearEb, symObjAddr: 0x3B0, symBinAddr: 0x4F5A0, symSize: 0x30 }
  - { offset: 0x262221, size: 0x8, addend: 0x0, symName: __ZN19llama_kv_cache_iswa6seq_rmEiii, symObjAddr: 0x3E0, symBinAddr: 0x4F5D0, symSize: 0x50 }
  - { offset: 0x262304, size: 0x8, addend: 0x0, symName: __ZN19llama_kv_cache_iswa6seq_cpEiiii, symObjAddr: 0x430, symBinAddr: 0x4F620, symSize: 0x50 }
  - { offset: 0x2623DA, size: 0x8, addend: 0x0, symName: __ZN19llama_kv_cache_iswa8seq_keepEi, symObjAddr: 0x480, symBinAddr: 0x4F670, symSize: 0x30 }
  - { offset: 0x26246E, size: 0x8, addend: 0x0, symName: __ZN19llama_kv_cache_iswa7seq_addEiiii, symObjAddr: 0x4B0, symBinAddr: 0x4F6A0, symSize: 0x50 }
  - { offset: 0x262544, size: 0x8, addend: 0x0, symName: __ZN19llama_kv_cache_iswa7seq_divEiiii, symObjAddr: 0x500, symBinAddr: 0x4F6F0, symSize: 0x50 }
  - { offset: 0x26261A, size: 0x8, addend: 0x0, symName: __ZNK19llama_kv_cache_iswa11seq_pos_minEi, symObjAddr: 0x550, symBinAddr: 0x4F740, symSize: 0x20 }
  - { offset: 0x262683, size: 0x8, addend: 0x0, symName: __ZNK19llama_kv_cache_iswa11seq_pos_maxEi, symObjAddr: 0x570, symBinAddr: 0x4F760, symSize: 0x20 }
  - { offset: 0x262C9F, size: 0x8, addend: 0x0, symName: __ZNK19llama_kv_cache_iswa16memory_breakdownEv, symObjAddr: 0x590, symBinAddr: 0x4F780, symSize: 0x180 }
  - { offset: 0x263EA3, size: 0x8, addend: 0x0, symName: __ZN19llama_kv_cache_iswa10init_batchER18llama_batch_allocrjb, symObjAddr: 0x710, symBinAddr: 0x4F900, symSize: 0x7A0 }
  - { offset: 0x2662DD, size: 0x8, addend: 0x0, symName: __ZNSt3__16vectorI12llama_ubatchNS_9allocatorIS1_EEE24__emplace_back_slow_pathIJS1_EEEPS1_DpOT_, symObjAddr: 0x2400, symBinAddr: 0x513B0, symSize: 0x230 }
  - { offset: 0x266970, size: 0x8, addend: 0x0, symName: __ZNSt3__16vectorIN14llama_kv_cache9slot_infoENS_9allocatorIS2_EEED1B8ne200100Ev, symObjAddr: 0x1150, symBinAddr: 0x50300, symSize: 0xC0 }
  - { offset: 0x266EC0, size: 0x8, addend: 0x0, symName: __ZNSt3__16vectorI12llama_ubatchNS_9allocatorIS1_EEED1B8ne200100Ev, symObjAddr: 0x1210, symBinAddr: 0x503C0, symSize: 0x90 }
  - { offset: 0x2672C3, size: 0x8, addend: 0x0, symName: __ZN27llama_kv_cache_iswa_contextC2EP19llama_kv_cache_iswaNSt3__16vectorIN14llama_kv_cache9slot_infoENS2_9allocatorIS5_EEEES8_NS3_I12llama_ubatchNS6_IS9_EEEE, symObjAddr: 0x1660, symBinAddr: 0x50810, symSize: 0x5D0 }
  - { offset: 0x268EC9, size: 0x8, addend: 0x0, symName: __ZN19llama_kv_cache_iswa9init_fullEv, symObjAddr: 0x12A0, symBinAddr: 0x50450, symSize: 0x50 }
  - { offset: 0x268F6F, size: 0x8, addend: 0x0, symName: __ZN27llama_kv_cache_iswa_contextC2EP19llama_kv_cache_iswa, symObjAddr: 0x14A0, symBinAddr: 0x50650, symSize: 0xC0 }
  - { offset: 0x269264, size: 0x8, addend: 0x0, symName: __ZN19llama_kv_cache_iswa11init_updateEP13llama_contextb, symObjAddr: 0x12F0, symBinAddr: 0x504A0, symSize: 0x60 }
  - { offset: 0x26934E, size: 0x8, addend: 0x0, symName: __ZN27llama_kv_cache_iswa_contextC2EP19llama_kv_cache_iswaP13llama_contextb, symObjAddr: 0x1570, symBinAddr: 0x50720, symSize: 0xE0 }
  - { offset: 0x269635, size: 0x8, addend: 0x0, symName: __ZNK19llama_kv_cache_iswa13get_can_shiftEv, symObjAddr: 0x1350, symBinAddr: 0x50500, symSize: 0x30 }
  - { offset: 0x26969A, size: 0x8, addend: 0x0, symName: __ZNK19llama_kv_cache_iswa11state_writeER16llama_io_write_iij, symObjAddr: 0x1380, symBinAddr: 0x50530, symSize: 0x50 }
  - { offset: 0x269744, size: 0x8, addend: 0x0, symName: __ZN19llama_kv_cache_iswa10state_readER15llama_io_read_iij, symObjAddr: 0x13D0, symBinAddr: 0x50580, symSize: 0x50 }
  - { offset: 0x269804, size: 0x8, addend: 0x0, symName: __ZNK19llama_kv_cache_iswa8get_baseEv, symObjAddr: 0x1420, symBinAddr: 0x505D0, symSize: 0x10 }
  - { offset: 0x269842, size: 0x8, addend: 0x0, symName: __ZNK19llama_kv_cache_iswa7get_swaEv, symObjAddr: 0x1430, symBinAddr: 0x505E0, symSize: 0x10 }
  - { offset: 0x269880, size: 0x8, addend: 0x0, symName: __ZN27llama_kv_cache_iswa_contextC2E19llama_memory_status, symObjAddr: 0x1440, symBinAddr: 0x505F0, symSize: 0x30 }
  - { offset: 0x2698E3, size: 0x8, addend: 0x0, symName: __ZN27llama_kv_cache_iswa_contextC1E19llama_memory_status, symObjAddr: 0x1470, symBinAddr: 0x50620, symSize: 0x30 }
  - { offset: 0x269A5E, size: 0x8, addend: 0x0, symName: __ZN27llama_kv_cache_iswa_contextC1EP19llama_kv_cache_iswa, symObjAddr: 0x1560, symBinAddr: 0x50710, symSize: 0x10 }
  - { offset: 0x269AA2, size: 0x8, addend: 0x0, symName: __ZN27llama_kv_cache_iswa_contextC1EP19llama_kv_cache_iswaP13llama_contextb, symObjAddr: 0x1650, symBinAddr: 0x50800, symSize: 0x10 }
  - { offset: 0x269EA0, size: 0x8, addend: 0x0, symName: __ZNSt3__16vectorI12llama_ubatchNS_9allocatorIS1_EEE20__throw_length_errorB8ne200100Ev, symObjAddr: 0x2630, symBinAddr: 0x515E0, symSize: 0x10 }
  - { offset: 0x269EC3, size: 0x8, addend: 0x0, symName: __ZNSt3__128__exception_guard_exceptionsINS_6vectorI12llama_ubatchNS_9allocatorIS2_EEE16__destroy_vectorEED1B8ne200100Ev, symObjAddr: 0x26C0, symBinAddr: 0x515F0, symSize: 0x93 }
  - { offset: 0x26A0F4, size: 0x8, addend: 0x0, symName: __ZN27llama_kv_cache_iswa_contextC1EP19llama_kv_cache_iswaNSt3__16vectorIN14llama_kv_cache9slot_infoENS2_9allocatorIS5_EEEES8_NS3_I12llama_ubatchNS6_IS9_EEEE, symObjAddr: 0x1C30, symBinAddr: 0x50DE0, symSize: 0x10 }
  - { offset: 0x26A165, size: 0x8, addend: 0x0, symName: __ZN27llama_kv_cache_iswa_contextD2Ev, symObjAddr: 0x1C40, symBinAddr: 0x50DF0, symSize: 0xC0 }
  - { offset: 0x26A516, size: 0x8, addend: 0x0, symName: __ZN27llama_kv_cache_iswa_contextD1Ev, symObjAddr: 0x1D00, symBinAddr: 0x50EB0, symSize: 0xC0 }
  - { offset: 0x26A8E6, size: 0x8, addend: 0x0, symName: __ZN27llama_kv_cache_iswa_contextD0Ev, symObjAddr: 0x1DC0, symBinAddr: 0x50F70, symSize: 0xC0 }
  - { offset: 0x26ACC0, size: 0x8, addend: 0x0, symName: __ZN27llama_kv_cache_iswa_context4nextEv, symObjAddr: 0x1E80, symBinAddr: 0x51030, symSize: 0x50 }
  - { offset: 0x26AD57, size: 0x8, addend: 0x0, symName: __ZN27llama_kv_cache_iswa_context5applyEv, symObjAddr: 0x1ED0, symBinAddr: 0x51080, symSize: 0x30 }
  - { offset: 0x26ADE7, size: 0x8, addend: 0x0, symName: __ZNK27llama_kv_cache_iswa_context10get_statusEv, symObjAddr: 0x1F00, symBinAddr: 0x510B0, symSize: 0x10 }
  - { offset: 0x26AE31, size: 0x8, addend: 0x0, symName: __ZNK27llama_kv_cache_iswa_context10get_ubatchEv, symObjAddr: 0x1F10, symBinAddr: 0x510C0, symSize: 0x10 }
  - { offset: 0x26AE8E, size: 0x8, addend: 0x0, symName: __ZNK27llama_kv_cache_iswa_context8get_baseEv, symObjAddr: 0x1F20, symBinAddr: 0x510D0, symSize: 0x10 }
  - { offset: 0x26AED5, size: 0x8, addend: 0x0, symName: __ZNK27llama_kv_cache_iswa_context7get_swaEv, symObjAddr: 0x1F30, symBinAddr: 0x510E0, symSize: 0x10 }
  - { offset: 0x26AF36, size: 0x8, addend: 0x0, symName: __ZN19llama_kv_cache_iswaD1Ev, symObjAddr: 0x1F40, symBinAddr: 0x510F0, symSize: 0x50 }
  - { offset: 0x26B0C3, size: 0x8, addend: 0x0, symName: __ZN19llama_kv_cache_iswaD0Ev, symObjAddr: 0x1F90, symBinAddr: 0x51140, symSize: 0x50 }
  - { offset: 0x26B262, size: 0x8, addend: 0x0, symName: '__ZNSt3__110__function6__funcIZN19llama_kv_cache_iswaC1ERK11llama_model9ggml_typeS6_bbbbjjjjRKNS_8functionIFbiEEERKNS7_IFiiEEEE3$_0NS_9allocatorISG_EES8_ED1Ev', symObjAddr: 0x1FE0, symBinAddr: 0x51190, symSize: 0x10 }
  - { offset: 0x26B28C, size: 0x8, addend: 0x0, symName: '__ZNSt3__110__function6__funcIZN19llama_kv_cache_iswaC1ERK11llama_model9ggml_typeS6_bbbbjjjjRKNS_8functionIFbiEEERKNS7_IFiiEEEE3$_0NS_9allocatorISG_EES8_ED0Ev', symObjAddr: 0x1FF0, symBinAddr: 0x511A0, symSize: 0x10 }
  - { offset: 0x26B3A3, size: 0x8, addend: 0x0, symName: '__ZNKSt3__110__function6__funcIZN19llama_kv_cache_iswaC1ERK11llama_model9ggml_typeS6_bbbbjjjjRKNS_8functionIFbiEEERKNS7_IFiiEEEE3$_0NS_9allocatorISG_EES8_E7__cloneEv', symObjAddr: 0x2000, symBinAddr: 0x511B0, symSize: 0x30 }
  - { offset: 0x26B5B4, size: 0x8, addend: 0x0, symName: '__ZNKSt3__110__function6__funcIZN19llama_kv_cache_iswaC1ERK11llama_model9ggml_typeS6_bbbbjjjjRKNS_8functionIFbiEEERKNS7_IFiiEEEE3$_0NS_9allocatorISG_EES8_E7__cloneEPNS0_6__baseIS8_EE', symObjAddr: 0x2030, symBinAddr: 0x511E0, symSize: 0x20 }
  - { offset: 0x26B683, size: 0x8, addend: 0x0, symName: '__ZNSt3__110__function6__funcIZN19llama_kv_cache_iswaC1ERK11llama_model9ggml_typeS6_bbbbjjjjRKNS_8functionIFbiEEERKNS7_IFiiEEEE3$_0NS_9allocatorISG_EES8_E7destroyEv', symObjAddr: 0x2050, symBinAddr: 0x51200, symSize: 0x10 }
  - { offset: 0x26B6D8, size: 0x8, addend: 0x0, symName: '__ZNSt3__110__function6__funcIZN19llama_kv_cache_iswaC1ERK11llama_model9ggml_typeS6_bbbbjjjjRKNS_8functionIFbiEEERKNS7_IFiiEEEE3$_0NS_9allocatorISG_EES8_E18destroy_deallocateEv', symObjAddr: 0x2060, symBinAddr: 0x51210, symSize: 0x10 }
  - { offset: 0x26B881, size: 0x8, addend: 0x0, symName: '__ZNSt3__110__function6__funcIZN19llama_kv_cache_iswaC1ERK11llama_model9ggml_typeS6_bbbbjjjjRKNS_8functionIFbiEEERKNS7_IFiiEEEE3$_0NS_9allocatorISG_EES8_EclEOi', symObjAddr: 0x2070, symBinAddr: 0x51220, symSize: 0x50 }
  - { offset: 0x26BA25, size: 0x8, addend: 0x0, symName: '__ZNKSt3__110__function6__funcIZN19llama_kv_cache_iswaC1ERK11llama_model9ggml_typeS6_bbbbjjjjRKNS_8functionIFbiEEERKNS7_IFiiEEEE3$_0NS_9allocatorISG_EES8_E6targetERKSt9type_info', symObjAddr: 0x20C0, symBinAddr: 0x51270, symSize: 0x20 }
  - { offset: 0x26BA95, size: 0x8, addend: 0x0, symName: '__ZNKSt3__110__function6__funcIZN19llama_kv_cache_iswaC1ERK11llama_model9ggml_typeS6_bbbbjjjjRKNS_8functionIFbiEEERKNS7_IFiiEEEE3$_0NS_9allocatorISG_EES8_E11target_typeEv', symObjAddr: 0x20E0, symBinAddr: 0x51290, symSize: 0x10 }
  - { offset: 0x26BAB8, size: 0x8, addend: 0x0, symName: '__ZNSt3__110__function6__funcIZN19llama_kv_cache_iswaC1ERK11llama_model9ggml_typeS6_bbbbjjjjRKNS_8functionIFbiEEERKNS7_IFiiEEEE3$_1NS_9allocatorISG_EES8_ED1Ev', symObjAddr: 0x2130, symBinAddr: 0x512A0, symSize: 0x10 }
  - { offset: 0x26BAE2, size: 0x8, addend: 0x0, symName: '__ZNSt3__110__function6__funcIZN19llama_kv_cache_iswaC1ERK11llama_model9ggml_typeS6_bbbbjjjjRKNS_8functionIFbiEEERKNS7_IFiiEEEE3$_1NS_9allocatorISG_EES8_ED0Ev', symObjAddr: 0x2140, symBinAddr: 0x512B0, symSize: 0x10 }
  - { offset: 0x26BBF9, size: 0x8, addend: 0x0, symName: '__ZNKSt3__110__function6__funcIZN19llama_kv_cache_iswaC1ERK11llama_model9ggml_typeS6_bbbbjjjjRKNS_8functionIFbiEEERKNS7_IFiiEEEE3$_1NS_9allocatorISG_EES8_E7__cloneEv', symObjAddr: 0x2150, symBinAddr: 0x512C0, symSize: 0x30 }
  - { offset: 0x26BE0A, size: 0x8, addend: 0x0, symName: '__ZNKSt3__110__function6__funcIZN19llama_kv_cache_iswaC1ERK11llama_model9ggml_typeS6_bbbbjjjjRKNS_8functionIFbiEEERKNS7_IFiiEEEE3$_1NS_9allocatorISG_EES8_E7__cloneEPNS0_6__baseIS8_EE', symObjAddr: 0x2180, symBinAddr: 0x512F0, symSize: 0x20 }
  - { offset: 0x26BED9, size: 0x8, addend: 0x0, symName: '__ZNSt3__110__function6__funcIZN19llama_kv_cache_iswaC1ERK11llama_model9ggml_typeS6_bbbbjjjjRKNS_8functionIFbiEEERKNS7_IFiiEEEE3$_1NS_9allocatorISG_EES8_E7destroyEv', symObjAddr: 0x21A0, symBinAddr: 0x51310, symSize: 0x10 }
  - { offset: 0x26BF2E, size: 0x8, addend: 0x0, symName: '__ZNSt3__110__function6__funcIZN19llama_kv_cache_iswaC1ERK11llama_model9ggml_typeS6_bbbbjjjjRKNS_8functionIFbiEEERKNS7_IFiiEEEE3$_1NS_9allocatorISG_EES8_E18destroy_deallocateEv', symObjAddr: 0x21B0, symBinAddr: 0x51320, symSize: 0x10 }
  - { offset: 0x26C059, size: 0x8, addend: 0x0, symName: '__ZNSt3__110__function6__funcIZN19llama_kv_cache_iswaC1ERK11llama_model9ggml_typeS6_bbbbjjjjRKNS_8functionIFbiEEERKNS7_IFiiEEEE3$_1NS_9allocatorISG_EES8_EclEOi', symObjAddr: 0x21C0, symBinAddr: 0x51330, symSize: 0x50 }
  - { offset: 0x26C1B7, size: 0x8, addend: 0x0, symName: '__ZNKSt3__110__function6__funcIZN19llama_kv_cache_iswaC1ERK11llama_model9ggml_typeS6_bbbbjjjjRKNS_8functionIFbiEEERKNS7_IFiiEEEE3$_1NS_9allocatorISG_EES8_E6targetERKSt9type_info', symObjAddr: 0x2210, symBinAddr: 0x51380, symSize: 0x20 }
  - { offset: 0x26C227, size: 0x8, addend: 0x0, symName: '__ZNKSt3__110__function6__funcIZN19llama_kv_cache_iswaC1ERK11llama_model9ggml_typeS6_bbbbjjjjRKNS_8functionIFbiEEERKNS7_IFiiEEEE3$_1NS_9allocatorISG_EES8_E11target_typeEv', symObjAddr: 0x2230, symBinAddr: 0x513A0, symSize: 0x10 }
  - { offset: 0x2AB4CF, size: 0x8, addend: 0x0, symName: __ZNSt3__135__uninitialized_allocator_copy_implB8ne200100INS_9allocatorINS_6vectorIjNS1_IjEEEEEEPS4_S6_S6_EET2_RT_T0_T1_S7_, symObjAddr: 0x13C90, symBinAddr: 0x64980, symSize: 0x100 }
  - { offset: 0x2AC7EB, size: 0x8, addend: 0x0, symName: __ZNSt3__134__uninitialized_allocator_relocateB8ne200100INS_9allocatorIN14llama_kv_cache9slot_infoEEEPS3_EEvRT_T0_S8_S8_, symObjAddr: 0x15E90, symBinAddr: 0x664F0, symSize: 0x110 }
  - { offset: 0x2AC846, size: 0x8, addend: 0x0, symName: __ZNSt3__134__uninitialized_allocator_relocateB8ne200100INS_9allocatorIN14llama_kv_cache9slot_infoEEEPS3_EEvRT_T0_S8_S8_, symObjAddr: 0x15E90, symBinAddr: 0x664F0, symSize: 0x110 }
  - { offset: 0x2B5AE7, size: 0x8, addend: 0x0, symName: __ZN14llama_kv_cacheC2ERK11llama_model9ggml_typeS3_bbbjjjj14llama_swa_typeRKNSt3__18functionIFbiEEERKNS6_IFiiEEE, symObjAddr: 0x0, symBinAddr: 0x51690, symSize: 0x1670 }
  - { offset: 0x2B96D9, size: 0x8, addend: 0x0, symName: __ZN14llama_kv_cache7prepareERKNSt3__16vectorI12llama_ubatchNS0_9allocatorIS2_EEEE, symObjAddr: 0x3AC0, symBinAddr: 0x55110, symSize: 0x1380 }
  - { offset: 0x2C0282, size: 0x8, addend: 0x0, symName: __ZNSt3__16vectorI14llama_kv_cellsNS_9allocatorIS1_EEE8__appendEm, symObjAddr: 0x14600, symBinAddr: 0x64F60, symSize: 0x370 }
  - { offset: 0x2C0A02, size: 0x8, addend: 0x0, symName: __ZNSt3__19allocatorI14llama_kv_cellsE7destroyB8ne200100EPS1_, symObjAddr: 0x143A0, symBinAddr: 0x64E60, symSize: 0xA0 }
  - { offset: 0x2C108A, size: 0x8, addend: 0x0, symName: __ZN14llama_kv_cells6resizeEj, symObjAddr: 0x1670, symBinAddr: 0x52D00, symSize: 0x180 }
  - { offset: 0x2C15A9, size: 0x8, addend: 0x0, symName: __ZNSt3__16vectorIjNS_9allocatorIjEEE8__appendEmRKj, symObjAddr: 0x14AF0, symBinAddr: 0x65450, symSize: 0x200 }
  - { offset: 0x2C1B42, size: 0x8, addend: 0x0, symName: __ZNSt3__112__hash_tableINS_17__hash_value_typeIiiEENS_22__unordered_map_hasherIiS2_NS_4hashIiEENS_8equal_toIiEELb1EEENS_21__unordered_map_equalIiS2_S7_S5_Lb1EEENS_9allocatorIS2_EEE25__emplace_unique_key_argsIiJRKNS_21piecewise_construct_tENS_5tupleIJOiEEENSI_IJEEEEEENS_4pairINS_15__hash_iteratorIPNS_11__hash_nodeIS2_PvEEEEbEERKT_DpOT0_, symObjAddr: 0x14D70, symBinAddr: 0x65650, symSize: 0x4A0 }
  - { offset: 0x2C22A2, size: 0x8, addend: 0x0, symName: __ZNSt3__16vectorIN14llama_kv_cache8kv_layerENS_9allocatorIS2_EEE24__emplace_back_slow_pathIJS2_EEEPS2_DpOT_, symObjAddr: 0x153C0, symBinAddr: 0x65CA0, symSize: 0x240 }
  - { offset: 0x2C2B80, size: 0x8, addend: 0x0, symName: __ZNSt3__112__hash_tableINS_17__hash_value_typeIiiEENS_22__unordered_map_hasherIiS2_NS_4hashIiEENS_8equal_toIiEELb1EEENS_21__unordered_map_equalIiS2_S7_S5_Lb1EEENS_9allocatorIS2_EEE25__emplace_unique_key_argsIiJRKNS_21piecewise_construct_tENS_5tupleIJRKiEEENSI_IJEEEEEENS_4pairINS_15__hash_iteratorIPNS_11__hash_nodeIS2_PvEEEEbEERKT_DpOT0_, symObjAddr: 0x15610, symBinAddr: 0x65EF0, symSize: 0x4A0 }
  - { offset: 0x2C33CF, size: 0x8, addend: 0x0, symName: __ZNSt3__16__treeINS_12__value_typeIP24ggml_backend_buffer_typeNS_10unique_ptrI12ggml_context20ggml_context_deleterEEEENS_19__map_value_compareIS3_S8_ZN14llama_kv_cacheC1ERK11llama_model9ggml_typeSE_bbbjjjj14llama_swa_typeRKNS_8functionIFbiEEERKNSG_IFiiEEEE28ggml_backend_buft_comparatorLb1EEENS_9allocatorIS8_EEE7destroyEPNS_11__tree_nodeIS8_PvEE, symObjAddr: 0x14440, symBinAddr: 0x64F00, symSize: 0x60 }
  - { offset: 0x2C35DB, size: 0x8, addend: 0x0, symName: __ZNSt3__112__hash_tableINS_17__hash_value_typeIiiEENS_22__unordered_map_hasherIiS2_NS_4hashIiEENS_8equal_toIiEELb1EEENS_21__unordered_map_equalIiS2_S7_S5_Lb1EEENS_9allocatorIS2_EEE25__emplace_unique_key_argsIiJRKNS_21piecewise_construct_tENS_5tupleIJOiEEENSI_IJEEEEEENS_4pairINS_15__hash_iteratorIPNS_11__hash_nodeIS2_PvEEEEbEERKT_DpOT0_, symObjAddr: 0x14D70, symBinAddr: 0x65650, symSize: 0x4A0 }
  - { offset: 0x2C35E6, size: 0x8, addend: 0x0, symName: __ZNSt3__16vectorINS_4pairINS_10unique_ptrI12ggml_context20ggml_context_deleterEENS2_I19ggml_backend_buffer27ggml_backend_buffer_deleterEEEENS_9allocatorIS9_EEE20__throw_length_errorB8ne200100Ev, symObjAddr: 0x15AB0, symBinAddr: 0x66390, symSize: 0x10 }
  - { offset: 0x2C3609, size: 0x8, addend: 0x0, symName: __ZN14llama_kv_cache8kv_layerD1Ev, symObjAddr: 0x17F0, symBinAddr: 0x52E80, symSize: 0x40 }
  - { offset: 0x2C387D, size: 0x8, addend: 0x0, symName: __ZNSt3__113unordered_mapIiiNS_4hashIiEENS_8equal_toIiEENS_9allocatorINS_4pairIKiiEEEEED1B8ne200100Ev, symObjAddr: 0x18D0, symBinAddr: 0x52F60, symSize: 0x50 }
  - { offset: 0x2C3B01, size: 0x8, addend: 0x0, symName: __ZNSt3__16vectorIN14llama_kv_cache8kv_layerENS_9allocatorIS2_EEED1B8ne200100Ev, symObjAddr: 0x1920, symBinAddr: 0x52FB0, symSize: 0x80 }
  - { offset: 0x2C3EF5, size: 0x8, addend: 0x0, symName: __ZN14llama_kv_cache16stream_copy_infoD1Ev, symObjAddr: 0x19A0, symBinAddr: 0x53030, symSize: 0x40 }
  - { offset: 0x2C4165, size: 0x8, addend: 0x0, symName: __ZNSt3__16vectorI14llama_kv_cellsNS_9allocatorIS1_EEED1B8ne200100Ev, symObjAddr: 0x19E0, symBinAddr: 0x53070, symSize: 0x70 }
  - { offset: 0x2C42D7, size: 0x8, addend: 0x0, symName: __ZNSt3__16vectorINS_4pairINS_10unique_ptrI12ggml_context20ggml_context_deleterEENS2_I19ggml_backend_buffer27ggml_backend_buffer_deleterEEEENS_9allocatorIS9_EEED1B8ne200100Ev, symObjAddr: 0x1A50, symBinAddr: 0x530E0, symSize: 0xA0 }
  - { offset: 0x2C4B79, size: 0x8, addend: 0x0, symName: __ZNSt3__16vectorI17llama_kv_cell_extNS_9allocatorIS1_EEE8__appendEm, symObjAddr: 0x12FB0, symBinAddr: 0x64270, symSize: 0x150 }
  - { offset: 0x2C4FED, size: 0x8, addend: 0x0, symName: __ZNSt3__16vectorINS_6bitsetILm256EEENS_9allocatorIS2_EEE8__appendEm, symObjAddr: 0x13110, symBinAddr: 0x643D0, symSize: 0x140 }
  - { offset: 0x2C5493, size: 0x8, addend: 0x0, symName: __ZNSt3__16__treeIjNS_4lessIjEENS_9allocatorIjEEE7destroyEPNS_11__tree_nodeIjPvEE, symObjAddr: 0x133E0, symBinAddr: 0x64510, symSize: 0x40 }
  - { offset: 0x2C5660, size: 0x8, addend: 0x0, symName: __ZNK14llama_kv_cache12size_k_bytesEv, symObjAddr: 0x1830, symBinAddr: 0x52EC0, symSize: 0x50 }
  - { offset: 0x2C5749, size: 0x8, addend: 0x0, symName: __ZNK14llama_kv_cache12size_v_bytesEv, symObjAddr: 0x1880, symBinAddr: 0x52F10, symSize: 0x50 }
  - { offset: 0x2C5E79, size: 0x8, addend: 0x0, symName: __ZN14llama_kv_cacheC1ERK11llama_model9ggml_typeS3_bbbjjjj14llama_swa_typeRKNSt3__18functionIFbiEEERKNS6_IFiiEEE, symObjAddr: 0x1AF0, symBinAddr: 0x53180, symSize: 0x10 }
  - { offset: 0x2C6059, size: 0x8, addend: 0x0, symName: __ZN14llama_kv_cache5clearEb, symObjAddr: 0x1B00, symBinAddr: 0x53190, symSize: 0x170 }
  - { offset: 0x2C6AB0, size: 0x8, addend: 0x0, symName: __ZN14llama_kv_cache6seq_rmEiii, symObjAddr: 0x1C70, symBinAddr: 0x53300, symSize: 0x4F0 }
  - { offset: 0x2C769E, size: 0x8, addend: 0x0, symName: __ZN14llama_kv_cells6seq_rmEji, symObjAddr: 0x2160, symBinAddr: 0x537F0, symSize: 0x200 }
  - { offset: 0x2C8577, size: 0x8, addend: 0x0, symName: __ZN14llama_kv_cache6seq_cpEiiii, symObjAddr: 0x2360, symBinAddr: 0x539F0, symSize: 0x6E0 }
  - { offset: 0x2C9AA5, size: 0x8, addend: 0x0, symName: __ZN14llama_kv_cells7seq_addEji, symObjAddr: 0x2A40, symBinAddr: 0x540D0, symSize: 0x110 }
  - { offset: 0x2C9E67, size: 0x8, addend: 0x0, symName: __ZN14llama_kv_cells7pos_addEji, symObjAddr: 0x2B80, symBinAddr: 0x54210, symSize: 0x110 }
  - { offset: 0x2CA2D8, size: 0x8, addend: 0x0, symName: __ZNSt3__16vectorI14llama_kv_cellsNS_9allocatorIS1_EEE8__appendEm, symObjAddr: 0x14600, symBinAddr: 0x64F60, symSize: 0x370 }
  - { offset: 0x2CA74B, size: 0x8, addend: 0x0, symName: __ZNK14llama_kv_cache8get_sizeEv, symObjAddr: 0x2B50, symBinAddr: 0x541E0, symSize: 0x30 }
  - { offset: 0x2CA801, size: 0x8, addend: 0x0, symName: __ZN14llama_kv_cells10seq_pos_rmEj, symObjAddr: 0x13860, symBinAddr: 0x64550, symSize: 0x120 }
  - { offset: 0x2CABDA, size: 0x8, addend: 0x0, symName: __ZN14llama_kv_cells11seq_pos_addEj, symObjAddr: 0x13980, symBinAddr: 0x64670, symSize: 0x140 }
  - { offset: 0x2CAFCC, size: 0x8, addend: 0x0, symName: __ZN14llama_kv_cache8seq_keepEi, symObjAddr: 0x2C90, symBinAddr: 0x54320, symSize: 0xF0 }
  - { offset: 0x2CB161, size: 0x8, addend: 0x0, symName: __ZN14llama_kv_cells8seq_keepEji, symObjAddr: 0x2D80, symBinAddr: 0x54410, symSize: 0x250 }
  - { offset: 0x2CBADD, size: 0x8, addend: 0x0, symName: __ZN14llama_kv_cache7seq_addEiiii, symObjAddr: 0x2FD0, symBinAddr: 0x54660, symSize: 0x240 }
  - { offset: 0x2CBD5A, size: 0x8, addend: 0x0, symName: __ZN14llama_kv_cache7seq_divEiiii, symObjAddr: 0x3210, symBinAddr: 0x548A0, symSize: 0x200 }
  - { offset: 0x2CC03F, size: 0x8, addend: 0x0, symName: __ZNK14llama_kv_cache11seq_pos_minEi, symObjAddr: 0x3410, symBinAddr: 0x54AA0, symSize: 0x80 }
  - { offset: 0x2CC1B6, size: 0x8, addend: 0x0, symName: __ZNK14llama_kv_cache11seq_pos_maxEi, symObjAddr: 0x3490, symBinAddr: 0x54B20, symSize: 0xC0 }
  - { offset: 0x2CC895, size: 0x8, addend: 0x0, symName: __ZNK14llama_kv_cache16memory_breakdownEv, symObjAddr: 0x3550, symBinAddr: 0x54BE0, symSize: 0x1E0 }
  - { offset: 0x2CD754, size: 0x8, addend: 0x0, symName: __ZN14llama_kv_cache10init_batchER18llama_batch_allocrjb, symObjAddr: 0x3730, symBinAddr: 0x54DC0, symSize: 0x350 }
  - { offset: 0x2D02A4, size: 0x8, addend: 0x0, symName: __ZNK14llama_kv_cache9find_slotERK12llama_ubatchb, symObjAddr: 0x56B0, symBinAddr: 0x56BB0, symSize: 0xF60 }
  - { offset: 0x2D27A7, size: 0x8, addend: 0x0, symName: __ZN14llama_kv_cache9slot_infoC2ERKS0_, symObjAddr: 0x13AC0, symBinAddr: 0x647B0, symSize: 0x150 }
  - { offset: 0x2D2D93, size: 0x8, addend: 0x0, symName: __ZNSt3__16vectorIN14llama_kv_cache9slot_infoENS_9allocatorIS2_EEE24__emplace_back_slow_pathIJRKS2_EEEPS2_DpOT_, symObjAddr: 0x15D40, symBinAddr: 0x663A0, symSize: 0x140 }
  - { offset: 0x2D31A8, size: 0x8, addend: 0x0, symName: __ZZN14llama_kv_cache7prepareERKNSt3__16vectorI12llama_ubatchNS0_9allocatorIS2_EEEEEN7state_tD1Ev, symObjAddr: 0x6740, symBinAddr: 0x57C40, symSize: 0xD0 }
  - { offset: 0x2D3856, size: 0x8, addend: 0x0, symName: __ZN14llama_kv_cache12apply_ubatchERKNS_9slot_infoERK12llama_ubatch, symObjAddr: 0x6810, symBinAddr: 0x57D10, symSize: 0xB60 }
  - { offset: 0x2D534F, size: 0x8, addend: 0x0, symName: __ZN14llama_kv_cells3setERKNSt3__16vectorIjNS0_9allocatorIjEEEERKS_, symObjAddr: 0x7370, symBinAddr: 0x58870, symSize: 0x280 }
  - { offset: 0x2D5ACF, size: 0x8, addend: 0x0, symName: __ZNSt3__16vectorI14llama_kv_cellsNS_9allocatorIS1_EEE20__throw_length_errorB8ne200100Ev, symObjAddr: 0x14970, symBinAddr: 0x652D0, symSize: 0x10 }
  - { offset: 0x2D5AE7, size: 0x8, addend: 0x0, symName: __ZNSt3__19allocatorI14llama_kv_cellsE9constructB8ne200100IS1_JS1_EEEvPT_DpOT0_, symObjAddr: 0x14980, symBinAddr: 0x652E0, symSize: 0x170 }
  - { offset: 0x2D5AF2, size: 0x8, addend: 0x0, symName: __ZNSt3__16vectorIZN14llama_kv_cache7prepareERKNS0_I12llama_ubatchNS_9allocatorIS2_EEEEE7state_tNS3_IS8_EEE20__throw_length_errorB8ne200100Ev, symObjAddr: 0x16060, symBinAddr: 0x666C0, symSize: 0x10 }
  - { offset: 0x2D5B0A, size: 0x8, addend: 0x0, symName: __ZNSt3__113unordered_mapIiNS_6vectorIjNS_9allocatorIjEEEENS_4hashIiEENS_8equal_toIiEENS2_INS_4pairIKiS4_EEEEED1B8ne200100Ev, symObjAddr: 0x16070, symBinAddr: 0x666D0, symSize: 0x70 }
  - { offset: 0x2D5B15, size: 0x8, addend: 0x0, symName: __ZN14llama_kv_cache9slot_infoD1Ev, symObjAddr: 0x6610, symBinAddr: 0x57B10, symSize: 0x90 }
  - { offset: 0x2D5EEB, size: 0x8, addend: 0x0, symName: __ZN14llama_kv_cellsD1Ev, symObjAddr: 0x66A0, symBinAddr: 0x57BA0, symSize: 0xA0 }
  - { offset: 0x2D654C, size: 0x8, addend: 0x0, symName: __ZNSt3__16vectorIZN14llama_kv_cache7prepareERKNS0_I12llama_ubatchNS_9allocatorIS2_EEEEE7state_tNS3_IS8_EEED1B8ne200100Ev, symObjAddr: 0x75F0, symBinAddr: 0x58AF0, symSize: 0x70 }
  - { offset: 0x2D66DA, size: 0x8, addend: 0x0, symName: __ZN14llama_kv_cache9init_fullEv, symObjAddr: 0x4F90, symBinAddr: 0x56490, symSize: 0x50 }
  - { offset: 0x2D6783, size: 0x8, addend: 0x0, symName: __ZN22llama_kv_cache_contextC2EP14llama_kv_cache, symObjAddr: 0x12110, symBinAddr: 0x63610, symSize: 0x300 }
  - { offset: 0x2D7133, size: 0x8, addend: 0x0, symName: __ZN14llama_kv_cache11init_updateEP13llama_contextb, symObjAddr: 0x4FE0, symBinAddr: 0x564E0, symSize: 0x3E0 }
  - { offset: 0x2D744E, size: 0x8, addend: 0x0, symName: __ZNK14llama_kv_cache13get_has_shiftEv, symObjAddr: 0x53C0, symBinAddr: 0x568C0, symSize: 0x2F0 }
  - { offset: 0x2D7B0A, size: 0x8, addend: 0x0, symName: __ZNSt3__16vectorINS0_IjNS_9allocatorIjEEEENS1_IS3_EEE8__appendEm, symObjAddr: 0x14200, symBinAddr: 0x64CC0, symSize: 0x1A0 }
  - { offset: 0x2D8119, size: 0x8, addend: 0x0, symName: __ZN14llama_kv_cache6updateEP13llama_contextbRKNS_16stream_copy_infoE, symObjAddr: 0x7660, symBinAddr: 0x58B60, symSize: 0x340 }
  - { offset: 0x2D8522, size: 0x8, addend: 0x0, symName: __ZNK14llama_kv_cache17build_graph_shiftEP16llm_graph_resultP13llama_context, symObjAddr: 0x79A0, symBinAddr: 0x58EA0, symSize: 0x2E0 }
  - { offset: 0x2D8DA8, size: 0x8, addend: 0x0, symName: __ZNK14llama_kv_cache16build_rope_shiftERK13llama_cparamsP12ggml_contextP11ggml_tensorS6_S6_ff, symObjAddr: 0xFDF0, symBinAddr: 0x612F0, symSize: 0x130 }
  - { offset: 0x2D8F94, size: 0x8, addend: 0x0, symName: __ZNK14llama_kv_cache13get_can_shiftEv, symObjAddr: 0x7C80, symBinAddr: 0x59180, symSize: 0x10 }
  - { offset: 0x2D8FBA, size: 0x8, addend: 0x0, symName: __ZNK14llama_kv_cache12get_n_streamEv, symObjAddr: 0x7C90, symBinAddr: 0x59190, symSize: 0x10 }
  - { offset: 0x2D8FDA, size: 0x8, addend: 0x0, symName: __ZNK14llama_kv_cache8get_n_kvERKNS_9slot_infoE, symObjAddr: 0x7CA0, symBinAddr: 0x591A0, symSize: 0xF0 }
  - { offset: 0x2D9019, size: 0x8, addend: 0x0, symName: __ZNK14llama_kv_cache8get_n_kvERKNS_9slot_infoE, symObjAddr: 0x7CA0, symBinAddr: 0x591A0, symSize: 0xF0 }
  - { offset: 0x2D9037, size: 0x8, addend: 0x0, symName: __ZNK14llama_kv_cache8get_n_kvERKNS_9slot_infoE, symObjAddr: 0x7CA0, symBinAddr: 0x591A0, symSize: 0xF0 }
  - { offset: 0x2D9054, size: 0x8, addend: 0x0, symName: __ZNK14llama_kv_cache8get_n_kvERKNS_9slot_infoE, symObjAddr: 0x7CA0, symBinAddr: 0x591A0, symSize: 0xF0 }
  - { offset: 0x2D9299, size: 0x8, addend: 0x0, symName: __ZNK14llama_kv_cache5get_kEP12ggml_contextijRKNS_9slot_infoE, symObjAddr: 0x7D90, symBinAddr: 0x59290, symSize: 0x2C0 }
  - { offset: 0x2D965D, size: 0x8, addend: 0x0, symName: __ZNK14llama_kv_cache5get_vEP12ggml_contextijRKNS_9slot_infoE, symObjAddr: 0x8050, symBinAddr: 0x59550, symSize: 0x360 }
  - { offset: 0x2D9A0E, size: 0x8, addend: 0x0, symName: __ZNK14llama_kv_cache5cpy_kEP12ggml_contextP11ggml_tensorS3_iRKNS_9slot_infoE, symObjAddr: 0x83B0, symBinAddr: 0x598B0, symSize: 0x2A0 }
  - { offset: 0x2D9E19, size: 0x8, addend: 0x0, symName: __ZNK14llama_kv_cache5cpy_vEP12ggml_contextP11ggml_tensorS3_iRKNS_9slot_infoE, symObjAddr: 0x8650, symBinAddr: 0x59B50, symSize: 0x380 }
  - { offset: 0x2DA33E, size: 0x8, addend: 0x0, symName: __ZNK14llama_kv_cache18build_input_k_idxsEP12ggml_contextRK12llama_ubatch, symObjAddr: 0x89D0, symBinAddr: 0x59ED0, symSize: 0x30 }
  - { offset: 0x2DA3A9, size: 0x8, addend: 0x0, symName: __ZNK14llama_kv_cache18build_input_v_idxsEP12ggml_contextRK12llama_ubatch, symObjAddr: 0x8A00, symBinAddr: 0x59F00, symSize: 0x50 }
  - { offset: 0x2DA41C, size: 0x8, addend: 0x0, symName: __ZNK14llama_kv_cache16set_input_k_idxsEP11ggml_tensorPK12llama_ubatchRKNS_9slot_infoE, symObjAddr: 0x8A50, symBinAddr: 0x59F50, symSize: 0x440 }
  - { offset: 0x2DA5E4, size: 0x8, addend: 0x0, symName: __ZNK14llama_kv_cache16set_input_v_idxsEP11ggml_tensorPK12llama_ubatchRKNS_9slot_infoE, symObjAddr: 0x8E90, symBinAddr: 0x5A390, symSize: 0x6A0 }
  - { offset: 0x2DA8B6, size: 0x8, addend: 0x0, symName: __ZNK14llama_kv_cache17set_input_k_shiftEP11ggml_tensor, symObjAddr: 0x9530, symBinAddr: 0x5AA30, symSize: 0x140 }
  - { offset: 0x2DA8C9, size: 0x8, addend: 0x0, symName: __ZNK14llama_kv_cache17set_input_k_shiftEP11ggml_tensor, symObjAddr: 0x9530, symBinAddr: 0x5AA30, symSize: 0x140 }
  - { offset: 0x2DD3A3, size: 0x8, addend: 0x0, symName: __ZNK14llama_kv_cache17set_input_kq_maskEP11ggml_tensorPK12llama_ubatchb, symObjAddr: 0x9670, symBinAddr: 0x5AB70, symSize: 0x65D0 }
  - { offset: 0x2ED33E, size: 0x8, addend: 0x0, symName: __ZNSt3__112__hash_tableINS_17__hash_value_typeIiNS_6vectorIjNS_9allocatorIjEEEEEENS_22__unordered_map_hasherIiS6_NS_4hashIiEENS_8equal_toIiEELb1EEENS_21__unordered_map_equalIiS6_SB_S9_Lb1EEENS3_IS6_EEE25__emplace_unique_key_argsIiJRKNS_21piecewise_construct_tENS_5tupleIJRKiEEENSL_IJEEEEEENS_4pairINS_15__hash_iteratorIPNS_11__hash_nodeIS6_PvEEEEbEERKT_DpOT0_, symObjAddr: 0x16140, symBinAddr: 0x667A0, symSize: 0x4D0 }
  - { offset: 0x2EDA92, size: 0x8, addend: 0x0, symName: __ZNSt3__112__hash_tableINS_17__hash_value_typeIijEENS_22__unordered_map_hasherIiS2_NS_4hashIiEENS_8equal_toIiEELb1EEENS_21__unordered_map_equalIiS2_S7_S5_Lb1EEENS_9allocatorIS2_EEE25__emplace_unique_key_argsIiJRKNS_21piecewise_construct_tENS_5tupleIJRKiEEENSI_IJEEEEEENS_4pairINS_15__hash_iteratorIPNS_11__hash_nodeIS2_PvEEEEbEERKT_DpOT0_, symObjAddr: 0x16810, symBinAddr: 0x66E70, symSize: 0x4A0 }
  - { offset: 0x2EE1F2, size: 0x8, addend: 0x0, symName: __ZNSt3__16vectorI14llama_kv_cellsNS_9allocatorIS1_EEE20__throw_out_of_rangeB8ne200100Ev, symObjAddr: 0x16130, symBinAddr: 0x66790, symSize: 0x10 }
  - { offset: 0x2EE20A, size: 0x8, addend: 0x0, symName: __ZNSt3__112__hash_tableINS_17__hash_value_typeIiNS_6vectorIjNS_9allocatorIjEEEEEENS_22__unordered_map_hasherIiS6_NS_4hashIiEENS_8equal_toIiEELb1EEENS_21__unordered_map_equalIiS6_SB_S9_Lb1EEENS3_IS6_EEE25__emplace_unique_key_argsIiJRKNS_21piecewise_construct_tENS_5tupleIJRKiEEENSL_IJEEEEEENS_4pairINS_15__hash_iteratorIPNS_11__hash_nodeIS6_PvEEEEbEERKT_DpOT0_, symObjAddr: 0x16140, symBinAddr: 0x667A0, symSize: 0x4D0 }
  - { offset: 0x2EE215, size: 0x8, addend: 0x0, symName: __ZNSt3__113unordered_mapIiNS_6vectorIjNS_9allocatorIjEEEENS_4hashIiEENS_8equal_toIiEENS2_INS_4pairIKiS4_EEEEED1B8ne200100Ev, symObjAddr: 0x16070, symBinAddr: 0x666D0, symSize: 0x70 }
  - { offset: 0x2EE60B, size: 0x8, addend: 0x0, symName: __ZNSt3__113unordered_mapIijNS_4hashIiEENS_8equal_toIiEENS_9allocatorINS_4pairIKijEEEEED1B8ne200100Ev, symObjAddr: 0x160E0, symBinAddr: 0x66740, symSize: 0x50 }
  - { offset: 0x2EE8A5, size: 0x8, addend: 0x0, symName: __ZNK14llama_kv_cache20set_input_pos_bucketEP11ggml_tensorPK12llama_ubatch, symObjAddr: 0xFC40, symBinAddr: 0x61140, symSize: 0x160 }
  - { offset: 0x2EEAA9, size: 0x8, addend: 0x0, symName: __ZNK14llama_kv_cache10total_sizeEv, symObjAddr: 0xFDA0, symBinAddr: 0x612A0, symSize: 0x50 }
  - { offset: 0x2EED24, size: 0x8, addend: 0x0, symName: __ZN23llm_graph_input_k_shift9set_inputEPK12llama_ubatch, symObjAddr: 0xFF20, symBinAddr: 0x61420, symSize: 0x150 }
  - { offset: 0x2EF5FA, size: 0x8, addend: 0x0, symName: __ZNK14llama_kv_cache11state_writeER16llama_io_write_iij, symObjAddr: 0x10070, symBinAddr: 0x61570, symSize: 0x580 }
  - { offset: 0x2F0314, size: 0x8, addend: 0x0, symName: __ZNK14llama_kv_cache16state_write_metaER16llama_io_write_iRKNS_13cell_ranges_tEi, symObjAddr: 0x105F0, symBinAddr: 0x61AF0, symSize: 0x2F0 }
  - { offset: 0x2F0B10, size: 0x8, addend: 0x0, symName: __ZNK14llama_kv_cache16state_write_dataER16llama_io_write_iRKNS_13cell_ranges_tE, symObjAddr: 0x108E0, symBinAddr: 0x61DE0, symSize: 0x3C0 }
  - { offset: 0x2F145C, size: 0x8, addend: 0x0, symName: __ZNSt3__16vectorINS_4pairIjjEENS_9allocatorIS2_EEE20__throw_length_errorB8ne200100Ev, symObjAddr: 0x16E60, symBinAddr: 0x674C0, symSize: 0x10 }
  - { offset: 0x2F1474, size: 0x8, addend: 0x0, symName: __ZNSt3__16vectorIN14llama_kv_cache9slot_infoENS_9allocatorIS2_EEE8__appendEm, symObjAddr: 0x16E70, symBinAddr: 0x674D0, symSize: 0x1AE }
  - { offset: 0x2F1781, size: 0x8, addend: 0x0, symName: __ZN14llama_kv_cache10state_readER15llama_io_read_iij, symObjAddr: 0x10CA0, symBinAddr: 0x621A0, symSize: 0x270 }
  - { offset: 0x2F1DE8, size: 0x8, addend: 0x0, symName: __ZN14llama_kv_cache15state_read_metaER15llama_io_read_ijjRNS_9slot_infoEi, symObjAddr: 0x10F10, symBinAddr: 0x62410, symSize: 0x7F0 }
  - { offset: 0x2F2FC8, size: 0x8, addend: 0x0, symName: __ZN14llama_kv_cache15state_read_dataER15llama_io_read_ijjRKNS_9slot_infoE, symObjAddr: 0x11700, symBinAddr: 0x62C00, symSize: 0x990 }
  - { offset: 0x2F4A12, size: 0x8, addend: 0x0, symName: __ZN22llama_kv_cache_contextC2E19llama_memory_status, symObjAddr: 0x12090, symBinAddr: 0x63590, symSize: 0x40 }
  - { offset: 0x2F4AB6, size: 0x8, addend: 0x0, symName: __ZN22llama_kv_cache_contextC1E19llama_memory_status, symObjAddr: 0x120D0, symBinAddr: 0x635D0, symSize: 0x40 }
  - { offset: 0x2F4D0C, size: 0x8, addend: 0x0, symName: __ZNSt3__16vectorIN14llama_kv_cache9slot_infoENS_9allocatorIS2_EEE6resizeEm, symObjAddr: 0x12410, symBinAddr: 0x63910, symSize: 0xE0 }
  - { offset: 0x2F521B, size: 0x8, addend: 0x0, symName: __ZNSt3__16vectorIN14llama_kv_cache9slot_infoENS_9allocatorIS2_EEE8__appendEm, symObjAddr: 0x16E70, symBinAddr: 0x674D0, symSize: 0x1AE }
  - { offset: 0x2F5755, size: 0x8, addend: 0x0, symName: __ZN22llama_kv_cache_contextC1EP14llama_kv_cache, symObjAddr: 0x124F0, symBinAddr: 0x639F0, symSize: 0x10 }
  - { offset: 0x2F5799, size: 0x8, addend: 0x0, symName: __ZN22llama_kv_cache_contextC2EP14llama_kv_cacheP13llama_contextbNS0_16stream_copy_infoE, symObjAddr: 0x12500, symBinAddr: 0x63A00, symSize: 0xB0 }
  - { offset: 0x2F5939, size: 0x8, addend: 0x0, symName: __ZN22llama_kv_cache_contextC1EP14llama_kv_cacheP13llama_contextbNS0_16stream_copy_infoE, symObjAddr: 0x125B0, symBinAddr: 0x63AB0, symSize: 0xB0 }
  - { offset: 0x2F5B20, size: 0x8, addend: 0x0, symName: __ZN22llama_kv_cache_contextC2EP14llama_kv_cacheNSt3__16vectorINS0_9slot_infoENS2_9allocatorIS4_EEEENS3_I12llama_ubatchNS5_IS8_EEEE, symObjAddr: 0x12660, symBinAddr: 0x63B60, symSize: 0x80 }
  - { offset: 0x2F5C70, size: 0x8, addend: 0x0, symName: __ZN22llama_kv_cache_contextC1EP14llama_kv_cacheNSt3__16vectorINS0_9slot_infoENS2_9allocatorIS4_EEEENS3_I12llama_ubatchNS5_IS8_EEEE, symObjAddr: 0x126E0, symBinAddr: 0x63BE0, symSize: 0x80 }
  - { offset: 0x2F5E10, size: 0x8, addend: 0x0, symName: __ZN22llama_kv_cache_contextD2Ev, symObjAddr: 0x12760, symBinAddr: 0x63C60, symSize: 0x150 }
  - { offset: 0x2F6846, size: 0x8, addend: 0x0, symName: __ZN22llama_kv_cache_contextD1Ev, symObjAddr: 0x128B0, symBinAddr: 0x63DB0, symSize: 0x10 }
  - { offset: 0x2F6899, size: 0x8, addend: 0x0, symName: __ZN22llama_kv_cache_contextD0Ev, symObjAddr: 0x128C0, symBinAddr: 0x63DC0, symSize: 0x20 }
  - { offset: 0x2F68F9, size: 0x8, addend: 0x0, symName: __ZN22llama_kv_cache_context4nextEv, symObjAddr: 0x128E0, symBinAddr: 0x63DE0, symSize: 0x40 }
  - { offset: 0x2F69CA, size: 0x8, addend: 0x0, symName: __ZN22llama_kv_cache_context5applyEv, symObjAddr: 0x12920, symBinAddr: 0x63E20, symSize: 0x150 }
  - { offset: 0x2F6C5E, size: 0x8, addend: 0x0, symName: __ZNK22llama_kv_cache_context10get_statusEv, symObjAddr: 0x12A70, symBinAddr: 0x63F70, symSize: 0x10 }
  - { offset: 0x2F6CA8, size: 0x8, addend: 0x0, symName: __ZNK22llama_kv_cache_context10get_ubatchEv, symObjAddr: 0x12A80, symBinAddr: 0x63F80, symSize: 0x10 }
  - { offset: 0x2F6CF0, size: 0x8, addend: 0x0, symName: __ZNK22llama_kv_cache_context8get_n_kvEv, symObjAddr: 0x12A90, symBinAddr: 0x63F90, symSize: 0x10 }
  - { offset: 0x2F6D3A, size: 0x8, addend: 0x0, symName: __ZNK22llama_kv_cache_context5get_kEP12ggml_contexti, symObjAddr: 0x12AA0, symBinAddr: 0x63FA0, symSize: 0x20 }
  - { offset: 0x2F6DAD, size: 0x8, addend: 0x0, symName: __ZNK22llama_kv_cache_context5get_vEP12ggml_contexti, symObjAddr: 0x12AC0, symBinAddr: 0x63FC0, symSize: 0x20 }
  - { offset: 0x2F6E20, size: 0x8, addend: 0x0, symName: __ZNK22llama_kv_cache_context5cpy_kEP12ggml_contextP11ggml_tensorS3_i, symObjAddr: 0x12AE0, symBinAddr: 0x63FE0, symSize: 0x10 }
  - { offset: 0x2F6EB1, size: 0x8, addend: 0x0, symName: __ZNK22llama_kv_cache_context5cpy_vEP12ggml_contextP11ggml_tensorS3_i, symObjAddr: 0x12AF0, symBinAddr: 0x63FF0, symSize: 0x10 }
  - { offset: 0x2F6F8B, size: 0x8, addend: 0x0, symName: __ZNK22llama_kv_cache_context18build_input_k_idxsEP12ggml_contextRK12llama_ubatch, symObjAddr: 0x12B00, symBinAddr: 0x64000, symSize: 0x30 }
  - { offset: 0x2F7077, size: 0x8, addend: 0x0, symName: __ZNK22llama_kv_cache_context18build_input_v_idxsEP12ggml_contextRK12llama_ubatch, symObjAddr: 0x12B30, symBinAddr: 0x64030, symSize: 0x50 }
  - { offset: 0x2F7128, size: 0x8, addend: 0x0, symName: __ZNK22llama_kv_cache_context17set_input_k_shiftEP11ggml_tensor, symObjAddr: 0x12B80, symBinAddr: 0x64080, symSize: 0x140 }
  - { offset: 0x2F726B, size: 0x8, addend: 0x0, symName: __ZNK22llama_kv_cache_context16set_input_k_idxsEP11ggml_tensorPK12llama_ubatch, symObjAddr: 0x12CC0, symBinAddr: 0x641C0, symSize: 0x20 }
  - { offset: 0x2F72E5, size: 0x8, addend: 0x0, symName: __ZNK22llama_kv_cache_context16set_input_v_idxsEP11ggml_tensorPK12llama_ubatch, symObjAddr: 0x12CE0, symBinAddr: 0x641E0, symSize: 0x20 }
  - { offset: 0x2F735F, size: 0x8, addend: 0x0, symName: __ZNK22llama_kv_cache_context17set_input_kq_maskEP11ggml_tensorPK12llama_ubatchb, symObjAddr: 0x12D00, symBinAddr: 0x64200, symSize: 0x10 }
  - { offset: 0x2F73E6, size: 0x8, addend: 0x0, symName: __ZNK22llama_kv_cache_context20set_input_pos_bucketEP11ggml_tensorPK12llama_ubatch, symObjAddr: 0x12D10, symBinAddr: 0x64210, symSize: 0x10 }
  - { offset: 0x2F744B, size: 0x8, addend: 0x0, symName: __ZN14llama_kv_cacheD1Ev, symObjAddr: 0x12D20, symBinAddr: 0x64220, symSize: 0x10 }
  - { offset: 0x2F7481, size: 0x8, addend: 0x0, symName: __ZN14llama_kv_cacheD2Ev, symObjAddr: 0x14010, symBinAddr: 0x64AD0, symSize: 0x1F0 }
  - { offset: 0x2F8459, size: 0x8, addend: 0x0, symName: __ZN14llama_kv_cacheD0Ev, symObjAddr: 0x12D30, symBinAddr: 0x64230, symSize: 0x20 }
  - { offset: 0x2F84B5, size: 0x8, addend: 0x0, symName: __ZN23llm_graph_input_k_shiftD1Ev, symObjAddr: 0x12D50, symBinAddr: 0x64250, symSize: 0x10 }
  - { offset: 0x2F84DE, size: 0x8, addend: 0x0, symName: __ZN23llm_graph_input_k_shiftD0Ev, symObjAddr: 0x12D60, symBinAddr: 0x64260, symSize: 0x10 }
  - { offset: 0x2F88DD, size: 0x8, addend: 0x0, symName: __ZNSt3__16vectorI17llama_kv_cell_extNS_9allocatorIS1_EEE20__throw_length_errorB8ne200100Ev, symObjAddr: 0x13100, symBinAddr: 0x643C0, symSize: 0x10 }
  - { offset: 0x2F88F5, size: 0x8, addend: 0x0, symName: __ZNSt3__16vectorINS_6bitsetILm256EEENS_9allocatorIS2_EEE8__appendEm, symObjAddr: 0x13110, symBinAddr: 0x643D0, symSize: 0x140 }
  - { offset: 0x2F9005, size: 0x8, addend: 0x0, symName: __ZNSt3__16vectorINS0_IjNS_9allocatorIjEEEENS1_IS3_EEE20__throw_length_errorB8ne200100Ev, symObjAddr: 0x13C80, symBinAddr: 0x64970, symSize: 0x10 }
  - { offset: 0x2F901D, size: 0x8, addend: 0x0, symName: __ZNSt3__135__uninitialized_allocator_copy_implB8ne200100INS_9allocatorINS_6vectorIjNS1_IjEEEEEEPS4_S6_S6_EET2_RT_T0_T1_S7_, symObjAddr: 0x13C90, symBinAddr: 0x64980, symSize: 0x100 }
  - { offset: 0x2F9028, size: 0x8, addend: 0x0, symName: __ZNSt3__128__exception_guard_exceptionsINS_6vectorINS1_IjNS_9allocatorIjEEEENS2_IS4_EEE16__destroy_vectorEED1B8ne200100Ev, symObjAddr: 0x13C10, symBinAddr: 0x64900, symSize: 0x70 }
  - { offset: 0x2F939D, size: 0x8, addend: 0x0, symName: __ZNSt3__128__exception_guard_exceptionsINS_29_AllocatorDestroyRangeReverseINS_9allocatorINS_6vectorIjNS2_IjEEEEEEPS5_EEED1B8ne200100Ev, symObjAddr: 0x13D90, symBinAddr: 0x64A80, symSize: 0x50 }
  - { offset: 0x2F93CA, size: 0x8, addend: 0x0, symName: __ZNSt3__128__exception_guard_exceptionsINS_29_AllocatorDestroyRangeReverseINS_9allocatorINS_6vectorIjNS2_IjEEEEEEPS5_EEED1B8ne200100Ev, symObjAddr: 0x13D90, symBinAddr: 0x64A80, symSize: 0x50 }
  - { offset: 0x2FA554, size: 0x8, addend: 0x0, symName: __ZNSt3__19allocatorI14llama_kv_cellsE9constructB8ne200100IS1_JS1_EEEvPT_DpOT0_, symObjAddr: 0x14980, symBinAddr: 0x652E0, symSize: 0x170 }
  - { offset: 0x2FA588, size: 0x8, addend: 0x0, symName: __ZNSt3__19allocatorI14llama_kv_cellsE9constructB8ne200100IS1_JS1_EEEvPT_DpOT0_, symObjAddr: 0x14980, symBinAddr: 0x652E0, symSize: 0x170 }
  - { offset: 0x2FA5AC, size: 0x8, addend: 0x0, symName: __ZNSt3__19allocatorI14llama_kv_cellsE9constructB8ne200100IS1_JS1_EEEvPT_DpOT0_, symObjAddr: 0x14980, symBinAddr: 0x652E0, symSize: 0x170 }
  - { offset: 0x2FAD58, size: 0x8, addend: 0x0, symName: __ZNSt3__112__hash_tableINS_17__hash_value_typeIiiEENS_22__unordered_map_hasherIiS2_NS_4hashIiEENS_8equal_toIiEELb1EEENS_21__unordered_map_equalIiS2_S7_S5_Lb1EEENS_9allocatorIS2_EEE11__do_rehashILb1EEEvm, symObjAddr: 0x15210, symBinAddr: 0x65AF0, symSize: 0x1B0 }
  - { offset: 0x2FB300, size: 0x8, addend: 0x0, symName: __ZNSt3__16vectorIN14llama_kv_cache8kv_layerENS_9allocatorIS2_EEE20__throw_length_errorB8ne200100Ev, symObjAddr: 0x15600, symBinAddr: 0x65EE0, symSize: 0x10 }
  - { offset: 0x2FB318, size: 0x8, addend: 0x0, symName: __ZNSt3__112__hash_tableINS_17__hash_value_typeIiiEENS_22__unordered_map_hasherIiS2_NS_4hashIiEENS_8equal_toIiEELb1EEENS_21__unordered_map_equalIiS2_S7_S5_Lb1EEENS_9allocatorIS2_EEE25__emplace_unique_key_argsIiJRKNS_21piecewise_construct_tENS_5tupleIJRKiEEENSI_IJEEEEEENS_4pairINS_15__hash_iteratorIPNS_11__hash_nodeIS2_PvEEEEbEERKT_DpOT0_, symObjAddr: 0x15610, symBinAddr: 0x65EF0, symSize: 0x4A0 }
  - { offset: 0x2FB638, size: 0x8, addend: 0x0, symName: __ZNSt3__16vectorIN14llama_kv_cache9slot_infoENS_9allocatorIS2_EEE24__emplace_back_slow_pathIJRKS2_EEEPS2_DpOT_, symObjAddr: 0x15D40, symBinAddr: 0x663A0, symSize: 0x140 }
  - { offset: 0x2FB7B1, size: 0x8, addend: 0x0, symName: __ZNSt3__16vectorIN14llama_kv_cache9slot_infoENS_9allocatorIS2_EEE20__throw_length_errorB8ne200100Ev, symObjAddr: 0x15E80, symBinAddr: 0x664E0, symSize: 0x10 }
  - { offset: 0x2FB7C9, size: 0x8, addend: 0x0, symName: __ZNSt3__134__uninitialized_allocator_relocateB8ne200100INS_9allocatorIN14llama_kv_cache9slot_infoEEEPS3_EEvRT_T0_S8_S8_, symObjAddr: 0x15E90, symBinAddr: 0x664F0, symSize: 0x110 }
  - { offset: 0x2FB7D4, size: 0x8, addend: 0x0, symName: __ZNSt3__114__split_bufferIN14llama_kv_cache9slot_infoERNS_9allocatorIS2_EEED2Ev, symObjAddr: 0x15FA0, symBinAddr: 0x66600, symSize: 0xC0 }
  - { offset: 0x2FC2C7, size: 0x8, addend: 0x0, symName: __ZNSt3__112__hash_tableINS_17__hash_value_typeIiNS_6vectorIjNS_9allocatorIjEEEEEENS_22__unordered_map_hasherIiS6_NS_4hashIiEENS_8equal_toIiEELb1EEENS_21__unordered_map_equalIiS6_SB_S9_Lb1EEENS3_IS6_EEE11__do_rehashILb1EEEvm, symObjAddr: 0x16660, symBinAddr: 0x66CC0, symSize: 0x1B0 }
  - { offset: 0x2FC683, size: 0x8, addend: 0x0, symName: __ZNSt3__110unique_ptrINS_11__hash_nodeINS_17__hash_value_typeIiNS_6vectorIjNS_9allocatorIjEEEEEEPvEENS_22__hash_node_destructorINS4_IS9_EEEEED1B8ne200100Ev, symObjAddr: 0x16610, symBinAddr: 0x66C70, symSize: 0x50 }
  - { offset: 0x2FCE8C, size: 0x8, addend: 0x0, symName: __ZNSt3__112__hash_tableINS_17__hash_value_typeIijEENS_22__unordered_map_hasherIiS2_NS_4hashIiEENS_8equal_toIiEELb1EEENS_21__unordered_map_equalIiS2_S7_S5_Lb1EEENS_9allocatorIS2_EEE11__do_rehashILb1EEEvm, symObjAddr: 0x16CB0, symBinAddr: 0x67310, symSize: 0x1B0 }
  - { offset: 0x2FF2C0, size: 0x8, addend: 0x0, symName: __ZN24llama_memory_hybrid_iswaC2ERK11llama_model9ggml_typeS3_bbjjjS3_S3_jjbbRKNSt3__18functionIFbiEEES9_, symObjAddr: 0x0, symBinAddr: 0x67680, symSize: 0x2E0 }
  - { offset: 0x32AC1E, size: 0x8, addend: 0x0, symName: __ZNSt3__111make_uniqueB8ne200100I32llama_memory_hybrid_iswa_contextJP24llama_memory_hybrid_iswaNS_6vectorIN14llama_kv_cache9slot_infoENS_9allocatorIS6_EEEES9_NS4_I12llama_ubatchNS7_ISA_EEEEELi0EEENS_10unique_ptrIT_NS_14default_deleteISE_EEEEDpOT0_, symObjAddr: 0x9D0, symBinAddr: 0x68010, symSize: 0x260 }
  - { offset: 0x335A17, size: 0x8, addend: 0x0, symName: __ZN24llama_memory_hybrid_iswaC1ERK11llama_model9ggml_typeS3_bbjjjS3_S3_jjbbRKNSt3__18functionIFbiEEES9_, symObjAddr: 0x2E0, symBinAddr: 0x67960, symSize: 0x10 }
  - { offset: 0x3366F7, size: 0x8, addend: 0x0, symName: __ZN24llama_memory_hybrid_iswaC2ERK11llama_model9ggml_typeS3_bbjjjS3_S3_jjbbRKNSt3__18functionIFbiEEES9_, symObjAddr: 0x0, symBinAddr: 0x67680, symSize: 0x2E0 }
  - { offset: 0x337C64, size: 0x8, addend: 0x0, symName: __ZN24llama_memory_hybrid_iswa10init_batchER18llama_batch_allocrjb, symObjAddr: 0x2F0, symBinAddr: 0x67970, symSize: 0x6A0 }
  - { offset: 0x339DE1, size: 0x8, addend: 0x0, symName: __ZN32llama_memory_hybrid_iswa_contextC2EP24llama_memory_hybrid_iswaNSt3__16vectorIN14llama_kv_cache9slot_infoENS2_9allocatorIS5_EEEES8_NS3_I12llama_ubatchNS6_IS9_EEEE, symObjAddr: 0x14B0, symBinAddr: 0x689A0, symSize: 0x5B0 }
  - { offset: 0x33B9DD, size: 0x8, addend: 0x0, symName: __ZN24llama_memory_hybrid_iswa9init_fullEv, symObjAddr: 0xD80, symBinAddr: 0x68270, symSize: 0x50 }
  - { offset: 0x33BA83, size: 0x8, addend: 0x0, symName: __ZN32llama_memory_hybrid_iswa_contextC2EP24llama_memory_hybrid_iswa, symObjAddr: 0x12F0, symBinAddr: 0x687E0, symSize: 0xC0 }
  - { offset: 0x33BD6E, size: 0x8, addend: 0x0, symName: __ZN24llama_memory_hybrid_iswa11init_updateEP13llama_contextb, symObjAddr: 0xDD0, symBinAddr: 0x682C0, symSize: 0x60 }
  - { offset: 0x33BE58, size: 0x8, addend: 0x0, symName: __ZN32llama_memory_hybrid_iswa_contextC2EP24llama_memory_hybrid_iswaP13llama_contextb, symObjAddr: 0x13C0, symBinAddr: 0x688B0, symSize: 0xE0 }
  - { offset: 0x33C134, size: 0x8, addend: 0x0, symName: __ZNK24llama_memory_hybrid_iswa13get_can_shiftEv, symObjAddr: 0xE30, symBinAddr: 0x68320, symSize: 0x10 }
  - { offset: 0x33C187, size: 0x8, addend: 0x0, symName: __ZN24llama_memory_hybrid_iswa5clearEb, symObjAddr: 0xE40, symBinAddr: 0x68330, symSize: 0x30 }
  - { offset: 0x33C21B, size: 0x8, addend: 0x0, symName: __ZN24llama_memory_hybrid_iswa6seq_rmEiii, symObjAddr: 0xE70, symBinAddr: 0x68360, symSize: 0x50 }
  - { offset: 0x33C2DB, size: 0x8, addend: 0x0, symName: __ZN24llama_memory_hybrid_iswa6seq_cpEiiii, symObjAddr: 0xEC0, symBinAddr: 0x683B0, symSize: 0x50 }
  - { offset: 0x33C3B1, size: 0x8, addend: 0x0, symName: __ZN24llama_memory_hybrid_iswa8seq_keepEi, symObjAddr: 0xF10, symBinAddr: 0x68400, symSize: 0x30 }
  - { offset: 0x33C445, size: 0x8, addend: 0x0, symName: __ZN24llama_memory_hybrid_iswa7seq_addEiiii, symObjAddr: 0xF40, symBinAddr: 0x68430, symSize: 0x50 }
  - { offset: 0x33C51B, size: 0x8, addend: 0x0, symName: __ZN24llama_memory_hybrid_iswa7seq_divEiiii, symObjAddr: 0xF90, symBinAddr: 0x68480, symSize: 0x50 }
  - { offset: 0x33C5F1, size: 0x8, addend: 0x0, symName: __ZNK24llama_memory_hybrid_iswa11seq_pos_minEi, symObjAddr: 0xFE0, symBinAddr: 0x684D0, symSize: 0x40 }
  - { offset: 0x33C68C, size: 0x8, addend: 0x0, symName: __ZNK24llama_memory_hybrid_iswa11seq_pos_maxEi, symObjAddr: 0x1020, symBinAddr: 0x68510, symSize: 0x40 }
  - { offset: 0x33CCD5, size: 0x8, addend: 0x0, symName: __ZNK24llama_memory_hybrid_iswa16memory_breakdownEv, symObjAddr: 0x1060, symBinAddr: 0x68550, symSize: 0x180 }
  - { offset: 0x33D47F, size: 0x8, addend: 0x0, symName: __ZNK24llama_memory_hybrid_iswa11state_writeER16llama_io_write_iij, symObjAddr: 0x11E0, symBinAddr: 0x686D0, symSize: 0x40 }
  - { offset: 0x33D53F, size: 0x8, addend: 0x0, symName: __ZN24llama_memory_hybrid_iswa10state_readER15llama_io_read_iij, symObjAddr: 0x1220, symBinAddr: 0x68710, symSize: 0x50 }
  - { offset: 0x33D615, size: 0x8, addend: 0x0, symName: __ZNK24llama_memory_hybrid_iswa12get_mem_attnEv, symObjAddr: 0x1270, symBinAddr: 0x68760, symSize: 0x10 }
  - { offset: 0x33D669, size: 0x8, addend: 0x0, symName: __ZNK24llama_memory_hybrid_iswa12get_mem_recrEv, symObjAddr: 0x1280, symBinAddr: 0x68770, symSize: 0x10 }
  - { offset: 0x33D6A7, size: 0x8, addend: 0x0, symName: __ZN32llama_memory_hybrid_iswa_contextC2E19llama_memory_status, symObjAddr: 0x1290, symBinAddr: 0x68780, symSize: 0x30 }
  - { offset: 0x33D70A, size: 0x8, addend: 0x0, symName: __ZN32llama_memory_hybrid_iswa_contextC1E19llama_memory_status, symObjAddr: 0x12C0, symBinAddr: 0x687B0, symSize: 0x30 }
  - { offset: 0x33D885, size: 0x8, addend: 0x0, symName: __ZN32llama_memory_hybrid_iswa_contextC1EP24llama_memory_hybrid_iswa, symObjAddr: 0x13B0, symBinAddr: 0x688A0, symSize: 0x10 }
  - { offset: 0x33D8C9, size: 0x8, addend: 0x0, symName: __ZN32llama_memory_hybrid_iswa_contextC1EP24llama_memory_hybrid_iswaP13llama_contextb, symObjAddr: 0x14A0, symBinAddr: 0x68990, symSize: 0x10 }
  - { offset: 0x33DE2F, size: 0x8, addend: 0x0, symName: __ZN32llama_memory_hybrid_iswa_contextC1EP24llama_memory_hybrid_iswaNSt3__16vectorIN14llama_kv_cache9slot_infoENS2_9allocatorIS5_EEEES8_NS3_I12llama_ubatchNS6_IS9_EEEE, symObjAddr: 0x1A60, symBinAddr: 0x68F50, symSize: 0x10 }
  - { offset: 0x33DEA0, size: 0x8, addend: 0x0, symName: __ZN32llama_memory_hybrid_iswa_context4nextEv, symObjAddr: 0x1A70, symBinAddr: 0x68F60, symSize: 0x50 }
  - { offset: 0x33DF33, size: 0x8, addend: 0x0, symName: __ZN32llama_memory_hybrid_iswa_context5applyEv, symObjAddr: 0x1AC0, symBinAddr: 0x68FB0, symSize: 0x30 }
  - { offset: 0x33DFC0, size: 0x8, addend: 0x0, symName: __ZNK32llama_memory_hybrid_iswa_context10get_statusEv, symObjAddr: 0x1AF0, symBinAddr: 0x68FE0, symSize: 0x10 }
  - { offset: 0x33E00A, size: 0x8, addend: 0x0, symName: __ZNK32llama_memory_hybrid_iswa_context10get_ubatchEv, symObjAddr: 0x1B00, symBinAddr: 0x68FF0, symSize: 0x10 }
  - { offset: 0x33E067, size: 0x8, addend: 0x0, symName: __ZNK32llama_memory_hybrid_iswa_context8get_attnEv, symObjAddr: 0x1B10, symBinAddr: 0x69000, symSize: 0x10 }
  - { offset: 0x33E0AE, size: 0x8, addend: 0x0, symName: __ZNK32llama_memory_hybrid_iswa_context8get_recrEv, symObjAddr: 0x1B20, symBinAddr: 0x69010, symSize: 0x10 }
  - { offset: 0x33E198, size: 0x8, addend: 0x0, symName: __ZN24llama_memory_hybrid_iswaD1Ev, symObjAddr: 0x1B30, symBinAddr: 0x69020, symSize: 0x50 }
  - { offset: 0x33E325, size: 0x8, addend: 0x0, symName: __ZN24llama_memory_hybrid_iswaD0Ev, symObjAddr: 0x1B80, symBinAddr: 0x69070, symSize: 0x50 }
  - { offset: 0x33E4DE, size: 0x8, addend: 0x0, symName: __ZN32llama_memory_hybrid_iswa_contextD1Ev, symObjAddr: 0x1BD0, symBinAddr: 0x690C0, symSize: 0xC0 }
  - { offset: 0x33E8A7, size: 0x8, addend: 0x0, symName: __ZN32llama_memory_hybrid_iswa_contextD0Ev, symObjAddr: 0x1C90, symBinAddr: 0x69180, symSize: 0xC0 }
  - { offset: 0x33EC79, size: 0x8, addend: 0x0, symName: '__ZNSt3__110__function6__funcIZN24llama_memory_hybrid_iswaC1ERK11llama_model9ggml_typeS6_bbjjjS6_S6_jjbbRKNS_8functionIFbiEEESB_E3$_0NS_9allocatorISC_EES8_ED1Ev', symObjAddr: 0x1D50, symBinAddr: 0x69240, symSize: 0x10 }
  - { offset: 0x33ECA3, size: 0x8, addend: 0x0, symName: '__ZNSt3__110__function6__funcIZN24llama_memory_hybrid_iswaC1ERK11llama_model9ggml_typeS6_bbjjjS6_S6_jjbbRKNS_8functionIFbiEEESB_E3$_0NS_9allocatorISC_EES8_ED0Ev', symObjAddr: 0x1D60, symBinAddr: 0x69250, symSize: 0x10 }
  - { offset: 0x33EDBA, size: 0x8, addend: 0x0, symName: '__ZNKSt3__110__function6__funcIZN24llama_memory_hybrid_iswaC1ERK11llama_model9ggml_typeS6_bbjjjS6_S6_jjbbRKNS_8functionIFbiEEESB_E3$_0NS_9allocatorISC_EES8_E7__cloneEv', symObjAddr: 0x1D70, symBinAddr: 0x69260, symSize: 0x30 }
  - { offset: 0x33EFA7, size: 0x8, addend: 0x0, symName: '__ZNKSt3__110__function6__funcIZN24llama_memory_hybrid_iswaC1ERK11llama_model9ggml_typeS6_bbjjjS6_S6_jjbbRKNS_8functionIFbiEEESB_E3$_0NS_9allocatorISC_EES8_E7__cloneEPNS0_6__baseIS8_EE', symObjAddr: 0x1DA0, symBinAddr: 0x69290, symSize: 0x20 }
  - { offset: 0x33F052, size: 0x8, addend: 0x0, symName: '__ZNSt3__110__function6__funcIZN24llama_memory_hybrid_iswaC1ERK11llama_model9ggml_typeS6_bbjjjS6_S6_jjbbRKNS_8functionIFbiEEESB_E3$_0NS_9allocatorISC_EES8_E7destroyEv', symObjAddr: 0x1DC0, symBinAddr: 0x692B0, symSize: 0x10 }
  - { offset: 0x33F0A7, size: 0x8, addend: 0x0, symName: '__ZNSt3__110__function6__funcIZN24llama_memory_hybrid_iswaC1ERK11llama_model9ggml_typeS6_bbjjjS6_S6_jjbbRKNS_8functionIFbiEEESB_E3$_0NS_9allocatorISC_EES8_E18destroy_deallocateEv', symObjAddr: 0x1DD0, symBinAddr: 0x692C0, symSize: 0x10 }
  - { offset: 0x33F1D2, size: 0x8, addend: 0x0, symName: '__ZNSt3__110__function6__funcIZN24llama_memory_hybrid_iswaC1ERK11llama_model9ggml_typeS6_bbjjjS6_S6_jjbbRKNS_8functionIFbiEEESB_E3$_0NS_9allocatorISC_EES8_EclEOi', symObjAddr: 0x1DE0, symBinAddr: 0x692D0, symSize: 0x20 }
  - { offset: 0x33F2C3, size: 0x8, addend: 0x0, symName: '__ZNKSt3__110__function6__funcIZN24llama_memory_hybrid_iswaC1ERK11llama_model9ggml_typeS6_bbjjjS6_S6_jjbbRKNS_8functionIFbiEEESB_E3$_0NS_9allocatorISC_EES8_E6targetERKSt9type_info', symObjAddr: 0x1E00, symBinAddr: 0x692F0, symSize: 0x20 }
  - { offset: 0x33F333, size: 0x8, addend: 0x0, symName: '__ZNKSt3__110__function6__funcIZN24llama_memory_hybrid_iswaC1ERK11llama_model9ggml_typeS6_bbjjjS6_S6_jjbbRKNS_8functionIFbiEEESB_E3$_0NS_9allocatorISC_EES8_E11target_typeEv', symObjAddr: 0x1E20, symBinAddr: 0x69310, symSize: 0x10 }
  - { offset: 0x33F356, size: 0x8, addend: 0x0, symName: '__ZNSt3__110__function6__funcIZN24llama_memory_hybrid_iswaC1ERK11llama_model9ggml_typeS6_bbjjjS6_S6_jjbbRKNS_8functionIFbiEEESB_E3$_1NS_9allocatorISC_EES8_ED1Ev', symObjAddr: 0x1E70, symBinAddr: 0x69320, symSize: 0x10 }
  - { offset: 0x33F380, size: 0x8, addend: 0x0, symName: '__ZNSt3__110__function6__funcIZN24llama_memory_hybrid_iswaC1ERK11llama_model9ggml_typeS6_bbjjjS6_S6_jjbbRKNS_8functionIFbiEEESB_E3$_1NS_9allocatorISC_EES8_ED0Ev', symObjAddr: 0x1E80, symBinAddr: 0x69330, symSize: 0x10 }
  - { offset: 0x33F497, size: 0x8, addend: 0x0, symName: '__ZNKSt3__110__function6__funcIZN24llama_memory_hybrid_iswaC1ERK11llama_model9ggml_typeS6_bbjjjS6_S6_jjbbRKNS_8functionIFbiEEESB_E3$_1NS_9allocatorISC_EES8_E7__cloneEv', symObjAddr: 0x1E90, symBinAddr: 0x69340, symSize: 0x30 }
  - { offset: 0x33F684, size: 0x8, addend: 0x0, symName: '__ZNKSt3__110__function6__funcIZN24llama_memory_hybrid_iswaC1ERK11llama_model9ggml_typeS6_bbjjjS6_S6_jjbbRKNS_8functionIFbiEEESB_E3$_1NS_9allocatorISC_EES8_E7__cloneEPNS0_6__baseIS8_EE', symObjAddr: 0x1EC0, symBinAddr: 0x69370, symSize: 0x20 }
  - { offset: 0x33F72F, size: 0x8, addend: 0x0, symName: '__ZNSt3__110__function6__funcIZN24llama_memory_hybrid_iswaC1ERK11llama_model9ggml_typeS6_bbjjjS6_S6_jjbbRKNS_8functionIFbiEEESB_E3$_1NS_9allocatorISC_EES8_E7destroyEv', symObjAddr: 0x1EE0, symBinAddr: 0x69390, symSize: 0x10 }
  - { offset: 0x33F784, size: 0x8, addend: 0x0, symName: '__ZNSt3__110__function6__funcIZN24llama_memory_hybrid_iswaC1ERK11llama_model9ggml_typeS6_bbjjjS6_S6_jjbbRKNS_8functionIFbiEEESB_E3$_1NS_9allocatorISC_EES8_E18destroy_deallocateEv', symObjAddr: 0x1EF0, symBinAddr: 0x693A0, symSize: 0x10 }
  - { offset: 0x33F8AF, size: 0x8, addend: 0x0, symName: '__ZNSt3__110__function6__funcIZN24llama_memory_hybrid_iswaC1ERK11llama_model9ggml_typeS6_bbjjjS6_S6_jjbbRKNS_8functionIFbiEEESB_E3$_1NS_9allocatorISC_EES8_EclEOi', symObjAddr: 0x1F00, symBinAddr: 0x693B0, symSize: 0x20 }
  - { offset: 0x33F958, size: 0x8, addend: 0x0, symName: '__ZNKSt3__110__function6__funcIZN24llama_memory_hybrid_iswaC1ERK11llama_model9ggml_typeS6_bbjjjS6_S6_jjbbRKNS_8functionIFbiEEESB_E3$_1NS_9allocatorISC_EES8_E6targetERKSt9type_info', symObjAddr: 0x1F20, symBinAddr: 0x693D0, symSize: 0x20 }
  - { offset: 0x33F9C8, size: 0x8, addend: 0x0, symName: '__ZNKSt3__110__function6__funcIZN24llama_memory_hybrid_iswaC1ERK11llama_model9ggml_typeS6_bbjjjS6_S6_jjbbRKNS_8functionIFbiEEESB_E3$_1NS_9allocatorISC_EES8_E11target_typeEv', symObjAddr: 0x1F40, symBinAddr: 0x693F0, symSize: 0x10 }
  - { offset: 0x341BBD, size: 0x8, addend: 0x0, symName: __ZN19llama_memory_hybridC2ERK11llama_model9ggml_typeS3_bjjj14llama_swa_typeS3_S3_jjbbRKNSt3__18functionIFbiEEESA_, symObjAddr: 0x0, symBinAddr: 0x69400, symSize: 0x2E0 }
  - { offset: 0x36D38A, size: 0x8, addend: 0x0, symName: __ZNSt3__111make_uniqueB8ne200100I27llama_memory_hybrid_contextJP19llama_memory_hybridNS_6vectorIN14llama_kv_cache9slot_infoENS_9allocatorIS6_EEEENS4_I12llama_ubatchNS7_ISA_EEEEELi0EEENS_10unique_ptrIT_NS_14default_deleteISE_EEEEDpOT0_, symObjAddr: 0x9F0, symBinAddr: 0x69DB0, symSize: 0x1A0 }
  - { offset: 0x377697, size: 0x8, addend: 0x0, symName: __ZN19llama_memory_hybridC1ERK11llama_model9ggml_typeS3_bjjj14llama_swa_typeS3_S3_jjbbRKNSt3__18functionIFbiEEESA_, symObjAddr: 0x2E0, symBinAddr: 0x696E0, symSize: 0x10 }
  - { offset: 0x37836B, size: 0x8, addend: 0x0, symName: __ZN19llama_memory_hybridC2ERK11llama_model9ggml_typeS3_bjjj14llama_swa_typeS3_S3_jjbbRKNSt3__18functionIFbiEEESA_, symObjAddr: 0x0, symBinAddr: 0x69400, symSize: 0x2E0 }
  - { offset: 0x3798D8, size: 0x8, addend: 0x0, symName: __ZN19llama_memory_hybrid10init_batchER18llama_batch_allocrjb, symObjAddr: 0x2F0, symBinAddr: 0x696F0, symSize: 0x6C0 }
  - { offset: 0x37B5BD, size: 0x8, addend: 0x0, symName: __ZN27llama_memory_hybrid_contextC2EP19llama_memory_hybridNSt3__16vectorIN14llama_kv_cache9slot_infoENS2_9allocatorIS5_EEEENS3_I12llama_ubatchNS6_IS9_EEEE, symObjAddr: 0x1420, symBinAddr: 0x6A690, symSize: 0x4D0 }
  - { offset: 0x37CBE5, size: 0x8, addend: 0x0, symName: __ZN19llama_memory_hybrid9init_fullEv, symObjAddr: 0xCE0, symBinAddr: 0x69F50, symSize: 0x50 }
  - { offset: 0x37CC8B, size: 0x8, addend: 0x0, symName: __ZN27llama_memory_hybrid_contextC2EP19llama_memory_hybrid, symObjAddr: 0x1260, symBinAddr: 0x6A4D0, symSize: 0xC0 }
  - { offset: 0x37CF76, size: 0x8, addend: 0x0, symName: __ZN19llama_memory_hybrid11init_updateEP13llama_contextb, symObjAddr: 0xD30, symBinAddr: 0x69FA0, symSize: 0x60 }
  - { offset: 0x37D060, size: 0x8, addend: 0x0, symName: __ZN27llama_memory_hybrid_contextC2EP19llama_memory_hybridP13llama_contextb, symObjAddr: 0x1330, symBinAddr: 0x6A5A0, symSize: 0xE0 }
  - { offset: 0x37D33C, size: 0x8, addend: 0x0, symName: __ZNK19llama_memory_hybrid13get_can_shiftEv, symObjAddr: 0xD90, symBinAddr: 0x6A000, symSize: 0x10 }
  - { offset: 0x37D38F, size: 0x8, addend: 0x0, symName: __ZN19llama_memory_hybrid5clearEb, symObjAddr: 0xDA0, symBinAddr: 0x6A010, symSize: 0x30 }
  - { offset: 0x37D423, size: 0x8, addend: 0x0, symName: __ZN19llama_memory_hybrid6seq_rmEiii, symObjAddr: 0xDD0, symBinAddr: 0x6A040, symSize: 0x50 }
  - { offset: 0x37D4E3, size: 0x8, addend: 0x0, symName: __ZN19llama_memory_hybrid6seq_cpEiiii, symObjAddr: 0xE20, symBinAddr: 0x6A090, symSize: 0x50 }
  - { offset: 0x37D5B9, size: 0x8, addend: 0x0, symName: __ZN19llama_memory_hybrid8seq_keepEi, symObjAddr: 0xE70, symBinAddr: 0x6A0E0, symSize: 0x30 }
  - { offset: 0x37D64D, size: 0x8, addend: 0x0, symName: __ZN19llama_memory_hybrid7seq_addEiiii, symObjAddr: 0xEA0, symBinAddr: 0x6A110, symSize: 0x50 }
  - { offset: 0x37D723, size: 0x8, addend: 0x0, symName: __ZN19llama_memory_hybrid7seq_divEiiii, symObjAddr: 0xEF0, symBinAddr: 0x6A160, symSize: 0x50 }
  - { offset: 0x37D7F9, size: 0x8, addend: 0x0, symName: __ZNK19llama_memory_hybrid11seq_pos_minEi, symObjAddr: 0xF40, symBinAddr: 0x6A1B0, symSize: 0x40 }
  - { offset: 0x37D894, size: 0x8, addend: 0x0, symName: __ZNK19llama_memory_hybrid11seq_pos_maxEi, symObjAddr: 0xF80, symBinAddr: 0x6A1F0, symSize: 0x40 }
  - { offset: 0x37DEDD, size: 0x8, addend: 0x0, symName: __ZNK19llama_memory_hybrid16memory_breakdownEv, symObjAddr: 0xFC0, symBinAddr: 0x6A230, symSize: 0x180 }
  - { offset: 0x37E687, size: 0x8, addend: 0x0, symName: __ZNK19llama_memory_hybrid11state_writeER16llama_io_write_iij, symObjAddr: 0x1140, symBinAddr: 0x6A3B0, symSize: 0x50 }
  - { offset: 0x37E731, size: 0x8, addend: 0x0, symName: __ZN19llama_memory_hybrid10state_readER15llama_io_read_iij, symObjAddr: 0x1190, symBinAddr: 0x6A400, symSize: 0x50 }
  - { offset: 0x37E7F1, size: 0x8, addend: 0x0, symName: __ZNK19llama_memory_hybrid12get_mem_attnEv, symObjAddr: 0x11E0, symBinAddr: 0x6A450, symSize: 0x10 }
  - { offset: 0x37E845, size: 0x8, addend: 0x0, symName: __ZNK19llama_memory_hybrid12get_mem_recrEv, symObjAddr: 0x11F0, symBinAddr: 0x6A460, symSize: 0x10 }
  - { offset: 0x37E883, size: 0x8, addend: 0x0, symName: __ZN27llama_memory_hybrid_contextC2E19llama_memory_status, symObjAddr: 0x1200, symBinAddr: 0x6A470, symSize: 0x30 }
  - { offset: 0x37E8E6, size: 0x8, addend: 0x0, symName: __ZN27llama_memory_hybrid_contextC1E19llama_memory_status, symObjAddr: 0x1230, symBinAddr: 0x6A4A0, symSize: 0x30 }
  - { offset: 0x37EA61, size: 0x8, addend: 0x0, symName: __ZN27llama_memory_hybrid_contextC1EP19llama_memory_hybrid, symObjAddr: 0x1320, symBinAddr: 0x6A590, symSize: 0x10 }
  - { offset: 0x37EAA5, size: 0x8, addend: 0x0, symName: __ZN27llama_memory_hybrid_contextC1EP19llama_memory_hybridP13llama_contextb, symObjAddr: 0x1410, symBinAddr: 0x6A680, symSize: 0x10 }
  - { offset: 0x37F00B, size: 0x8, addend: 0x0, symName: __ZN27llama_memory_hybrid_contextC1EP19llama_memory_hybridNSt3__16vectorIN14llama_kv_cache9slot_infoENS2_9allocatorIS5_EEEENS3_I12llama_ubatchNS6_IS9_EEEE, symObjAddr: 0x18F0, symBinAddr: 0x6AB60, symSize: 0x10 }
  - { offset: 0x37F06D, size: 0x8, addend: 0x0, symName: __ZN27llama_memory_hybrid_context4nextEv, symObjAddr: 0x1900, symBinAddr: 0x6AB70, symSize: 0x50 }
  - { offset: 0x37F100, size: 0x8, addend: 0x0, symName: __ZN27llama_memory_hybrid_context5applyEv, symObjAddr: 0x1950, symBinAddr: 0x6ABC0, symSize: 0x30 }
  - { offset: 0x37F18D, size: 0x8, addend: 0x0, symName: __ZNK27llama_memory_hybrid_context10get_statusEv, symObjAddr: 0x1980, symBinAddr: 0x6ABF0, symSize: 0x10 }
  - { offset: 0x37F1D6, size: 0x8, addend: 0x0, symName: __ZNK27llama_memory_hybrid_context10get_ubatchEv, symObjAddr: 0x1990, symBinAddr: 0x6AC00, symSize: 0x10 }
  - { offset: 0x37F233, size: 0x8, addend: 0x0, symName: __ZNK27llama_memory_hybrid_context8get_attnEv, symObjAddr: 0x19A0, symBinAddr: 0x6AC10, symSize: 0x10 }
  - { offset: 0x37F27A, size: 0x8, addend: 0x0, symName: __ZNK27llama_memory_hybrid_context8get_recrEv, symObjAddr: 0x19B0, symBinAddr: 0x6AC20, symSize: 0x10 }
  - { offset: 0x37F364, size: 0x8, addend: 0x0, symName: __ZN19llama_memory_hybridD1Ev, symObjAddr: 0x19C0, symBinAddr: 0x6AC30, symSize: 0x50 }
  - { offset: 0x37F4F1, size: 0x8, addend: 0x0, symName: __ZN19llama_memory_hybridD0Ev, symObjAddr: 0x1A10, symBinAddr: 0x6AC80, symSize: 0x50 }
  - { offset: 0x37F6AA, size: 0x8, addend: 0x0, symName: __ZN27llama_memory_hybrid_contextD1Ev, symObjAddr: 0x1A60, symBinAddr: 0x6ACD0, symSize: 0xC0 }
  - { offset: 0x37FA73, size: 0x8, addend: 0x0, symName: __ZN27llama_memory_hybrid_contextD0Ev, symObjAddr: 0x1B20, symBinAddr: 0x6AD90, symSize: 0xC0 }
  - { offset: 0x37FE45, size: 0x8, addend: 0x0, symName: '__ZNSt3__110__function6__funcIZN19llama_memory_hybridC1ERK11llama_model9ggml_typeS6_bjjj14llama_swa_typeS6_S6_jjbbRKNS_8functionIFbiEEESC_E3$_0NS_9allocatorISD_EES9_ED1Ev', symObjAddr: 0x1BE0, symBinAddr: 0x6AE50, symSize: 0x10 }
  - { offset: 0x37FE6F, size: 0x8, addend: 0x0, symName: '__ZNSt3__110__function6__funcIZN19llama_memory_hybridC1ERK11llama_model9ggml_typeS6_bjjj14llama_swa_typeS6_S6_jjbbRKNS_8functionIFbiEEESC_E3$_0NS_9allocatorISD_EES9_ED0Ev', symObjAddr: 0x1BF0, symBinAddr: 0x6AE60, symSize: 0x10 }
  - { offset: 0x37FF86, size: 0x8, addend: 0x0, symName: '__ZNKSt3__110__function6__funcIZN19llama_memory_hybridC1ERK11llama_model9ggml_typeS6_bjjj14llama_swa_typeS6_S6_jjbbRKNS_8functionIFbiEEESC_E3$_0NS_9allocatorISD_EES9_E7__cloneEv', symObjAddr: 0x1C00, symBinAddr: 0x6AE70, symSize: 0x30 }
  - { offset: 0x380173, size: 0x8, addend: 0x0, symName: '__ZNKSt3__110__function6__funcIZN19llama_memory_hybridC1ERK11llama_model9ggml_typeS6_bjjj14llama_swa_typeS6_S6_jjbbRKNS_8functionIFbiEEESC_E3$_0NS_9allocatorISD_EES9_E7__cloneEPNS0_6__baseIS9_EE', symObjAddr: 0x1C30, symBinAddr: 0x6AEA0, symSize: 0x20 }
  - { offset: 0x38021E, size: 0x8, addend: 0x0, symName: '__ZNSt3__110__function6__funcIZN19llama_memory_hybridC1ERK11llama_model9ggml_typeS6_bjjj14llama_swa_typeS6_S6_jjbbRKNS_8functionIFbiEEESC_E3$_0NS_9allocatorISD_EES9_E7destroyEv', symObjAddr: 0x1C50, symBinAddr: 0x6AEC0, symSize: 0x10 }
  - { offset: 0x380273, size: 0x8, addend: 0x0, symName: '__ZNSt3__110__function6__funcIZN19llama_memory_hybridC1ERK11llama_model9ggml_typeS6_bjjj14llama_swa_typeS6_S6_jjbbRKNS_8functionIFbiEEESC_E3$_0NS_9allocatorISD_EES9_E18destroy_deallocateEv', symObjAddr: 0x1C60, symBinAddr: 0x6AED0, symSize: 0x10 }
  - { offset: 0x38039E, size: 0x8, addend: 0x0, symName: '__ZNSt3__110__function6__funcIZN19llama_memory_hybridC1ERK11llama_model9ggml_typeS6_bjjj14llama_swa_typeS6_S6_jjbbRKNS_8functionIFbiEEESC_E3$_0NS_9allocatorISD_EES9_EclEOi', symObjAddr: 0x1C70, symBinAddr: 0x6AEE0, symSize: 0x20 }
  - { offset: 0x38048F, size: 0x8, addend: 0x0, symName: '__ZNKSt3__110__function6__funcIZN19llama_memory_hybridC1ERK11llama_model9ggml_typeS6_bjjj14llama_swa_typeS6_S6_jjbbRKNS_8functionIFbiEEESC_E3$_0NS_9allocatorISD_EES9_E6targetERKSt9type_info', symObjAddr: 0x1C90, symBinAddr: 0x6AF00, symSize: 0x20 }
  - { offset: 0x3804FF, size: 0x8, addend: 0x0, symName: '__ZNKSt3__110__function6__funcIZN19llama_memory_hybridC1ERK11llama_model9ggml_typeS6_bjjj14llama_swa_typeS6_S6_jjbbRKNS_8functionIFbiEEESC_E3$_0NS_9allocatorISD_EES9_E11target_typeEv', symObjAddr: 0x1CB0, symBinAddr: 0x6AF20, symSize: 0x10 }
  - { offset: 0x380522, size: 0x8, addend: 0x0, symName: '__ZNSt3__110__function6__funcIZN19llama_memory_hybridC1ERK11llama_model9ggml_typeS6_bjjj14llama_swa_typeS6_S6_jjbbRKNS_8functionIFbiEEESC_E3$_1NS_9allocatorISD_EES9_ED1Ev', symObjAddr: 0x1D00, symBinAddr: 0x6AF30, symSize: 0x10 }
  - { offset: 0x38054C, size: 0x8, addend: 0x0, symName: '__ZNSt3__110__function6__funcIZN19llama_memory_hybridC1ERK11llama_model9ggml_typeS6_bjjj14llama_swa_typeS6_S6_jjbbRKNS_8functionIFbiEEESC_E3$_1NS_9allocatorISD_EES9_ED0Ev', symObjAddr: 0x1D10, symBinAddr: 0x6AF40, symSize: 0x10 }
  - { offset: 0x380663, size: 0x8, addend: 0x0, symName: '__ZNKSt3__110__function6__funcIZN19llama_memory_hybridC1ERK11llama_model9ggml_typeS6_bjjj14llama_swa_typeS6_S6_jjbbRKNS_8functionIFbiEEESC_E3$_1NS_9allocatorISD_EES9_E7__cloneEv', symObjAddr: 0x1D20, symBinAddr: 0x6AF50, symSize: 0x30 }
  - { offset: 0x380850, size: 0x8, addend: 0x0, symName: '__ZNKSt3__110__function6__funcIZN19llama_memory_hybridC1ERK11llama_model9ggml_typeS6_bjjj14llama_swa_typeS6_S6_jjbbRKNS_8functionIFbiEEESC_E3$_1NS_9allocatorISD_EES9_E7__cloneEPNS0_6__baseIS9_EE', symObjAddr: 0x1D50, symBinAddr: 0x6AF80, symSize: 0x20 }
  - { offset: 0x3808FB, size: 0x8, addend: 0x0, symName: '__ZNSt3__110__function6__funcIZN19llama_memory_hybridC1ERK11llama_model9ggml_typeS6_bjjj14llama_swa_typeS6_S6_jjbbRKNS_8functionIFbiEEESC_E3$_1NS_9allocatorISD_EES9_E7destroyEv', symObjAddr: 0x1D70, symBinAddr: 0x6AFA0, symSize: 0x10 }
  - { offset: 0x380950, size: 0x8, addend: 0x0, symName: '__ZNSt3__110__function6__funcIZN19llama_memory_hybridC1ERK11llama_model9ggml_typeS6_bjjj14llama_swa_typeS6_S6_jjbbRKNS_8functionIFbiEEESC_E3$_1NS_9allocatorISD_EES9_E18destroy_deallocateEv', symObjAddr: 0x1D80, symBinAddr: 0x6AFB0, symSize: 0x10 }
  - { offset: 0x380A7B, size: 0x8, addend: 0x0, symName: '__ZNSt3__110__function6__funcIZN19llama_memory_hybridC1ERK11llama_model9ggml_typeS6_bjjj14llama_swa_typeS6_S6_jjbbRKNS_8functionIFbiEEESC_E3$_1NS_9allocatorISD_EES9_EclEOi', symObjAddr: 0x1D90, symBinAddr: 0x6AFC0, symSize: 0x20 }
  - { offset: 0x380B24, size: 0x8, addend: 0x0, symName: '__ZNKSt3__110__function6__funcIZN19llama_memory_hybridC1ERK11llama_model9ggml_typeS6_bjjj14llama_swa_typeS6_S6_jjbbRKNS_8functionIFbiEEESC_E3$_1NS_9allocatorISD_EES9_E6targetERKSt9type_info', symObjAddr: 0x1DB0, symBinAddr: 0x6AFE0, symSize: 0x20 }
  - { offset: 0x380B94, size: 0x8, addend: 0x0, symName: '__ZNKSt3__110__function6__funcIZN19llama_memory_hybridC1ERK11llama_model9ggml_typeS6_bjjj14llama_swa_typeS6_S6_jjbbRKNS_8functionIFbiEEESC_E3$_1NS_9allocatorISD_EES9_E11target_typeEv', symObjAddr: 0x1DD0, symBinAddr: 0x6B000, symSize: 0x10 }
  - { offset: 0x3AB93A, size: 0x8, addend: 0x0, symName: __ZN22llama_memory_recurrentC2ERK11llama_model9ggml_typeS3_bjjRKNSt3__18functionIFbiEEE, symObjAddr: 0x0, symBinAddr: 0x6B010, symSize: 0x910 }
  - { offset: 0x3AE7BB, size: 0x8, addend: 0x0, symName: __ZNSt3__16vectorIN22llama_memory_recurrent8mem_cellENS_9allocatorIS2_EEE8__appendEm, symObjAddr: 0x4850, symBinAddr: 0x6F2F0, symSize: 0x240 }
  - { offset: 0x3AEFA3, size: 0x8, addend: 0x0, symName: __ZNSt3__16vectorIP11ggml_tensorNS_9allocatorIS2_EEE8__appendEm, symObjAddr: 0x4BC0, symBinAddr: 0x6F5E0, symSize: 0x150 }
  - { offset: 0x3AF506, size: 0x8, addend: 0x0, symName: __ZNSt3__16__treeINS_12__value_typeIP24ggml_backend_buffer_typeNS_10unique_ptrI12ggml_context20ggml_context_deleterEEEENS_19__map_value_compareIS3_S8_ZN22llama_memory_recurrentC1ERK11llama_model9ggml_typeSE_bjjRKNS_8functionIFbiEEEE28ggml_backend_buft_comparatorLb1EEENS_9allocatorIS8_EEE7destroyEPNS_11__tree_nodeIS8_PvEE, symObjAddr: 0x4B60, symBinAddr: 0x6F580, symSize: 0x60 }
  - { offset: 0x3AF8D0, size: 0x8, addend: 0x0, symName: __ZNSt3__16vectorIN22llama_memory_recurrent8mem_cellENS_9allocatorIS2_EEED1B8ne200100Ev, symObjAddr: 0xA50, symBinAddr: 0x6B9C0, symSize: 0x70 }
  - { offset: 0x3AFB0E, size: 0x8, addend: 0x0, symName: __ZNK22llama_memory_recurrent12size_r_bytesEv, symObjAddr: 0x910, symBinAddr: 0x6B920, symSize: 0x50 }
  - { offset: 0x3AFC05, size: 0x8, addend: 0x0, symName: __ZNK22llama_memory_recurrent12size_s_bytesEv, symObjAddr: 0x960, symBinAddr: 0x6B970, symSize: 0x50 }
  - { offset: 0x3B01C1, size: 0x8, addend: 0x0, symName: __ZN22llama_memory_recurrentC1ERK11llama_model9ggml_typeS3_bjjRKNSt3__18functionIFbiEEE, symObjAddr: 0xAC0, symBinAddr: 0x6BA30, symSize: 0x10 }
  - { offset: 0x3B0348, size: 0x8, addend: 0x0, symName: __ZN22llama_memory_recurrent5clearEb, symObjAddr: 0xAD0, symBinAddr: 0x6BA40, symSize: 0xE0 }
  - { offset: 0x3B086C, size: 0x8, addend: 0x0, symName: __ZN22llama_memory_recurrent6seq_rmEiii, symObjAddr: 0xBB0, symBinAddr: 0x6BB20, symSize: 0x300 }
  - { offset: 0x3B10BC, size: 0x8, addend: 0x0, symName: __ZN22llama_memory_recurrent6seq_cpEiiii, symObjAddr: 0xEB0, symBinAddr: 0x6BE20, symSize: 0x1E0 }
  - { offset: 0x3B16E8, size: 0x8, addend: 0x0, symName: __ZN22llama_memory_recurrent8seq_keepEi, symObjAddr: 0x1090, symBinAddr: 0x6C000, symSize: 0x1D0 }
  - { offset: 0x3B1BAE, size: 0x8, addend: 0x0, symName: __ZN22llama_memory_recurrent7seq_addEiiii, symObjAddr: 0x1260, symBinAddr: 0x6C1D0, symSize: 0xB0 }
  - { offset: 0x3B1DB8, size: 0x8, addend: 0x0, symName: __ZN22llama_memory_recurrent7seq_divEiiii, symObjAddr: 0x1310, symBinAddr: 0x6C280, symSize: 0xB0 }
  - { offset: 0x3B202D, size: 0x8, addend: 0x0, symName: __ZNK22llama_memory_recurrent11seq_pos_minEi, symObjAddr: 0x13C0, symBinAddr: 0x6C330, symSize: 0x90 }
  - { offset: 0x3B222B, size: 0x8, addend: 0x0, symName: __ZNK22llama_memory_recurrent11seq_pos_maxEi, symObjAddr: 0x1450, symBinAddr: 0x6C3C0, symSize: 0x90 }
  - { offset: 0x3B29F7, size: 0x8, addend: 0x0, symName: __ZNK22llama_memory_recurrent16memory_breakdownEv, symObjAddr: 0x14E0, symBinAddr: 0x6C450, symSize: 0x150 }
  - { offset: 0x3B366A, size: 0x8, addend: 0x0, symName: __ZN22llama_memory_recurrent10init_batchER18llama_batch_allocrjb, symObjAddr: 0x1630, symBinAddr: 0x6C5A0, symSize: 0x540 }
  - { offset: 0x3B4648, size: 0x8, addend: 0x0, symName: __ZN22llama_memory_recurrent7prepareERKNSt3__16vectorI12llama_ubatchNS0_9allocatorIS2_EEEE, symObjAddr: 0x1BB0, symBinAddr: 0x6CAE0, symSize: 0x140 }
  - { offset: 0x3B4D1B, size: 0x8, addend: 0x0, symName: __ZNSt3__16vectorIN22llama_memory_recurrent8mem_cellENS_9allocatorIS2_EEE16__init_with_sizeB8ne200100IPS2_S7_EEvT_T0_m, symObjAddr: 0x5330, symBinAddr: 0x6F730, symSize: 0x150 }
  - { offset: 0x3B52E4, size: 0x8, addend: 0x0, symName: __ZN22llama_memory_recurrent9find_slotERK12llama_ubatch, symObjAddr: 0x1E10, symBinAddr: 0x6CCB0, symSize: 0xC10 }
  - { offset: 0x3B6E61, size: 0x8, addend: 0x0, symName: __ZN22llama_memory_recurrent9init_fullEv, symObjAddr: 0x1D80, symBinAddr: 0x6CC20, symSize: 0x50 }
  - { offset: 0x3B6F5F, size: 0x8, addend: 0x0, symName: __ZN22llama_memory_recurrent11init_updateEP13llama_contextb, symObjAddr: 0x1DD0, symBinAddr: 0x6CC70, symSize: 0x40 }
  - { offset: 0x3B7425, size: 0x8, addend: 0x0, symName: __ZNK22llama_memory_recurrent13get_can_shiftEv, symObjAddr: 0x2A20, symBinAddr: 0x6D8C0, symSize: 0x10 }
  - { offset: 0x3B744B, size: 0x8, addend: 0x0, symName: __ZNK22llama_memory_recurrent10total_sizeEv, symObjAddr: 0x2A30, symBinAddr: 0x6D8D0, symSize: 0x50 }
  - { offset: 0x3B7CC4, size: 0x8, addend: 0x0, symName: __ZNK22llama_memory_recurrent11state_writeER16llama_io_write_iij, symObjAddr: 0x2A80, symBinAddr: 0x6D920, symSize: 0x4C0 }
  - { offset: 0x3B8AE9, size: 0x8, addend: 0x0, symName: __ZNK22llama_memory_recurrent16state_write_metaER16llama_io_write_iRKNSt3__16vectorINS2_4pairIjjEENS2_9allocatorIS5_EEEEi, symObjAddr: 0x2F40, symBinAddr: 0x6DDE0, symSize: 0x130 }
  - { offset: 0x3B8E6D, size: 0x8, addend: 0x0, symName: __ZNK22llama_memory_recurrent16state_write_dataER16llama_io_write_iRKNSt3__16vectorINS2_4pairIjjEENS2_9allocatorIS5_EEEE, symObjAddr: 0x3070, symBinAddr: 0x6DF10, symSize: 0x230 }
  - { offset: 0x3B9465, size: 0x8, addend: 0x0, symName: __ZN22llama_memory_recurrent10state_readER15llama_io_read_iij, symObjAddr: 0x32A0, symBinAddr: 0x6E140, symSize: 0xC0 }
  - { offset: 0x3B9564, size: 0x8, addend: 0x0, symName: __ZN22llama_memory_recurrent15state_read_metaER15llama_io_read_iji, symObjAddr: 0x3360, symBinAddr: 0x6E200, symSize: 0x5F0 }
  - { offset: 0x3B9F7B, size: 0x8, addend: 0x0, symName: __ZN22llama_memory_recurrent15state_read_dataER15llama_io_read_ij, symObjAddr: 0x3950, symBinAddr: 0x6E7F0, symSize: 0x550 }
  - { offset: 0x3BB0BF, size: 0x8, addend: 0x0, symName: __ZN30llama_memory_recurrent_contextC2E19llama_memory_status, symObjAddr: 0x3EA0, symBinAddr: 0x6ED40, symSize: 0x30 }
  - { offset: 0x3BB123, size: 0x8, addend: 0x0, symName: __ZN30llama_memory_recurrent_contextC1E19llama_memory_status, symObjAddr: 0x3ED0, symBinAddr: 0x6ED70, symSize: 0x30 }
  - { offset: 0x3BB1AB, size: 0x8, addend: 0x0, symName: __ZN30llama_memory_recurrent_contextC2EP22llama_memory_recurrent, symObjAddr: 0x3F00, symBinAddr: 0x6EDA0, symSize: 0x30 }
  - { offset: 0x3BB20F, size: 0x8, addend: 0x0, symName: __ZN30llama_memory_recurrent_contextC1EP22llama_memory_recurrent, symObjAddr: 0x3F30, symBinAddr: 0x6EDD0, symSize: 0x30 }
  - { offset: 0x3BB297, size: 0x8, addend: 0x0, symName: __ZN30llama_memory_recurrent_contextC2EP22llama_memory_recurrentNSt3__16vectorI12llama_ubatchNS2_9allocatorIS4_EEEE, symObjAddr: 0x3F60, symBinAddr: 0x6EE00, symSize: 0x50 }
  - { offset: 0x3BB312, size: 0x8, addend: 0x0, symName: __ZN30llama_memory_recurrent_contextC1EP22llama_memory_recurrentNSt3__16vectorI12llama_ubatchNS2_9allocatorIS4_EEEE, symObjAddr: 0x3FB0, symBinAddr: 0x6EE50, symSize: 0x50 }
  - { offset: 0x3BB3B9, size: 0x8, addend: 0x0, symName: __ZN30llama_memory_recurrent_contextD2Ev, symObjAddr: 0x4000, symBinAddr: 0x6EEA0, symSize: 0x90 }
  - { offset: 0x3BB62C, size: 0x8, addend: 0x0, symName: __ZN30llama_memory_recurrent_contextD1Ev, symObjAddr: 0x4090, symBinAddr: 0x6EF30, symSize: 0x90 }
  - { offset: 0x3BB8BE, size: 0x8, addend: 0x0, symName: __ZN30llama_memory_recurrent_contextD0Ev, symObjAddr: 0x4120, symBinAddr: 0x6EFC0, symSize: 0x90 }
  - { offset: 0x3BBB5A, size: 0x8, addend: 0x0, symName: __ZN30llama_memory_recurrent_context4nextEv, symObjAddr: 0x41B0, symBinAddr: 0x6F050, symSize: 0x40 }
  - { offset: 0x3BBBD1, size: 0x8, addend: 0x0, symName: __ZN30llama_memory_recurrent_context5applyEv, symObjAddr: 0x41F0, symBinAddr: 0x6F090, symSize: 0x30 }
  - { offset: 0x3BBBFD, size: 0x8, addend: 0x0, symName: __ZN30llama_memory_recurrent_context5applyEv, symObjAddr: 0x41F0, symBinAddr: 0x6F090, symSize: 0x30 }
  - { offset: 0x3BBC47, size: 0x8, addend: 0x0, symName: __ZNK30llama_memory_recurrent_context10get_statusEv, symObjAddr: 0x4220, symBinAddr: 0x6F0C0, symSize: 0x10 }
  - { offset: 0x3BBC91, size: 0x8, addend: 0x0, symName: __ZNK30llama_memory_recurrent_context10get_ubatchEv, symObjAddr: 0x4230, symBinAddr: 0x6F0D0, symSize: 0x10 }
  - { offset: 0x3BBCD8, size: 0x8, addend: 0x0, symName: __ZNK30llama_memory_recurrent_context8get_n_rsEv, symObjAddr: 0x4240, symBinAddr: 0x6F0E0, symSize: 0x20 }
  - { offset: 0x3BBD00, size: 0x8, addend: 0x0, symName: __ZNK30llama_memory_recurrent_context8get_headEv, symObjAddr: 0x4260, symBinAddr: 0x6F100, symSize: 0x20 }
  - { offset: 0x3BBD28, size: 0x8, addend: 0x0, symName: __ZNK30llama_memory_recurrent_context8get_rs_zEv, symObjAddr: 0x4280, symBinAddr: 0x6F120, symSize: 0x20 }
  - { offset: 0x3BBD50, size: 0x8, addend: 0x0, symName: __ZNK30llama_memory_recurrent_context8get_sizeEv, symObjAddr: 0x42A0, symBinAddr: 0x6F140, symSize: 0x10 }
  - { offset: 0x3BBD78, size: 0x8, addend: 0x0, symName: __ZNK30llama_memory_recurrent_context7get_r_lEi, symObjAddr: 0x42B0, symBinAddr: 0x6F150, symSize: 0x20 }
  - { offset: 0x3BBDD5, size: 0x8, addend: 0x0, symName: __ZNK30llama_memory_recurrent_context7get_s_lEi, symObjAddr: 0x42D0, symBinAddr: 0x6F170, symSize: 0x20 }
  - { offset: 0x3BBE33, size: 0x8, addend: 0x0, symName: __ZNK30llama_memory_recurrent_context6s_copyEi, symObjAddr: 0x42F0, symBinAddr: 0x6F190, symSize: 0x20 }
  - { offset: 0x3BBE91, size: 0x8, addend: 0x0, symName: __ZN22llama_memory_recurrentD1Ev, symObjAddr: 0x4310, symBinAddr: 0x6F1B0, symSize: 0x10 }
  - { offset: 0x3BBEC7, size: 0x8, addend: 0x0, symName: __ZN22llama_memory_recurrentD2Ev, symObjAddr: 0x4740, symBinAddr: 0x6F1E0, symSize: 0x110 }
  - { offset: 0x3BC633, size: 0x8, addend: 0x0, symName: __ZN22llama_memory_recurrentD0Ev, symObjAddr: 0x4320, symBinAddr: 0x6F1C0, symSize: 0x20 }
  - { offset: 0x3BD58E, size: 0x8, addend: 0x0, symName: __ZNSt3__16vectorIN22llama_memory_recurrent8mem_cellENS_9allocatorIS2_EEE20__throw_length_errorB8ne200100Ev, symObjAddr: 0x4A90, symBinAddr: 0x6F530, symSize: 0x10 }
  - { offset: 0x3BD6A8, size: 0x8, addend: 0x0, symName: __ZNSt3__128__exception_guard_exceptionsINS_29_AllocatorDestroyRangeReverseINS_9allocatorIN22llama_memory_recurrent8mem_cellEEEPS4_EEED1B8ne200100Ev, symObjAddr: 0x4B20, symBinAddr: 0x6F540, symSize: 0x40 }
  - { offset: 0x3BD6D5, size: 0x8, addend: 0x0, symName: __ZNSt3__128__exception_guard_exceptionsINS_29_AllocatorDestroyRangeReverseINS_9allocatorIN22llama_memory_recurrent8mem_cellEEEPS4_EEED1B8ne200100Ev, symObjAddr: 0x4B20, symBinAddr: 0x6F540, symSize: 0x40 }
  - { offset: 0x3BDDFE, size: 0x8, addend: 0x0, symName: __ZNSt3__16vectorIN22llama_memory_recurrent8mem_cellENS_9allocatorIS2_EEE16__init_with_sizeB8ne200100IPS2_S7_EEvT_T0_m, symObjAddr: 0x5330, symBinAddr: 0x6F730, symSize: 0x150 }
  - { offset: 0x3BE0DE, size: 0x8, addend: 0x0, symName: __ZNSt3__13setIiNS_4lessIiEENS_9allocatorIiEEE6insertB8ne200100INS_21__tree_const_iteratorIiPNS_11__tree_nodeIiPvEElEEEEvT_SD_, symObjAddr: 0x54F0, symBinAddr: 0x6F8F0, symSize: 0x170 }
  - { offset: 0x3BE124, size: 0x8, addend: 0x0, symName: __ZNSt3__13setIiNS_4lessIiEENS_9allocatorIiEEE6insertB8ne200100INS_21__tree_const_iteratorIiPNS_11__tree_nodeIiPvEElEEEEvT_SD_, symObjAddr: 0x54F0, symBinAddr: 0x6F8F0, symSize: 0x170 }
  - { offset: 0x3BE54A, size: 0x8, addend: 0x0, symName: __ZNSt3__128__exception_guard_exceptionsINS_6vectorIN22llama_memory_recurrent8mem_cellENS_9allocatorIS3_EEE16__destroy_vectorEED1B8ne200100Ev, symObjAddr: 0x5480, symBinAddr: 0x6F880, symSize: 0x70 }
  - { offset: 0x3C07EC, size: 0x8, addend: 0x0, symName: __Z27llama_memory_status_combine19llama_memory_statusS_, symObjAddr: 0x0, symBinAddr: 0x6FA60, symSize: 0x40 }
  - { offset: 0x3C0801, size: 0x8, addend: 0x0, symName: __Z27llama_memory_status_combine19llama_memory_statusS_, symObjAddr: 0x0, symBinAddr: 0x6FA60, symSize: 0x40 }
  - { offset: 0x3C084D, size: 0x8, addend: 0x0, symName: __Z27llama_memory_status_is_fail19llama_memory_status, symObjAddr: 0x40, symBinAddr: 0x6FAA0, symSize: 0xF }
  - { offset: 0x3C3362, size: 0x8, addend: 0x0, symName: __ZN10llama_mmap9SUPPORTEDE, symObjAddr: 0x1BF4, symBinAddr: 0x2B9448, symSize: 0x0 }
  - { offset: 0x3C8A78, size: 0x8, addend: 0x0, symName: __ZN11llama_mlock9SUPPORTEDE, symObjAddr: 0x1BF5, symBinAddr: 0x2B9449, symSize: 0x0 }
  - { offset: 0x3C8CC0, size: 0x8, addend: 0x0, symName: __ZN10llama_fileC2EPKcS1_b, symObjAddr: 0x0, symBinAddr: 0x6FAB0, symSize: 0x60 }
  - { offset: 0x3C8DB0, size: 0x8, addend: 0x0, symName: __ZN10llama_file4implC2EPKcS2_b, symObjAddr: 0x1590, symBinAddr: 0x70F70, symSize: 0xF0 }
  - { offset: 0x3C9234, size: 0x8, addend: 0x0, symName: __ZN10llama_fileC1EPKcS1_b, symObjAddr: 0x60, symBinAddr: 0x6FB10, symSize: 0x60 }
  - { offset: 0x3C9509, size: 0x8, addend: 0x0, symName: __ZN10llama_fileD2Ev, symObjAddr: 0xC0, symBinAddr: 0x6FB70, symSize: 0x60 }
  - { offset: 0x3C9716, size: 0x8, addend: 0x0, symName: __ZN10llama_fileD1Ev, symObjAddr: 0x120, symBinAddr: 0x6FBD0, symSize: 0x60 }
  - { offset: 0x3C991D, size: 0x8, addend: 0x0, symName: __ZNK10llama_file4tellEv, symObjAddr: 0x180, symBinAddr: 0x6FC30, symSize: 0x10 }
  - { offset: 0x3C9972, size: 0x8, addend: 0x0, symName: __ZNK10llama_file4impl4tellEv, symObjAddr: 0x190, symBinAddr: 0x6FC40, symSize: 0x130 }
  - { offset: 0x3C9B57, size: 0x8, addend: 0x0, symName: __ZNK10llama_file4sizeEv, symObjAddr: 0x2C0, symBinAddr: 0x6FD70, symSize: 0x10 }
  - { offset: 0x3C9BB0, size: 0x8, addend: 0x0, symName: __ZNK10llama_file14read_alignmentEv, symObjAddr: 0x2D0, symBinAddr: 0x6FD80, symSize: 0x10 }
  - { offset: 0x3C9C28, size: 0x8, addend: 0x0, symName: __ZNK10llama_file13has_direct_ioEv, symObjAddr: 0x2E0, symBinAddr: 0x6FD90, symSize: 0x20 }
  - { offset: 0x3C9C8A, size: 0x8, addend: 0x0, symName: __ZNK10llama_file7file_idEv, symObjAddr: 0x300, symBinAddr: 0x6FDB0, symSize: 0x20 }
  - { offset: 0x3C9CEA, size: 0x8, addend: 0x0, symName: __ZNK10llama_file4seekEmi, symObjAddr: 0x320, symBinAddr: 0x6FDD0, symSize: 0x10 }
  - { offset: 0x3C9D6C, size: 0x8, addend: 0x0, symName: __ZNK10llama_file4impl4seekEmi, symObjAddr: 0x330, symBinAddr: 0x6FDE0, symSize: 0xD0 }
  - { offset: 0x3C9F4D, size: 0x8, addend: 0x0, symName: __ZN10llama_file8read_rawEPvm, symObjAddr: 0x400, symBinAddr: 0x6FEB0, symSize: 0x20 }
  - { offset: 0x3CA008, size: 0x8, addend: 0x0, symName: __ZN10llama_file4impl18read_aligned_chunkEPvm, symObjAddr: 0x1250, symBinAddr: 0x70D00, symSize: 0x150 }
  - { offset: 0x3CA385, size: 0x8, addend: 0x0, symName: __ZN10llama_file4impl15read_raw_unsafeEPvm, symObjAddr: 0x430, symBinAddr: 0x6FEE0, symSize: 0x320 }
  - { offset: 0x3CA6A7, size: 0x8, addend: 0x0, symName: __ZN10llama_file15read_raw_unsafeEPvm, symObjAddr: 0x420, symBinAddr: 0x6FED0, symSize: 0x10 }
  - { offset: 0x3CA740, size: 0x8, addend: 0x0, symName: __ZN10llama_file4impl7init_fpEPKc, symObjAddr: 0x13B0, symBinAddr: 0x70E50, symSize: 0x110 }
  - { offset: 0x3CAAF8, size: 0x8, addend: 0x0, symName: __ZN10llama_file8read_u32Ev, symObjAddr: 0x750, symBinAddr: 0x70200, symSize: 0x50 }
  - { offset: 0x3CABD5, size: 0x8, addend: 0x0, symName: __ZNK10llama_file9write_rawEPKvm, symObjAddr: 0x7A0, symBinAddr: 0x70250, symSize: 0x10 }
  - { offset: 0x3CAC57, size: 0x8, addend: 0x0, symName: __ZNK10llama_file4impl9write_rawEPKvm, symObjAddr: 0x7B0, symBinAddr: 0x70260, symSize: 0xE0 }
  - { offset: 0x3CAE48, size: 0x8, addend: 0x0, symName: __ZNK10llama_file9write_u32Ej, symObjAddr: 0x890, symBinAddr: 0x70340, symSize: 0x30 }
  - { offset: 0x3CAF95, size: 0x8, addend: 0x0, symName: __ZN10llama_mmapC2EP10llama_filemb, symObjAddr: 0x8C0, symBinAddr: 0x70370, symSize: 0x60 }
  - { offset: 0x3CB085, size: 0x8, addend: 0x0, symName: __ZN10llama_mmap4implC2EP10llama_filemb, symObjAddr: 0x1690, symBinAddr: 0x71060, symSize: 0x2F0 }
  - { offset: 0x3CB9E2, size: 0x8, addend: 0x0, symName: __ZN10llama_mmapC1EP10llama_filemb, symObjAddr: 0x920, symBinAddr: 0x703D0, symSize: 0x60 }
  - { offset: 0x3CBBC8, size: 0x8, addend: 0x0, symName: __ZN10llama_mmapD2Ev, symObjAddr: 0x980, symBinAddr: 0x70430, symSize: 0x40 }
  - { offset: 0x3CBCA6, size: 0x8, addend: 0x0, symName: __ZN10llama_mmap4implD2Ev, symObjAddr: 0x1980, symBinAddr: 0x71350, symSize: 0xA0 }
  - { offset: 0x3CBEF5, size: 0x8, addend: 0x0, symName: __ZN10llama_mmapD1Ev, symObjAddr: 0x9C0, symBinAddr: 0x70470, symSize: 0x40 }
  - { offset: 0x3CC01A, size: 0x8, addend: 0x0, symName: __ZNK10llama_mmap4sizeEv, symObjAddr: 0xA00, symBinAddr: 0x704B0, symSize: 0x10 }
  - { offset: 0x3CC05F, size: 0x8, addend: 0x0, symName: __ZNK10llama_mmap4addrEv, symObjAddr: 0xA10, symBinAddr: 0x704C0, symSize: 0x10 }
  - { offset: 0x3CC0A4, size: 0x8, addend: 0x0, symName: __ZN10llama_mmap14unmap_fragmentEmm, symObjAddr: 0xA20, symBinAddr: 0x704D0, symSize: 0x10 }
  - { offset: 0x3CC126, size: 0x8, addend: 0x0, symName: __ZN10llama_mmap4impl14unmap_fragmentEmm, symObjAddr: 0xA30, symBinAddr: 0x704E0, symSize: 0x650 }
  - { offset: 0x3CDD40, size: 0x8, addend: 0x0, symName: __ZNSt3__16vectorINS_4pairImmEENS_9allocatorIS2_EEE20__throw_length_errorB8ne200100Ev, symObjAddr: 0x14C0, symBinAddr: 0x70F60, symSize: 0x10 }
  - { offset: 0x3CDDFD, size: 0x8, addend: 0x0, symName: __ZN11llama_mlockC2Ev, symObjAddr: 0x1080, symBinAddr: 0x70B30, symSize: 0x30 }
  - { offset: 0x3CDED9, size: 0x8, addend: 0x0, symName: __ZN11llama_mlockC1Ev, symObjAddr: 0x10B0, symBinAddr: 0x70B60, symSize: 0x30 }
  - { offset: 0x3CE044, size: 0x8, addend: 0x0, symName: __ZN11llama_mlockD2Ev, symObjAddr: 0x10E0, symBinAddr: 0x70B90, symSize: 0x20 }
  - { offset: 0x3CE107, size: 0x8, addend: 0x0, symName: __ZN11llama_mlockD1Ev, symObjAddr: 0x1100, symBinAddr: 0x70BB0, symSize: 0x20 }
  - { offset: 0x3CE214, size: 0x8, addend: 0x0, symName: __ZN11llama_mlock4initEPv, symObjAddr: 0x1120, symBinAddr: 0x70BD0, symSize: 0x40 }
  - { offset: 0x3CE250, size: 0x8, addend: 0x0, symName: __ZN11llama_mlock4initEPv, symObjAddr: 0x1120, symBinAddr: 0x70BD0, symSize: 0x40 }
  - { offset: 0x3CE297, size: 0x8, addend: 0x0, symName: __ZN11llama_mlock7grow_toEm, symObjAddr: 0x1160, symBinAddr: 0x70C10, symSize: 0x10 }
  - { offset: 0x3CE303, size: 0x8, addend: 0x0, symName: __ZN11llama_mlock4impl7grow_toEm, symObjAddr: 0x1170, symBinAddr: 0x70C20, symSize: 0xD0 }
  - { offset: 0x3CE48D, size: 0x8, addend: 0x0, symName: __Z14llama_path_maxv, symObjAddr: 0x1240, symBinAddr: 0x70CF0, symSize: 0x10 }
  - { offset: 0x3CE8B6, size: 0x8, addend: 0x0, symName: __ZN10llama_mmap4implC2EP10llama_filemb, symObjAddr: 0x1690, symBinAddr: 0x71060, symSize: 0x2F0 }
  - { offset: 0x3F0D71, size: 0x8, addend: 0x0, symName: __ZNSt3__120__throw_future_errorB8ne200100ENS_11future_errcE, symObjAddr: 0xC0B0, symBinAddr: 0x7C940, symSize: 0x60 }
  - { offset: 0x3F1F06, size: 0x8, addend: 0x0, symName: '__ZNSt3__114__thread_proxyB8ne200100INS_5tupleIJNS_10unique_ptrINS_15__thread_structENS_14default_deleteIS3_EEEEMNS_19__async_assoc_stateINS_4pairIP11ggml_tensorbEENS_12__async_funcIZN18llama_model_loader13load_all_dataEP12ggml_contextRNS_13unordered_mapIjP19ggml_backend_bufferNS_4hashIjEENS_8equal_toIjEENS_9allocatorINS8_IKjSI_EEEEEEPNS_6vectorINS2_I11llama_mlockNS4_ISU_EEEENSN_ISW_EEEEPFbfPvES10_E3$_0JEEEEEFvvEPS15_EEEEES10_S10_', symObjAddr: 0xC110, symBinAddr: 0x7C9A0, symSize: 0x90 }
  - { offset: 0x3F22D0, size: 0x8, addend: 0x0, symName: '__ZNSt3__114__thread_proxyB8ne200100INS_5tupleIJNS_10unique_ptrINS_15__thread_structENS_14default_deleteIS3_EEEEMNS_19__async_assoc_stateINS_4pairIP11ggml_tensorbEENS_12__async_funcIZN18llama_model_loader13load_all_dataEP12ggml_contextRNS_13unordered_mapIjP19ggml_backend_bufferNS_4hashIjEENS_8equal_toIjEENS_9allocatorINS8_IKjSI_EEEEEEPNS_6vectorINS2_I11llama_mlockNS4_ISU_EEEENSN_ISW_EEEEPFbfPvES10_E3$_1JEEEEEFvvEPS15_EEEEES10_S10_', symObjAddr: 0xC420, symBinAddr: 0x7CCB0, symSize: 0x90 }
  - { offset: 0x3F6E7B, size: 0x8, addend: 0x0, symName: __ZN18llama_model_loader13load_all_dataEP12ggml_contextRNSt3__113unordered_mapIjP19ggml_backend_bufferNS2_4hashIjEENS2_8equal_toIjEENS2_9allocatorINS2_4pairIKjS5_EEEEEEPNS2_6vectorINS2_10unique_ptrI11llama_mlockNS2_14default_deleteISJ_EEEENSA_ISM_EEEEPFbfPvESQ_, symObjAddr: 0x6460, symBinAddr: 0x77720, symSize: 0x1F40 }
  - { offset: 0x3FB8BA, size: 0x8, addend: 0x0, symName: __Z23llama_file_version_name10llama_fver, symObjAddr: 0x0, symBinAddr: 0x713F0, symSize: 0x30 }
  - { offset: 0x3FB9A7, size: 0x8, addend: 0x0, symName: __ZN18llama_model_loader9get_arr_nIjEENSt3__19enable_ifIXsr3std11is_integralIT_EE5valueEbE4typeE6llm_kvRS3_b, symObjAddr: 0x30, symBinAddr: 0x71420, symSize: 0x80 }
  - { offset: 0x3FBC43, size: 0x8, addend: 0x0, symName: __ZN18llama_model_loader9get_arr_nIjEENSt3__19enable_ifIXsr3std11is_integralIT_EE5valueEbE4typeERKNS1_12basic_stringIcNS1_11char_traitsIcEENS1_9allocatorIcEEEERS3_b, symObjAddr: 0xB0, symBinAddr: 0x714A0, symSize: 0x110 }
  - { offset: 0x3FBFB1, size: 0x8, addend: 0x0, symName: __ZN8GGUFMeta3GKVINS_9ArrayInfoEE6get_kvEPK12gguf_contexti, symObjAddr: 0x8CC0, symBinAddr: 0x79E20, symSize: 0x130 }
  - { offset: 0x3FC1EF, size: 0x8, addend: 0x0, symName: __ZN18llama_model_loader7get_arrINSt3__16vectorINS1_12basic_stringIcNS1_11char_traitsIcEENS1_9allocatorIcEEEENS6_IS8_EEEEEEb6llm_kvRT_b, symObjAddr: 0x1C0, symBinAddr: 0x715B0, symSize: 0x80 }
  - { offset: 0x3FC48B, size: 0x8, addend: 0x0, symName: __ZN18llama_model_loader7get_arrINSt3__112basic_stringIcNS1_11char_traitsIcEENS1_9allocatorIcEEEEEEbRKS7_RNS1_6vectorIT_NS5_ISB_EEEEb, symObjAddr: 0x240, symBinAddr: 0x71630, symSize: 0x3E0 }
  - { offset: 0x3FDB2B, size: 0x8, addend: 0x0, symName: __ZN18llama_model_loader7get_keyIbEEb6llm_kvRT_b, symObjAddr: 0x620, symBinAddr: 0x71A10, symSize: 0x80 }
  - { offset: 0x3FDDC7, size: 0x8, addend: 0x0, symName: __ZN18llama_model_loader7get_keyIbEEbRKNSt3__112basic_stringIcNS1_11char_traitsIcEENS1_9allocatorIcEEEERT_b, symObjAddr: 0x6A0, symBinAddr: 0x71A90, symSize: 0x140 }
  - { offset: 0x3FE2DB, size: 0x8, addend: 0x0, symName: __ZNSt3__112__hash_tableINS_17__hash_value_typeINS_12basic_stringIcNS_11char_traitsIcEENS_9allocatorIcEEEE23llama_model_kv_overrideEENS_22__unordered_map_hasherIS7_S9_NS_4hashIS7_EENS_8equal_toIS7_EELb1EEENS_21__unordered_map_equalIS7_S9_SE_SC_Lb1EEENS5_IS9_EEE4findIS7_EENS_15__hash_iteratorIPNS_11__hash_nodeIS9_PvEEEERKT_, symObjAddr: 0x8FF0, symBinAddr: 0x79F50, symSize: 0x290 }
  - { offset: 0x3FE5D9, size: 0x8, addend: 0x0, symName: __ZN8GGUFMeta3GKVIbE17validate_overrideE28llama_model_kv_override_typePK23llama_model_kv_override, symObjAddr: 0x9820, symBinAddr: 0x7A2D0, symSize: 0x200 }
  - { offset: 0x3FE7CA, size: 0x8, addend: 0x0, symName: __ZN8GGUFMeta3GKVIbE6get_kvEPK12gguf_contexti, symObjAddr: 0x9730, symBinAddr: 0x7A1E0, symSize: 0xF0 }
  - { offset: 0x3FE99D, size: 0x8, addend: 0x0, symName: __ZN18llama_model_loader7get_keyIfEEb6llm_kvRT_b, symObjAddr: 0x7E0, symBinAddr: 0x71BD0, symSize: 0x80 }
  - { offset: 0x3FEC39, size: 0x8, addend: 0x0, symName: __ZN18llama_model_loader7get_keyIfEEbRKNSt3__112basic_stringIcNS1_11char_traitsIcEENS1_9allocatorIcEEEERT_b, symObjAddr: 0x860, symBinAddr: 0x71C50, symSize: 0x140 }
  - { offset: 0x3FF119, size: 0x8, addend: 0x0, symName: __ZN8GGUFMeta3GKVIfE17validate_overrideE28llama_model_kv_override_typePK23llama_model_kv_override, symObjAddr: 0x9B10, symBinAddr: 0x7A5C0, symSize: 0x200 }
  - { offset: 0x3FF30A, size: 0x8, addend: 0x0, symName: __ZN8GGUFMeta3GKVIfE6get_kvEPK12gguf_contexti, symObjAddr: 0x9A20, symBinAddr: 0x7A4D0, symSize: 0xF0 }
  - { offset: 0x3FF4DD, size: 0x8, addend: 0x0, symName: __ZN18llama_model_loader7get_keyIjEEb6llm_kvRT_b, symObjAddr: 0x9A0, symBinAddr: 0x71D90, symSize: 0x80 }
  - { offset: 0x3FF756, size: 0x8, addend: 0x0, symName: __ZN18llama_model_loader7get_keyIjEEbRKNSt3__112basic_stringIcNS1_11char_traitsIcEENS1_9allocatorIcEEEERT_b, symObjAddr: 0xA20, symBinAddr: 0x71E10, symSize: 0x130 }
  - { offset: 0x3FFC36, size: 0x8, addend: 0x0, symName: __ZN8GGUFMeta3GKVIjE17validate_overrideE28llama_model_kv_override_typePK23llama_model_kv_override, symObjAddr: 0x9E00, symBinAddr: 0x7A8B0, symSize: 0x200 }
  - { offset: 0x3FFE27, size: 0x8, addend: 0x0, symName: __ZN8GGUFMeta3GKVIjE6get_kvEPK12gguf_contexti, symObjAddr: 0x9D10, symBinAddr: 0x7A7C0, symSize: 0xF0 }
  - { offset: 0x3FFFFA, size: 0x8, addend: 0x0, symName: __ZN18llama_model_loader7get_keyINSt3__112basic_stringIcNS1_11char_traitsIcEENS1_9allocatorIcEEEEEEb6llm_kvRT_b, symObjAddr: 0xB50, symBinAddr: 0x71F40, symSize: 0x80 }
  - { offset: 0x400296, size: 0x8, addend: 0x0, symName: __ZN18llama_model_loader7get_keyINSt3__112basic_stringIcNS1_11char_traitsIcEENS1_9allocatorIcEEEEEEbRKS7_RT_b, symObjAddr: 0xBD0, symBinAddr: 0x71FC0, symSize: 0x160 }
  - { offset: 0x40093F, size: 0x8, addend: 0x0, symName: __ZN8GGUFMeta3GKVINSt3__112basic_stringIcNS1_11char_traitsIcEENS1_9allocatorIcEEEEE17validate_overrideE28llama_model_kv_override_typePK23llama_model_kv_override, symObjAddr: 0xA180, symBinAddr: 0x7AC30, symSize: 0x200 }
  - { offset: 0x400B30, size: 0x8, addend: 0x0, symName: __ZN8GGUFMeta3GKVINSt3__112basic_stringIcNS1_11char_traitsIcEENS1_9allocatorIcEEEEE6get_kvEPK12gguf_contexti, symObjAddr: 0xA000, symBinAddr: 0x7AAB0, symSize: 0x180 }
  - { offset: 0x40102C, size: 0x8, addend: 0x0, symName: __ZN18llama_model_loader7get_keyI18llama_pooling_typeEEb6llm_kvRT_b, symObjAddr: 0xD30, symBinAddr: 0x72120, symSize: 0x90 }
  - { offset: 0x40131A, size: 0x8, addend: 0x0, symName: __ZN18llama_model_loader14get_key_or_arrE6llm_kvRjb, symObjAddr: 0xDC0, symBinAddr: 0x721B0, symSize: 0x1C0 }
  - { offset: 0x40183B, size: 0x8, addend: 0x0, symName: __ZN18llama_model_loader14get_key_or_arrINSt3__15arrayIiLm4EEEEEb6llm_kvRT_jb, symObjAddr: 0xF80, symBinAddr: 0x72370, symSize: 0x90 }
  - { offset: 0x401AED, size: 0x8, addend: 0x0, symName: __ZN18llama_model_loader14get_key_or_arrIiLm4EEEbRKNSt3__112basic_stringIcNS1_11char_traitsIcEENS1_9allocatorIcEEEERNS1_5arrayIT_XT0_EEEjb, symObjAddr: 0x1010, symBinAddr: 0x72400, symSize: 0x310 }
  - { offset: 0x40220D, size: 0x8, addend: 0x0, symName: __ZN18llama_model_loader7get_arrIiLm4EEEbRKNSt3__112basic_stringIcNS1_11char_traitsIcEENS1_9allocatorIcEEEERNS1_5arrayIT_XT0_EEEb, symObjAddr: 0xA380, symBinAddr: 0x7AE30, symSize: 0x2B0 }
  - { offset: 0x402798, size: 0x8, addend: 0x0, symName: __ZN18llama_model_loader7get_keyIiEEbRKNSt3__112basic_stringIcNS1_11char_traitsIcEENS1_9allocatorIcEEEERT_b, symObjAddr: 0x4D10, symBinAddr: 0x75FD0, symSize: 0x130 }
  - { offset: 0x402BAB, size: 0x8, addend: 0x0, symName: __ZN18llama_model_loader14get_key_or_arrINSt3__15arrayIjLm512EEEEEb6llm_kvRT_jb, symObjAddr: 0x1320, symBinAddr: 0x72710, symSize: 0x90 }
  - { offset: 0x402E5D, size: 0x8, addend: 0x0, symName: __ZN18llama_model_loader14get_key_or_arrIjLm512EEEbRKNSt3__112basic_stringIcNS1_11char_traitsIcEENS1_9allocatorIcEEEERNS1_5arrayIT_XT0_EEEjb, symObjAddr: 0x13B0, symBinAddr: 0x727A0, symSize: 0x2E0 }
  - { offset: 0x40357D, size: 0x8, addend: 0x0, symName: __ZN18llama_model_loader7get_arrIjLm512EEEbRKNSt3__112basic_stringIcNS1_11char_traitsIcEENS1_9allocatorIcEEEERNS1_5arrayIT_XT0_EEEb, symObjAddr: 0xA630, symBinAddr: 0x7B0E0, symSize: 0x310 }
  - { offset: 0x403B05, size: 0x8, addend: 0x0, symName: __ZN18llama_model_loader14get_key_or_arrINSt3__15arrayIfLm512EEEEEb6llm_kvRT_jb, symObjAddr: 0x1690, symBinAddr: 0x72A80, symSize: 0x90 }
  - { offset: 0x403DB7, size: 0x8, addend: 0x0, symName: __ZN18llama_model_loader14get_key_or_arrIfLm512EEEbRKNSt3__112basic_stringIcNS1_11char_traitsIcEENS1_9allocatorIcEEEERNS1_5arrayIT_XT0_EEEjb, symObjAddr: 0x1720, symBinAddr: 0x72B10, symSize: 0x2E0 }
  - { offset: 0x4044D7, size: 0x8, addend: 0x0, symName: __ZN18llama_model_loader7get_arrIfLm512EEEbRKNSt3__112basic_stringIcNS1_11char_traitsIcEENS1_9allocatorIcEEEERNS1_5arrayIT_XT0_EEEb, symObjAddr: 0xA940, symBinAddr: 0x7B3F0, symSize: 0x270 }
  - { offset: 0x406FE1, size: 0x8, addend: 0x0, symName: __ZN18llama_model_loaderC2ERKNSt3__112basic_stringIcNS0_11char_traitsIcEENS0_9allocatorIcEEEERNS0_6vectorIS6_NS4_IS6_EEEEbbbbPK23llama_model_kv_overridePK32llama_model_tensor_buft_override, symObjAddr: 0x1A00, symBinAddr: 0x72DF0, symSize: 0x30B0 }
  - { offset: 0x4103B5, size: 0x8, addend: 0x0, symName: __ZNSt3__112__hash_tableINS_17__hash_value_typeINS_12basic_stringIcNS_11char_traitsIcEENS_9allocatorIcEEEE23llama_model_kv_overrideEENS_22__unordered_map_hasherIS7_S9_NS_4hashIS7_EENS_8equal_toIS7_EELb1EEENS_21__unordered_map_equalIS7_S9_SE_SC_Lb1EEENS5_IS9_EEE25__emplace_unique_key_argsIS7_JNS_4pairIKS7_S8_EEEEENSL_INS_15__hash_iteratorIPNS_11__hash_nodeIS9_PvEEEEbEERKT_DpOT0_, symObjAddr: 0xAC00, symBinAddr: 0x7B6B0, symSize: 0x5A0 }
  - { offset: 0x410DBE, size: 0x8, addend: 0x0, symName: __ZNK18llama_model_loader20weight_name_comparerclERKNSt3__112basic_stringIcNS1_11char_traitsIcEENS1_9allocatorIcEEEES9_, symObjAddr: 0xB3C0, symBinAddr: 0x7BE60, symSize: 0xF0 }
  - { offset: 0x41108B, size: 0x8, addend: 0x0, symName: __ZN18llama_model_loader19llama_tensor_weightC2EPK10llama_filetPK12gguf_contextP11ggml_tensor, symObjAddr: 0x8890, symBinAddr: 0x79B40, symSize: 0x190 }
  - { offset: 0x411272, size: 0x8, addend: 0x0, symName: __ZNSt3__16__treeINS_12__value_typeINS_12basic_stringIcNS_11char_traitsIcEENS_9allocatorIcEEEEN18llama_model_loader19llama_tensor_weightEEENS_19__map_value_compareIS7_SA_NS8_20weight_name_comparerELb1EEENS5_ISA_EEE25__emplace_unique_key_argsIS7_JRS7_S9_EEENS_4pairINS_15__tree_iteratorISA_PNS_11__tree_nodeISA_PvEElEEbEERKT_DpOT0_, symObjAddr: 0xB4B0, symBinAddr: 0x7BF50, symSize: 0x160 }
  - { offset: 0x4116ED, size: 0x8, addend: 0x0, symName: __ZN8GGUFMeta3GKVItE17validate_overrideE28llama_model_kv_override_typePK23llama_model_kv_override, symObjAddr: 0xB8D0, symBinAddr: 0x7C1F0, symSize: 0x200 }
  - { offset: 0x4118DE, size: 0x8, addend: 0x0, symName: __ZN8GGUFMeta3GKVItE6get_kvEPK12gguf_contexti, symObjAddr: 0xB7E0, symBinAddr: 0x7C100, symSize: 0xF0 }
  - { offset: 0x411ABF, size: 0x8, addend: 0x0, symName: __ZN18llama_model_loader7get_keyItEEbRKNSt3__112basic_stringIcNS1_11char_traitsIcEENS1_9allocatorIcEEEERT_b, symObjAddr: 0x4B40, symBinAddr: 0x75EA0, symSize: 0x130 }
  - { offset: 0x411FE3, size: 0x8, addend: 0x0, symName: __ZNSt3__16__treeINS_12__value_typeI9ggml_typejEENS_19__map_value_compareIS2_S3_NS_4lessIS2_EELb1EEENS_9allocatorIS3_EEE7destroyEPNS_11__tree_nodeIS3_PvEE, symObjAddr: 0xBDC0, symBinAddr: 0x7C6E0, symSize: 0x40 }
  - { offset: 0x412104, size: 0x8, addend: 0x0, symName: __ZNK18llama_model_loader20weight_name_comparerclERKNSt3__112basic_stringIcNS1_11char_traitsIcEENS1_9allocatorIcEEEES9_, symObjAddr: 0xB3C0, symBinAddr: 0x7BE60, symSize: 0xF0 }
  - { offset: 0x41210F, size: 0x8, addend: 0x0, symName: __ZNSt3__16vectorINS_10unique_ptrI10llama_fileNS_14default_deleteIS2_EEEENS_9allocatorIS5_EEE20__throw_length_errorB8ne200100Ev, symObjAddr: 0xB3A0, symBinAddr: 0x7BE50, symSize: 0x10 }
  - { offset: 0x41213C, size: 0x8, addend: 0x0, symName: __ZNSt3__16vectorIP18ggml_backend_eventNS_9allocatorIS2_EEE12emplace_backIJRS2_EEES7_DpOT_, symObjAddr: 0x8B70, symBinAddr: 0x79CD0, symSize: 0x120 }
  - { offset: 0x4122C4, size: 0x8, addend: 0x0, symName: __ZNSt3__110unique_ptrINS_11__tree_nodeINS_12__value_typeINS_12basic_stringIcNS_11char_traitsIcEENS_9allocatorIcEEEEN18llama_model_loader19llama_tensor_weightEEEPvEENS_22__tree_node_destructorINS6_ISD_EEEEED1B8ne200100Ev, symObjAddr: 0xB610, symBinAddr: 0x7C0B0, symSize: 0x50 }
  - { offset: 0x4125E4, size: 0x8, addend: 0x0, symName: __ZNSt3__16vectorINS_10unique_ptrI12ggml_context20ggml_context_deleterEENS_9allocatorIS4_EEED1B8ne200100Ev, symObjAddr: 0x4E40, symBinAddr: 0x76100, symSize: 0x80 }
  - { offset: 0x4127AE, size: 0x8, addend: 0x0, symName: __ZNSt3__113unordered_mapINS_12basic_stringIcNS_11char_traitsIcEENS_9allocatorIcEEEE23llama_model_kv_overrideNS_4hashIS6_EENS_8equal_toIS6_EENS4_INS_4pairIKS6_S7_EEEEED1B8ne200100Ev, symObjAddr: 0x4EC0, symBinAddr: 0x76180, symSize: 0x70 }
  - { offset: 0x412B8F, size: 0x8, addend: 0x0, symName: __ZNSt3__16__treeINS_12__value_typeINS_12basic_stringIcNS_11char_traitsIcEENS_9allocatorIcEEEEN18llama_model_loader19llama_tensor_weightEEENS_19__map_value_compareIS7_SA_NS8_20weight_name_comparerELb1EEENS5_ISA_EEE7destroyEPNS_11__tree_nodeISA_PvEE, symObjAddr: 0xABB0, symBinAddr: 0x7B660, symSize: 0x50 }
  - { offset: 0x412E26, size: 0x8, addend: 0x0, symName: __ZNSt3__16vectorINS_10unique_ptrI10llama_mmapNS_14default_deleteIS2_EEEENS_9allocatorIS5_EEED1B8ne200100Ev, symObjAddr: 0x4F30, symBinAddr: 0x761F0, symSize: 0x80 }
  - { offset: 0x413016, size: 0x8, addend: 0x0, symName: __ZNSt3__16vectorINS_10unique_ptrI10llama_fileNS_14default_deleteIS2_EEEENS_9allocatorIS5_EEED1B8ne200100Ev, symObjAddr: 0x4FB0, symBinAddr: 0x76270, symSize: 0x80 }
  - { offset: 0x4134D8, size: 0x8, addend: 0x0, symName: __ZN8GGUFMeta3GKVIiE17validate_overrideE28llama_model_kv_override_typePK23llama_model_kv_override, symObjAddr: 0xBBC0, symBinAddr: 0x7C4E0, symSize: 0x200 }
  - { offset: 0x4136C9, size: 0x8, addend: 0x0, symName: __ZN8GGUFMeta3GKVIiE6get_kvEPK12gguf_contexti, symObjAddr: 0xBAD0, symBinAddr: 0x7C3F0, symSize: 0xF0 }
  - { offset: 0x413E5E, size: 0x8, addend: 0x0, symName: __ZN18llama_model_loaderC1ERKNSt3__112basic_stringIcNS0_11char_traitsIcEENS0_9allocatorIcEEEERNS0_6vectorIS6_NS4_IS6_EEEEbbbbPK23llama_model_kv_overridePK32llama_model_tensor_buft_override, symObjAddr: 0x5030, symBinAddr: 0x762F0, symSize: 0x10 }
  - { offset: 0x413F5E, size: 0x8, addend: 0x0, symName: __ZNK18llama_model_loader13get_arch_nameEv, symObjAddr: 0x5040, symBinAddr: 0x76300, symSize: 0x50 }
  - { offset: 0x413FFC, size: 0x8, addend: 0x0, symName: __ZNK18llama_model_loader8get_archEv, symObjAddr: 0x5090, symBinAddr: 0x76350, symSize: 0x10 }
  - { offset: 0x4140FE, size: 0x8, addend: 0x0, symName: __ZNK18llama_model_loader10get_weightEPKc, symObjAddr: 0x50A0, symBinAddr: 0x76360, symSize: 0x140 }
  - { offset: 0x414820, size: 0x8, addend: 0x0, symName: __ZNK18llama_model_loader14require_weightEPKc, symObjAddr: 0x51E0, symBinAddr: 0x764A0, symSize: 0xC0 }
  - { offset: 0x414997, size: 0x8, addend: 0x0, symName: __ZNK18llama_model_loader15get_tensor_metaEPKc, symObjAddr: 0x52A0, symBinAddr: 0x76560, symSize: 0x20 }
  - { offset: 0x414A1E, size: 0x8, addend: 0x0, symName: __ZNK18llama_model_loader19require_tensor_metaERKNSt3__112basic_stringIcNS0_11char_traitsIcEENS0_9allocatorIcEEEE, symObjAddr: 0x52C0, symBinAddr: 0x76580, symSize: 0xE0 }
  - { offset: 0x414CA0, size: 0x8, addend: 0x0, symName: __ZNK18llama_model_loader17check_tensor_dimsERKNSt3__112basic_stringIcNS0_11char_traitsIcEENS0_9allocatorIcEEEERKNS0_6vectorIxNS4_IxEEEEb, symObjAddr: 0x53A0, symBinAddr: 0x76660, symSize: 0x250 }
  - { offset: 0x41573F, size: 0x8, addend: 0x0, symName: __ZN18llama_model_loader13create_tensorEP12ggml_contextRKNSt3__112basic_stringIcNS2_11char_traitsIcEENS2_9allocatorIcEEEERKSt16initializer_listIxEi, symObjAddr: 0x55F0, symBinAddr: 0x768B0, symSize: 0x150 }
  - { offset: 0x415E1B, size: 0x8, addend: 0x0, symName: __ZNSt3__16vectorIxNS_9allocatorIxEEE20__throw_length_errorB8ne200100Ev, symObjAddr: 0xBE80, symBinAddr: 0x7C720, symSize: 0x10 }
  - { offset: 0x415E33, size: 0x8, addend: 0x0, symName: __ZNSt3__16vectorINS_10unique_ptrI10llama_mmapNS_14default_deleteIS2_EEEENS_9allocatorIS5_EEE20__throw_length_errorB8ne200100Ev, symObjAddr: 0xBE90, symBinAddr: 0x7C730, symSize: 0x10 }
  - { offset: 0x415E3E, size: 0x8, addend: 0x0, symName: __ZN18llama_model_loader21create_tensor_as_viewEP12ggml_contextP11ggml_tensorRKNSt3__112basic_stringIcNS4_11char_traitsIcEENS4_9allocatorIcEEEERKSt16initializer_listIxEmb, symObjAddr: 0x5740, symBinAddr: 0x76A00, symSize: 0x260 }
  - { offset: 0x4166E6, size: 0x8, addend: 0x0, symName: __ZNK18llama_model_loader20done_getting_tensorsEv, symObjAddr: 0x59A0, symBinAddr: 0x76C60, symSize: 0xC0 }
  - { offset: 0x417438, size: 0x8, addend: 0x0, symName: __ZN18llama_model_loader13init_mappingsEbPNSt3__16vectorINS0_10unique_ptrI11llama_mlockNS0_14default_deleteIS3_EEEENS0_9allocatorIS6_EEEE, symObjAddr: 0x5A60, symBinAddr: 0x76D20, symSize: 0x630 }
  - { offset: 0x418CF0, size: 0x8, addend: 0x0, symName: __ZNSt3__16vectorINS_10unique_ptrI10llama_mmapNS_14default_deleteIS2_EEEENS_9allocatorIS5_EEE20__throw_length_errorB8ne200100Ev, symObjAddr: 0xBE90, symBinAddr: 0x7C730, symSize: 0x10 }
  - { offset: 0x418D1D, size: 0x8, addend: 0x0, symName: __ZNSt3__16vectorINS_10unique_ptrI11llama_mlockNS_14default_deleteIS2_EEEENS_9allocatorIS5_EEE20__throw_length_errorB8ne200100Ev, symObjAddr: 0xBEB0, symBinAddr: 0x7C740, symSize: 0x10 }
  - { offset: 0x418D28, size: 0x8, addend: 0x0, symName: __ZNSt3__16vectorINS_10unique_ptrI11llama_mlockNS_14default_deleteIS2_EEEENS_9allocatorIS5_EEE20__throw_length_errorB8ne200100Ev, symObjAddr: 0xBEB0, symBinAddr: 0x7C740, symSize: 0x10 }
  - { offset: 0x418D40, size: 0x8, addend: 0x0, symName: __ZNSt3__16vectorINS_10unique_ptrI10llama_mmapNS_14default_deleteIS2_EEEENS_9allocatorIS5_EEE20__throw_out_of_rangeB8ne200100Ev, symObjAddr: 0xBEC0, symBinAddr: 0x7C750, symSize: 0x10 }
  - { offset: 0x418D4B, size: 0x8, addend: 0x0, symName: __ZNSt3__110unique_ptrI10llama_mmapNS_14default_deleteIS1_EEED1B8ne200100Ev, symObjAddr: 0x60D0, symBinAddr: 0x77390, symSize: 0x40 }
  - { offset: 0x418DDA, size: 0x8, addend: 0x0, symName: __ZNSt3__110unique_ptrI11llama_mlockNS_14default_deleteIS1_EEED1B8ne200100Ev, symObjAddr: 0x6090, symBinAddr: 0x77350, symSize: 0x40 }
  - { offset: 0x418F7E, size: 0x8, addend: 0x0, symName: __ZNK18llama_model_loader17get_mapping_rangeEPmS0_PPviP12ggml_context, symObjAddr: 0x6110, symBinAddr: 0x773D0, symSize: 0x140 }
  - { offset: 0x41921B, size: 0x8, addend: 0x0, symName: __ZNSt3__16vectorINS_10unique_ptrI10llama_mmapNS_14default_deleteIS2_EEEENS_9allocatorIS5_EEE20__throw_out_of_rangeB8ne200100Ev, symObjAddr: 0xBEC0, symBinAddr: 0x7C750, symSize: 0x10 }
  - { offset: 0x419233, size: 0x8, addend: 0x0, symName: __ZNSt3__16vectorINS_10unique_ptrI10llama_fileNS_14default_deleteIS2_EEEENS_9allocatorIS5_EEE20__throw_out_of_rangeB8ne200100Ev, symObjAddr: 0xBED0, symBinAddr: 0x7C760, symSize: 0x10 }
  - { offset: 0x41923E, size: 0x8, addend: 0x0, symName: __ZNK18llama_model_loader13load_data_forEP11ggml_tensor, symObjAddr: 0x6250, symBinAddr: 0x77510, symSize: 0x210 }
  - { offset: 0x41BCE2, size: 0x8, addend: 0x0, symName: __ZNSt3__113__assoc_stateINS_4pairIP11ggml_tensorbEEE4moveEv, symObjAddr: 0xC510, symBinAddr: 0x7CDA0, symSize: 0xC0 }
  - { offset: 0x41BED5, size: 0x8, addend: 0x0, symName: __ZNSt3__16vectorIP18ggml_backend_eventNS_9allocatorIS2_EEE12emplace_backIJRS2_EEES7_DpOT_, symObjAddr: 0x8B70, symBinAddr: 0x79CD0, symSize: 0x120 }
  - { offset: 0x41C331, size: 0x8, addend: 0x0, symName: __ZNSt3__16vectorINS_10unique_ptrI10llama_fileNS_14default_deleteIS2_EEEENS_9allocatorIS5_EEE20__throw_out_of_rangeB8ne200100Ev, symObjAddr: 0xBED0, symBinAddr: 0x7C760, symSize: 0x10 }
  - { offset: 0x41C349, size: 0x8, addend: 0x0, symName: '__ZNSt3__119__async_assoc_stateINS_4pairIP11ggml_tensorbEENS_12__async_funcIZN18llama_model_loader13load_all_dataEP12ggml_contextRNS_13unordered_mapIjP19ggml_backend_bufferNS_4hashIjEENS_8equal_toIjEENS_9allocatorINS1_IKjSB_EEEEEEPNS_6vectorINS_10unique_ptrI11llama_mlockNS_14default_deleteISO_EEEENSG_ISR_EEEEPFbfPvESV_E3$_0JEEEED1Ev', symObjAddr: 0xBEE0, symBinAddr: 0x7C770, symSize: 0x40 }
  - { offset: 0x41C354, size: 0x8, addend: 0x0, symName: __ZNSt3__16vectorINS_4pairImmEENS_9allocatorIS2_EEE20__throw_out_of_rangeB8ne200100Ev, symObjAddr: 0xC5D0, symBinAddr: 0x7CE60, symSize: 0x10 }
  - { offset: 0x41C377, size: 0x8, addend: 0x0, symName: __ZNSt3__16vectorINS_6futureINS_4pairIP11ggml_tensorbEEEENS_9allocatorIS6_EEE20__throw_length_errorB8ne200100Ev, symObjAddr: 0xC230, symBinAddr: 0x7CAC0, symSize: 0x10 }
  - { offset: 0x41C38F, size: 0x8, addend: 0x0, symName: __ZNSt3__16vectorINS_10unique_ptrI11llama_mlockNS_14default_deleteIS2_EEEENS_9allocatorIS5_EEE20__throw_out_of_rangeB8ne200100Ev, symObjAddr: 0xC240, symBinAddr: 0x7CAD0, symSize: 0x10 }
  - { offset: 0x41C39A, size: 0x8, addend: 0x0, symName: __ZNSt3__16vectorINS_10unique_ptrI11llama_mlockNS_14default_deleteIS2_EEEENS_9allocatorIS5_EEE20__throw_out_of_rangeB8ne200100Ev, symObjAddr: 0xC240, symBinAddr: 0x7CAD0, symSize: 0x10 }
  - { offset: 0x41C3B2, size: 0x8, addend: 0x0, symName: '__ZNSt3__119__async_assoc_stateINS_4pairIP11ggml_tensorbEENS_12__async_funcIZN18llama_model_loader13load_all_dataEP12ggml_contextRNS_13unordered_mapIjP19ggml_backend_bufferNS_4hashIjEENS_8equal_toIjEENS_9allocatorINS1_IKjSB_EEEEEEPNS_6vectorINS_10unique_ptrI11llama_mlockNS_14default_deleteISO_EEEENSG_ISR_EEEEPFbfPvESV_E3$_1JEEEED1Ev', symObjAddr: 0xC250, symBinAddr: 0x7CAE0, symSize: 0x40 }
  - { offset: 0x41C3BD, size: 0x8, addend: 0x0, symName: __ZNSt3__16vectorI7no_initIhENS_9allocatorIS2_EEE20__throw_length_errorB8ne200100Ev, symObjAddr: 0xC500, symBinAddr: 0x7CD90, symSize: 0x10 }
  - { offset: 0x41C3D5, size: 0x8, addend: 0x0, symName: __ZNSt3__113__assoc_stateINS_4pairIP11ggml_tensorbEEE4moveEv, symObjAddr: 0xC510, symBinAddr: 0x7CDA0, symSize: 0xC0 }
  - { offset: 0x41C3E0, size: 0x8, addend: 0x0, symName: __ZNSt3__16vectorIP19ggml_backend_bufferNS_9allocatorIS2_EEE20__throw_length_errorB8ne200100Ev, symObjAddr: 0x8C90, symBinAddr: 0x79DF0, symSize: 0x10 }
  - { offset: 0x41C3F8, size: 0x8, addend: 0x0, symName: __ZNSt3__16vectorIPvNS_9allocatorIS1_EEE20__throw_length_errorB8ne200100Ev, symObjAddr: 0x8CA0, symBinAddr: 0x79E00, symSize: 0x10 }
  - { offset: 0x41C403, size: 0x8, addend: 0x0, symName: __ZNSt3__16vectorIPvNS_9allocatorIS1_EEE20__throw_length_errorB8ne200100Ev, symObjAddr: 0x8CA0, symBinAddr: 0x79E00, symSize: 0x10 }
  - { offset: 0x41C41B, size: 0x8, addend: 0x0, symName: __ZNSt3__16vectorIP18ggml_backend_eventNS_9allocatorIS2_EEE20__throw_length_errorB8ne200100Ev, symObjAddr: 0x8CB0, symBinAddr: 0x79E10, symSize: 0x10 }
  - { offset: 0x41C426, size: 0x8, addend: 0x0, symName: '__ZNSt3__110unique_ptrINS_5tupleIJNS0_INS_15__thread_structENS_14default_deleteIS2_EEEEMNS_19__async_assoc_stateINS_4pairIP11ggml_tensorbEENS_12__async_funcIZN18llama_model_loader13load_all_dataEP12ggml_contextRNS_13unordered_mapIjP19ggml_backend_bufferNS_4hashIjEENS_8equal_toIjEENS_9allocatorINS7_IKjSH_EEEEEEPNS_6vectorINS0_I11llama_mlockNS3_IST_EEEENSM_ISV_EEEEPFbfPvESZ_E3$_1JEEEEEFvvEPS14_EEENS3_IS18_EEED1B8ne200100Ev', symObjAddr: 0xC4B0, symBinAddr: 0x7CD40, symSize: 0x50 }
  - { offset: 0x41C5D0, size: 0x8, addend: 0x0, symName: __ZNSt3__110unique_ptrINS_15__thread_structENS_14default_deleteIS1_EEED1B8ne200100Ev, symObjAddr: 0xC1F0, symBinAddr: 0x7CA80, symSize: 0x40 }
  - { offset: 0x41C65F, size: 0x8, addend: 0x0, symName: '__ZNSt3__110unique_ptrINS_5tupleIJNS0_INS_15__thread_structENS_14default_deleteIS2_EEEEMNS_19__async_assoc_stateINS_4pairIP11ggml_tensorbEENS_12__async_funcIZN18llama_model_loader13load_all_dataEP12ggml_contextRNS_13unordered_mapIjP19ggml_backend_bufferNS_4hashIjEENS_8equal_toIjEENS_9allocatorINS7_IKjSH_EEEEEEPNS_6vectorINS0_I11llama_mlockNS3_IST_EEEENSM_ISV_EEEEPFbfPvESZ_E3$_0JEEEEEFvvEPS14_EEENS3_IS18_EEED1B8ne200100Ev', symObjAddr: 0xC1A0, symBinAddr: 0x7CA30, symSize: 0x50 }
  - { offset: 0x41C809, size: 0x8, addend: 0x0, symName: __ZNSt3__16vectorINS_6futureINS_4pairIP11ggml_tensorbEEEENS_9allocatorIS6_EEED1B8ne200100Ev, symObjAddr: 0x83A0, symBinAddr: 0x79660, symSize: 0x80 }
  - { offset: 0x41C9EF, size: 0x8, addend: 0x0, symName: __ZNK18llama_model_loader10ftype_nameEv, symObjAddr: 0x8420, symBinAddr: 0x796E0, symSize: 0x20 }
  - { offset: 0x41CA2E, size: 0x8, addend: 0x0, symName: __ZL22llama_model_ftype_name11llama_ftype, symObjAddr: 0x8440, symBinAddr: 0x79700, symSize: 0x2C0 }
  - { offset: 0x41CCF9, size: 0x8, addend: 0x0, symName: __ZNK18llama_model_loader10print_infoEv, symObjAddr: 0x8700, symBinAddr: 0x799C0, symSize: 0x180 }
  - { offset: 0x41D51E, size: 0x8, addend: 0x0, symName: __ZNSt3__16vectorIP18ggml_backend_eventNS_9allocatorIS2_EEE20__throw_length_errorB8ne200100Ev, symObjAddr: 0x8CB0, symBinAddr: 0x79E10, symSize: 0x10 }
  - { offset: 0x41D536, size: 0x8, addend: 0x0, symName: __ZN8GGUFMeta3GKVINS_9ArrayInfoEE6get_kvEPK12gguf_contexti, symObjAddr: 0x8CC0, symBinAddr: 0x79E20, symSize: 0x130 }
  - { offset: 0x41E632, size: 0x8, addend: 0x0, symName: __ZNSt3__112__hash_tableINS_17__hash_value_typeINS_12basic_stringIcNS_11char_traitsIcEENS_9allocatorIcEEEE23llama_model_kv_overrideEENS_22__unordered_map_hasherIS7_S9_NS_4hashIS7_EENS_8equal_toIS7_EELb1EEENS_21__unordered_map_equalIS7_S9_SE_SC_Lb1EEENS5_IS9_EEE11__do_rehashILb1EEEvm, symObjAddr: 0xB1F0, symBinAddr: 0x7BCA0, symSize: 0x1B0 }
  - { offset: 0x41E9EE, size: 0x8, addend: 0x0, symName: __ZNSt3__110unique_ptrINS_11__hash_nodeINS_17__hash_value_typeINS_12basic_stringIcNS_11char_traitsIcEENS_9allocatorIcEEEE23llama_model_kv_overrideEEPvEENS_22__hash_node_destructorINS6_ISC_EEEEED1B8ne200100Ev, symObjAddr: 0xB1A0, symBinAddr: 0x7BC50, symSize: 0x50 }
  - { offset: 0x41EF8B, size: 0x8, addend: 0x0, symName: '__ZNSt3__119__async_assoc_stateINS_4pairIP11ggml_tensorbEENS_12__async_funcIZN18llama_model_loader13load_all_dataEP12ggml_contextRNS_13unordered_mapIjP19ggml_backend_bufferNS_4hashIjEENS_8equal_toIjEENS_9allocatorINS1_IKjSB_EEEEEEPNS_6vectorINS_10unique_ptrI11llama_mlockNS_14default_deleteISO_EEEENSG_ISR_EEEEPFbfPvESV_E3$_0JEEEED1Ev', symObjAddr: 0xBEE0, symBinAddr: 0x7C770, symSize: 0x40 }
  - { offset: 0x41F027, size: 0x8, addend: 0x0, symName: '__ZNSt3__119__async_assoc_stateINS_4pairIP11ggml_tensorbEENS_12__async_funcIZN18llama_model_loader13load_all_dataEP12ggml_contextRNS_13unordered_mapIjP19ggml_backend_bufferNS_4hashIjEENS_8equal_toIjEENS_9allocatorINS1_IKjSB_EEEEEEPNS_6vectorINS_10unique_ptrI11llama_mlockNS_14default_deleteISO_EEEENSG_ISR_EEEEPFbfPvESV_E3$_0JEEEED0Ev', symObjAddr: 0xBF20, symBinAddr: 0x7C7B0, symSize: 0x50 }
  - { offset: 0x41F0E1, size: 0x8, addend: 0x0, symName: '__ZNSt3__119__async_assoc_stateINS_4pairIP11ggml_tensorbEENS_12__async_funcIZN18llama_model_loader13load_all_dataEP12ggml_contextRNS_13unordered_mapIjP19ggml_backend_bufferNS_4hashIjEENS_8equal_toIjEENS_9allocatorINS1_IKjSB_EEEEEEPNS_6vectorINS_10unique_ptrI11llama_mlockNS_14default_deleteISO_EEEENSG_ISR_EEEEPFbfPvESV_E3$_0JEEEE16__on_zero_sharedEv', symObjAddr: 0xBF70, symBinAddr: 0x7C800, symSize: 0x30 }
  - { offset: 0x41F34D, size: 0x8, addend: 0x0, symName: '__ZNSt3__119__async_assoc_stateINS_4pairIP11ggml_tensorbEENS_12__async_funcIZN18llama_model_loader13load_all_dataEP12ggml_contextRNS_13unordered_mapIjP19ggml_backend_bufferNS_4hashIjEENS_8equal_toIjEENS_9allocatorINS1_IKjSB_EEEEEEPNS_6vectorINS_10unique_ptrI11llama_mlockNS_14default_deleteISO_EEEENSG_ISR_EEEEPFbfPvESV_E3$_0JEEEE9__executeEv', symObjAddr: 0xBFA0, symBinAddr: 0x7C830, symSize: 0x110 }
  - { offset: 0x41F7FD, size: 0x8, addend: 0x0, symName: '__ZNSt3__119__async_assoc_stateINS_4pairIP11ggml_tensorbEENS_12__async_funcIZN18llama_model_loader13load_all_dataEP12ggml_contextRNS_13unordered_mapIjP19ggml_backend_bufferNS_4hashIjEENS_8equal_toIjEENS_9allocatorINS1_IKjSB_EEEEEEPNS_6vectorINS_10unique_ptrI11llama_mlockNS_14default_deleteISO_EEEENSG_ISR_EEEEPFbfPvESV_E3$_1JEEEED1Ev', symObjAddr: 0xC250, symBinAddr: 0x7CAE0, symSize: 0x40 }
  - { offset: 0x41F899, size: 0x8, addend: 0x0, symName: '__ZNSt3__119__async_assoc_stateINS_4pairIP11ggml_tensorbEENS_12__async_funcIZN18llama_model_loader13load_all_dataEP12ggml_contextRNS_13unordered_mapIjP19ggml_backend_bufferNS_4hashIjEENS_8equal_toIjEENS_9allocatorINS1_IKjSB_EEEEEEPNS_6vectorINS_10unique_ptrI11llama_mlockNS_14default_deleteISO_EEEENSG_ISR_EEEEPFbfPvESV_E3$_1JEEEED0Ev', symObjAddr: 0xC290, symBinAddr: 0x7CB20, symSize: 0x50 }
  - { offset: 0x41F93B, size: 0x8, addend: 0x0, symName: '__ZNSt3__119__async_assoc_stateINS_4pairIP11ggml_tensorbEENS_12__async_funcIZN18llama_model_loader13load_all_dataEP12ggml_contextRNS_13unordered_mapIjP19ggml_backend_bufferNS_4hashIjEENS_8equal_toIjEENS_9allocatorINS1_IKjSB_EEEEEEPNS_6vectorINS_10unique_ptrI11llama_mlockNS_14default_deleteISO_EEEENSG_ISR_EEEEPFbfPvESV_E3$_1JEEEE16__on_zero_sharedEv', symObjAddr: 0xC2E0, symBinAddr: 0x7CB70, symSize: 0x30 }
  - { offset: 0x41F9ED, size: 0x8, addend: 0x0, symName: '__ZNSt3__119__async_assoc_stateINS_4pairIP11ggml_tensorbEENS_12__async_funcIZN18llama_model_loader13load_all_dataEP12ggml_contextRNS_13unordered_mapIjP19ggml_backend_bufferNS_4hashIjEENS_8equal_toIjEENS_9allocatorINS1_IKjSB_EEEEEEPNS_6vectorINS_10unique_ptrI11llama_mlockNS_14default_deleteISO_EEEENSG_ISR_EEEEPFbfPvESV_E3$_1JEEEE9__executeEv', symObjAddr: 0xC310, symBinAddr: 0x7CBA0, symSize: 0x110 }
  - { offset: 0x43B805, size: 0x8, addend: 0x0, symName: __ZN17llama_model_saverC2ERK11llama_model, symObjAddr: 0x0, symBinAddr: 0x7CE70, symSize: 0x40 }
  - { offset: 0x43B877, size: 0x8, addend: 0x0, symName: __ZN17llama_model_saverC1ERK11llama_model, symObjAddr: 0x40, symBinAddr: 0x7CEB0, symSize: 0x40 }
  - { offset: 0x43B8E6, size: 0x8, addend: 0x0, symName: __ZN17llama_model_saverD2Ev, symObjAddr: 0x80, symBinAddr: 0x7CEF0, symSize: 0x20 }
  - { offset: 0x43B93F, size: 0x8, addend: 0x0, symName: __ZN17llama_model_saverD1Ev, symObjAddr: 0xB0, symBinAddr: 0x7CF10, symSize: 0x20 }
  - { offset: 0x43BA9B, size: 0x8, addend: 0x0, symName: __ZN17llama_model_saver6add_kvE6llm_kvj, symObjAddr: 0xD0, symBinAddr: 0x7CF30, symSize: 0x70 }
  - { offset: 0x43BD87, size: 0x8, addend: 0x0, symName: __ZN17llama_model_saver6add_kvE6llm_kvi, symObjAddr: 0x140, symBinAddr: 0x7CFA0, symSize: 0x70 }
  - { offset: 0x43C073, size: 0x8, addend: 0x0, symName: __ZN17llama_model_saver6add_kvE6llm_kvf, symObjAddr: 0x1B0, symBinAddr: 0x7D010, symSize: 0x70 }
  - { offset: 0x43C361, size: 0x8, addend: 0x0, symName: __ZN17llama_model_saver6add_kvE6llm_kvb, symObjAddr: 0x220, symBinAddr: 0x7D080, symSize: 0x70 }
  - { offset: 0x43C64D, size: 0x8, addend: 0x0, symName: __ZN17llama_model_saver6add_kvE6llm_kvPKc, symObjAddr: 0x290, symBinAddr: 0x7D0F0, symSize: 0x70 }
  - { offset: 0x43C94C, size: 0x8, addend: 0x0, symName: __ZN17llama_model_saver6add_kvE6llm_kvc, symObjAddr: 0x300, symBinAddr: 0x7D160, symSize: 0x20 }
  - { offset: 0x43CC6A, size: 0x8, addend: 0x0, symName: __ZN17llama_model_saver6add_kvE6llm_kvRKNSt3__16vectorINS1_12basic_stringIcNS1_11char_traitsIcEENS1_9allocatorIcEEEENS6_IS8_EEEE, symObjAddr: 0x320, symBinAddr: 0x7D180, symSize: 0x1D0 }
  - { offset: 0x43D317, size: 0x8, addend: 0x0, symName: __ZNSt3__16vectorIPKcNS_9allocatorIS2_EEE20__throw_length_errorB8ne200100Ev, symObjAddr: 0x2D90, symBinAddr: 0x7FB80, symSize: 0x10 }
  - { offset: 0x43D5EC, size: 0x8, addend: 0x0, symName: __ZN17llama_model_saver10add_tensorEPK11ggml_tensor, symObjAddr: 0x4F0, symBinAddr: 0x7D350, symSize: 0x190 }
  - { offset: 0x43E561, size: 0x8, addend: 0x0, symName: __ZN17llama_model_saver17add_kv_from_modelEv, symObjAddr: 0x680, symBinAddr: 0x7D4E0, symSize: 0x2090 }
  - { offset: 0x44902C, size: 0x8, addend: 0x0, symName: __ZN17llama_model_saver6add_kvINSt3__112basic_stringIcNS1_11char_traitsIcEENS1_9allocatorIcEEEEEEv6llm_kvRKT_b, symObjAddr: 0x2710, symBinAddr: 0x7F570, symSize: 0x140 }
  - { offset: 0x449454, size: 0x8, addend: 0x0, symName: __ZN17llama_model_saver6add_kvINSt3__15arrayIjLm512EEEEEv6llm_kvRKT_b, symObjAddr: 0x2850, symBinAddr: 0x7F6B0, symSize: 0x120 }
  - { offset: 0x4499E1, size: 0x8, addend: 0x0, symName: __ZN17llama_model_saver22add_tensors_from_modelEv, symObjAddr: 0x29E0, symBinAddr: 0x7F7D0, symSize: 0x380 }
  - { offset: 0x44A5E1, size: 0x8, addend: 0x0, symName: __ZN17llama_model_saver4saveERKNSt3__112basic_stringIcNS0_11char_traitsIcEENS0_9allocatorIcEEEE, symObjAddr: 0x2D60, symBinAddr: 0x7FB50, symSize: 0x30 }
  - { offset: 0x44C645, size: 0x8, addend: 0x0, symName: __ZL24LLAMA_ROPE_SCALING_TYPES, symObjAddr: 0x5A17B8, symBinAddr: 0x3AF0C0, symSize: 0x0 }
  - { offset: 0x4AA7EC, size: 0x8, addend: 0x0, symName: __ZNSt3__111make_uniqueB8ne200100I20llm_build_nemotron_hJRK11llama_modelRK16llm_graph_paramsELi0EEENS_10unique_ptrIT_NS_14default_deleteIS9_EEEEDpOT0_, symObjAddr: 0x564A0, symBinAddr: 0xD5FB0, symSize: 0x60 }
  - { offset: 0x4AA892, size: 0x8, addend: 0x0, symName: __ZNSt3__111make_uniqueB8ne200100I14llm_build_phi3ILb1EEJRK11llama_modelRK16llm_graph_paramsELi0EEENS_10unique_ptrIT_NS_14default_deleteISA_EEEEDpOT0_, symObjAddr: 0x55540, symBinAddr: 0xD5050, symSize: 0x60 }
  - { offset: 0x4AA938, size: 0x8, addend: 0x0, symName: __ZNSt3__111make_uniqueB8ne200100I15llm_build_mambaJRK11llama_modelRK16llm_graph_paramsELi0EEENS_10unique_ptrIT_NS_14default_deleteIS9_EEEEDpOT0_, symObjAddr: 0x55C00, symBinAddr: 0xD5710, symSize: 0x60 }
  - { offset: 0x4AA9DE, size: 0x8, addend: 0x0, symName: __ZNSt3__111make_uniqueB8ne200100I14llm_build_lfm2JRK11llama_modelRK16llm_graph_paramsELi0EEENS_10unique_ptrIT_NS_14default_deleteIS9_EEEEDpOT0_, symObjAddr: 0x56E60, symBinAddr: 0xD6970, symSize: 0x60 }
  - { offset: 0x4AAA84, size: 0x8, addend: 0x0, symName: __ZNSt3__111make_uniqueB8ne200100I20llm_build_mimo2_iswaJRK11llama_modelRK16llm_graph_paramsELi0EEENS_10unique_ptrIT_NS_14default_deleteIS9_EEEEDpOT0_, symObjAddr: 0x57220, symBinAddr: 0xD6D30, symSize: 0x60 }
  - { offset: 0x4AAB2A, size: 0x8, addend: 0x0, symName: __ZNSt3__111make_uniqueB8ne200100I14llm_build_rnd1JRK11llama_modelRK16llm_graph_paramsELi0EEENS_10unique_ptrIT_NS_14default_deleteIS9_EEEEDpOT0_, symObjAddr: 0x55240, symBinAddr: 0xD4D50, symSize: 0x60 }
  - { offset: 0x4AABD0, size: 0x8, addend: 0x0, symName: __ZNSt3__111make_uniqueB8ne200100I16llm_build_cogvlmJRK11llama_modelRK16llm_graph_paramsELi0EEENS_10unique_ptrIT_NS_14default_deleteIS9_EEEEDpOT0_, symObjAddr: 0x570A0, symBinAddr: 0xD6BB0, symSize: 0x60 }
  - { offset: 0x4AAC76, size: 0x8, addend: 0x0, symName: __ZNSt3__111make_uniqueB8ne200100I17llm_build_smollm3JRK11llama_modelRK16llm_graph_paramsELi0EEENS_10unique_ptrIT_NS_14default_deleteIS9_EEEEDpOT0_, symObjAddr: 0x56D40, symBinAddr: 0xD6850, symSize: 0x60 }
  - { offset: 0x4AAD1C, size: 0x8, addend: 0x0, symName: __ZNSt3__111make_uniqueB8ne200100I15llm_build_afmoeJRK11llama_modelRK16llm_graph_paramsELi0EEENS_10unique_ptrIT_NS_14default_deleteIS9_EEEEDpOT0_, symObjAddr: 0x56B60, symBinAddr: 0xD6670, symSize: 0x60 }
  - { offset: 0x4AADC2, size: 0x8, addend: 0x0, symName: __ZNSt3__111make_uniqueB8ne200100I16llm_build_bitnetJRK11llama_modelRK16llm_graph_paramsELi0EEENS_10unique_ptrIT_NS_14default_deleteIS9_EEEEDpOT0_, symObjAddr: 0x562C0, symBinAddr: 0xD5DD0, symSize: 0x60 }
  - { offset: 0x4AAE68, size: 0x8, addend: 0x0, symName: __ZNSt3__111make_uniqueB8ne200100I20llm_build_exaone_moeJRK11llama_modelRK16llm_graph_paramsELi0EEENS_10unique_ptrIT_NS_14default_deleteIS9_EEEEDpOT0_, symObjAddr: 0x56620, symBinAddr: 0xD6130, symSize: 0x60 }
  - { offset: 0x4AAF0E, size: 0x8, addend: 0x0, symName: __ZNSt3__111make_uniqueB8ne200100I24llm_build_granite_hybridJRK11llama_modelRK16llm_graph_paramsELi0EEENS_10unique_ptrIT_NS_14default_deleteIS9_EEEEDpOT0_, symObjAddr: 0x56800, symBinAddr: 0xD6310, symSize: 0x60 }
  - { offset: 0x4AAFB4, size: 0x8, addend: 0x0, symName: __ZNSt3__111make_uniqueB8ne200100I18llm_build_grovemoeJRK11llama_modelRK16llm_graph_paramsELi0EEENS_10unique_ptrIT_NS_14default_deleteIS9_EEEEDpOT0_, symObjAddr: 0x56F80, symBinAddr: 0xD6A90, symSize: 0x60 }
  - { offset: 0x4AB05A, size: 0x8, addend: 0x0, symName: __ZNSt3__111make_uniqueB8ne200100I14llm_build_jaisJRK11llama_modelRK16llm_graph_paramsELi0EEENS_10unique_ptrIT_NS_14default_deleteIS9_EEEEDpOT0_, symObjAddr: 0x563E0, symBinAddr: 0xD5EF0, symSize: 0x60 }
  - { offset: 0x4AB100, size: 0x8, addend: 0x0, symName: __ZNSt3__111make_uniqueB8ne200100I18llm_build_mistral3JRK11llama_modelRK16llm_graph_paramsELi0EEENS_10unique_ptrIT_NS_14default_deleteIS9_EEEEDpOT0_, symObjAddr: 0x571C0, symBinAddr: 0xD6CD0, symSize: 0x60 }
  - { offset: 0x4AB1A6, size: 0x8, addend: 0x0, symName: __ZNSt3__111make_uniqueB8ne200100I24llm_build_pangu_embeddedJRK11llama_modelRK16llm_graph_paramsELi0EEENS_10unique_ptrIT_NS_14default_deleteIS9_EEEEDpOT0_, symObjAddr: 0x57100, symBinAddr: 0xD6C10, symSize: 0x60 }
  - { offset: 0x4AB24C, size: 0x8, addend: 0x0, symName: __ZNSt3__111make_uniqueB8ne200100I15llm_build_olmoeJRK11llama_modelRK16llm_graph_paramsELi0EEENS_10unique_ptrIT_NS_14default_deleteIS9_EEEEDpOT0_, symObjAddr: 0x55F60, symBinAddr: 0xD5A70, symSize: 0x60 }
  - { offset: 0x4AB2F2, size: 0x8, addend: 0x0, symName: __ZNSt3__111make_uniqueB8ne200100I16llm_build_arcticJRK11llama_modelRK16llm_graph_paramsELi0EEENS_10unique_ptrIT_NS_14default_deleteIS9_EEEEDpOT0_, symObjAddr: 0x56080, symBinAddr: 0xD5B90, symSize: 0x60 }
  - { offset: 0x4AB398, size: 0x8, addend: 0x0, symName: __ZNSt3__111make_uniqueB8ne200100I14llm_build_glm4JRK11llama_modelRK16llm_graph_paramsELi0EEENS_10unique_ptrIT_NS_14default_deleteIS9_EEEEDpOT0_, symObjAddr: 0x56200, symBinAddr: 0xD5D10, symSize: 0x60 }
  - { offset: 0x4AB43E, size: 0x8, addend: 0x0, symName: __ZNSt3__111make_uniqueB8ne200100I26llm_build_wavtokenizer_decJRK11llama_modelRK16llm_graph_paramsELi0EEENS_10unique_ptrIT_NS_14default_deleteIS9_EEEEDpOT0_, symObjAddr: 0x568C0, symBinAddr: 0xD63D0, symSize: 0x60 }
  - { offset: 0x4AB4E4, size: 0x8, addend: 0x0, symName: __ZNSt3__111make_uniqueB8ne200100I17llm_build_chatglmJRK11llama_modelRK16llm_graph_paramsELi0EEENS_10unique_ptrIT_NS_14default_deleteIS9_EEEEDpOT0_, symObjAddr: 0x561A0, symBinAddr: 0xD5CB0, symSize: 0x60 }
  - { offset: 0x4AB58A, size: 0x8, addend: 0x0, symName: __ZNSt3__111make_uniqueB8ne200100I22llm_build_gemma3n_iswaJRK11llama_modelRK16llm_graph_paramsELi0EEENS_10unique_ptrIT_NS_14default_deleteIS9_EEEEDpOT0_, symObjAddr: 0x55AE0, symBinAddr: 0xD55F0, symSize: 0x60 }
  - { offset: 0x4AB630, size: 0x8, addend: 0x0, symName: __ZNSt3__111make_uniqueB8ne200100I19llm_build_chameleonJRK11llama_modelRK16llm_graph_paramsELi0EEENS_10unique_ptrIT_NS_14default_deleteIS9_EEEEDpOT0_, symObjAddr: 0x56860, symBinAddr: 0xD6370, symSize: 0x60 }
  - { offset: 0x4AB6D6, size: 0x8, addend: 0x0, symName: __ZNSt3__111make_uniqueB8ne200100I15llm_build_gemmaJRK11llama_modelRK16llm_graph_paramsELi0EEENS_10unique_ptrIT_NS_14default_deleteIS9_EEEEDpOT0_, symObjAddr: 0x55960, symBinAddr: 0xD5470, symSize: 0x60 }
  - { offset: 0x4AB77C, size: 0x8, addend: 0x0, symName: __ZNSt3__111make_uniqueB8ne200100I18llm_build_deepseekJRK11llama_modelRK16llm_graph_paramsELi0EEENS_10unique_ptrIT_NS_14default_deleteIS9_EEEEDpOT0_, symObjAddr: 0x560E0, symBinAddr: 0xD5BF0, symSize: 0x60 }
  - { offset: 0x4AB822, size: 0x8, addend: 0x0, symName: __ZNSt3__111make_uniqueB8ne200100I18llm_build_glm4_moeJRK11llama_modelRK16llm_graph_paramsELi0EEENS_10unique_ptrIT_NS_14default_deleteIS9_EEEEDpOT0_, symObjAddr: 0x56260, symBinAddr: 0xD5D70, symSize: 0x60 }
  - { offset: 0x4AB8C8, size: 0x8, addend: 0x0, symName: __ZNSt3__111make_uniqueB8ne200100I19llm_build_deepseek2JRK11llama_modelRK16llm_graph_paramsELi0EEENS_10unique_ptrIT_NS_14default_deleteIS9_EEEEDpOT0_, symObjAddr: 0x56140, symBinAddr: 0xD5C50, symSize: 0x60 }
  - { offset: 0x4AB96E, size: 0x8, addend: 0x0, symName: __ZNSt3__111make_uniqueB8ne200100I15llm_build_rwkv6JRK11llama_modelRK16llm_graph_paramsELi0EEENS_10unique_ptrIT_NS_14default_deleteIS9_EEEEDpOT0_, symObjAddr: 0x56680, symBinAddr: 0xD6190, symSize: 0x60 }
  - { offset: 0x4ABA14, size: 0x8, addend: 0x0, symName: __ZNSt3__111make_uniqueB8ne200100I17llm_build_qwen2vlJRK11llama_modelRK16llm_graph_paramsELi0EEENS_10unique_ptrIT_NS_14default_deleteIS9_EEEEDpOT0_, symObjAddr: 0x552A0, symBinAddr: 0xD4DB0, symSize: 0x60 }
  - { offset: 0x4ABABA, size: 0x8, addend: 0x0, symName: __ZNSt3__111make_uniqueB8ne200100I23llm_build_hunyuan_denseJRK11llama_modelRK16llm_graph_paramsELi0EEENS_10unique_ptrIT_NS_14default_deleteIS9_EEEEDpOT0_, symObjAddr: 0x56CE0, symBinAddr: 0xD67F0, symSize: 0x60 }
  - { offset: 0x4ABB60, size: 0x8, addend: 0x0, symName: __ZNSt3__111make_uniqueB8ne200100I15llm_build_olmo2ILb1EEJRK11llama_modelRK16llm_graph_paramsELi0EEENS_10unique_ptrIT_NS_14default_deleteISA_EEEEDpOT0_, symObjAddr: 0x55EA0, symBinAddr: 0xD59B0, symSize: 0x60 }
  - { offset: 0x4ABC06, size: 0x8, addend: 0x0, symName: __ZNSt3__111make_uniqueB8ne200100I22llm_build_smallthinkerILb1EEJRK11llama_modelRK16llm_graph_paramsELi0EEENS_10unique_ptrIT_NS_14default_deleteISA_EEEEDpOT0_, symObjAddr: 0x56EC0, symBinAddr: 0xD69D0, symSize: 0x60 }
  - { offset: 0x4ABCAC, size: 0x8, addend: 0x0, symName: __ZNSt3__111make_uniqueB8ne200100I17llm_build_openelmJRK11llama_modelRK16llm_graph_paramsELi0EEENS_10unique_ptrIT_NS_14default_deleteIS9_EEEEDpOT0_, symObjAddr: 0x55FC0, symBinAddr: 0xD5AD0, symSize: 0x60 }
  - { offset: 0x4ABD52, size: 0x8, addend: 0x0, symName: __ZNSt3__111make_uniqueB8ne200100I25llm_build_openai_moe_iswaJRK11llama_modelRK16llm_graph_paramsELi0EEENS_10unique_ptrIT_NS_14default_deleteIS9_EEEEDpOT0_, symObjAddr: 0x56DA0, symBinAddr: 0xD68B0, symSize: 0x60 }
  - { offset: 0x4ABDF8, size: 0x8, addend: 0x0, symName: __ZNSt3__111make_uniqueB8ne200100I19llm_build_codeshellJRK11llama_modelRK16llm_graph_paramsELi0EEENS_10unique_ptrIT_NS_14default_deleteIS9_EEEEDpOT0_, symObjAddr: 0x557E0, symBinAddr: 0xD52F0, symSize: 0x60 }
  - { offset: 0x4ABE9E, size: 0x8, addend: 0x0, symName: __ZNSt3__111make_uniqueB8ne200100I16llm_build_plamo3ILb1EEJRK11llama_modelRK16llm_graph_paramsELi0EEENS_10unique_ptrIT_NS_14default_deleteISA_EEEEDpOT0_, symObjAddr: 0x556C0, symBinAddr: 0xD51D0, symSize: 0x60 }
  - { offset: 0x4ABF44, size: 0x8, addend: 0x0, symName: __ZNSt3__111make_uniqueB8ne200100I15llm_build_orionJRK11llama_modelRK16llm_graph_paramsELi0EEENS_10unique_ptrIT_NS_14default_deleteIS9_EEEEDpOT0_, symObjAddr: 0x55840, symBinAddr: 0xD5350, symSize: 0x60 }
  - { offset: 0x4ABFEA, size: 0x8, addend: 0x0, symName: __ZNSt3__111make_uniqueB8ne200100I14llm_build_qwenJRK11llama_modelRK16llm_graph_paramsELi0EEENS_10unique_ptrIT_NS_14default_deleteIS9_EEEEDpOT0_, symObjAddr: 0x55060, symBinAddr: 0xD4B70, symSize: 0x60 }
  - { offset: 0x4AC090, size: 0x8, addend: 0x0, symName: __ZNSt3__111make_uniqueB8ne200100I19llm_build_internlm2JRK11llama_modelRK16llm_graph_paramsELi0EEENS_10unique_ptrIT_NS_14default_deleteIS9_EEEEDpOT0_, symObjAddr: 0x558A0, symBinAddr: 0xD53B0, symSize: 0x60 }
  - { offset: 0x4AC136, size: 0x8, addend: 0x0, symName: __ZNSt3__111make_uniqueB8ne200100I22llm_build_cohere2_iswaJRK11llama_modelRK16llm_graph_paramsELi0EEENS_10unique_ptrIT_NS_14default_deleteIS9_EEEEDpOT0_, symObjAddr: 0x55D80, symBinAddr: 0xD5890, symSize: 0x60 }
  - { offset: 0x4AC1DC, size: 0x8, addend: 0x0, symName: __ZNSt3__111make_uniqueB8ne200100I21llm_build_bailingmoe2JRK11llama_modelRK16llm_graph_paramsELi0EEENS_10unique_ptrIT_NS_14default_deleteIS9_EEEEDpOT0_, symObjAddr: 0x569E0, symBinAddr: 0xD64F0, symSize: 0x60 }
  - { offset: 0x4AC282, size: 0x8, addend: 0x0, symName: __ZNSt3__111make_uniqueB8ne200100I15llm_build_dots1JRK11llama_modelRK16llm_graph_paramsELi0EEENS_10unique_ptrIT_NS_14default_deleteIS9_EEEEDpOT0_, symObjAddr: 0x56AA0, symBinAddr: 0xD65B0, symSize: 0x60 }
  - { offset: 0x4AC328, size: 0x8, addend: 0x0, symName: __ZNSt3__111make_uniqueB8ne200100I19llm_build_starcoderJRK11llama_modelRK16llm_graph_paramsELi0EEENS_10unique_ptrIT_NS_14default_deleteIS9_EEEEDpOT0_, symObjAddr: 0x54DC0, symBinAddr: 0xD48D0, symSize: 0x60 }
  - { offset: 0x4AC3CE, size: 0x8, addend: 0x0, symName: __ZNSt3__111make_uniqueB8ne200100I16llm_build_plamo2JRK11llama_modelRK16llm_graph_paramsELi0EEENS_10unique_ptrIT_NS_14default_deleteIS9_EEEEDpOT0_, symObjAddr: 0x55660, symBinAddr: 0xD5170, symSize: 0x60 }
  - { offset: 0x4AC474, size: 0x8, addend: 0x0, symName: __ZNSt3__111make_uniqueB8ne200100I18llm_build_stablelmJRK11llama_modelRK16llm_graph_paramsELi0EEENS_10unique_ptrIT_NS_14default_deleteIS9_EEEEDpOT0_, symObjAddr: 0x55000, symBinAddr: 0xD4B10, symSize: 0x60 }
  - { offset: 0x4AC51A, size: 0x8, addend: 0x0, symName: __ZNSt3__111make_uniqueB8ne200100I16llm_build_refactJRK11llama_modelRK16llm_graph_paramsELi0EEENS_10unique_ptrIT_NS_14default_deleteIS9_EEEEDpOT0_, symObjAddr: 0x54E20, symBinAddr: 0xD4930, symSize: 0x60 }
  - { offset: 0x4AC5C0, size: 0x8, addend: 0x0, symName: __ZNSt3__111make_uniqueB8ne200100I14llm_build_gpt2JRK11llama_modelRK16llm_graph_paramsELi0EEENS_10unique_ptrIT_NS_14default_deleteIS9_EEEEDpOT0_, symObjAddr: 0x55780, symBinAddr: 0xD5290, symSize: 0x60 }
  - { offset: 0x4AC666, size: 0x8, addend: 0x0, symName: __ZNSt3__111make_uniqueB8ne200100I13llm_build_mptJRK11llama_modelRK16llm_graph_paramsELi0EEENS_10unique_ptrIT_NS_14default_deleteIS9_EEEEDpOT0_, symObjAddr: 0x54FA0, symBinAddr: 0xD4AB0, symSize: 0x60 }
  - { offset: 0x4AC70C, size: 0x8, addend: 0x0, symName: __ZNSt3__111make_uniqueB8ne200100I14llm_build_deciJRK11llama_modelRK16llm_graph_paramsELi0EEENS_10unique_ptrIT_NS_14default_deleteIS9_EEEEDpOT0_, symObjAddr: 0x54C40, symBinAddr: 0xD4750, symSize: 0x60 }
  - { offset: 0x4AC7B2, size: 0x8, addend: 0x0, symName: __ZNSt3__111make_uniqueB8ne200100I16llm_build_falconJRK11llama_modelRK16llm_graph_paramsELi0EEENS_10unique_ptrIT_NS_14default_deleteIS9_EEEEDpOT0_, symObjAddr: 0x54D00, symBinAddr: 0xD4810, symSize: 0x60 }
  - { offset: 0x4AC858, size: 0x8, addend: 0x0, symName: __ZNSt3__111make_uniqueB8ne200100I14llm_build_dbrxJRK11llama_modelRK16llm_graph_paramsELi0EEENS_10unique_ptrIT_NS_14default_deleteIS9_EEEEDpOT0_, symObjAddr: 0x55DE0, symBinAddr: 0xD58F0, symSize: 0x60 }
  - { offset: 0x4AC8FE, size: 0x8, addend: 0x0, symName: __ZNSt3__111make_uniqueB8ne200100I18llm_build_neo_bertJRK11llama_modelRK16llm_graph_paramsELi0EEENS_10unique_ptrIT_NS_14default_deleteIS9_EEEEDpOT0_, symObjAddr: 0x54EE0, symBinAddr: 0xD49F0, symSize: 0x60 }
  - { offset: 0x4AC9A4, size: 0x8, addend: 0x0, symName: __ZNSt3__111make_uniqueB8ne200100I20llm_build_llama_iswaJRK11llama_modelRK16llm_graph_paramsELi0EEENS_10unique_ptrIT_NS_14default_deleteIS9_EEEEDpOT0_, symObjAddr: 0x54B20, symBinAddr: 0xD4630, symSize: 0x60 }
  - { offset: 0x4ACA4A, size: 0x8, addend: 0x0, symName: __ZNSt3__111make_uniqueB8ne200100I15llm_build_llamaILb0EEJRK11llama_modelRK16llm_graph_paramsELi0EEENS_10unique_ptrIT_NS_14default_deleteISA_EEEEDpOT0_, symObjAddr: 0x54AC0, symBinAddr: 0xD45D0, symSize: 0x60 }
  - { offset: 0x4ACAF0, size: 0x8, addend: 0x0, symName: __ZNSt3__111make_uniqueB8ne200100I15llm_build_qwen2JRK11llama_modelRK16llm_graph_paramsELi0EEENS_10unique_ptrIT_NS_14default_deleteIS9_EEEEDpOT0_, symObjAddr: 0x550C0, symBinAddr: 0xD4BD0, symSize: 0x60 }
  - { offset: 0x4ACB96, size: 0x8, addend: 0x0, symName: __ZNSt3__111make_uniqueB8ne200100I25llm_build_gemma_embeddingJRK11llama_modelRK16llm_graph_paramsELi0EEENS_10unique_ptrIT_NS_14default_deleteIS9_EEEEDpOT0_, symObjAddr: 0x55B40, symBinAddr: 0xD5650, symSize: 0x60 }
  - { offset: 0x4ACC3C, size: 0x8, addend: 0x0, symName: __ZNSt3__111make_uniqueB8ne200100I21llm_build_modern_bertJRK11llama_modelRK16llm_graph_paramsELi0EEENS_10unique_ptrIT_NS_14default_deleteIS9_EEEEDpOT0_, symObjAddr: 0x54E80, symBinAddr: 0xD4990, symSize: 0x60 }
  - { offset: 0x4ACCE2, size: 0x8, addend: 0x0, symName: __ZNSt3__111make_uniqueB8ne200100I18llm_build_baichuanJRK11llama_modelRK16llm_graph_paramsELi0EEENS_10unique_ptrIT_NS_14default_deleteIS9_EEEEDpOT0_, symObjAddr: 0x54CA0, symBinAddr: 0xD47B0, symSize: 0x60 }
  - { offset: 0x4ACD88, size: 0x8, addend: 0x0, symName: __ZNSt3__111make_uniqueB8ne200100I19llm_build_qwen3nextJRK11llama_modelRK16llm_graph_paramsELi0EEENS_10unique_ptrIT_NS_14default_deleteIS9_EEEEDpOT0_, symObjAddr: 0x57160, symBinAddr: 0xD6C70, symSize: 0x60 }
  - { offset: 0x4ACE2E, size: 0x8, addend: 0x0, symName: __ZNSt3__111make_uniqueB8ne200100I21llm_build_gemma2_iswaJRK11llama_modelRK16llm_graph_paramsELi0EEENS_10unique_ptrIT_NS_14default_deleteIS9_EEEEDpOT0_, symObjAddr: 0x559C0, symBinAddr: 0xD54D0, symSize: 0x60 }
  - { offset: 0x4ACED4, size: 0x8, addend: 0x0, symName: __ZNSt3__111make_uniqueB8ne200100I17llm_build_gptneoxJRK11llama_modelRK16llm_graph_paramsELi0EEENS_10unique_ptrIT_NS_14default_deleteIS9_EEEEDpOT0_, symObjAddr: 0x56020, symBinAddr: 0xD5B30, symSize: 0x60 }
  - { offset: 0x4ACF7A, size: 0x8, addend: 0x0, symName: __ZNSt3__111make_uniqueB8ne200100I14llm_build_grokJRK11llama_modelRK16llm_graph_paramsELi0EEENS_10unique_ptrIT_NS_14default_deleteIS9_EEEEDpOT0_, symObjAddr: 0x54D60, symBinAddr: 0xD4870, symSize: 0x60 }
  - { offset: 0x4AD020, size: 0x8, addend: 0x0, symName: __ZNSt3__111make_uniqueB8ne200100I20llm_build_qwen3vlmoeJRK11llama_modelRK16llm_graph_paramsELi0EEENS_10unique_ptrIT_NS_14default_deleteIS9_EEEEDpOT0_, symObjAddr: 0x55480, symBinAddr: 0xD4F90, symSize: 0x60 }
  - { offset: 0x4AD0C6, size: 0x8, addend: 0x0, symName: __ZNSt3__111make_uniqueB8ne200100I16llm_build_xverseJRK11llama_modelRK16llm_graph_paramsELi0EEENS_10unique_ptrIT_NS_14default_deleteIS9_EEEEDpOT0_, symObjAddr: 0x55CC0, symBinAddr: 0xD57D0, symSize: 0x60 }
  - { offset: 0x4AD16C, size: 0x8, addend: 0x0, symName: __ZNSt3__111make_uniqueB8ne200100I14llm_build_phi2JRK11llama_modelRK16llm_graph_paramsELi0EEENS_10unique_ptrIT_NS_14default_deleteIS9_EEEEDpOT0_, symObjAddr: 0x554E0, symBinAddr: 0xD4FF0, symSize: 0x60 }
  - { offset: 0x4AD212, size: 0x8, addend: 0x0, symName: __ZNSt3__111make_uniqueB8ne200100I15llm_build_plamoJRK11llama_modelRK16llm_graph_paramsELi0EEENS_10unique_ptrIT_NS_14default_deleteIS9_EEEEDpOT0_, symObjAddr: 0x55600, symBinAddr: 0xD5110, symSize: 0x60 }
  - { offset: 0x4AD2B8, size: 0x8, addend: 0x0, symName: __ZNSt3__111make_uniqueB8ne200100I19llm_build_falcon_h1JRK11llama_modelRK16llm_graph_paramsELi0EEENS_10unique_ptrIT_NS_14default_deleteIS9_EEEEDpOT0_, symObjAddr: 0x56E00, symBinAddr: 0xD6910, symSize: 0x60 }
  - { offset: 0x4AD35E, size: 0x8, addend: 0x0, symName: __ZNSt3__111make_uniqueB8ne200100I19llm_build_maincoderJRK11llama_modelRK16llm_graph_paramsELi0EEENS_10unique_ptrIT_NS_14default_deleteIS9_EEEEDpOT0_, symObjAddr: 0x54BE0, symBinAddr: 0xD46F0, symSize: 0x60 }
  - { offset: 0x4AD404, size: 0x8, addend: 0x0, symName: __ZNSt3__111make_uniqueB8ne200100I15llm_build_bloomJRK11llama_modelRK16llm_graph_paramsELi0EEENS_10unique_ptrIT_NS_14default_deleteIS9_EEEEDpOT0_, symObjAddr: 0x54F40, symBinAddr: 0xD4A50, symSize: 0x60 }
  - { offset: 0x4AD4AA, size: 0x8, addend: 0x0, symName: __ZNSt3__111make_uniqueB8ne200100I15llm_build_jambaJRK11llama_modelRK16llm_graph_paramsELi0EEENS_10unique_ptrIT_NS_14default_deleteIS9_EEEEDpOT0_, symObjAddr: 0x55C60, symBinAddr: 0xD5770, symSize: 0x60 }
  - { offset: 0x4AD550, size: 0x8, addend: 0x0, symName: __ZNSt3__111make_uniqueB8ne200100I16llm_build_exaoneJRK11llama_modelRK16llm_graph_paramsELi0EEENS_10unique_ptrIT_NS_14default_deleteIS9_EEEEDpOT0_, symObjAddr: 0x56500, symBinAddr: 0xD6010, symSize: 0x60 }
  - { offset: 0x4AD5F6, size: 0x8, addend: 0x0, symName: __ZNSt3__111make_uniqueB8ne200100I15llm_build_qwen3JRK11llama_modelRK16llm_graph_paramsELi0EEENS_10unique_ptrIT_NS_14default_deleteIS9_EEEEDpOT0_, symObjAddr: 0x55360, symBinAddr: 0xD4E70, symSize: 0x60 }
  - { offset: 0x4AD69C, size: 0x8, addend: 0x0, symName: __ZNSt3__111make_uniqueB8ne200100I18llm_build_qwen2moeJRK11llama_modelRK16llm_graph_paramsELi0EEENS_10unique_ptrIT_NS_14default_deleteIS9_EEEEDpOT0_, symObjAddr: 0x55300, symBinAddr: 0xD4E10, symSize: 0x60 }
  - { offset: 0x4AD742, size: 0x8, addend: 0x0, symName: __ZNSt3__111make_uniqueB8ne200100I17llm_build_qwen3vlJRK11llama_modelRK16llm_graph_paramsELi0EEENS_10unique_ptrIT_NS_14default_deleteIS9_EEEEDpOT0_, symObjAddr: 0x55420, symBinAddr: 0xD4F30, symSize: 0x60 }
  - { offset: 0x4AD7E8, size: 0x8, addend: 0x0, symName: __ZNSt3__111make_uniqueB8ne200100I17llm_build_exaone4ILb1EEJRK11llama_modelRK16llm_graph_paramsELi0EEENS_10unique_ptrIT_NS_14default_deleteISA_EEEEDpOT0_, symObjAddr: 0x56560, symBinAddr: 0xD6070, symSize: 0x60 }
  - { offset: 0x4AD88E, size: 0x8, addend: 0x0, symName: __ZNSt3__111make_uniqueB8ne200100I18llm_build_qwen3moeJRK11llama_modelRK16llm_graph_paramsELi0EEENS_10unique_ptrIT_NS_14default_deleteIS9_EEEEDpOT0_, symObjAddr: 0x553C0, symBinAddr: 0xD4ED0, symSize: 0x60 }
  - { offset: 0x4AD934, size: 0x8, addend: 0x0, symName: __ZNSt3__111make_uniqueB8ne200100I15llm_build_rwkv7JRK11llama_modelRK16llm_graph_paramsELi0EEENS_10unique_ptrIT_NS_14default_deleteIS9_EEEEDpOT0_, symObjAddr: 0x56740, symBinAddr: 0xD6250, symSize: 0x60 }
  - { offset: 0x4AD9DA, size: 0x8, addend: 0x0, symName: __ZNSt3__111make_uniqueB8ne200100I20llm_build_starcoder2JRK11llama_modelRK16llm_graph_paramsELi0EEENS_10unique_ptrIT_NS_14default_deleteIS9_EEEEDpOT0_, symObjAddr: 0x55BA0, symBinAddr: 0xD56B0, symSize: 0x60 }
  - { offset: 0x4ADA80, size: 0x8, addend: 0x0, symName: __ZNSt3__111make_uniqueB8ne200100I15llm_build_arceeJRK11llama_modelRK16llm_graph_paramsELi0EEENS_10unique_ptrIT_NS_14default_deleteIS9_EEEEDpOT0_, symObjAddr: 0x56B00, symBinAddr: 0xD6610, symSize: 0x60 }
  - { offset: 0x4ADB26, size: 0x8, addend: 0x0, symName: __ZNSt3__111make_uniqueB8ne200100I16llm_build_t5_encJRK11llama_modelRK16llm_graph_paramsELi0EEENS_10unique_ptrIT_NS_14default_deleteIS9_EEEEDpOT0_, symObjAddr: 0x56320, symBinAddr: 0xD5E30, symSize: 0x60 }
  - { offset: 0x4ADBCC, size: 0x8, addend: 0x0, symName: __ZNSt3__111make_uniqueB8ne200100I20llm_build_minimax_m2JRK11llama_modelRK16llm_graph_paramsELi0EEENS_10unique_ptrIT_NS_14default_deleteIS9_EEEEDpOT0_, symObjAddr: 0x57040, symBinAddr: 0xD6B50, symSize: 0x60 }
  - { offset: 0x4ADC72, size: 0x8, addend: 0x0, symName: __ZNSt3__111make_uniqueB8ne200100I17llm_build_apertusJRK11llama_modelRK16llm_graph_paramsELi0EEENS_10unique_ptrIT_NS_14default_deleteIS9_EEEEDpOT0_, symObjAddr: 0x56FE0, symBinAddr: 0xD6AF0, symSize: 0x60 }
  - { offset: 0x4ADD18, size: 0x8, addend: 0x0, symName: __ZNSt3__111make_uniqueB8ne200100I16llm_build_gemma3ILb1EEJRK11llama_modelRK16llm_graph_paramsELi0EEENS_10unique_ptrIT_NS_14default_deleteISA_EEEEDpOT0_, symObjAddr: 0x55A20, symBinAddr: 0xD5530, symSize: 0x60 }
  - { offset: 0x4ADDBE, size: 0x8, addend: 0x0, symName: __ZNSt3__111make_uniqueB8ne200100I18llm_build_seed_ossJRK11llama_modelRK16llm_graph_paramsELi0EEENS_10unique_ptrIT_NS_14default_deleteIS9_EEEEDpOT0_, symObjAddr: 0x56A40, symBinAddr: 0xD6550, symSize: 0x60 }
  - { offset: 0x4ADE64, size: 0x8, addend: 0x0, symName: __ZNSt3__111make_uniqueB8ne200100I19llm_build_command_rJRK11llama_modelRK16llm_graph_paramsELi0EEENS_10unique_ptrIT_NS_14default_deleteIS9_EEEEDpOT0_, symObjAddr: 0x55D20, symBinAddr: 0xD5830, symSize: 0x60 }
  - { offset: 0x4ADF0A, size: 0x8, addend: 0x0, symName: __ZNSt3__111make_uniqueB8ne200100I18llm_build_minicpm3JRK11llama_modelRK16llm_graph_paramsELi0EEENS_10unique_ptrIT_NS_14default_deleteIS9_EEEEDpOT0_, symObjAddr: 0x55900, symBinAddr: 0xD5410, symSize: 0x60 }
  - { offset: 0x4ADFB0, size: 0x8, addend: 0x0, symName: __ZNSt3__111make_uniqueB8ne200100I18llm_build_nemotronJRK11llama_modelRK16llm_graph_paramsELi0EEENS_10unique_ptrIT_NS_14default_deleteIS9_EEEEDpOT0_, symObjAddr: 0x56440, symBinAddr: 0xD5F50, symSize: 0x60 }
  - { offset: 0x4AE056, size: 0x8, addend: 0x0, symName: __ZNSt3__111make_uniqueB8ne200100I19llm_build_llada_moeJRK11llama_modelRK16llm_graph_paramsELi0EEENS_10unique_ptrIT_NS_14default_deleteIS9_EEEEDpOT0_, symObjAddr: 0x551E0, symBinAddr: 0xD4CF0, symSize: 0x60 }
  - { offset: 0x4AE0FC, size: 0x8, addend: 0x0, symName: __ZNSt3__111make_uniqueB8ne200100I14llm_build_olmoJRK11llama_modelRK16llm_graph_paramsELi0EEENS_10unique_ptrIT_NS_14default_deleteIS9_EEEEDpOT0_, symObjAddr: 0x55E40, symBinAddr: 0xD5950, symSize: 0x60 }
  - { offset: 0x4AE1A2, size: 0x8, addend: 0x0, symName: __ZNSt3__111make_uniqueB8ne200100I22llm_build_ernie4_5_moeJRK11llama_modelRK16llm_graph_paramsELi0EEENS_10unique_ptrIT_NS_14default_deleteIS9_EEEEDpOT0_, symObjAddr: 0x56C20, symBinAddr: 0xD6730, symSize: 0x60 }
  - { offset: 0x4AE248, size: 0x8, addend: 0x0, symName: __ZNSt3__111make_uniqueB8ne200100I18llm_build_ernie4_5JRK11llama_modelRK16llm_graph_paramsELi0EEENS_10unique_ptrIT_NS_14default_deleteIS9_EEEEDpOT0_, symObjAddr: 0x56BC0, symBinAddr: 0xD66D0, symSize: 0x60 }
  - { offset: 0x4AE2EE, size: 0x8, addend: 0x0, symName: __ZNSt3__111make_uniqueB8ne200100I20llm_build_bailingmoeJRK11llama_modelRK16llm_graph_paramsELi0EEENS_10unique_ptrIT_NS_14default_deleteIS9_EEEEDpOT0_, symObjAddr: 0x56980, symBinAddr: 0xD6490, symSize: 0x60 }
  - { offset: 0x4AE394, size: 0x8, addend: 0x0, symName: __ZNSt3__111make_uniqueB8ne200100I13llm_build_plmJRK11llama_modelRK16llm_graph_paramsELi0EEENS_10unique_ptrIT_NS_14default_deleteIS9_EEEEDpOT0_, symObjAddr: 0x56920, symBinAddr: 0xD6430, symSize: 0x60 }
  - { offset: 0x4AE43A, size: 0x8, addend: 0x0, symName: __ZNSt3__111make_uniqueB8ne200100I15llm_build_dreamJRK11llama_modelRK16llm_graph_paramsELi0EEENS_10unique_ptrIT_NS_14default_deleteIS9_EEEEDpOT0_, symObjAddr: 0x55120, symBinAddr: 0xD4C30, symSize: 0x60 }
  - { offset: 0x4AE4E0, size: 0x8, addend: 0x0, symName: __ZNSt3__111make_uniqueB8ne200100I16llm_build_arwkv7JRK11llama_modelRK16llm_graph_paramsELi0EEENS_10unique_ptrIT_NS_14default_deleteIS9_EEEEDpOT0_, symObjAddr: 0x567A0, symBinAddr: 0xD62B0, symSize: 0x60 }
  - { offset: 0x4AE586, size: 0x8, addend: 0x0, symName: __ZNSt3__111make_uniqueB8ne200100I20llm_build_rwkv6qwen2JRK11llama_modelRK16llm_graph_paramsELi0EEENS_10unique_ptrIT_NS_14default_deleteIS9_EEEEDpOT0_, symObjAddr: 0x566E0, symBinAddr: 0xD61F0, symSize: 0x60 }
  - { offset: 0x4AE62C, size: 0x8, addend: 0x0, symName: __ZNSt3__111make_uniqueB8ne200100I15llm_build_lladaJRK11llama_modelRK16llm_graph_paramsELi0EEENS_10unique_ptrIT_NS_14default_deleteIS9_EEEEDpOT0_, symObjAddr: 0x55180, symBinAddr: 0xD4C90, symSize: 0x60 }
  - { offset: 0x4AE6D2, size: 0x8, addend: 0x0, symName: __ZNSt3__111make_uniqueB8ne200100I21llm_build_hunyuan_moeJRK11llama_modelRK16llm_graph_paramsELi0EEENS_10unique_ptrIT_NS_14default_deleteIS9_EEEEDpOT0_, symObjAddr: 0x56C80, symBinAddr: 0xD6790, symSize: 0x60 }
  - { offset: 0x4AE778, size: 0x8, addend: 0x0, symName: __ZNSt3__111make_uniqueB8ne200100I15llm_build_llamaILb1EEJRK11llama_modelRK16llm_graph_paramsELi0EEENS_10unique_ptrIT_NS_14default_deleteISA_EEEEDpOT0_, symObjAddr: 0x54B80, symBinAddr: 0xD4690, symSize: 0x60 }
  - { offset: 0x4AE81E, size: 0x8, addend: 0x0, symName: __ZNSt3__111make_uniqueB8ne200100I14llm_build_phi3ILb0EEJRK11llama_modelRK16llm_graph_paramsELi0EEENS_10unique_ptrIT_NS_14default_deleteISA_EEEEDpOT0_, symObjAddr: 0x555A0, symBinAddr: 0xD50B0, symSize: 0x60 }
  - { offset: 0x4AE8C4, size: 0x8, addend: 0x0, symName: __ZNSt3__111make_uniqueB8ne200100I16llm_build_t5_decJRK11llama_modelRK16llm_graph_paramsELi0EEENS_10unique_ptrIT_NS_14default_deleteIS9_EEEEDpOT0_, symObjAddr: 0x56380, symBinAddr: 0xD5E90, symSize: 0x60 }
  - { offset: 0x4AE96A, size: 0x8, addend: 0x0, symName: __ZNSt3__111make_uniqueB8ne200100I15llm_build_olmo2ILb0EEJRK11llama_modelRK16llm_graph_paramsELi0EEENS_10unique_ptrIT_NS_14default_deleteISA_EEEEDpOT0_, symObjAddr: 0x55F00, symBinAddr: 0xD5A10, symSize: 0x60 }
  - { offset: 0x4AEA10, size: 0x8, addend: 0x0, symName: __ZNSt3__111make_uniqueB8ne200100I22llm_build_smallthinkerILb0EEJRK11llama_modelRK16llm_graph_paramsELi0EEENS_10unique_ptrIT_NS_14default_deleteISA_EEEEDpOT0_, symObjAddr: 0x56F20, symBinAddr: 0xD6A30, symSize: 0x60 }
  - { offset: 0x4AEAB6, size: 0x8, addend: 0x0, symName: __ZNSt3__111make_uniqueB8ne200100I17llm_build_exaone4ILb0EEJRK11llama_modelRK16llm_graph_paramsELi0EEENS_10unique_ptrIT_NS_14default_deleteISA_EEEEDpOT0_, symObjAddr: 0x565C0, symBinAddr: 0xD60D0, symSize: 0x60 }
  - { offset: 0x4AEB5C, size: 0x8, addend: 0x0, symName: __ZNSt3__111make_uniqueB8ne200100I16llm_build_gemma3ILb0EEJRK11llama_modelRK16llm_graph_paramsELi0EEENS_10unique_ptrIT_NS_14default_deleteISA_EEEEDpOT0_, symObjAddr: 0x55A80, symBinAddr: 0xD5590, symSize: 0x60 }
  - { offset: 0x4AEC02, size: 0x8, addend: 0x0, symName: __ZNSt3__111make_uniqueB8ne200100I16llm_build_plamo3ILb0EEJRK11llama_modelRK16llm_graph_paramsELi0EEENS_10unique_ptrIT_NS_14default_deleteISA_EEEEDpOT0_, symObjAddr: 0x55720, symBinAddr: 0xD5230, symSize: 0x60 }
  - { offset: 0x4BEE77, size: 0x8, addend: 0x0, symName: __ZN11llama_model12load_tensorsER18llama_model_loader, symObjAddr: 0x6BA0, symBinAddr: 0x866B0, symSize: 0x49870 }
  - { offset: 0x5687BB, size: 0x8, addend: 0x0, symName: __ZNK11llama_model10print_infoEv, symObjAddr: 0x51A20, symBinAddr: 0xD1530, symSize: 0x1400 }
  - { offset: 0x56BCA1, size: 0x8, addend: 0x0, symName: __ZNK11llama_model13create_memoryERK19llama_memory_paramsRK13llama_cparams, symObjAddr: 0x53650, symBinAddr: 0xD3160, symSize: 0x770 }
  - { offset: 0x5744E9, size: 0x8, addend: 0x0, symName: __Z13llm_type_name8llm_type, symObjAddr: 0x0, symBinAddr: 0x7FB90, symSize: 0x30 }
  - { offset: 0x57458B, size: 0x8, addend: 0x0, symName: __ZNSt3__13mapI23llama_rope_scaling_typePKcNS_4lessIS1_EENS_9allocatorINS_4pairIKS1_S3_EEEEED1B8ne200100Ev, symObjAddr: 0x30, symBinAddr: 0x7FBC0, symSize: 0x10 }
  - { offset: 0x57463E, size: 0x8, addend: 0x0, symName: __ZNSt3__16__treeINS_12__value_typeI23llama_rope_scaling_typePKcEENS_19__map_value_compareIS2_S5_NS_4lessIS2_EELb1EEENS_9allocatorIS5_EEE7destroyEPNS_11__tree_nodeIS5_PvEE, symObjAddr: 0x646A0, symBinAddr: 0xDBB10, symSize: 0x40 }
  - { offset: 0x574A91, size: 0x8, addend: 0x0, symName: __Z28llama_rope_scaling_type_name23llama_rope_scaling_type, symObjAddr: 0x40, symBinAddr: 0x7FBD0, symSize: 0xD0 }
  - { offset: 0x575375, size: 0x8, addend: 0x0, symName: __ZN11llama_modelC2ERK18llama_model_params, symObjAddr: 0x110, symBinAddr: 0x7FCA0, symSize: 0x370 }
  - { offset: 0x575A77, size: 0x8, addend: 0x0, symName: __ZNSt3__113unordered_setIP18llama_adapter_loraNS_4hashIS2_EENS_8equal_toIS2_EENS_9allocatorIS2_EEED1B8ne200100Ev, symObjAddr: 0x480, symBinAddr: 0x80010, symSize: 0x50 }
  - { offset: 0x575CFB, size: 0x8, addend: 0x0, symName: __ZNSt3__16vectorINS_4pairINS_12basic_stringIcNS_11char_traitsIcEENS_9allocatorIcEEEEP11ggml_tensorEENS5_ISA_EEED1B8ne200100Ev, symObjAddr: 0x4D0, symBinAddr: 0x80060, symSize: 0x70 }
  - { offset: 0x575F83, size: 0x8, addend: 0x0, symName: __ZNSt3__113unordered_mapINS_12basic_stringIcNS_11char_traitsIcEENS_9allocatorIcEEEES6_NS_4hashIS6_EENS_8equal_toIS6_EENS4_INS_4pairIKS6_S6_EEEEED1B8ne200100Ev, symObjAddr: 0x540, symBinAddr: 0x800D0, symSize: 0x80 }
  - { offset: 0x576CF7, size: 0x8, addend: 0x0, symName: __ZN11llama_modelC1ERK18llama_model_params, symObjAddr: 0x630, symBinAddr: 0x80150, symSize: 0x10 }
  - { offset: 0x576E7A, size: 0x8, addend: 0x0, symName: __ZN11llama_modelD2Ev, symObjAddr: 0x640, symBinAddr: 0x80160, symSize: 0x220 }
  - { offset: 0x578888, size: 0x8, addend: 0x0, symName: __ZN11llama_model4implD2Ev, symObjAddr: 0x646E0, symBinAddr: 0xDBB50, symSize: 0x1B0 }
  - { offset: 0x579342, size: 0x8, addend: 0x0, symName: __ZN11llama_modelD1Ev, symObjAddr: 0x870, symBinAddr: 0x80380, symSize: 0x10 }
  - { offset: 0x579394, size: 0x8, addend: 0x0, symName: __ZN11llama_model10load_statsER18llama_model_loader, symObjAddr: 0x880, symBinAddr: 0x80390, symSize: 0x20 }
  - { offset: 0x57943E, size: 0x8, addend: 0x0, symName: __ZN11llama_model9load_archER18llama_model_loader, symObjAddr: 0x8A0, symBinAddr: 0x803B0, symSize: 0x160 }
  - { offset: 0x579B23, size: 0x8, addend: 0x0, symName: __ZN11llama_model12load_hparamsER18llama_model_loader, symObjAddr: 0xA00, symBinAddr: 0x80510, symSize: 0x5DA0 }
  - { offset: 0x57C645, size: 0x8, addend: 0x0, symName: _llama_model_rope_type, symObjAddr: 0x6900, symBinAddr: 0x86410, symSize: 0x250 }
  - { offset: 0x57C69B, size: 0x8, addend: 0x0, symName: __ZNK11llama_model9arch_nameEv, symObjAddr: 0x67A0, symBinAddr: 0x862B0, symSize: 0xB0 }
  - { offset: 0x57C994, size: 0x8, addend: 0x0, symName: __ZNK11llama_model9type_nameEv, symObjAddr: 0x6850, symBinAddr: 0x86360, symSize: 0xB0 }
  - { offset: 0x57CC8D, size: 0x8, addend: 0x0, symName: __ZN11llama_model10load_vocabER18llama_model_loader, symObjAddr: 0x6B50, symBinAddr: 0x86660, symSize: 0x50 }
  - { offset: 0x5802C4, size: 0x8, addend: 0x0, symName: __ZNSt3__16vectorINS_4pairIP19ggml_backend_deviceP24ggml_backend_buffer_typeEENS_9allocatorIS6_EEE18__insert_with_sizeB8ne200100INS_11__wrap_iterIPS6_EESD_EESD_NSB_IPKS6_EET_T0_l, symObjAddr: 0x658E0, symBinAddr: 0xDBE10, symSize: 0x300 }
  - { offset: 0x580F23, size: 0x8, addend: 0x0, symName: __ZNSt3__16vectorIN11llama_model4impl9layer_devENS_9allocatorIS3_EEE8__appendEm, symObjAddr: 0x65BF0, symBinAddr: 0xDC110, symSize: 0x140 }
  - { offset: 0x581358, size: 0x8, addend: 0x0, symName: '__ZZN11llama_model12load_tensorsER18llama_model_loaderENK3$_1clEi', symObjAddr: 0x50450, symBinAddr: 0xCFF60, symSize: 0x190 }
  - { offset: 0x58162D, size: 0x8, addend: 0x0, symName: __ZNSt3__16vectorI11llama_layerNS_9allocatorIS1_EEE8__appendEm, symObjAddr: 0x65DB0, symBinAddr: 0xDC2D0, symSize: 0x1C0 }
  - { offset: 0x581A9F, size: 0x8, addend: 0x0, symName: '__ZZN11llama_model12load_tensorsER18llama_model_loaderENK3$_3clERK11LLM_TN_IMPLRKSt16initializer_listIxEi', symObjAddr: 0x50630, symBinAddr: 0xD0140, symSize: 0xC80 }
  - { offset: 0x5838E4, size: 0x8, addend: 0x0, symName: __ZNSt3__16vectorI11llama_layerNS_9allocatorIS1_EEE6resizeEm, symObjAddr: 0x505E0, symBinAddr: 0xD00F0, symSize: 0x50 }
  - { offset: 0x5839AE, size: 0x8, addend: 0x0, symName: __ZNSt3__16vectorINS_4pairIP12ggml_contextNS_13unordered_mapIjP19ggml_backend_bufferNS_4hashIjEENS_8equal_toIjEENS_9allocatorINS1_IKjS6_EEEEEEEENSB_ISG_EEE7reserveEm, symObjAddr: 0x512B0, symBinAddr: 0xD0DC0, symSize: 0x110 }
  - { offset: 0x583F77, size: 0x8, addend: 0x0, symName: __ZNSt3__114__split_bufferINS_4pairINS_10unique_ptrI12ggml_context20ggml_context_deleterEENS_6vectorINS2_I19ggml_backend_buffer27ggml_backend_buffer_deleterEENS_9allocatorIS9_EEEEEERNSA_ISD_EEE17__destruct_at_endB8ne200100EPSD_, symObjAddr: 0x661F0, symBinAddr: 0xDC700, symSize: 0xE0 }
  - { offset: 0x58427E, size: 0x8, addend: 0x0, symName: __ZNSt3__112__hash_tableINS_17__hash_value_typeIjP19ggml_backend_bufferEENS_22__unordered_map_hasherIjS4_NS_4hashIjEENS_8equal_toIjEELb1EEENS_21__unordered_map_equalIjS4_S9_S7_Lb1EEENS_9allocatorIS4_EEE11__do_rehashILb1EEEvm, symObjAddr: 0x66320, symBinAddr: 0xDC830, symSize: 0x1B0 }
  - { offset: 0x584664, size: 0x8, addend: 0x0, symName: __ZNSt3__112__hash_tableINS_17__hash_value_typeIjP19ggml_backend_bufferEENS_22__unordered_map_hasherIjS4_NS_4hashIjEENS_8equal_toIjEELb1EEENS_21__unordered_map_equalIjS4_S9_S7_Lb1EEENS_9allocatorIS4_EEE25__emplace_unique_key_argsIjJRjRS3_EEENS_4pairINS_15__hash_iteratorIPNS_11__hash_nodeIS4_PvEEEEbEERKT_DpOT0_, symObjAddr: 0x664E0, symBinAddr: 0xDC9E0, symSize: 0x450 }
  - { offset: 0x584E8A, size: 0x8, addend: 0x0, symName: __ZNSt3__16vectorINS_4pairINS_10unique_ptrI12ggml_context20ggml_context_deleterEENS0_INS2_I19ggml_backend_buffer27ggml_backend_buffer_deleterEENS_9allocatorIS8_EEEEEENS9_ISC_EEE24__emplace_back_slow_pathIJS5_SB_EEEPSC_DpOT_, symObjAddr: 0x66940, symBinAddr: 0xDCE30, symSize: 0x150 }
  - { offset: 0x5853C6, size: 0x8, addend: 0x0, symName: __ZNSt3__113unordered_mapIjP19ggml_backend_bufferNS_4hashIjEENS_8equal_toIjEENS_9allocatorINS_4pairIKjS2_EEEEEC2ERKSC_, symObjAddr: 0x66C30, symBinAddr: 0xDD120, symSize: 0x1C0 }
  - { offset: 0x58577D, size: 0x8, addend: 0x0, symName: __ZNSt3__16vectorINS_4pairIP12ggml_contextNS_13unordered_mapIjP19ggml_backend_bufferNS_4hashIjEENS_8equal_toIjEENS_9allocatorINS1_IKjS6_EEEEEEEENSB_ISG_EEE24__emplace_back_slow_pathIJRS3_RSF_EEEPSG_DpOT_, symObjAddr: 0x66A90, symBinAddr: 0xDCF80, symSize: 0x1A0 }
  - { offset: 0x585EB7, size: 0x8, addend: 0x0, symName: __ZNSt3__16vectorINS_4pairINS_12basic_stringIcNS_11char_traitsIcEENS_9allocatorIcEEEEP11ggml_tensorEENS5_ISA_EEE24__emplace_back_slow_pathIJPKcRS9_EEEPSA_DpOT_, symObjAddr: 0x67220, symBinAddr: 0xDD710, symSize: 0x1C0 }
  - { offset: 0x5865B9, size: 0x8, addend: 0x0, symName: __ZNSt3__16__treeINS_12__value_typeIP24ggml_backend_buffer_typeNS_10unique_ptrI12ggml_context20ggml_context_deleterEEEENS_19__map_value_compareIS3_S8_ZN11llama_model12load_tensorsER18llama_model_loaderE28ggml_backend_buft_comparatorLb1EEENS_9allocatorIS8_EEE7destroyEPNS_11__tree_nodeIS8_PvEE, symObjAddr: 0x65D40, symBinAddr: 0xDC260, symSize: 0x60 }
  - { offset: 0x5867B3, size: 0x8, addend: 0x0, symName: __ZNSt3__16vectorINS_4pairIP19ggml_backend_deviceP24ggml_backend_buffer_typeEENS_9allocatorIS6_EEE20__throw_length_errorB8ne200100Ev, symObjAddr: 0x57BB0, symBinAddr: 0xD7470, symSize: 0x10 }
  - { offset: 0x5867E0, size: 0x8, addend: 0x0, symName: __ZNSt3__112__hash_tableINS_17__hash_value_typeIjP19ggml_backend_bufferEENS_22__unordered_map_hasherIjS4_NS_4hashIjEENS_8equal_toIjEELb1EEENS_21__unordered_map_equalIjS4_S9_S7_Lb1EEENS_9allocatorIS4_EEE25__emplace_unique_key_argsIjJRjRS3_EEENS_4pairINS_15__hash_iteratorIPNS_11__hash_nodeIS4_PvEEEEbEERKT_DpOT0_, symObjAddr: 0x664E0, symBinAddr: 0xDC9E0, symSize: 0x450 }
  - { offset: 0x5867F5, size: 0x8, addend: 0x0, symName: __ZNSt3__16vectorINS_4pairIP12ggml_contextNS_13unordered_mapIjP19ggml_backend_bufferNS_4hashIjEENS_8equal_toIjEENS_9allocatorINS1_IKjS6_EEEEEEEENSB_ISG_EEE20__throw_length_errorB8ne200100Ev, symObjAddr: 0x65F90, symBinAddr: 0xDC4A0, symSize: 0x10 }
  - { offset: 0x58680A, size: 0x8, addend: 0x0, symName: __ZNSt3__16vectorINS_4pairINS_10unique_ptrI12ggml_context20ggml_context_deleterEENS0_INS2_I19ggml_backend_buffer27ggml_backend_buffer_deleterEENS_9allocatorIS8_EEEEEENS9_ISC_EEE24__emplace_back_slow_pathIJS5_SB_EEEPSC_DpOT_, symObjAddr: 0x66940, symBinAddr: 0xDCE30, symSize: 0x150 }
  - { offset: 0x586815, size: 0x8, addend: 0x0, symName: __ZNSt3__16vectorINS_4pairINS_10unique_ptrI12ggml_context20ggml_context_deleterEENS0_INS2_I19ggml_backend_buffer27ggml_backend_buffer_deleterEENS_9allocatorIS8_EEEEEENS9_ISC_EEE20__throw_length_errorB8ne200100Ev, symObjAddr: 0x661E0, symBinAddr: 0xDC6F0, symSize: 0x10 }
  - { offset: 0x58682D, size: 0x8, addend: 0x0, symName: __ZNSt3__114__split_bufferINS_4pairINS_10unique_ptrI12ggml_context20ggml_context_deleterEENS_6vectorINS2_I19ggml_backend_buffer27ggml_backend_buffer_deleterEENS_9allocatorIS9_EEEEEERNSA_ISD_EEE17__destruct_at_endB8ne200100EPSD_, symObjAddr: 0x661F0, symBinAddr: 0xDC700, symSize: 0xE0 }
  - { offset: 0x586842, size: 0x8, addend: 0x0, symName: __ZNSt3__16vectorIN11llama_model4impl9layer_devENS_9allocatorIS3_EEE8__appendEm, symObjAddr: 0x65BF0, symBinAddr: 0xDC110, symSize: 0x140 }
  - { offset: 0x58684D, size: 0x8, addend: 0x0, symName: __ZNSt3__16vectorINS_10unique_ptrI19ggml_backend_buffer27ggml_backend_buffer_deleterEENS_9allocatorIS4_EEED1B8ne200100Ev, symObjAddr: 0x513C0, symBinAddr: 0xD0ED0, symSize: 0x80 }
  - { offset: 0x586A0E, size: 0x8, addend: 0x0, symName: __ZNSt3__113unordered_mapIjP19ggml_backend_bufferNS_4hashIjEENS_8equal_toIjEENS_9allocatorINS_4pairIKjS2_EEEEED1B8ne200100Ev, symObjAddr: 0x51440, symBinAddr: 0xD0F50, symSize: 0x50 }
  - { offset: 0x586C93, size: 0x8, addend: 0x0, symName: __ZNSt3__16vectorINS_4pairIP12ggml_contextNS_13unordered_mapIjP19ggml_backend_bufferNS_4hashIjEENS_8equal_toIjEENS_9allocatorINS1_IKjS6_EEEEEEEENSB_ISG_EEED1B8ne200100Ev, symObjAddr: 0x51490, symBinAddr: 0xD0FA0, symSize: 0xA0 }
  - { offset: 0x5870E3, size: 0x8, addend: 0x0, symName: __ZNK11llama_model12n_gpu_layersEv, symObjAddr: 0x50410, symBinAddr: 0xCFF20, symSize: 0x20 }
  - { offset: 0x587103, size: 0x8, addend: 0x0, symName: __ZNK11llama_model9n_devicesEv, symObjAddr: 0x50430, symBinAddr: 0xCFF40, symSize: 0x20 }
  - { offset: 0x587225, size: 0x8, addend: 0x0, symName: __ZNSt3__16vectorIP19ggml_backend_deviceNS_9allocatorIS2_EEE20__throw_out_of_rangeB8ne200100Ev, symObjAddr: 0x57C80, symBinAddr: 0xD7480, symSize: 0x10 }
  - { offset: 0x58723D, size: 0x8, addend: 0x0, symName: __ZL18select_weight_buftRK13llama_hparamsP11ggml_tensor7ggml_opRKNSt3__16vectorINS5_4pairIP19ggml_backend_deviceP24ggml_backend_buffer_typeEENS5_9allocatorISC_EEEE, symObjAddr: 0x57C90, symBinAddr: 0xD7490, symSize: 0x880 }
  - { offset: 0x587BCB, size: 0x8, addend: 0x0, symName: __ZNSt3__111basic_regexIcNS_12regex_traitsIcEEEC2B8ne200100EPKcNS_15regex_constants18syntax_option_typeE, symObjAddr: 0x58560, symBinAddr: 0xD7D10, symSize: 0xC0 }
  - { offset: 0x58818E, size: 0x8, addend: 0x0, symName: __ZL18select_weight_buftRK13llama_hparamsP11ggml_tensor7ggml_opRKNSt3__16vectorINS5_4pairIP19ggml_backend_deviceP24ggml_backend_buffer_typeEENS5_9allocatorISC_EEEE, symObjAddr: 0x57C90, symBinAddr: 0xD7490, symSize: 0x880 }
  - { offset: 0x588D86, size: 0x8, addend: 0x0, symName: __ZNSt3__16vectorIN11llama_model4impl9layer_devENS_9allocatorIS3_EEE20__throw_out_of_rangeB8ne200100Ev, symObjAddr: 0x65DA0, symBinAddr: 0xDC2C0, symSize: 0x10 }
  - { offset: 0x588D9E, size: 0x8, addend: 0x0, symName: __ZNSt3__16vectorI11llama_layerNS_9allocatorIS1_EEE8__appendEm, symObjAddr: 0x65DB0, symBinAddr: 0xDC2D0, symSize: 0x1C0 }
  - { offset: 0x588FB0, size: 0x8, addend: 0x0, symName: __ZNSt3__16vectorINS_4pairIP12ggml_contextNS_13unordered_mapIjP19ggml_backend_bufferNS_4hashIjEENS_8equal_toIjEENS_9allocatorINS1_IKjS6_EEEEEEEENSB_ISG_EEE26__swap_out_circular_bufferERNS_14__split_bufferISG_RSH_EE, symObjAddr: 0x65FA0, symBinAddr: 0xDC4B0, symSize: 0x1B0 }
  - { offset: 0x5895F5, size: 0x8, addend: 0x0, symName: __ZNSt3__16vectorINS_4pairIP12ggml_contextNS_13unordered_mapIjP19ggml_backend_bufferNS_4hashIjEENS_8equal_toIjEENS_9allocatorINS1_IKjS6_EEEEEEEENSB_ISG_EEE20__throw_length_errorB8ne200100Ev, symObjAddr: 0x65F90, symBinAddr: 0xDC4A0, symSize: 0x10 }
  - { offset: 0x58960D, size: 0x8, addend: 0x0, symName: __ZNSt3__16vectorINS_4pairIP12ggml_contextNS_13unordered_mapIjP19ggml_backend_bufferNS_4hashIjEENS_8equal_toIjEENS_9allocatorINS1_IKjS6_EEEEEEEENSB_ISG_EEE26__swap_out_circular_bufferERNS_14__split_bufferISG_RSH_EE, symObjAddr: 0x65FA0, symBinAddr: 0xDC4B0, symSize: 0x1B0 }
  - { offset: 0x589618, size: 0x8, addend: 0x0, symName: __ZNSt3__114__split_bufferINS_4pairIP12ggml_contextNS_13unordered_mapIjP19ggml_backend_bufferNS_4hashIjEENS_8equal_toIjEENS_9allocatorINS1_IKjS6_EEEEEEEERNSB_ISG_EEED1Ev, symObjAddr: 0x66150, symBinAddr: 0xDC660, symSize: 0x90 }
  - { offset: 0x589A96, size: 0x8, addend: 0x0, symName: __ZNK11llama_model4descEv, symObjAddr: 0x51530, symBinAddr: 0xD1040, symSize: 0x50 }
  - { offset: 0x589ABA, size: 0x8, addend: 0x0, symName: __ZNK11llama_model4descEv, symObjAddr: 0x51530, symBinAddr: 0xD1040, symSize: 0x50 }
  - { offset: 0x589CBF, size: 0x8, addend: 0x0, symName: __ZNK11llama_model4sizeEv, symObjAddr: 0x51580, symBinAddr: 0xD1090, symSize: 0x20 }
  - { offset: 0x589D00, size: 0x8, addend: 0x0, symName: __ZNK11llama_model9n_tensorsEv, symObjAddr: 0x515A0, symBinAddr: 0xD10B0, symSize: 0x20 }
  - { offset: 0x589D49, size: 0x8, addend: 0x0, symName: __ZNK11llama_model10split_modeEv, symObjAddr: 0x515C0, symBinAddr: 0xD10D0, symSize: 0x10 }
  - { offset: 0x58A699, size: 0x8, addend: 0x0, symName: __ZNK11llama_model16memory_breakdownEv, symObjAddr: 0x515D0, symBinAddr: 0xD10E0, symSize: 0x440 }
  - { offset: 0x58B3D0, size: 0x8, addend: 0x0, symName: __ZNK11llama_model10n_elementsEv, symObjAddr: 0x51A10, symBinAddr: 0xD1520, symSize: 0x10 }
  - { offset: 0x58C32C, size: 0x8, addend: 0x0, symName: '__ZZNK11llama_model10print_infoEvENK3$_6clERKNSt3__18functionIFjjEEEj', symObjAddr: 0x52E20, symBinAddr: 0xD2930, symSize: 0x330 }
  - { offset: 0x58D275, size: 0x8, addend: 0x0, symName: __ZNK11llama_model9dev_layerEi, symObjAddr: 0x53150, symBinAddr: 0xD2C60, symSize: 0x40 }
  - { offset: 0x58D2B1, size: 0x8, addend: 0x0, symName: __ZNK11llama_model9dev_layerEi, symObjAddr: 0x53150, symBinAddr: 0xD2C60, symSize: 0x40 }
  - { offset: 0x58D31D, size: 0x8, addend: 0x0, symName: __ZNK11llama_model10dev_outputEv, symObjAddr: 0x53190, symBinAddr: 0xD2CA0, symSize: 0x20 }
  - { offset: 0x58D3E8, size: 0x8, addend: 0x0, symName: __ZNK11llama_model11select_buftEi, symObjAddr: 0x531B0, symBinAddr: 0xD2CC0, symSize: 0x300 }
  - { offset: 0x58DD67, size: 0x8, addend: 0x0, symName: __ZNK11llama_model20has_tensor_overridesEv, symObjAddr: 0x534B0, symBinAddr: 0xD2FC0, symSize: 0x20 }
  - { offset: 0x58DDE2, size: 0x8, addend: 0x0, symName: __ZNK11llama_model10get_tensorEPKc, symObjAddr: 0x534D0, symBinAddr: 0xD2FE0, symSize: 0xA0 }
  - { offset: 0x58E106, size: 0x8, addend: 0x0, symName: __ZNK11llama_model18get_rope_freq_baseERK13llama_cparamsi, symObjAddr: 0x53570, symBinAddr: 0xD3080, symSize: 0x40 }
  - { offset: 0x58E150, size: 0x8, addend: 0x0, symName: __ZNK11llama_model19get_rope_freq_scaleERK13llama_cparamsi, symObjAddr: 0x535B0, symBinAddr: 0xD30C0, symSize: 0x40 }
  - { offset: 0x58E1BC, size: 0x8, addend: 0x0, symName: __ZNK11llama_model16get_rope_factorsERK13llama_cparamsi, symObjAddr: 0x535F0, symBinAddr: 0xD3100, symSize: 0x60 }
  - { offset: 0x58E472, size: 0x8, addend: 0x0, symName: '__ZNSt3__18functionIFbiEEaSIZNK11llama_model13create_memoryERK19llama_memory_paramsRK13llama_cparamsE3$_2vEERS2_OT_', symObjAddr: 0x53EC0, symBinAddr: 0xD39D0, symSize: 0x80 }
  - { offset: 0x58E695, size: 0x8, addend: 0x0, symName: '__ZNSt3__18functionIFbiEEaSIZNK11llama_model13create_memoryERK19llama_memory_paramsRK13llama_cparamsE3$_3vEERS2_OT_', symObjAddr: 0x53F40, symBinAddr: 0xD3A50, symSize: 0x80 }
  - { offset: 0x58E8B8, size: 0x8, addend: 0x0, symName: '__ZNSt3__18functionIFiiEEaSIZNK11llama_model13create_memoryERK19llama_memory_paramsRK13llama_cparamsE3$_4vEERS2_OT_', symObjAddr: 0x53FC0, symBinAddr: 0xD3AD0, symSize: 0x80 }
  - { offset: 0x58EADB, size: 0x8, addend: 0x0, symName: '__ZNSt3__18functionIFbiEEaSIZNK11llama_model13create_memoryERK19llama_memory_paramsRK13llama_cparamsE3$_0vEERS2_OT_', symObjAddr: 0x53DC0, symBinAddr: 0xD38D0, symSize: 0x80 }
  - { offset: 0x58ECC5, size: 0x8, addend: 0x0, symName: '__ZNSt3__18functionIFbiEEaSIZNK11llama_model13create_memoryERK19llama_memory_paramsRK13llama_cparamsE3$_1vEERS2_OT_', symObjAddr: 0x53E40, symBinAddr: 0xD3950, symSize: 0x80 }
  - { offset: 0x58F09D, size: 0x8, addend: 0x0, symName: __ZNSt3__110__function12__value_funcIFbiEE4swapB8ne200100ERS3_, symObjAddr: 0x67A80, symBinAddr: 0xDDF30, symSize: 0x140 }
  - { offset: 0x58FA3D, size: 0x8, addend: 0x0, symName: __ZNSt3__110__function12__value_funcIFiiEE4swapB8ne200100ERS3_, symObjAddr: 0x67F60, symBinAddr: 0xDE410, symSize: 0x140 }
  - { offset: 0x58FC67, size: 0x8, addend: 0x0, symName: __ZNK11llama_model11build_graphERK16llm_graph_params, symObjAddr: 0x54040, symBinAddr: 0xD3B50, symSize: 0xA80 }
  - { offset: 0x593328, size: 0x8, addend: 0x0, symName: _llama_model_default_params, symObjAddr: 0x57280, symBinAddr: 0xD6D90, symSize: 0x40 }
  - { offset: 0x593354, size: 0x8, addend: 0x0, symName: _llama_model_get_vocab, symObjAddr: 0x572C0, symBinAddr: 0xD6DD0, symSize: 0x10 }
  - { offset: 0x5933B3, size: 0x8, addend: 0x0, symName: _llama_free_model, symObjAddr: 0x572D0, symBinAddr: 0xD6DE0, symSize: 0x30 }
  - { offset: 0x5933DD, size: 0x8, addend: 0x0, symName: _llama_free_model, symObjAddr: 0x572D0, symBinAddr: 0xD6DE0, symSize: 0x30 }
  - { offset: 0x593425, size: 0x8, addend: 0x0, symName: _llama_model_free, symObjAddr: 0x57300, symBinAddr: 0xD6E10, symSize: 0x30 }
  - { offset: 0x59346E, size: 0x8, addend: 0x0, symName: _llama_model_n_ctx_train, symObjAddr: 0x57330, symBinAddr: 0xD6E40, symSize: 0x10 }
  - { offset: 0x59348A, size: 0x8, addend: 0x0, symName: _llama_model_n_embd, symObjAddr: 0x57340, symBinAddr: 0xD6E50, symSize: 0x10 }
  - { offset: 0x5934A6, size: 0x8, addend: 0x0, symName: _llama_model_n_embd_inp, symObjAddr: 0x57350, symBinAddr: 0xD6E60, symSize: 0x10 }
  - { offset: 0x5934D2, size: 0x8, addend: 0x0, symName: _llama_model_n_embd_out, symObjAddr: 0x57360, symBinAddr: 0xD6E70, symSize: 0x10 }
  - { offset: 0x5934FE, size: 0x8, addend: 0x0, symName: _llama_model_n_layer, symObjAddr: 0x57370, symBinAddr: 0xD6E80, symSize: 0x10 }
  - { offset: 0x59351A, size: 0x8, addend: 0x0, symName: _llama_model_n_head, symObjAddr: 0x57380, symBinAddr: 0xD6E90, symSize: 0x10 }
  - { offset: 0x593538, size: 0x8, addend: 0x0, symName: _llama_model_n_head_kv, symObjAddr: 0x57390, symBinAddr: 0xD6EA0, symSize: 0x10 }
  - { offset: 0x593564, size: 0x8, addend: 0x0, symName: _llama_model_n_swa, symObjAddr: 0x573A0, symBinAddr: 0xD6EB0, symSize: 0x10 }
  - { offset: 0x59358F, size: 0x8, addend: 0x0, symName: _llama_model_n_cls_out, symObjAddr: 0x573B0, symBinAddr: 0xD6EC0, symSize: 0x10 }
  - { offset: 0x5935DC, size: 0x8, addend: 0x0, symName: _llama_model_cls_label, symObjAddr: 0x573C0, symBinAddr: 0xD6ED0, symSize: 0x50 }
  - { offset: 0x59370E, size: 0x8, addend: 0x0, symName: _llama_n_ctx_train, symObjAddr: 0x57410, symBinAddr: 0xD6F20, symSize: 0x10 }
  - { offset: 0x593771, size: 0x8, addend: 0x0, symName: _llama_n_embd, symObjAddr: 0x57420, symBinAddr: 0xD6F30, symSize: 0x10 }
  - { offset: 0x5937D4, size: 0x8, addend: 0x0, symName: _llama_n_layer, symObjAddr: 0x57430, symBinAddr: 0xD6F40, symSize: 0x10 }
  - { offset: 0x593837, size: 0x8, addend: 0x0, symName: _llama_n_head, symObjAddr: 0x57440, symBinAddr: 0xD6F50, symSize: 0x10 }
  - { offset: 0x593882, size: 0x8, addend: 0x0, symName: _llama_model_rope_freq_scale_train, symObjAddr: 0x57450, symBinAddr: 0xD6F60, symSize: 0x10 }
  - { offset: 0x5938E1, size: 0x8, addend: 0x0, symName: _llama_model_meta_val_str, symObjAddr: 0x57460, symBinAddr: 0xD6F70, symSize: 0x130 }
  - { offset: 0x5941C3, size: 0x8, addend: 0x0, symName: _llama_model_meta_count, symObjAddr: 0x57590, symBinAddr: 0xD70A0, symSize: 0x10 }
  - { offset: 0x594230, size: 0x8, addend: 0x0, symName: _llama_model_meta_key_str, symObjAddr: 0x575A0, symBinAddr: 0xD70B0, symSize: 0x20 }
  - { offset: 0x5942C1, size: 0x8, addend: 0x0, symName: _llama_model_meta_key_by_index, symObjAddr: 0x575C0, symBinAddr: 0xD70D0, symSize: 0xB0 }
  - { offset: 0x594476, size: 0x8, addend: 0x0, symName: _llama_model_meta_val_str_by_index, symObjAddr: 0x57670, symBinAddr: 0xD7180, symSize: 0xB0 }
  - { offset: 0x594644, size: 0x8, addend: 0x0, symName: _llama_model_desc, symObjAddr: 0x57720, symBinAddr: 0xD7230, symSize: 0x90 }
  - { offset: 0x5948E4, size: 0x8, addend: 0x0, symName: _llama_model_size, symObjAddr: 0x577B0, symBinAddr: 0xD72C0, symSize: 0x20 }
  - { offset: 0x59494D, size: 0x8, addend: 0x0, symName: _llama_model_chat_template, symObjAddr: 0x577D0, symBinAddr: 0xD72E0, symSize: 0x100 }
  - { offset: 0x594CF4, size: 0x8, addend: 0x0, symName: _llama_model_n_params, symObjAddr: 0x578D0, symBinAddr: 0xD73E0, symSize: 0x10 }
  - { offset: 0x594D5D, size: 0x8, addend: 0x0, symName: _llama_model_has_encoder, symObjAddr: 0x578E0, symBinAddr: 0xD73F0, symSize: 0x20 }
  - { offset: 0x594D88, size: 0x8, addend: 0x0, symName: _llama_model_has_decoder, symObjAddr: 0x57900, symBinAddr: 0xD7410, symSize: 0x10 }
  - { offset: 0x594DB3, size: 0x8, addend: 0x0, symName: _llama_model_decoder_start_token, symObjAddr: 0x57910, symBinAddr: 0xD7420, symSize: 0x10 }
  - { offset: 0x594DDE, size: 0x8, addend: 0x0, symName: _llama_model_is_recurrent, symObjAddr: 0x57920, symBinAddr: 0xD7430, symSize: 0x10 }
  - { offset: 0x594E18, size: 0x8, addend: 0x0, symName: _llama_model_is_hybrid, symObjAddr: 0x57930, symBinAddr: 0xD7440, symSize: 0x10 }
  - { offset: 0x594E52, size: 0x8, addend: 0x0, symName: _llama_model_is_diffusion, symObjAddr: 0x57940, symBinAddr: 0xD7450, symSize: 0x10 }
  - { offset: 0x594EA2, size: 0x8, addend: 0x0, symName: __Z29llama_internal_get_tensor_mapPK11llama_model, symObjAddr: 0x57950, symBinAddr: 0xD7460, symSize: 0x10 }
  - { offset: 0x595A54, size: 0x8, addend: 0x0, symName: __ZNSt3__111basic_regexIcNS_12regex_traitsIcEEE7__parseIPKcEET_S7_S7_, symObjAddr: 0x58660, symBinAddr: 0xD7DD0, symSize: 0x320 }
  - { offset: 0x596A4C, size: 0x8, addend: 0x0, symName: __ZNSt3__111basic_regexIcNS_12regex_traitsIcEEE13__parse_egrepIPKcEET_S7_S7_, symObjAddr: 0x59050, symBinAddr: 0xD8770, symSize: 0x1E0 }
  - { offset: 0x596FE3, size: 0x8, addend: 0x0, symName: __ZNSt3__111basic_regexIcNS_12regex_traitsIcEEE24__parse_extended_reg_expIPKcEET_S7_S7_, symObjAddr: 0x58CE0, symBinAddr: 0xD8400, symSize: 0x190 }
  - { offset: 0x597361, size: 0x8, addend: 0x0, symName: __ZNSt3__111basic_regexIcNS_12regex_traitsIcEEE21__parse_basic_reg_expIPKcEET_S7_S7_, symObjAddr: 0x58B90, symBinAddr: 0xD82B0, symSize: 0x150 }
  - { offset: 0x597683, size: 0x8, addend: 0x0, symName: __ZNSt3__111basic_regexIcNS_12regex_traitsIcEEE12__parse_grepIPKcEET_S7_S7_, symObjAddr: 0x58E70, symBinAddr: 0xD8590, symSize: 0x1E0 }
  - { offset: 0x597C1A, size: 0x8, addend: 0x0, symName: __ZNSt3__111basic_regexIcNS_12regex_traitsIcEEE19__parse_alternativeIPKcEET_S7_S7_, symObjAddr: 0x59450, symBinAddr: 0xD8950, symSize: 0x90 }
  - { offset: 0x597D5B, size: 0x8, addend: 0x0, symName: __ZNSt3__111basic_regexIcNS_12regex_traitsIcEEE16__parse_ecma_expIPKcEET_S7_S7_, symObjAddr: 0x589D0, symBinAddr: 0xD80F0, symSize: 0x1C0 }
  - { offset: 0x5981C7, size: 0x8, addend: 0x0, symName: __ZNSt3__111basic_regexIcNS_12regex_traitsIcEEE12__parse_termIPKcEET_S7_S7_, symObjAddr: 0x594E0, symBinAddr: 0xD89E0, symSize: 0x80 }
  - { offset: 0x598462, size: 0x8, addend: 0x0, symName: __ZNSt3__111basic_regexIcNS_12regex_traitsIcEEE18__parse_nondupl_REIPKcEET_S7_S7_, symObjAddr: 0x60810, symBinAddr: 0xDAE70, symSize: 0x2D0 }
  - { offset: 0x598B6B, size: 0x8, addend: 0x0, symName: __ZNSt3__111basic_regexIcNS_12regex_traitsIcEEE22__parse_RE_dupl_symbolIPKcEET_S7_S7_PNS_16__owns_one_stateIcEEjj, symObjAddr: 0x60AE0, symBinAddr: 0xDB140, symSize: 0x260 }
  - { offset: 0x59919B, size: 0x8, addend: 0x0, symName: __ZNSt3__111basic_regexIcNS_12regex_traitsIcEEE22__parse_ERE_expressionIPKcEET_S7_S7_, symObjAddr: 0x60E40, symBinAddr: 0xDB3A0, symSize: 0x240 }
  - { offset: 0x5996EA, size: 0x8, addend: 0x0, symName: __ZNSt3__111basic_regexIcNS_12regex_traitsIcEEE23__parse_ERE_dupl_symbolIPKcEET_S7_S7_PNS_16__owns_one_stateIcEEjj, symObjAddr: 0x59AD0, symBinAddr: 0xD8FD0, symSize: 0x3F0 }
  - { offset: 0x599C3D, size: 0x8, addend: 0x0, symName: __ZNSt3__111basic_regexIcNS_12regex_traitsIcEEE17__parse_assertionIPKcEET_S7_S7_, symObjAddr: 0x59560, symBinAddr: 0xD8A60, symSize: 0x2D0 }
  - { offset: 0x59A1FC, size: 0x8, addend: 0x0, symName: __ZNSt3__111basic_regexIcNS_12regex_traitsIcEEE12__parse_atomIPKcEET_S7_S7_, symObjAddr: 0x59830, symBinAddr: 0xD8D30, symSize: 0x2A0 }
  - { offset: 0x59AA10, size: 0x8, addend: 0x0, symName: __ZNSt3__111basic_regexIcNS_12regex_traitsIcEEE19__parse_atom_escapeIPKcEET_S7_S7_, symObjAddr: 0x5B720, symBinAddr: 0xD93C0, symSize: 0x100 }
  - { offset: 0x59AB99, size: 0x8, addend: 0x0, symName: __ZNSt3__111basic_regexIcNS_12regex_traitsIcEEE26__parse_bracket_expressionIPKcEET_S7_S7_, symObjAddr: 0x5B820, symBinAddr: 0xD94C0, symSize: 0x140 }
  - { offset: 0x59ADA2, size: 0x8, addend: 0x0, symName: __ZNSt3__111basic_regexIcNS_12regex_traitsIcEEE25__parse_pattern_characterIPKcEET_S7_S7_, symObjAddr: 0x5B9B0, symBinAddr: 0xD9600, symSize: 0x1B0 }
  - { offset: 0x59F1D8, size: 0x8, addend: 0x0, symName: __ZNSt3__111basic_regexIcNS_12regex_traitsIcEEE30__parse_character_class_escapeIPKcEET_S7_S7_, symObjAddr: 0x5BC20, symBinAddr: 0xD97B0, symSize: 0x2E0 }
  - { offset: 0x59F744, size: 0x8, addend: 0x0, symName: __ZNSt3__111basic_regexIcNS_12regex_traitsIcEEE24__parse_character_escapeIPKcEET_S7_S7_PNS_12basic_stringIcNS_11char_traitsIcEENS_9allocatorIcEEEE, symObjAddr: 0x5BF00, symBinAddr: 0xD9A90, symSize: 0x410 }
  - { offset: 0x5A02D3, size: 0x8, addend: 0x0, symName: __ZNSt3__111basic_regexIcNS_12regex_traitsIcEEE23__parse_expression_termIPKcEET_S7_S7_PNS_20__bracket_expressionIcS2_EE, symObjAddr: 0x5E000, symBinAddr: 0xD9EA0, symSize: 0x500 }
  - { offset: 0x5A262D, size: 0x8, addend: 0x0, symName: __ZNSt3__111basic_regexIcNS_12regex_traitsIcEEE25__parse_equivalence_classIPKcEET_S7_S7_PNS_20__bracket_expressionIcS2_EE, symObjAddr: 0x5E500, symBinAddr: 0xDA3A0, symSize: 0x250 }
  - { offset: 0x5A310B, size: 0x8, addend: 0x0, symName: __ZNSt3__111basic_regexIcNS_12regex_traitsIcEEE18__parse_awk_escapeIPKcEET_S7_S7_PNS_12basic_stringIcNS_11char_traitsIcEENS_9allocatorIcEEEE, symObjAddr: 0x5E9C0, symBinAddr: 0xDA860, symSize: 0x2E0 }
  - { offset: 0x5A31AB, size: 0x8, addend: 0x0, symName: __ZNKSt3__112regex_traitsIcE20__lookup_collatenameIPKcEENS_12basic_stringIcNS_11char_traitsIcEENS_9allocatorIcEEEET_SB_c, symObjAddr: 0x5F310, symBinAddr: 0xDAB40, symSize: 0x210 }
  - { offset: 0x5A3D48, size: 0x8, addend: 0x0, symName: __ZNKSt3__112regex_traitsIcE18__lookup_classnameIPKcEEjT_S5_bc, symObjAddr: 0x5F8D0, symBinAddr: 0xDAD50, symSize: 0x120 }
  - { offset: 0x5A4462, size: 0x8, addend: 0x0, symName: __ZNSt3__111basic_regexIcNS_12regex_traitsIcEEE24__parse_collating_symbolIPKcEET_S7_S7_RNS_12basic_stringIcNS_11char_traitsIcEENS_9allocatorIcEEEE, symObjAddr: 0x5E750, symBinAddr: 0xDA5F0, symSize: 0xD0 }
  - { offset: 0x5A47EA, size: 0x8, addend: 0x0, symName: __ZNSt3__111basic_regexIcNS_12regex_traitsIcEEE20__parse_class_escapeIPKcEET_S7_S7_RNS_12basic_stringIcNS_11char_traitsIcEENS_9allocatorIcEEEEPNS_20__bracket_expressionIcS2_EE, symObjAddr: 0x5E820, symBinAddr: 0xDA6C0, symSize: 0x1A0 }
  - { offset: 0x5A819C, size: 0x8, addend: 0x0, symName: __ZNSt3__111basic_regexIcNS_12regex_traitsIcEEE20__parse_ORD_CHAR_EREIPKcEET_S7_S7_, symObjAddr: 0x61080, symBinAddr: 0xDB5E0, symSize: 0x1C0 }
  - { offset: 0x5A81FA, size: 0x8, addend: 0x0, symName: __ZNSt3__111basic_regexIcNS_12regex_traitsIcEEE23__parse_QUOTED_CHAR_EREIPKcEET_S7_S7_, symObjAddr: 0x61240, symBinAddr: 0xDB7A0, symSize: 0x200 }
  - { offset: 0x5AE73A, size: 0x8, addend: 0x0, symName: __ZNSt3__13mapI23llama_rope_scaling_typePKcNS_4lessIS1_EENS_9allocatorINS_4pairIKS1_S3_EEEEEC2B8ne200100ESt16initializer_listIS9_ERKS5_, symObjAddr: 0x64530, symBinAddr: 0xDB9A0, symSize: 0x170 }
  - { offset: 0x5AF15D, size: 0x8, addend: 0x0, symName: __ZNSt3__16__treeINS_12__value_typeIP19ggml_backend_deviceNS_6vectorINS_4pairIS3_P24ggml_backend_buffer_typeEENS_9allocatorIS8_EEEEEENS_19__map_value_compareIS3_SC_NS_4lessIS3_EELb1EEENS9_ISC_EEE7destroyEPNS_11__tree_nodeISC_PvEE, symObjAddr: 0x64890, symBinAddr: 0xDBD00, symSize: 0x50 }
  - { offset: 0x5AF413, size: 0x8, addend: 0x0, symName: __ZNSt3__16vectorINS_4pairINS_10unique_ptrI12ggml_context20ggml_context_deleterEENS0_INS2_I19ggml_backend_buffer27ggml_backend_buffer_deleterEENS_9allocatorIS8_EEEEEENS9_ISC_EEE22__base_destruct_at_endB8ne200100EPSC_, symObjAddr: 0x648E0, symBinAddr: 0xDBD50, symSize: 0xC0 }
  - { offset: 0x5B19A9, size: 0x8, addend: 0x0, symName: __ZNSt3__16vectorIN11llama_model4impl9layer_devENS_9allocatorIS3_EEE20__throw_length_errorB8ne200100Ev, symObjAddr: 0x65D30, symBinAddr: 0xDC250, symSize: 0x10 }
  - { offset: 0x5B19C1, size: 0x8, addend: 0x0, symName: __ZNSt3__16__treeINS_12__value_typeIP24ggml_backend_buffer_typeNS_10unique_ptrI12ggml_context20ggml_context_deleterEEEENS_19__map_value_compareIS3_S8_ZN11llama_model12load_tensorsER18llama_model_loaderE28ggml_backend_buft_comparatorLb1EEENS_9allocatorIS8_EEE7destroyEPNS_11__tree_nodeIS8_PvEE, symObjAddr: 0x65D40, symBinAddr: 0xDC260, symSize: 0x60 }
  - { offset: 0x5B1D82, size: 0x8, addend: 0x0, symName: __ZNSt3__16vectorI11llama_layerNS_9allocatorIS1_EEE20__throw_length_errorB8ne200100Ev, symObjAddr: 0x65F70, symBinAddr: 0xDC490, symSize: 0x10 }
  - { offset: 0x5B200D, size: 0x8, addend: 0x0, symName: __ZNSt3__112__hash_tableINS_17__hash_value_typeIjP19ggml_backend_bufferEENS_22__unordered_map_hasherIjS4_NS_4hashIjEENS_8equal_toIjEELb1EEENS_21__unordered_map_equalIjS4_S9_S7_Lb1EEENS_9allocatorIS4_EEED1Ev, symObjAddr: 0x662D0, symBinAddr: 0xDC7E0, symSize: 0x50 }
  - { offset: 0x5B28F8, size: 0x8, addend: 0x0, symName: __ZNSt3__112__hash_tableINS_17__hash_value_typeIjP19ggml_backend_bufferEENS_22__unordered_map_hasherIjS4_NS_4hashIjEENS_8equal_toIjEELb1EEENS_21__unordered_map_equalIjS4_S9_S7_Lb1EEENS_9allocatorIS4_EEE25__emplace_unique_key_argsIjJRKNS_4pairIKjS3_EEEEENSH_INS_15__hash_iteratorIPNS_11__hash_nodeIS4_PvEEEEbEERKT_DpOT0_, symObjAddr: 0x66DF0, symBinAddr: 0xDD2E0, symSize: 0x430 }
  - { offset: 0x5B322F, size: 0x8, addend: 0x0, symName: __ZNSt3__16vectorINS_4pairINS_12basic_stringIcNS_11char_traitsIcEENS_9allocatorIcEEEEP11ggml_tensorEENS5_ISA_EEE20__throw_length_errorB8ne200100Ev, symObjAddr: 0x67440, symBinAddr: 0xDD930, symSize: 0x10 }
  - { offset: 0x5B3252, size: 0x8, addend: 0x0, symName: __ZNSt3__114__split_bufferINS_4pairINS_12basic_stringIcNS_11char_traitsIcEENS_9allocatorIcEEEEP11ggml_tensorEERNS5_ISA_EEED1Ev, symObjAddr: 0x673E0, symBinAddr: 0xDD8D0, symSize: 0x60 }
  - { offset: 0x5B3576, size: 0x8, addend: 0x0, symName: '__ZNSt3__110__function6__funcIZNK11llama_model10print_infoEvE3$_0NS_9allocatorIS3_EEFjjEED1Ev', symObjAddr: 0x67490, symBinAddr: 0xDD940, symSize: 0x10 }
  - { offset: 0x5B35A0, size: 0x8, addend: 0x0, symName: '__ZNSt3__110__function6__funcIZNK11llama_model10print_infoEvE3$_0NS_9allocatorIS3_EEFjjEED0Ev', symObjAddr: 0x674A0, symBinAddr: 0xDD950, symSize: 0x10 }
  - { offset: 0x5B36B7, size: 0x8, addend: 0x0, symName: '__ZNKSt3__110__function6__funcIZNK11llama_model10print_infoEvE3$_0NS_9allocatorIS3_EEFjjEE7__cloneEv', symObjAddr: 0x674B0, symBinAddr: 0xDD960, symSize: 0x30 }
  - { offset: 0x5B38A4, size: 0x8, addend: 0x0, symName: '__ZNKSt3__110__function6__funcIZNK11llama_model10print_infoEvE3$_0NS_9allocatorIS3_EEFjjEE7__cloneEPNS0_6__baseIS6_EE', symObjAddr: 0x674E0, symBinAddr: 0xDD990, symSize: 0x20 }
  - { offset: 0x5B394F, size: 0x8, addend: 0x0, symName: '__ZNSt3__110__function6__funcIZNK11llama_model10print_infoEvE3$_0NS_9allocatorIS3_EEFjjEE7destroyEv', symObjAddr: 0x67500, symBinAddr: 0xDD9B0, symSize: 0x10 }
  - { offset: 0x5B39A4, size: 0x8, addend: 0x0, symName: '__ZNSt3__110__function6__funcIZNK11llama_model10print_infoEvE3$_0NS_9allocatorIS3_EEFjjEE18destroy_deallocateEv', symObjAddr: 0x67510, symBinAddr: 0xDD9C0, symSize: 0x10 }
  - { offset: 0x5B3AD0, size: 0x8, addend: 0x0, symName: '__ZNSt3__110__function6__funcIZNK11llama_model10print_infoEvE3$_0NS_9allocatorIS3_EEFjjEEclEOj', symObjAddr: 0x67520, symBinAddr: 0xDD9D0, symSize: 0x20 }
  - { offset: 0x5B3B79, size: 0x8, addend: 0x0, symName: '__ZNKSt3__110__function6__funcIZNK11llama_model10print_infoEvE3$_0NS_9allocatorIS3_EEFjjEE6targetERKSt9type_info', symObjAddr: 0x67540, symBinAddr: 0xDD9F0, symSize: 0x20 }
  - { offset: 0x5B3BE9, size: 0x8, addend: 0x0, symName: '__ZNKSt3__110__function6__funcIZNK11llama_model10print_infoEvE3$_0NS_9allocatorIS3_EEFjjEE11target_typeEv', symObjAddr: 0x67560, symBinAddr: 0xDDA10, symSize: 0x10 }
  - { offset: 0x5B3C0C, size: 0x8, addend: 0x0, symName: '__ZNSt3__110__function6__funcIZNK11llama_model10print_infoEvE3$_1NS_9allocatorIS3_EEFjjEED1Ev', symObjAddr: 0x67570, symBinAddr: 0xDDA20, symSize: 0x10 }
  - { offset: 0x5B3C36, size: 0x8, addend: 0x0, symName: '__ZNSt3__110__function6__funcIZNK11llama_model10print_infoEvE3$_1NS_9allocatorIS3_EEFjjEED0Ev', symObjAddr: 0x67580, symBinAddr: 0xDDA30, symSize: 0x10 }
  - { offset: 0x5B3D4D, size: 0x8, addend: 0x0, symName: '__ZNKSt3__110__function6__funcIZNK11llama_model10print_infoEvE3$_1NS_9allocatorIS3_EEFjjEE7__cloneEv', symObjAddr: 0x67590, symBinAddr: 0xDDA40, symSize: 0x30 }
  - { offset: 0x5B3F3A, size: 0x8, addend: 0x0, symName: '__ZNKSt3__110__function6__funcIZNK11llama_model10print_infoEvE3$_1NS_9allocatorIS3_EEFjjEE7__cloneEPNS0_6__baseIS6_EE', symObjAddr: 0x675C0, symBinAddr: 0xDDA70, symSize: 0x20 }
  - { offset: 0x5B3FE5, size: 0x8, addend: 0x0, symName: '__ZNSt3__110__function6__funcIZNK11llama_model10print_infoEvE3$_1NS_9allocatorIS3_EEFjjEE7destroyEv', symObjAddr: 0x675E0, symBinAddr: 0xDDA90, symSize: 0x10 }
  - { offset: 0x5B403A, size: 0x8, addend: 0x0, symName: '__ZNSt3__110__function6__funcIZNK11llama_model10print_infoEvE3$_1NS_9allocatorIS3_EEFjjEE18destroy_deallocateEv', symObjAddr: 0x675F0, symBinAddr: 0xDDAA0, symSize: 0x10 }
  - { offset: 0x5B4166, size: 0x8, addend: 0x0, symName: '__ZNSt3__110__function6__funcIZNK11llama_model10print_infoEvE3$_1NS_9allocatorIS3_EEFjjEEclEOj', symObjAddr: 0x67600, symBinAddr: 0xDDAB0, symSize: 0x20 }
  - { offset: 0x5B420F, size: 0x8, addend: 0x0, symName: '__ZNKSt3__110__function6__funcIZNK11llama_model10print_infoEvE3$_1NS_9allocatorIS3_EEFjjEE6targetERKSt9type_info', symObjAddr: 0x67620, symBinAddr: 0xDDAD0, symSize: 0x20 }
  - { offset: 0x5B427F, size: 0x8, addend: 0x0, symName: '__ZNKSt3__110__function6__funcIZNK11llama_model10print_infoEvE3$_1NS_9allocatorIS3_EEFjjEE11target_typeEv', symObjAddr: 0x67640, symBinAddr: 0xDDAF0, symSize: 0x10 }
  - { offset: 0x5B42A2, size: 0x8, addend: 0x0, symName: '__ZNSt3__110__function6__funcIZNK11llama_model10print_infoEvE3$_2NS_9allocatorIS3_EEFjjEED1Ev', symObjAddr: 0x67650, symBinAddr: 0xDDB00, symSize: 0x10 }
  - { offset: 0x5B42CC, size: 0x8, addend: 0x0, symName: '__ZNSt3__110__function6__funcIZNK11llama_model10print_infoEvE3$_2NS_9allocatorIS3_EEFjjEED0Ev', symObjAddr: 0x67660, symBinAddr: 0xDDB10, symSize: 0x10 }
  - { offset: 0x5B43E3, size: 0x8, addend: 0x0, symName: '__ZNKSt3__110__function6__funcIZNK11llama_model10print_infoEvE3$_2NS_9allocatorIS3_EEFjjEE7__cloneEv', symObjAddr: 0x67670, symBinAddr: 0xDDB20, symSize: 0x30 }
  - { offset: 0x5B45D0, size: 0x8, addend: 0x0, symName: '__ZNKSt3__110__function6__funcIZNK11llama_model10print_infoEvE3$_2NS_9allocatorIS3_EEFjjEE7__cloneEPNS0_6__baseIS6_EE', symObjAddr: 0x676A0, symBinAddr: 0xDDB50, symSize: 0x20 }
  - { offset: 0x5B467B, size: 0x8, addend: 0x0, symName: '__ZNSt3__110__function6__funcIZNK11llama_model10print_infoEvE3$_2NS_9allocatorIS3_EEFjjEE7destroyEv', symObjAddr: 0x676C0, symBinAddr: 0xDDB70, symSize: 0x10 }
  - { offset: 0x5B46D0, size: 0x8, addend: 0x0, symName: '__ZNSt3__110__function6__funcIZNK11llama_model10print_infoEvE3$_2NS_9allocatorIS3_EEFjjEE18destroy_deallocateEv', symObjAddr: 0x676D0, symBinAddr: 0xDDB80, symSize: 0x10 }
  - { offset: 0x5B47FC, size: 0x8, addend: 0x0, symName: '__ZNSt3__110__function6__funcIZNK11llama_model10print_infoEvE3$_2NS_9allocatorIS3_EEFjjEEclEOj', symObjAddr: 0x676E0, symBinAddr: 0xDDB90, symSize: 0x20 }
  - { offset: 0x5B48A5, size: 0x8, addend: 0x0, symName: '__ZNKSt3__110__function6__funcIZNK11llama_model10print_infoEvE3$_2NS_9allocatorIS3_EEFjjEE6targetERKSt9type_info', symObjAddr: 0x67700, symBinAddr: 0xDDBB0, symSize: 0x20 }
  - { offset: 0x5B4915, size: 0x8, addend: 0x0, symName: '__ZNKSt3__110__function6__funcIZNK11llama_model10print_infoEvE3$_2NS_9allocatorIS3_EEFjjEE11target_typeEv', symObjAddr: 0x67720, symBinAddr: 0xDDBD0, symSize: 0x10 }
  - { offset: 0x5B4938, size: 0x8, addend: 0x0, symName: '__ZNSt3__110__function6__funcIZNK11llama_model10print_infoEvE3$_3NS_9allocatorIS3_EEFjjEED1Ev', symObjAddr: 0x67730, symBinAddr: 0xDDBE0, symSize: 0x10 }
  - { offset: 0x5B4962, size: 0x8, addend: 0x0, symName: '__ZNSt3__110__function6__funcIZNK11llama_model10print_infoEvE3$_3NS_9allocatorIS3_EEFjjEED0Ev', symObjAddr: 0x67740, symBinAddr: 0xDDBF0, symSize: 0x10 }
  - { offset: 0x5B4A79, size: 0x8, addend: 0x0, symName: '__ZNKSt3__110__function6__funcIZNK11llama_model10print_infoEvE3$_3NS_9allocatorIS3_EEFjjEE7__cloneEv', symObjAddr: 0x67750, symBinAddr: 0xDDC00, symSize: 0x30 }
  - { offset: 0x5B4C66, size: 0x8, addend: 0x0, symName: '__ZNKSt3__110__function6__funcIZNK11llama_model10print_infoEvE3$_3NS_9allocatorIS3_EEFjjEE7__cloneEPNS0_6__baseIS6_EE', symObjAddr: 0x67780, symBinAddr: 0xDDC30, symSize: 0x20 }
  - { offset: 0x5B4D11, size: 0x8, addend: 0x0, symName: '__ZNSt3__110__function6__funcIZNK11llama_model10print_infoEvE3$_3NS_9allocatorIS3_EEFjjEE7destroyEv', symObjAddr: 0x677A0, symBinAddr: 0xDDC50, symSize: 0x10 }
  - { offset: 0x5B4D66, size: 0x8, addend: 0x0, symName: '__ZNSt3__110__function6__funcIZNK11llama_model10print_infoEvE3$_3NS_9allocatorIS3_EEFjjEE18destroy_deallocateEv', symObjAddr: 0x677B0, symBinAddr: 0xDDC60, symSize: 0x10 }
  - { offset: 0x5B4E92, size: 0x8, addend: 0x0, symName: '__ZNSt3__110__function6__funcIZNK11llama_model10print_infoEvE3$_3NS_9allocatorIS3_EEFjjEEclEOj', symObjAddr: 0x677C0, symBinAddr: 0xDDC70, symSize: 0x20 }
  - { offset: 0x5B4F3B, size: 0x8, addend: 0x0, symName: '__ZNKSt3__110__function6__funcIZNK11llama_model10print_infoEvE3$_3NS_9allocatorIS3_EEFjjEE6targetERKSt9type_info', symObjAddr: 0x677E0, symBinAddr: 0xDDC90, symSize: 0x20 }
  - { offset: 0x5B4FAB, size: 0x8, addend: 0x0, symName: '__ZNKSt3__110__function6__funcIZNK11llama_model10print_infoEvE3$_3NS_9allocatorIS3_EEFjjEE11target_typeEv', symObjAddr: 0x67800, symBinAddr: 0xDDCB0, symSize: 0x10 }
  - { offset: 0x5B4FCE, size: 0x8, addend: 0x0, symName: '__ZNSt3__110__function6__funcIZNK11llama_model10print_infoEvE3$_4NS_9allocatorIS3_EEFjjEED1Ev', symObjAddr: 0x67810, symBinAddr: 0xDDCC0, symSize: 0x10 }
  - { offset: 0x5B4FF8, size: 0x8, addend: 0x0, symName: '__ZNSt3__110__function6__funcIZNK11llama_model10print_infoEvE3$_4NS_9allocatorIS3_EEFjjEED0Ev', symObjAddr: 0x67820, symBinAddr: 0xDDCD0, symSize: 0x10 }
  - { offset: 0x5B510F, size: 0x8, addend: 0x0, symName: '__ZNKSt3__110__function6__funcIZNK11llama_model10print_infoEvE3$_4NS_9allocatorIS3_EEFjjEE7__cloneEv', symObjAddr: 0x67830, symBinAddr: 0xDDCE0, symSize: 0x30 }
  - { offset: 0x5B52FC, size: 0x8, addend: 0x0, symName: '__ZNKSt3__110__function6__funcIZNK11llama_model10print_infoEvE3$_4NS_9allocatorIS3_EEFjjEE7__cloneEPNS0_6__baseIS6_EE', symObjAddr: 0x67860, symBinAddr: 0xDDD10, symSize: 0x20 }
  - { offset: 0x5B53A7, size: 0x8, addend: 0x0, symName: '__ZNSt3__110__function6__funcIZNK11llama_model10print_infoEvE3$_4NS_9allocatorIS3_EEFjjEE7destroyEv', symObjAddr: 0x67880, symBinAddr: 0xDDD30, symSize: 0x10 }
  - { offset: 0x5B53FC, size: 0x8, addend: 0x0, symName: '__ZNSt3__110__function6__funcIZNK11llama_model10print_infoEvE3$_4NS_9allocatorIS3_EEFjjEE18destroy_deallocateEv', symObjAddr: 0x67890, symBinAddr: 0xDDD40, symSize: 0x10 }
  - { offset: 0x5B5528, size: 0x8, addend: 0x0, symName: '__ZNSt3__110__function6__funcIZNK11llama_model10print_infoEvE3$_4NS_9allocatorIS3_EEFjjEEclEOj', symObjAddr: 0x678A0, symBinAddr: 0xDDD50, symSize: 0x20 }
  - { offset: 0x5B55D1, size: 0x8, addend: 0x0, symName: '__ZNKSt3__110__function6__funcIZNK11llama_model10print_infoEvE3$_4NS_9allocatorIS3_EEFjjEE6targetERKSt9type_info', symObjAddr: 0x678C0, symBinAddr: 0xDDD70, symSize: 0x20 }
  - { offset: 0x5B5641, size: 0x8, addend: 0x0, symName: '__ZNKSt3__110__function6__funcIZNK11llama_model10print_infoEvE3$_4NS_9allocatorIS3_EEFjjEE11target_typeEv', symObjAddr: 0x678E0, symBinAddr: 0xDDD90, symSize: 0x10 }
  - { offset: 0x5B5664, size: 0x8, addend: 0x0, symName: '__ZNSt3__110__function6__funcIZNK11llama_model10print_infoEvE3$_5NS_9allocatorIS3_EEFjjEED1Ev', symObjAddr: 0x678F0, symBinAddr: 0xDDDA0, symSize: 0x10 }
  - { offset: 0x5B568E, size: 0x8, addend: 0x0, symName: '__ZNSt3__110__function6__funcIZNK11llama_model10print_infoEvE3$_5NS_9allocatorIS3_EEFjjEED0Ev', symObjAddr: 0x67900, symBinAddr: 0xDDDB0, symSize: 0x10 }
  - { offset: 0x5B57A5, size: 0x8, addend: 0x0, symName: '__ZNKSt3__110__function6__funcIZNK11llama_model10print_infoEvE3$_5NS_9allocatorIS3_EEFjjEE7__cloneEv', symObjAddr: 0x67910, symBinAddr: 0xDDDC0, symSize: 0x30 }
  - { offset: 0x5B5992, size: 0x8, addend: 0x0, symName: '__ZNKSt3__110__function6__funcIZNK11llama_model10print_infoEvE3$_5NS_9allocatorIS3_EEFjjEE7__cloneEPNS0_6__baseIS6_EE', symObjAddr: 0x67940, symBinAddr: 0xDDDF0, symSize: 0x20 }
  - { offset: 0x5B5A3D, size: 0x8, addend: 0x0, symName: '__ZNSt3__110__function6__funcIZNK11llama_model10print_infoEvE3$_5NS_9allocatorIS3_EEFjjEE7destroyEv', symObjAddr: 0x67960, symBinAddr: 0xDDE10, symSize: 0x10 }
  - { offset: 0x5B5A92, size: 0x8, addend: 0x0, symName: '__ZNSt3__110__function6__funcIZNK11llama_model10print_infoEvE3$_5NS_9allocatorIS3_EEFjjEE18destroy_deallocateEv', symObjAddr: 0x67970, symBinAddr: 0xDDE20, symSize: 0x10 }
  - { offset: 0x5B5BBE, size: 0x8, addend: 0x0, symName: '__ZNSt3__110__function6__funcIZNK11llama_model10print_infoEvE3$_5NS_9allocatorIS3_EEFjjEEclEOj', symObjAddr: 0x67980, symBinAddr: 0xDDE30, symSize: 0x20 }
  - { offset: 0x5B5C67, size: 0x8, addend: 0x0, symName: '__ZNKSt3__110__function6__funcIZNK11llama_model10print_infoEvE3$_5NS_9allocatorIS3_EEFjjEE6targetERKSt9type_info', symObjAddr: 0x679A0, symBinAddr: 0xDDE50, symSize: 0x20 }
  - { offset: 0x5B5CD7, size: 0x8, addend: 0x0, symName: '__ZNKSt3__110__function6__funcIZNK11llama_model10print_infoEvE3$_5NS_9allocatorIS3_EEFjjEE11target_typeEv', symObjAddr: 0x679C0, symBinAddr: 0xDDE70, symSize: 0x10 }
  - { offset: 0x5B5CFA, size: 0x8, addend: 0x0, symName: '__ZNSt3__110__function6__funcIZNK11llama_model13create_memoryERK19llama_memory_paramsRK13llama_cparamsE3$_0NS_9allocatorIS9_EEFbiEED1Ev', symObjAddr: 0x679D0, symBinAddr: 0xDDE80, symSize: 0x10 }
  - { offset: 0x5B5D24, size: 0x8, addend: 0x0, symName: '__ZNSt3__110__function6__funcIZNK11llama_model13create_memoryERK19llama_memory_paramsRK13llama_cparamsE3$_0NS_9allocatorIS9_EEFbiEED0Ev', symObjAddr: 0x679E0, symBinAddr: 0xDDE90, symSize: 0x10 }
  - { offset: 0x5B5DDB, size: 0x8, addend: 0x0, symName: '__ZNKSt3__110__function6__funcIZNK11llama_model13create_memoryERK19llama_memory_paramsRK13llama_cparamsE3$_0NS_9allocatorIS9_EEFbiEE7__cloneEv', symObjAddr: 0x679F0, symBinAddr: 0xDDEA0, symSize: 0x20 }
  - { offset: 0x5B5F27, size: 0x8, addend: 0x0, symName: '__ZNKSt3__110__function6__funcIZNK11llama_model13create_memoryERK19llama_memory_paramsRK13llama_cparamsE3$_0NS_9allocatorIS9_EEFbiEE7__cloneEPNS0_6__baseISC_EE', symObjAddr: 0x67A10, symBinAddr: 0xDDEC0, symSize: 0x10 }
  - { offset: 0x5B5F93, size: 0x8, addend: 0x0, symName: '__ZNSt3__110__function6__funcIZNK11llama_model13create_memoryERK19llama_memory_paramsRK13llama_cparamsE3$_0NS_9allocatorIS9_EEFbiEE7destroyEv', symObjAddr: 0x67A20, symBinAddr: 0xDDED0, symSize: 0x10 }
  - { offset: 0x5B5FE8, size: 0x8, addend: 0x0, symName: '__ZNSt3__110__function6__funcIZNK11llama_model13create_memoryERK19llama_memory_paramsRK13llama_cparamsE3$_0NS_9allocatorIS9_EEFbiEE18destroy_deallocateEv', symObjAddr: 0x67A30, symBinAddr: 0xDDEE0, symSize: 0x10 }
  - { offset: 0x5B6099, size: 0x8, addend: 0x0, symName: '__ZNSt3__110__function6__funcIZNK11llama_model13create_memoryERK19llama_memory_paramsRK13llama_cparamsE3$_0NS_9allocatorIS9_EEFbiEEclEOi', symObjAddr: 0x67A40, symBinAddr: 0xDDEF0, symSize: 0x10 }
  - { offset: 0x5B60C8, size: 0x8, addend: 0x0, symName: '__ZNKSt3__110__function6__funcIZNK11llama_model13create_memoryERK19llama_memory_paramsRK13llama_cparamsE3$_0NS_9allocatorIS9_EEFbiEE6targetERKSt9type_info', symObjAddr: 0x67A50, symBinAddr: 0xDDF00, symSize: 0x20 }
  - { offset: 0x5B6138, size: 0x8, addend: 0x0, symName: '__ZNKSt3__110__function6__funcIZNK11llama_model13create_memoryERK19llama_memory_paramsRK13llama_cparamsE3$_0NS_9allocatorIS9_EEFbiEE11target_typeEv', symObjAddr: 0x67A70, symBinAddr: 0xDDF20, symSize: 0x10 }
  - { offset: 0x5B6161, size: 0x8, addend: 0x0, symName: '__ZNSt3__110__function6__funcIZNK11llama_model13create_memoryERK19llama_memory_paramsRK13llama_cparamsE3$_1NS_9allocatorIS9_EEFbiEED1Ev', symObjAddr: 0x67BC0, symBinAddr: 0xDE070, symSize: 0x10 }
  - { offset: 0x5B618B, size: 0x8, addend: 0x0, symName: '__ZNSt3__110__function6__funcIZNK11llama_model13create_memoryERK19llama_memory_paramsRK13llama_cparamsE3$_1NS_9allocatorIS9_EEFbiEED0Ev', symObjAddr: 0x67BD0, symBinAddr: 0xDE080, symSize: 0x10 }
  - { offset: 0x5B6242, size: 0x8, addend: 0x0, symName: '__ZNKSt3__110__function6__funcIZNK11llama_model13create_memoryERK19llama_memory_paramsRK13llama_cparamsE3$_1NS_9allocatorIS9_EEFbiEE7__cloneEv', symObjAddr: 0x67BE0, symBinAddr: 0xDE090, symSize: 0x20 }
  - { offset: 0x5B638E, size: 0x8, addend: 0x0, symName: '__ZNKSt3__110__function6__funcIZNK11llama_model13create_memoryERK19llama_memory_paramsRK13llama_cparamsE3$_1NS_9allocatorIS9_EEFbiEE7__cloneEPNS0_6__baseISC_EE', symObjAddr: 0x67C00, symBinAddr: 0xDE0B0, symSize: 0x10 }
  - { offset: 0x5B63FA, size: 0x8, addend: 0x0, symName: '__ZNSt3__110__function6__funcIZNK11llama_model13create_memoryERK19llama_memory_paramsRK13llama_cparamsE3$_1NS_9allocatorIS9_EEFbiEE7destroyEv', symObjAddr: 0x67C10, symBinAddr: 0xDE0C0, symSize: 0x10 }
  - { offset: 0x5B644F, size: 0x8, addend: 0x0, symName: '__ZNSt3__110__function6__funcIZNK11llama_model13create_memoryERK19llama_memory_paramsRK13llama_cparamsE3$_1NS_9allocatorIS9_EEFbiEE18destroy_deallocateEv', symObjAddr: 0x67C20, symBinAddr: 0xDE0D0, symSize: 0x10 }
  - { offset: 0x5B6500, size: 0x8, addend: 0x0, symName: '__ZNSt3__110__function6__funcIZNK11llama_model13create_memoryERK19llama_memory_paramsRK13llama_cparamsE3$_1NS_9allocatorIS9_EEFbiEEclEOi', symObjAddr: 0x67C30, symBinAddr: 0xDE0E0, symSize: 0x10 }
  - { offset: 0x5B652F, size: 0x8, addend: 0x0, symName: '__ZNKSt3__110__function6__funcIZNK11llama_model13create_memoryERK19llama_memory_paramsRK13llama_cparamsE3$_1NS_9allocatorIS9_EEFbiEE6targetERKSt9type_info', symObjAddr: 0x67C40, symBinAddr: 0xDE0F0, symSize: 0x20 }
  - { offset: 0x5B659F, size: 0x8, addend: 0x0, symName: '__ZNKSt3__110__function6__funcIZNK11llama_model13create_memoryERK19llama_memory_paramsRK13llama_cparamsE3$_1NS_9allocatorIS9_EEFbiEE11target_typeEv', symObjAddr: 0x67C60, symBinAddr: 0xDE110, symSize: 0x10 }
  - { offset: 0x5B65C2, size: 0x8, addend: 0x0, symName: '__ZNSt3__110__function6__funcIZNK11llama_model13create_memoryERK19llama_memory_paramsRK13llama_cparamsE3$_2NS_9allocatorIS9_EEFbiEED1Ev', symObjAddr: 0x67C70, symBinAddr: 0xDE120, symSize: 0x10 }
  - { offset: 0x5B65EC, size: 0x8, addend: 0x0, symName: '__ZNSt3__110__function6__funcIZNK11llama_model13create_memoryERK19llama_memory_paramsRK13llama_cparamsE3$_2NS_9allocatorIS9_EEFbiEED0Ev', symObjAddr: 0x67C80, symBinAddr: 0xDE130, symSize: 0x10 }
  - { offset: 0x5B6703, size: 0x8, addend: 0x0, symName: '__ZNKSt3__110__function6__funcIZNK11llama_model13create_memoryERK19llama_memory_paramsRK13llama_cparamsE3$_2NS_9allocatorIS9_EEFbiEE7__cloneEv', symObjAddr: 0x67C90, symBinAddr: 0xDE140, symSize: 0x30 }
  - { offset: 0x5B68F0, size: 0x8, addend: 0x0, symName: '__ZNKSt3__110__function6__funcIZNK11llama_model13create_memoryERK19llama_memory_paramsRK13llama_cparamsE3$_2NS_9allocatorIS9_EEFbiEE7__cloneEPNS0_6__baseISC_EE', symObjAddr: 0x67CC0, symBinAddr: 0xDE170, symSize: 0x20 }
  - { offset: 0x5B699B, size: 0x8, addend: 0x0, symName: '__ZNSt3__110__function6__funcIZNK11llama_model13create_memoryERK19llama_memory_paramsRK13llama_cparamsE3$_2NS_9allocatorIS9_EEFbiEE7destroyEv', symObjAddr: 0x67CE0, symBinAddr: 0xDE190, symSize: 0x10 }
  - { offset: 0x5B69F0, size: 0x8, addend: 0x0, symName: '__ZNSt3__110__function6__funcIZNK11llama_model13create_memoryERK19llama_memory_paramsRK13llama_cparamsE3$_2NS_9allocatorIS9_EEFbiEE18destroy_deallocateEv', symObjAddr: 0x67CF0, symBinAddr: 0xDE1A0, symSize: 0x10 }
  - { offset: 0x5B6B1C, size: 0x8, addend: 0x0, symName: '__ZNSt3__110__function6__funcIZNK11llama_model13create_memoryERK19llama_memory_paramsRK13llama_cparamsE3$_2NS_9allocatorIS9_EEFbiEEclEOi', symObjAddr: 0x67D00, symBinAddr: 0xDE1B0, symSize: 0x40 }
  - { offset: 0x5B6B9F, size: 0x8, addend: 0x0, symName: '__ZNKSt3__110__function6__funcIZNK11llama_model13create_memoryERK19llama_memory_paramsRK13llama_cparamsE3$_2NS_9allocatorIS9_EEFbiEE6targetERKSt9type_info', symObjAddr: 0x67D40, symBinAddr: 0xDE1F0, symSize: 0x20 }
  - { offset: 0x5B6C0F, size: 0x8, addend: 0x0, symName: '__ZNKSt3__110__function6__funcIZNK11llama_model13create_memoryERK19llama_memory_paramsRK13llama_cparamsE3$_2NS_9allocatorIS9_EEFbiEE11target_typeEv', symObjAddr: 0x67D60, symBinAddr: 0xDE210, symSize: 0x10 }
  - { offset: 0x5B6C32, size: 0x8, addend: 0x0, symName: '__ZNSt3__110__function6__funcIZNK11llama_model13create_memoryERK19llama_memory_paramsRK13llama_cparamsE3$_3NS_9allocatorIS9_EEFbiEED1Ev', symObjAddr: 0x67D70, symBinAddr: 0xDE220, symSize: 0x10 }
  - { offset: 0x5B6C5C, size: 0x8, addend: 0x0, symName: '__ZNSt3__110__function6__funcIZNK11llama_model13create_memoryERK19llama_memory_paramsRK13llama_cparamsE3$_3NS_9allocatorIS9_EEFbiEED0Ev', symObjAddr: 0x67D80, symBinAddr: 0xDE230, symSize: 0x10 }
  - { offset: 0x5B6D73, size: 0x8, addend: 0x0, symName: '__ZNKSt3__110__function6__funcIZNK11llama_model13create_memoryERK19llama_memory_paramsRK13llama_cparamsE3$_3NS_9allocatorIS9_EEFbiEE7__cloneEv', symObjAddr: 0x67D90, symBinAddr: 0xDE240, symSize: 0x30 }
  - { offset: 0x5B6F60, size: 0x8, addend: 0x0, symName: '__ZNKSt3__110__function6__funcIZNK11llama_model13create_memoryERK19llama_memory_paramsRK13llama_cparamsE3$_3NS_9allocatorIS9_EEFbiEE7__cloneEPNS0_6__baseISC_EE', symObjAddr: 0x67DC0, symBinAddr: 0xDE270, symSize: 0x20 }
  - { offset: 0x5B700B, size: 0x8, addend: 0x0, symName: '__ZNSt3__110__function6__funcIZNK11llama_model13create_memoryERK19llama_memory_paramsRK13llama_cparamsE3$_3NS_9allocatorIS9_EEFbiEE7destroyEv', symObjAddr: 0x67DE0, symBinAddr: 0xDE290, symSize: 0x10 }
  - { offset: 0x5B7060, size: 0x8, addend: 0x0, symName: '__ZNSt3__110__function6__funcIZNK11llama_model13create_memoryERK19llama_memory_paramsRK13llama_cparamsE3$_3NS_9allocatorIS9_EEFbiEE18destroy_deallocateEv', symObjAddr: 0x67DF0, symBinAddr: 0xDE2A0, symSize: 0x10 }
  - { offset: 0x5B718C, size: 0x8, addend: 0x0, symName: '__ZNSt3__110__function6__funcIZNK11llama_model13create_memoryERK19llama_memory_paramsRK13llama_cparamsE3$_3NS_9allocatorIS9_EEFbiEEclEOi', symObjAddr: 0x67E00, symBinAddr: 0xDE2B0, symSize: 0x40 }
  - { offset: 0x5B7235, size: 0x8, addend: 0x0, symName: '__ZNKSt3__110__function6__funcIZNK11llama_model13create_memoryERK19llama_memory_paramsRK13llama_cparamsE3$_3NS_9allocatorIS9_EEFbiEE6targetERKSt9type_info', symObjAddr: 0x67E40, symBinAddr: 0xDE2F0, symSize: 0x20 }
  - { offset: 0x5B72A5, size: 0x8, addend: 0x0, symName: '__ZNKSt3__110__function6__funcIZNK11llama_model13create_memoryERK19llama_memory_paramsRK13llama_cparamsE3$_3NS_9allocatorIS9_EEFbiEE11target_typeEv', symObjAddr: 0x67E60, symBinAddr: 0xDE310, symSize: 0x10 }
  - { offset: 0x5B72C8, size: 0x8, addend: 0x0, symName: '__ZNSt3__110__function6__funcIZNK11llama_model13create_memoryERK19llama_memory_paramsRK13llama_cparamsE3$_4NS_9allocatorIS9_EEFiiEED1Ev', symObjAddr: 0x67E70, symBinAddr: 0xDE320, symSize: 0x10 }
  - { offset: 0x5B72F2, size: 0x8, addend: 0x0, symName: '__ZNSt3__110__function6__funcIZNK11llama_model13create_memoryERK19llama_memory_paramsRK13llama_cparamsE3$_4NS_9allocatorIS9_EEFiiEED0Ev', symObjAddr: 0x67E80, symBinAddr: 0xDE330, symSize: 0x10 }
  - { offset: 0x5B7409, size: 0x8, addend: 0x0, symName: '__ZNKSt3__110__function6__funcIZNK11llama_model13create_memoryERK19llama_memory_paramsRK13llama_cparamsE3$_4NS_9allocatorIS9_EEFiiEE7__cloneEv', symObjAddr: 0x67E90, symBinAddr: 0xDE340, symSize: 0x30 }
  - { offset: 0x5B75F6, size: 0x8, addend: 0x0, symName: '__ZNKSt3__110__function6__funcIZNK11llama_model13create_memoryERK19llama_memory_paramsRK13llama_cparamsE3$_4NS_9allocatorIS9_EEFiiEE7__cloneEPNS0_6__baseISC_EE', symObjAddr: 0x67EC0, symBinAddr: 0xDE370, symSize: 0x20 }
  - { offset: 0x5B76A1, size: 0x8, addend: 0x0, symName: '__ZNSt3__110__function6__funcIZNK11llama_model13create_memoryERK19llama_memory_paramsRK13llama_cparamsE3$_4NS_9allocatorIS9_EEFiiEE7destroyEv', symObjAddr: 0x67EE0, symBinAddr: 0xDE390, symSize: 0x10 }
  - { offset: 0x5B76F6, size: 0x8, addend: 0x0, symName: '__ZNSt3__110__function6__funcIZNK11llama_model13create_memoryERK19llama_memory_paramsRK13llama_cparamsE3$_4NS_9allocatorIS9_EEFiiEE18destroy_deallocateEv', symObjAddr: 0x67EF0, symBinAddr: 0xDE3A0, symSize: 0x10 }
  - { offset: 0x5B7822, size: 0x8, addend: 0x0, symName: '__ZNSt3__110__function6__funcIZNK11llama_model13create_memoryERK19llama_memory_paramsRK13llama_cparamsE3$_4NS_9allocatorIS9_EEFiiEEclEOi', symObjAddr: 0x67F00, symBinAddr: 0xDE3B0, symSize: 0x30 }
  - { offset: 0x5B78CD, size: 0x8, addend: 0x0, symName: '__ZNKSt3__110__function6__funcIZNK11llama_model13create_memoryERK19llama_memory_paramsRK13llama_cparamsE3$_4NS_9allocatorIS9_EEFiiEE6targetERKSt9type_info', symObjAddr: 0x67F30, symBinAddr: 0xDE3E0, symSize: 0x20 }
  - { offset: 0x5B793D, size: 0x8, addend: 0x0, symName: '__ZNKSt3__110__function6__funcIZNK11llama_model13create_memoryERK19llama_memory_paramsRK13llama_cparamsE3$_4NS_9allocatorIS9_EEFiiEE11target_typeEv', symObjAddr: 0x67F50, symBinAddr: 0xDE400, symSize: 0x10 }
  - { offset: 0x5B79EF, size: 0x8, addend: 0x0, symName: __GLOBAL__sub_I_llama_model.cpp, symObjAddr: 0x71590, symBinAddr: 0xDE550, symSize: 0x91 }
  - { offset: 0x5B9C64, size: 0x8, addend: 0x0, symName: __ZL25llama_model_quantize_implRKNSt3__112basic_stringIcNS_11char_traitsIcEENS_9allocatorIcEEEES7_PK27llama_model_quantize_params, symObjAddr: 0x250, symBinAddr: 0xDE840, symSize: 0x73D0 }
  - { offset: 0x5F2239, size: 0x8, addend: 0x0, symName: '__ZNSt3__111__introsortINS_17_ClassicAlgPolicyERZL25llama_model_quantize_implRKNS_12basic_stringIcNS_11char_traitsIcEENS_9allocatorIcEEEES9_PK27llama_model_quantize_paramsE3$_0PPKN18llama_model_loader19llama_tensor_weightELb0EEEvT1_SK_T0_NS_15iterator_traitsISK_E15difference_typeEb', symObjAddr: 0x13E50, symBinAddr: 0xE64B0, symSize: 0xC90 }
  - { offset: 0x5F3FB6, size: 0x8, addend: 0x0, symName: '__ZNSt3__127__insertion_sort_incompleteB8ne200100INS_17_ClassicAlgPolicyERZL25llama_model_quantize_implRKNS_12basic_stringIcNS_11char_traitsIcEENS_9allocatorIcEEEES9_PK27llama_model_quantize_paramsE3$_0PPKN18llama_model_loader19llama_tensor_weightEEEbT1_SK_T0_', symObjAddr: 0x14BE0, symBinAddr: 0xE7240, symSize: 0x360 }
  - { offset: 0x610884, size: 0x8, addend: 0x0, symName: '__ZNSt3__17__sort4B8ne200100INS_17_ClassicAlgPolicyERZL25llama_model_quantize_implRKNS_12basic_stringIcNS_11char_traitsIcEENS_9allocatorIcEEEES9_PK27llama_model_quantize_paramsE3$_0PPKN18llama_model_loader19llama_tensor_weightELi0EEEvT1_SK_SK_SK_T0_', symObjAddr: 0x14AE0, symBinAddr: 0xE7140, symSize: 0x100 }
  - { offset: 0x611358, size: 0x8, addend: 0x0, symName: '__ZNSt3__114__thread_proxyB8ne200100INS_5tupleIJNS_10unique_ptrINS_15__thread_structENS_14default_deleteIS3_EEEEZL28llama_tensor_dequantize_implP11ggml_tensorRNS_6vectorI7no_initIfENS_9allocatorISB_EEEERNS9_INS_6threadENSC_ISG_EEEEmiE3$_09ggml_typePhPfmEEEEEPvSP_', symObjAddr: 0x194E0, symBinAddr: 0xE7B80, symSize: 0xB0 }
  - { offset: 0x611753, size: 0x8, addend: 0x0, symName: '__ZNSt3__114__thread_proxyB8ne200100INS_5tupleIJNS_10unique_ptrINS_15__thread_structENS_14default_deleteIS3_EEEEZL26llama_tensor_quantize_impl9ggml_typePKfPvxxxS9_RNS_6vectorINS_6threadENS_9allocatorISC_EEEEiE3$_0EEEEESA_SA_', symObjAddr: 0x19720, symBinAddr: 0xE7D80, symSize: 0x80 }
  - { offset: 0x616549, size: 0x8, addend: 0x0, symName: _llama_model_quantize_default_params, symObjAddr: 0x0, symBinAddr: 0xDE5F0, symSize: 0x40 }
  - { offset: 0x61683D, size: 0x8, addend: 0x0, symName: _llama_model_quantize, symObjAddr: 0x40, symBinAddr: 0xDE630, symSize: 0x210 }
  - { offset: 0x61F3ED, size: 0x8, addend: 0x0, symName: __ZNSt3__16vectorIiNS_9allocatorIiEEE18__assign_with_sizeB8ne200100IPiS5_EEvT_T0_l, symObjAddr: 0x7F50, symBinAddr: 0xE6360, symSize: 0x140 }
  - { offset: 0x620AF6, size: 0x8, addend: 0x0, symName: '__ZZL25llama_model_quantize_implRKNSt3__112basic_stringIcNS_11char_traitsIcEENS_9allocatorIcEEEES7_PK27llama_model_quantize_paramsENK3$_2clEi', symObjAddr: 0x7710, symBinAddr: 0xE5C10, symSize: 0x400 }
  - { offset: 0x621844, size: 0x8, addend: 0x0, symName: '__ZZL25llama_model_quantize_implRKNSt3__112basic_stringIcNS_11char_traitsIcEENS_9allocatorIcEEEES7_PK27llama_model_quantize_paramsENK3$_1clEv', symObjAddr: 0x7B10, symBinAddr: 0xE6010, symSize: 0x210 }
  - { offset: 0x621FBF, size: 0x8, addend: 0x0, symName: __ZNKSt3__112__hash_tableINS_17__hash_value_typeINS_12basic_stringIcNS_11char_traitsIcEENS_9allocatorIcEEEENS_6vectorIfNS5_IfEEEEEENS_22__unordered_map_hasherIS7_SB_NS_4hashIS7_EENS_8equal_toIS7_EELb1EEENS_21__unordered_map_equalIS7_SB_SG_SE_Lb1EEENS5_ISB_EEE4findIS7_EENS_21__hash_const_iteratorIPNS_11__hash_nodeISB_PvEEEERKT_, symObjAddr: 0x18D90, symBinAddr: 0xE78E0, symSize: 0x290 }
  - { offset: 0x6225E7, size: 0x8, addend: 0x0, symName: '__ZZL21llama_tensor_get_typeR19quantize_state_impl9ggml_typePK11ggml_tensor11llama_ftypeENK3$_1clEiiPKc', symObjAddr: 0x18C60, symBinAddr: 0xE77B0, symSize: 0x130 }
  - { offset: 0x622742, size: 0x8, addend: 0x0, symName: __ZNSt3__16__treeINS_12__value_typeIiNS_12basic_stringIcNS_11char_traitsIcEENS_9allocatorIcEEEEEENS_19__map_value_compareIiS8_NS_4lessIiEELb1EEENS5_IS8_EEE7destroyEPNS_11__tree_nodeIS8_PvEE, symObjAddr: 0x197F0, symBinAddr: 0xE7E50, symSize: 0x50 }
  - { offset: 0x6229D7, size: 0x8, addend: 0x0, symName: __ZN18llama_model_loaderD2Ev, symObjAddr: 0x19840, symBinAddr: 0xE7EA0, symSize: 0x1F0 }
  - { offset: 0x6236E0, size: 0x8, addend: 0x0, symName: __ZNSt3__16vectorINS_6threadENS_9allocatorIS1_EEE20__throw_length_errorB8ne200100Ev, symObjAddr: 0x14F80, symBinAddr: 0xE75A0, symSize: 0x10 }
  - { offset: 0x6236F8, size: 0x8, addend: 0x0, symName: __ZNSt3__114__split_bufferINS_6threadERNS_9allocatorIS1_EEED1Ev, symObjAddr: 0x14F90, symBinAddr: 0xE75B0, symSize: 0x50 }
  - { offset: 0x623733, size: 0x8, addend: 0x0, symName: __ZNSt3__16vectorIPKN18llama_model_loader19llama_tensor_weightENS_9allocatorIS4_EEE20__throw_length_errorB8ne200100Ev, symObjAddr: 0x8160, symBinAddr: 0xE64A0, symSize: 0x10 }
  - { offset: 0x62376B, size: 0x8, addend: 0x0, symName: __ZNSt3__16vectorI7no_initIfENS_9allocatorIS2_EEE20__throw_length_errorB8ne200100Ev, symObjAddr: 0x194D0, symBinAddr: 0xE7B70, symSize: 0x10 }
  - { offset: 0x623783, size: 0x8, addend: 0x0, symName: '__ZNSt3__114__thread_proxyB8ne200100INS_5tupleIJNS_10unique_ptrINS_15__thread_structENS_14default_deleteIS3_EEEEZL28llama_tensor_dequantize_implP11ggml_tensorRNS_6vectorI7no_initIfENS_9allocatorISB_EEEERNS9_INS_6threadENSC_ISG_EEEEmiE3$_09ggml_typePhPfmEEEEEPvSP_', symObjAddr: 0x194E0, symBinAddr: 0xE7B80, symSize: 0xB0 }
  - { offset: 0x62378E, size: 0x8, addend: 0x0, symName: __ZNSt3__128__exception_guard_exceptionsINS_6vectorINS_10unique_ptrI12gguf_context20gguf_context_deleterEENS_9allocatorIS5_EEE16__destroy_vectorEED1B8ne200100Ev, symObjAddr: 0x14FE0, symBinAddr: 0xE7600, symSize: 0x80 }
  - { offset: 0x62395F, size: 0x8, addend: 0x0, symName: '__ZNSt3__110unique_ptrINS_5tupleIJNS0_INS_15__thread_structENS_14default_deleteIS2_EEEEZL28llama_tensor_dequantize_implP11ggml_tensorRNS_6vectorI7no_initIfENS_9allocatorISA_EEEERNS8_INS_6threadENSB_ISF_EEEEmiE3$_09ggml_typePhPfmEEENS3_ISN_EEED1B8ne200100Ev', symObjAddr: 0x19590, symBinAddr: 0xE7C30, symSize: 0x50 }
  - { offset: 0x623B5A, size: 0x8, addend: 0x0, symName: __ZNSt3__114__split_bufferINS_6threadERNS_9allocatorIS1_EEED1Ev, symObjAddr: 0x14F90, symBinAddr: 0xE75B0, symSize: 0x50 }
  - { offset: 0x623CB1, size: 0x8, addend: 0x0, symName: __ZNSt3__16vectorINS_10unique_ptrI12gguf_context20gguf_context_deleterEENS_9allocatorIS4_EEED1B8ne200100Ev, symObjAddr: 0x7DC0, symBinAddr: 0xE6270, symSize: 0x80 }
  - { offset: 0x623F1B, size: 0x8, addend: 0x0, symName: '__ZNSt3__110unique_ptrINS_5tupleIJNS0_INS_15__thread_structENS_14default_deleteIS2_EEEEZL26llama_tensor_quantize_impl9ggml_typePKfPvxxxS8_RNS_6vectorINS_6threadENS_9allocatorISB_EEEEiE3$_0EEENS3_ISH_EEED1B8ne200100Ev', symObjAddr: 0x197A0, symBinAddr: 0xE7E00, symSize: 0x50 }
  - { offset: 0x6240C5, size: 0x8, addend: 0x0, symName: __ZNSt3__114basic_ofstreamIcNS_11char_traitsIcEEED1Ev, symObjAddr: 0x7D70, symBinAddr: 0xE6220, symSize: 0x50 }
  - { offset: 0x62410D, size: 0x8, addend: 0x0, symName: __ZNSt3__16vectorINS_6threadENS_9allocatorIS1_EEED1B8ne200100Ev, symObjAddr: 0x7E40, symBinAddr: 0xE62F0, symSize: 0x70 }
  - { offset: 0x624778, size: 0x8, addend: 0x0, symName: __ZNSt3__114basic_ofstreamIcNS_11char_traitsIcEEEC1ERKNS_12basic_stringIcS2_NS_9allocatorIcEEEEj, symObjAddr: 0x15060, symBinAddr: 0xE7680, symSize: 0x130 }
  - { offset: 0x641E5A, size: 0x8, addend: 0x0, symName: '__ZZL26llama_tensor_quantize_impl9ggml_typePKfPvxxxS1_RNSt3__16vectorINS3_6threadENS3_9allocatorIS5_EEEEiENK3$_0clEv', symObjAddr: 0x19620, symBinAddr: 0xE7C80, symSize: 0x100 }
  - { offset: 0x644BDE, size: 0x8, addend: 0x0, symName: __ZL21llama_sampler_chain_i, symObjAddr: 0x20980, symBinAddr: 0x3232B8, symSize: 0x0 }
  - { offset: 0x644DED, size: 0x8, addend: 0x0, symName: __ZL22llama_sampler_greedy_i, symObjAddr: 0x209D0, symBinAddr: 0x323308, symSize: 0x0 }
  - { offset: 0x644DFB, size: 0x8, addend: 0x0, symName: __ZL12get_rng_seedj, symObjAddr: 0x9E0, symBinAddr: 0xE8A70, symSize: 0x130 }
  - { offset: 0x644E27, size: 0x8, addend: 0x0, symName: __ZZL12get_rng_seedjE10is_rd_prng, symObjAddr: 0x20B028, symBinAddr: 0x3AF168, symSize: 0x0 }
  - { offset: 0x645182, size: 0x8, addend: 0x0, symName: __ZL20llama_sampler_dist_i, symObjAddr: 0x20A20, symBinAddr: 0x323358, symSize: 0x0 }
  - { offset: 0x64519D, size: 0x8, addend: 0x0, symName: __ZL21llama_sampler_empty_i, symObjAddr: 0x20F20, symBinAddr: 0x323858, symSize: 0x0 }
  - { offset: 0x6451B8, size: 0x8, addend: 0x0, symName: __ZL21llama_sampler_top_k_i, symObjAddr: 0x20A70, symBinAddr: 0x3233A8, symSize: 0x0 }
  - { offset: 0x6451C6, size: 0x8, addend: 0x0, symName: __ZL43llama_token_data_array_partial_sort_inplaceP22llama_token_data_arrayi, symObjAddr: 0x4AF0, symBinAddr: 0xECAF0, symSize: 0x530 }
  - { offset: 0x6459B6, size: 0x8, addend: 0x0, symName: __ZL35llama_token_data_array_partial_sortRK22llama_token_data_arrayiRNSt3__16vectorI16llama_token_dataNS2_9allocatorIS4_EEEE, symObjAddr: 0x5020, symBinAddr: 0xED020, symSize: 0x5E0 }
  - { offset: 0x65B4A3, size: 0x8, addend: 0x0, symName: '__ZNSt3__111__introsortINS_17_ClassicAlgPolicyERZL35llama_token_data_array_partial_sortRK22llama_token_data_arrayiRNS_6vectorI16llama_token_dataNS_9allocatorIS6_EEEEE3$_0PS6_Lb0EEEvT1_SE_T0_NS_15iterator_traitsISE_E15difference_typeEb', symObjAddr: 0x56E0, symBinAddr: 0xED610, symSize: 0xD70 }
  - { offset: 0x65CD17, size: 0x8, addend: 0x0, symName: '__ZNSt3__127__insertion_sort_incompleteB8ne200100INS_17_ClassicAlgPolicyERZL35llama_token_data_array_partial_sortRK22llama_token_data_arrayiRNS_6vectorI16llama_token_dataNS_9allocatorIS6_EEEEE3$_0PS6_EEbT1_SE_T0_', symObjAddr: 0x66B0, symBinAddr: 0xEE5E0, symSize: 0x4D0 }
  - { offset: 0x65F002, size: 0x8, addend: 0x0, symName: '__ZNSt3__111__introsortINS_17_ClassicAlgPolicyERZL27llama_sampler_typical_applyP13llama_samplerP22llama_token_data_arrayE3$_0PmLb0EEEvT1_S9_T0_NS_15iterator_traitsIS9_E15difference_typeEb', symObjAddr: 0x8860, symBinAddr: 0xF0770, symSize: 0xAF0 }
  - { offset: 0x660B71, size: 0x8, addend: 0x0, symName: '__ZNSt3__127__insertion_sort_incompleteB8ne200100INS_17_ClassicAlgPolicyERZL27llama_sampler_typical_applyP13llama_samplerP22llama_token_data_arrayE3$_0PmEEbT1_S9_T0_', symObjAddr: 0x94A0, symBinAddr: 0xF13B0, symSize: 0x320 }
  - { offset: 0x66BEA0, size: 0x8, addend: 0x0, symName: __ZNSt3__113regex_replaceB8ne200100INS_20back_insert_iteratorINS_12basic_stringIcNS_11char_traitsIcEENS_9allocatorIcEEEEEEPKcNS_12regex_traitsIcEEcEET_SD_T0_SE_RKNS_11basic_regexIT2_T1_EEPKSG_NS_15regex_constants15match_flag_typeE, symObjAddr: 0x15B20, symBinAddr: 0xF4980, symSize: 0x2E0 }
  - { offset: 0x66E88C, size: 0x8, addend: 0x0, symName: '__ZNSt3__119__partial_sort_implB8ne200100INS_17_ClassicAlgPolicyERZL35llama_token_data_array_partial_sortRK22llama_token_data_arrayiRNS_6vectorI16llama_token_dataNS_9allocatorIS6_EEEEE3$_0PS6_SD_EET1_SE_SE_T2_OT0_', symObjAddr: 0x6B80, symBinAddr: 0xEEAB0, symSize: 0x470 }
  - { offset: 0x66F076, size: 0x8, addend: 0x0, symName: '__ZNSt3__17__sort5B8ne200100INS_17_ClassicAlgPolicyERZL35llama_token_data_array_partial_sortRK22llama_token_data_arrayiRNS_6vectorI16llama_token_dataNS_9allocatorIS6_EEEEE3$_0PS6_Li0EEEvT1_SE_SE_SE_SE_T0_', symObjAddr: 0x6450, symBinAddr: 0xEE380, symSize: 0x260 }
  - { offset: 0x6708E4, size: 0x8, addend: 0x0, symName: '__ZNSt3__17__sort5B8ne200100INS_17_ClassicAlgPolicyERZL27llama_sampler_typical_applyP13llama_samplerP22llama_token_data_arrayE3$_0PmLi0EEEvT1_S9_S9_S9_S9_T0_', symObjAddr: 0x9350, symBinAddr: 0xF1260, symSize: 0x150 }
  - { offset: 0x677511, size: 0x8, addend: 0x0, symName: __ZL21llama_sampler_top_p_i, symObjAddr: 0x20AC0, symBinAddr: 0x3233F8, symSize: 0x0 }
  - { offset: 0x67752C, size: 0x8, addend: 0x0, symName: __ZL21llama_sampler_min_p_i, symObjAddr: 0x20B10, symBinAddr: 0x323448, symSize: 0x0 }
  - { offset: 0x677547, size: 0x8, addend: 0x0, symName: __ZL23llama_sampler_typical_i, symObjAddr: 0x20B60, symBinAddr: 0x323498, symSize: 0x0 }
  - { offset: 0x677562, size: 0x8, addend: 0x0, symName: __ZL20llama_sampler_temp_i, symObjAddr: 0x20BB0, symBinAddr: 0x3234E8, symSize: 0x0 }
  - { offset: 0x67757D, size: 0x8, addend: 0x0, symName: __ZL24llama_sampler_temp_ext_i, symObjAddr: 0x20C00, symBinAddr: 0x323538, symSize: 0x0 }
  - { offset: 0x677598, size: 0x8, addend: 0x0, symName: __ZL19llama_sampler_xtc_i, symObjAddr: 0x20C50, symBinAddr: 0x323588, symSize: 0x0 }
  - { offset: 0x6775B3, size: 0x8, addend: 0x0, symName: __ZL24llama_sampler_mirostat_i, symObjAddr: 0x20CA0, symBinAddr: 0x3235D8, symSize: 0x0 }
  - { offset: 0x6775CE, size: 0x8, addend: 0x0, symName: __ZL27llama_sampler_mirostat_v2_i, symObjAddr: 0x20CF0, symBinAddr: 0x323628, symSize: 0x0 }
  - { offset: 0x6775DC, size: 0x8, addend: 0x0, symName: __ZL31llama_sampler_init_grammar_implPK11llama_vocabPKcS3_bPS3_mPKimS4_m, symObjAddr: 0x1230, symBinAddr: 0xE92C0, symSize: 0x650 }
  - { offset: 0x6775FD, size: 0x8, addend: 0x0, symName: __ZZL31llama_sampler_init_grammar_implPK11llama_vocabPKcS3_bPS3_mPKimS4_mE13special_chars, symObjAddr: 0x20B038, symBinAddr: 0x3AF178, symSize: 0x0 }
  - { offset: 0x678FE7, size: 0x8, addend: 0x0, symName: __ZL23llama_sampler_grammar_i, symObjAddr: 0x20F70, symBinAddr: 0x3238A8, symSize: 0x0 }
  - { offset: 0x679002, size: 0x8, addend: 0x0, symName: __ZL25llama_sampler_penalties_i, symObjAddr: 0x20D40, symBinAddr: 0x323678, symSize: 0x0 }
  - { offset: 0x679022, size: 0x8, addend: 0x0, symName: __ZL27llama_sampler_top_n_sigma_i, symObjAddr: 0x20D90, symBinAddr: 0x3236C8, symSize: 0x0 }
  - { offset: 0x67903D, size: 0x8, addend: 0x0, symName: __ZL19llama_sampler_dry_i, symObjAddr: 0x20DE0, symBinAddr: 0x323718, symSize: 0x0 }
  - { offset: 0x679058, size: 0x8, addend: 0x0, symName: __ZL26llama_sampler_adaptive_p_i, symObjAddr: 0x20E30, symBinAddr: 0x323768, symSize: 0x0 }
  - { offset: 0x6790AE, size: 0x8, addend: 0x0, symName: __ZL26llama_sampler_logit_bias_i, symObjAddr: 0x20E80, symBinAddr: 0x3237B8, symSize: 0x0 }
  - { offset: 0x6790C9, size: 0x8, addend: 0x0, symName: __ZL22llama_sampler_infill_i, symObjAddr: 0x20ED0, symBinAddr: 0x323808, symSize: 0x0 }
  - { offset: 0x67A5D6, size: 0x8, addend: 0x0, symName: __ZL17llama_sample_distP22llama_token_data_arrayRNSt3__123mersenne_twister_engineIjLm32ELm624ELm397ELm31ELj2567483615ELm11ELj4294967295ELm7ELj2636928640ELm15ELj4022730752ELm18ELj1812433253EEE, symObjAddr: 0xBB50, symBinAddr: 0xF3A60, symSize: 0x230 }
  - { offset: 0x67C1AE, size: 0x8, addend: 0x0, symName: _llama_sampler_init, symObjAddr: 0x0, symBinAddr: 0xE8090, symSize: 0x30 }
  - { offset: 0x67C1D5, size: 0x8, addend: 0x0, symName: _llama_sampler_name, symObjAddr: 0x30, symBinAddr: 0xE80C0, symSize: 0x20 }
  - { offset: 0x67C20C, size: 0x8, addend: 0x0, symName: _llama_sampler_accept, symObjAddr: 0x50, symBinAddr: 0xE80E0, symSize: 0x20 }
  - { offset: 0x67C23B, size: 0x8, addend: 0x0, symName: _llama_sampler_apply, symObjAddr: 0x70, symBinAddr: 0xE8100, symSize: 0x40 }
  - { offset: 0x67C29D, size: 0x8, addend: 0x0, symName: _llama_sampler_reset, symObjAddr: 0xB0, symBinAddr: 0xE8140, symSize: 0x20 }
  - { offset: 0x67C2EC, size: 0x8, addend: 0x0, symName: _llama_sampler_clone, symObjAddr: 0xD0, symBinAddr: 0xE8160, symSize: 0x70 }
  - { offset: 0x67C34F, size: 0x8, addend: 0x0, symName: _llama_sampler_free, symObjAddr: 0x140, symBinAddr: 0xE81D0, symSize: 0x30 }
  - { offset: 0x67C3B3, size: 0x8, addend: 0x0, symName: _llama_sampler_chain_init, symObjAddr: 0x170, symBinAddr: 0xE8200, symSize: 0x50 }
  - { offset: 0x67C675, size: 0x8, addend: 0x0, symName: _llama_sampler_sample, symObjAddr: 0x1C0, symBinAddr: 0xE8250, symSize: 0x4E0 }
  - { offset: 0x67CFD3, size: 0x8, addend: 0x0, symName: __ZNSt3__16vectorI16llama_token_dataNS_9allocatorIS1_EEE8__appendEm, symObjAddr: 0x1EF10, symBinAddr: 0xFABA0, symSize: 0x1A0 }
  - { offset: 0x67D755, size: 0x8, addend: 0x0, symName: _llama_sampler_chain_add, symObjAddr: 0x6A0, symBinAddr: 0xE8730, symSize: 0x120 }
  - { offset: 0x67DB99, size: 0x8, addend: 0x0, symName: __ZNSt3__16vectorIN19llama_sampler_chain4infoENS_9allocatorIS2_EEE20__throw_length_errorB8ne200100Ev, symObjAddr: 0x1F0B0, symBinAddr: 0xFAD40, symSize: 0x10 }
  - { offset: 0x67DBBC, size: 0x8, addend: 0x0, symName: _llama_sampler_chain_get, symObjAddr: 0x7C0, symBinAddr: 0xE8850, symSize: 0x50 }
  - { offset: 0x67DD5D, size: 0x8, addend: 0x0, symName: _llama_sampler_chain_remove, symObjAddr: 0x810, symBinAddr: 0xE88A0, symSize: 0x70 }
  - { offset: 0x67DFAD, size: 0x8, addend: 0x0, symName: _llama_sampler_chain_n, symObjAddr: 0x880, symBinAddr: 0xE8910, symSize: 0x20 }
  - { offset: 0x67E033, size: 0x8, addend: 0x0, symName: _llama_sampler_init_greedy, symObjAddr: 0x8A0, symBinAddr: 0xE8930, symSize: 0x60 }
  - { offset: 0x67E0A2, size: 0x8, addend: 0x0, symName: __ZN21llama_sampler_backendC2EPKc, symObjAddr: 0x3BB0, symBinAddr: 0xEBBB0, symSize: 0x130 }
  - { offset: 0x67E813, size: 0x8, addend: 0x0, symName: _llama_sampler_init_dist, symObjAddr: 0x900, symBinAddr: 0xE8990, symSize: 0xE0 }
  - { offset: 0x67EB62, size: 0x8, addend: 0x0, symName: __ZNSt3__113random_deviceC1B8ne200100Ev, symObjAddr: 0x3CE0, symBinAddr: 0xEBCE0, symSize: 0x60 }
  - { offset: 0x67EE8B, size: 0x8, addend: 0x0, symName: __ZN21llama_sampler_backendD1Ev, symObjAddr: 0xB10, symBinAddr: 0xE8BA0, symSize: 0x40 }
  - { offset: 0x67F0D7, size: 0x8, addend: 0x0, symName: _llama_sampler_init_top_k, symObjAddr: 0xB50, symBinAddr: 0xE8BE0, symSize: 0x80 }
  - { offset: 0x67F14E, size: 0x8, addend: 0x0, symName: _llama_sampler_init_top_p, symObjAddr: 0xBD0, symBinAddr: 0xE8C60, symSize: 0xB0 }
  - { offset: 0x67F20D, size: 0x8, addend: 0x0, symName: _llama_sampler_init_min_p, symObjAddr: 0xC80, symBinAddr: 0xE8D10, symSize: 0xA0 }
  - { offset: 0x67F28D, size: 0x8, addend: 0x0, symName: _llama_sampler_init_typical, symObjAddr: 0xD20, symBinAddr: 0xE8DB0, symSize: 0x80 }
  - { offset: 0x67F2D9, size: 0x8, addend: 0x0, symName: _llama_sampler_init_temp, symObjAddr: 0xDA0, symBinAddr: 0xE8E30, symSize: 0xA0 }
  - { offset: 0x67F350, size: 0x8, addend: 0x0, symName: _llama_sampler_init_temp_ext, symObjAddr: 0xE40, symBinAddr: 0xE8ED0, symSize: 0xC0 }
  - { offset: 0x67F3E2, size: 0x8, addend: 0x0, symName: _llama_sampler_init_xtc, symObjAddr: 0xF00, symBinAddr: 0xE8F90, symSize: 0x120 }
  - { offset: 0x67F4E4, size: 0x8, addend: 0x0, symName: _llama_sampler_init_mirostat, symObjAddr: 0x1020, symBinAddr: 0xE90B0, symSize: 0x100 }
  - { offset: 0x67F60F, size: 0x8, addend: 0x0, symName: _llama_sampler_init_mirostat_v2, symObjAddr: 0x1120, symBinAddr: 0xE91B0, symSize: 0xE0 }
  - { offset: 0x67F728, size: 0x8, addend: 0x0, symName: _llama_sampler_init_grammar, symObjAddr: 0x1200, symBinAddr: 0xE9290, symSize: 0x30 }
  - { offset: 0x67FC62, size: 0x8, addend: 0x0, symName: _llama_sampler_init_grammar_lazy, symObjAddr: 0x1880, symBinAddr: 0xE9910, symSize: 0x40 }
  - { offset: 0x67FD24, size: 0x8, addend: 0x0, symName: _llama_sampler_init_grammar_lazy_patterns, symObjAddr: 0x18C0, symBinAddr: 0xE9950, symSize: 0x30 }
  - { offset: 0x68008D, size: 0x8, addend: 0x0, symName: _llama_sampler_init_penalties, symObjAddr: 0x18F0, symBinAddr: 0xE9980, symSize: 0x130 }
  - { offset: 0x6803C5, size: 0x8, addend: 0x0, symName: _llama_sampler_init_top_n_sigma, symObjAddr: 0x1A20, symBinAddr: 0xE9AB0, symSize: 0x70 }
  - { offset: 0x681954, size: 0x8, addend: 0x0, symName: _llama_sampler_init_dry, symObjAddr: 0x1A90, symBinAddr: 0xE9B20, symSize: 0xEA0 }
  - { offset: 0x684C88, size: 0x8, addend: 0x0, symName: __ZNSt3__112__hash_tableINS_17__hash_value_typeIiNS_6vectorIiNS_9allocatorIiEEEEEENS_22__unordered_map_hasherIiS6_NS_4hashIiEENS_8equal_toIiEELb1EEENS_21__unordered_map_equalIiS6_SB_S9_Lb1EEENS3_IS6_EEE27__node_insert_multi_prepareEmRS6_, symObjAddr: 0x1A8A0, symBinAddr: 0xF6680, symSize: 0x3B0 }
  - { offset: 0x684F8E, size: 0x8, addend: 0x0, symName: __ZNSt3__112__hash_tableINS_17__hash_value_typeIiNS_6vectorIiNS_9allocatorIiEEEEEENS_22__unordered_map_hasherIiS6_NS_4hashIiEENS_8equal_toIiEELb1EEENS_21__unordered_map_equalIiS6_SB_S9_Lb1EEENS3_IS6_EEE19__node_insert_multiEPNS_11__hash_nodeIS6_PvEE, symObjAddr: 0x1A6C0, symBinAddr: 0xF64A0, symSize: 0x190 }
  - { offset: 0x68533B, size: 0x8, addend: 0x0, symName: __ZNSt3__118unordered_multimapIiNS_6vectorIiNS_9allocatorIiEEEENS_4hashIiEENS_8equal_toIiEENS2_INS_4pairIKiS4_EEEEED1B8ne200100Ev, symObjAddr: 0x2980, symBinAddr: 0xEA9C0, symSize: 0x70 }
  - { offset: 0x685731, size: 0x8, addend: 0x0, symName: __ZNSt3__110unique_ptrINS_11__hash_nodeINS_17__hash_value_typeIiNS_6vectorIiNS_9allocatorIiEEEEEEPvEENS_22__hash_node_destructorINS4_IS9_EEEEED1B8ne200100Ev, symObjAddr: 0x1A850, symBinAddr: 0xF6630, symSize: 0x50 }
  - { offset: 0x685E4D, size: 0x8, addend: 0x0, symName: __Z30llama_sampler_init_dry_testingiffiiRKNSt3__16vectorINS0_IiNS_9allocatorIiEEEENS1_IS3_EEEE, symObjAddr: 0x29F0, symBinAddr: 0xEAA30, symSize: 0x280 }
  - { offset: 0x6869A0, size: 0x8, addend: 0x0, symName: _llama_sampler_init_adaptive_p, symObjAddr: 0x2C70, symBinAddr: 0xEACB0, symSize: 0x140 }
  - { offset: 0x686D90, size: 0x8, addend: 0x0, symName: _llama_sampler_init_logit_bias, symObjAddr: 0x2DB0, symBinAddr: 0xEADF0, symSize: 0x110 }
  - { offset: 0x687353, size: 0x8, addend: 0x0, symName: _llama_sampler_init_infill, symObjAddr: 0x2EC0, symBinAddr: 0xEAF00, symSize: 0x100 }
  - { offset: 0x6878FE, size: 0x8, addend: 0x0, symName: _llama_sampler_get_seed, symObjAddr: 0x2FC0, symBinAddr: 0xEB000, symSize: 0xA0 }
  - { offset: 0x687AA9, size: 0x8, addend: 0x0, symName: _llama_perf_sampler, symObjAddr: 0x3060, symBinAddr: 0xEB0A0, symSize: 0x60 }
  - { offset: 0x687BA4, size: 0x8, addend: 0x0, symName: _llama_perf_sampler_print, symObjAddr: 0x30C0, symBinAddr: 0xEB100, symSize: 0x70 }
  - { offset: 0x687C89, size: 0x8, addend: 0x0, symName: _llama_perf_sampler_reset, symObjAddr: 0x3130, symBinAddr: 0xEB170, symSize: 0x50 }
  - { offset: 0x687CD6, size: 0x8, addend: 0x0, symName: __ZL24llama_sampler_chain_namePK13llama_sampler, symObjAddr: 0x3180, symBinAddr: 0xEB1C0, symSize: 0x10 }
  - { offset: 0x687D4D, size: 0x8, addend: 0x0, symName: __ZL26llama_sampler_chain_acceptP13llama_sampleri, symObjAddr: 0x3190, symBinAddr: 0xEB1D0, symSize: 0x90 }
  - { offset: 0x687EB7, size: 0x8, addend: 0x0, symName: __ZL25llama_sampler_chain_applyP13llama_samplerP22llama_token_data_array, symObjAddr: 0x3220, symBinAddr: 0xEB260, symSize: 0xA0 }
  - { offset: 0x68802F, size: 0x8, addend: 0x0, symName: __ZL25llama_sampler_chain_resetP13llama_sampler, symObjAddr: 0x32C0, symBinAddr: 0xEB300, symSize: 0x50 }
  - { offset: 0x6881CD, size: 0x8, addend: 0x0, symName: __ZL25llama_sampler_chain_clonePK13llama_sampler, symObjAddr: 0x3310, symBinAddr: 0xEB350, symSize: 0xE0 }
  - { offset: 0x68849A, size: 0x8, addend: 0x0, symName: __ZL24llama_sampler_chain_freeP13llama_sampler, symObjAddr: 0x33F0, symBinAddr: 0xEB430, symSize: 0x90 }
  - { offset: 0x688840, size: 0x8, addend: 0x0, symName: __ZL32llama_sampler_chain_backend_initP13llama_samplerP24ggml_backend_buffer_type, symObjAddr: 0x3480, symBinAddr: 0xEB4C0, symSize: 0x90 }
  - { offset: 0x68899B, size: 0x8, addend: 0x0, symName: __ZL34llama_sampler_chain_backend_acceptP13llama_samplerP12ggml_contextP11ggml_cgraphP11ggml_tensor, symObjAddr: 0x3510, symBinAddr: 0xEB550, symSize: 0x70 }
  - { offset: 0x688AEB, size: 0x8, addend: 0x0, symName: __ZL33llama_sampler_chain_backend_applyP13llama_samplerP12ggml_contextP11ggml_cgraphP18llama_sampler_data, symObjAddr: 0x3580, symBinAddr: 0xEB5C0, symSize: 0x90 }
  - { offset: 0x688C50, size: 0x8, addend: 0x0, symName: __ZL37llama_sampler_chain_backend_set_inputP13llama_sampler, symObjAddr: 0x3610, symBinAddr: 0xEB650, symSize: 0x50 }
  - { offset: 0x688D6D, size: 0x8, addend: 0x0, symName: __ZL25llama_sampler_greedy_namePK13llama_sampler, symObjAddr: 0x3670, symBinAddr: 0xEB6A0, symSize: 0x10 }
  - { offset: 0x688DBB, size: 0x8, addend: 0x0, symName: __ZN21llama_sampler_backend8get_nameEv, symObjAddr: 0x3880, symBinAddr: 0xEB8B0, symSize: 0x90 }
  - { offset: 0x688FCF, size: 0x8, addend: 0x0, symName: __ZL26llama_sampler_greedy_applyP13llama_samplerP22llama_token_data_array, symObjAddr: 0x3680, symBinAddr: 0xEB6B0, symSize: 0xC0 }
  - { offset: 0x689019, size: 0x8, addend: 0x0, symName: __ZL26llama_sampler_greedy_resetP13llama_sampler, symObjAddr: 0x3740, symBinAddr: 0xEB770, symSize: 0x10 }
  - { offset: 0x68905B, size: 0x8, addend: 0x0, symName: __ZL26llama_sampler_greedy_clonePK13llama_sampler, symObjAddr: 0x3750, symBinAddr: 0xEB780, symSize: 0x60 }
  - { offset: 0x68914B, size: 0x8, addend: 0x0, symName: __ZL25llama_sampler_greedy_freeP13llama_sampler, symObjAddr: 0x37B0, symBinAddr: 0xEB7E0, symSize: 0x50 }
  - { offset: 0x6893F2, size: 0x8, addend: 0x0, symName: __ZL33llama_sampler_greedy_backend_initP13llama_samplerP24ggml_backend_buffer_type, symObjAddr: 0x3800, symBinAddr: 0xEB830, symSize: 0x50 }
  - { offset: 0x68949F, size: 0x8, addend: 0x0, symName: __ZL29llama_sampler_backend_supportP13llama_samplerP24ggml_backend_buffer_type, symObjAddr: 0x3910, symBinAddr: 0xEB940, symSize: 0x270 }
  - { offset: 0x68997D, size: 0x8, addend: 0x0, symName: __ZL34llama_sampler_greedy_backend_applyP13llama_samplerP12ggml_contextP11ggml_cgraphP18llama_sampler_data, symObjAddr: 0x3850, symBinAddr: 0xEB880, symSize: 0x30 }
  - { offset: 0x689CE1, size: 0x8, addend: 0x0, symName: __ZL23llama_sampler_dist_namePK13llama_sampler, symObjAddr: 0x3D40, symBinAddr: 0xEBD40, symSize: 0x10 }
  - { offset: 0x689F08, size: 0x8, addend: 0x0, symName: __ZL24llama_sampler_dist_applyP13llama_samplerP22llama_token_data_array, symObjAddr: 0x3D50, symBinAddr: 0xEBD50, symSize: 0x370 }
  - { offset: 0x68A253, size: 0x8, addend: 0x0, symName: __ZL24llama_sampler_dist_resetP13llama_sampler, symObjAddr: 0x40C0, symBinAddr: 0xEC0C0, symSize: 0x90 }
  - { offset: 0x68A31C, size: 0x8, addend: 0x0, symName: __ZL24llama_sampler_dist_clonePK13llama_sampler, symObjAddr: 0x4150, symBinAddr: 0xEC150, symSize: 0x110 }
  - { offset: 0x68A583, size: 0x8, addend: 0x0, symName: __ZL23llama_sampler_dist_freeP13llama_sampler, symObjAddr: 0x4260, symBinAddr: 0xEC260, symSize: 0x90 }
  - { offset: 0x68A953, size: 0x8, addend: 0x0, symName: __ZL31llama_sampler_dist_backend_initP13llama_samplerP24ggml_backend_buffer_type, symObjAddr: 0x42F0, symBinAddr: 0xEC2F0, symSize: 0x180 }
  - { offset: 0x68AC85, size: 0x8, addend: 0x0, symName: __ZL32llama_sampler_dist_backend_applyP13llama_samplerP12ggml_contextP11ggml_cgraphP18llama_sampler_data, symObjAddr: 0x4470, symBinAddr: 0xEC470, symSize: 0x150 }
  - { offset: 0x68AFF4, size: 0x8, addend: 0x0, symName: __ZL36llama_sampler_dist_backend_set_inputP13llama_sampler, symObjAddr: 0x45C0, symBinAddr: 0xEC5C0, symSize: 0x1F0 }
  - { offset: 0x68B278, size: 0x8, addend: 0x0, symName: __ZL24llama_sampler_empty_namePK13llama_sampler, symObjAddr: 0x47B0, symBinAddr: 0xEC7B0, symSize: 0x10 }
  - { offset: 0x68B2B7, size: 0x8, addend: 0x0, symName: __ZL26llama_sampler_empty_acceptP13llama_sampleri, symObjAddr: 0x47C0, symBinAddr: 0xEC7C0, symSize: 0x10 }
  - { offset: 0x68B2EB, size: 0x8, addend: 0x0, symName: __ZL25llama_sampler_empty_applyP13llama_samplerP22llama_token_data_array, symObjAddr: 0x47D0, symBinAddr: 0xEC7D0, symSize: 0x10 }
  - { offset: 0x68B31F, size: 0x8, addend: 0x0, symName: __ZL25llama_sampler_empty_resetP13llama_sampler, symObjAddr: 0x47E0, symBinAddr: 0xEC7E0, symSize: 0x10 }
  - { offset: 0x68B347, size: 0x8, addend: 0x0, symName: __ZL25llama_sampler_empty_clonePK13llama_sampler, symObjAddr: 0x47F0, symBinAddr: 0xEC7F0, symSize: 0x40 }
  - { offset: 0x68B3CA, size: 0x8, addend: 0x0, symName: __ZL24llama_sampler_empty_freeP13llama_sampler, symObjAddr: 0x4830, symBinAddr: 0xEC830, symSize: 0x20 }
  - { offset: 0x68B3F6, size: 0x8, addend: 0x0, symName: __ZL32llama_sampler_empty_backend_initP13llama_samplerP24ggml_backend_buffer_type, symObjAddr: 0x4850, symBinAddr: 0xEC850, symSize: 0x10 }
  - { offset: 0x68B42E, size: 0x8, addend: 0x0, symName: __ZL34llama_sampler_empty_backend_acceptP13llama_samplerP12ggml_contextP11ggml_cgraphP11ggml_tensor, symObjAddr: 0x4860, symBinAddr: 0xEC860, symSize: 0x10 }
  - { offset: 0x68B47A, size: 0x8, addend: 0x0, symName: __ZL33llama_sampler_empty_backend_applyP13llama_samplerP12ggml_contextP11ggml_cgraphP18llama_sampler_data, symObjAddr: 0x4870, symBinAddr: 0xEC870, symSize: 0x10 }
  - { offset: 0x68B4C6, size: 0x8, addend: 0x0, symName: __ZL37llama_sampler_empty_backend_set_inputP13llama_sampler, symObjAddr: 0x4880, symBinAddr: 0xEC880, symSize: 0x10 }
  - { offset: 0x68B4EE, size: 0x8, addend: 0x0, symName: __ZL24llama_sampler_top_k_namePK13llama_sampler, symObjAddr: 0x4890, symBinAddr: 0xEC890, symSize: 0x10 }
  - { offset: 0x68B563, size: 0x8, addend: 0x0, symName: __ZL25llama_sampler_top_k_applyP13llama_samplerP22llama_token_data_array, symObjAddr: 0x48A0, symBinAddr: 0xEC8A0, symSize: 0x40 }
  - { offset: 0x68B607, size: 0x8, addend: 0x0, symName: __ZL25llama_sampler_top_k_clonePK13llama_sampler, symObjAddr: 0x48E0, symBinAddr: 0xEC8E0, symSize: 0x90 }
  - { offset: 0x68B6F1, size: 0x8, addend: 0x0, symName: __ZL24llama_sampler_top_k_freeP13llama_sampler, symObjAddr: 0x4970, symBinAddr: 0xEC970, symSize: 0x50 }
  - { offset: 0x68B976, size: 0x8, addend: 0x0, symName: __ZL32llama_sampler_top_k_backend_initP13llama_samplerP24ggml_backend_buffer_type, symObjAddr: 0x49C0, symBinAddr: 0xEC9C0, symSize: 0x50 }
  - { offset: 0x68BA23, size: 0x8, addend: 0x0, symName: __ZL33llama_sampler_top_k_backend_applyP13llama_samplerP12ggml_contextP11ggml_cgraphP18llama_sampler_data, symObjAddr: 0x4A10, symBinAddr: 0xECA10, symSize: 0xE0 }
  - { offset: 0x68C2E8, size: 0x8, addend: 0x0, symName: __ZNSt3__16vectorIP16llama_token_dataNS_9allocatorIS2_EEE20__throw_length_errorB8ne200100Ev, symObjAddr: 0x56D0, symBinAddr: 0xED600, symSize: 0x10 }
  - { offset: 0x68C300, size: 0x8, addend: 0x0, symName: '__ZNSt3__111__introsortINS_17_ClassicAlgPolicyERZL35llama_token_data_array_partial_sortRK22llama_token_data_arrayiRNS_6vectorI16llama_token_dataNS_9allocatorIS6_EEEEE3$_0PS6_Lb0EEEvT1_SE_T0_NS_15iterator_traitsISE_E15difference_typeEb', symObjAddr: 0x56E0, symBinAddr: 0xED610, symSize: 0xD70 }
  - { offset: 0x68C3FF, size: 0x8, addend: 0x0, symName: __ZL24llama_sampler_top_p_namePK13llama_sampler, symObjAddr: 0x6FF0, symBinAddr: 0xEEF20, symSize: 0x10 }
  - { offset: 0x68C4C4, size: 0x8, addend: 0x0, symName: __ZL25llama_sampler_top_p_applyP13llama_samplerP22llama_token_data_array, symObjAddr: 0x7000, symBinAddr: 0xEEF30, symSize: 0x430 }
  - { offset: 0x68C845, size: 0x8, addend: 0x0, symName: __ZL25llama_sampler_top_p_clonePK13llama_sampler, symObjAddr: 0x7430, symBinAddr: 0xEF360, symSize: 0xC0 }
  - { offset: 0x68C977, size: 0x8, addend: 0x0, symName: __ZL24llama_sampler_top_p_freeP13llama_sampler, symObjAddr: 0x74F0, symBinAddr: 0xEF420, symSize: 0x60 }
  - { offset: 0x68CD28, size: 0x8, addend: 0x0, symName: __ZL32llama_sampler_top_p_backend_initP13llama_samplerP24ggml_backend_buffer_type, symObjAddr: 0x7550, symBinAddr: 0xEF480, symSize: 0x50 }
  - { offset: 0x68CDD5, size: 0x8, addend: 0x0, symName: __ZL33llama_sampler_top_p_backend_applyP13llama_samplerP12ggml_contextP11ggml_cgraphP18llama_sampler_data, symObjAddr: 0x75A0, symBinAddr: 0xEF4D0, symSize: 0x2B0 }
  - { offset: 0x68D38C, size: 0x8, addend: 0x0, symName: __ZL24llama_sampler_min_p_namePK13llama_sampler, symObjAddr: 0x7850, symBinAddr: 0xEF780, symSize: 0x10 }
  - { offset: 0x68D6EA, size: 0x8, addend: 0x0, symName: __ZL25llama_sampler_min_p_applyP13llama_samplerP22llama_token_data_array, symObjAddr: 0x7860, symBinAddr: 0xEF790, symSize: 0x340 }
  - { offset: 0x68DE96, size: 0x8, addend: 0x0, symName: __ZNSt3__16vectorI16llama_token_dataNS_9allocatorIS1_EEE20__throw_length_errorB8ne200100Ev, symObjAddr: 0x7E20, symBinAddr: 0xEFD50, symSize: 0x10 }
  - { offset: 0x68DEAE, size: 0x8, addend: 0x0, symName: __ZL26llama_sampler_typical_namePK13llama_sampler, symObjAddr: 0x7E30, symBinAddr: 0xEFD60, symSize: 0x10 }
  - { offset: 0x68DEEC, size: 0x8, addend: 0x0, symName: __ZL25llama_sampler_min_p_clonePK13llama_sampler, symObjAddr: 0x7BA0, symBinAddr: 0xEFAD0, symSize: 0xB0 }
  - { offset: 0x68DFDF, size: 0x8, addend: 0x0, symName: __ZL24llama_sampler_min_p_freeP13llama_sampler, symObjAddr: 0x7C50, symBinAddr: 0xEFB80, symSize: 0x50 }
  - { offset: 0x68E264, size: 0x8, addend: 0x0, symName: __ZL32llama_sampler_min_p_backend_initP13llama_samplerP24ggml_backend_buffer_type, symObjAddr: 0x7CA0, symBinAddr: 0xEFBD0, symSize: 0x50 }
  - { offset: 0x68E311, size: 0x8, addend: 0x0, symName: __ZL33llama_sampler_min_p_backend_applyP13llama_samplerP12ggml_contextP11ggml_cgraphP18llama_sampler_data, symObjAddr: 0x7CF0, symBinAddr: 0xEFC20, symSize: 0x130 }
  - { offset: 0x68E514, size: 0x8, addend: 0x0, symName: __ZL26llama_sampler_typical_namePK13llama_sampler, symObjAddr: 0x7E30, symBinAddr: 0xEFD60, symSize: 0x10 }
  - { offset: 0x68EA41, size: 0x8, addend: 0x0, symName: __ZL27llama_sampler_typical_applyP13llama_samplerP22llama_token_data_array, symObjAddr: 0x7E40, symBinAddr: 0xEFD70, symSize: 0x960 }
  - { offset: 0x68FDFB, size: 0x8, addend: 0x0, symName: '__ZNSt3__111__introsortINS_17_ClassicAlgPolicyERZL27llama_sampler_typical_applyP13llama_samplerP22llama_token_data_arrayE3$_0PmLb0EEEvT1_S9_T0_NS_15iterator_traitsIS9_E15difference_typeEb', symObjAddr: 0x8860, symBinAddr: 0xF0770, symSize: 0xAF0 }
  - { offset: 0x68FE39, size: 0x8, addend: 0x0, symName: __ZL27llama_sampler_typical_clonePK13llama_sampler, symObjAddr: 0x87A0, symBinAddr: 0xF06D0, symSize: 0x80 }
  - { offset: 0x68FEB8, size: 0x8, addend: 0x0, symName: __ZL26llama_sampler_typical_freeP13llama_sampler, symObjAddr: 0x8820, symBinAddr: 0xF0750, symSize: 0x20 }
  - { offset: 0x68FFB5, size: 0x8, addend: 0x0, symName: __ZL23llama_sampler_temp_namePK13llama_sampler, symObjAddr: 0x97C0, symBinAddr: 0xF16D0, symSize: 0x10 }
  - { offset: 0x690060, size: 0x8, addend: 0x0, symName: __ZL24llama_sampler_temp_applyP13llama_samplerP22llama_token_data_array, symObjAddr: 0x97D0, symBinAddr: 0xF16E0, symSize: 0x270 }
  - { offset: 0x690120, size: 0x8, addend: 0x0, symName: __ZL24llama_sampler_temp_clonePK13llama_sampler, symObjAddr: 0x9A40, symBinAddr: 0xF1950, symSize: 0xA0 }
  - { offset: 0x69020A, size: 0x8, addend: 0x0, symName: __ZL23llama_sampler_temp_freeP13llama_sampler, symObjAddr: 0x9AE0, symBinAddr: 0xF19F0, symSize: 0x50 }
  - { offset: 0x69048F, size: 0x8, addend: 0x0, symName: __ZL31llama_sampler_temp_backend_initP13llama_samplerP24ggml_backend_buffer_type, symObjAddr: 0x9B30, symBinAddr: 0xF1A40, symSize: 0x50 }
  - { offset: 0x69053C, size: 0x8, addend: 0x0, symName: __ZL32llama_sampler_temp_backend_applyP13llama_samplerP12ggml_contextP11ggml_cgraphP18llama_sampler_data, symObjAddr: 0x9B80, symBinAddr: 0xF1A90, symSize: 0x20 }
  - { offset: 0x6905C1, size: 0x8, addend: 0x0, symName: __ZL35llama_sampler_backend_temp_samplingP12ggml_contextP11ggml_cgraphP18llama_sampler_dataf, symObjAddr: 0x9BA0, symBinAddr: 0xF1AB0, symSize: 0xB0 }
  - { offset: 0x690720, size: 0x8, addend: 0x0, symName: __ZL27llama_sampler_temp_ext_namePK13llama_sampler, symObjAddr: 0x9C50, symBinAddr: 0xF1B60, symSize: 0x10 }
  - { offset: 0x69076E, size: 0x8, addend: 0x0, symName: __ZL28llama_sampler_temp_ext_applyP13llama_samplerP22llama_token_data_array, symObjAddr: 0x9C60, symBinAddr: 0xF1B70, symSize: 0xB70 }
  - { offset: 0x690A95, size: 0x8, addend: 0x0, symName: __ZL28llama_sampler_temp_ext_clonePK13llama_sampler, symObjAddr: 0xA7D0, symBinAddr: 0xF26E0, symSize: 0xC0 }
  - { offset: 0x690B88, size: 0x8, addend: 0x0, symName: __ZL27llama_sampler_temp_ext_freeP13llama_sampler, symObjAddr: 0xA890, symBinAddr: 0xF27A0, symSize: 0x50 }
  - { offset: 0x690E0D, size: 0x8, addend: 0x0, symName: __ZL35llama_sampler_temp_ext_backend_initP13llama_samplerP24ggml_backend_buffer_type, symObjAddr: 0xA8E0, symBinAddr: 0xF27F0, symSize: 0x50 }
  - { offset: 0x690EBA, size: 0x8, addend: 0x0, symName: __ZL36llama_sampler_temp_ext_backend_applyP13llama_samplerP12ggml_contextP11ggml_cgraphP18llama_sampler_data, symObjAddr: 0xA930, symBinAddr: 0xF2840, symSize: 0x240 }
  - { offset: 0x69127A, size: 0x8, addend: 0x0, symName: __ZL22llama_sampler_xtc_namePK13llama_sampler, symObjAddr: 0xAB70, symBinAddr: 0xF2A80, symSize: 0x10 }
  - { offset: 0x691330, size: 0x8, addend: 0x0, symName: __ZL22llama_sample_xtc_applyP13llama_samplerP22llama_token_data_array, symObjAddr: 0xAB80, symBinAddr: 0xF2A90, symSize: 0x460 }
  - { offset: 0x6915CE, size: 0x8, addend: 0x0, symName: __ZL23llama_sampler_xtc_resetP13llama_sampler, symObjAddr: 0xAFE0, symBinAddr: 0xF2EF0, symSize: 0x90 }
  - { offset: 0x6916C6, size: 0x8, addend: 0x0, symName: __ZL23llama_sampler_xtc_clonePK13llama_sampler, symObjAddr: 0xB070, symBinAddr: 0xF2F80, symSize: 0x140 }
  - { offset: 0x69181E, size: 0x8, addend: 0x0, symName: __ZL22llama_sampler_xtc_freeP13llama_sampler, symObjAddr: 0xB1B0, symBinAddr: 0xF30C0, symSize: 0x20 }
  - { offset: 0x69184A, size: 0x8, addend: 0x0, symName: __ZL27llama_sampler_mirostat_namePK13llama_sampler, symObjAddr: 0xB1D0, symBinAddr: 0xF30E0, symSize: 0x10 }
  - { offset: 0x691873, size: 0x8, addend: 0x0, symName: __ZL28llama_sampler_mirostat_applyP13llama_samplerP22llama_token_data_array, symObjAddr: 0xB1E0, symBinAddr: 0xF30F0, symSize: 0x790 }
  - { offset: 0x691BBC, size: 0x8, addend: 0x0, symName: __ZL28llama_sampler_mirostat_resetP13llama_sampler, symObjAddr: 0xB970, symBinAddr: 0xF3880, symSize: 0x90 }
  - { offset: 0x691CB4, size: 0x8, addend: 0x0, symName: __ZL28llama_sampler_mirostat_clonePK13llama_sampler, symObjAddr: 0xBA00, symBinAddr: 0xF3910, symSize: 0x130 }
  - { offset: 0x691E38, size: 0x8, addend: 0x0, symName: __ZL27llama_sampler_mirostat_freeP13llama_sampler, symObjAddr: 0xBB30, symBinAddr: 0xF3A40, symSize: 0x20 }
  - { offset: 0x69251A, size: 0x8, addend: 0x0, symName: __ZNSt3__121discrete_distributionIiE10param_type6__initEv, symObjAddr: 0xBD80, symBinAddr: 0xF3C90, symSize: 0x1B0 }
  - { offset: 0x6929C5, size: 0x8, addend: 0x0, symName: __ZNSt3__121discrete_distributionIiEclINS_23mersenne_twister_engineIjLm32ELm624ELm397ELm31ELj2567483615ELm11ELj4294967295ELm7ELj2636928640ELm15ELj4022730752ELm18ELj1812433253EEEEEiRT_RKNS1_10param_typeE, symObjAddr: 0xC000, symBinAddr: 0xF3F10, symSize: 0x1D0 }
  - { offset: 0x692C82, size: 0x8, addend: 0x0, symName: __ZNSt3__16vectorIdNS_9allocatorIdEEE20__throw_length_errorB8ne200100Ev, symObjAddr: 0xBF30, symBinAddr: 0xF3E40, symSize: 0x10 }
  - { offset: 0x692C9A, size: 0x8, addend: 0x0, symName: __ZNSt3__16vectorIdNS_9allocatorIdEEE13shrink_to_fitEv, symObjAddr: 0xBF40, symBinAddr: 0xF3E50, symSize: 0xC0 }
  - { offset: 0x692EA9, size: 0x8, addend: 0x0, symName: __ZNSt3__16vectorIdNS_9allocatorIdEEE13shrink_to_fitEv, symObjAddr: 0xBF40, symBinAddr: 0xF3E50, symSize: 0xC0 }
  - { offset: 0x693219, size: 0x8, addend: 0x0, symName: __ZL30llama_sampler_mirostat_v2_namePK13llama_sampler, symObjAddr: 0xC1D0, symBinAddr: 0xF40E0, symSize: 0x10 }
  - { offset: 0x693242, size: 0x8, addend: 0x0, symName: __ZL31llama_sampler_mirostat_v2_applyP13llama_samplerP22llama_token_data_array, symObjAddr: 0xC1E0, symBinAddr: 0xF40F0, symSize: 0x6C0 }
  - { offset: 0x693581, size: 0x8, addend: 0x0, symName: __ZL31llama_sampler_mirostat_v2_resetP13llama_sampler, symObjAddr: 0xC8A0, symBinAddr: 0xF47B0, symSize: 0x90 }
  - { offset: 0x693661, size: 0x8, addend: 0x0, symName: __ZL31llama_sampler_mirostat_v2_clonePK13llama_sampler, symObjAddr: 0xC930, symBinAddr: 0xF4840, symSize: 0x120 }
  - { offset: 0x6937BE, size: 0x8, addend: 0x0, symName: __ZL30llama_sampler_mirostat_v2_freeP13llama_sampler, symObjAddr: 0xCA50, symBinAddr: 0xF4960, symSize: 0x20 }
  - { offset: 0x6A40C6, size: 0x8, addend: 0x0, symName: __ZNKSt3__113match_resultsIPKcNS_9allocatorINS_9sub_matchIS2_EEEEE6formatINS_20back_insert_iteratorINS_12basic_stringIcNS_11char_traitsIcEENS3_IcEEEEEEEET_SG_S2_S2_NS_15regex_constants15match_flag_typeE, symObjAddr: 0x15E00, symBinAddr: 0xF4C60, symSize: 0x2F0 }
  - { offset: 0x6A475F, size: 0x8, addend: 0x0, symName: __ZNSt3__114regex_iteratorIPKccNS_12regex_traitsIcEEEppEv, symObjAddr: 0x160F0, symBinAddr: 0xF4F50, symSize: 0xF0 }
  - { offset: 0x6AA598, size: 0x8, addend: 0x0, symName: __ZL26llama_sampler_grammar_namePK13llama_sampler, symObjAddr: 0x18AC0, symBinAddr: 0xF5040, symSize: 0x10 }
  - { offset: 0x6AA5C1, size: 0x8, addend: 0x0, symName: __ZL33llama_sampler_grammar_accept_implP13llama_sampleri, symObjAddr: 0x18AD0, symBinAddr: 0xF5050, symSize: 0x20 }
  - { offset: 0x6AA636, size: 0x8, addend: 0x0, symName: __ZL27llama_sampler_grammar_applyP13llama_samplerP22llama_token_data_array, symObjAddr: 0x18AF0, symBinAddr: 0xF5070, symSize: 0x20 }
  - { offset: 0x6AAAC5, size: 0x8, addend: 0x0, symName: __ZL27llama_sampler_grammar_resetP13llama_sampler, symObjAddr: 0x18B10, symBinAddr: 0xF5090, symSize: 0x280 }
  - { offset: 0x6AB338, size: 0x8, addend: 0x0, symName: __ZL28llama_sampler_penalties_namePK13llama_sampler, symObjAddr: 0x18E90, symBinAddr: 0xF5400, symSize: 0x10 }
  - { offset: 0x6AB469, size: 0x8, addend: 0x0, symName: __ZL27llama_sampler_grammar_clonePK13llama_sampler, symObjAddr: 0x18D90, symBinAddr: 0xF5310, symSize: 0xA0 }
  - { offset: 0x6AB61C, size: 0x8, addend: 0x0, symName: __ZL26llama_sampler_grammar_freeP13llama_sampler, symObjAddr: 0x18E30, symBinAddr: 0xF53B0, symSize: 0x50 }
  - { offset: 0x6AB8AE, size: 0x8, addend: 0x0, symName: __ZL28llama_sampler_penalties_namePK13llama_sampler, symObjAddr: 0x18E90, symBinAddr: 0xF5400, symSize: 0x10 }
  - { offset: 0x6AB992, size: 0x8, addend: 0x0, symName: __ZL30llama_sampler_penalties_acceptP13llama_sampleri, symObjAddr: 0x18EA0, symBinAddr: 0xF5410, symSize: 0x1B0 }
  - { offset: 0x6AC0AC, size: 0x8, addend: 0x0, symName: __ZNSt3__112__hash_tableINS_17__hash_value_typeIiiEENS_22__unordered_map_hasherIiS2_NS_4hashIiEENS_8equal_toIiEELb1EEENS_21__unordered_map_equalIiS2_S7_S5_Lb1EEENS_9allocatorIS2_EEE14__erase_uniqueIiEEmRKT_, symObjAddr: 0x19A70, symBinAddr: 0xF5990, symSize: 0x1A0 }
  - { offset: 0x6AC126, size: 0x8, addend: 0x0, symName: __ZNSt3__112__hash_tableINS_17__hash_value_typeIiiEENS_22__unordered_map_hasherIiS2_NS_4hashIiEENS_8equal_toIiEELb1EEENS_21__unordered_map_equalIiS2_S7_S5_Lb1EEENS_9allocatorIS2_EEE14__erase_uniqueIiEEmRKT_, symObjAddr: 0x19A70, symBinAddr: 0xF5990, symSize: 0x1A0 }
  - { offset: 0x6AC142, size: 0x8, addend: 0x0, symName: __ZNSt3__112__hash_tableINS_17__hash_value_typeIiiEENS_22__unordered_map_hasherIiS2_NS_4hashIiEENS_8equal_toIiEELb1EEENS_21__unordered_map_equalIiS2_S7_S5_Lb1EEENS_9allocatorIS2_EEE14__erase_uniqueIiEEmRKT_, symObjAddr: 0x19A70, symBinAddr: 0xF5990, symSize: 0x1A0 }
  - { offset: 0x6AC4A6, size: 0x8, addend: 0x0, symName: __ZL29llama_sampler_penalties_applyP13llama_samplerP22llama_token_data_array, symObjAddr: 0x19050, symBinAddr: 0xF55C0, symSize: 0x280 }
  - { offset: 0x6AC6B0, size: 0x8, addend: 0x0, symName: __ZL29llama_sampler_penalties_resetP13llama_sampler, symObjAddr: 0x192D0, symBinAddr: 0xF5840, symSize: 0x70 }
  - { offset: 0x6AC94D, size: 0x8, addend: 0x0, symName: __ZL29llama_sampler_penalties_clonePK13llama_sampler, symObjAddr: 0x19340, symBinAddr: 0xF58B0, symSize: 0x70 }
  - { offset: 0x6AD186, size: 0x8, addend: 0x0, symName: __ZL28llama_sampler_penalties_freeP13llama_sampler, symObjAddr: 0x193B0, symBinAddr: 0xF5920, symSize: 0x70 }
  - { offset: 0x6ADD45, size: 0x8, addend: 0x0, symName: __ZNSt3__112__hash_tableINS_17__hash_value_typeIiiEENS_22__unordered_map_hasherIiS2_NS_4hashIiEENS_8equal_toIiEELb1EEENS_21__unordered_map_equalIiS2_S7_S5_Lb1EEENS_9allocatorIS2_EEE6removeENS_21__hash_const_iteratorIPNS_11__hash_nodeIS2_PvEEEE, symObjAddr: 0x19C10, symBinAddr: 0xF5B30, symSize: 0x200 }
  - { offset: 0x6AE069, size: 0x8, addend: 0x0, symName: __ZL30llama_sampler_top_n_sigma_namePK13llama_sampler, symObjAddr: 0x19F50, symBinAddr: 0xF5D30, symSize: 0x10 }
  - { offset: 0x6AE092, size: 0x8, addend: 0x0, symName: __ZL31llama_sampler_top_n_sigma_applyP13llama_samplerP22llama_token_data_array, symObjAddr: 0x19F60, symBinAddr: 0xF5D40, symSize: 0x6C0 }
  - { offset: 0x6AE2DF, size: 0x8, addend: 0x0, symName: __ZL31llama_sampler_top_n_sigma_clonePK13llama_sampler, symObjAddr: 0x1A620, symBinAddr: 0xF6400, symSize: 0x80 }
  - { offset: 0x6AE35D, size: 0x8, addend: 0x0, symName: __ZL30llama_sampler_top_n_sigma_freeP13llama_sampler, symObjAddr: 0x1A6A0, symBinAddr: 0xF6480, symSize: 0x20 }
  - { offset: 0x6AE4BF, size: 0x8, addend: 0x0, symName: __ZNSt3__112__hash_tableINS_17__hash_value_typeIiNS_6vectorIiNS_9allocatorIiEEEEEENS_22__unordered_map_hasherIiS6_NS_4hashIiEENS_8equal_toIiEELb1EEENS_21__unordered_map_equalIiS6_SB_S9_Lb1EEENS3_IS6_EEE11__do_rehashILb0EEEvm, symObjAddr: 0x1AC50, symBinAddr: 0xF6A30, symSize: 0x1F0 }
  - { offset: 0x6AE939, size: 0x8, addend: 0x0, symName: __ZL22llama_sampler_dry_namePK13llama_sampler, symObjAddr: 0x1AE40, symBinAddr: 0xF6C20, symSize: 0x10 }
  - { offset: 0x6AE962, size: 0x8, addend: 0x0, symName: __ZL24llama_sampler_dry_acceptP13llama_sampleri, symObjAddr: 0x1AE50, symBinAddr: 0xF6C30, symSize: 0x100 }
  - { offset: 0x6AEA2E, size: 0x8, addend: 0x0, symName: __ZL23llama_sampler_dry_applyP13llama_samplerP22llama_token_data_array, symObjAddr: 0x1AF50, symBinAddr: 0xF6D30, symSize: 0xE60 }
  - { offset: 0x6AF9C9, size: 0x8, addend: 0x0, symName: __ZNSt3__16vectorIiNS_9allocatorIiEEE6assignEmRKi, symObjAddr: 0x1BFA0, symBinAddr: 0xF7D80, symSize: 0x250 }
  - { offset: 0x6AFF28, size: 0x8, addend: 0x0, symName: __ZL23llama_sampler_dry_resetP13llama_sampler, symObjAddr: 0x1BDB0, symBinAddr: 0xF7B90, symSize: 0x80 }
  - { offset: 0x6B028B, size: 0x8, addend: 0x0, symName: __ZL23llama_sampler_dry_clonePK13llama_sampler, symObjAddr: 0x1BE30, symBinAddr: 0xF7C10, symSize: 0x140 }
  - { offset: 0x6B05EE, size: 0x8, addend: 0x0, symName: __ZNSt3__112__hash_tableINS_17__hash_value_typeIiNS_6vectorIiNS_9allocatorIiEEEEEENS_22__unordered_map_hasherIiS6_NS_4hashIiEENS_8equal_toIiEELb1EEENS_21__unordered_map_equalIiS6_SB_S9_Lb1EEENS3_IS6_EEE14__assign_multiINS_21__hash_const_iteratorIPNS_11__hash_nodeIS6_PvEEEEEEvT_SO_, symObjAddr: 0x1C1F0, symBinAddr: 0xF7FD0, symSize: 0x170 }
  - { offset: 0x6B0C1B, size: 0x8, addend: 0x0, symName: __ZNSt3__112__hash_tableINS_17__hash_value_typeIiiEENS_22__unordered_map_hasherIiS2_NS_4hashIiEENS_8equal_toIiEELb1EEENS_21__unordered_map_equalIiS2_S7_S5_Lb1EEENS_9allocatorIS2_EEE14__assign_multiINS_21__hash_const_iteratorIPNS_11__hash_nodeIS2_PvEEEEEEvT_SL_, symObjAddr: 0x1C4A0, symBinAddr: 0xF8280, symSize: 0x150 }
  - { offset: 0x6B133E, size: 0x8, addend: 0x0, symName: __ZL22llama_sampler_dry_freeP13llama_sampler, symObjAddr: 0x1BF70, symBinAddr: 0xF7D50, symSize: 0x30 }
  - { offset: 0x6B139B, size: 0x8, addend: 0x0, symName: __ZN17llama_sampler_dryD2Ev, symObjAddr: 0x1CD20, symBinAddr: 0xF8B00, symSize: 0xD0 }
  - { offset: 0x6B1EED, size: 0x8, addend: 0x0, symName: __ZNSt3__112__hash_tableINS_17__hash_value_typeIiNS_6vectorIiNS_9allocatorIiEEEEEENS_22__unordered_map_hasherIiS6_NS_4hashIiEENS_8equal_toIiEELb1EEENS_21__unordered_map_equalIiS6_SB_S9_Lb1EEENS3_IS6_EEE16__construct_nodeIJRKNS_4pairIKiS5_EEEEENS_10unique_ptrINS_11__hash_nodeIS6_PvEENS_22__hash_node_destructorINS3_ISQ_EEEEEEDpOT_, symObjAddr: 0x1C3B0, symBinAddr: 0xF8190, symSize: 0xF0 }
  - { offset: 0x6B2581, size: 0x8, addend: 0x0, symName: __ZNSt3__112__hash_tableINS_17__hash_value_typeIiNS_6vectorIiNS_9allocatorIiEEEEEENS_22__unordered_map_hasherIiS6_NS_4hashIiEENS_8equal_toIiEELb1EEENS_21__unordered_map_equalIiS6_SB_S9_Lb1EEENS3_IS6_EEE17__deallocate_nodeEPNS_16__hash_node_baseIPNS_11__hash_nodeIS6_PvEEEE, symObjAddr: 0x1C360, symBinAddr: 0xF8140, symSize: 0x50 }
  - { offset: 0x6B2B31, size: 0x8, addend: 0x0, symName: __ZNSt3__112__hash_tableINS_17__hash_value_typeIiiEENS_22__unordered_map_hasherIiS2_NS_4hashIiEENS_8equal_toIiEELb1EEENS_21__unordered_map_equalIiS2_S7_S5_Lb1EEENS_9allocatorIS2_EEE19__node_insert_multiEPNS_11__hash_nodeIS2_PvEE, symObjAddr: 0x1C5F0, symBinAddr: 0xF83D0, symSize: 0x190 }
  - { offset: 0x6B2DBC, size: 0x8, addend: 0x0, symName: __ZNSt3__112__hash_tableINS_17__hash_value_typeIiiEENS_22__unordered_map_hasherIiS2_NS_4hashIiEENS_8equal_toIiEELb1EEENS_21__unordered_map_equalIiS2_S7_S5_Lb1EEENS_9allocatorIS2_EEE27__node_insert_multi_prepareEmRS2_, symObjAddr: 0x1C780, symBinAddr: 0xF8560, symSize: 0x3B0 }
  - { offset: 0x6B312E, size: 0x8, addend: 0x0, symName: __ZNSt3__112__hash_tableINS_17__hash_value_typeIiiEENS_22__unordered_map_hasherIiS2_NS_4hashIiEENS_8equal_toIiEELb1EEENS_21__unordered_map_equalIiS2_S7_S5_Lb1EEENS_9allocatorIS2_EEE11__do_rehashILb0EEEvm, symObjAddr: 0x1CB30, symBinAddr: 0xF8910, symSize: 0x1F0 }
  - { offset: 0x6B352A, size: 0x8, addend: 0x0, symName: __ZL29llama_sampler_adaptive_p_namePK13llama_sampler, symObjAddr: 0x1CDF0, symBinAddr: 0xF8BD0, symSize: 0x10 }
  - { offset: 0x6B3575, size: 0x8, addend: 0x0, symName: __ZL31llama_sampler_adaptive_p_acceptP13llama_sampleri, symObjAddr: 0x1CE00, symBinAddr: 0xF8BE0, symSize: 0xB0 }
  - { offset: 0x6B368C, size: 0x8, addend: 0x0, symName: __ZL30llama_sampler_adaptive_p_applyP13llama_samplerP22llama_token_data_array, symObjAddr: 0x1CEB0, symBinAddr: 0xF8C90, symSize: 0x880 }
  - { offset: 0x6B3D0A, size: 0x8, addend: 0x0, symName: __ZL30llama_sampler_adaptive_p_resetP13llama_sampler, symObjAddr: 0x1D730, symBinAddr: 0xF9510, symSize: 0xC0 }
  - { offset: 0x6B3DF6, size: 0x8, addend: 0x0, symName: __ZL30llama_sampler_adaptive_p_clonePK13llama_sampler, symObjAddr: 0x1D7F0, symBinAddr: 0xF95D0, symSize: 0x170 }
  - { offset: 0x6B3FF5, size: 0x8, addend: 0x0, symName: __ZL29llama_sampler_adaptive_p_freeP13llama_sampler, symObjAddr: 0x1D960, symBinAddr: 0xF9740, symSize: 0x40 }
  - { offset: 0x6B429B, size: 0x8, addend: 0x0, symName: __ZL29llama_sampler_logit_bias_namePK13llama_sampler, symObjAddr: 0x1DAF0, symBinAddr: 0xF9780, symSize: 0x10 }
  - { offset: 0x6B4627, size: 0x8, addend: 0x0, symName: __ZL30llama_sampler_logit_bias_applyP13llama_samplerP22llama_token_data_array, symObjAddr: 0x1DB00, symBinAddr: 0xF9790, symSize: 0x200 }
  - { offset: 0x6B4C8A, size: 0x8, addend: 0x0, symName: __ZNSt3__16vectorI16llama_logit_biasNS_9allocatorIS1_EEE20__throw_length_errorB8ne200100Ev, symObjAddr: 0x1E130, symBinAddr: 0xF9DC0, symSize: 0x10 }
  - { offset: 0x6B4CA2, size: 0x8, addend: 0x0, symName: __ZN24llama_sampler_logit_biasD2Ev, symObjAddr: 0x1E140, symBinAddr: 0xF9DD0, symSize: 0xA0 }
  - { offset: 0x6B4CAD, size: 0x8, addend: 0x0, symName: __ZL30llama_sampler_logit_bias_clonePK13llama_sampler, symObjAddr: 0x1DD00, symBinAddr: 0xF9990, symSize: 0x20 }
  - { offset: 0x6B4D3D, size: 0x8, addend: 0x0, symName: __ZL29llama_sampler_logit_bias_freeP13llama_sampler, symObjAddr: 0x1DD20, symBinAddr: 0xF99B0, symSize: 0x30 }
  - { offset: 0x6B4D9A, size: 0x8, addend: 0x0, symName: __ZN24llama_sampler_logit_biasD2Ev, symObjAddr: 0x1E140, symBinAddr: 0xF9DD0, symSize: 0xA0 }
  - { offset: 0x6B5331, size: 0x8, addend: 0x0, symName: __ZL37llama_sampler_logit_bias_backend_initP13llama_samplerP24ggml_backend_buffer_type, symObjAddr: 0x1DD50, symBinAddr: 0xF99E0, symSize: 0x160 }
  - { offset: 0x6B560E, size: 0x8, addend: 0x0, symName: __ZL38llama_sampler_logit_bias_backend_applyP13llama_samplerP12ggml_contextP11ggml_cgraphP18llama_sampler_data, symObjAddr: 0x1DEB0, symBinAddr: 0xF9B40, symSize: 0xA0 }
  - { offset: 0x6B5844, size: 0x8, addend: 0x0, symName: __ZL42llama_sampler_logit_bias_backend_set_inputP13llama_sampler, symObjAddr: 0x1DF50, symBinAddr: 0xF9BE0, symSize: 0x1E0 }
  - { offset: 0x6B5F96, size: 0x8, addend: 0x0, symName: __ZL25llama_sampler_infill_namePK13llama_sampler, symObjAddr: 0x1E1E0, symBinAddr: 0xF9E70, symSize: 0x10 }
  - { offset: 0x6B60C9, size: 0x8, addend: 0x0, symName: __ZL26llama_sampler_infill_applyP13llama_samplerP22llama_token_data_array, symObjAddr: 0x1E1F0, symBinAddr: 0xF9E80, symSize: 0xCB0 }
  - { offset: 0x6B6974, size: 0x8, addend: 0x0, symName: __ZL26llama_sampler_infill_clonePK13llama_sampler, symObjAddr: 0x1EEA0, symBinAddr: 0xFAB30, symSize: 0x20 }
  - { offset: 0x6B6987, size: 0x8, addend: 0x0, symName: __ZL26llama_sampler_infill_clonePK13llama_sampler, symObjAddr: 0x1EEA0, symBinAddr: 0xFAB30, symSize: 0x20 }
  - { offset: 0x6B6A15, size: 0x8, addend: 0x0, symName: __ZL25llama_sampler_infill_freeP13llama_sampler, symObjAddr: 0x1EEC0, symBinAddr: 0xFAB50, symSize: 0x50 }
  - { offset: 0x6DE4C7, size: 0x8, addend: 0x0, symName: '__ZNSt3__111__introsortINS_17_ClassicAlgPolicyERZN11llama_vocab4impl4loadER18llama_model_loaderRK6LLM_KVE3$_0PiLb0EEEvT1_SC_T0_NS_15iterator_traitsISC_E15difference_typeEb', symObjAddr: 0x14880, symBinAddr: 0x10E200, symSize: 0x1090 }
  - { offset: 0x6DFE98, size: 0x8, addend: 0x0, symName: '__ZNSt3__127__insertion_sort_incompleteB8ne200100INS_17_ClassicAlgPolicyERZN11llama_vocab4impl4loadER18llama_model_loaderRK6LLM_KVE3$_0PiEEbT1_SC_T0_', symObjAddr: 0x15E10, symBinAddr: 0x10F790, symSize: 0x2B0 }
  - { offset: 0x6E2FE4, size: 0x8, addend: 0x0, symName: __ZNSt3__111__introsortINS_17_ClassicAlgPolicyERZN20llm_tokenizer_plamo25buildERK11llama_vocabEUlRKNS_12basic_stringIcNS_11char_traitsIcEENS_9allocatorIcEEEESD_E_PSB_Lb0EEEvT1_SH_T0_NS_15iterator_traitsISH_E15difference_typeEb, symObjAddr: 0x1A5D0, symBinAddr: 0x113B80, symSize: 0xCB0 }
  - { offset: 0x6E507E, size: 0x8, addend: 0x0, symName: __ZNSt3__126__insertion_sort_unguardedB8ne200100INS_17_ClassicAlgPolicyERZN20llm_tokenizer_plamo25buildERK11llama_vocabEUlRKNS_12basic_stringIcNS_11char_traitsIcEENS_9allocatorIcEEEESD_E_PSB_EEvT1_SH_T0_, symObjAddr: 0x1BA80, symBinAddr: 0x115030, symSize: 0x130 }
  - { offset: 0x6E54AC, size: 0x8, addend: 0x0, symName: __ZNSt3__111__sift_downB8ne200100INS_17_ClassicAlgPolicyERZN20llm_tokenizer_plamo25buildERK11llama_vocabEUlRKNS_12basic_stringIcNS_11char_traitsIcEENS_9allocatorIcEEEESD_E_PSB_EEvT1_OT0_NS_15iterator_traitsISH_E15difference_typeESH_, symObjAddr: 0x1C5A0, symBinAddr: 0x115B50, symSize: 0x1C0 }
  - { offset: 0x6E5967, size: 0x8, addend: 0x0, symName: __ZNSt3__131__partition_with_equals_on_leftB8ne200100INS_17_ClassicAlgPolicyEPNS_12basic_stringIcNS_11char_traitsIcEENS_9allocatorIcEEEERZN20llm_tokenizer_plamo25buildERK11llama_vocabEUlRKS7_SE_E_EET0_SH_SH_T1_, symObjAddr: 0x1BBB0, symBinAddr: 0x115160, symSize: 0x1E0 }
  - { offset: 0x6E5EFD, size: 0x8, addend: 0x0, symName: __ZNSt3__132__partition_with_equals_on_rightB8ne200100INS_17_ClassicAlgPolicyEPNS_12basic_stringIcNS_11char_traitsIcEENS_9allocatorIcEEEERZN20llm_tokenizer_plamo25buildERK11llama_vocabEUlRKS7_SE_E_EENS_4pairIT0_bEESI_SI_T1_, symObjAddr: 0x1BD90, symBinAddr: 0x115340, symSize: 0x1E0 }
  - { offset: 0x6E6489, size: 0x8, addend: 0x0, symName: __ZNSt3__127__insertion_sort_incompleteB8ne200100INS_17_ClassicAlgPolicyERZN20llm_tokenizer_plamo25buildERK11llama_vocabEUlRKNS_12basic_stringIcNS_11char_traitsIcEENS_9allocatorIcEEEESD_E_PSB_EEbT1_SH_T0_, symObjAddr: 0x1BF70, symBinAddr: 0x115520, symSize: 0x630 }
  - { offset: 0x6E9A5D, size: 0x8, addend: 0x0, symName: __ZNSt3__18pop_heapB8ne200100INS_11__wrap_iterIP14llm_bigram_spmEENS2_10comparatorEEEvT_S6_T0_, symObjAddr: 0xF810, symBinAddr: 0x10A160, symSize: 0x1F0 }
  - { offset: 0x6EA07F, size: 0x8, addend: 0x0, symName: __ZNSt3__110__pop_heapB8ne200100INS_17_ClassicAlgPolicyEN14llm_bigram_bpe10comparatorENS_11__wrap_iterIPS2_EEEEvT1_S7_RT0_NS_15iterator_traitsIS7_E15difference_typeE, symObjAddr: 0x103D0, symBinAddr: 0x10AD10, symSize: 0x2A0 }
  - { offset: 0x6EACEC, size: 0x8, addend: 0x0, symName: __ZNSt3__1plB8ne200100IcNS_11char_traitsIcEENS_9allocatorIcEEEENS_12basic_stringIT_T0_T1_EERKS9_PKS6_, symObjAddr: 0xDF20, symBinAddr: 0x108AB0, symSize: 0x110 }
  - { offset: 0x6EBF1E, size: 0x8, addend: 0x0, symName: __ZNSt3__19__sift_upB8ne200100INS_17_ClassicAlgPolicyERN14llm_bigram_bpe10comparatorENS_11__wrap_iterIPS2_EEEEvT1_S8_OT0_NS_15iterator_traitsIS8_E15difference_typeE, symObjAddr: 0x10230, symBinAddr: 0x10AB70, symSize: 0x1A0 }
  - { offset: 0x6EE9B4, size: 0x8, addend: 0x0, symName: '__ZNSt3__17__sort3B8ne200100INS_17_ClassicAlgPolicyERZN11llama_vocab4impl4loadER18llama_model_loaderRK6LLM_KVE3$_0PiLi0EEEbT1_SC_SC_T0_', symObjAddr: 0x15910, symBinAddr: 0x10F290, symSize: 0x1B0 }
  - { offset: 0x6EF11D, size: 0x8, addend: 0x0, symName: '__ZNSt3__17__sort5B8ne200100INS_17_ClassicAlgPolicyERZN11llama_vocab4impl4loadER18llama_model_loaderRK6LLM_KVE3$_0PiLi0EEEvT1_SC_SC_SC_SC_T0_', symObjAddr: 0x15C30, symBinAddr: 0x10F5B0, symSize: 0x1E0 }
  - { offset: 0x6EF768, size: 0x8, addend: 0x0, symName: '__ZNSt3__17__sort4B8ne200100INS_17_ClassicAlgPolicyERZN11llama_vocab4impl4loadER18llama_model_loaderRK6LLM_KVE3$_0PiLi0EEEvT1_SC_SC_SC_T0_', symObjAddr: 0x15AC0, symBinAddr: 0x10F440, symSize: 0x170 }
  - { offset: 0x6F1881, size: 0x8, addend: 0x0, symName: __ZNSt3__17__sort4B8ne200100INS_17_ClassicAlgPolicyERZN20llm_tokenizer_plamo25buildERK11llama_vocabEUlRKNS_12basic_stringIcNS_11char_traitsIcEENS_9allocatorIcEEEESD_E_PSB_Li0EEEvT1_SH_SH_SH_T0_, symObjAddr: 0x1B6C0, symBinAddr: 0x114C70, symSize: 0x260 }
  - { offset: 0x6F1F73, size: 0x8, addend: 0x0, symName: __ZNSt3__116__insertion_sortB8ne200100INS_17_ClassicAlgPolicyERZN20llm_tokenizer_plamo25buildERK11llama_vocabEUlRKNS_12basic_stringIcNS_11char_traitsIcEENS_9allocatorIcEEEESD_E_PSB_EEvT1_SH_T0_, symObjAddr: 0x1B920, symBinAddr: 0x114ED0, symSize: 0x160 }
  - { offset: 0x6F23A7, size: 0x8, addend: 0x0, symName: __ZNSt3__110__pop_heapB8ne200100INS_17_ClassicAlgPolicyEZN20llm_tokenizer_plamo25buildERK11llama_vocabEUlRKNS_12basic_stringIcNS_11char_traitsIcEENS_9allocatorIcEEEESD_E_PSB_EEvT1_SG_RT0_NS_15iterator_traitsISG_E15difference_typeE, symObjAddr: 0x1C760, symBinAddr: 0x115D10, symSize: 0x200 }
  - { offset: 0x6F2924, size: 0x8, addend: 0x0, symName: __ZNSt3__19__sift_upB8ne200100INS_17_ClassicAlgPolicyERZN20llm_tokenizer_plamo25buildERK11llama_vocabEUlRKNS_12basic_stringIcNS_11char_traitsIcEENS_9allocatorIcEEEESD_E_PSB_EEvT1_SH_OT0_NS_15iterator_traitsISH_E15difference_typeE, symObjAddr: 0x1C960, symBinAddr: 0x115F10, symSize: 0x120 }
  - { offset: 0x6F5DB7, size: 0x8, addend: 0x0, symName: __ZNK11llama_vocab4impl14token_to_pieceEiPciib, symObjAddr: 0xB5D0, symBinAddr: 0x106160, symSize: 0x580 }
  - { offset: 0x6F6C15, size: 0x8, addend: 0x0, symName: __ZNK11llama_vocab13byte_to_tokenEh, symObjAddr: 0x5920, symBinAddr: 0x100530, symSize: 0x3C0 }
  - { offset: 0x6FB1CB, size: 0x8, addend: 0x0, symName: __ZN11llama_vocab4impl4loadER18llama_model_loaderRK6LLM_KV, symObjAddr: 0x0, symBinAddr: 0xFAD50, symSize: 0x54E0 }
  - { offset: 0x707F2C, size: 0x8, addend: 0x0, symName: __ZNSt3__16vectorIN11llama_vocab10token_dataENS_9allocatorIS2_EEE8__appendEm, symObjAddr: 0x13840, symBinAddr: 0x10D590, symSize: 0x1C0 }
  - { offset: 0x708798, size: 0x8, addend: 0x0, symName: __ZNSt3__16vectorIcNS_9allocatorIcEEE18__assign_with_sizeB8ne200100IPKcS6_EEvT_T0_l, symObjAddr: 0x14270, symBinAddr: 0x10DFC0, symSize: 0x240 }
  - { offset: 0x709111, size: 0x8, addend: 0x0, symName: __ZNSt3__112__hash_tableINS_17__hash_value_typeINS_4pairINS_12basic_stringIcNS_11char_traitsIcEENS_9allocatorIcEEEES8_EEiEENS_22__unordered_map_hasherIS9_SA_N11llama_vocab4impl9pair_hashENS_8equal_toIS9_EELb1EEENS_21__unordered_map_equalIS9_SA_SG_SE_Lb1EEENS6_ISA_EEE25__emplace_unique_key_argsIS9_JS9_RiEEENS2_INS_15__hash_iteratorIPNS_11__hash_nodeISA_PvEEEEbEERKT_DpOT0_, symObjAddr: 0x13A10, symBinAddr: 0x10D760, symSize: 0x560 }
  - { offset: 0x709B05, size: 0x8, addend: 0x0, symName: __ZNSt3__112__hash_tableINS_17__hash_value_typeINS_12basic_stringIcNS_11char_traitsIcEENS_9allocatorIcEEEEiEENS_22__unordered_map_hasherIS7_S8_NS_4hashIS7_EENS_8equal_toIS7_EELb1EEENS_21__unordered_map_equalIS7_S8_SD_SB_Lb1EEENS5_IS8_EEE25__emplace_unique_key_argsIS7_JRKNS_21piecewise_construct_tENS_5tupleIJRKS7_EEENSN_IJEEEEEENS_4pairINS_15__hash_iteratorIPNS_11__hash_nodeIS8_PvEEEEbEERKT_DpOT0_, symObjAddr: 0x12950, symBinAddr: 0x10CB50, symSize: 0x5B0 }
  - { offset: 0x70A461, size: 0x8, addend: 0x0, symName: __ZN11llama_vocab4impl14init_tokenizerE16llama_vocab_type, symObjAddr: 0x56F0, symBinAddr: 0x100300, symSize: 0x230 }
  - { offset: 0x70A947, size: 0x8, addend: 0x0, symName: __ZNK11llama_vocab4impl8tokenizeERKNSt3__112basic_stringIcNS1_11char_traitsIcEENS1_9allocatorIcEEEEbb, symObjAddr: 0x5CF0, symBinAddr: 0x1008F0, symSize: 0x1D50 }
  - { offset: 0x711B27, size: 0x8, addend: 0x0, symName: __ZNK11llama_vocab4impl24token_to_piece_for_cacheEib, symObjAddr: 0x7B50, symBinAddr: 0x102750, symSize: 0x120 }
  - { offset: 0x711F38, size: 0x8, addend: 0x0, symName: __ZNKSt3__112__hash_tableINS_17__hash_value_typeINS_12basic_stringIcNS_11char_traitsIcEENS_9allocatorIcEEEEiEENS_22__unordered_map_hasherIS7_S8_NS_4hashIS7_EENS_8equal_toIS7_EELb1EEENS_21__unordered_map_equalIS7_S8_SD_SB_Lb1EEENS5_IS8_EEE4findIS7_EENS_21__hash_const_iteratorIPNS_11__hash_nodeIS8_PvEEEERKT_, symObjAddr: 0x160D0, symBinAddr: 0x10FA50, symSize: 0x290 }
  - { offset: 0x712236, size: 0x8, addend: 0x0, symName: __ZNSt3__112__hash_tableINS_17__hash_value_typeINS_12basic_stringIcNS_11char_traitsIcEENS_9allocatorIcEEEEiEENS_22__unordered_map_hasherIS7_S8_NS_4hashIS7_EENS_8equal_toIS7_EELb1EEENS_21__unordered_map_equalIS7_S8_SD_SB_Lb1EEENS5_IS8_EEE4findIS7_EENS_15__hash_iteratorIPNS_11__hash_nodeIS8_PvEEEERKT_, symObjAddr: 0x135B0, symBinAddr: 0x10D300, symSize: 0x290 }
  - { offset: 0x712703, size: 0x8, addend: 0x0, symName: '__ZZN11llama_vocab4impl4loadER18llama_model_loaderRK6LLM_KVENK3$_3clERKNSt3__112basic_stringIcNS7_11char_traitsIcEENS7_9allocatorIcEEEE16llama_token_attrb', symObjAddr: 0x7CE0, symBinAddr: 0x102870, symSize: 0x80 }
  - { offset: 0x712845, size: 0x8, addend: 0x0, symName: __ZNSt3__16vectorI10llm_symbolNS_9allocatorIS1_EEE18__assign_with_sizeB8ne200100IPS1_S6_EEvT_T0_l, symObjAddr: 0x10680, symBinAddr: 0x10AFB0, symSize: 0x160 }
  - { offset: 0x71285A, size: 0x8, addend: 0x0, symName: __ZNSt3__16__treeINS_12__value_typeINS_12basic_stringIcNS_11char_traitsIcEENS_9allocatorIcEEEENS_4pairIiiEEEENS_19__map_value_compareIS7_SA_NS_4lessIS7_EELb1EEENS5_ISA_EEE7destroyEPNS_11__tree_nodeISA_PvEE, symObjAddr: 0xFB20, symBinAddr: 0x10A460, symSize: 0x50 }
  - { offset: 0x712865, size: 0x8, addend: 0x0, symName: __ZNSt3__16vectorIN11llama_vocab10token_dataENS_9allocatorIS2_EEE20__throw_out_of_rangeB8ne200100Ev, symObjAddr: 0x160C0, symBinAddr: 0x10FA40, symSize: 0x10 }
  - { offset: 0x71287D, size: 0x8, addend: 0x0, symName: __ZNKSt3__112__hash_tableINS_17__hash_value_typeINS_12basic_stringIcNS_11char_traitsIcEENS_9allocatorIcEEEEiEENS_22__unordered_map_hasherIS7_S8_NS_4hashIS7_EENS_8equal_toIS7_EELb1EEENS_21__unordered_map_equalIS7_S8_SD_SB_Lb1EEENS5_IS8_EEE4findIS7_EENS_21__hash_const_iteratorIPNS_11__hash_nodeIS8_PvEEEERKT_, symObjAddr: 0x160D0, symBinAddr: 0x10FA50, symSize: 0x290 }
  - { offset: 0x712CF6, size: 0x8, addend: 0x0, symName: __ZNKSt3__112basic_stringIcNS_11char_traitsIcEENS_9allocatorIcEEE6substrB8ne200100Emm, symObjAddr: 0x55E0, symBinAddr: 0x100230, symSize: 0xD0 }
  - { offset: 0x7132FD, size: 0x8, addend: 0x0, symName: __ZN18llm_tokenizer_rwkvC2ERK11llama_vocab, symObjAddr: 0x18070, symBinAddr: 0x1119F0, symSize: 0x150 }
  - { offset: 0x7137C7, size: 0x8, addend: 0x0, symName: __ZN17llm_tokenizer_ugmC2ERK11llama_vocabRKNSt3__16vectorIcNS3_9allocatorIcEEEE, symObjAddr: 0x17AF0, symBinAddr: 0x111470, symSize: 0x2D0 }
  - { offset: 0x7141D9, size: 0x8, addend: 0x0, symName: __ZN17llm_tokenizer_bpeC2ERK11llama_vocab, symObjAddr: 0x16380, symBinAddr: 0x10FD00, symSize: 0x12D0 }
  - { offset: 0x719DC9, size: 0x8, addend: 0x0, symName: __ZN20llm_tokenizer_plamo25buildERK11llama_vocab, symObjAddr: 0x18220, symBinAddr: 0x111BA0, symSize: 0x1520 }
  - { offset: 0x71FE48, size: 0x8, addend: 0x0, symName: __ZNSt3__113unordered_mapIxiNS_4hashIxEENS_8equal_toIxEENS_9allocatorINS_4pairIKxiEEEEED1B8ne200100Ev, symObjAddr: 0x19740, symBinAddr: 0x1130C0, symSize: 0x50 }
  - { offset: 0x72156C, size: 0x8, addend: 0x0, symName: __ZNK11llama_vocab4impl22tokenizer_st_partitionERNSt3__112forward_listI23fragment_buffer_variantNS1_9allocatorIS3_EEEEb, symObjAddr: 0x8290, symBinAddr: 0x102E20, symSize: 0x790 }
  - { offset: 0x722E7F, size: 0x8, addend: 0x0, symName: __ZN26llm_tokenizer_rwkv_session8tokenizeERKNSt3__112basic_stringIcNS0_11char_traitsIcEENS0_9allocatorIcEEEERNS0_6vectorIiNS4_IiEEEE, symObjAddr: 0xB1F0, symBinAddr: 0x105D80, symSize: 0x380 }
  - { offset: 0x723B64, size: 0x8, addend: 0x0, symName: __ZNK25llm_tokenizer_bpe_session10append_bosERNSt3__16vectorIiNS0_9allocatorIiEEEE, symObjAddr: 0x8EB0, symBinAddr: 0x103A40, symSize: 0x160 }
  - { offset: 0x723FD9, size: 0x8, addend: 0x0, symName: __ZNK25llm_tokenizer_bpe_session10append_eosERNSt3__16vectorIiNS0_9allocatorIiEEEE, symObjAddr: 0xA180, symBinAddr: 0x104D10, symSize: 0x160 }
  - { offset: 0x72444E, size: 0x8, addend: 0x0, symName: __ZN25llm_tokenizer_bpe_session8tokenizeERKNSt3__112basic_stringIcNS0_11char_traitsIcEENS0_9allocatorIcEEEERNS0_6vectorIiNS4_IiEEEE, symObjAddr: 0x9010, symBinAddr: 0x103BA0, symSize: 0x1170 }
  - { offset: 0x728583, size: 0x8, addend: 0x0, symName: __ZNK20llm_tokenizer_plamo26encodeERKNSt3__112basic_stringIcNS0_11char_traitsIcEENS0_9allocatorIcEEEE, symObjAddr: 0x11610, symBinAddr: 0x10BE60, symSize: 0xB40 }
  - { offset: 0x72AAB1, size: 0x8, addend: 0x0, symName: __ZN25llm_tokenizer_wpm_session8tokenizeERKNSt3__112basic_stringIcNS0_11char_traitsIcEENS0_9allocatorIcEEEERNS0_6vectorIiNS4_IiEEEE, symObjAddr: 0xA380, symBinAddr: 0x104F10, symSize: 0x710 }
  - { offset: 0x72C4EE, size: 0x8, addend: 0x0, symName: __ZN25llm_tokenizer_ugm_session8tokenizeERKNSt3__112basic_stringIcNS0_11char_traitsIcEENS0_9allocatorIcEEEERNS0_6vectorIiNS4_IiEEEE, symObjAddr: 0xAA90, symBinAddr: 0x105620, symSize: 0x760 }
  - { offset: 0x72D7B2, size: 0x8, addend: 0x0, symName: __ZNSt3__16vectorIiNS_9allocatorIiEEE9push_backB8ne200100ERKi, symObjAddr: 0x7A40, symBinAddr: 0x102640, symSize: 0x110 }
  - { offset: 0x72DBF0, size: 0x8, addend: 0x0, symName: __ZN25llm_tokenizer_spm_session8tokenizeERKNSt3__112basic_stringIcNS0_11char_traitsIcEENS0_9allocatorIcEEEERNS0_6vectorIiNS4_IiEEEE, symObjAddr: 0x8AC0, symBinAddr: 0x103650, symSize: 0x3A0 }
  - { offset: 0x72E36B, size: 0x8, addend: 0x0, symName: __ZNSt3__16__treeINS_12__value_typeINS_12basic_stringIcNS_11char_traitsIcEENS_9allocatorIcEEEENS_4pairIiiEEEENS_19__map_value_compareIS7_SA_NS_4lessIS7_EELb1EEENS5_ISA_EEE7destroyEPNS_11__tree_nodeISA_PvEE, symObjAddr: 0xFB20, symBinAddr: 0x10A460, symSize: 0x50 }
  - { offset: 0x72E602, size: 0x8, addend: 0x0, symName: __ZN25llm_tokenizer_spm_sessionD1Ev, symObjAddr: 0x8E60, symBinAddr: 0x1039F0, symSize: 0x50 }
  - { offset: 0x72E952, size: 0x8, addend: 0x0, symName: __ZN25llm_tokenizer_bpe_sessionD1Ev, symObjAddr: 0xA2E0, symBinAddr: 0x104E70, symSize: 0xA0 }
  - { offset: 0x72EEDB, size: 0x8, addend: 0x0, symName: __ZNSt3__112forward_listI23fragment_buffer_variantNS_9allocatorIS1_EEED1Ev, symObjAddr: 0xB570, symBinAddr: 0x106100, symSize: 0x60 }
  - { offset: 0x72F251, size: 0x8, addend: 0x0, symName: __ZNK11llama_vocab4impl8get_typeEv, symObjAddr: 0x7D60, symBinAddr: 0x1028F0, symSize: 0x10 }
  - { offset: 0x72F271, size: 0x8, addend: 0x0, symName: __ZNK11llama_vocab4impl9type_nameEv, symObjAddr: 0x7D70, symBinAddr: 0x102900, symSize: 0x110 }
  - { offset: 0x72F908, size: 0x8, addend: 0x0, symName: __ZNK11llama_vocab4impl9is_normalEi, symObjAddr: 0x7E80, symBinAddr: 0x102A10, symSize: 0x50 }
  - { offset: 0x72F96F, size: 0x8, addend: 0x0, symName: __ZNK11llama_vocab4impl10is_unknownEi, symObjAddr: 0x7ED0, symBinAddr: 0x102A60, symSize: 0x50 }
  - { offset: 0x72F9D6, size: 0x8, addend: 0x0, symName: __ZNK11llama_vocab4impl10is_controlEi, symObjAddr: 0x7F20, symBinAddr: 0x102AB0, symSize: 0x50 }
  - { offset: 0x72FA3D, size: 0x8, addend: 0x0, symName: __ZNK11llama_vocab4impl7is_byteEi, symObjAddr: 0x7F70, symBinAddr: 0x102B00, symSize: 0x50 }
  - { offset: 0x72FAA4, size: 0x8, addend: 0x0, symName: __ZNK11llama_vocab4impl15is_user_definedEi, symObjAddr: 0x7FC0, symBinAddr: 0x102B50, symSize: 0x50 }
  - { offset: 0x72FB0B, size: 0x8, addend: 0x0, symName: __ZNK11llama_vocab4impl9is_unusedEi, symObjAddr: 0x8010, symBinAddr: 0x102BA0, symSize: 0x50 }
  - { offset: 0x72FB72, size: 0x8, addend: 0x0, symName: __ZNK11llama_vocab4impl6is_eogEi, symObjAddr: 0x8060, symBinAddr: 0x102BF0, symSize: 0x40 }
  - { offset: 0x72FC47, size: 0x8, addend: 0x0, symName: __ZNK11llama_vocab4impl13token_to_byteEi, symObjAddr: 0x80A0, symBinAddr: 0x102C30, symSize: 0x190 }
  - { offset: 0x73006F, size: 0x8, addend: 0x0, symName: __ZNK11llama_vocab4impl14token_get_attrEi, symObjAddr: 0x8230, symBinAddr: 0x102DC0, symSize: 0x60 }
  - { offset: 0x73072C, size: 0x8, addend: 0x0, symName: __ZNK11llama_vocab14get_token_dataEi, symObjAddr: 0x8A20, symBinAddr: 0x1035B0, symSize: 0x60 }
  - { offset: 0x7307D6, size: 0x8, addend: 0x0, symName: __ZNK11llama_vocab14token_to_pieceEiPciib, symObjAddr: 0x8A80, symBinAddr: 0x103610, symSize: 0x10 }
  - { offset: 0x730876, size: 0x8, addend: 0x0, symName: __ZNSt3__112basic_stringIcNS_11char_traitsIcEENS_9allocatorIcEEEpLB8ne200100ERKS5_, symObjAddr: 0x8A90, symBinAddr: 0x103620, symSize: 0x30 }
  - { offset: 0x730CB8, size: 0x8, addend: 0x0, symName: __ZN25llm_tokenizer_spm_session14try_add_bigramEii, symObjAddr: 0xEAA0, symBinAddr: 0x109630, symSize: 0x360 }
  - { offset: 0x731637, size: 0x8, addend: 0x0, symName: __ZN25llm_tokenizer_spm_session9resegmentER10llm_symbolRNSt3__16vectorIiNS2_9allocatorIiEEEE, symObjAddr: 0xEE00, symBinAddr: 0x109990, symSize: 0x450 }
  - { offset: 0x732872, size: 0x8, addend: 0x0, symName: __ZNSt3__16vectorI10llm_symbolNS_9allocatorIS1_EEE20__throw_length_errorB8ne200100Ev, symObjAddr: 0xF250, symBinAddr: 0x109DE0, symSize: 0x10 }
  - { offset: 0x733094, size: 0x8, addend: 0x0, symName: __ZN25llm_tokenizer_bpe_session14add_new_bigramEii, symObjAddr: 0xFB70, symBinAddr: 0x10A4B0, symSize: 0x420 }
  - { offset: 0x734475, size: 0x8, addend: 0x0, symName: __ZNSt3__16vectorI10llm_symbolNS_9allocatorIS1_EEE18__assign_with_sizeB8ne200100IPS1_S6_EEvT_T0_l, symObjAddr: 0x10680, symBinAddr: 0x10AFB0, symSize: 0x160 }
  - { offset: 0x73512D, size: 0x8, addend: 0x0, symName: __ZN25llm_tokenizer_wpm_session10preprocessERKNSt3__112basic_stringIcNS0_11char_traitsIcEENS0_9allocatorIcEEEE, symObjAddr: 0x107E0, symBinAddr: 0x10B110, symSize: 0x630 }
  - { offset: 0x737236, size: 0x8, addend: 0x0, symName: __ZN25llm_tokenizer_ugm_session9normalizeERKNSt3__112basic_stringIcNS0_11char_traitsIcEENS0_9allocatorIcEEEEPS6_, symObjAddr: 0x10EF0, symBinAddr: 0x10B740, symSize: 0x3F0 }
  - { offset: 0x737A0F, size: 0x8, addend: 0x0, symName: __ZNSt3__16vectorIN25llm_tokenizer_ugm_session17best_tokenizationENS_9allocatorIS2_EEE20__throw_length_errorB8ne200100Ev, symObjAddr: 0x11600, symBinAddr: 0x10BE50, symSize: 0x10 }
  - { offset: 0x737A27, size: 0x8, addend: 0x0, symName: __ZNK20llm_tokenizer_plamo26encodeERKNSt3__112basic_stringIcNS0_11char_traitsIcEENS0_9allocatorIcEEEE, symObjAddr: 0x11610, symBinAddr: 0x10BE60, symSize: 0xB40 }
  - { offset: 0x737C0F, size: 0x8, addend: 0x0, symName: __ZNK11llama_vocab7is_byteEi, symObjAddr: 0xC400, symBinAddr: 0x106F90, symSize: 0x50 }
  - { offset: 0x737C3C, size: 0x8, addend: 0x0, symName: __ZNK11llama_vocab7is_byteEi, symObjAddr: 0xC400, symBinAddr: 0x106F90, symSize: 0x50 }
  - { offset: 0x737CAA, size: 0x8, addend: 0x0, symName: __ZL25llama_unescape_rwkv_tokenRKNSt3__112basic_stringIcNS_11char_traitsIcEENS_9allocatorIcEEEE, symObjAddr: 0xBEC0, symBinAddr: 0x106A50, symSize: 0x540 }
  - { offset: 0x7392CB, size: 0x8, addend: 0x0, symName: __ZL17llama_decode_textRKNSt3__112basic_stringIcNS_11char_traitsIcEENS_9allocatorIcEEEE, symObjAddr: 0xBC80, symBinAddr: 0x106810, symSize: 0x240 }
  - { offset: 0x739DEC, size: 0x8, addend: 0x0, symName: '__ZZNK11llama_vocab4impl14token_to_pieceEiPciibENK3$_0clEPKcm', symObjAddr: 0xBB50, symBinAddr: 0x1066E0, symSize: 0x90 }
  - { offset: 0x739E4D, size: 0x8, addend: 0x0, symName: __ZL25llama_unescape_whitespaceRNSt3__112basic_stringIcNS_11char_traitsIcEENS_9allocatorIcEEEE, symObjAddr: 0xBBE0, symBinAddr: 0x106770, symSize: 0xA0 }
  - { offset: 0x73A3DD, size: 0x8, addend: 0x0, symName: __ZNSt3__16vectorINS_12basic_stringIcNS_11char_traitsIcEENS_9allocatorIcEEEENS4_IS6_EEE20__throw_out_of_rangeB8ne200100Ev, symObjAddr: 0x1D510, symBinAddr: 0x116AC0, symSize: 0x10 }
  - { offset: 0x73A3F5, size: 0x8, addend: 0x0, symName: __ZN11llama_vocab4implD2Ev, symObjAddr: 0x1D520, symBinAddr: 0x116AD0, symSize: 0x210 }
  - { offset: 0x73AAE8, size: 0x8, addend: 0x0, symName: __ZNK11llama_vocab4impl14token_to_pieceEi, symObjAddr: 0xC450, symBinAddr: 0x106FE0, symSize: 0x40 }
  - { offset: 0x73AB60, size: 0x8, addend: 0x0, symName: __ZNK11llama_vocab4impl10detokenizeEPKiiPcibb, symObjAddr: 0xC490, symBinAddr: 0x107020, symSize: 0x440 }
  - { offset: 0x73AE75, size: 0x8, addend: 0x0, symName: __ZNK11llama_vocab4impl10print_infoEv, symObjAddr: 0xC8D0, symBinAddr: 0x107460, symSize: 0x7D0 }
  - { offset: 0x73CB1F, size: 0x8, addend: 0x0, symName: __ZNK11llama_vocab8n_tokensEv, symObjAddr: 0xD0A0, symBinAddr: 0x107C30, symSize: 0x20 }
  - { offset: 0x73CDF8, size: 0x8, addend: 0x0, symName: __ZN11llama_vocabC2Ev, symObjAddr: 0xD0C0, symBinAddr: 0x107C50, symSize: 0x110 }
  - { offset: 0x73D14B, size: 0x8, addend: 0x0, symName: __ZN11llama_vocabC1Ev, symObjAddr: 0xD1D0, symBinAddr: 0x107D60, symSize: 0x110 }
  - { offset: 0x73D547, size: 0x8, addend: 0x0, symName: __ZN11llama_vocabD2Ev, symObjAddr: 0xD2E0, symBinAddr: 0x107E70, symSize: 0x40 }
  - { offset: 0x73D625, size: 0x8, addend: 0x0, symName: __ZN11llama_vocab4implD2Ev, symObjAddr: 0x1D520, symBinAddr: 0x116AD0, symSize: 0x210 }
  - { offset: 0x73EA18, size: 0x8, addend: 0x0, symName: __ZN11llama_vocabD1Ev, symObjAddr: 0xD320, symBinAddr: 0x107EB0, symSize: 0x40 }
  - { offset: 0x73EB21, size: 0x8, addend: 0x0, symName: __ZN11llama_vocab4loadER18llama_model_loaderRK6LLM_KV, symObjAddr: 0xD360, symBinAddr: 0x107EF0, symSize: 0x10 }
  - { offset: 0x73EBA3, size: 0x8, addend: 0x0, symName: __ZNK11llama_vocab19get_tokenizer_modelEv, symObjAddr: 0xD370, symBinAddr: 0x107F00, symSize: 0x40 }
  - { offset: 0x73EBCF, size: 0x8, addend: 0x0, symName: __ZNK11llama_vocab19get_tokenizer_modelEv, symObjAddr: 0xD370, symBinAddr: 0x107F00, symSize: 0x40 }
  - { offset: 0x73EC5E, size: 0x8, addend: 0x0, symName: __ZNK11llama_vocab17get_tokenizer_preEv, symObjAddr: 0xD3B0, symBinAddr: 0x107F40, symSize: 0x40 }
  - { offset: 0x73EC8A, size: 0x8, addend: 0x0, symName: __ZNK11llama_vocab17get_tokenizer_preEv, symObjAddr: 0xD3B0, symBinAddr: 0x107F40, symSize: 0x40 }
  - { offset: 0x73ED19, size: 0x8, addend: 0x0, symName: __ZNK11llama_vocab8get_typeEv, symObjAddr: 0xD3F0, symBinAddr: 0x107F80, symSize: 0x10 }
  - { offset: 0x73ED56, size: 0x8, addend: 0x0, symName: __ZNK11llama_vocab12get_pre_typeEv, symObjAddr: 0xD400, symBinAddr: 0x107F90, symSize: 0x10 }
  - { offset: 0x73ED93, size: 0x8, addend: 0x0, symName: __ZNK11llama_vocab13n_token_typesEv, symObjAddr: 0xD410, symBinAddr: 0x107FA0, symSize: 0x10 }
  - { offset: 0x73EDD8, size: 0x8, addend: 0x0, symName: __ZNK11llama_vocab9type_nameEv, symObjAddr: 0xD420, symBinAddr: 0x107FB0, symSize: 0x110 }
  - { offset: 0x73F4AD, size: 0x8, addend: 0x0, symName: __ZNK11llama_vocab9is_normalEi, symObjAddr: 0xD530, symBinAddr: 0x1080C0, symSize: 0x50 }
  - { offset: 0x73F4DA, size: 0x8, addend: 0x0, symName: __ZNK11llama_vocab9is_normalEi, symObjAddr: 0xD530, symBinAddr: 0x1080C0, symSize: 0x50 }
  - { offset: 0x73F56C, size: 0x8, addend: 0x0, symName: __ZNK11llama_vocab10is_unknownEi, symObjAddr: 0xD580, symBinAddr: 0x108110, symSize: 0x50 }
  - { offset: 0x73F5A8, size: 0x8, addend: 0x0, symName: __ZNK11llama_vocab10is_unknownEi, symObjAddr: 0xD580, symBinAddr: 0x108110, symSize: 0x50 }
  - { offset: 0x73F63A, size: 0x8, addend: 0x0, symName: __ZNK11llama_vocab10is_controlEi, symObjAddr: 0xD5D0, symBinAddr: 0x108160, symSize: 0x50 }
  - { offset: 0x73F667, size: 0x8, addend: 0x0, symName: __ZNK11llama_vocab10is_controlEi, symObjAddr: 0xD5D0, symBinAddr: 0x108160, symSize: 0x50 }
  - { offset: 0x73F6D5, size: 0x8, addend: 0x0, symName: __ZNK11llama_vocab15is_user_definedEi, symObjAddr: 0xD620, symBinAddr: 0x1081B0, symSize: 0x50 }
  - { offset: 0x73F702, size: 0x8, addend: 0x0, symName: __ZNK11llama_vocab15is_user_definedEi, symObjAddr: 0xD620, symBinAddr: 0x1081B0, symSize: 0x50 }
  - { offset: 0x73F794, size: 0x8, addend: 0x0, symName: __ZNK11llama_vocab9is_unusedEi, symObjAddr: 0xD670, symBinAddr: 0x108200, symSize: 0x50 }
  - { offset: 0x73F7D0, size: 0x8, addend: 0x0, symName: __ZNK11llama_vocab9is_unusedEi, symObjAddr: 0xD670, symBinAddr: 0x108200, symSize: 0x50 }
  - { offset: 0x73F862, size: 0x8, addend: 0x0, symName: __ZNK11llama_vocab6is_eogEi, symObjAddr: 0xD6C0, symBinAddr: 0x108250, symSize: 0x40 }
  - { offset: 0x73F927, size: 0x8, addend: 0x0, symName: __ZNK11llama_vocab13token_to_byteEi, symObjAddr: 0xD700, symBinAddr: 0x108290, symSize: 0x10 }
  - { offset: 0x73F993, size: 0x8, addend: 0x0, symName: __ZNK11llama_vocab13text_to_tokenERKNSt3__112basic_stringIcNS0_11char_traitsIcEENS0_9allocatorIcEEEE, symObjAddr: 0xD710, symBinAddr: 0x1082A0, symSize: 0x50 }
  - { offset: 0x73FA6C, size: 0x8, addend: 0x0, symName: __ZNK11llama_vocab14token_get_textEi, symObjAddr: 0xD760, symBinAddr: 0x1082F0, symSize: 0x70 }
  - { offset: 0x73FBB2, size: 0x8, addend: 0x0, symName: __ZNK11llama_vocab15token_get_scoreEi, symObjAddr: 0xD7D0, symBinAddr: 0x108360, symSize: 0x60 }
  - { offset: 0x73FC5C, size: 0x8, addend: 0x0, symName: __ZNK11llama_vocab14token_get_attrEi, symObjAddr: 0xD830, symBinAddr: 0x1083C0, symSize: 0x60 }
  - { offset: 0x73FD1D, size: 0x8, addend: 0x0, symName: __ZNK11llama_vocab9token_bosEv, symObjAddr: 0xD890, symBinAddr: 0x108420, symSize: 0x10 }
  - { offset: 0x73FD5A, size: 0x8, addend: 0x0, symName: __ZNK11llama_vocab9token_eosEv, symObjAddr: 0xD8A0, symBinAddr: 0x108430, symSize: 0x10 }
  - { offset: 0x73FD97, size: 0x8, addend: 0x0, symName: __ZNK11llama_vocab9token_eotEv, symObjAddr: 0xD8B0, symBinAddr: 0x108440, symSize: 0x10 }
  - { offset: 0x73FDD4, size: 0x8, addend: 0x0, symName: __ZNK11llama_vocab9token_eomEv, symObjAddr: 0xD8C0, symBinAddr: 0x108450, symSize: 0x10 }
  - { offset: 0x73FE19, size: 0x8, addend: 0x0, symName: __ZNK11llama_vocab9token_unkEv, symObjAddr: 0xD8D0, symBinAddr: 0x108460, symSize: 0x10 }
  - { offset: 0x73FE56, size: 0x8, addend: 0x0, symName: __ZNK11llama_vocab9token_sepEv, symObjAddr: 0xD8E0, symBinAddr: 0x108470, symSize: 0x10 }
  - { offset: 0x73FE93, size: 0x8, addend: 0x0, symName: __ZNK11llama_vocab8token_nlEv, symObjAddr: 0xD8F0, symBinAddr: 0x108480, symSize: 0x10 }
  - { offset: 0x73FED0, size: 0x8, addend: 0x0, symName: __ZNK11llama_vocab9token_padEv, symObjAddr: 0xD900, symBinAddr: 0x108490, symSize: 0x10 }
  - { offset: 0x73FF0D, size: 0x8, addend: 0x0, symName: __ZNK11llama_vocab12token_prefixEv, symObjAddr: 0xD910, symBinAddr: 0x1084A0, symSize: 0x10 }
  - { offset: 0x73FF52, size: 0x8, addend: 0x0, symName: __ZNK11llama_vocab12token_middleEv, symObjAddr: 0xD920, symBinAddr: 0x1084B0, symSize: 0x10 }
  - { offset: 0x73FF97, size: 0x8, addend: 0x0, symName: __ZNK11llama_vocab12token_suffixEv, symObjAddr: 0xD930, symBinAddr: 0x1084C0, symSize: 0x10 }
  - { offset: 0x73FFDC, size: 0x8, addend: 0x0, symName: __ZNK11llama_vocab13token_fim_preEv, symObjAddr: 0xD940, symBinAddr: 0x1084D0, symSize: 0x10 }
  - { offset: 0x740019, size: 0x8, addend: 0x0, symName: __ZNK11llama_vocab13token_fim_sufEv, symObjAddr: 0xD950, symBinAddr: 0x1084E0, symSize: 0x10 }
  - { offset: 0x740056, size: 0x8, addend: 0x0, symName: __ZNK11llama_vocab13token_fim_midEv, symObjAddr: 0xD960, symBinAddr: 0x1084F0, symSize: 0x10 }
  - { offset: 0x740093, size: 0x8, addend: 0x0, symName: __ZNK11llama_vocab13token_fim_padEv, symObjAddr: 0xD970, symBinAddr: 0x108500, symSize: 0x10 }
  - { offset: 0x7400D0, size: 0x8, addend: 0x0, symName: __ZNK11llama_vocab13token_fim_repEv, symObjAddr: 0xD980, symBinAddr: 0x108510, symSize: 0x10 }
  - { offset: 0x74010D, size: 0x8, addend: 0x0, symName: __ZNK11llama_vocab13token_fim_sepEv, symObjAddr: 0xD990, symBinAddr: 0x108520, symSize: 0x10 }
  - { offset: 0x74014A, size: 0x8, addend: 0x0, symName: __ZNK11llama_vocab10token_maskEv, symObjAddr: 0xD9A0, symBinAddr: 0x108530, symSize: 0x10 }
  - { offset: 0x740187, size: 0x8, addend: 0x0, symName: __ZNK11llama_vocab20get_add_space_prefixEv, symObjAddr: 0xD9B0, symBinAddr: 0x108540, symSize: 0x10 }
  - { offset: 0x7401CC, size: 0x8, addend: 0x0, symName: __ZNK11llama_vocab11get_add_bosEv, symObjAddr: 0xD9C0, symBinAddr: 0x108550, symSize: 0x10 }
  - { offset: 0x740209, size: 0x8, addend: 0x0, symName: __ZNK11llama_vocab11get_add_eosEv, symObjAddr: 0xD9D0, symBinAddr: 0x108560, symSize: 0x10 }
  - { offset: 0x740246, size: 0x8, addend: 0x0, symName: __ZNK11llama_vocab11get_add_sepEv, symObjAddr: 0xD9E0, symBinAddr: 0x108570, symSize: 0x10 }
  - { offset: 0x740283, size: 0x8, addend: 0x0, symName: __ZNK11llama_vocab17get_ignore_mergesEv, symObjAddr: 0xD9F0, symBinAddr: 0x108580, symSize: 0x10 }
  - { offset: 0x7402C0, size: 0x8, addend: 0x0, symName: __ZNK11llama_vocab16get_clean_spacesEv, symObjAddr: 0xDA00, symBinAddr: 0x108590, symSize: 0x10 }
  - { offset: 0x740305, size: 0x8, addend: 0x0, symName: __ZNK11llama_vocab28get_remove_extra_whitespacesEv, symObjAddr: 0xDA10, symBinAddr: 0x1085A0, symSize: 0x10 }
  - { offset: 0x74034A, size: 0x8, addend: 0x0, symName: __ZNK11llama_vocab22get_escape_whitespacesEv, symObjAddr: 0xDA20, symBinAddr: 0x1085B0, symSize: 0x10 }
  - { offset: 0x740387, size: 0x8, addend: 0x0, symName: __ZNK11llama_vocab30get_treat_whitespace_as_suffixEv, symObjAddr: 0xDA30, symBinAddr: 0x1085C0, symSize: 0x10 }
  - { offset: 0x7403C4, size: 0x8, addend: 0x0, symName: __ZNK11llama_vocab13max_token_lenEv, symObjAddr: 0xDA40, symBinAddr: 0x1085D0, symSize: 0x10 }
  - { offset: 0x7404AF, size: 0x8, addend: 0x0, symName: __ZNK11llama_vocab13find_bpe_rankERKNSt3__112basic_stringIcNS0_11char_traitsIcEENS0_9allocatorIcEEEES8_, symObjAddr: 0xDA50, symBinAddr: 0x1085E0, symSize: 0x1F0 }
  - { offset: 0x740A3E, size: 0x8, addend: 0x0, symName: __ZNSt3__112__hash_tableINS_17__hash_value_typeINS_4pairINS_12basic_stringIcNS_11char_traitsIcEENS_9allocatorIcEEEES8_EEiEENS_22__unordered_map_hasherIS9_SA_N11llama_vocab4impl9pair_hashENS_8equal_toIS9_EELb1EEENS_21__unordered_map_equalIS9_SA_SG_SE_Lb1EEENS6_ISA_EEE4findIS9_EENS_15__hash_iteratorIPNS_11__hash_nodeISA_PvEEEERKT_, symObjAddr: 0x1D730, symBinAddr: 0x116CE0, symSize: 0x1F0 }
  - { offset: 0x740DA8, size: 0x8, addend: 0x0, symName: __ZNK11llama_vocab14get_bpe_mergesEv, symObjAddr: 0xDC40, symBinAddr: 0x1087D0, symSize: 0x2E0 }
  - { offset: 0x741ABF, size: 0x8, addend: 0x0, symName: __ZNK11llama_vocab24get_precompiled_charsmapEv, symObjAddr: 0xE030, symBinAddr: 0x108BC0, symSize: 0x70 }
  - { offset: 0x741E4E, size: 0x8, addend: 0x0, symName: __ZNK11llama_vocab8tokenizeEPKciPiibb, symObjAddr: 0xE0A0, symBinAddr: 0x108C30, symSize: 0x240 }
  - { offset: 0x74258D, size: 0x8, addend: 0x0, symName: __ZNK11llama_vocab8tokenizeERKNSt3__112basic_stringIcNS0_11char_traitsIcEENS0_9allocatorIcEEEEbb, symObjAddr: 0xE2E0, symBinAddr: 0x108E70, symSize: 0x20 }
  - { offset: 0x742635, size: 0x8, addend: 0x0, symName: __ZNK11llama_vocab14token_to_pieceEi, symObjAddr: 0xE300, symBinAddr: 0x108E90, symSize: 0x40 }
  - { offset: 0x742671, size: 0x8, addend: 0x0, symName: __ZNK11llama_vocab14token_to_pieceEi, symObjAddr: 0xE300, symBinAddr: 0x108E90, symSize: 0x40 }
  - { offset: 0x7426EE, size: 0x8, addend: 0x0, symName: __ZNK11llama_vocab10detokenizeEPKiiPcibb, symObjAddr: 0xE340, symBinAddr: 0x108ED0, symSize: 0x10 }
  - { offset: 0x7426F9, size: 0x8, addend: 0x0, symName: __ZNK11llama_vocab10detokenizeEPKiiPcibb, symObjAddr: 0xE340, symBinAddr: 0x108ED0, symSize: 0x10 }
  - { offset: 0x742816, size: 0x8, addend: 0x0, symName: __ZNK11llama_vocab10detokenizeERKNSt3__16vectorIiNS0_9allocatorIiEEEEb, symObjAddr: 0xE350, symBinAddr: 0x108EE0, symSize: 0x140 }
  - { offset: 0x742C98, size: 0x8, addend: 0x0, symName: __ZNK11llama_vocab10print_infoEv, symObjAddr: 0xE490, symBinAddr: 0x109020, symSize: 0x10 }
  - { offset: 0x742CED, size: 0x8, addend: 0x0, symName: _llama_vocab_n_tokens, symObjAddr: 0xE4A0, symBinAddr: 0x109030, symSize: 0x20 }
  - { offset: 0x742D7E, size: 0x8, addend: 0x0, symName: _llama_n_vocab, symObjAddr: 0xE4C0, symBinAddr: 0x109050, symSize: 0x20 }
  - { offset: 0x742E20, size: 0x8, addend: 0x0, symName: _llama_vocab_type, symObjAddr: 0xE4E0, symBinAddr: 0x109070, symSize: 0x10 }
  - { offset: 0x742EAA, size: 0x8, addend: 0x0, symName: _llama_vocab_get_text, symObjAddr: 0xE4F0, symBinAddr: 0x109080, symSize: 0x70 }
  - { offset: 0x743031, size: 0x8, addend: 0x0, symName: _llama_vocab_get_score, symObjAddr: 0xE560, symBinAddr: 0x1090F0, symSize: 0x60 }
  - { offset: 0x74311C, size: 0x8, addend: 0x0, symName: _llama_vocab_get_attr, symObjAddr: 0xE5C0, symBinAddr: 0x109150, symSize: 0x60 }
  - { offset: 0x74321E, size: 0x8, addend: 0x0, symName: _llama_vocab_is_eog, symObjAddr: 0xE620, symBinAddr: 0x1091B0, symSize: 0x40 }
  - { offset: 0x743243, size: 0x8, addend: 0x0, symName: _llama_vocab_is_eog, symObjAddr: 0xE620, symBinAddr: 0x1091B0, symSize: 0x40 }
  - { offset: 0x743328, size: 0x8, addend: 0x0, symName: _llama_vocab_is_control, symObjAddr: 0xE660, symBinAddr: 0x1091F0, symSize: 0x50 }
  - { offset: 0x743370, size: 0x8, addend: 0x0, symName: _llama_vocab_is_control, symObjAddr: 0xE660, symBinAddr: 0x1091F0, symSize: 0x50 }
  - { offset: 0x7433DF, size: 0x8, addend: 0x0, symName: _llama_vocab_bos, symObjAddr: 0xE6B0, symBinAddr: 0x109240, symSize: 0x10 }
  - { offset: 0x743435, size: 0x8, addend: 0x0, symName: _llama_vocab_eos, symObjAddr: 0xE6C0, symBinAddr: 0x109250, symSize: 0x10 }
  - { offset: 0x7434A4, size: 0x8, addend: 0x0, symName: _llama_vocab_eot, symObjAddr: 0xE6D0, symBinAddr: 0x109260, symSize: 0x10 }
  - { offset: 0x7434FA, size: 0x8, addend: 0x0, symName: _llama_vocab_cls, symObjAddr: 0xE6E0, symBinAddr: 0x109270, symSize: 0x10 }
  - { offset: 0x743578, size: 0x8, addend: 0x0, symName: _llama_vocab_sep, symObjAddr: 0xE6F0, symBinAddr: 0x109280, symSize: 0x10 }
  - { offset: 0x7435E7, size: 0x8, addend: 0x0, symName: _llama_vocab_nl, symObjAddr: 0xE700, symBinAddr: 0x109290, symSize: 0x10 }
  - { offset: 0x743656, size: 0x8, addend: 0x0, symName: _llama_vocab_pad, symObjAddr: 0xE710, symBinAddr: 0x1092A0, symSize: 0x10 }
  - { offset: 0x7436AC, size: 0x8, addend: 0x0, symName: _llama_vocab_get_add_bos, symObjAddr: 0xE720, symBinAddr: 0x1092B0, symSize: 0x10 }
  - { offset: 0x743702, size: 0x8, addend: 0x0, symName: _llama_vocab_get_add_eos, symObjAddr: 0xE730, symBinAddr: 0x1092C0, symSize: 0x10 }
  - { offset: 0x743771, size: 0x8, addend: 0x0, symName: _llama_vocab_get_add_sep, symObjAddr: 0xE740, symBinAddr: 0x1092D0, symSize: 0x10 }
  - { offset: 0x7437EF, size: 0x8, addend: 0x0, symName: _llama_vocab_fim_pre, symObjAddr: 0xE750, symBinAddr: 0x1092E0, symSize: 0x10 }
  - { offset: 0x74385E, size: 0x8, addend: 0x0, symName: _llama_vocab_fim_suf, symObjAddr: 0xE760, symBinAddr: 0x1092F0, symSize: 0x10 }
  - { offset: 0x7438CD, size: 0x8, addend: 0x0, symName: _llama_vocab_fim_mid, symObjAddr: 0xE770, symBinAddr: 0x109300, symSize: 0x10 }
  - { offset: 0x74393C, size: 0x8, addend: 0x0, symName: _llama_vocab_fim_pad, symObjAddr: 0xE780, symBinAddr: 0x109310, symSize: 0x10 }
  - { offset: 0x7439AB, size: 0x8, addend: 0x0, symName: _llama_vocab_fim_rep, symObjAddr: 0xE790, symBinAddr: 0x109320, symSize: 0x10 }
  - { offset: 0x743A1A, size: 0x8, addend: 0x0, symName: _llama_vocab_fim_sep, symObjAddr: 0xE7A0, symBinAddr: 0x109330, symSize: 0x10 }
  - { offset: 0x743A89, size: 0x8, addend: 0x0, symName: _llama_vocab_mask, symObjAddr: 0xE7B0, symBinAddr: 0x109340, symSize: 0x10 }
  - { offset: 0x743B15, size: 0x8, addend: 0x0, symName: _llama_token_get_text, symObjAddr: 0xE7C0, symBinAddr: 0x109350, symSize: 0x70 }
  - { offset: 0x743CD3, size: 0x8, addend: 0x0, symName: _llama_token_get_score, symObjAddr: 0xE830, symBinAddr: 0x1093C0, symSize: 0x60 }
  - { offset: 0x743DF5, size: 0x8, addend: 0x0, symName: _llama_token_get_attr, symObjAddr: 0xE890, symBinAddr: 0x109420, symSize: 0x60 }
  - { offset: 0x743F2E, size: 0x8, addend: 0x0, symName: _llama_token_is_eog, symObjAddr: 0xE8F0, symBinAddr: 0x109480, symSize: 0x40 }
  - { offset: 0x743F6A, size: 0x8, addend: 0x0, symName: _llama_token_is_eog, symObjAddr: 0xE8F0, symBinAddr: 0x109480, symSize: 0x40 }
  - { offset: 0x743F8D, size: 0x8, addend: 0x0, symName: _llama_token_is_eog, symObjAddr: 0xE8F0, symBinAddr: 0x109480, symSize: 0x40 }
  - { offset: 0x744075, size: 0x8, addend: 0x0, symName: _llama_token_is_control, symObjAddr: 0xE930, symBinAddr: 0x1094C0, symSize: 0x50 }
  - { offset: 0x7440F1, size: 0x8, addend: 0x0, symName: _llama_token_is_control, symObjAddr: 0xE930, symBinAddr: 0x1094C0, symSize: 0x50 }
  - { offset: 0x74417C, size: 0x8, addend: 0x0, symName: _llama_token_bos, symObjAddr: 0xE980, symBinAddr: 0x109510, symSize: 0x10 }
  - { offset: 0x744219, size: 0x8, addend: 0x0, symName: _llama_token_eos, symObjAddr: 0xE990, symBinAddr: 0x109520, symSize: 0x10 }
  - { offset: 0x7442B6, size: 0x8, addend: 0x0, symName: _llama_token_eot, symObjAddr: 0xE9A0, symBinAddr: 0x109530, symSize: 0x10 }
  - { offset: 0x744338, size: 0x8, addend: 0x0, symName: _llama_token_cls, symObjAddr: 0xE9B0, symBinAddr: 0x109540, symSize: 0x10 }
  - { offset: 0x7443D5, size: 0x8, addend: 0x0, symName: _llama_token_sep, symObjAddr: 0xE9C0, symBinAddr: 0x109550, symSize: 0x10 }
  - { offset: 0x744472, size: 0x8, addend: 0x0, symName: _llama_token_nl, symObjAddr: 0xE9D0, symBinAddr: 0x109560, symSize: 0x10 }
  - { offset: 0x74450F, size: 0x8, addend: 0x0, symName: _llama_token_pad, symObjAddr: 0xE9E0, symBinAddr: 0x109570, symSize: 0x10 }
  - { offset: 0x7445AC, size: 0x8, addend: 0x0, symName: _llama_add_bos_token, symObjAddr: 0xE9F0, symBinAddr: 0x109580, symSize: 0x10 }
  - { offset: 0x744649, size: 0x8, addend: 0x0, symName: _llama_add_eos_token, symObjAddr: 0xEA00, symBinAddr: 0x109590, symSize: 0x10 }
  - { offset: 0x7446E6, size: 0x8, addend: 0x0, symName: _llama_token_fim_pre, symObjAddr: 0xEA10, symBinAddr: 0x1095A0, symSize: 0x10 }
  - { offset: 0x744783, size: 0x8, addend: 0x0, symName: _llama_token_fim_suf, symObjAddr: 0xEA20, symBinAddr: 0x1095B0, symSize: 0x10 }
  - { offset: 0x744820, size: 0x8, addend: 0x0, symName: _llama_token_fim_mid, symObjAddr: 0xEA30, symBinAddr: 0x1095C0, symSize: 0x10 }
  - { offset: 0x7448BD, size: 0x8, addend: 0x0, symName: _llama_token_fim_pad, symObjAddr: 0xEA40, symBinAddr: 0x1095D0, symSize: 0x10 }
  - { offset: 0x74495A, size: 0x8, addend: 0x0, symName: _llama_token_fim_rep, symObjAddr: 0xEA50, symBinAddr: 0x1095E0, symSize: 0x10 }
  - { offset: 0x7449F7, size: 0x8, addend: 0x0, symName: _llama_token_fim_sep, symObjAddr: 0xEA60, symBinAddr: 0x1095F0, symSize: 0x10 }
  - { offset: 0x744A79, size: 0x8, addend: 0x0, symName: _llama_tokenize, symObjAddr: 0xEA70, symBinAddr: 0x109600, symSize: 0x10 }
  - { offset: 0x744B40, size: 0x8, addend: 0x0, symName: _llama_token_to_piece, symObjAddr: 0xEA80, symBinAddr: 0x109610, symSize: 0x10 }
  - { offset: 0x744C60, size: 0x8, addend: 0x0, symName: _llama_detokenize, symObjAddr: 0xEA90, symBinAddr: 0x109620, symSize: 0x10 }
  - { offset: 0x744ED4, size: 0x8, addend: 0x0, symName: __ZNSt3__16vectorI14llm_bigram_spmNS_9allocatorIS1_EEE9push_backB8ne200100ERKS1_, symObjAddr: 0xF320, symBinAddr: 0x109DF0, symSize: 0x140 }
  - { offset: 0x7452E0, size: 0x8, addend: 0x0, symName: __ZNSt3__16__treeINS_12__value_typeINS_12basic_stringIcNS_11char_traitsIcEENS_9allocatorIcEEEENS_4pairIiiEEEENS_19__map_value_compareIS7_SA_NS_4lessIS7_EELb1EEENS5_ISA_EEE25__emplace_unique_key_argsIS7_JRKNS_21piecewise_construct_tENS_5tupleIJRKS7_EEENSL_IJEEEEEENS8_INS_15__tree_iteratorISA_PNS_11__tree_nodeISA_PvEElEEbEERKT_DpOT0_, symObjAddr: 0xF470, symBinAddr: 0x109F40, symSize: 0x1D0 }
  - { offset: 0x745AC1, size: 0x8, addend: 0x0, symName: __ZNSt3__16__treeINS_12__value_typeINS_12basic_stringIcNS_11char_traitsIcEENS_9allocatorIcEEEENS_4pairIiiEEEENS_19__map_value_compareIS7_SA_NS_4lessIS7_EELb1EEENS5_ISA_EEE4findIS7_EENS_15__tree_iteratorISA_PNS_11__tree_nodeISA_PvEElEERKT_, symObjAddr: 0xFA00, symBinAddr: 0x10A350, symSize: 0x110 }
  - { offset: 0x746161, size: 0x8, addend: 0x0, symName: __ZNSt3__16vectorI14llm_bigram_spmNS_9allocatorIS1_EEE20__throw_length_errorB8ne200100Ev, symObjAddr: 0xF460, symBinAddr: 0x109F30, symSize: 0x10 }
  - { offset: 0x746179, size: 0x8, addend: 0x0, symName: __ZNSt3__16__treeINS_12__value_typeINS_12basic_stringIcNS_11char_traitsIcEENS_9allocatorIcEEEENS_4pairIiiEEEENS_19__map_value_compareIS7_SA_NS_4lessIS7_EELb1EEENS5_ISA_EEE25__emplace_unique_key_argsIS7_JRKNS_21piecewise_construct_tENS_5tupleIJRKS7_EEENSL_IJEEEEEENS8_INS_15__tree_iteratorISA_PNS_11__tree_nodeISA_PvEElEEbEERKT_DpOT0_, symObjAddr: 0xF470, symBinAddr: 0x109F40, symSize: 0x1D0 }
  - { offset: 0x7466F7, size: 0x8, addend: 0x0, symName: __ZNSt3__110unique_ptrINS_11__tree_nodeINS_12__value_typeINS_12basic_stringIcNS_11char_traitsIcEENS_9allocatorIcEEEENS_4pairIiiEEEEPvEENS_22__tree_node_destructorINS6_ISD_EEEEED1B8ne200100Ev, symObjAddr: 0xF640, symBinAddr: 0x10A110, symSize: 0x50 }
  - { offset: 0x746D85, size: 0x8, addend: 0x0, symName: __ZNSt3__16vectorI14llm_bigram_bpeNS_9allocatorIS1_EEE24__emplace_back_slow_pathIJRKS1_EEEPS1_DpOT_, symObjAddr: 0xFF90, symBinAddr: 0x10A8D0, symSize: 0x230 }
  - { offset: 0x7476EE, size: 0x8, addend: 0x0, symName: __ZNSt3__16vectorI14llm_bigram_bpeNS_9allocatorIS1_EEE20__throw_length_errorB8ne200100Ev, symObjAddr: 0x10220, symBinAddr: 0x10AB60, symSize: 0x10 }
  - { offset: 0x747706, size: 0x8, addend: 0x0, symName: __ZNSt3__19__sift_upB8ne200100INS_17_ClassicAlgPolicyERN14llm_bigram_bpe10comparatorENS_11__wrap_iterIPS2_EEEEvT1_S8_OT0_NS_15iterator_traitsIS8_E15difference_typeE, symObjAddr: 0x10230, symBinAddr: 0x10AB70, symSize: 0x1A0 }
  - { offset: 0x747711, size: 0x8, addend: 0x0, symName: __ZNSt3__114__split_bufferI14llm_bigram_bpeRNS_9allocatorIS1_EEED1Ev, symObjAddr: 0x101C0, symBinAddr: 0x10AB00, symSize: 0x60 }
  - { offset: 0x74830E, size: 0x8, addend: 0x0, symName: __ZN25llm_tokenizer_ugm_session16normalize_prefixERKNSt3__112basic_stringIcNS0_11char_traitsIcEENS0_9allocatorIcEEEEm, symObjAddr: 0x112E0, symBinAddr: 0x10BB30, symSize: 0x320 }
  - { offset: 0x749185, size: 0x8, addend: 0x0, symName: __ZNSt3__16vectorINS0_IiNS_9allocatorIiEEEENS1_IS3_EEEC2B8ne200100EmRKS3_, symObjAddr: 0x121D0, symBinAddr: 0x10C9A0, symSize: 0x1A0 }
  - { offset: 0x74981E, size: 0x8, addend: 0x0, symName: __ZNSt3__16vectorINS0_IiNS_9allocatorIiEEEENS1_IS3_EEEC2B8ne200100EmRKS3_, symObjAddr: 0x121D0, symBinAddr: 0x10C9A0, symSize: 0x1A0 }
  - { offset: 0x749B45, size: 0x8, addend: 0x0, symName: __ZNSt3__16vectorINS0_IiNS_9allocatorIiEEEENS1_IS3_EEE20__throw_length_errorB8ne200100Ev, symObjAddr: 0x123E0, symBinAddr: 0x10CB40, symSize: 0x10 }
  - { offset: 0x74AC67, size: 0x8, addend: 0x0, symName: __ZNSt3__112__hash_tableINS_17__hash_value_typeINS_12basic_stringIcNS_11char_traitsIcEENS_9allocatorIcEEEEiEENS_22__unordered_map_hasherIS7_S8_NS_4hashIS7_EENS_8equal_toIS7_EELb1EEENS_21__unordered_map_equalIS7_S8_SD_SB_Lb1EEENS5_IS8_EEE11__do_rehashILb1EEEvm, symObjAddr: 0x13400, symBinAddr: 0x10D150, symSize: 0x1B0 }
  - { offset: 0x74B023, size: 0x8, addend: 0x0, symName: __ZNSt3__110unique_ptrINS_11__hash_nodeINS_17__hash_value_typeINS_12basic_stringIcNS_11char_traitsIcEENS_9allocatorIcEEEEiEEPvEENS_22__hash_node_destructorINS6_ISB_EEEEED1B8ne200100Ev, symObjAddr: 0x12F00, symBinAddr: 0x10D100, symSize: 0x50 }
  - { offset: 0x74BB99, size: 0x8, addend: 0x0, symName: __ZNSt3__16vectorIN11llama_vocab10token_dataENS_9allocatorIS2_EEE20__throw_length_errorB8ne200100Ev, symObjAddr: 0x13A00, symBinAddr: 0x10D750, symSize: 0x10 }
  - { offset: 0x74BBB1, size: 0x8, addend: 0x0, symName: __ZNSt3__112__hash_tableINS_17__hash_value_typeINS_4pairINS_12basic_stringIcNS_11char_traitsIcEENS_9allocatorIcEEEES8_EEiEENS_22__unordered_map_hasherIS9_SA_N11llama_vocab4impl9pair_hashENS_8equal_toIS9_EELb1EEENS_21__unordered_map_equalIS9_SA_SG_SE_Lb1EEENS6_ISA_EEE25__emplace_unique_key_argsIS9_JS9_RiEEENS2_INS_15__hash_iteratorIPNS_11__hash_nodeISA_PvEEEEbEERKT_DpOT0_, symObjAddr: 0x13A10, symBinAddr: 0x10D760, symSize: 0x560 }
  - { offset: 0x74C0AD, size: 0x8, addend: 0x0, symName: __ZNKSt3__18equal_toINS_4pairINS_12basic_stringIcNS_11char_traitsIcEENS_9allocatorIcEEEES7_EEEclB8ne200100ERKS8_SB_, symObjAddr: 0x13FC0, symBinAddr: 0x10DD10, symSize: 0x100 }
  - { offset: 0x74C360, size: 0x8, addend: 0x0, symName: __ZNSt3__112__hash_tableINS_17__hash_value_typeINS_4pairINS_12basic_stringIcNS_11char_traitsIcEENS_9allocatorIcEEEES8_EEiEENS_22__unordered_map_hasherIS9_SA_N11llama_vocab4impl9pair_hashENS_8equal_toIS9_EELb1EEENS_21__unordered_map_equalIS9_SA_SG_SE_Lb1EEENS6_ISA_EEE11__do_rehashILb1EEEvm, symObjAddr: 0x140C0, symBinAddr: 0x10DE10, symSize: 0x1B0 }
  - { offset: 0x74C71C, size: 0x8, addend: 0x0, symName: __ZNSt3__110unique_ptrINS_11__hash_nodeINS_17__hash_value_typeINS_4pairINS_12basic_stringIcNS_11char_traitsIcEENS_9allocatorIcEEEES9_EEiEEPvEENS_22__hash_node_destructorINS7_ISD_EEEEED1B8ne200100Ev, symObjAddr: 0x13F70, symBinAddr: 0x10DCC0, symSize: 0x50 }
  - { offset: 0x74D077, size: 0x8, addend: 0x0, symName: __ZN17llm_tokenizer_spmD1Ev, symObjAddr: 0x16360, symBinAddr: 0x10FCE0, symSize: 0x10 }
  - { offset: 0x74D0A2, size: 0x8, addend: 0x0, symName: __ZN17llm_tokenizer_spmD0Ev, symObjAddr: 0x16370, symBinAddr: 0x10FCF0, symSize: 0x10 }
  - { offset: 0x74D195, size: 0x8, addend: 0x0, symName: __ZNSt3__16vectorINS_12basic_stringIcNS_11char_traitsIcEENS_9allocatorIcEEEENS4_IS6_EEE18__assign_with_sizeB8ne200100IPKS6_SB_EEvT_T0_l, symObjAddr: 0x17750, symBinAddr: 0x1110D0, symSize: 0x340 }
  - { offset: 0x74DE13, size: 0x8, addend: 0x0, symName: __ZN17llm_tokenizer_bpeC2ERK11llama_vocab.cold.2, symObjAddr: 0x1D950, symBinAddr: 0x2B4C20, symSize: 0x20 }
  - { offset: 0x74DE2E, size: 0x8, addend: 0x0, symName: __ZN17llm_tokenizer_bpeC2ERK11llama_vocab.cold.2, symObjAddr: 0x1D950, symBinAddr: 0x2B4C20, symSize: 0x20 }
  - { offset: 0x74DE43, size: 0x8, addend: 0x0, symName: __ZN17llm_tokenizer_bpeC2ERK11llama_vocab.cold.2, symObjAddr: 0x1D950, symBinAddr: 0x2B4C20, symSize: 0x20 }
  - { offset: 0x74DEE6, size: 0x8, addend: 0x0, symName: __ZN17llm_tokenizer_bpeC2ERK11llama_vocab.cold.3, symObjAddr: 0x1D970, symBinAddr: 0x2B4C40, symSize: 0x30 }
  - { offset: 0x74DFB9, size: 0x8, addend: 0x0, symName: __ZN17llm_tokenizer_bpeC2ERK11llama_vocab.cold.1, symObjAddr: 0x1D920, symBinAddr: 0x2B4BF0, symSize: 0x30 }
  - { offset: 0x74E08C, size: 0x8, addend: 0x0, symName: __ZN17llm_tokenizer_bpeC2ERK11llama_vocab.cold.5, symObjAddr: 0x1D9D0, symBinAddr: 0x2B4CA0, symSize: 0x30 }
  - { offset: 0x74E15F, size: 0x8, addend: 0x0, symName: __ZN17llm_tokenizer_bpeC2ERK11llama_vocab.cold.4, symObjAddr: 0x1D9A0, symBinAddr: 0x2B4C70, symSize: 0x30 }
  - { offset: 0x74E24F, size: 0x8, addend: 0x0, symName: __ZN17llm_tokenizer_bpeD1Ev, symObjAddr: 0x17650, symBinAddr: 0x110FD0, symSize: 0x80 }
  - { offset: 0x74E50E, size: 0x8, addend: 0x0, symName: __ZN17llm_tokenizer_bpeD0Ev, symObjAddr: 0x176D0, symBinAddr: 0x111050, symSize: 0x80 }
  - { offset: 0x74E92A, size: 0x8, addend: 0x0, symName: __ZNSt3__128__exception_guard_exceptionsINS_29_AllocatorDestroyRangeReverseINS_9allocatorINS_12basic_stringIcNS_11char_traitsIcEENS2_IcEEEEEEPS7_EEED1B8ne200100Ev, symObjAddr: 0x17A90, symBinAddr: 0x111410, symSize: 0x40 }
  - { offset: 0x74E957, size: 0x8, addend: 0x0, symName: __ZNSt3__128__exception_guard_exceptionsINS_29_AllocatorDestroyRangeReverseINS_9allocatorINS_12basic_stringIcNS_11char_traitsIcEENS2_IcEEEEEEPS7_EEED1B8ne200100Ev, symObjAddr: 0x17A90, symBinAddr: 0x111410, symSize: 0x40 }
  - { offset: 0x74EB22, size: 0x8, addend: 0x0, symName: __ZN17llm_tokenizer_wpmD1Ev, symObjAddr: 0x17AD0, symBinAddr: 0x111450, symSize: 0x10 }
  - { offset: 0x74EB4E, size: 0x8, addend: 0x0, symName: __ZN17llm_tokenizer_wpmD0Ev, symObjAddr: 0x17AE0, symBinAddr: 0x111460, symSize: 0x10 }
  - { offset: 0x74ED73, size: 0x8, addend: 0x0, symName: __ZN10naive_trie6insertEPKcmi, symObjAddr: 0x17DC0, symBinAddr: 0x111740, symSize: 0x1C0 }
  - { offset: 0x74F90A, size: 0x8, addend: 0x0, symName: __ZNSt3__16__treeINS_12__value_typeIc10naive_trieEENS_19__map_value_compareIcS3_NS_4lessIcEELb1EEENS_9allocatorIS3_EEE7destroyEPNS_11__tree_nodeIS3_PvEE, symObjAddr: 0x18020, symBinAddr: 0x1119A0, symSize: 0x50 }
  - { offset: 0x750173, size: 0x8, addend: 0x0, symName: __ZN17llm_tokenizer_ugmD1Ev, symObjAddr: 0x17F80, symBinAddr: 0x111900, symSize: 0x50 }
  - { offset: 0x750463, size: 0x8, addend: 0x0, symName: __ZN17llm_tokenizer_ugmD0Ev, symObjAddr: 0x17FD0, symBinAddr: 0x111950, symSize: 0x50 }
  - { offset: 0x75087D, size: 0x8, addend: 0x0, symName: __ZN18llm_tokenizer_rwkvD1Ev, symObjAddr: 0x181C0, symBinAddr: 0x111B40, symSize: 0x20 }
  - { offset: 0x750986, size: 0x8, addend: 0x0, symName: __ZN18llm_tokenizer_rwkvD0Ev, symObjAddr: 0x181E0, symBinAddr: 0x111B60, symSize: 0x40 }
  - { offset: 0x751B2D, size: 0x8, addend: 0x0, symName: __ZNSt3__112__hash_tableINS_17__hash_value_typeINS_12basic_stringIcNS_11char_traitsIcEENS_9allocatorIcEEEEfEENS_22__unordered_map_hasherIS7_S8_NS_4hashIS7_EENS_8equal_toIS7_EELb1EEENS_21__unordered_map_equalIS7_S8_SD_SB_Lb1EEENS5_IS8_EEE25__emplace_unique_key_argsIS7_JRKNS_21piecewise_construct_tENS_5tupleIJRKS7_EEENSN_IJEEEEEENS_4pairINS_15__hash_iteratorIPNS_11__hash_nodeIS8_PvEEEEbEERKT_DpOT0_, symObjAddr: 0x19B90, symBinAddr: 0x113140, symSize: 0x5B0 }
  - { offset: 0x752489, size: 0x8, addend: 0x0, symName: __ZNSt3__112__hash_tableINS_17__hash_value_typeINS_12basic_stringIcNS_11char_traitsIcEENS_9allocatorIcEEEEfEENS_22__unordered_map_hasherIS7_S8_NS_4hashIS7_EENS_8equal_toIS7_EELb1EEENS_21__unordered_map_equalIS7_S8_SD_SB_Lb1EEENS5_IS8_EEE4findIS7_EENS_15__hash_iteratorIPNS_11__hash_nodeIS8_PvEEEERKT_, symObjAddr: 0x1A340, symBinAddr: 0x1138F0, symSize: 0x290 }
  - { offset: 0x752787, size: 0x8, addend: 0x0, symName: __ZNSt3__112__hash_tableINS_17__hash_value_typeIxiEENS_22__unordered_map_hasherIxS2_NS_4hashIxEENS_8equal_toIxEELb1EEENS_21__unordered_map_equalIxS2_S7_S5_Lb1EEENS_9allocatorIS2_EEE25__emplace_unique_key_argsIxJRKNS_21piecewise_construct_tENS_5tupleIJRKxEEENSI_IJEEEEEENS_4pairINS_15__hash_iteratorIPNS_11__hash_nodeIS2_PvEEEEbEERKT_DpOT0_, symObjAddr: 0x1CA80, symBinAddr: 0x116030, symSize: 0x4A0 }
  - { offset: 0x752EE8, size: 0x8, addend: 0x0, symName: __ZNSt3__16vectorINS0_IiNS_9allocatorIiEEEENS1_IS3_EEE8__appendEmRKS3_, symObjAddr: 0x1D0D0, symBinAddr: 0x116680, symSize: 0x2D0 }
  - { offset: 0x753C60, size: 0x8, addend: 0x0, symName: __ZN20llm_tokenizer_plamo25buildERK11llama_vocab.cold.1, symObjAddr: 0x1DA00, symBinAddr: 0x2B4CD0, symSize: 0x4C }
  - { offset: 0x753FB1, size: 0x8, addend: 0x0, symName: __ZN20llm_tokenizer_plamo2D1Ev, symObjAddr: 0x19790, symBinAddr: 0x113110, symSize: 0x10 }
  - { offset: 0x753FE7, size: 0x8, addend: 0x0, symName: __ZN20llm_tokenizer_plamo2D2Ev, symObjAddr: 0x1D400, symBinAddr: 0x1169B0, symSize: 0x110 }
  - { offset: 0x7548EB, size: 0x8, addend: 0x0, symName: __ZN20llm_tokenizer_plamo2D0Ev, symObjAddr: 0x197A0, symBinAddr: 0x113120, symSize: 0x20 }
  - { offset: 0x754F5B, size: 0x8, addend: 0x0, symName: __ZNSt3__112__hash_tableINS_17__hash_value_typeINS_12basic_stringIcNS_11char_traitsIcEENS_9allocatorIcEEEEfEENS_22__unordered_map_hasherIS7_S8_NS_4hashIS7_EENS_8equal_toIS7_EELb1EEENS_21__unordered_map_equalIS7_S8_SD_SB_Lb1EEENS5_IS8_EEE11__do_rehashILb1EEEvm, symObjAddr: 0x1A190, symBinAddr: 0x113740, symSize: 0x1B0 }
  - { offset: 0x755317, size: 0x8, addend: 0x0, symName: __ZNSt3__110unique_ptrINS_11__hash_nodeINS_17__hash_value_typeINS_12basic_stringIcNS_11char_traitsIcEENS_9allocatorIcEEEEfEEPvEENS_22__hash_node_destructorINS6_ISB_EEEEED1B8ne200100Ev, symObjAddr: 0x1A140, symBinAddr: 0x1136F0, symSize: 0x50 }
  - { offset: 0x755762, size: 0x8, addend: 0x0, symName: __ZZN20llm_tokenizer_plamo25buildERK11llama_vocabENKUlRKNSt3__112basic_stringIcNS3_11char_traitsIcEENS3_9allocatorIcEEEESB_E_clESB_SB_, symObjAddr: 0x1B280, symBinAddr: 0x114830, symSize: 0x440 }
  - { offset: 0x7569E5, size: 0x8, addend: 0x0, symName: __ZNSt3__112__hash_tableINS_17__hash_value_typeIxiEENS_22__unordered_map_hasherIxS2_NS_4hashIxEENS_8equal_toIxEELb1EEENS_21__unordered_map_equalIxS2_S7_S5_Lb1EEENS_9allocatorIS2_EEE11__do_rehashILb1EEEvm, symObjAddr: 0x1CF20, symBinAddr: 0x1164D0, symSize: 0x1B0 }
  - { offset: 0x757055, size: 0x8, addend: 0x0, symName: __ZNSt3__114__split_bufferINS_6vectorIiNS_9allocatorIiEEEERNS2_IS4_EEED1Ev, symObjAddr: 0x1D3A0, symBinAddr: 0x116950, symSize: 0x60 }
  - { offset: 0x75954B, size: 0x8, addend: 0x0, symName: _llama_split_path, symObjAddr: 0x4D20, symBinAddr: 0x11BAE0, symSize: 0x50 }
  - { offset: 0x759609, size: 0x8, addend: 0x0, symName: _llama_print_system_info, symObjAddr: 0x5060, symBinAddr: 0x11BE20, symSize: 0x170 }
  - { offset: 0x759631, size: 0x8, addend: 0x0, symName: __ZZ23llama_print_system_infoE1s, symObjAddr: 0x187AA8, symBinAddr: 0x3AF1C0, symSize: 0x0 }
  - { offset: 0x7874B0, size: 0x8, addend: 0x0, symName: __ZZL21llama_params_fit_implPKcP18llama_model_paramsP20llama_context_paramsPfP32llama_model_tensor_buft_overridePmj14ggml_log_levelE15pattern_moe_all, symObjAddr: 0x187AC8, symBinAddr: 0x3AF1E0, symSize: 0x0 }
  - { offset: 0x787754, size: 0x8, addend: 0x0, symName: __ZL28llama_get_device_memory_dataPKcPK18llama_model_paramsPK20llama_context_paramsRNSt3__16vectorIP19ggml_backend_deviceNS7_9allocatorISA_EEEERjSF_SF_14ggml_log_level, symObjAddr: 0x51D0, symBinAddr: 0x11BF90, symSize: 0x590 }
  - { offset: 0x789AAE, size: 0x8, addend: 0x0, symName: _llama_flash_attn_type_name, symObjAddr: 0x0, symBinAddr: 0x116ED0, symSize: 0x40 }
  - { offset: 0x78C292, size: 0x8, addend: 0x0, symName: _llama_params_fit, symObjAddr: 0x40, symBinAddr: 0x116F10, symSize: 0x3260 }
  - { offset: 0x7947BC, size: 0x8, addend: 0x0, symName: __ZN26llama_params_fit_exceptionD0Ev, symObjAddr: 0x6E90, symBinAddr: 0x11D8C0, symSize: 0x20 }
  - { offset: 0x7947D4, size: 0x8, addend: 0x0, symName: '__ZZL21llama_params_fit_implPKcP18llama_model_paramsP20llama_context_paramsPfP32llama_model_tensor_buft_overridePmj14ggml_log_levelENK3$_2clES0_RKNSt3__16vectorIZL21llama_params_fit_implS0_S2_S4_S5_S7_S8_jS9_E5ngl_tNSB_9allocatorISD_EEEERKNSC_IP24ggml_backend_buffer_typeNSE_ISK_EEEE', symObjAddr: 0x5770, symBinAddr: 0x11C530, symSize: 0x390 }
  - { offset: 0x795255, size: 0x8, addend: 0x0, symName: __ZNSt3__16vectorIZL21llama_params_fit_implPKcP18llama_model_paramsP20llama_context_paramsPfP32llama_model_tensor_buft_overridePmj14ggml_log_levelE5ngl_tNS_9allocatorISC_EEEaSB8ne200100ERKSF_, symObjAddr: 0x5B00, symBinAddr: 0x11C8C0, symSize: 0x170 }
  - { offset: 0x795C42, size: 0x8, addend: 0x0, symName: __ZNSt3__16vectorIxNS_9allocatorIxEEE18__assign_with_sizeB8ne200100IPxS5_EEvT_T0_l, symObjAddr: 0x6ED0, symBinAddr: 0x11D8F0, symSize: 0x140 }
  - { offset: 0x796677, size: 0x8, addend: 0x0, symName: __ZNSt3__15arrayINS_12basic_stringIcNS_11char_traitsIcEENS_9allocatorIcEEEELm1000EED1Ev, symObjAddr: 0x7010, symBinAddr: 0x11DA30, symSize: 0x40 }
  - { offset: 0x7966A5, size: 0x8, addend: 0x0, symName: '__ZZL21llama_params_fit_implPKcP18llama_model_paramsP20llama_context_paramsPfP32llama_model_tensor_buft_overridePmj14ggml_log_levelENK3$_1clERKNSt3__16vectorIZL21llama_params_fit_implS0_S2_S4_S5_S7_S8_jS9_E5ngl_tNSB_9allocatorISD_EEEERKNSC_IP24ggml_backend_buffer_typeNSE_ISK_EEEERS1_', symObjAddr: 0x5C70, symBinAddr: 0x11CA30, symSize: 0xD10 }
  - { offset: 0x79832D, size: 0x8, addend: 0x0, symName: __ZNSt3__16vectorIP24ggml_backend_buffer_typeNS_9allocatorIS2_EEE18__assign_with_sizeB8ne200100IPS2_S7_EEvT_T0_l, symObjAddr: 0x7050, symBinAddr: 0x11DA70, symSize: 0x140 }
  - { offset: 0x798D62, size: 0x8, addend: 0x0, symName: '__ZZL31llama_model_load_from_file_implRKNSt3__112basic_stringIcNS_11char_traitsIcEENS_9allocatorIcEEEERNS_6vectorIS5_NS3_IS5_EEEE18llama_model_paramsEN3$_18__invokeEfPv', symObjAddr: 0x7190, symBinAddr: 0x11DBB0, symSize: 0xA0 }
  - { offset: 0x798D7F, size: 0x8, addend: 0x0, symName: __ZNSt3__16vectorIZL21llama_params_fit_implPKcP18llama_model_paramsP20llama_context_paramsPfP32llama_model_tensor_buft_overridePmj14ggml_log_levelE5ngl_tNS_9allocatorISC_EEE20__throw_length_errorB8ne200100Ev, symObjAddr: 0x6EC0, symBinAddr: 0x11D8E0, symSize: 0x10 }
  - { offset: 0x798D97, size: 0x8, addend: 0x0, symName: __ZNSt3__16vectorIxNS_9allocatorIxEEE18__assign_with_sizeB8ne200100IPxS5_EEvT_T0_l, symObjAddr: 0x6ED0, symBinAddr: 0x11D8F0, symSize: 0x140 }
  - { offset: 0x798DAC, size: 0x8, addend: 0x0, symName: __ZNSt3__16vectorIZL21llama_params_fit_implPKcP18llama_model_paramsP20llama_context_paramsPfP32llama_model_tensor_buft_overridePmj14ggml_log_levelE5ngl_tNS_9allocatorISC_EEE20__throw_length_errorB8ne200100Ev, symObjAddr: 0x6EC0, symBinAddr: 0x11D8E0, symSize: 0x10 }
  - { offset: 0x7990E6, size: 0x8, addend: 0x0, symName: _llama_time_us, symObjAddr: 0x32A0, symBinAddr: 0x11A170, symSize: 0x10 }
  - { offset: 0x799109, size: 0x8, addend: 0x0, symName: _llama_sampler_chain_default_params, symObjAddr: 0x32C0, symBinAddr: 0x11A180, symSize: 0x10 }
  - { offset: 0x799133, size: 0x8, addend: 0x0, symName: _llama_max_devices, symObjAddr: 0x32D0, symBinAddr: 0x11A190, symSize: 0x10 }
  - { offset: 0x79914E, size: 0x8, addend: 0x0, symName: _llama_max_tensor_buft_overrides, symObjAddr: 0x32E0, symBinAddr: 0x11A1A0, symSize: 0x10 }
  - { offset: 0x799169, size: 0x8, addend: 0x0, symName: _llama_supports_mmap, symObjAddr: 0x32F0, symBinAddr: 0x11A1B0, symSize: 0x10 }
  - { offset: 0x799184, size: 0x8, addend: 0x0, symName: _llama_supports_mlock, symObjAddr: 0x3300, symBinAddr: 0x11A1C0, symSize: 0x10 }
  - { offset: 0x7991AD, size: 0x8, addend: 0x0, symName: _llama_supports_gpu_offload, symObjAddr: 0x3310, symBinAddr: 0x11A1D0, symSize: 0x50 }
  - { offset: 0x799236, size: 0x8, addend: 0x0, symName: _llama_supports_rpc, symObjAddr: 0x3360, symBinAddr: 0x11A220, symSize: 0x20 }
  - { offset: 0x799259, size: 0x8, addend: 0x0, symName: _llama_backend_init, symObjAddr: 0x3380, symBinAddr: 0x11A240, symSize: 0x40 }
  - { offset: 0x7992F0, size: 0x8, addend: 0x0, symName: _llama_numa_init, symObjAddr: 0x33C0, symBinAddr: 0x11A280, symSize: 0x70 }
  - { offset: 0x7993C7, size: 0x8, addend: 0x0, symName: _llama_backend_free, symObjAddr: 0x3430, symBinAddr: 0x11A2F0, symSize: 0x10 }
  - { offset: 0x7993F6, size: 0x8, addend: 0x0, symName: _llama_load_model_from_file, symObjAddr: 0x3440, symBinAddr: 0x11A300, symSize: 0x10 }
  - { offset: 0x799447, size: 0x8, addend: 0x0, symName: _llama_model_load_from_file, symObjAddr: 0x3450, symBinAddr: 0x11A310, symSize: 0x180 }
  - { offset: 0x799C72, size: 0x8, addend: 0x0, symName: __ZL31llama_model_load_from_file_implRKNSt3__112basic_stringIcNS_11char_traitsIcEENS_9allocatorIcEEEERNS_6vectorIS5_NS3_IS5_EEEE18llama_model_params, symObjAddr: 0x35D0, symBinAddr: 0x11A490, symSize: 0xED0 }
  - { offset: 0x7A1A0A, size: 0x8, addend: 0x0, symName: __ZNSt3__16vectorIP19ggml_backend_deviceNS_9allocatorIS2_EEE18__insert_with_sizeB8ne200100INS_11__wrap_iterIPS2_EES9_EES9_NS7_IPKS2_EET_T0_l, symObjAddr: 0x72C0, symBinAddr: 0x11DC50, symSize: 0x450 }
  - { offset: 0x7A2E88, size: 0x8, addend: 0x0, symName: __ZNSt3__16vectorIP19ggml_backend_deviceNS_9allocatorIS2_EEE20__throw_length_errorB8ne200100Ev, symObjAddr: 0x6BB0, symBinAddr: 0x11D8B0, symSize: 0x10 }
  - { offset: 0x7A30A3, size: 0x8, addend: 0x0, symName: _llama_model_load_from_splits, symObjAddr: 0x45A0, symBinAddr: 0x11B360, symSize: 0x340 }
  - { offset: 0x7A3E47, size: 0x8, addend: 0x0, symName: _llama_model_save_to_file, symObjAddr: 0x48E0, symBinAddr: 0x11B6A0, symSize: 0x130 }
  - { offset: 0x7A4724, size: 0x8, addend: 0x0, symName: _llama_chat_apply_template, symObjAddr: 0x4A10, symBinAddr: 0x11B7D0, symSize: 0x310 }
  - { offset: 0x7A5504, size: 0x8, addend: 0x0, symName: __ZNSt3__16vectorIPK18llama_chat_messageNS_9allocatorIS3_EEE20__throw_length_errorB8ne200100Ev, symObjAddr: 0x7950, symBinAddr: 0x11E0A0, symSize: 0x10 }
  - { offset: 0x7A551C, size: 0x8, addend: 0x0, symName: _llama_print_system_info.cold.1, symObjAddr: 0x7960, symBinAddr: 0x2B4D20, symSize: 0x50 }
  - { offset: 0x7A5581, size: 0x8, addend: 0x0, symName: _llama_split_prefix, symObjAddr: 0x4D70, symBinAddr: 0x11BB30, symSize: 0x2F0 }
  - { offset: 0x7A6203, size: 0x8, addend: 0x0, symName: _llama_print_system_info.cold.1, symObjAddr: 0x7960, symBinAddr: 0x2B4D20, symSize: 0x50 }
  - { offset: 0x7A66FE, size: 0x8, addend: 0x0, symName: __ZNSt3__16vectorIP19ggml_backend_deviceNS_9allocatorIS2_EEE18__assign_with_sizeB8ne200100IPS2_S7_EEvT_T0_l, symObjAddr: 0x6A70, symBinAddr: 0x11D770, symSize: 0x140 }
  - { offset: 0x7A7133, size: 0x8, addend: 0x0, symName: __ZNSt3__16vectorIP19ggml_backend_deviceNS_9allocatorIS2_EEE20__throw_length_errorB8ne200100Ev, symObjAddr: 0x6BB0, symBinAddr: 0x11D8B0, symSize: 0x10 }
  - { offset: 0x7A723E, size: 0x8, addend: 0x0, symName: __ZNSt3__16vectorI24llama_device_memory_dataNS_9allocatorIS1_EEE20__throw_length_errorB8ne200100Ev, symObjAddr: 0x69A0, symBinAddr: 0x11D760, symSize: 0x10 }
  - { offset: 0x7A727D, size: 0x8, addend: 0x0, symName: __ZN26llama_params_fit_exceptionD1Ev, symObjAddr: 0x5760, symBinAddr: 0x11C520, symSize: 0x10 }
  - { offset: 0x7A7548, size: 0x8, addend: 0x0, symName: '__ZZL21llama_params_fit_implPKcP18llama_model_paramsP20llama_context_paramsPfP32llama_model_tensor_buft_overridePmj14ggml_log_levelENK3$_1clERKNSt3__16vectorIZL21llama_params_fit_implS0_S2_S4_S5_S7_S8_jS9_E5ngl_tNSB_9allocatorISD_EEEERKNSC_IP24ggml_backend_buffer_typeNSE_ISK_EEEERS1_.cold.2', symObjAddr: 0x7A10, symBinAddr: 0x2B4DD0, symSize: 0x60 }
  - { offset: 0x7A75DE, size: 0x8, addend: 0x0, symName: '__ZZL21llama_params_fit_implPKcP18llama_model_paramsP20llama_context_paramsPfP32llama_model_tensor_buft_overridePmj14ggml_log_levelENK3$_1clERKNSt3__16vectorIZL21llama_params_fit_implS0_S2_S4_S5_S7_S8_jS9_E5ngl_tNSB_9allocatorISD_EEEERKNSC_IP24ggml_backend_buffer_typeNSE_ISK_EEEERS1_.cold.1', symObjAddr: 0x79B0, symBinAddr: 0x2B4D70, symSize: 0x60 }
  - { offset: 0x7A7674, size: 0x8, addend: 0x0, symName: '__ZZL21llama_params_fit_implPKcP18llama_model_paramsP20llama_context_paramsPfP32llama_model_tensor_buft_overridePmj14ggml_log_levelENK3$_1clERKNSt3__16vectorIZL21llama_params_fit_implS0_S2_S4_S5_S7_S8_jS9_E5ngl_tNSB_9allocatorISD_EEEERKNSC_IP24ggml_backend_buffer_typeNSE_ISK_EEEERS1_.cold.4', symObjAddr: 0x7AD0, symBinAddr: 0x2B4E90, symSize: 0x55 }
  - { offset: 0x7A770A, size: 0x8, addend: 0x0, symName: '__ZZL21llama_params_fit_implPKcP18llama_model_paramsP20llama_context_paramsPfP32llama_model_tensor_buft_overridePmj14ggml_log_levelENK3$_1clERKNSt3__16vectorIZL21llama_params_fit_implS0_S2_S4_S5_S7_S8_jS9_E5ngl_tNSB_9allocatorISD_EEEERKNSC_IP24ggml_backend_buffer_typeNSE_ISK_EEEERS1_.cold.3', symObjAddr: 0x7A70, symBinAddr: 0x2B4E30, symSize: 0x60 }
  - { offset: 0x7A7807, size: 0x8, addend: 0x0, symName: '__ZZL28llama_get_device_memory_dataPKcPK18llama_model_paramsPK20llama_context_paramsRNSt3__16vectorIP19ggml_backend_deviceNS7_9allocatorISA_EEEERjSF_SF_14ggml_log_levelEN3$_08__invokeESG_S0_Pv', symObjAddr: 0x6980, symBinAddr: 0x11D740, symSize: 0x20 }
  - { offset: 0x7A7CAB, size: 0x8, addend: 0x0, symName: __ZN26llama_params_fit_exceptionD0Ev, symObjAddr: 0x6E90, symBinAddr: 0x11D8C0, symSize: 0x20 }
  - { offset: 0x7A7E8C, size: 0x8, addend: 0x0, symName: __ZNSt3__15arrayINS_12basic_stringIcNS_11char_traitsIcEENS_9allocatorIcEEEELm1000EED1Ev, symObjAddr: 0x7010, symBinAddr: 0x11DA30, symSize: 0x40 }
  - { offset: 0x7A80F6, size: 0x8, addend: 0x0, symName: '__ZZL31llama_model_load_from_file_implRKNSt3__112basic_stringIcNS_11char_traitsIcEENS_9allocatorIcEEEERNS_6vectorIS5_NS3_IS5_EEEE18llama_model_paramsEN3$_18__invokeEfPv', symObjAddr: 0x7190, symBinAddr: 0x11DBB0, symSize: 0xA0 }
  - { offset: 0x7AB3B5, size: 0x8, addend: 0x0, symName: __ZN15llm_build_afmoeC2ERK11llama_modelRK16llm_graph_params, symObjAddr: 0x0, symBinAddr: 0x11E0B0, symSize: 0x9C0 }
  - { offset: 0x7CAAAA, size: 0x8, addend: 0x0, symName: __ZN15llm_build_afmoeC2ERK11llama_modelRK16llm_graph_params, symObjAddr: 0x0, symBinAddr: 0x11E0B0, symSize: 0x9C0 }
  - { offset: 0x7CB269, size: 0x8, addend: 0x0, symName: __ZN15llm_build_afmoeC1ERK11llama_modelRK16llm_graph_params, symObjAddr: 0x9C0, symBinAddr: 0x11EA70, symSize: 0x10 }
  - { offset: 0x7CB2F6, size: 0x8, addend: 0x0, symName: __ZN15llm_build_afmoeD1Ev, symObjAddr: 0x9D0, symBinAddr: 0x11EA80, symSize: 0x30 }
  - { offset: 0x7CB3EF, size: 0x8, addend: 0x0, symName: __ZN15llm_build_afmoeD0Ev, symObjAddr: 0xA00, symBinAddr: 0x11EAB0, symSize: 0x40 }
  - { offset: 0x7CD457, size: 0x8, addend: 0x0, symName: __ZN17llm_build_apertusC2ERK11llama_modelRK16llm_graph_params, symObjAddr: 0x0, symBinAddr: 0x11EAF0, symSize: 0x720 }
