---
triple:          'x86_64-apple-darwin'
binary-path:     '/opt/UnitySrc/personal/ocs-test/llama_dart/src/native/llama_cpp/build-visionos-sim/framework/llama.framework/llama'
relocations:
  - { offset: 0x25BBC, size: 0x8, addend: 0x0, symName: __ZNSt3__127__tree_balance_after_insertB8ne200100IPNS_16__tree_node_baseIPvEEEEvT_S5_, symObjAddr: 0x3650, symBinAddr: 0x4100, symSize: 0x180 }
  - { offset: 0x26EB7, size: 0x8, addend: 0x0, symName: __ZNSt3__120__throw_length_errorB8ne200100EPKc, symObjAddr: 0x37E0, symBinAddr: 0x4290, symSize: 0x50 }
  - { offset: 0x274BE, size: 0x8, addend: 0x0, symName: __ZNSt3__120__throw_out_of_rangeB8ne200100EPKc, symObjAddr: 0x4920, symBinAddr: 0x53D0, symSize: 0x50 }
  - { offset: 0x28EE1, size: 0x8, addend: 0x0, symName: __ZSt28__throw_bad_array_new_lengthB8ne200100v, symObjAddr: 0x3610, symBinAddr: 0x40C0, symSize: 0x40 }
  - { offset: 0x303C3, size: 0x8, addend: 0x0, symName: __ZNK18llama_adapter_cvec10tensor_forEi, symObjAddr: 0x0, symBinAddr: 0xAB0, symSize: 0x30 }
  - { offset: 0x3042B, size: 0x8, addend: 0x0, symName: __ZNK18llama_adapter_cvec8apply_toEP12ggml_contextP11ggml_tensori, symObjAddr: 0x30, symBinAddr: 0xAE0, symSize: 0x50 }
  - { offset: 0x30AF2, size: 0x8, addend: 0x0, symName: __ZN18llama_adapter_cvec4initERK11llama_model, symObjAddr: 0x80, symBinAddr: 0xB30, symSize: 0x7F0 }
  - { offset: 0x33A2B, size: 0x8, addend: 0x0, symName: __ZNSt3__16__treeINS_12__value_typeIP24ggml_backend_buffer_typeP12ggml_contextEENS_19__map_value_compareIS3_S6_NS_4lessIS3_EELb1EEENS_9allocatorIS6_EEE7destroyEPNS_11__tree_nodeIS6_PvEE, symObjAddr: 0x5E90, symBinAddr: 0x6940, symSize: 0x40 }
  - { offset: 0x33B42, size: 0x8, addend: 0x0, symName: __ZNSt3__16vectorINS_10unique_ptrI19ggml_backend_buffer27ggml_backend_buffer_deleterEENS_9allocatorIS4_EEE20__throw_length_errorB8ne200100Ev, symObjAddr: 0x5670, symBinAddr: 0x6120, symSize: 0x10 }
  - { offset: 0x33B5A, size: 0x8, addend: 0x0, symName: __ZNSt3__16vectorIhNS_9allocatorIhEEE20__throw_length_errorB8ne200100Ev, symObjAddr: 0x5680, symBinAddr: 0x6130, symSize: 0x10 }
  - { offset: 0x33B65, size: 0x8, addend: 0x0, symName: __ZNSt3__16vectorIP11ggml_tensorNS_9allocatorIS2_EEE20__throw_length_errorB8ne200100Ev, symObjAddr: 0x5ED0, symBinAddr: 0x6980, symSize: 0x10 }
  - { offset: 0x33B7D, size: 0x8, addend: 0x0, symName: __ZNSt3__112__hash_tableINS_17__hash_value_typeINS_12basic_stringIcNS_11char_traitsIcEENS_9allocatorIcEEEE25llama_adapter_lora_weightEENS_22__unordered_map_hasherIS7_S9_NS_4hashIS7_EENS_8equal_toIS7_EELb1EEENS_21__unordered_map_equalIS7_S9_SE_SC_Lb1EEENS5_IS9_EEE4findIS7_EENS_15__hash_iteratorIPNS_11__hash_nodeIS9_PvEEEERKT_, symObjAddr: 0x5EE0, symBinAddr: 0x6990, symSize: 0x290 }
  - { offset: 0x33B88, size: 0x8, addend: 0x0, symName: __ZNSt3__16vectorINS_10unique_ptrI12ggml_context20ggml_context_deleterEENS_9allocatorIS4_EEE20__throw_length_errorB8ne200100Ev, symObjAddr: 0x37D0, symBinAddr: 0x4280, symSize: 0x10 }
  - { offset: 0x33BA0, size: 0x8, addend: 0x0, symName: __ZNSt3__120__throw_length_errorB8ne200100EPKc, symObjAddr: 0x37E0, symBinAddr: 0x4290, symSize: 0x50 }
  - { offset: 0x33BE7, size: 0x8, addend: 0x0, symName: __ZN18llama_adapter_cvec5applyERK11llama_modelPKfmiii, symObjAddr: 0x870, symBinAddr: 0x1320, symSize: 0x130 }
  - { offset: 0x3408F, size: 0x8, addend: 0x0, symName: __ZN18llama_adapter_lora10get_weightEP11ggml_tensor, symObjAddr: 0x9A0, symBinAddr: 0x1450, symSize: 0x100 }
  - { offset: 0x3465F, size: 0x8, addend: 0x0, symName: __ZNSt3__112__hash_tableINS_17__hash_value_typeINS_12basic_stringIcNS_11char_traitsIcEENS_9allocatorIcEEEE25llama_adapter_lora_weightEENS_22__unordered_map_hasherIS7_S9_NS_4hashIS7_EENS_8equal_toIS7_EELb1EEENS_21__unordered_map_equalIS7_S9_SE_SC_Lb1EEENS5_IS9_EEE4findIS7_EENS_15__hash_iteratorIPNS_11__hash_nodeIS9_PvEEEERKT_, symObjAddr: 0x5EE0, symBinAddr: 0x6990, symSize: 0x290 }
  - { offset: 0x3495D, size: 0x8, addend: 0x0, symName: __ZNSt3__112basic_stringIcNS_11char_traitsIcEENS_9allocatorIcEEE20__throw_length_errorB8ne200100Ev, symObjAddr: 0x49A0, symBinAddr: 0x5450, symSize: 0x10 }
  - { offset: 0x34975, size: 0x8, addend: 0x0, symName: __ZNSt3__112basic_stringIcNS_11char_traitsIcEENS_9allocatorIcEEE25__init_copy_ctor_externalEPKcm, symObjAddr: 0x49B0, symBinAddr: 0x5460, symSize: 0x80 }
  - { offset: 0x34980, size: 0x8, addend: 0x0, symName: __ZNSt3__112basic_stringIcNS_11char_traitsIcEENS_9allocatorIcEEEC1B8ne200100ILi0EEEPKc, symObjAddr: 0xAA0, symBinAddr: 0x1550, symSize: 0x90 }
  - { offset: 0x34E2C, size: 0x8, addend: 0x0, symName: _llama_adapter_lora_init, symObjAddr: 0xB30, symBinAddr: 0x15E0, symSize: 0x100 }
  - { offset: 0x350D6, size: 0x8, addend: 0x0, symName: __ZL28llama_adapter_lora_init_implR11llama_modelPKcR18llama_adapter_lora, symObjAddr: 0xC30, symBinAddr: 0x16E0, symSize: 0x26B0 }
  - { offset: 0x3D69B, size: 0x8, addend: 0x0, symName: __ZN18llama_adapter_loraD2Ev, symObjAddr: 0x5D00, symBinAddr: 0x67B0, symSize: 0x190 }
  - { offset: 0x3F6E5, size: 0x8, addend: 0x0, symName: __ZNSt3__112__hash_tableINS_17__hash_value_typeINS_12basic_stringIcNS_11char_traitsIcEENS_9allocatorIcEEEES7_EENS_22__unordered_map_hasherIS7_S8_NS_4hashIS7_EENS_8equal_toIS7_EELb1EEENS_21__unordered_map_equalIS7_S8_SD_SB_Lb1EEENS5_IS8_EEE21__emplace_unique_implIJRPKcRKS7_EEENS_4pairINS_15__hash_iteratorIPNS_11__hash_nodeIS8_PvEEEEbEEDpOT_, symObjAddr: 0x3A80, symBinAddr: 0x4530, symSize: 0x110 }
  - { offset: 0x3FED4, size: 0x8, addend: 0x0, symName: __ZNSt3__112basic_stringIcNS_11char_traitsIcEENS_9allocatorIcEEE25__init_copy_ctor_externalEPKcm, symObjAddr: 0x49B0, symBinAddr: 0x5460, symSize: 0x80 }
  - { offset: 0x401A1, size: 0x8, addend: 0x0, symName: __ZNSt3__16vectorIiNS_9allocatorIiEEE8__appendEm, symObjAddr: 0x4A30, symBinAddr: 0x54E0, symSize: 0x150 }
  - { offset: 0x40623, size: 0x8, addend: 0x0, symName: __ZNSt3__16__treeINS_12__value_typeINS_12basic_stringIcNS_11char_traitsIcEENS_9allocatorIcEEEE25llama_adapter_lora_weightEENS_19__map_value_compareIS7_S9_NS_4lessIS7_EELb1EEENS5_IS9_EEE4findIS7_EENS_15__tree_iteratorIS9_PNS_11__tree_nodeIS9_PvEElEERKT_, symObjAddr: 0x4B90, symBinAddr: 0x5640, symSize: 0x110 }
  - { offset: 0x40987, size: 0x8, addend: 0x0, symName: __ZNSt3__16__treeINS_12__value_typeINS_12basic_stringIcNS_11char_traitsIcEENS_9allocatorIcEEEE25llama_adapter_lora_weightEENS_19__map_value_compareIS7_S9_NS_4lessIS7_EELb1EEENS5_IS9_EEE25__emplace_unique_key_argsIS7_JRKNS_21piecewise_construct_tENS_5tupleIJRKS7_EEENSK_IJEEEEEENS_4pairINS_15__tree_iteratorIS9_PNS_11__tree_nodeIS9_PvEElEEbEERKT_DpOT0_, symObjAddr: 0x4CA0, symBinAddr: 0x5750, symSize: 0x1C0 }
  - { offset: 0x4117F, size: 0x8, addend: 0x0, symName: __ZNSt3__112__hash_tableINS_17__hash_value_typeINS_12basic_stringIcNS_11char_traitsIcEENS_9allocatorIcEEEE25llama_adapter_lora_weightEENS_22__unordered_map_hasherIS7_S9_NS_4hashIS7_EENS_8equal_toIS7_EELb1EEENS_21__unordered_map_equalIS7_S9_SE_SC_Lb1EEENS5_IS9_EEE25__emplace_unique_key_argsIS7_JRKNS_21piecewise_construct_tENS_5tupleIJRKS7_EEENSO_IJEEEEEENS_4pairINS_15__hash_iteratorIPNS_11__hash_nodeIS9_PvEEEEbEERKT_DpOT0_, symObjAddr: 0x4EC0, symBinAddr: 0x5970, symSize: 0x5B0 }
  - { offset: 0x41CF6, size: 0x8, addend: 0x0, symName: '__ZZL28llama_adapter_lora_init_implR11llama_modelPKcR18llama_adapter_loraENK3$_4clEP11ggml_tensorS7_', symObjAddr: 0x38C0, symBinAddr: 0x4370, symSize: 0x190 }
  - { offset: 0x422F5, size: 0x8, addend: 0x0, symName: __ZNSt3__112__hash_tableIP18llama_adapter_loraNS_4hashIS2_EENS_8equal_toIS2_EENS_9allocatorIS2_EEE25__emplace_unique_key_argsIS2_JS2_EEENS_4pairINS_15__hash_iteratorIPNS_11__hash_nodeIS2_PvEEEEbEERKT_DpOT0_, symObjAddr: 0x5690, symBinAddr: 0x6140, symSize: 0x470 }
  - { offset: 0x42A7C, size: 0x8, addend: 0x0, symName: __ZNSt3__16__treeINS_12__value_typeINS_12basic_stringIcNS_11char_traitsIcEENS_9allocatorIcEEEE25llama_adapter_lora_weightEENS_19__map_value_compareIS7_S9_NS_4lessIS7_EELb1EEENS5_IS9_EEE7destroyEPNS_11__tree_nodeIS9_PvEE, symObjAddr: 0x5CB0, symBinAddr: 0x6760, symSize: 0x50 }
  - { offset: 0x42D2C, size: 0x8, addend: 0x0, symName: __ZNSt3__112basic_stringIcNS_11char_traitsIcEENS_9allocatorIcEEE20__throw_out_of_rangeB8ne200100Ev, symObjAddr: 0x4910, symBinAddr: 0x53C0, symSize: 0x10 }
  - { offset: 0x42D44, size: 0x8, addend: 0x0, symName: __ZNSt3__120__throw_out_of_rangeB8ne200100EPKc, symObjAddr: 0x4920, symBinAddr: 0x53D0, symSize: 0x50 }
  - { offset: 0x42D4F, size: 0x8, addend: 0x0, symName: __ZNSt3__16vectorIP24ggml_backend_buffer_typeNS_9allocatorIS2_EEE20__throw_length_errorB8ne200100Ev, symObjAddr: 0x4EB0, symBinAddr: 0x5960, symSize: 0x10 }
  - { offset: 0x42D67, size: 0x8, addend: 0x0, symName: __ZNSt3__112__hash_tableINS_17__hash_value_typeINS_12basic_stringIcNS_11char_traitsIcEENS_9allocatorIcEEEE25llama_adapter_lora_weightEENS_22__unordered_map_hasherIS7_S9_NS_4hashIS7_EENS_8equal_toIS7_EELb1EEENS_21__unordered_map_equalIS7_S9_SE_SC_Lb1EEENS5_IS9_EEE25__emplace_unique_key_argsIS7_JRKNS_21piecewise_construct_tENS_5tupleIJRKS7_EEENSO_IJEEEEEENS_4pairINS_15__hash_iteratorIPNS_11__hash_nodeIS9_PvEEEEbEERKT_DpOT0_, symObjAddr: 0x4EC0, symBinAddr: 0x5970, symSize: 0x5B0 }
  - { offset: 0x42D72, size: 0x8, addend: 0x0, symName: __ZNSt3__110unique_ptrI12gguf_context20gguf_context_deleterED1B8ne200100Ev, symObjAddr: 0x3A50, symBinAddr: 0x4500, symSize: 0x30 }
  - { offset: 0x42DFF, size: 0x8, addend: 0x0, symName: __ZNSt3__110unique_ptrI19ggml_backend_buffer27ggml_backend_buffer_deleterED1B8ne200100Ev, symObjAddr: 0x3890, symBinAddr: 0x4340, symSize: 0x30 }
  - { offset: 0x42E8C, size: 0x8, addend: 0x0, symName: __ZNSt3__110unique_ptrI12ggml_context20ggml_context_deleterED1B8ne200100Ev, symObjAddr: 0x3860, symBinAddr: 0x4310, symSize: 0x30 }
  - { offset: 0x42F4D, size: 0x8, addend: 0x0, symName: _llama_adapter_meta_val_str, symObjAddr: 0x32F0, symBinAddr: 0x3DA0, symSize: 0x130 }
  - { offset: 0x435C8, size: 0x8, addend: 0x0, symName: __ZNKSt3__112__hash_tableINS_17__hash_value_typeINS_12basic_stringIcNS_11char_traitsIcEENS_9allocatorIcEEEES7_EENS_22__unordered_map_hasherIS7_S8_NS_4hashIS7_EENS_8equal_toIS7_EELb1EEENS_21__unordered_map_equalIS7_S8_SD_SB_Lb1EEENS5_IS8_EEE4findIS7_EENS_21__hash_const_iteratorIPNS_11__hash_nodeIS8_PvEEEERKT_, symObjAddr: 0x6170, symBinAddr: 0x6C20, symSize: 0x289 }
  - { offset: 0x43916, size: 0x8, addend: 0x0, symName: _llama_adapter_meta_count, symObjAddr: 0x3420, symBinAddr: 0x3ED0, symSize: 0x10 }
  - { offset: 0x439E7, size: 0x8, addend: 0x0, symName: _llama_adapter_meta_key_by_index, symObjAddr: 0x3430, symBinAddr: 0x3EE0, symSize: 0xB0 }
  - { offset: 0x43B9A, size: 0x8, addend: 0x0, symName: _llama_adapter_meta_val_str_by_index, symObjAddr: 0x34E0, symBinAddr: 0x3F90, symSize: 0xB0 }
  - { offset: 0x43D4D, size: 0x8, addend: 0x0, symName: _llama_adapter_lora_free, symObjAddr: 0x3590, symBinAddr: 0x4040, symSize: 0x10 }
  - { offset: 0x43D70, size: 0x8, addend: 0x0, symName: _llama_adapter_get_alora_n_invocation_tokens, symObjAddr: 0x35A0, symBinAddr: 0x4050, symSize: 0x30 }
  - { offset: 0x43DD1, size: 0x8, addend: 0x0, symName: _llama_adapter_get_alora_invocation_tokens, symObjAddr: 0x35D0, symBinAddr: 0x4080, symSize: 0x40 }
  - { offset: 0x43E70, size: 0x8, addend: 0x0, symName: __ZNSt12length_errorC1B8ne200100EPKc, symObjAddr: 0x3830, symBinAddr: 0x42E0, symSize: 0x30 }
  - { offset: 0x443A8, size: 0x8, addend: 0x0, symName: __ZNSt3__16vectorIhNS_9allocatorIhEEE20__throw_length_errorB8ne200100Ev, symObjAddr: 0x5680, symBinAddr: 0x6130, symSize: 0x10 }
  - { offset: 0x443C0, size: 0x8, addend: 0x0, symName: __ZNSt3__112__hash_tableIP18llama_adapter_loraNS_4hashIS2_EENS_8equal_toIS2_EENS_9allocatorIS2_EEE25__emplace_unique_key_argsIS2_JS2_EEENS_4pairINS_15__hash_iteratorIPNS_11__hash_nodeIS2_PvEEEEbEERKT_DpOT0_, symObjAddr: 0x5690, symBinAddr: 0x6140, symSize: 0x470 }
  - { offset: 0x44868, size: 0x8, addend: 0x0, symName: __ZNSt3__14pairIKNS_12basic_stringIcNS_11char_traitsIcEENS_9allocatorIcEEEES6_EC2B8ne200100IRPKcRS7_Li0EEEOT_OT0_, symObjAddr: 0x3D70, symBinAddr: 0x4820, symSize: 0x100 }
  - { offset: 0x44CE4, size: 0x8, addend: 0x0, symName: __ZNKSt3__121__murmur2_or_cityhashImLm64EEclB8ne200100EPKvm, symObjAddr: 0x3E70, symBinAddr: 0x4920, symSize: 0x4B0 }
  - { offset: 0x4586C, size: 0x8, addend: 0x0, symName: __ZNSt3__112__hash_tableINS_17__hash_value_typeINS_12basic_stringIcNS_11char_traitsIcEENS_9allocatorIcEEEES7_EENS_22__unordered_map_hasherIS7_S8_NS_4hashIS7_EENS_8equal_toIS7_EELb1EEENS_21__unordered_map_equalIS7_S8_SD_SB_Lb1EEENS5_IS8_EEE20__node_insert_uniqueEPNS_11__hash_nodeIS8_PvEE, symObjAddr: 0x3B90, symBinAddr: 0x4640, symSize: 0x190 }
  - { offset: 0x45AA2, size: 0x8, addend: 0x0, symName: __ZNSt3__110unique_ptrINS_11__hash_nodeINS_17__hash_value_typeINS_12basic_stringIcNS_11char_traitsIcEENS_9allocatorIcEEEES8_EEPvEENS_22__hash_node_destructorINS6_ISB_EEEEED1B8ne200100Ev, symObjAddr: 0x3D20, symBinAddr: 0x47D0, symSize: 0x50 }
  - { offset: 0x45F1F, size: 0x8, addend: 0x0, symName: __ZNSt3__112__hash_tableINS_17__hash_value_typeINS_12basic_stringIcNS_11char_traitsIcEENS_9allocatorIcEEEES7_EENS_22__unordered_map_hasherIS7_S8_NS_4hashIS7_EENS_8equal_toIS7_EELb1EEENS_21__unordered_map_equalIS7_S8_SD_SB_Lb1EEENS5_IS8_EEE28__node_insert_unique_prepareB8ne200100EmRS8_, symObjAddr: 0x4320, symBinAddr: 0x4DD0, symSize: 0x440 }
  - { offset: 0x465E0, size: 0x8, addend: 0x0, symName: __ZNSt3__112__hash_tableINS_17__hash_value_typeINS_12basic_stringIcNS_11char_traitsIcEENS_9allocatorIcEEEES7_EENS_22__unordered_map_hasherIS7_S8_NS_4hashIS7_EENS_8equal_toIS7_EELb1EEENS_21__unordered_map_equalIS7_S8_SD_SB_Lb1EEENS5_IS8_EEE11__do_rehashILb1EEEvm, symObjAddr: 0x4760, symBinAddr: 0x5210, symSize: 0x1B0 }
  - { offset: 0x46AAC, size: 0x8, addend: 0x0, symName: __ZNSt12out_of_rangeC1B8ne200100EPKc, symObjAddr: 0x4970, symBinAddr: 0x5420, symSize: 0x30 }
  - { offset: 0x46E49, size: 0x8, addend: 0x0, symName: __ZNSt3__16vectorIiNS_9allocatorIiEEE20__throw_length_errorB8ne200100Ev, symObjAddr: 0x4B80, symBinAddr: 0x5630, symSize: 0x10 }
  - { offset: 0x46E61, size: 0x8, addend: 0x0, symName: __ZNSt3__16__treeINS_12__value_typeINS_12basic_stringIcNS_11char_traitsIcEENS_9allocatorIcEEEE25llama_adapter_lora_weightEENS_19__map_value_compareIS7_S9_NS_4lessIS7_EELb1EEENS5_IS9_EEE4findIS7_EENS_15__tree_iteratorIS9_PNS_11__tree_nodeIS9_PvEElEERKT_, symObjAddr: 0x4B90, symBinAddr: 0x5640, symSize: 0x110 }
  - { offset: 0x47416, size: 0x8, addend: 0x0, symName: __ZNSt3__110unique_ptrINS_11__tree_nodeINS_12__value_typeINS_12basic_stringIcNS_11char_traitsIcEENS_9allocatorIcEEEE25llama_adapter_lora_weightEEPvEENS_22__tree_node_destructorINS6_ISC_EEEEED1B8ne200100Ev, symObjAddr: 0x4E60, symBinAddr: 0x5910, symSize: 0x50 }
  - { offset: 0x47C3A, size: 0x8, addend: 0x0, symName: __ZNSt3__112__hash_tableINS_17__hash_value_typeINS_12basic_stringIcNS_11char_traitsIcEENS_9allocatorIcEEEE25llama_adapter_lora_weightEENS_22__unordered_map_hasherIS7_S9_NS_4hashIS7_EENS_8equal_toIS7_EELb1EEENS_21__unordered_map_equalIS7_S9_SE_SC_Lb1EEENS5_IS9_EEE11__do_rehashILb1EEEvm, symObjAddr: 0x54C0, symBinAddr: 0x5F70, symSize: 0x1B0 }
  - { offset: 0x47FF6, size: 0x8, addend: 0x0, symName: __ZNSt3__110unique_ptrINS_11__hash_nodeINS_17__hash_value_typeINS_12basic_stringIcNS_11char_traitsIcEENS_9allocatorIcEEEE25llama_adapter_lora_weightEEPvEENS_22__hash_node_destructorINS6_ISC_EEEEED1B8ne200100Ev, symObjAddr: 0x5470, symBinAddr: 0x5F20, symSize: 0x50 }
  - { offset: 0x4892B, size: 0x8, addend: 0x0, symName: __ZNSt3__112__hash_tableIP18llama_adapter_loraNS_4hashIS2_EENS_8equal_toIS2_EENS_9allocatorIS2_EEE11__do_rehashILb1EEEvm, symObjAddr: 0x5B00, symBinAddr: 0x65B0, symSize: 0x1B0 }
  - { offset: 0x4B741, size: 0x8, addend: 0x0, symName: __ZL14LLM_ARCH_NAMES, symObjAddr: 0x72EE8, symBinAddr: 0x3B6040, symSize: 0x0 }
  - { offset: 0x5AFC6, size: 0x8, addend: 0x0, symName: __ZL12LLM_KV_NAMES, symObjAddr: 0x72F00, symBinAddr: 0x3B6058, symSize: 0x0 }
  - { offset: 0x5B3EC, size: 0x8, addend: 0x0, symName: __ZL16LLM_TENSOR_NAMES, symObjAddr: 0x72F18, symBinAddr: 0x3B6070, symSize: 0x0 }
  - { offset: 0x5BCB7, size: 0x8, addend: 0x0, symName: __ZL16LLM_TENSOR_INFOS, symObjAddr: 0x72F30, symBinAddr: 0x3B6088, symSize: 0x0 }
  - { offset: 0x5C450, size: 0x8, addend: 0x0, symName: __ZNSt3__13mapI8llm_archPKcNS_4lessIS1_EENS_9allocatorINS_4pairIKS1_S3_EEEEED1B8ne200100Ev, symObjAddr: 0x0, symBinAddr: 0x6EB0, symSize: 0x10 }
  - { offset: 0x5C503, size: 0x8, addend: 0x0, symName: __ZNSt3__16__treeINS_12__value_typeI8llm_archPKcEENS_19__map_value_compareIS2_S5_NS_4lessIS2_EELb1EEENS_9allocatorIS5_EEE7destroyEPNS_11__tree_nodeIS5_PvEE, symObjAddr: 0x2BE0, symBinAddr: 0x9900, symSize: 0x40 }
  - { offset: 0x5C68E, size: 0x8, addend: 0x0, symName: __ZNSt3__13mapI6llm_kvPKcNS_4lessIS1_EENS_9allocatorINS_4pairIKS1_S3_EEEEED1B8ne200100Ev, symObjAddr: 0x10, symBinAddr: 0x6EC0, symSize: 0x10 }
  - { offset: 0x5C741, size: 0x8, addend: 0x0, symName: __ZNSt3__16__treeINS_12__value_typeI6llm_kvPKcEENS_19__map_value_compareIS2_S5_NS_4lessIS2_EELb1EEENS_9allocatorIS5_EEE7destroyEPNS_11__tree_nodeIS5_PvEE, symObjAddr: 0x2D90, symBinAddr: 0x9AB0, symSize: 0x40 }
  - { offset: 0x5C8CC, size: 0x8, addend: 0x0, symName: __ZNSt3__13mapI10llm_tensorPKcNS_4lessIS1_EENS_9allocatorINS_4pairIKS1_S3_EEEEED1B8ne200100Ev, symObjAddr: 0x20, symBinAddr: 0x6ED0, symSize: 0x10 }
  - { offset: 0x5C97F, size: 0x8, addend: 0x0, symName: __ZNSt3__16__treeINS_12__value_typeI10llm_tensorPKcEENS_19__map_value_compareIS2_S5_NS_4lessIS2_EELb1EEENS_9allocatorIS5_EEE7destroyEPNS_11__tree_nodeIS5_PvEE, symObjAddr: 0x2F40, symBinAddr: 0x9C60, symSize: 0x40 }
  - { offset: 0x5CB0A, size: 0x8, addend: 0x0, symName: __ZNSt3__13mapI10llm_tensor15llm_tensor_infoNS_4lessIS1_EENS_9allocatorINS_4pairIKS1_S2_EEEEED1B8ne200100Ev, symObjAddr: 0x30, symBinAddr: 0x6EE0, symSize: 0x10 }
  - { offset: 0x5CBBD, size: 0x8, addend: 0x0, symName: __ZNSt3__16__treeINS_12__value_typeI10llm_tensor15llm_tensor_infoEENS_19__map_value_compareIS2_S4_NS_4lessIS2_EELb1EEENS_9allocatorIS4_EEE7destroyEPNS_11__tree_nodeIS4_PvEE, symObjAddr: 0x30F0, symBinAddr: 0x9E10, symSize: 0x40 }
  - { offset: 0x5CCD9, size: 0x8, addend: 0x0, symName: __ZN6LLM_KVC2E8llm_archPKc, symObjAddr: 0x40, symBinAddr: 0x6EF0, symSize: 0x10 }
  - { offset: 0x5CD42, size: 0x8, addend: 0x0, symName: __ZN6LLM_KVC1E8llm_archPKc, symObjAddr: 0x50, symBinAddr: 0x6F00, symSize: 0x10 }
  - { offset: 0x5D10E, size: 0x8, addend: 0x0, symName: __ZNK6LLM_KVclE6llm_kv, symObjAddr: 0x60, symBinAddr: 0x6F10, symSize: 0xE0 }
  - { offset: 0x5D6E5, size: 0x8, addend: 0x0, symName: __ZN11LLM_TN_IMPLC2E8llm_arch10llm_tensorPKcii, symObjAddr: 0x140, symBinAddr: 0x6FF0, symSize: 0x2090 }
  - { offset: 0x5E77B, size: 0x8, addend: 0x0, symName: __ZNSt3__13setI10llm_tensorNS_4lessIS1_EENS_9allocatorIS1_EEE6insertB8ne200100IPKS1_EEvT_SA_, symObjAddr: 0x2760, symBinAddr: 0x9610, symSize: 0x140 }
  - { offset: 0x5E7C1, size: 0x8, addend: 0x0, symName: __ZNSt3__13setI10llm_tensorNS_4lessIS1_EENS_9allocatorIS1_EEE6insertB8ne200100IPKS1_EEvT_SA_, symObjAddr: 0x2760, symBinAddr: 0x9610, symSize: 0x140 }
  - { offset: 0x5EB58, size: 0x8, addend: 0x0, symName: __ZNSt3__13setI10llm_tensorNS_4lessIS1_EENS_9allocatorIS1_EEEC1B8ne200100ESt16initializer_listIS1_ERKS3_, symObjAddr: 0x2720, symBinAddr: 0x95D0, symSize: 0x40 }
  - { offset: 0x5ECB3, size: 0x8, addend: 0x0, symName: __ZNSt3__16__treeI10llm_tensorNS_4lessIS1_EENS_9allocatorIS1_EEE7destroyEPNS_11__tree_nodeIS1_PvEE, symObjAddr: 0x2A30, symBinAddr: 0x9750, symSize: 0x40 }
  - { offset: 0x5EDCA, size: 0x8, addend: 0x0, symName: __ZN11LLM_TN_IMPLC1E8llm_arch10llm_tensorPKcii, symObjAddr: 0x21D0, symBinAddr: 0x9080, symSize: 0x10 }
  - { offset: 0x5F329, size: 0x8, addend: 0x0, symName: __ZNK11LLM_TN_IMPL3strEv, symObjAddr: 0x21E0, symBinAddr: 0x9090, symSize: 0x210 }
  - { offset: 0x5FC78, size: 0x8, addend: 0x0, symName: __Z13llm_arch_name8llm_arch, symObjAddr: 0x23F0, symBinAddr: 0x92A0, symSize: 0x50 }
  - { offset: 0x5FCB9, size: 0x8, addend: 0x0, symName: __Z13llm_arch_name8llm_arch, symObjAddr: 0x23F0, symBinAddr: 0x92A0, symSize: 0x50 }
  - { offset: 0x5FCCE, size: 0x8, addend: 0x0, symName: __Z13llm_arch_name8llm_arch, symObjAddr: 0x23F0, symBinAddr: 0x92A0, symSize: 0x50 }
  - { offset: 0x5FCEC, size: 0x8, addend: 0x0, symName: __Z13llm_arch_name8llm_arch, symObjAddr: 0x23F0, symBinAddr: 0x92A0, symSize: 0x50 }
  - { offset: 0x5FEE3, size: 0x8, addend: 0x0, symName: __Z20llm_arch_from_stringRKNSt3__112basic_stringIcNS_11char_traitsIcEENS_9allocatorIcEEEE, symObjAddr: 0x2440, symBinAddr: 0x92F0, symSize: 0x100 }
  - { offset: 0x6027B, size: 0x8, addend: 0x0, symName: __Z19llm_tensor_info_for10llm_tensor, symObjAddr: 0x2540, symBinAddr: 0x93F0, symSize: 0x50 }
  - { offset: 0x60367, size: 0x8, addend: 0x0, symName: __Z21llm_arch_is_recurrentRK8llm_arch, symObjAddr: 0x2590, symBinAddr: 0x9440, symSize: 0x20 }
  - { offset: 0x60396, size: 0x8, addend: 0x0, symName: __Z18llm_arch_is_hybridRK8llm_arch, symObjAddr: 0x25B0, symBinAddr: 0x9460, symSize: 0x150 }
  - { offset: 0x603C5, size: 0x8, addend: 0x0, symName: __Z21llm_arch_is_diffusionRK8llm_arch, symObjAddr: 0x2700, symBinAddr: 0x95B0, symSize: 0x20 }
  - { offset: 0x60AFE, size: 0x8, addend: 0x0, symName: __ZNSt3__13mapI8llm_archPKcNS_4lessIS1_EENS_9allocatorINS_4pairIKS1_S3_EEEEEC2B8ne200100ESt16initializer_listIS9_ERKS5_, symObjAddr: 0x2A70, symBinAddr: 0x9790, symSize: 0x170 }
  - { offset: 0x61423, size: 0x8, addend: 0x0, symName: __ZNSt3__13mapI6llm_kvPKcNS_4lessIS1_EENS_9allocatorINS_4pairIKS1_S3_EEEEEC2B8ne200100ESt16initializer_listIS9_ERKS5_, symObjAddr: 0x2C20, symBinAddr: 0x9940, symSize: 0x170 }
  - { offset: 0x61D14, size: 0x8, addend: 0x0, symName: __ZNSt3__13mapI10llm_tensorPKcNS_4lessIS1_EENS_9allocatorINS_4pairIKS1_S3_EEEEEC2B8ne200100ESt16initializer_listIS9_ERKS5_, symObjAddr: 0x2DD0, symBinAddr: 0x9AF0, symSize: 0x170 }
  - { offset: 0x62639, size: 0x8, addend: 0x0, symName: __ZNSt3__13mapI10llm_tensor15llm_tensor_infoNS_4lessIS1_EENS_9allocatorINS_4pairIKS1_S2_EEEEEC2B8ne200100ESt16initializer_listIS8_ERKS4_, symObjAddr: 0x2F80, symBinAddr: 0x9CA0, symSize: 0x170 }
  - { offset: 0x62D64, size: 0x8, addend: 0x0, symName: __GLOBAL__sub_I_llama_arch.cpp, symObjAddr: 0x3380, symBinAddr: 0x9E50, symSize: 0x166 }
  - { offset: 0x749BF, size: 0x8, addend: 0x0, symName: __ZNSt3__124__put_character_sequenceB8ne200100IcNS_11char_traitsIcEEEERNS_13basic_ostreamIT_T0_EES7_PKS4_m, symObjAddr: 0x6C00, symBinAddr: 0x10910, symSize: 0x160 }
  - { offset: 0x7BE6A, size: 0x8, addend: 0x0, symName: __ZNSt3__116__pad_and_outputB8ne200100IcNS_11char_traitsIcEEEENS_19ostreambuf_iteratorIT_T0_EES6_PKS4_S8_S8_RNS_8ios_baseES4_, symObjAddr: 0x6D60, symBinAddr: 0x10A70, symSize: 0x170 }
  - { offset: 0x80556, size: 0x8, addend: 0x0, symName: __ZN18llama_batch_allocrC2Ej, symObjAddr: 0x0, symBinAddr: 0x9FC0, symSize: 0x370 }
  - { offset: 0x81399, size: 0x8, addend: 0x0, symName: __ZNSt3__16vectorINS_3setIiNS_4lessIiEENS_9allocatorIiEEEENS4_IS6_EEE8__appendEm, symObjAddr: 0x5810, symBinAddr: 0xF7C0, symSize: 0x220 }
  - { offset: 0x81A7A, size: 0x8, addend: 0x0, symName: __ZNSt3__16vectorINS0_IbNS_9allocatorIbEEEENS1_IS3_EEE8__appendEm, symObjAddr: 0x5B00, symBinAddr: 0xF9F0, symSize: 0x260 }
  - { offset: 0x8211C, size: 0x8, addend: 0x0, symName: __ZNSt3__16vectorIbNS_9allocatorIbEEE6resizeEmb, symObjAddr: 0x370, symBinAddr: 0xA330, symSize: 0x2A0 }
  - { offset: 0x8294C, size: 0x8, addend: 0x0, symName: __ZNSt3__16vectorIiNS_9allocatorIiEEE8__appendEmRKi, symObjAddr: 0x5EC0, symBinAddr: 0xFDB0, symSize: 0x200 }
  - { offset: 0x82DD6, size: 0x8, addend: 0x0, symName: __ZNSt3__113unordered_mapINS_6bitsetILm256EEENS_6vectorIiNS_9allocatorIiEEEENS_4hashIS2_EENS_8equal_toIS2_EENS4_INS_4pairIKS2_S6_EEEEED1B8ne200100Ev, symObjAddr: 0x610, symBinAddr: 0xA5D0, symSize: 0x70 }
  - { offset: 0x831D5, size: 0x8, addend: 0x0, symName: __ZNSt3__16vectorINS0_IbNS_9allocatorIbEEEENS1_IS3_EEED1B8ne200100Ev, symObjAddr: 0x680, symBinAddr: 0xA640, symSize: 0x70 }
  - { offset: 0x83421, size: 0x8, addend: 0x0, symName: __ZNSt3__16vectorINS_3setIiNS_4lessIiEENS_9allocatorIiEEEENS4_IS6_EEED1B8ne200100Ev, symObjAddr: 0x6F0, symBinAddr: 0xA6B0, symSize: 0x70 }
  - { offset: 0x8384E, size: 0x8, addend: 0x0, symName: __ZNSt3__16vectorIbNS_9allocatorIbEEE7reserveEm, symObjAddr: 0x5D70, symBinAddr: 0xFC60, symSize: 0x140 }
  - { offset: 0x83C34, size: 0x8, addend: 0x0, symName: __ZNSt3__16vectorIbNS_9allocatorIbEEE20__throw_length_errorB8ne200100Ev, symObjAddr: 0x5EB0, symBinAddr: 0xFDA0, symSize: 0x10 }
  - { offset: 0x83C4C, size: 0x8, addend: 0x0, symName: __ZNSt3__16vectorIiNS_9allocatorIiEEE8__appendEmRKi, symObjAddr: 0x5EC0, symBinAddr: 0xFDB0, symSize: 0x200 }
  - { offset: 0x84147, size: 0x8, addend: 0x0, symName: __ZNSt3__16__treeIiNS_4lessIiEENS_9allocatorIiEEE7destroyEPNS_11__tree_nodeIiPvEE, symObjAddr: 0x57D0, symBinAddr: 0xF780, symSize: 0x40 }
  - { offset: 0x8425E, size: 0x8, addend: 0x0, symName: __ZN18llama_batch_allocrC1Ej, symObjAddr: 0x760, symBinAddr: 0xA720, symSize: 0x10 }
  - { offset: 0x85A0A, size: 0x8, addend: 0x0, symName: __ZN18llama_batch_allocr4initERK11llama_batchRK11llama_vocabPK14llama_memory_ijjb, symObjAddr: 0x770, symBinAddr: 0xA730, symSize: 0x1D20 }
  - { offset: 0x89870, size: 0x8, addend: 0x0, symName: __ZN18llama_batch_allocr5clearEv, symObjAddr: 0x2490, symBinAddr: 0xC450, symSize: 0x1E0 }
  - { offset: 0x8A4AA, size: 0x8, addend: 0x0, symName: __ZNSt3__16vectorIPiNS_9allocatorIS1_EEE8__appendEm, symObjAddr: 0x6220, symBinAddr: 0xFFB0, symSize: 0x150 }
  - { offset: 0x8A8C8, size: 0x8, addend: 0x0, symName: __ZN18llama_batch_allocr12ubatch_printERK12llama_ubatchi, symObjAddr: 0x2670, symBinAddr: 0xC630, symSize: 0xD00 }
  - { offset: 0x8BD1C, size: 0x8, addend: 0x0, symName: __ZNSt3__118basic_stringstreamIcNS_11char_traitsIcEENS_9allocatorIcEEEC1B8ne200100Ev, symObjAddr: 0x3370, symBinAddr: 0xD330, symSize: 0x180 }
  - { offset: 0x8BFB4, size: 0x8, addend: 0x0, symName: __ZNSt3__112__hash_tableINS_17__hash_value_typeINS_6bitsetILm256EEENS_6vectorIiNS_9allocatorIiEEEEEENS_22__unordered_map_hasherIS3_S8_NS_4hashIS3_EENS_8equal_toIS3_EELb1EEENS_21__unordered_map_equalIS3_S8_SD_SB_Lb1EEENS5_IS8_EEE25__emplace_unique_key_argsIS3_JRKNS_21piecewise_construct_tENS_5tupleIJRKS3_EEENSN_IJEEEEEENS_4pairINS_15__hash_iteratorIPNS_11__hash_nodeIS8_PvEEEEbEERKT_DpOT0_, symObjAddr: 0x6420, symBinAddr: 0x10130, symSize: 0x4C0 }
  - { offset: 0x8C835, size: 0x8, addend: 0x0, symName: __ZNSt3__16vectorINS_6bitsetILm256EEENS_9allocatorIS2_EEE20__throw_length_errorB8ne200100Ev, symObjAddr: 0x6410, symBinAddr: 0x10120, symSize: 0x10 }
  - { offset: 0x8C84D, size: 0x8, addend: 0x0, symName: __ZNSt3__112__hash_tableINS_17__hash_value_typeINS_6bitsetILm256EEENS_6vectorIiNS_9allocatorIiEEEEEENS_22__unordered_map_hasherIS3_S8_NS_4hashIS3_EENS_8equal_toIS3_EELb1EEENS_21__unordered_map_equalIS3_S8_SD_SB_Lb1EEENS5_IS8_EEE25__emplace_unique_key_argsIS3_JRKNS_21piecewise_construct_tENS_5tupleIJRKS3_EEENSN_IJEEEEEENS_4pairINS_15__hash_iteratorIPNS_11__hash_nodeIS8_PvEEEEbEERKT_DpOT0_, symObjAddr: 0x6420, symBinAddr: 0x10130, symSize: 0x4C0 }
  - { offset: 0x8C872, size: 0x8, addend: 0x0, symName: __ZNSt3__16vectorIaNS_9allocatorIaEEE20__throw_length_errorB8ne200100Ev, symObjAddr: 0x6380, symBinAddr: 0x10110, symSize: 0x10 }
  - { offset: 0x8C89B, size: 0x8, addend: 0x0, symName: __ZN12llama_ubatchD1Ev, symObjAddr: 0x3610, symBinAddr: 0xD5D0, symSize: 0x40 }
  - { offset: 0x8C969, size: 0x8, addend: 0x0, symName: __ZNSt3__118basic_stringstreamIcNS_11char_traitsIcEENS_9allocatorIcEEED1Ev, symObjAddr: 0x3590, symBinAddr: 0xD550, symSize: 0x80 }
  - { offset: 0x8CF41, size: 0x8, addend: 0x0, symName: __ZNSt3__115basic_stringbufIcNS_11char_traitsIcEENS_9allocatorIcEEE15__init_buf_ptrsB8ne200100Ev, symObjAddr: 0x6AE0, symBinAddr: 0x107F0, symSize: 0x120 }
  - { offset: 0x8D19E, size: 0x8, addend: 0x0, symName: __ZNK18llama_batch_allocr11seq_pos_minEi, symObjAddr: 0x34F0, symBinAddr: 0xD4B0, symSize: 0x30 }
  - { offset: 0x8D23B, size: 0x8, addend: 0x0, symName: __ZNK18llama_batch_allocr11seq_pos_maxEi, symObjAddr: 0x3520, symBinAddr: 0xD4E0, symSize: 0x70 }
  - { offset: 0x8D3B2, size: 0x8, addend: 0x0, symName: __ZN18llama_batch_allocr11split_resetEv, symObjAddr: 0x3650, symBinAddr: 0xD610, symSize: 0x40 }
  - { offset: 0x8D8E6, size: 0x8, addend: 0x0, symName: __ZN18llama_batch_allocr14ubatch_reserveEjj, symObjAddr: 0x3690, symBinAddr: 0xD650, symSize: 0x550 }
  - { offset: 0x8EA90, size: 0x8, addend: 0x0, symName: __ZNSt3__110shared_ptrIN12llama_ubatch6data_tEED1B8ne200100Ev, symObjAddr: 0x3BE0, symBinAddr: 0xDBA0, symSize: 0x40 }
  - { offset: 0x8EB27, size: 0x8, addend: 0x0, symName: __ZNK18llama_batch_allocr9get_batchEv, symObjAddr: 0x3C20, symBinAddr: 0xDBE0, symSize: 0x10 }
  - { offset: 0x8EB51, size: 0x8, addend: 0x0, symName: __ZNK18llama_batch_allocr12get_n_tokensEv, symObjAddr: 0x3C30, symBinAddr: 0xDBF0, symSize: 0x10 }
  - { offset: 0x8EB71, size: 0x8, addend: 0x0, symName: __ZNK18llama_batch_allocr13get_n_outputsEv, symObjAddr: 0x3C40, symBinAddr: 0xDC00, symSize: 0x10 }
  - { offset: 0x8EB99, size: 0x8, addend: 0x0, symName: __ZNK18llama_batch_allocr10get_n_usedEv, symObjAddr: 0x3C50, symBinAddr: 0xDC10, symSize: 0x10 }
  - { offset: 0x8EBC1, size: 0x8, addend: 0x0, symName: __ZN18llama_batch_allocr11get_out_idsEv, symObjAddr: 0x3C60, symBinAddr: 0xDC20, symSize: 0x10 }
  - { offset: 0x8EBE9, size: 0x8, addend: 0x0, symName: __ZN18llama_batch_allocr12split_simpleEj, symObjAddr: 0x3C70, symBinAddr: 0xDC30, symSize: 0x250 }
  - { offset: 0x8F337, size: 0x8, addend: 0x0, symName: __ZN18llama_batch_allocr10ubatch_addERKNSt3__16vectorIiNS0_9allocatorIiEEEEjb, symObjAddr: 0x3EC0, symBinAddr: 0xDE80, symSize: 0xB80 }
  - { offset: 0x91624, size: 0x8, addend: 0x0, symName: __ZNSt3__16vectorIfNS_9allocatorIfEEE8__appendEm, symObjAddr: 0x74C0, symBinAddr: 0x111D0, symSize: 0x150 }
  - { offset: 0x91F35, size: 0x8, addend: 0x0, symName: __ZN18llama_batch_allocr11split_equalEjb, symObjAddr: 0x4A40, symBinAddr: 0xEA00, symSize: 0x860 }
  - { offset: 0x939C5, size: 0x8, addend: 0x0, symName: __ZNSt3__16vectorIiNS_9allocatorIiEEE18__insert_with_sizeB8ne200100INS_11__wrap_iterIPiEES7_EES7_NS5_IPKiEET_T0_l, symObjAddr: 0x7080, symBinAddr: 0x10D90, symSize: 0x440 }
  - { offset: 0x9467A, size: 0x8, addend: 0x0, symName: __ZNSt3__128__exception_guard_exceptionsINS_6vectorINS1_IiNS_9allocatorIiEEEENS2_IS4_EEE16__destroy_vectorEED1B8ne200100Ev, symObjAddr: 0x7010, symBinAddr: 0x10D20, symSize: 0x70 }
  - { offset: 0x948FF, size: 0x8, addend: 0x0, symName: __ZNSt3__16vectorINS0_IiNS_9allocatorIiEEEENS1_IS3_EEED1B8ne200100Ev, symObjAddr: 0x52A0, symBinAddr: 0xF260, symSize: 0x70 }
  - { offset: 0x94BCC, size: 0x8, addend: 0x0, symName: __ZN18llama_batch_allocr9split_seqEj, symObjAddr: 0x5310, symBinAddr: 0xF2D0, symSize: 0x300 }
  - { offset: 0x95512, size: 0x8, addend: 0x0, symName: _llama_batch_get_one, symObjAddr: 0x5610, symBinAddr: 0xF5D0, symSize: 0x30 }
  - { offset: 0x9554C, size: 0x8, addend: 0x0, symName: _llama_batch_init, symObjAddr: 0x5640, symBinAddr: 0xF600, symSize: 0xE0 }
  - { offset: 0x95651, size: 0x8, addend: 0x0, symName: _llama_batch_free, symObjAddr: 0x5720, symBinAddr: 0xF6E0, symSize: 0xA0 }
  - { offset: 0x95C26, size: 0x8, addend: 0x0, symName: __ZNSt3__16vectorINS_3setIiNS_4lessIiEENS_9allocatorIiEEEENS4_IS6_EEE20__throw_length_errorB8ne200100Ev, symObjAddr: 0x5A30, symBinAddr: 0xF9E0, symSize: 0x10 }
  - { offset: 0x96031, size: 0x8, addend: 0x0, symName: __ZNSt3__16vectorINS0_IbNS_9allocatorIbEEEENS1_IS3_EEE20__throw_length_errorB8ne200100Ev, symObjAddr: 0x5D60, symBinAddr: 0xFC50, symSize: 0x10 }
  - { offset: 0x96049, size: 0x8, addend: 0x0, symName: __ZNSt3__16vectorIbNS_9allocatorIbEEE7reserveEm, symObjAddr: 0x5D70, symBinAddr: 0xFC60, symSize: 0x140 }
  - { offset: 0x96654, size: 0x8, addend: 0x0, symName: __ZNSt3__16vectorIPiNS_9allocatorIS1_EEE20__throw_length_errorB8ne200100Ev, symObjAddr: 0x6370, symBinAddr: 0x10100, symSize: 0x10 }
  - { offset: 0x9666C, size: 0x8, addend: 0x0, symName: __ZNSt3__16vectorIaNS_9allocatorIaEEE20__throw_length_errorB8ne200100Ev, symObjAddr: 0x6380, symBinAddr: 0x10110, symSize: 0x10 }
  - { offset: 0x96C88, size: 0x8, addend: 0x0, symName: __ZNSt3__112__hash_tableINS_17__hash_value_typeINS_6bitsetILm256EEENS_6vectorIiNS_9allocatorIiEEEEEENS_22__unordered_map_hasherIS3_S8_NS_4hashIS3_EENS_8equal_toIS3_EELb1EEENS_21__unordered_map_equalIS3_S8_SD_SB_Lb1EEENS5_IS8_EEE11__do_rehashILb1EEEvm, symObjAddr: 0x6930, symBinAddr: 0x10640, symSize: 0x1B0 }
  - { offset: 0x97044, size: 0x8, addend: 0x0, symName: __ZNSt3__110unique_ptrINS_11__hash_nodeINS_17__hash_value_typeINS_6bitsetILm256EEENS_6vectorIiNS_9allocatorIiEEEEEEPvEENS_22__hash_node_destructorINS6_ISB_EEEEED1B8ne200100Ev, symObjAddr: 0x68E0, symBinAddr: 0x105F0, symSize: 0x50 }
  - { offset: 0x979B1, size: 0x8, addend: 0x0, symName: __ZNSt3__120__shared_ptr_emplaceIN12llama_ubatch6data_tENS_9allocatorIS2_EEED1Ev, symObjAddr: 0x6ED0, symBinAddr: 0x10BE0, symSize: 0x20 }
  - { offset: 0x97A09, size: 0x8, addend: 0x0, symName: __ZNSt3__120__shared_ptr_emplaceIN12llama_ubatch6data_tENS_9allocatorIS2_EEED0Ev, symObjAddr: 0x6EF0, symBinAddr: 0x10C00, symSize: 0x30 }
  - { offset: 0x97B15, size: 0x8, addend: 0x0, symName: __ZNSt3__120__shared_ptr_emplaceIN12llama_ubatch6data_tENS_9allocatorIS2_EEE16__on_zero_sharedEv, symObjAddr: 0x6F20, symBinAddr: 0x10C30, symSize: 0x10 }
  - { offset: 0x97BE0, size: 0x8, addend: 0x0, symName: __ZN12llama_ubatch6data_tD2Ev, symObjAddr: 0x6F40, symBinAddr: 0x10C50, symSize: 0xD0 }
  - { offset: 0x986C2, size: 0x8, addend: 0x0, symName: __ZNSt3__120__shared_ptr_emplaceIN12llama_ubatch6data_tENS_9allocatorIS2_EEE21__on_zero_shared_weakEv, symObjAddr: 0x6F30, symBinAddr: 0x10C40, symSize: 0x10 }
  - { offset: 0x98E0E, size: 0x8, addend: 0x0, symName: __ZNSt3__16vectorIfNS_9allocatorIfEEE20__throw_length_errorB8ne200100Ev, symObjAddr: 0x7610, symBinAddr: 0x11320, symSize: 0x10 }
  - { offset: 0x9AD39, size: 0x8, addend: 0x0, symName: __ZL18LLM_CHAT_TEMPLATES, symObjAddr: 0x882B8, symBinAddr: 0x3B60A0, symSize: 0x0 }
  - { offset: 0xA2BF7, size: 0x8, addend: 0x0, symName: __ZNSt3__1eqB8ne200100IcNS_11char_traitsIcEENS_9allocatorIcEEEEbRKNS_12basic_stringIT_T0_T1_EEPKS6_, symObjAddr: 0x6060, symBinAddr: 0x17180, symSize: 0x70 }
  - { offset: 0xA2DC7, size: 0x8, addend: 0x0, symName: __ZNSt3__1lsB8ne200100IcNS_11char_traitsIcEENS_9allocatorIcEEEERNS_13basic_ostreamIT_T0_EES9_RKNS_12basic_stringIS6_S7_T1_EE, symObjAddr: 0x60D0, symBinAddr: 0x171F0, symSize: 0x30 }
  - { offset: 0xA2E53, size: 0x8, addend: 0x0, symName: __ZNSt3__1neB8ne200100IcNS_11char_traitsIcEENS_9allocatorIcEEEEbRKNS_12basic_stringIT_T0_T1_EEPKS6_, symObjAddr: 0x62B0, symBinAddr: 0x173D0, symSize: 0x70 }
  - { offset: 0xA516E, size: 0x8, addend: 0x0, symName: __ZNSt3__13mapINS_12basic_stringIcNS_11char_traitsIcEENS_9allocatorIcEEEE17llm_chat_templateNS_4lessIS6_EENS4_INS_4pairIKS6_S7_EEEEED1B8ne200100Ev, symObjAddr: 0x0, symBinAddr: 0x11330, symSize: 0x10 }
  - { offset: 0xA5221, size: 0x8, addend: 0x0, symName: __ZNSt3__16__treeINS_12__value_typeINS_12basic_stringIcNS_11char_traitsIcEENS_9allocatorIcEEEE17llm_chat_templateEENS_19__map_value_compareIS7_S9_NS_4lessIS7_EELb1EEENS5_IS9_EEE7destroyEPNS_11__tree_nodeIS9_PvEE, symObjAddr: 0x6C90, symBinAddr: 0x17A80, symSize: 0x50 }
  - { offset: 0xA54B8, size: 0x8, addend: 0x0, symName: __Z26llm_chat_template_from_strRKNSt3__112basic_stringIcNS_11char_traitsIcEENS_9allocatorIcEEEE, symObjAddr: 0x10, symBinAddr: 0x11340, symSize: 0x20 }
  - { offset: 0xA54EB, size: 0x8, addend: 0x0, symName: __ZNKSt3__13mapINS_12basic_stringIcNS_11char_traitsIcEENS_9allocatorIcEEEE17llm_chat_templateNS_4lessIS6_EENS4_INS_4pairIKS6_S7_EEEEE2atERSB_, symObjAddr: 0x30, symBinAddr: 0x11360, symSize: 0x110 }
  - { offset: 0xA5AA5, size: 0x8, addend: 0x0, symName: __Z24llm_chat_detect_templateRKNSt3__112basic_stringIcNS_11char_traitsIcEENS_9allocatorIcEEEE, symObjAddr: 0x140, symBinAddr: 0x11470, symSize: 0x7D0 }
  - { offset: 0xA6171, size: 0x8, addend: 0x0, symName: '__ZZ24llm_chat_detect_templateRKNSt3__112basic_stringIcNS_11char_traitsIcEENS_9allocatorIcEEEEENK3$_0clEPKc', symObjAddr: 0x910, symBinAddr: 0x11C40, symSize: 0xD0 }
  - { offset: 0xA6422, size: 0x8, addend: 0x0, symName: __ZNKSt3__112basic_stringIcNS_11char_traitsIcEENS_9allocatorIcEEE4findB8ne200100EPKcm, symObjAddr: 0x9E0, symBinAddr: 0x11D10, symSize: 0xE0 }
  - { offset: 0xA6F19, size: 0x8, addend: 0x0, symName: __Z23llm_chat_apply_template17llm_chat_templateRKNSt3__16vectorIPK18llama_chat_messageNS0_9allocatorIS4_EEEERNS0_12basic_stringIcNS0_11char_traitsIcEENS5_IcEEEEb, symObjAddr: 0xAC0, symBinAddr: 0x11DF0, symSize: 0x5390 }
  - { offset: 0xB7DC5, size: 0x8, addend: 0x0, symName: __ZL4trimRKNSt3__112basic_stringIcNS_11char_traitsIcEENS_9allocatorIcEEEE, symObjAddr: 0x6100, symBinAddr: 0x17220, symSize: 0x1B0 }
  - { offset: 0xB8C80, size: 0x8, addend: 0x0, symName: _llama_chat_builtin_templates, symObjAddr: 0x63A0, symBinAddr: 0x17440, symSize: 0xA0 }
  - { offset: 0xB9184, size: 0x8, addend: 0x0, symName: __ZNSt3__16__treeINS_12__value_typeINS_12basic_stringIcNS_11char_traitsIcEENS_9allocatorIcEEEE17llm_chat_templateEENS_19__map_value_compareIS7_S9_NS_4lessIS7_EELb1EEENS5_IS9_EEE30__emplace_hint_unique_key_argsIS7_JRKNS_4pairIKS7_S8_EEEEENSH_INS_15__tree_iteratorIS9_PNS_11__tree_nodeIS9_PvEElEEbEENS_21__tree_const_iteratorIS9_SQ_lEERKT_DpOT0_, symObjAddr: 0x6570, symBinAddr: 0x174E0, symSize: 0x100 }
  - { offset: 0xB9573, size: 0x8, addend: 0x0, symName: __ZNSt3__16__treeINS_12__value_typeINS_12basic_stringIcNS_11char_traitsIcEENS_9allocatorIcEEEE17llm_chat_templateEENS_19__map_value_compareIS7_S9_NS_4lessIS7_EELb1EEENS5_IS9_EEE12__find_equalIS7_EERPNS_16__tree_node_baseIPvEENS_21__tree_const_iteratorIS9_PNS_11__tree_nodeIS9_SI_EElEERPNS_15__tree_end_nodeISK_EESL_RKT_, symObjAddr: 0x6670, symBinAddr: 0x175E0, symSize: 0x450 }
  - { offset: 0xBA275, size: 0x8, addend: 0x0, symName: __ZNSt3__110unique_ptrINS_11__tree_nodeINS_12__value_typeINS_12basic_stringIcNS_11char_traitsIcEENS_9allocatorIcEEEE17llm_chat_templateEEPvEENS_22__tree_node_destructorINS6_ISC_EEEEED1B8ne200100Ev, symObjAddr: 0x6AC0, symBinAddr: 0x17A30, symSize: 0x50 }
  - { offset: 0xBB41D, size: 0x8, addend: 0x0, symName: __GLOBAL__sub_I_llama_chat.cpp, symObjAddr: 0x7940, symBinAddr: 0x17AD0, symSize: 0x970 }
  - { offset: 0xBE639, size: 0x8, addend: 0x0, symName: __GLOBAL__sub_I_llama_chat.cpp.cold.1, symObjAddr: 0x82B0, symBinAddr: 0x2BB5D0, symSize: 0x2B }
  - { offset: 0xF3E5D, size: 0x8, addend: 0x0, symName: __ZNSt3__113__tree_removeB8ne200100IPNS_16__tree_node_baseIPvEEEEvT_S5_, symObjAddr: 0x10210, symBinAddr: 0x281C0, symSize: 0x380 }
  - { offset: 0xFF6EF, size: 0x8, addend: 0x0, symName: __ZN13llama_contextC2ERK11llama_model20llama_context_params, symObjAddr: 0x0, symBinAddr: 0x18440, symSize: 0x1C10 }
  - { offset: 0x103A6C, size: 0x8, addend: 0x0, symName: __ZNK13llama_context12graph_get_cbEv, symObjAddr: 0x8A70, symBinAddr: 0x20E30, symSize: 0x20 }
  - { offset: 0x106067, size: 0x8, addend: 0x0, symName: __ZN13llama_context11set_samplerEiP13llama_sampler, symObjAddr: 0x1C10, symBinAddr: 0x1A050, symSize: 0x370 }
  - { offset: 0x106C5F, size: 0x8, addend: 0x0, symName: __ZN13llama_context14output_reserveEi, symObjAddr: 0x2030, symBinAddr: 0x1A470, symSize: 0x430 }
  - { offset: 0x1075E3, size: 0x8, addend: 0x0, symName: __ZN13llama_context13sched_reserveEv, symObjAddr: 0x2460, symBinAddr: 0x1A8A0, symSize: 0x980 }
  - { offset: 0x108A30, size: 0x8, addend: 0x0, symName: __ZNSt3__16vectorINS_10unique_ptrI12ggml_backend20ggml_backend_deleterEENS_9allocatorIS4_EEE20__throw_length_errorB8ne200100Ev, symObjAddr: 0x10050, symBinAddr: 0x28180, symSize: 0x10 }
  - { offset: 0x108A48, size: 0x8, addend: 0x0, symName: __ZNSt3__16vectorINS_4pairIP12ggml_backendPFvS3_iEEENS_9allocatorIS6_EEE20__throw_length_errorB8ne200100Ev, symObjAddr: 0x10060, symBinAddr: 0x28190, symSize: 0x10 }
  - { offset: 0x108A53, size: 0x8, addend: 0x0, symName: __ZNSt3__16vectorIP12ggml_backendNS_9allocatorIS2_EEE20__throw_length_errorB8ne200100Ev, symObjAddr: 0x10080, symBinAddr: 0x281A0, symSize: 0x10 }
  - { offset: 0x108A6B, size: 0x8, addend: 0x0, symName: __ZNSt3__16vectorImNS_9allocatorImEEE20__throw_length_errorB8ne200100Ev, symObjAddr: 0x10090, symBinAddr: 0x281B0, symSize: 0x10 }
  - { offset: 0x108A76, size: 0x8, addend: 0x0, symName: __ZNSt3__16vectorImNS_9allocatorImEEE20__throw_length_errorB8ne200100Ev, symObjAddr: 0x10090, symBinAddr: 0x281B0, symSize: 0x10 }
  - { offset: 0x108AA3, size: 0x8, addend: 0x0, symName: __ZNSt3__16vectorIP12ggml_backendNS_9allocatorIS2_EEE20__throw_length_errorB8ne200100Ev, symObjAddr: 0x10080, symBinAddr: 0x281A0, symSize: 0x10 }
  - { offset: 0x108AAE, size: 0x8, addend: 0x0, symName: __ZNSt3__16vectorINS_4pairIP12ggml_backendPFvS3_iEEENS_9allocatorIS6_EEE20__throw_length_errorB8ne200100Ev, symObjAddr: 0x10060, symBinAddr: 0x28190, symSize: 0x10 }
  - { offset: 0x108B2F, size: 0x8, addend: 0x0, symName: __ZNSt3__16vectorINS_10unique_ptrI12ggml_backend20ggml_backend_deleterEENS_9allocatorIS4_EEED1B8ne200100Ev, symObjAddr: 0x2E10, symBinAddr: 0x1B220, symSize: 0x80 }
  - { offset: 0x108CF0, size: 0x8, addend: 0x0, symName: __ZNSt3__110unique_ptrI18ggml_backend_sched26ggml_backend_sched_deleterED1B8ne200100Ev, symObjAddr: 0x2E90, symBinAddr: 0x1B2A0, symSize: 0x30 }
  - { offset: 0x108D7D, size: 0x8, addend: 0x0, symName: __ZNSt3__110unique_ptrI18llama_batch_allocrNS_14default_deleteIS1_EEED1B8ne200100Ev, symObjAddr: 0x2EC0, symBinAddr: 0x1B2D0, symSize: 0x40 }
  - { offset: 0x108E3C, size: 0x8, addend: 0x0, symName: __ZNSt3__16__treeINS_12__value_typeIiNS_6vectorIfNS_9allocatorIfEEEEEENS_19__map_value_compareIiS6_NS_4lessIiEELb1EEENS3_IS6_EEE7destroyEPNS_11__tree_nodeIS6_PvEE, symObjAddr: 0x10000, symBinAddr: 0x28130, symSize: 0x50 }
  - { offset: 0x1090F2, size: 0x8, addend: 0x0, symName: __ZN13llama_context13sampling_infoD1Ev, symObjAddr: 0x2F00, symBinAddr: 0x1B310, symSize: 0x70 }
  - { offset: 0x109690, size: 0x8, addend: 0x0, symName: __ZN11llama_crossD1Ev, symObjAddr: 0x2F70, symBinAddr: 0x1B380, symSize: 0x80 }
  - { offset: 0x1099D5, size: 0x8, addend: 0x0, symName: __ZNSt3__113unordered_mapIP18llama_adapter_lorafNS_4hashIS2_EENS_8equal_toIS2_EENS_9allocatorINS_4pairIKS2_fEEEEED1B8ne200100Ev, symObjAddr: 0x2FF0, symBinAddr: 0x1B400, symSize: 0x50 }
  - { offset: 0x109C5A, size: 0x8, addend: 0x0, symName: __ZN18llama_adapter_cvecD2Ev, symObjAddr: 0xF420, symBinAddr: 0x277A0, symSize: 0xF0 }
  - { offset: 0x10A81B, size: 0x8, addend: 0x0, symName: _llama_set_abort_callback, symObjAddr: 0x1F80, symBinAddr: 0x1A3C0, symSize: 0xB0 }
  - { offset: 0x10ABB6, size: 0x8, addend: 0x0, symName: __ZN13llama_context11synchronizeEv, symObjAddr: 0x34E0, symBinAddr: 0x1B8E0, symSize: 0xC0 }
  - { offset: 0x10AC7B, size: 0x8, addend: 0x0, symName: __ZNSt3__16vectorIjNS_9allocatorIjEEE8__appendEm, symObjAddr: 0x11310, symBinAddr: 0x28F30, symSize: 0x150 }
  - { offset: 0x10B5B3, size: 0x8, addend: 0x0, symName: __ZN13llama_context13graph_reserveEjjjPK22llama_memory_context_ibPm, symObjAddr: 0x3620, symBinAddr: 0x1BA20, symSize: 0x650 }
  - { offset: 0x10C46C, size: 0x8, addend: 0x0, symName: __ZNSt3__113__tree_removeB8ne200100IPNS_16__tree_node_baseIPvEEEEvT_S5_, symObjAddr: 0x10210, symBinAddr: 0x281C0, symSize: 0x380 }
  - { offset: 0x10C6BC, size: 0x8, addend: 0x0, symName: __ZN18llama_batch_allocrD2Ev, symObjAddr: 0xF6D0, symBinAddr: 0x27890, symSize: 0x1F0 }
  - { offset: 0x10DAB0, size: 0x8, addend: 0x0, symName: __ZNSt3__16__treeINS_12__value_typeIiP13llama_samplerEENS_19__map_value_compareIiS4_NS_4lessIiEELb1EEENS_9allocatorIS4_EEE7destroyEPNS_11__tree_nodeIS4_PvEE, symObjAddr: 0xFFC0, symBinAddr: 0x280F0, symSize: 0x40 }
  - { offset: 0x10E19E, size: 0x8, addend: 0x0, symName: __ZN13llama_contextC1ERK11llama_model20llama_context_params, symObjAddr: 0x3040, symBinAddr: 0x1B450, symSize: 0x10 }
  - { offset: 0x10E2A5, size: 0x8, addend: 0x0, symName: __ZN13llama_contextD2Ev, symObjAddr: 0x3050, symBinAddr: 0x1B460, symSize: 0x470 }
  - { offset: 0x10FD02, size: 0x8, addend: 0x0, symName: __ZN13llama_contextD1Ev, symObjAddr: 0x34D0, symBinAddr: 0x1B8D0, symSize: 0x10 }
  - { offset: 0x10FD5C, size: 0x8, addend: 0x0, symName: __ZNK13llama_context15graph_max_nodesEj, symObjAddr: 0x35A0, symBinAddr: 0x1B9A0, symSize: 0x80 }
  - { offset: 0x110604, size: 0x8, addend: 0x0, symName: __ZNSt3__13mapIiP13llama_samplerNS_4lessIiEENS_9allocatorINS_4pairIKiS2_EEEEE6insertB8ne200100INS_20__map_const_iteratorINS_21__tree_const_iteratorINS_12__value_typeIiS2_EEPNS_11__tree_nodeISF_PvEElEEEEEEvT_SM_, symObjAddr: 0x11470, symBinAddr: 0x29090, symSize: 0x110 }
  - { offset: 0x11064A, size: 0x8, addend: 0x0, symName: __ZNSt3__13mapIiP13llama_samplerNS_4lessIiEENS_9allocatorINS_4pairIKiS2_EEEEE6insertB8ne200100INS_20__map_const_iteratorINS_21__tree_const_iteratorINS_12__value_typeIiS2_EEPNS_11__tree_nodeISF_PvEElEEEEEEvT_SM_, symObjAddr: 0x11470, symBinAddr: 0x29090, symSize: 0x110 }
  - { offset: 0x110A4E, size: 0x8, addend: 0x0, symName: __ZN16llm_graph_paramsD1Ev, symObjAddr: 0x6090, symBinAddr: 0x1E490, symSize: 0x90 }
  - { offset: 0x110C6E, size: 0x8, addend: 0x0, symName: __ZNK13llama_context9get_modelEv, symObjAddr: 0x3C70, symBinAddr: 0x1C070, symSize: 0x10 }
  - { offset: 0x110C8E, size: 0x8, addend: 0x0, symName: __ZNK13llama_context11get_cparamsEv, symObjAddr: 0x3C80, symBinAddr: 0x1C080, symSize: 0x10 }
  - { offset: 0x110CB6, size: 0x8, addend: 0x0, symName: __ZNK13llama_context9get_schedEv, symObjAddr: 0x3C90, symBinAddr: 0x1C090, symSize: 0x10 }
  - { offset: 0x110CFE, size: 0x8, addend: 0x0, symName: __ZNK13llama_context5n_ctxEv, symObjAddr: 0x3CA0, symBinAddr: 0x1C0A0, symSize: 0x10 }
  - { offset: 0x110D1E, size: 0x8, addend: 0x0, symName: __ZNK13llama_context9n_ctx_seqEv, symObjAddr: 0x3CB0, symBinAddr: 0x1C0B0, symSize: 0x10 }
  - { offset: 0x110D3E, size: 0x8, addend: 0x0, symName: __ZNK13llama_context7n_batchEv, symObjAddr: 0x3CC0, symBinAddr: 0x1C0C0, symSize: 0x10 }
  - { offset: 0x110D5E, size: 0x8, addend: 0x0, symName: __ZNK13llama_context8n_ubatchEv, symObjAddr: 0x3CD0, symBinAddr: 0x1C0D0, symSize: 0x10 }
  - { offset: 0x110D7E, size: 0x8, addend: 0x0, symName: __ZNK13llama_context9n_seq_maxEv, symObjAddr: 0x3CE0, symBinAddr: 0x1C0E0, symSize: 0x10 }
  - { offset: 0x110D9E, size: 0x8, addend: 0x0, symName: __ZNK13llama_context9n_threadsEv, symObjAddr: 0x3CF0, symBinAddr: 0x1C0F0, symSize: 0x10 }
  - { offset: 0x110DBE, size: 0x8, addend: 0x0, symName: __ZNK13llama_context15n_threads_batchEv, symObjAddr: 0x3D00, symBinAddr: 0x1C100, symSize: 0x10 }
  - { offset: 0x110DF4, size: 0x8, addend: 0x0, symName: __ZNK13llama_context10get_memoryEv, symObjAddr: 0x3D10, symBinAddr: 0x1C110, symSize: 0x10 }
  - { offset: 0x110E4A, size: 0x8, addend: 0x0, symName: __ZN13llama_context13memory_updateEb, symObjAddr: 0x3D20, symBinAddr: 0x1C120, symSize: 0x1C0 }
  - { offset: 0x111252, size: 0x8, addend: 0x0, symName: __ZNK13llama_context12pooling_typeEv, symObjAddr: 0x3EE0, symBinAddr: 0x1C2E0, symSize: 0x10 }
  - { offset: 0x111272, size: 0x8, addend: 0x0, symName: __ZN13llama_context10get_logitsEv, symObjAddr: 0x3EF0, symBinAddr: 0x1C2F0, symSize: 0x20 }
  - { offset: 0x1112A9, size: 0x8, addend: 0x0, symName: __ZN13llama_context14output_reorderEv, symObjAddr: 0x3F10, symBinAddr: 0x1C310, symSize: 0x950 }
  - { offset: 0x1114F7, size: 0x8, addend: 0x0, symName: __ZNK13llama_context18output_resolve_rowEi, symObjAddr: 0x4860, symBinAddr: 0x1CC60, symSize: 0x1B0 }
  - { offset: 0x111664, size: 0x8, addend: 0x0, symName: __ZN13llama_context14get_logits_ithEi, symObjAddr: 0x4A10, symBinAddr: 0x1CE10, symSize: 0x280 }
  - { offset: 0x11181B, size: 0x8, addend: 0x0, symName: __ZN13llama_context14get_embeddingsEv, symObjAddr: 0x4C90, symBinAddr: 0x1D090, symSize: 0x20 }
  - { offset: 0x111852, size: 0x8, addend: 0x0, symName: __ZNK13llama_context18get_sampled_tokensEv, symObjAddr: 0x4CB0, symBinAddr: 0x1D0B0, symSize: 0x10 }
  - { offset: 0x11187A, size: 0x8, addend: 0x0, symName: __ZN13llama_context18get_embeddings_ithEi, symObjAddr: 0x4CC0, symBinAddr: 0x1D0C0, symSize: 0x290 }
  - { offset: 0x111B61, size: 0x8, addend: 0x0, symName: __ZN13llama_context18get_embeddings_seqEi, symObjAddr: 0x4F50, symBinAddr: 0x1D350, symSize: 0x50 }
  - { offset: 0x111B95, size: 0x8, addend: 0x0, symName: __ZN13llama_context18get_embeddings_seqEi, symObjAddr: 0x4F50, symBinAddr: 0x1D350, symSize: 0x50 }
  - { offset: 0x111BB3, size: 0x8, addend: 0x0, symName: __ZN13llama_context18get_embeddings_seqEi, symObjAddr: 0x4F50, symBinAddr: 0x1D350, symSize: 0x50 }
  - { offset: 0x111BDA, size: 0x8, addend: 0x0, symName: __ZN13llama_context18get_embeddings_seqEi, symObjAddr: 0x4F50, symBinAddr: 0x1D350, symSize: 0x50 }
  - { offset: 0x111CEF, size: 0x8, addend: 0x0, symName: __ZN13llama_context21get_sampled_token_ithEi, symObjAddr: 0x4FA0, symBinAddr: 0x1D3A0, symSize: 0xD0 }
  - { offset: 0x111DB8, size: 0x8, addend: 0x0, symName: __ZN13llama_context21get_sampled_probs_ithEi, symObjAddr: 0x5070, symBinAddr: 0x1D470, symSize: 0xE0 }
  - { offset: 0x111E95, size: 0x8, addend: 0x0, symName: __ZN13llama_context22get_sampled_logits_ithEi, symObjAddr: 0x5150, symBinAddr: 0x1D550, symSize: 0xE0 }
  - { offset: 0x111F88, size: 0x8, addend: 0x0, symName: __ZN13llama_context26get_sampled_candidates_ithEi, symObjAddr: 0x5230, symBinAddr: 0x1D630, symSize: 0xA0 }
  - { offset: 0x112040, size: 0x8, addend: 0x0, symName: __ZN13llama_context28get_sampled_candidates_countEi, symObjAddr: 0x52D0, symBinAddr: 0x1D6D0, symSize: 0xB0 }
  - { offset: 0x112114, size: 0x8, addend: 0x0, symName: __ZN13llama_context24get_sampled_logits_countEi, symObjAddr: 0x5380, symBinAddr: 0x1D780, symSize: 0xC0 }
  - { offset: 0x1121E8, size: 0x8, addend: 0x0, symName: __ZN13llama_context23get_sampled_probs_countEi, symObjAddr: 0x5440, symBinAddr: 0x1D840, symSize: 0xB0 }
  - { offset: 0x1122BC, size: 0x8, addend: 0x0, symName: __ZN13llama_context17attach_threadpoolEP15ggml_threadpoolS1_, symObjAddr: 0x54F0, symBinAddr: 0x1D8F0, symSize: 0x50 }
  - { offset: 0x112303, size: 0x8, addend: 0x0, symName: __ZN13llama_context17detach_threadpoolEv, symObjAddr: 0x5540, symBinAddr: 0x1D940, symSize: 0x40 }
  - { offset: 0x112338, size: 0x8, addend: 0x0, symName: __ZN13llama_context13set_n_threadsEii, symObjAddr: 0x5580, symBinAddr: 0x1D980, symSize: 0x50 }
  - { offset: 0x11238B, size: 0x8, addend: 0x0, symName: __ZN13llama_context18set_abort_callbackEPFbPvES0_, symObjAddr: 0x55D0, symBinAddr: 0x1D9D0, symSize: 0xB0 }
  - { offset: 0x11251A, size: 0x8, addend: 0x0, symName: __ZN13llama_context14set_embeddingsEb, symObjAddr: 0x5680, symBinAddr: 0x1DA80, symSize: 0x40 }
  - { offset: 0x11255E, size: 0x8, addend: 0x0, symName: __ZN13llama_context15set_causal_attnEb, symObjAddr: 0x56C0, symBinAddr: 0x1DAC0, symSize: 0x40 }
  - { offset: 0x1125A2, size: 0x8, addend: 0x0, symName: __ZN13llama_context10set_warmupEb, symObjAddr: 0x5700, symBinAddr: 0x1DB00, symSize: 0x40 }
  - { offset: 0x112638, size: 0x8, addend: 0x0, symName: __ZN13llama_context16set_adapter_loraEP18llama_adapter_loraf, symObjAddr: 0x5740, symBinAddr: 0x1DB40, symSize: 0xA0 }
  - { offset: 0x11276B, size: 0x8, addend: 0x0, symName: __ZNSt3__112__hash_tableINS_17__hash_value_typeIP18llama_adapter_lorafEENS_22__unordered_map_hasherIS3_S4_NS_4hashIS3_EENS_8equal_toIS3_EELb1EEENS_21__unordered_map_equalIS3_S4_S9_S7_Lb1EEENS_9allocatorIS4_EEE4findIS3_EENS_15__hash_iteratorIPNS_11__hash_nodeIS4_PvEEEERKT_, symObjAddr: 0x10590, symBinAddr: 0x28540, symSize: 0x180 }
  - { offset: 0x1127C2, size: 0x8, addend: 0x0, symName: __ZNSt3__112__hash_tableINS_17__hash_value_typeIP18llama_adapter_lorafEENS_22__unordered_map_hasherIS3_S4_NS_4hashIS3_EENS_8equal_toIS3_EELb1EEENS_21__unordered_map_equalIS3_S4_S9_S7_Lb1EEENS_9allocatorIS4_EEE4findIS3_EENS_15__hash_iteratorIPNS_11__hash_nodeIS4_PvEEEERKT_, symObjAddr: 0x10590, symBinAddr: 0x28540, symSize: 0x180 }
  - { offset: 0x1127DE, size: 0x8, addend: 0x0, symName: __ZNSt3__112__hash_tableINS_17__hash_value_typeIP18llama_adapter_lorafEENS_22__unordered_map_hasherIS3_S4_NS_4hashIS3_EENS_8equal_toIS3_EELb1EEENS_21__unordered_map_equalIS3_S4_S9_S7_Lb1EEENS_9allocatorIS4_EEE4findIS3_EENS_15__hash_iteratorIPNS_11__hash_nodeIS4_PvEEEERKT_, symObjAddr: 0x10590, symBinAddr: 0x28540, symSize: 0x180 }
  - { offset: 0x1128D4, size: 0x8, addend: 0x0, symName: __ZNSt3__112__hash_tableINS_17__hash_value_typeIP18llama_adapter_lorafEENS_22__unordered_map_hasherIS3_S4_NS_4hashIS3_EENS_8equal_toIS3_EELb1EEENS_21__unordered_map_equalIS3_S4_S9_S7_Lb1EEENS_9allocatorIS4_EEE25__emplace_unique_key_argsIS3_JRKNS_21piecewise_construct_tENS_5tupleIJRKS3_EEENSK_IJEEEEEENS_4pairINS_15__hash_iteratorIPNS_11__hash_nodeIS4_PvEEEEbEERKT_DpOT0_, symObjAddr: 0x10710, symBinAddr: 0x286C0, symSize: 0x470 }
  - { offset: 0x113220, size: 0x8, addend: 0x0, symName: __ZN13llama_context15rm_adapter_loraEP18llama_adapter_lora, symObjAddr: 0x57E0, symBinAddr: 0x1DBE0, symSize: 0x90 }
  - { offset: 0x113475, size: 0x8, addend: 0x0, symName: __ZNSt3__112__hash_tableINS_17__hash_value_typeIP18llama_adapter_lorafEENS_22__unordered_map_hasherIS3_S4_NS_4hashIS3_EENS_8equal_toIS3_EELb1EEENS_21__unordered_map_equalIS3_S4_S9_S7_Lb1EEENS_9allocatorIS4_EEE6removeENS_21__hash_const_iteratorIPNS_11__hash_nodeIS4_PvEEEE, symObjAddr: 0x10D30, symBinAddr: 0x28CE0, symSize: 0x200 }
  - { offset: 0x11375F, size: 0x8, addend: 0x0, symName: __ZN13llama_context18clear_adapter_loraEv, symObjAddr: 0x5870, symBinAddr: 0x1DC70, symSize: 0x90 }
  - { offset: 0x11396D, size: 0x8, addend: 0x0, symName: __ZN13llama_context18apply_adapter_cvecEPKfmiii, symObjAddr: 0x5900, symBinAddr: 0x1DD00, symSize: 0x80 }
  - { offset: 0x1139F9, size: 0x8, addend: 0x0, symName: __ZN13llama_context14process_ubatchERK12llama_ubatch14llm_graph_typeP22llama_memory_context_iR11ggml_status, symObjAddr: 0x5980, symBinAddr: 0x1DD80, symSize: 0x450 }
  - { offset: 0x1142F5, size: 0x8, addend: 0x0, symName: __ZN13llama_context13graph_computeEP11ggml_cgraphb, symObjAddr: 0x5FC0, symBinAddr: 0x1E3C0, symSize: 0xD0 }
  - { offset: 0x1144FD, size: 0x8, addend: 0x0, symName: __ZNK13llama_context12graph_paramsEP16llm_graph_resultRK12llama_ubatchPK22llama_memory_context_i14llm_graph_type, symObjAddr: 0x5DD0, symBinAddr: 0x1E1D0, symSize: 0x1F0 }
  - { offset: 0x11524A, size: 0x8, addend: 0x0, symName: __ZN13llama_context6encodeERK11llama_batch, symObjAddr: 0x6120, symBinAddr: 0x1E520, symSize: 0xBB0 }
  - { offset: 0x117E3D, size: 0x8, addend: 0x0, symName: __ZN13llama_context6decodeERK11llama_batch, symObjAddr: 0x6D10, symBinAddr: 0x1F0D0, symSize: 0x1A80 }
  - { offset: 0x11ADC2, size: 0x8, addend: 0x0, symName: __ZL24copy_tensor_async_floatsRKNSt3__13mapIiP11ggml_tensorNS_4lessIiEENS_9allocatorINS_4pairIKiS2_EEEEEEPfmRNS_6vectorIjNS5_IjEEEERKNS0_IijS4_NS5_INS6_IS7_jEEEEEEP18ggml_backend_sched, symObjAddr: 0x8790, symBinAddr: 0x20B50, symSize: 0x1C0 }
  - { offset: 0x11B226, size: 0x8, addend: 0x0, symName: __ZNSt3__16__treeINS_12__value_typeIijEENS_19__map_value_compareIiS2_NS_4lessIiEELb1EEENS_9allocatorIS2_EEE7destroyEPNS_11__tree_nodeIS2_PvEE, symObjAddr: 0x112C0, symBinAddr: 0x28EE0, symSize: 0x40 }
  - { offset: 0x11B350, size: 0x8, addend: 0x0, symName: __ZNSt3__16vectorIN13llama_context9swap_infoENS_9allocatorIS2_EEE9push_backB8ne200100EOS2_, symObjAddr: 0x8950, symBinAddr: 0x20D10, symSize: 0x110 }
  - { offset: 0x11BA46, size: 0x8, addend: 0x0, symName: __ZNSt3__16vectorIN13llama_context9swap_infoENS_9allocatorIS2_EEE20__throw_length_errorB8ne200100Ev, symObjAddr: 0x11300, symBinAddr: 0x28F20, symSize: 0x10 }
  - { offset: 0x11BA5E, size: 0x8, addend: 0x0, symName: __ZNSt3__16vectorIjNS_9allocatorIjEEE8__appendEm, symObjAddr: 0x11310, symBinAddr: 0x28F30, symSize: 0x150 }
  - { offset: 0x11BA69, size: 0x8, addend: 0x0, symName: __ZNK13llama_context18get_gf_res_reserveEv, symObjAddr: 0x8A60, symBinAddr: 0x20E20, symSize: 0x10 }
  - { offset: 0x11BBAA, size: 0x8, addend: 0x0, symName: __ZN13llama_context14state_get_sizeEv, symObjAddr: 0x8A90, symBinAddr: 0x20E50, symSize: 0x90 }
  - { offset: 0x11BC6C, size: 0x8, addend: 0x0, symName: __ZN13llama_context16state_write_dataER16llama_io_write_i, symObjAddr: 0x8B20, symBinAddr: 0x20EE0, symSize: 0x360 }
  - { offset: 0x11C830, size: 0x8, addend: 0x0, symName: __ZN20llama_io_write_dummyD1Ev, symObjAddr: 0x8E80, symBinAddr: 0x21240, symSize: 0x10 }
  - { offset: 0x11C9A9, size: 0x8, addend: 0x0, symName: __ZN13llama_context14state_get_dataEPhm, symObjAddr: 0x8E90, symBinAddr: 0x21250, symSize: 0xA0 }
  - { offset: 0x11CAA7, size: 0x8, addend: 0x0, symName: __ZN21llama_io_write_bufferD1Ev, symObjAddr: 0x8F30, symBinAddr: 0x212F0, symSize: 0x10 }
  - { offset: 0x11CC1A, size: 0x8, addend: 0x0, symName: __ZN13llama_context14state_set_dataEPKhm, symObjAddr: 0x8F40, symBinAddr: 0x21300, symSize: 0xA0 }
  - { offset: 0x11CD18, size: 0x8, addend: 0x0, symName: __ZN13llama_context15state_read_dataER15llama_io_read_i, symObjAddr: 0x8FE0, symBinAddr: 0x213A0, symSize: 0x580 }
  - { offset: 0x11DE56, size: 0x8, addend: 0x0, symName: __ZN20llama_io_read_bufferD1Ev, symObjAddr: 0x9560, symBinAddr: 0x21920, symSize: 0x10 }
  - { offset: 0x11DEBF, size: 0x8, addend: 0x0, symName: __ZN13llama_context18state_seq_get_sizeEij, symObjAddr: 0x9570, symBinAddr: 0x21930, symSize: 0xB0 }
  - { offset: 0x11DFF3, size: 0x8, addend: 0x0, symName: __ZN13llama_context20state_seq_write_dataER16llama_io_write_iij, symObjAddr: 0x9620, symBinAddr: 0x219E0, symSize: 0x30 }
  - { offset: 0x11E06E, size: 0x8, addend: 0x0, symName: __ZN13llama_context18state_seq_get_dataEiPhmj, symObjAddr: 0x9650, symBinAddr: 0x21A10, symSize: 0xC0 }
  - { offset: 0x11E21B, size: 0x8, addend: 0x0, symName: __ZN13llama_context18state_seq_set_dataEiPKhmj, symObjAddr: 0x9710, symBinAddr: 0x21AD0, symSize: 0xC0 }
  - { offset: 0x11E38B, size: 0x8, addend: 0x0, symName: __ZN13llama_context19state_seq_read_dataER15llama_io_read_iij, symObjAddr: 0x97D0, symBinAddr: 0x21B90, symSize: 0x30 }
  - { offset: 0x11E859, size: 0x8, addend: 0x0, symName: __ZN13llama_context15state_load_fileEPKcPimPm, symObjAddr: 0x9800, symBinAddr: 0x21BC0, symSize: 0x1C0 }
  - { offset: 0x11ED12, size: 0x8, addend: 0x0, symName: __ZN18llama_io_read_fileD1Ev, symObjAddr: 0x99C0, symBinAddr: 0x21D80, symSize: 0x30 }
  - { offset: 0x11EFCD, size: 0x8, addend: 0x0, symName: __ZN13llama_context15state_save_fileEPKcPKim, symObjAddr: 0x99F0, symBinAddr: 0x21DB0, symSize: 0x110 }
  - { offset: 0x11F3C0, size: 0x8, addend: 0x0, symName: __ZN19llama_io_write_fileD1Ev, symObjAddr: 0x9B00, symBinAddr: 0x21EC0, symSize: 0x30 }
  - { offset: 0x11F511, size: 0x8, addend: 0x0, symName: __ZN13llama_context19state_seq_load_fileEiPKcPimPm, symObjAddr: 0x9B30, symBinAddr: 0x21EF0, symSize: 0x260 }
  - { offset: 0x11FA5C, size: 0x8, addend: 0x0, symName: __ZN13llama_context19state_seq_save_fileEiPKcPKim, symObjAddr: 0x9D90, symBinAddr: 0x22150, symSize: 0x180 }
  - { offset: 0x11FF11, size: 0x8, addend: 0x0, symName: __ZN19llama_io_write_file7n_bytesEv, symObjAddr: 0x9F10, symBinAddr: 0x222D0, symSize: 0x10 }
  - { offset: 0x11FF31, size: 0x8, addend: 0x0, symName: __ZNK13llama_context13perf_get_dataEv, symObjAddr: 0x9F20, symBinAddr: 0x222E0, symSize: 0xA0 }
  - { offset: 0x11FFF8, size: 0x8, addend: 0x0, symName: __ZN13llama_context10perf_resetEv, symObjAddr: 0x9FC0, symBinAddr: 0x22380, symSize: 0x40 }
  - { offset: 0x12078A, size: 0x8, addend: 0x0, symName: __ZNK13llama_context16memory_breakdownEv, symObjAddr: 0xA000, symBinAddr: 0x223C0, symSize: 0x4D0 }
  - { offset: 0x121B9E, size: 0x8, addend: 0x0, symName: __ZNSt3__16__treeINS_12__value_typeIP24ggml_backend_buffer_typemEENS_19__map_value_compareIS3_S4_NS_4lessIS3_EELb1EEENS_9allocatorIS4_EEE7destroyEPNS_11__tree_nodeIS4_PvEE, symObjAddr: 0x118F0, symBinAddr: 0x29510, symSize: 0x40 }
  - { offset: 0x121CCD, size: 0x8, addend: 0x0, symName: __ZNSt3__16__treeINS_12__value_typeIP24ggml_backend_buffer_type27llama_memory_breakdown_dataEENS_19__map_value_compareIS3_S5_NS_4lessIS3_EELb1EEENS_9allocatorIS5_EEE7destroyEPNS_11__tree_nodeIS5_PvEE, symObjAddr: 0x118B0, symBinAddr: 0x294D0, symSize: 0x40 }
  - { offset: 0x121E9D, size: 0x8, addend: 0x0, symName: __ZN13llama_context8opt_initEP11llama_model16llama_opt_params, symObjAddr: 0xA4D0, symBinAddr: 0x22890, symSize: 0x680 }
  - { offset: 0x122956, size: 0x8, addend: 0x0, symName: __ZN13llama_context14opt_epoch_iterEP16ggml_opt_datasetP15ggml_opt_resultRKNSt3__16vectorIiNS4_9allocatorIiEEEESA_R11llama_batchPFvbP16ggml_opt_contextS1_S3_xxxEbxxx, symObjAddr: 0xAB50, symBinAddr: 0x22F10, symSize: 0x940 }
  - { offset: 0x1239BC, size: 0x8, addend: 0x0, symName: __ZN13llama_context9opt_epochEP16ggml_opt_datasetP15ggml_opt_resultS3_xPFvbP16ggml_opt_contextS1_S3_xxxES7_, symObjAddr: 0xB490, symBinAddr: 0x23850, symSize: 0x3C0 }
  - { offset: 0x1245D3, size: 0x8, addend: 0x0, symName: _llama_context_default_params, symObjAddr: 0xB850, symBinAddr: 0x23C10, symSize: 0x30 }
  - { offset: 0x124631, size: 0x8, addend: 0x0, symName: _llama_init_from_model, symObjAddr: 0xB880, symBinAddr: 0x23C40, symSize: 0x240 }
  - { offset: 0x124830, size: 0x8, addend: 0x0, symName: _llama_new_context_with_model, symObjAddr: 0xBAC0, symBinAddr: 0x23E80, symSize: 0x10 }
  - { offset: 0x12489E, size: 0x8, addend: 0x0, symName: _llama_free, symObjAddr: 0xBAD0, symBinAddr: 0x23E90, symSize: 0x30 }
  - { offset: 0x1248F1, size: 0x8, addend: 0x0, symName: _llama_n_ctx, symObjAddr: 0xBB00, symBinAddr: 0x23EC0, symSize: 0x10 }
  - { offset: 0x124952, size: 0x8, addend: 0x0, symName: _llama_n_ctx_seq, symObjAddr: 0xBB10, symBinAddr: 0x23ED0, symSize: 0x10 }
  - { offset: 0x12499A, size: 0x8, addend: 0x0, symName: _llama_n_batch, symObjAddr: 0xBB20, symBinAddr: 0x23EE0, symSize: 0x10 }
  - { offset: 0x1249E2, size: 0x8, addend: 0x0, symName: _llama_n_ubatch, symObjAddr: 0xBB30, symBinAddr: 0x23EF0, symSize: 0x10 }
  - { offset: 0x124A2A, size: 0x8, addend: 0x0, symName: _llama_n_seq_max, symObjAddr: 0xBB40, symBinAddr: 0x23F00, symSize: 0x10 }
  - { offset: 0x124A8B, size: 0x8, addend: 0x0, symName: _llama_get_model, symObjAddr: 0xBB50, symBinAddr: 0x23F10, symSize: 0x10 }
  - { offset: 0x124AEC, size: 0x8, addend: 0x0, symName: _llama_pooling_type, symObjAddr: 0xBB60, symBinAddr: 0x23F20, symSize: 0x10 }
  - { offset: 0x124B65, size: 0x8, addend: 0x0, symName: _llama_attach_threadpool, symObjAddr: 0xBB70, symBinAddr: 0x23F30, symSize: 0x50 }
  - { offset: 0x124C06, size: 0x8, addend: 0x0, symName: _llama_detach_threadpool, symObjAddr: 0xBBC0, symBinAddr: 0x23F80, symSize: 0x40 }
  - { offset: 0x124C8F, size: 0x8, addend: 0x0, symName: _llama_set_n_threads, symObjAddr: 0xBC00, symBinAddr: 0x23FC0, symSize: 0x50 }
  - { offset: 0x124D3A, size: 0x8, addend: 0x0, symName: _llama_n_threads, symObjAddr: 0xBC50, symBinAddr: 0x24010, symSize: 0x10 }
  - { offset: 0x124D9B, size: 0x8, addend: 0x0, symName: _llama_n_threads_batch, symObjAddr: 0xBC60, symBinAddr: 0x24020, symSize: 0x10 }
  - { offset: 0x124E08, size: 0x8, addend: 0x0, symName: _llama_set_embeddings, symObjAddr: 0xBC70, symBinAddr: 0x24030, symSize: 0x40 }
  - { offset: 0x124EAA, size: 0x8, addend: 0x0, symName: _llama_set_causal_attn, symObjAddr: 0xBCB0, symBinAddr: 0x24070, symSize: 0x40 }
  - { offset: 0x124F46, size: 0x8, addend: 0x0, symName: _llama_set_warmup, symObjAddr: 0xBCF0, symBinAddr: 0x240B0, symSize: 0x40 }
  - { offset: 0x124FBD, size: 0x8, addend: 0x0, symName: _llama_synchronize, symObjAddr: 0xBD30, symBinAddr: 0x240F0, symSize: 0x10 }
  - { offset: 0x125013, size: 0x8, addend: 0x0, symName: _llama_get_logits, symObjAddr: 0xBD40, symBinAddr: 0x24100, symSize: 0x30 }
  - { offset: 0x125085, size: 0x8, addend: 0x0, symName: _llama_get_logits_ith, symObjAddr: 0xBD70, symBinAddr: 0x24130, symSize: 0x40 }
  - { offset: 0x125127, size: 0x8, addend: 0x0, symName: _llama_get_embeddings, symObjAddr: 0xBDB0, symBinAddr: 0x24170, symSize: 0x30 }
  - { offset: 0x125199, size: 0x8, addend: 0x0, symName: _llama_get_embeddings_ith, symObjAddr: 0xBDE0, symBinAddr: 0x241A0, symSize: 0x20 }
  - { offset: 0x125229, size: 0x8, addend: 0x0, symName: _llama_get_embeddings_seq, symObjAddr: 0xBE00, symBinAddr: 0x241C0, symSize: 0x60 }
  - { offset: 0x1253F6, size: 0x8, addend: 0x0, symName: _llama_set_sampler, symObjAddr: 0xBE60, symBinAddr: 0x24220, symSize: 0x10 }
  - { offset: 0x125463, size: 0x8, addend: 0x0, symName: _llama_get_sampled_token_ith, symObjAddr: 0xBE70, symBinAddr: 0x24230, symSize: 0x20 }
  - { offset: 0x1254C2, size: 0x8, addend: 0x0, symName: _llama_get_sampled_probs_ith, symObjAddr: 0xBE90, symBinAddr: 0x24250, symSize: 0x20 }
  - { offset: 0x125521, size: 0x8, addend: 0x0, symName: _llama_get_sampled_logits_ith, symObjAddr: 0xBEB0, symBinAddr: 0x24270, symSize: 0x20 }
  - { offset: 0x1255C4, size: 0x8, addend: 0x0, symName: _llama_get_sampled_candidates_ith, symObjAddr: 0xBED0, symBinAddr: 0x24290, symSize: 0xA0 }
  - { offset: 0x1256C1, size: 0x8, addend: 0x0, symName: _llama_get_sampled_candidates_count_ith, symObjAddr: 0xBF70, symBinAddr: 0x24330, symSize: 0x20 }
  - { offset: 0x125720, size: 0x8, addend: 0x0, symName: _llama_get_sampled_logits_count_ith, symObjAddr: 0xBF90, symBinAddr: 0x24350, symSize: 0x20 }
  - { offset: 0x12577F, size: 0x8, addend: 0x0, symName: _llama_get_sampled_probs_count_ith, symObjAddr: 0xBFB0, symBinAddr: 0x24370, symSize: 0x20 }
  - { offset: 0x12581D, size: 0x8, addend: 0x0, symName: _llama_set_adapter_lora, symObjAddr: 0xBFD0, symBinAddr: 0x24390, symSize: 0xA0 }
  - { offset: 0x1259C7, size: 0x8, addend: 0x0, symName: _llama_rm_adapter_lora, symObjAddr: 0xC070, symBinAddr: 0x24430, symSize: 0xA0 }
  - { offset: 0x125C8F, size: 0x8, addend: 0x0, symName: _llama_clear_adapter_lora, symObjAddr: 0xC110, symBinAddr: 0x244D0, symSize: 0x90 }
  - { offset: 0x125F15, size: 0x8, addend: 0x0, symName: _llama_apply_adapter_cvec, symObjAddr: 0xC1A0, symBinAddr: 0x24560, symSize: 0x80 }
  - { offset: 0x126023, size: 0x8, addend: 0x0, symName: _llama_get_memory, symObjAddr: 0xC220, symBinAddr: 0x245E0, symSize: 0x10 }
  - { offset: 0x12608B, size: 0x8, addend: 0x0, symName: _llama_memory_clear, symObjAddr: 0xC230, symBinAddr: 0x245F0, symSize: 0x20 }
  - { offset: 0x1260CE, size: 0x8, addend: 0x0, symName: _llama_memory_seq_rm, symObjAddr: 0xC250, symBinAddr: 0x24610, symSize: 0x20 }
  - { offset: 0x126132, size: 0x8, addend: 0x0, symName: _llama_memory_seq_cp, symObjAddr: 0xC270, symBinAddr: 0x24630, symSize: 0x20 }
  - { offset: 0x1261A1, size: 0x8, addend: 0x0, symName: _llama_memory_seq_keep, symObjAddr: 0xC290, symBinAddr: 0x24650, symSize: 0x20 }
  - { offset: 0x1261E3, size: 0x8, addend: 0x0, symName: _llama_memory_seq_add, symObjAddr: 0xC2B0, symBinAddr: 0x24670, symSize: 0x20 }
  - { offset: 0x126252, size: 0x8, addend: 0x0, symName: _llama_memory_seq_div, symObjAddr: 0xC2D0, symBinAddr: 0x24690, symSize: 0x20 }
  - { offset: 0x1262C1, size: 0x8, addend: 0x0, symName: _llama_memory_seq_pos_min, symObjAddr: 0xC2F0, symBinAddr: 0x246B0, symSize: 0x20 }
  - { offset: 0x126307, size: 0x8, addend: 0x0, symName: _llama_memory_seq_pos_max, symObjAddr: 0xC310, symBinAddr: 0x246D0, symSize: 0x20 }
  - { offset: 0x12634D, size: 0x8, addend: 0x0, symName: _llama_memory_can_shift, symObjAddr: 0xC330, symBinAddr: 0x246F0, symSize: 0x20 }
  - { offset: 0x12639F, size: 0x8, addend: 0x0, symName: _llama_get_state_size, symObjAddr: 0xC350, symBinAddr: 0x24710, symSize: 0x10 }
  - { offset: 0x1263FD, size: 0x8, addend: 0x0, symName: _llama_state_get_size, symObjAddr: 0xC360, symBinAddr: 0x24720, symSize: 0x10 }
  - { offset: 0x126462, size: 0x8, addend: 0x0, symName: _llama_copy_state_data, symObjAddr: 0xC370, symBinAddr: 0x24730, symSize: 0x30 }
  - { offset: 0x126500, size: 0x8, addend: 0x0, symName: _llama_state_get_data, symObjAddr: 0xC3A0, symBinAddr: 0x24760, symSize: 0x30 }
  - { offset: 0x126586, size: 0x8, addend: 0x0, symName: _llama_set_state_data, symObjAddr: 0xC3D0, symBinAddr: 0x24790, symSize: 0x30 }
  - { offset: 0x126624, size: 0x8, addend: 0x0, symName: _llama_state_set_data, symObjAddr: 0xC400, symBinAddr: 0x247C0, symSize: 0x30 }
  - { offset: 0x126677, size: 0x8, addend: 0x0, symName: _llama_load_session_file, symObjAddr: 0xC430, symBinAddr: 0x247F0, symSize: 0x10 }
  - { offset: 0x126710, size: 0x8, addend: 0x0, symName: _llama_state_load_file, symObjAddr: 0xC440, symBinAddr: 0x24800, symSize: 0xA0 }
  - { offset: 0x1267EC, size: 0x8, addend: 0x0, symName: _llama_save_session_file, symObjAddr: 0xC4E0, symBinAddr: 0x248A0, symSize: 0x10 }
  - { offset: 0x12686F, size: 0x8, addend: 0x0, symName: _llama_state_save_file, symObjAddr: 0xC4F0, symBinAddr: 0x248B0, symSize: 0xA0 }
  - { offset: 0x126968, size: 0x8, addend: 0x0, symName: _llama_state_seq_get_size, symObjAddr: 0xC590, symBinAddr: 0x24950, symSize: 0x10 }
  - { offset: 0x1269EF, size: 0x8, addend: 0x0, symName: _llama_state_seq_get_size_ext, symObjAddr: 0xC5A0, symBinAddr: 0x24960, symSize: 0x10 }
  - { offset: 0x126A88, size: 0x8, addend: 0x0, symName: _llama_state_seq_get_data, symObjAddr: 0xC5B0, symBinAddr: 0x24970, symSize: 0x40 }
  - { offset: 0x126B4E, size: 0x8, addend: 0x0, symName: _llama_state_seq_get_data_ext, symObjAddr: 0xC5F0, symBinAddr: 0x249B0, symSize: 0x50 }
  - { offset: 0x126BFE, size: 0x8, addend: 0x0, symName: _llama_state_seq_set_data, symObjAddr: 0xC640, symBinAddr: 0x24A00, symSize: 0x40 }
  - { offset: 0x126CC4, size: 0x8, addend: 0x0, symName: _llama_state_seq_set_data_ext, symObjAddr: 0xC680, symBinAddr: 0x24A40, symSize: 0x50 }
  - { offset: 0x126D29, size: 0x8, addend: 0x0, symName: _llama_state_seq_save_file, symObjAddr: 0xC6D0, symBinAddr: 0x24A90, symSize: 0xA0 }
  - { offset: 0x126E05, size: 0x8, addend: 0x0, symName: _llama_state_seq_load_file, symObjAddr: 0xC770, symBinAddr: 0x24B30, symSize: 0xB0 }
  - { offset: 0x126EF9, size: 0x8, addend: 0x0, symName: _llama_encode, symObjAddr: 0xC820, symBinAddr: 0x24BE0, symSize: 0x40 }
  - { offset: 0x126F73, size: 0x8, addend: 0x0, symName: _llama_decode, symObjAddr: 0xC860, symBinAddr: 0x24C20, symSize: 0x40 }
  - { offset: 0x127012, size: 0x8, addend: 0x0, symName: _llama_perf_context, symObjAddr: 0xC8A0, symBinAddr: 0x24C60, symSize: 0xB0 }
  - { offset: 0x12711A, size: 0x8, addend: 0x0, symName: _llama_perf_context_print, symObjAddr: 0xC950, symBinAddr: 0x24D10, symSize: 0x1D0 }
  - { offset: 0x127399, size: 0x8, addend: 0x0, symName: _llama_perf_context_reset, symObjAddr: 0xCB20, symBinAddr: 0x24EE0, symSize: 0x40 }
  - { offset: 0x1287E4, size: 0x8, addend: 0x0, symName: _llama_memory_breakdown_print, symObjAddr: 0xCB60, symBinAddr: 0x24F20, symSize: 0x2770 }
  - { offset: 0x12FE2B, size: 0x8, addend: 0x0, symName: __ZNSt3__15arrayINS_12basic_stringIcNS_11char_traitsIcEENS_9allocatorIcEEEELm9EED2Ev, symObjAddr: 0xFEB0, symBinAddr: 0x27FE0, symSize: 0x110 }
  - { offset: 0x12FF75, size: 0x8, addend: 0x0, symName: __ZNSt3__16__treeIP24ggml_backend_buffer_typeNS_4lessIS2_EENS_9allocatorIS2_EEE7destroyEPNS_11__tree_nodeIS2_PvEE, symObjAddr: 0x11A30, symBinAddr: 0x295D0, symSize: 0x40 }
  - { offset: 0x1300A1, size: 0x8, addend: 0x0, symName: __ZNSt3__16vectorINS_5arrayINS_12basic_stringIcNS_11char_traitsIcEENS_9allocatorIcEEEELm9EEENS5_IS8_EEE20__throw_length_errorB8ne200100Ev, symObjAddr: 0x11930, symBinAddr: 0x29550, symSize: 0x10 }
  - { offset: 0x1300C4, size: 0x8, addend: 0x0, symName: __ZNSt3__16vectorI27llama_memory_breakdown_dataNS_9allocatorIS1_EEE20__throw_length_errorB8ne200100Ev, symObjAddr: 0x11A70, symBinAddr: 0x29610, symSize: 0x10 }
  - { offset: 0x1300E7, size: 0x8, addend: 0x0, symName: __ZNSt3__128__exception_guard_exceptionsINS_6vectorINS_12basic_stringIcNS_11char_traitsIcEENS_9allocatorIcEEEENS5_IS7_EEE16__destroy_vectorEED1B8ne200100Ev, symObjAddr: 0x119C0, symBinAddr: 0x29560, symSize: 0x70 }
  - { offset: 0x130345, size: 0x8, addend: 0x0, symName: _llama_memory_breakdown_print.cold.1, symObjAddr: 0x11B10, symBinAddr: 0x2BB600, symSize: 0x30 }
  - { offset: 0x130418, size: 0x8, addend: 0x0, symName: _llama_memory_breakdown_print.cold.2, symObjAddr: 0x11B40, symBinAddr: 0x2BB630, symSize: 0x2B }
  - { offset: 0x1304EB, size: 0x8, addend: 0x0, symName: __ZNSt3__16vectorINS_12basic_stringIcNS_11char_traitsIcEENS_9allocatorIcEEEENS4_IS6_EEED1B8ne200100Ev, symObjAddr: 0xF2D0, symBinAddr: 0x27690, symSize: 0x70 }
  - { offset: 0x130749, size: 0x8, addend: 0x0, symName: __ZNSt3__16vectorINS_5arrayINS_12basic_stringIcNS_11char_traitsIcEENS_9allocatorIcEEEELm9EEENS5_IS8_EEED1B8ne200100Ev, symObjAddr: 0xF340, symBinAddr: 0x27700, symSize: 0x70 }
  - { offset: 0x1308F9, size: 0x8, addend: 0x0, symName: _llama_opt_param_filter_all, symObjAddr: 0xF3B0, symBinAddr: 0x27770, symSize: 0x10 }
  - { offset: 0x130933, size: 0x8, addend: 0x0, symName: _llama_opt_init, symObjAddr: 0xF3C0, symBinAddr: 0x27780, symSize: 0x10 }
  - { offset: 0x130996, size: 0x8, addend: 0x0, symName: _llama_opt_epoch, symObjAddr: 0xF3D0, symBinAddr: 0x27790, symSize: 0x10 }
  - { offset: 0x1316D2, size: 0x8, addend: 0x0, symName: __ZN20llama_io_write_dummyD0Ev, symObjAddr: 0xF8C0, symBinAddr: 0x27A80, symSize: 0x10 }
  - { offset: 0x1316FE, size: 0x8, addend: 0x0, symName: __ZN20llama_io_write_dummy5writeEPKvm, symObjAddr: 0xF8D0, symBinAddr: 0x27A90, symSize: 0x10 }
  - { offset: 0x13173D, size: 0x8, addend: 0x0, symName: __ZN20llama_io_write_dummy12write_tensorEPK11ggml_tensormm, symObjAddr: 0xF8E0, symBinAddr: 0x27AA0, symSize: 0x10 }
  - { offset: 0x131787, size: 0x8, addend: 0x0, symName: __ZN20llama_io_write_dummy7n_bytesEv, symObjAddr: 0xF8F0, symBinAddr: 0x27AB0, symSize: 0x10 }
  - { offset: 0x1317AC, size: 0x8, addend: 0x0, symName: __ZN21llama_io_write_bufferD0Ev, symObjAddr: 0xF900, symBinAddr: 0x27AC0, symSize: 0x10 }
  - { offset: 0x1317D8, size: 0x8, addend: 0x0, symName: __ZN21llama_io_write_buffer5writeEPKvm, symObjAddr: 0xF910, symBinAddr: 0x27AD0, symSize: 0x80 }
  - { offset: 0x13181F, size: 0x8, addend: 0x0, symName: __ZN21llama_io_write_buffer12write_tensorEPK11ggml_tensormm, symObjAddr: 0xF990, symBinAddr: 0x27B50, symSize: 0x80 }
  - { offset: 0x1318A0, size: 0x8, addend: 0x0, symName: __ZN21llama_io_write_buffer7n_bytesEv, symObjAddr: 0xFA10, symBinAddr: 0x27BD0, symSize: 0x10 }
  - { offset: 0x1318C5, size: 0x8, addend: 0x0, symName: __ZN20llama_io_read_bufferD0Ev, symObjAddr: 0xFA20, symBinAddr: 0x27BE0, symSize: 0x10 }
  - { offset: 0x1318F1, size: 0x8, addend: 0x0, symName: __ZN20llama_io_read_buffer4readEm, symObjAddr: 0xFA30, symBinAddr: 0x27BF0, symSize: 0x70 }
  - { offset: 0x131938, size: 0x8, addend: 0x0, symName: __ZN20llama_io_read_buffer7read_toEPvm, symObjAddr: 0xFAA0, symBinAddr: 0x27C60, symSize: 0x30 }
  - { offset: 0x13199A, size: 0x8, addend: 0x0, symName: __ZN20llama_io_read_buffer7n_bytesEv, symObjAddr: 0xFAD0, symBinAddr: 0x27C90, symSize: 0x10 }
  - { offset: 0x1319BF, size: 0x8, addend: 0x0, symName: __ZN18llama_io_read_fileD0Ev, symObjAddr: 0xFAE0, symBinAddr: 0x27CA0, symSize: 0x40 }
  - { offset: 0x1319EF, size: 0x8, addend: 0x0, symName: __ZN18llama_io_read_fileD0Ev, symObjAddr: 0xFAE0, symBinAddr: 0x27CA0, symSize: 0x40 }
  - { offset: 0x131A0D, size: 0x8, addend: 0x0, symName: __ZN18llama_io_read_fileD0Ev, symObjAddr: 0xFAE0, symBinAddr: 0x27CA0, symSize: 0x40 }
  - { offset: 0x131F29, size: 0x8, addend: 0x0, symName: __ZN18llama_io_read_file4readEm, symObjAddr: 0xFB20, symBinAddr: 0x27CE0, symSize: 0x120 }
  - { offset: 0x13246B, size: 0x8, addend: 0x0, symName: __ZN18llama_io_read_file7read_toEPvm, symObjAddr: 0xFC40, symBinAddr: 0x27E00, symSize: 0x20 }
  - { offset: 0x1324B2, size: 0x8, addend: 0x0, symName: __ZN18llama_io_read_file7n_bytesEv, symObjAddr: 0xFC60, symBinAddr: 0x27E20, symSize: 0x10 }
  - { offset: 0x13253C, size: 0x8, addend: 0x0, symName: __ZN19llama_io_write_fileD0Ev, symObjAddr: 0xFD00, symBinAddr: 0x27E30, symSize: 0x40 }
  - { offset: 0x13256C, size: 0x8, addend: 0x0, symName: __ZN19llama_io_write_fileD0Ev, symObjAddr: 0xFD00, symBinAddr: 0x27E30, symSize: 0x40 }
  - { offset: 0x13258A, size: 0x8, addend: 0x0, symName: __ZN19llama_io_write_fileD0Ev, symObjAddr: 0xFD00, symBinAddr: 0x27E30, symSize: 0x40 }
  - { offset: 0x1326D2, size: 0x8, addend: 0x0, symName: __ZN19llama_io_write_file5writeEPKvm, symObjAddr: 0xFD40, symBinAddr: 0x27E70, symSize: 0x20 }
  - { offset: 0x13277B, size: 0x8, addend: 0x0, symName: __ZN19llama_io_write_file12write_tensorEPK11ggml_tensormm, symObjAddr: 0xFD60, symBinAddr: 0x27E90, symSize: 0x150 }
  - { offset: 0x1334DF, size: 0x8, addend: 0x0, symName: __ZNSt3__112__hash_tableINS_17__hash_value_typeIP18llama_adapter_lorafEENS_22__unordered_map_hasherIS3_S4_NS_4hashIS3_EENS_8equal_toIS3_EELb1EEENS_21__unordered_map_equalIS3_S4_S9_S7_Lb1EEENS_9allocatorIS4_EEE11__do_rehashILb1EEEvm, symObjAddr: 0x10B80, symBinAddr: 0x28B30, symSize: 0x1B0 }
  - { offset: 0x134157, size: 0x8, addend: 0x0, symName: __ZNSt3__16__treeINS_12__value_typeIijEENS_19__map_value_compareIiS2_NS_4lessIiEELb1EEENS_9allocatorIS2_EEE7destroyEPNS_11__tree_nodeIS2_PvEE, symObjAddr: 0x112C0, symBinAddr: 0x28EE0, symSize: 0x40 }
  - { offset: 0x134475, size: 0x8, addend: 0x0, symName: __ZNSt3__16vectorIjNS_9allocatorIjEEE20__throw_length_errorB8ne200100Ev, symObjAddr: 0x11460, symBinAddr: 0x29080, symSize: 0x10 }
  - { offset: 0x13448D, size: 0x8, addend: 0x0, symName: __ZNSt3__13mapIiP13llama_samplerNS_4lessIiEENS_9allocatorINS_4pairIKiS2_EEEEE6insertB8ne200100INS_20__map_const_iteratorINS_21__tree_const_iteratorINS_12__value_typeIiS2_EEPNS_11__tree_nodeISF_PvEElEEEEEEvT_SM_, symObjAddr: 0x11470, symBinAddr: 0x29090, symSize: 0x110 }
  - { offset: 0x1346CD, size: 0x8, addend: 0x0, symName: __ZNSt3__16__treeINS_12__value_typeIiP13llama_samplerEENS_19__map_value_compareIiS4_NS_4lessIiEELb1EEENS_9allocatorIS4_EEE12__find_equalIiEERPNS_16__tree_node_baseIPvEENS_21__tree_const_iteratorIS4_PNS_11__tree_nodeIS4_SE_EElEERPNS_15__tree_end_nodeISG_EESH_RKT_, symObjAddr: 0x11580, symBinAddr: 0x291A0, symSize: 0x160 }
  - { offset: 0x134B0C, size: 0x8, addend: 0x0, symName: '__ZNSt3__110__function6__funcIZNK13llama_context12graph_get_cbEvE3$_0NS_9allocatorIS3_EEFvRK12llama_ubatchP11ggml_tensorPKciEED1Ev', symObjAddr: 0x116E0, symBinAddr: 0x29300, symSize: 0x10 }
  - { offset: 0x134B36, size: 0x8, addend: 0x0, symName: '__ZNSt3__110__function6__funcIZNK13llama_context12graph_get_cbEvE3$_0NS_9allocatorIS3_EEFvRK12llama_ubatchP11ggml_tensorPKciEED0Ev', symObjAddr: 0x116F0, symBinAddr: 0x29310, symSize: 0x10 }
  - { offset: 0x134C4D, size: 0x8, addend: 0x0, symName: '__ZNKSt3__110__function6__funcIZNK13llama_context12graph_get_cbEvE3$_0NS_9allocatorIS3_EEFvRK12llama_ubatchP11ggml_tensorPKciEE7__cloneEv', symObjAddr: 0x11700, symBinAddr: 0x29320, symSize: 0x30 }
  - { offset: 0x134E3C, size: 0x8, addend: 0x0, symName: '__ZNKSt3__110__function6__funcIZNK13llama_context12graph_get_cbEvE3$_0NS_9allocatorIS3_EEFvRK12llama_ubatchP11ggml_tensorPKciEE7__cloneEPNS0_6__baseISD_EE', symObjAddr: 0x11730, symBinAddr: 0x29350, symSize: 0x20 }
  - { offset: 0x134EE7, size: 0x8, addend: 0x0, symName: '__ZNSt3__110__function6__funcIZNK13llama_context12graph_get_cbEvE3$_0NS_9allocatorIS3_EEFvRK12llama_ubatchP11ggml_tensorPKciEE7destroyEv', symObjAddr: 0x11750, symBinAddr: 0x29370, symSize: 0x10 }
  - { offset: 0x134F3C, size: 0x8, addend: 0x0, symName: '__ZNSt3__110__function6__funcIZNK13llama_context12graph_get_cbEvE3$_0NS_9allocatorIS3_EEFvRK12llama_ubatchP11ggml_tensorPKciEE18destroy_deallocateEv', symObjAddr: 0x11760, symBinAddr: 0x29380, symSize: 0x10 }
  - { offset: 0x135132, size: 0x8, addend: 0x0, symName: '__ZNSt3__110__function6__funcIZNK13llama_context12graph_get_cbEvE3$_0NS_9allocatorIS3_EEFvRK12llama_ubatchP11ggml_tensorPKciEEclES8_OSA_OSC_Oi', symObjAddr: 0x11770, symBinAddr: 0x29390, symSize: 0x110 }
  - { offset: 0x135461, size: 0x8, addend: 0x0, symName: '__ZNKSt3__110__function6__funcIZNK13llama_context12graph_get_cbEvE3$_0NS_9allocatorIS3_EEFvRK12llama_ubatchP11ggml_tensorPKciEE6targetERKSt9type_info', symObjAddr: 0x11880, symBinAddr: 0x294A0, symSize: 0x20 }
  - { offset: 0x1354D1, size: 0x8, addend: 0x0, symName: '__ZNKSt3__110__function6__funcIZNK13llama_context12graph_get_cbEvE3$_0NS_9allocatorIS3_EEFvRK12llama_ubatchP11ggml_tensorPKciEE11target_typeEv', symObjAddr: 0x118A0, symBinAddr: 0x294C0, symSize: 0x10 }
  - { offset: 0x137686, size: 0x8, addend: 0x0, symName: _llama_max_parallel_sequences, symObjAddr: 0x0, symBinAddr: 0x29620, symSize: 0xB }
  - { offset: 0x137694, size: 0x8, addend: 0x0, symName: _llama_max_parallel_sequences, symObjAddr: 0x0, symBinAddr: 0x29620, symSize: 0xB }
  - { offset: 0x1377EA, size: 0x8, addend: 0x0, symName: __ZNK29llama_grammar_trigger_pattern4findERKNSt3__112basic_stringIcNS0_11char_traitsIcEENS0_9allocatorIcEEEE, symObjAddr: 0x0, symBinAddr: 0x29630, symSize: 0x3F0 }
  - { offset: 0x13C8FB, size: 0x8, addend: 0x0, symName: __ZNSt3__119piecewise_constructE, symObjAddr: 0x19D80, symBinAddr: 0x2BEF90, symSize: 0x0 }
  - { offset: 0x15A7B5, size: 0x8, addend: 0x0, symName: __ZNSt3__1plB8ne200100IcNS_11char_traitsIcEENS_9allocatorIcEEEENS_12basic_stringIT_T0_T1_EEOS9_SA_, symObjAddr: 0x770, symBinAddr: 0x29DA0, symSize: 0x60 }
  - { offset: 0x15D595, size: 0x8, addend: 0x0, symName: __ZNSt3__135__uninitialized_allocator_copy_implB8ne200100INS_9allocatorINS_6vectorI21llama_grammar_elementNS1_IS3_EEEEEEPS5_S7_S7_EET2_RT_T0_T1_S8_, symObjAddr: 0x17F70, symBinAddr: 0x41120, symSize: 0x100 }
  - { offset: 0x15DAC7, size: 0x8, addend: 0x0, symName: __ZNSt3__135__uninitialized_allocator_copy_implB8ne200100INS_9allocatorINS_6vectorIPK21llama_grammar_elementNS1_IS5_EEEEEEPS7_S9_S9_EET2_RT_T0_T1_SA_, symObjAddr: 0x18130, symBinAddr: 0x412E0, symSize: 0x100 }
  - { offset: 0x15DFF9, size: 0x8, addend: 0x0, symName: __ZNSt3__130__uninitialized_allocator_copyB8ne200100INS_9allocatorI29llama_grammar_trigger_patternEEPS2_S4_S4_EET2_RT_T0_T1_S5_, symObjAddr: 0x18290, symBinAddr: 0x41440, symSize: 0x110 }
  - { offset: 0x15F6DA, size: 0x8, addend: 0x0, symName: __ZNSt3__119__throw_regex_errorB8ne200100ILNS_15regex_constants10error_typeE12EEEvv, symObjAddr: 0xD400, symBinAddr: 0x36840, symSize: 0x50 }
  - { offset: 0x15F700, size: 0x8, addend: 0x0, symName: __ZNSt3__119__throw_regex_errorB8ne200100ILNS_15regex_constants10error_typeE16EEEvv, symObjAddr: 0xD450, symBinAddr: 0x36890, symSize: 0x50 }
  - { offset: 0x161111, size: 0x8, addend: 0x0, symName: __ZNSt3__134__uninitialized_allocator_relocateB8ne200100INS_9allocatorI29llama_grammar_trigger_patternEEPS2_EEvRT_T0_S7_S7_, symObjAddr: 0x10050, symBinAddr: 0x39300, symSize: 0x120 }
  - { offset: 0x16116C, size: 0x8, addend: 0x0, symName: __ZNSt3__134__uninitialized_allocator_relocateB8ne200100INS_9allocatorI29llama_grammar_trigger_patternEEPS2_EEvRT_T0_S7_S7_, symObjAddr: 0x10050, symBinAddr: 0x39300, symSize: 0x120 }
  - { offset: 0x161854, size: 0x8, addend: 0x0, symName: __ZNSt3__119__throw_regex_errorB8ne200100ILNS_15regex_constants10error_typeE17EEEvv, symObjAddr: 0x104A0, symBinAddr: 0x39750, symSize: 0x50 }
  - { offset: 0x161F8F, size: 0x8, addend: 0x0, symName: __ZNSt3__119__throw_regex_errorB8ne200100ILNS_15regex_constants10error_typeE14EEEvv, symObjAddr: 0x10DE0, symBinAddr: 0x3A090, symSize: 0x50 }
  - { offset: 0x162278, size: 0x8, addend: 0x0, symName: __ZNSt3__119__throw_regex_errorB8ne200100ILNS_15regex_constants10error_typeE15EEEvv, symObjAddr: 0x17270, symBinAddr: 0x404A0, symSize: 0x50 }
  - { offset: 0x162614, size: 0x8, addend: 0x0, symName: __ZNSt3__119__throw_regex_errorB8ne200100ILNS_15regex_constants10error_typeE6EEEvv, symObjAddr: 0x11A30, symBinAddr: 0x3ACE0, symSize: 0x50 }
  - { offset: 0x1627C3, size: 0x8, addend: 0x0, symName: __ZNSt3__119__throw_regex_errorB8ne200100ILNS_15regex_constants10error_typeE11EEEvv, symObjAddr: 0x122C0, symBinAddr: 0x3B570, symSize: 0x50 }
  - { offset: 0x162807, size: 0x8, addend: 0x0, symName: __ZNSt3__119__throw_regex_errorB8ne200100ILNS_15regex_constants10error_typeE8EEEvv, symObjAddr: 0x16BC0, symBinAddr: 0x3FDF0, symSize: 0x50 }
  - { offset: 0x16282D, size: 0x8, addend: 0x0, symName: __ZNSt3__119__throw_regex_errorB8ne200100ILNS_15regex_constants10error_typeE7EEEvv, symObjAddr: 0x16C10, symBinAddr: 0x3FE40, symSize: 0x50 }
  - { offset: 0x16297C, size: 0x8, addend: 0x0, symName: __ZNSt3__119__throw_regex_errorB8ne200100ILNS_15regex_constants10error_typeE4EEEvv, symObjAddr: 0x12DC0, symBinAddr: 0x3C070, symSize: 0x50 }
  - { offset: 0x1629A2, size: 0x8, addend: 0x0, symName: __ZNSt3__119__throw_regex_errorB8ne200100ILNS_15regex_constants10error_typeE3EEEvv, symObjAddr: 0x12530, symBinAddr: 0x3B7E0, symSize: 0x50 }
  - { offset: 0x1629C8, size: 0x8, addend: 0x0, symName: __ZNSt3__119__throw_regex_errorB8ne200100ILNS_15regex_constants10error_typeE5EEEvv, symObjAddr: 0x14A30, symBinAddr: 0x3DC60, symSize: 0x50 }
  - { offset: 0x1635DC, size: 0x8, addend: 0x0, symName: __ZNSt3__119__throw_regex_errorB8ne200100ILNS_15regex_constants10error_typeE1EEEvv, symObjAddr: 0x15D20, symBinAddr: 0x3EF50, symSize: 0x50 }
  - { offset: 0x163602, size: 0x8, addend: 0x0, symName: __ZNSt3__119__throw_regex_errorB8ne200100ILNS_15regex_constants10error_typeE2EEEvv, symObjAddr: 0x16310, symBinAddr: 0x3F540, symSize: 0x50 }
  - { offset: 0x163664, size: 0x8, addend: 0x0, symName: __ZNSt3__119__throw_regex_errorB8ne200100ILNS_15regex_constants10error_typeE9EEEvv, symObjAddr: 0x168C0, symBinAddr: 0x3FAF0, symSize: 0x50 }
  - { offset: 0x1653FD, size: 0x8, addend: 0x0, symName: __ZL11decode_utf8RKNSt3__112basic_stringIcNS_11char_traitsIcEENS_9allocatorIcEEEE18llama_partial_utf8, symObjAddr: 0x9230, symBinAddr: 0x327D0, symSize: 0x5E0 }
  - { offset: 0x165427, size: 0x8, addend: 0x0, symName: __ZZL11decode_utf8RKNSt3__112basic_stringIcNS_11char_traitsIcEENS_9allocatorIcEEEE18llama_partial_utf8E6lookup, symObjAddr: 0x19D40, symBinAddr: 0x2BEF50, symSize: 0x0 }
  - { offset: 0x168BC9, size: 0x8, addend: 0x0, symName: __ZNK29llama_grammar_trigger_pattern4findERKNSt3__112basic_stringIcNS0_11char_traitsIcEENS0_9allocatorIcEEEE, symObjAddr: 0x0, symBinAddr: 0x29630, symSize: 0x3F0 }
  - { offset: 0x169EB7, size: 0x8, addend: 0x0, symName: __ZNKSt3__111basic_regexIcNS_12regex_traitsIcEEE8__searchINS_9allocatorINS_9sub_matchIPKcEEEEEEbS8_S8_RNS_13match_resultsIS8_T_EENS_15regex_constants15match_flag_typeE, symObjAddr: 0xB680, symBinAddr: 0x34AC0, symSize: 0x340 }
  - { offset: 0x16A427, size: 0x8, addend: 0x0, symName: __ZNSt3__113match_resultsINS_11__wrap_iterIPKcEENS_9allocatorINS_9sub_matchIS4_EEEEE8__assignB8ne200100IS3_NS5_INS6_IS3_EEEEEEvS4_S4_RKNS0_IT_T0_EEb, symObjAddr: 0xB9C0, symBinAddr: 0x34E00, symSize: 0x170 }
  - { offset: 0x16B7C3, size: 0x8, addend: 0x0, symName: __ZN20llama_grammar_parser13get_symbol_idEPKcm, symObjAddr: 0x3F0, symBinAddr: 0x29A20, symSize: 0xE0 }
  - { offset: 0x16BD5B, size: 0x8, addend: 0x0, symName: __ZNSt3__16__treeINS_12__value_typeINS_12basic_stringIcNS_11char_traitsIcEENS_9allocatorIcEEEEjEENS_19__map_value_compareIS7_S8_NS_4lessIS7_EELb1EEENS5_IS8_EEE25__emplace_unique_key_argsIS7_JS7_RjEEENS_4pairINS_15__tree_iteratorIS8_PNS_11__tree_nodeIS8_PvEElEEbEERKT_DpOT0_, symObjAddr: 0xF3C0, symBinAddr: 0x38800, symSize: 0x190 }
  - { offset: 0x16C35C, size: 0x8, addend: 0x0, symName: __ZNKSt3__111basic_regexIcNS_12regex_traitsIcEEE8__searchINS_9allocatorINS_9sub_matchIPKcEEEEEEbS8_S8_RNS_13match_resultsIS8_T_EENS_15regex_constants15match_flag_typeE, symObjAddr: 0xB680, symBinAddr: 0x34AC0, symSize: 0x340 }
  - { offset: 0x16C367, size: 0x8, addend: 0x0, symName: __ZNSt3__112basic_stringIcNS_11char_traitsIcEENS_9allocatorIcEEEC1B8ne200100EPKcm, symObjAddr: 0x4D0, symBinAddr: 0x29B00, symSize: 0x90 }
  - { offset: 0x16C78A, size: 0x8, addend: 0x0, symName: __ZN20llama_grammar_parser18generate_symbol_idERKNSt3__112basic_stringIcNS0_11char_traitsIcEENS0_9allocatorIcEEEE, symObjAddr: 0x560, symBinAddr: 0x29B90, symSize: 0x210 }
  - { offset: 0x16D271, size: 0x8, addend: 0x0, symName: __ZNSt3__16__treeINS_12__value_typeINS_12basic_stringIcNS_11char_traitsIcEENS_9allocatorIcEEEEjEENS_19__map_value_compareIS7_S8_NS_4lessIS7_EELb1EEENS5_IS8_EEE25__emplace_unique_key_argsIS7_JRKNS_21piecewise_construct_tENS_5tupleIJOS7_EEENSJ_IJEEEEEENS_4pairINS_15__tree_iteratorIS8_PNS_11__tree_nodeIS8_PvEElEEbEERKT_DpOT0_, symObjAddr: 0xF6D0, symBinAddr: 0x38990, symSize: 0x190 }
  - { offset: 0x16DAEE, size: 0x8, addend: 0x0, symName: __ZN20llama_grammar_parser8add_ruleEjRKNSt3__16vectorI21llama_grammar_elementNS0_9allocatorIS2_EEEE, symObjAddr: 0x7D0, symBinAddr: 0x29E00, symSize: 0xE0 }
  - { offset: 0x16DDFA, size: 0x8, addend: 0x0, symName: __ZNSt3__16vectorINS0_I21llama_grammar_elementNS_9allocatorIS1_EEEENS2_IS4_EEE8__appendEm, symObjAddr: 0xF860, symBinAddr: 0x38B20, symSize: 0x1A0 }
  - { offset: 0x16E26E, size: 0x8, addend: 0x0, symName: __ZNSt3__16vectorI21llama_grammar_elementNS_9allocatorIS1_EEE18__assign_with_sizeB8ne200100IPS1_S6_EEvT_T0_l, symObjAddr: 0xFA10, symBinAddr: 0x38CD0, symSize: 0x140 }
  - { offset: 0x16ECC7, size: 0x8, addend: 0x0, symName: __ZNSt3__16__treeINS_12__value_typeIjNS_12basic_stringIcNS_11char_traitsIcEENS_9allocatorIcEEEEEENS_19__map_value_compareIjS8_NS_4lessIjEELb1EEENS5_IS8_EEE7destroyEPNS_11__tree_nodeIS8_PvEE, symObjAddr: 0xFB50, symBinAddr: 0x38E10, symSize: 0x50 }
  - { offset: 0x16F081, size: 0x8, addend: 0x0, symName: __ZN20llama_grammar_parser16parse_alternatesEPKcRKNSt3__112basic_stringIcNS2_11char_traitsIcEENS2_9allocatorIcEEEEjb, symObjAddr: 0x8B0, symBinAddr: 0x29EE0, symSize: 0x3B0 }
  - { offset: 0x16FF1C, size: 0x8, addend: 0x0, symName: __ZN20llama_grammar_parser14parse_sequenceEPKcRKNSt3__112basic_stringIcNS2_11char_traitsIcEENS2_9allocatorIcEEEERNS2_6vectorI21llama_grammar_elementNS6_ISC_EEEEb, symObjAddr: 0xC60, symBinAddr: 0x2A290, symSize: 0x1F90 }
  - { offset: 0x173792, size: 0x8, addend: 0x0, symName: __ZNSt3__16vectorI21llama_grammar_elementNS_9allocatorIS1_EEE20__throw_length_errorB8ne200100Ev, symObjAddr: 0xAB50, symBinAddr: 0x340F0, symSize: 0x10 }
  - { offset: 0x173934, size: 0x8, addend: 0x0, symName: __ZL10parse_charPKc, symObjAddr: 0x2BF0, symBinAddr: 0x2C220, symSize: 0x380 }
  - { offset: 0x173C37, size: 0x8, addend: 0x0, symName: __ZL9parse_intPKc, symObjAddr: 0x3A40, symBinAddr: 0x2CFE0, symSize: 0x120 }
  - { offset: 0x173EDC, size: 0x8, addend: 0x0, symName: __ZL10parse_namePKc, symObjAddr: 0x2F70, symBinAddr: 0x2C5A0, symSize: 0x140 }
  - { offset: 0x1741A7, size: 0x8, addend: 0x0, symName: '__ZZN20llama_grammar_parser14parse_sequenceEPKcRKNSt3__112basic_stringIcNS2_11char_traitsIcEENS2_9allocatorIcEEEERNS2_6vectorI21llama_grammar_elementNS6_ISC_EEEEbENK3$_0clEyy', symObjAddr: 0x3140, symBinAddr: 0x2C6E0, symSize: 0x900 }
  - { offset: 0x176398, size: 0x8, addend: 0x0, symName: __ZL9parse_hexPKci, symObjAddr: 0xA930, symBinAddr: 0x33ED0, symSize: 0x220 }
  - { offset: 0x176EDB, size: 0x8, addend: 0x0, symName: __ZNSt3__16vectorI21llama_grammar_elementNS_9allocatorIS1_EEE18__insert_with_sizeB8ne200100INS_11__wrap_iterIPS1_EES8_EES8_NS6_IPKS1_EET_T0_l, symObjAddr: 0xAD70, symBinAddr: 0x34250, symSize: 0x450 }
  - { offset: 0x177B82, size: 0x8, addend: 0x0, symName: __ZNSt3__16vectorI21llama_grammar_elementNS_9allocatorIS1_EEE8__appendEm, symObjAddr: 0xAC20, symBinAddr: 0x34100, symSize: 0x150 }
  - { offset: 0x177F8B, size: 0x8, addend: 0x0, symName: __ZN20llama_grammar_parser10parse_ruleEPKc, symObjAddr: 0x3B60, symBinAddr: 0x2D100, symSize: 0x390 }
  - { offset: 0x178862, size: 0x8, addend: 0x0, symName: __ZN20llama_grammar_parser5parseEPKc, symObjAddr: 0x3EF0, symBinAddr: 0x2D490, symSize: 0x340 }
  - { offset: 0x1797A4, size: 0x8, addend: 0x0, symName: __ZN20llama_grammar_parser5printEP7__sFILE, symObjAddr: 0x4230, symBinAddr: 0x2D7D0, symSize: 0x970 }
  - { offset: 0x17AAFF, size: 0x8, addend: 0x0, symName: __ZNSt3__16__treeINS_12__value_typeIjNS_12basic_stringIcNS_11char_traitsIcEENS_9allocatorIcEEEEEENS_19__map_value_compareIjS8_NS_4lessIjEELb1EEENS5_IS8_EEE7destroyEPNS_11__tree_nodeIS8_PvEE, symObjAddr: 0xFB50, symBinAddr: 0x38E10, symSize: 0x50 }
  - { offset: 0x17B231, size: 0x8, addend: 0x0, symName: __ZNK20llama_grammar_parser7c_rulesEv, symObjAddr: 0x4BA0, symBinAddr: 0x2E140, symSize: 0x230 }
  - { offset: 0x17B9E9, size: 0x8, addend: 0x0, symName: __ZNSt3__16vectorIPK21llama_grammar_elementNS_9allocatorIS3_EEE20__throw_length_errorB8ne200100Ev, symObjAddr: 0xFBA0, symBinAddr: 0x38E60, symSize: 0x10 }
  - { offset: 0x17BA01, size: 0x8, addend: 0x0, symName: __ZNSt3__16vectorI23llama_grammar_candidateNS_9allocatorIS1_EEE20__throw_length_errorB8ne200100Ev, symObjAddr: 0xFBB0, symBinAddr: 0x38E70, symSize: 0x10 }
  - { offset: 0x17BA0C, size: 0x8, addend: 0x0, symName: __Z23llama_grammar_get_rulesPK13llama_grammar, symObjAddr: 0x4DD0, symBinAddr: 0x2E370, symSize: 0x10 }
  - { offset: 0x17BA3B, size: 0x8, addend: 0x0, symName: __Z24llama_grammar_get_stacksP13llama_grammar, symObjAddr: 0x4DE0, symBinAddr: 0x2E380, symSize: 0x10 }
  - { offset: 0x17BD5D, size: 0x8, addend: 0x0, symName: __Z20llama_grammar_acceptP13llama_grammarj, symObjAddr: 0x4DF0, symBinAddr: 0x2E390, symSize: 0x160 }
  - { offset: 0x17C357, size: 0x8, addend: 0x0, symName: __ZL24llama_grammar_accept_chrR13llama_grammarRKNSt3__16vectorIPK21llama_grammar_elementNS1_9allocatorIS5_EEEEjRNS2_IS8_NS6_IS8_EEEE, symObjAddr: 0x4F50, symBinAddr: 0x2E4F0, symSize: 0x280 }
  - { offset: 0x17CC79, size: 0x8, addend: 0x0, symName: __ZNSt3__16vectorINS0_IPK21llama_grammar_elementNS_9allocatorIS3_EEEENS4_IS6_EEE20__throw_length_errorB8ne200100Ev, symObjAddr: 0xB440, symBinAddr: 0x348A0, symSize: 0x10 }
  - { offset: 0x17CC91, size: 0x8, addend: 0x0, symName: __ZNSt3__110shared_ptrINS_13__empty_stateIcEEED1B8ne200100Ev, symObjAddr: 0xB450, symBinAddr: 0x348B0, symSize: 0x40 }
  - { offset: 0x17CC9C, size: 0x8, addend: 0x0, symName: __ZNSt3__16vectorINS0_IPK21llama_grammar_elementNS_9allocatorIS3_EEEENS4_IS6_EEED1B8ne200100Ev, symObjAddr: 0x51D0, symBinAddr: 0x2E770, symSize: 0x70 }
  - { offset: 0x17D29B, size: 0x8, addend: 0x0, symName: __ZL27llama_grammar_advance_stackRKNSt3__16vectorINS0_I21llama_grammar_elementNS_9allocatorIS1_EEEENS2_IS4_EEEERKNS0_IPKS1_NS2_ISA_EEEERNS0_ISC_NS2_ISC_EEEE, symObjAddr: 0x6390, symBinAddr: 0x2F930, symSize: 0x4C0 }
  - { offset: 0x17F07D, size: 0x8, addend: 0x0, symName: __Z41llama_grammar_reject_candidates_for_stackRKNSt3__16vectorINS0_I21llama_grammar_elementNS_9allocatorIS1_EEEENS2_IS4_EEEERKNS0_IPKS1_NS2_ISA_EEEERKNS0_I23llama_grammar_candidateNS2_ISF_EEEE, symObjAddr: 0x5240, symBinAddr: 0x2E7E0, symSize: 0x1150 }
  - { offset: 0x1820A7, size: 0x8, addend: 0x0, symName: __ZL31llama_grammar_reject_candidatesRKNSt3__16vectorINS0_I21llama_grammar_elementNS_9allocatorIS1_EEEENS2_IS4_EEEERKNS0_INS0_IPKS1_NS2_ISA_EEEENS2_ISC_EEEERKNS0_I23llama_grammar_candidateNS2_ISH_EEEE, symObjAddr: 0x6850, symBinAddr: 0x2FDF0, symSize: 0x100 }
  - { offset: 0x182403, size: 0x8, addend: 0x0, symName: __ZNSt3__16vectorI23llama_grammar_candidateNS_9allocatorIS1_EEE20__throw_length_errorB8ne200100Ev, symObjAddr: 0xFBB0, symBinAddr: 0x38E70, symSize: 0x10 }
  - { offset: 0x18241B, size: 0x8, addend: 0x0, symName: __ZNSt3__128__exception_guard_exceptionsINS_6vectorINS1_I21llama_grammar_elementNS_9allocatorIS2_EEEENS3_IS5_EEE16__destroy_vectorEED1B8ne200100Ev, symObjAddr: 0xFBC0, symBinAddr: 0x38E80, symSize: 0x70 }
  - { offset: 0x18278B, size: 0x8, addend: 0x0, symName: __ZNSt3__16vectorINS0_IPK21llama_grammar_elementNS_9allocatorIS3_EEEENS4_IS6_EEE24__emplace_back_slow_pathIJRKS6_EEEPS6_DpOT_, symObjAddr: 0xB240, symBinAddr: 0x346A0, symSize: 0x1A0 }
  - { offset: 0x18372D, size: 0x8, addend: 0x0, symName: __Z23llama_grammar_init_implPK11llama_vocabPPK21llama_grammar_elementmm, symObjAddr: 0x6950, symBinAddr: 0x2FEF0, symSize: 0x870 }
  - { offset: 0x1858A7, size: 0x8, addend: 0x0, symName: __ZL35llama_grammar_detect_left_recursionRKNSt3__16vectorINS0_I21llama_grammar_elementNS_9allocatorIS1_EEEENS2_IS4_EEEEmPNS0_IbNS2_IbEEEESB_SB_, symObjAddr: 0x71C0, symBinAddr: 0x30760, symSize: 0x170 }
  - { offset: 0x185BF1, size: 0x8, addend: 0x0, symName: __ZNSt3__16vectorINS0_I21llama_grammar_elementNS_9allocatorIS1_EEEENS2_IS4_EEE20__throw_length_errorB8ne200100Ev, symObjAddr: 0xFA00, symBinAddr: 0x38CC0, symSize: 0x10 }
  - { offset: 0x185C09, size: 0x8, addend: 0x0, symName: __ZNSt3__16vectorI21llama_grammar_elementNS_9allocatorIS1_EEE18__assign_with_sizeB8ne200100IPS1_S6_EEvT_T0_l, symObjAddr: 0xFA10, symBinAddr: 0x38CD0, symSize: 0x140 }
  - { offset: 0x185C14, size: 0x8, addend: 0x0, symName: __ZNSt3__128__exception_guard_exceptionsINS_6vectorINS1_I21llama_grammar_elementNS_9allocatorIS2_EEEENS3_IS5_EEE16__destroy_vectorEED1B8ne200100Ev, symObjAddr: 0xFBC0, symBinAddr: 0x38E80, symSize: 0x70 }
  - { offset: 0x185E99, size: 0x8, addend: 0x0, symName: __ZNSt3__16vectorINS0_I21llama_grammar_elementNS_9allocatorIS1_EEEENS2_IS4_EEED1B8ne200100Ev, symObjAddr: 0x7330, symBinAddr: 0x308D0, symSize: 0x70 }
  - { offset: 0x186BEF, size: 0x8, addend: 0x0, symName: __Z23llama_grammar_init_implPK11llama_vocabPKcS3_bPS3_mPKim, symObjAddr: 0x73A0, symBinAddr: 0x30940, symSize: 0xFA0 }
  - { offset: 0x18A749, size: 0x8, addend: 0x0, symName: __ZNSt3__16__treeINS_12__value_typeINS_12basic_stringIcNS_11char_traitsIcEENS_9allocatorIcEEEEjEENS_19__map_value_compareIS7_S8_NS_4lessIS7_EELb1EEENS5_IS8_EEE4findIS7_EENS_15__tree_iteratorIS8_PNS_11__tree_nodeIS8_PvEElEERKT_, symObjAddr: 0xFC30, symBinAddr: 0x38EF0, symSize: 0x110 }
  - { offset: 0x18AAAD, size: 0x8, addend: 0x0, symName: __ZNSt3__16__treeINS_12__value_typeINS_12basic_stringIcNS_11char_traitsIcEENS_9allocatorIcEEEEjEENS_19__map_value_compareIS7_S8_NS_4lessIS7_EELb1EEENS5_IS8_EEE7destroyEPNS_11__tree_nodeIS8_PvEE, symObjAddr: 0xB490, symBinAddr: 0x348F0, symSize: 0x50 }
  - { offset: 0x18AD44, size: 0x8, addend: 0x0, symName: __ZNSt3__13mapINS_12basic_stringIcNS_11char_traitsIcEENS_9allocatorIcEEEEjNS_4lessIS6_EENS4_INS_4pairIKS6_jEEEEE2atERSA_, symObjAddr: 0x8340, symBinAddr: 0x318E0, symSize: 0x110 }
  - { offset: 0x18B076, size: 0x8, addend: 0x0, symName: __ZNSt3__16vectorI29llama_grammar_trigger_patternNS_9allocatorIS1_EEE24__emplace_back_slow_pathIJEEEPS1_DpOT_, symObjAddr: 0xFD50, symBinAddr: 0x39000, symSize: 0x1D0 }
  - { offset: 0x18B626, size: 0x8, addend: 0x0, symName: __ZNSt3__111basic_regexIcNS_12regex_traitsIcEEEC2B8ne200100INS_11char_traitsIcEENS_9allocatorIcEEEERKNS_12basic_stringIcT_T0_EENS_15regex_constants18syntax_option_typeE, symObjAddr: 0x10200, symBinAddr: 0x394B0, symSize: 0xD0 }
  - { offset: 0x18B82D, size: 0x8, addend: 0x0, symName: __ZNSt3__16vectorI29llama_grammar_trigger_patternNS_9allocatorIS1_EEE24__emplace_back_slow_pathIJEEEPS1_DpOT_, symObjAddr: 0xFD50, symBinAddr: 0x39000, symSize: 0x1D0 }
  - { offset: 0x18B838, size: 0x8, addend: 0x0, symName: __ZN20llama_grammar_parserD1Ev, symObjAddr: 0x8550, symBinAddr: 0x31AF0, symSize: 0x80 }
  - { offset: 0x18BB7D, size: 0x8, addend: 0x0, symName: __ZNSt3__16vectorI29llama_grammar_trigger_patternNS_9allocatorIS1_EEED1B8ne200100Ev, symObjAddr: 0x84A0, symBinAddr: 0x31A40, symSize: 0xB0 }
  - { offset: 0x18C0C5, size: 0x8, addend: 0x0, symName: __ZNSt3__111basic_regexIcNS_12regex_traitsIcEEED1Ev, symObjAddr: 0x8450, symBinAddr: 0x319F0, symSize: 0x50 }
  - { offset: 0x18C40C, size: 0x8, addend: 0x0, symName: __Z23llama_grammar_free_implP13llama_grammar, symObjAddr: 0x85D0, symBinAddr: 0x31B70, symSize: 0x30 }
  - { offset: 0x18C463, size: 0x8, addend: 0x0, symName: __ZN13llama_grammarD2Ev, symObjAddr: 0xB4E0, symBinAddr: 0x34940, symSize: 0x180 }
  - { offset: 0x18D98E, size: 0x8, addend: 0x0, symName: __Z24llama_grammar_clone_implRK13llama_grammar, symObjAddr: 0x8600, symBinAddr: 0x31BA0, symSize: 0x5F0 }
  - { offset: 0x18EB61, size: 0x8, addend: 0x0, symName: __ZNSt3__16vectorINS_4pairIiNS1_ImmEEEENS_9allocatorIS3_EEE20__throw_length_errorB8ne200100Ev, symObjAddr: 0x18280, symBinAddr: 0x41430, symSize: 0x10 }
  - { offset: 0x18EB79, size: 0x8, addend: 0x0, symName: __ZNSt3__130__uninitialized_allocator_copyB8ne200100INS_9allocatorI29llama_grammar_trigger_patternEEPS2_S4_S4_EET2_RT_T0_T1_S5_, symObjAddr: 0x18290, symBinAddr: 0x41440, symSize: 0x110 }
  - { offset: 0x18EB84, size: 0x8, addend: 0x0, symName: __ZNSt3__16vectorI29llama_grammar_trigger_patternNS_9allocatorIS1_EEE20__throw_length_errorB8ne200100Ev, symObjAddr: 0x10040, symBinAddr: 0x392F0, symSize: 0x10 }
  - { offset: 0x18EB9C, size: 0x8, addend: 0x0, symName: __ZNSt3__134__uninitialized_allocator_relocateB8ne200100INS_9allocatorI29llama_grammar_trigger_patternEEPS2_EEvRT_T0_S7_S7_, symObjAddr: 0x10050, symBinAddr: 0x39300, symSize: 0x120 }
  - { offset: 0x18EBA7, size: 0x8, addend: 0x0, symName: __ZNSt3__128__exception_guard_exceptionsINS_6vectorI29llama_grammar_trigger_patternNS_9allocatorIS2_EEE16__destroy_vectorEED2B8ne200100Ev, symObjAddr: 0x183A0, symBinAddr: 0x41550, symSize: 0xC0 }
  - { offset: 0x18EF30, size: 0x8, addend: 0x0, symName: __ZNSt3__128__exception_guard_exceptionsINS_6vectorINS1_IPK21llama_grammar_elementNS_9allocatorIS4_EEEENS5_IS7_EEE16__destroy_vectorEED1B8ne200100Ev, symObjAddr: 0x180C0, symBinAddr: 0x41270, symSize: 0x70 }
  - { offset: 0x18F8DD, size: 0x8, addend: 0x0, symName: __Z24llama_grammar_apply_implRK13llama_grammarP22llama_token_data_array, symObjAddr: 0x8BF0, symBinAddr: 0x32190, symSize: 0x640 }
  - { offset: 0x191014, size: 0x8, addend: 0x0, symName: __ZNSt3__16vectorINS_4pairINS0_IjNS_9allocatorIjEEEE18llama_partial_utf8EENS2_IS6_EEE20__throw_length_errorB8ne200100Ev, symObjAddr: 0x18460, symBinAddr: 0x41610, symSize: 0x10 }
  - { offset: 0x19102C, size: 0x8, addend: 0x0, symName: __ZNSt3__16vectorINS0_IPK21llama_grammar_elementNS_9allocatorIS3_EEEENS4_IS6_EEE24__emplace_back_slow_pathIJRS6_EEEPS6_DpOT_, symObjAddr: 0x18470, symBinAddr: 0x41620, symSize: 0x19F }
  - { offset: 0x191037, size: 0x8, addend: 0x0, symName: __ZNSt3__16vectorINS_4pairINS0_IjNS_9allocatorIjEEEE18llama_partial_utf8EENS2_IS6_EEED1B8ne200100Ev, symObjAddr: 0x9810, symBinAddr: 0x32DB0, symSize: 0x70 }
  - { offset: 0x191AD8, size: 0x8, addend: 0x0, symName: __Z25llama_grammar_accept_implR13llama_grammari, symObjAddr: 0x9880, symBinAddr: 0x32E20, symSize: 0x4F0 }
  - { offset: 0x192E8A, size: 0x8, addend: 0x0, symName: __Z26llama_grammar_accept_tokenR13llama_grammariRKNSt3__112basic_stringIcNS1_11char_traitsIcEENS1_9allocatorIcEEEE, symObjAddr: 0x9D70, symBinAddr: 0x33310, symSize: 0x940 }
  - { offset: 0x195C76, size: 0x8, addend: 0x0, symName: __ZNSt3__16vectorINS_4pairIiNS1_ImmEEEENS_9allocatorIS3_EEE9push_backB8ne200100EOS3_, symObjAddr: 0xA6B0, symBinAddr: 0x33C50, symSize: 0x140 }
  - { offset: 0x19608C, size: 0x8, addend: 0x0, symName: __ZNSt3__14pairINS_12basic_stringIcNS_11char_traitsIcEENS_9allocatorIcEEEES6_ED1Ev, symObjAddr: 0x143C0, symBinAddr: 0x3D5F0, symSize: 0x40 }
  - { offset: 0x196354, size: 0x8, addend: 0x0, symName: __ZNSt3__16vectorINS0_IPK21llama_grammar_elementNS_9allocatorIS3_EEEENS4_IS6_EEE24__emplace_back_slow_pathIJRS6_EEEPS6_DpOT_, symObjAddr: 0x18470, symBinAddr: 0x41620, symSize: 0x19F }
  - { offset: 0x196B41, size: 0x8, addend: 0x0, symName: __ZNSt3__128__exception_guard_exceptionsINS_29_AllocatorDestroyRangeReverseINS_9allocatorINS_6vectorIPK21llama_grammar_elementNS2_IS6_EEEEEEPS8_EEED1B8ne200100Ev, symObjAddr: 0x18230, symBinAddr: 0x413E0, symSize: 0x50 }
  - { offset: 0x196B6E, size: 0x8, addend: 0x0, symName: __ZNSt3__128__exception_guard_exceptionsINS_29_AllocatorDestroyRangeReverseINS_9allocatorINS_6vectorIPK21llama_grammar_elementNS2_IS6_EEEEEEPS8_EEED1B8ne200100Ev, symObjAddr: 0x18230, symBinAddr: 0x413E0, symSize: 0x50 }
  - { offset: 0x197015, size: 0x8, addend: 0x0, symName: __Z24llama_grammar_accept_strR13llama_grammarRKNSt3__112basic_stringIcNS1_11char_traitsIcEENS1_9allocatorIcEEEE, symObjAddr: 0xA7F0, symBinAddr: 0x33D90, symSize: 0x140 }
  - { offset: 0x1978F9, size: 0x8, addend: 0x0, symName: __ZNSt3__114__split_bufferINS_6vectorIPK21llama_grammar_elementNS_9allocatorIS4_EEEERNS5_IS7_EEED1Ev, symObjAddr: 0xB3E0, symBinAddr: 0x34840, symSize: 0x60 }
  - { offset: 0x197B9C, size: 0x8, addend: 0x0, symName: __ZNSt3__110shared_ptrINS_13__empty_stateIcEEED1B8ne200100Ev, symObjAddr: 0xB450, symBinAddr: 0x348B0, symSize: 0x40 }
  - { offset: 0x197F1E, size: 0x8, addend: 0x0, symName: __ZNSt3__16vectorINS_9sub_matchIPKcEENS_9allocatorIS4_EEE6assignEmRKS4_, symObjAddr: 0xBB30, symBinAddr: 0x34F70, symSize: 0x220 }
  - { offset: 0x198574, size: 0x8, addend: 0x0, symName: __ZNKSt3__111basic_regexIcNS_12regex_traitsIcEEE27__match_at_start_posix_subsINS_9allocatorINS_9sub_matchIPKcEEEEEEbS8_S8_RNS_13match_resultsIS8_T_EENS_15regex_constants15match_flag_typeEb, symObjAddr: 0xCCC0, symBinAddr: 0x36100, symSize: 0x700 }
  - { offset: 0x19A294, size: 0x8, addend: 0x0, symName: __ZNKSt3__111basic_regexIcNS_12regex_traitsIcEEE21__match_at_start_ecmaINS_9allocatorINS_9sub_matchIPKcEEEEEEbS8_S8_RNS_13match_resultsIS8_T_EENS_15regex_constants15match_flag_typeEb, symObjAddr: 0xBD50, symBinAddr: 0x35190, symSize: 0x520 }
  - { offset: 0x19B437, size: 0x8, addend: 0x0, symName: __ZNKSt3__111basic_regexIcNS_12regex_traitsIcEEE29__match_at_start_posix_nosubsINS_9allocatorINS_9sub_matchIPKcEEEEEEbS8_S8_RNS_13match_resultsIS8_T_EENS_15regex_constants15match_flag_typeEb, symObjAddr: 0xC270, symBinAddr: 0x356B0, symSize: 0xA50 }
  - { offset: 0x19D3C2, size: 0x8, addend: 0x0, symName: __ZNSt3__16vectorINS_9sub_matchINS_11__wrap_iterIPKcEEEENS_9allocatorIS6_EEE8__appendEm, symObjAddr: 0xF210, symBinAddr: 0x38650, symSize: 0x1A0 }
  - { offset: 0x19DC0D, size: 0x8, addend: 0x0, symName: __ZNSt3__16vectorINS_9sub_matchIPKcEENS_9allocatorIS4_EEE20__throw_length_errorB8ne200100Ev, symObjAddr: 0xDAB0, symBinAddr: 0x36EF0, symSize: 0x10 }
  - { offset: 0x19DC25, size: 0x8, addend: 0x0, symName: __ZNSt3__16vectorINS_4pairImPKcEENS_9allocatorIS4_EEE8__appendEm, symObjAddr: 0xDAC0, symBinAddr: 0x36F00, symSize: 0x140 }
  - { offset: 0x19E30E, size: 0x8, addend: 0x0, symName: __ZNSt3__16vectorINS_7__stateIcEENS_9allocatorIS2_EEE24__emplace_back_slow_pathIJS2_EEEPS2_DpOT_, symObjAddr: 0xD520, symBinAddr: 0x36960, symSize: 0x1D0 }
  - { offset: 0x19E9CA, size: 0x8, addend: 0x0, symName: __ZNSt3__16vectorINS_9sub_matchIPKcEENS_9allocatorIS4_EEE8__appendEmRKS4_, symObjAddr: 0xD8F0, symBinAddr: 0x36D30, symSize: 0x1C0 }
  - { offset: 0x19EF05, size: 0x8, addend: 0x0, symName: __ZNSt3__16vectorINS_4pairImPKcEENS_9allocatorIS4_EEE8__appendEm, symObjAddr: 0xDAC0, symBinAddr: 0x36F00, symSize: 0x140 }
  - { offset: 0x19F37F, size: 0x8, addend: 0x0, symName: __ZNSt3__17__stateIcEC2ERKS1_, symObjAddr: 0xDC10, symBinAddr: 0x37050, symSize: 0x1A0 }
  - { offset: 0x19F9DB, size: 0x8, addend: 0x0, symName: __ZNSt3__17__stateIcED1Ev, symObjAddr: 0xD3C0, symBinAddr: 0x36800, symSize: 0x40 }
  - { offset: 0x19FC52, size: 0x8, addend: 0x0, symName: __ZNSt3__16vectorINS_7__stateIcEENS_9allocatorIS2_EEED1B8ne200100Ev, symObjAddr: 0xD4A0, symBinAddr: 0x368E0, symSize: 0x80 }
  - { offset: 0x1A04B9, size: 0x8, addend: 0x0, symName: __ZNSt3__15dequeINS_7__stateIcEENS_9allocatorIS2_EEE19__add_back_capacityEv, symObjAddr: 0xDF70, symBinAddr: 0x373B0, symSize: 0x3E0 }
  - { offset: 0x1A1252, size: 0x8, addend: 0x0, symName: __ZNSt3__15dequeINS_7__stateIcEENS_9allocatorIS2_EEE20__add_front_capacityEv, symObjAddr: 0xE8C0, symBinAddr: 0x37D00, symSize: 0x3E0 }
  - { offset: 0x1A2076, size: 0x8, addend: 0x0, symName: __ZNSt3__15dequeINS_7__stateIcEENS_9allocatorIS2_EEED1B8ne200100Ev, symObjAddr: 0xDF00, symBinAddr: 0x37340, symSize: 0x70 }
  - { offset: 0x1A23B3, size: 0x8, addend: 0x0, symName: __ZNSt3__16vectorINS_9sub_matchIPKcEENS_9allocatorIS4_EEE18__assign_with_sizeB8ne200100IPS4_S9_EEvT_T0_l, symObjAddr: 0xEE70, symBinAddr: 0x382B0, symSize: 0x1F0 }
  - { offset: 0x1A2C1C, size: 0x8, addend: 0x0, symName: __ZNSt3__16vectorINS_4pairImPKcEENS_9allocatorIS4_EEE18__assign_with_sizeB8ne200100IPS4_S9_EEvT_T0_l, symObjAddr: 0xF060, symBinAddr: 0x384A0, symSize: 0x1B0 }
  - { offset: 0x1A3587, size: 0x8, addend: 0x0, symName: __ZNSt3__16vectorINS_7__stateIcEENS_9allocatorIS2_EEE26__swap_out_circular_bufferERNS_14__split_bufferIS2_RS4_EE, symObjAddr: 0xD6F0, symBinAddr: 0x36B30, symSize: 0x170 }
  - { offset: 0x1A3B11, size: 0x8, addend: 0x0, symName: __ZNSt3__16vectorINS_7__stateIcEENS_9allocatorIS2_EEE20__throw_length_errorB8ne200100Ev, symObjAddr: 0xD8E0, symBinAddr: 0x36D20, symSize: 0x10 }
  - { offset: 0x1A3B29, size: 0x8, addend: 0x0, symName: __ZNSt3__16vectorINS_9sub_matchIPKcEENS_9allocatorIS4_EEE8__appendEmRKS4_, symObjAddr: 0xD8F0, symBinAddr: 0x36D30, symSize: 0x1C0 }
  - { offset: 0x1A3B34, size: 0x8, addend: 0x0, symName: __ZNSt3__114__split_bufferINS_7__stateIcEERNS_9allocatorIS2_EEED1Ev, symObjAddr: 0xD860, symBinAddr: 0x36CA0, symSize: 0x80 }
  - { offset: 0x1A43FA, size: 0x8, addend: 0x0, symName: __ZNSt3__16vectorINS_4pairImPKcEENS_9allocatorIS4_EEE20__throw_length_errorB8ne200100Ev, symObjAddr: 0xDC00, symBinAddr: 0x37040, symSize: 0x10 }
  - { offset: 0x1A4412, size: 0x8, addend: 0x0, symName: __ZNSt3__17__stateIcEC2ERKS1_, symObjAddr: 0xDC10, symBinAddr: 0x37050, symSize: 0x1A0 }
  - { offset: 0x1A4815, size: 0x8, addend: 0x0, symName: __ZNSt3__15dequeINS_7__stateIcEENS_9allocatorIS2_EEE5clearEv, symObjAddr: 0xDDB0, symBinAddr: 0x371F0, symSize: 0x150 }
  - { offset: 0x1A51F0, size: 0x8, addend: 0x0, symName: __ZNSt3__114__split_bufferIPNS_7__stateIcEENS_9allocatorIS3_EEE12emplace_backIJRS3_EEEvDpOT_, symObjAddr: 0xE350, symBinAddr: 0x37790, symSize: 0x1D0 }
  - { offset: 0x1A569F, size: 0x8, addend: 0x0, symName: __ZNSt3__114__split_bufferIPNS_7__stateIcEENS_9allocatorIS3_EEE12emplace_backIJS3_EEEvDpOT_, symObjAddr: 0xE520, symBinAddr: 0x37960, symSize: 0x1D0 }
  - { offset: 0x1A5B4E, size: 0x8, addend: 0x0, symName: __ZNSt3__114__split_bufferIPNS_7__stateIcEENS_9allocatorIS3_EEE13emplace_frontIJS3_EEEvDpOT_, symObjAddr: 0xE6F0, symBinAddr: 0x37B30, symSize: 0x1D0 }
  - { offset: 0x1A60B2, size: 0x8, addend: 0x0, symName: __ZNSt3__114__split_bufferIPNS_7__stateIcEENS_9allocatorIS3_EEE13emplace_frontIJRS3_EEEvDpOT_, symObjAddr: 0xECA0, symBinAddr: 0x380E0, symSize: 0x1D0 }
  - { offset: 0x1A69CA, size: 0x8, addend: 0x0, symName: __ZNSt3__16vectorINS_9sub_matchINS_11__wrap_iterIPKcEEEENS_9allocatorIS6_EEE20__throw_length_errorB8ne200100Ev, symObjAddr: 0xF3B0, symBinAddr: 0x387F0, symSize: 0x10 }
  - { offset: 0x1A69E2, size: 0x8, addend: 0x0, symName: __ZNSt3__16__treeINS_12__value_typeINS_12basic_stringIcNS_11char_traitsIcEENS_9allocatorIcEEEEjEENS_19__map_value_compareIS7_S8_NS_4lessIS7_EELb1EEENS5_IS8_EEE25__emplace_unique_key_argsIS7_JS7_RjEEENS_4pairINS_15__tree_iteratorIS8_PNS_11__tree_nodeIS8_PvEElEEbEERKT_DpOT0_, symObjAddr: 0xF3C0, symBinAddr: 0x38800, symSize: 0x190 }
  - { offset: 0x1A72B1, size: 0x8, addend: 0x0, symName: __ZNSt3__114__split_bufferI29llama_grammar_trigger_patternRNS_9allocatorIS1_EEED1Ev, symObjAddr: 0xFF80, symBinAddr: 0x39230, symSize: 0xC0 }
  - { offset: 0x1A75CF, size: 0x8, addend: 0x0, symName: __ZNSt3__111basic_regexIcNS_12regex_traitsIcEEEC1B8ne200100Ev, symObjAddr: 0xFF20, symBinAddr: 0x391D0, symSize: 0x60 }
  - { offset: 0x1A7886, size: 0x8, addend: 0x0, symName: __ZNSt3__128__exception_guard_exceptionsINS_29_AllocatorDestroyRangeReverseINS_9allocatorI29llama_grammar_trigger_patternEEPS3_EEED1B8ne200100Ev, symObjAddr: 0x10170, symBinAddr: 0x39420, symSize: 0x90 }
  - { offset: 0x1A7BA7, size: 0x8, addend: 0x0, symName: __ZNSt3__111basic_regexIcNS_12regex_traitsIcEEE7__parseINS_11__wrap_iterIPKcEEEET_S9_S9_, symObjAddr: 0x102D0, symBinAddr: 0x39580, symSize: 0x1D0 }
  - { offset: 0x1A855F, size: 0x8, addend: 0x0, symName: __ZNSt3__111basic_regexIcNS_12regex_traitsIcEEE13__parse_egrepINS_11__wrap_iterIPKcEEEET_S9_S9_, symObjAddr: 0x10C00, symBinAddr: 0x39EB0, symSize: 0x1E0 }
  - { offset: 0x1A8BCB, size: 0x8, addend: 0x0, symName: __ZNSt3__111basic_regexIcNS_12regex_traitsIcEEE24__parse_extended_reg_expINS_11__wrap_iterIPKcEEEET_S9_S9_, symObjAddr: 0x10890, symBinAddr: 0x39B40, symSize: 0x190 }
  - { offset: 0x1A9023, size: 0x8, addend: 0x0, symName: __ZNSt3__111basic_regexIcNS_12regex_traitsIcEEE21__parse_basic_reg_expINS_11__wrap_iterIPKcEEEET_S9_S9_, symObjAddr: 0x10750, symBinAddr: 0x39A00, symSize: 0x140 }
  - { offset: 0x1A9475, size: 0x8, addend: 0x0, symName: __ZNSt3__111basic_regexIcNS_12regex_traitsIcEEE12__parse_grepINS_11__wrap_iterIPKcEEEET_S9_S9_, symObjAddr: 0x10A20, symBinAddr: 0x39CD0, symSize: 0x1E0 }
  - { offset: 0x1A9AE1, size: 0x8, addend: 0x0, symName: __ZNSt3__111basic_regexIcNS_12regex_traitsIcEEE16__parse_ecma_expINS_11__wrap_iterIPKcEEEET_S9_S9_, symObjAddr: 0x104F0, symBinAddr: 0x397A0, symSize: 0x260 }
  - { offset: 0x1AA3FD, size: 0x8, addend: 0x0, symName: __ZNSt3__111basic_regexIcNS_12regex_traitsIcEEE17__parse_assertionINS_11__wrap_iterIPKcEEEET_S9_S9_, symObjAddr: 0x11000, symBinAddr: 0x3A2B0, symSize: 0x2F0 }
  - { offset: 0x1AAB45, size: 0x8, addend: 0x0, symName: __ZNSt3__111basic_regexIcNS_12regex_traitsIcEEE12__parse_atomINS_11__wrap_iterIPKcEEEET_S9_S9_, symObjAddr: 0x112F0, symBinAddr: 0x3A5A0, symSize: 0x2A0 }
  - { offset: 0x1AAFC2, size: 0x8, addend: 0x0, symName: __ZNSt3__111basic_regexIcNS_12regex_traitsIcEEE23__parse_ERE_dupl_symbolINS_11__wrap_iterIPKcEEEET_S9_S9_PNS_16__owns_one_stateIcEEjj, symObjAddr: 0x11590, symBinAddr: 0x3A840, symSize: 0x3F0 }
  - { offset: 0x1AB8F9, size: 0x8, addend: 0x0, symName: __ZNSt3__111basic_regexIcNS_12regex_traitsIcEEE18__parse_nondupl_REINS_11__wrap_iterIPKcEEEET_S9_S9_, symObjAddr: 0x172C0, symBinAddr: 0x404F0, symSize: 0x2D0 }
  - { offset: 0x1AC192, size: 0x8, addend: 0x0, symName: __ZNSt3__111basic_regexIcNS_12regex_traitsIcEEE22__parse_RE_dupl_symbolINS_11__wrap_iterIPKcEEEET_S9_S9_PNS_16__owns_one_stateIcEEjj, symObjAddr: 0x17590, symBinAddr: 0x407C0, symSize: 0x260 }
  - { offset: 0x1AC9A1, size: 0x8, addend: 0x0, symName: __ZNSt3__111basic_regexIcNS_12regex_traitsIcEEE22__parse_ERE_expressionINS_11__wrap_iterIPKcEEEET_S9_S9_, symObjAddr: 0x178F0, symBinAddr: 0x40B20, symSize: 0x240 }
  - { offset: 0x1ACF2D, size: 0x8, addend: 0x0, symName: __ZNSt3__111__end_stateIcED1Ev, symObjAddr: 0x10E30, symBinAddr: 0x3A0E0, symSize: 0x10 }
  - { offset: 0x1ACF59, size: 0x8, addend: 0x0, symName: __ZNSt3__111__end_stateIcED0Ev, symObjAddr: 0x10E40, symBinAddr: 0x3A0F0, symSize: 0x10 }
  - { offset: 0x1ACF79, size: 0x8, addend: 0x0, symName: __ZNKSt3__111__end_stateIcE6__execERNS_7__stateIcEE, symObjAddr: 0x10E50, symBinAddr: 0x3A100, symSize: 0x10 }
  - { offset: 0x1ACFAD, size: 0x8, addend: 0x0, symName: __ZNKSt3__16__nodeIcE12__exec_splitEbRNS_7__stateIcEE, symObjAddr: 0x10E60, symBinAddr: 0x3A110, symSize: 0x10 }
  - { offset: 0x1ACFF4, size: 0x8, addend: 0x0, symName: __ZNKSt3__16__nodeIcE6__execERNS_7__stateIcEE, symObjAddr: 0x10E70, symBinAddr: 0x3A120, symSize: 0x10 }
  - { offset: 0x1AD040, size: 0x8, addend: 0x0, symName: __ZNSt3__120__shared_ptr_pointerIPNS_13__empty_stateIcEENS_10shared_ptrIS2_E27__shared_ptr_default_deleteIS2_S2_EENS_9allocatorIS2_EEED1Ev, symObjAddr: 0x10E80, symBinAddr: 0x3A130, symSize: 0x10 }
  - { offset: 0x1AD098, size: 0x8, addend: 0x0, symName: __ZNSt3__120__shared_ptr_pointerIPNS_13__empty_stateIcEENS_10shared_ptrIS2_E27__shared_ptr_default_deleteIS2_S2_EENS_9allocatorIS2_EEED0Ev, symObjAddr: 0x10E90, symBinAddr: 0x3A140, symSize: 0x20 }
  - { offset: 0x1AD0FD, size: 0x8, addend: 0x0, symName: __ZNSt3__120__shared_ptr_pointerIPNS_13__empty_stateIcEENS_10shared_ptrIS2_E27__shared_ptr_default_deleteIS2_S2_EENS_9allocatorIS2_EEE16__on_zero_sharedEv, symObjAddr: 0x10EB0, symBinAddr: 0x3A160, symSize: 0x20 }
  - { offset: 0x1AD192, size: 0x8, addend: 0x0, symName: __ZNKSt3__120__shared_ptr_pointerIPNS_13__empty_stateIcEENS_10shared_ptrIS2_E27__shared_ptr_default_deleteIS2_S2_EENS_9allocatorIS2_EEE13__get_deleterERKSt9type_info, symObjAddr: 0x10ED0, symBinAddr: 0x3A180, symSize: 0x20 }
  - { offset: 0x1AD25F, size: 0x8, addend: 0x0, symName: __ZNSt3__120__shared_ptr_pointerIPNS_13__empty_stateIcEENS_10shared_ptrIS2_E27__shared_ptr_default_deleteIS2_S2_EENS_9allocatorIS2_EEE21__on_zero_shared_weakEv, symObjAddr: 0x10EF0, symBinAddr: 0x3A1A0, symSize: 0x10 }
  - { offset: 0x1AD310, size: 0x8, addend: 0x0, symName: __ZNSt3__113__empty_stateIcED1Ev, symObjAddr: 0x10F00, symBinAddr: 0x3A1B0, symSize: 0x30 }
  - { offset: 0x1AD37C, size: 0x8, addend: 0x0, symName: __ZNSt3__113__empty_stateIcED0Ev, symObjAddr: 0x10F30, symBinAddr: 0x3A1E0, symSize: 0x40 }
  - { offset: 0x1AD3A0, size: 0x8, addend: 0x0, symName: __ZNSt3__113__empty_stateIcED0Ev, symObjAddr: 0x10F30, symBinAddr: 0x3A1E0, symSize: 0x40 }
  - { offset: 0x1AD3BE, size: 0x8, addend: 0x0, symName: __ZNSt3__113__empty_stateIcED0Ev, symObjAddr: 0x10F30, symBinAddr: 0x3A1E0, symSize: 0x40 }
  - { offset: 0x1AD3DC, size: 0x8, addend: 0x0, symName: __ZNSt3__113__empty_stateIcED0Ev, symObjAddr: 0x10F30, symBinAddr: 0x3A1E0, symSize: 0x40 }
  - { offset: 0x1AD423, size: 0x8, addend: 0x0, symName: __ZNKSt3__113__empty_stateIcE6__execERNS_7__stateIcEE, symObjAddr: 0x10F70, symBinAddr: 0x3A220, symSize: 0x20 }
  - { offset: 0x1AD476, size: 0x8, addend: 0x0, symName: __ZNSt3__116__owns_one_stateIcED1Ev, symObjAddr: 0x10F90, symBinAddr: 0x3A240, symSize: 0x30 }
  - { offset: 0x1AD4DF, size: 0x8, addend: 0x0, symName: __ZNSt3__116__owns_one_stateIcED0Ev, symObjAddr: 0x10FC0, symBinAddr: 0x3A270, symSize: 0x40 }
  - { offset: 0x1AD50E, size: 0x8, addend: 0x0, symName: __ZNSt3__116__owns_one_stateIcED0Ev, symObjAddr: 0x10FC0, symBinAddr: 0x3A270, symSize: 0x40 }
  - { offset: 0x1AD52C, size: 0x8, addend: 0x0, symName: __ZNSt3__116__owns_one_stateIcED0Ev, symObjAddr: 0x10FC0, symBinAddr: 0x3A270, symSize: 0x40 }
  - { offset: 0x1AD657, size: 0x8, addend: 0x0, symName: __ZNSt3__111basic_regexIcNS_12regex_traitsIcEEE16__push_lookaheadERKS3_bj, symObjAddr: 0x11980, symBinAddr: 0x3AC30, symSize: 0xB0 }
  - { offset: 0x1ADA59, size: 0x8, addend: 0x0, symName: __ZNSt3__111basic_regexIcNS_12regex_traitsIcEEE19__parse_atom_escapeINS_11__wrap_iterIPKcEEEET_S9_S9_, symObjAddr: 0x12070, symBinAddr: 0x3B320, symSize: 0x100 }
  - { offset: 0x1ADCFC, size: 0x8, addend: 0x0, symName: __ZNSt3__111basic_regexIcNS_12regex_traitsIcEEE26__parse_bracket_expressionINS_11__wrap_iterIPKcEEEET_S9_S9_, symObjAddr: 0x12170, symBinAddr: 0x3B420, symSize: 0x150 }
  - { offset: 0x1AE00B, size: 0x8, addend: 0x0, symName: __ZNSt3__111basic_regexIcNS_12regex_traitsIcEEE25__parse_pattern_characterINS_11__wrap_iterIPKcEEEET_S9_S9_, symObjAddr: 0x12310, symBinAddr: 0x3B5C0, symSize: 0x1B0 }
  - { offset: 0x1AE20A, size: 0x8, addend: 0x0, symName: __ZNSt3__111basic_regexIcNS_12regex_traitsIcEEE11__push_loopEmmPNS_16__owns_one_stateIcEEmmb, symObjAddr: 0x16A70, symBinAddr: 0x3FCA0, symSize: 0x150 }
  - { offset: 0x1AE7F3, size: 0x8, addend: 0x0, symName: __ZNSt3__120__l_anchor_multilineIcED1Ev, symObjAddr: 0x11A80, symBinAddr: 0x3AD30, symSize: 0x30 }
  - { offset: 0x1AE87C, size: 0x8, addend: 0x0, symName: __ZNSt3__120__l_anchor_multilineIcED0Ev, symObjAddr: 0x11AB0, symBinAddr: 0x3AD60, symSize: 0x40 }
  - { offset: 0x1AE8AC, size: 0x8, addend: 0x0, symName: __ZNSt3__120__l_anchor_multilineIcED0Ev, symObjAddr: 0x11AB0, symBinAddr: 0x3AD60, symSize: 0x40 }
  - { offset: 0x1AE8CA, size: 0x8, addend: 0x0, symName: __ZNSt3__120__l_anchor_multilineIcED0Ev, symObjAddr: 0x11AB0, symBinAddr: 0x3AD60, symSize: 0x40 }
  - { offset: 0x1AE8E8, size: 0x8, addend: 0x0, symName: __ZNSt3__120__l_anchor_multilineIcED0Ev, symObjAddr: 0x11AB0, symBinAddr: 0x3AD60, symSize: 0x40 }
  - { offset: 0x1AE913, size: 0x8, addend: 0x0, symName: __ZNKSt3__120__l_anchor_multilineIcE6__execERNS_7__stateIcEE, symObjAddr: 0x11AF0, symBinAddr: 0x3ADA0, symSize: 0x60 }
  - { offset: 0x1AE978, size: 0x8, addend: 0x0, symName: __ZNSt3__120__r_anchor_multilineIcED1Ev, symObjAddr: 0x11B50, symBinAddr: 0x3AE00, symSize: 0x30 }
  - { offset: 0x1AEA01, size: 0x8, addend: 0x0, symName: __ZNSt3__120__r_anchor_multilineIcED0Ev, symObjAddr: 0x11B80, symBinAddr: 0x3AE30, symSize: 0x40 }
  - { offset: 0x1AEA31, size: 0x8, addend: 0x0, symName: __ZNSt3__120__r_anchor_multilineIcED0Ev, symObjAddr: 0x11B80, symBinAddr: 0x3AE30, symSize: 0x40 }
  - { offset: 0x1AEA4F, size: 0x8, addend: 0x0, symName: __ZNSt3__120__r_anchor_multilineIcED0Ev, symObjAddr: 0x11B80, symBinAddr: 0x3AE30, symSize: 0x40 }
  - { offset: 0x1AEA6D, size: 0x8, addend: 0x0, symName: __ZNSt3__120__r_anchor_multilineIcED0Ev, symObjAddr: 0x11B80, symBinAddr: 0x3AE30, symSize: 0x40 }
  - { offset: 0x1AEA98, size: 0x8, addend: 0x0, symName: __ZNKSt3__120__r_anchor_multilineIcE6__execERNS_7__stateIcEE, symObjAddr: 0x11BC0, symBinAddr: 0x3AE70, symSize: 0x60 }
  - { offset: 0x1AEB23, size: 0x8, addend: 0x0, symName: __ZNSt3__115__word_boundaryIcNS_12regex_traitsIcEEED1Ev, symObjAddr: 0x11C20, symBinAddr: 0x3AED0, symSize: 0x50 }
  - { offset: 0x1AEBE6, size: 0x8, addend: 0x0, symName: __ZNSt3__115__word_boundaryIcNS_12regex_traitsIcEEED0Ev, symObjAddr: 0x11C70, symBinAddr: 0x3AF20, symSize: 0x50 }
  - { offset: 0x1AED0F, size: 0x8, addend: 0x0, symName: __ZNKSt3__115__word_boundaryIcNS_12regex_traitsIcEEE6__execERNS_7__stateIcEE, symObjAddr: 0x11CC0, symBinAddr: 0x3AF70, symSize: 0x100 }
  - { offset: 0x1AEEEF, size: 0x8, addend: 0x0, symName: __ZNSt3__111__lookaheadIcNS_12regex_traitsIcEEED1Ev, symObjAddr: 0x11DC0, symBinAddr: 0x3B070, symSize: 0x90 }
  - { offset: 0x1AF098, size: 0x8, addend: 0x0, symName: __ZNSt3__111__lookaheadIcNS_12regex_traitsIcEEED0Ev, symObjAddr: 0x11E50, symBinAddr: 0x3B100, symSize: 0x90 }
  - { offset: 0x1AF249, size: 0x8, addend: 0x0, symName: __ZNKSt3__111__lookaheadIcNS_12regex_traitsIcEEE6__execERNS_7__stateIcEE, symObjAddr: 0x11EE0, symBinAddr: 0x3B190, symSize: 0x190 }
  - { offset: 0x1AF7CA, size: 0x8, addend: 0x0, symName: __ZNSt3__111basic_regexIcNS_12regex_traitsIcEEE11__push_charEc, symObjAddr: 0x12C90, symBinAddr: 0x3BF40, symSize: 0x130 }
  - { offset: 0x1AFB69, size: 0x8, addend: 0x0, symName: __ZNSt3__111basic_regexIcNS_12regex_traitsIcEEE15__push_back_refEi, symObjAddr: 0x12E10, symBinAddr: 0x3C0C0, symSize: 0xD0 }
  - { offset: 0x1AFDBD, size: 0x8, addend: 0x0, symName: __ZNSt3__111basic_regexIcNS_12regex_traitsIcEEE30__parse_character_class_escapeINS_11__wrap_iterIPKcEEEET_S9_S9_, symObjAddr: 0x12580, symBinAddr: 0x3B830, symSize: 0x2E0 }
  - { offset: 0x1B0360, size: 0x8, addend: 0x0, symName: __ZNSt3__111basic_regexIcNS_12regex_traitsIcEEE24__parse_character_escapeINS_11__wrap_iterIPKcEEEET_S9_S9_PNS_12basic_stringIcNS_11char_traitsIcEENS_9allocatorIcEEEE, symObjAddr: 0x12860, symBinAddr: 0x3BB10, symSize: 0x430 }
  - { offset: 0x1B09B9, size: 0x8, addend: 0x0, symName: __ZNSt3__120__bracket_expressionIcNS_12regex_traitsIcEEEC2B8ne200100ERKS2_PNS_6__nodeIcEEbbb, symObjAddr: 0x13680, symBinAddr: 0x3C930, symSize: 0x1A0 }
  - { offset: 0x1B10D7, size: 0x8, addend: 0x0, symName: __ZNSt3__120__bracket_expressionIcNS_12regex_traitsIcEEE10__add_charB8ne200100Ec, symObjAddr: 0x13500, symBinAddr: 0x3C7B0, symSize: 0x180 }
  - { offset: 0x1B1447, size: 0x8, addend: 0x0, symName: __ZNSt3__111basic_regexIcNS_12regex_traitsIcEEE23__parse_expression_termINS_11__wrap_iterIPKcEEEET_S9_S9_PNS_20__bracket_expressionIcS2_EE, symObjAddr: 0x14A80, symBinAddr: 0x3DCB0, symSize: 0x420 }
  - { offset: 0x1B228F, size: 0x8, addend: 0x0, symName: __ZNSt3__123__match_any_but_newlineIcED1Ev, symObjAddr: 0x124C0, symBinAddr: 0x3B770, symSize: 0x30 }
  - { offset: 0x1B2318, size: 0x8, addend: 0x0, symName: __ZNSt3__123__match_any_but_newlineIcED0Ev, symObjAddr: 0x124F0, symBinAddr: 0x3B7A0, symSize: 0x40 }
  - { offset: 0x1B2348, size: 0x8, addend: 0x0, symName: __ZNSt3__123__match_any_but_newlineIcED0Ev, symObjAddr: 0x124F0, symBinAddr: 0x3B7A0, symSize: 0x40 }
  - { offset: 0x1B2366, size: 0x8, addend: 0x0, symName: __ZNSt3__123__match_any_but_newlineIcED0Ev, symObjAddr: 0x124F0, symBinAddr: 0x3B7A0, symSize: 0x40 }
  - { offset: 0x1B2384, size: 0x8, addend: 0x0, symName: __ZNSt3__123__match_any_but_newlineIcED0Ev, symObjAddr: 0x124F0, symBinAddr: 0x3B7A0, symSize: 0x40 }
  - { offset: 0x1B27D4, size: 0x8, addend: 0x0, symName: __ZNSt3__118__match_char_icaseIcNS_12regex_traitsIcEEED1Ev, symObjAddr: 0x12EE0, symBinAddr: 0x3C190, symSize: 0x50 }
  - { offset: 0x1B2897, size: 0x8, addend: 0x0, symName: __ZNSt3__118__match_char_icaseIcNS_12regex_traitsIcEEED0Ev, symObjAddr: 0x12F30, symBinAddr: 0x3C1E0, symSize: 0x50 }
  - { offset: 0x1B2962, size: 0x8, addend: 0x0, symName: __ZNKSt3__118__match_char_icaseIcNS_12regex_traitsIcEEE6__execERNS_7__stateIcEE, symObjAddr: 0x12F80, symBinAddr: 0x3C230, symSize: 0x50 }
  - { offset: 0x1B2A1B, size: 0x8, addend: 0x0, symName: __ZNSt3__120__match_char_collateIcNS_12regex_traitsIcEEED1Ev, symObjAddr: 0x12FD0, symBinAddr: 0x3C280, symSize: 0x50 }
  - { offset: 0x1B2ADE, size: 0x8, addend: 0x0, symName: __ZNSt3__120__match_char_collateIcNS_12regex_traitsIcEEED0Ev, symObjAddr: 0x13020, symBinAddr: 0x3C2D0, symSize: 0x50 }
  - { offset: 0x1B2BA9, size: 0x8, addend: 0x0, symName: __ZNKSt3__120__match_char_collateIcNS_12regex_traitsIcEEE6__execERNS_7__stateIcEE, symObjAddr: 0x13070, symBinAddr: 0x3C320, symSize: 0x40 }
  - { offset: 0x1B2C17, size: 0x8, addend: 0x0, symName: __ZNSt3__112__match_charIcED1Ev, symObjAddr: 0x130B0, symBinAddr: 0x3C360, symSize: 0x30 }
  - { offset: 0x1B2CA0, size: 0x8, addend: 0x0, symName: __ZNSt3__112__match_charIcED0Ev, symObjAddr: 0x130E0, symBinAddr: 0x3C390, symSize: 0x40 }
  - { offset: 0x1B2CD0, size: 0x8, addend: 0x0, symName: __ZNSt3__112__match_charIcED0Ev, symObjAddr: 0x130E0, symBinAddr: 0x3C390, symSize: 0x40 }
  - { offset: 0x1B2CEE, size: 0x8, addend: 0x0, symName: __ZNSt3__112__match_charIcED0Ev, symObjAddr: 0x130E0, symBinAddr: 0x3C390, symSize: 0x40 }
  - { offset: 0x1B2D0C, size: 0x8, addend: 0x0, symName: __ZNSt3__112__match_charIcED0Ev, symObjAddr: 0x130E0, symBinAddr: 0x3C390, symSize: 0x40 }
  - { offset: 0x1B2D37, size: 0x8, addend: 0x0, symName: __ZNKSt3__112__match_charIcE6__execERNS_7__stateIcEE, symObjAddr: 0x13120, symBinAddr: 0x3C3D0, symSize: 0x40 }
  - { offset: 0x1B2DA5, size: 0x8, addend: 0x0, symName: __ZNSt3__116__back_ref_icaseIcNS_12regex_traitsIcEEED1Ev, symObjAddr: 0x13160, symBinAddr: 0x3C410, symSize: 0x50 }
  - { offset: 0x1B2E68, size: 0x8, addend: 0x0, symName: __ZNSt3__116__back_ref_icaseIcNS_12regex_traitsIcEEED0Ev, symObjAddr: 0x131B0, symBinAddr: 0x3C460, symSize: 0x50 }
  - { offset: 0x1B2F33, size: 0x8, addend: 0x0, symName: __ZNKSt3__116__back_ref_icaseIcNS_12regex_traitsIcEEE6__execERNS_7__stateIcEE, symObjAddr: 0x13200, symBinAddr: 0x3C4B0, symSize: 0xC0 }
  - { offset: 0x1B30A1, size: 0x8, addend: 0x0, symName: __ZNSt3__118__back_ref_collateIcNS_12regex_traitsIcEEED1Ev, symObjAddr: 0x132C0, symBinAddr: 0x3C570, symSize: 0x50 }
  - { offset: 0x1B3164, size: 0x8, addend: 0x0, symName: __ZNSt3__118__back_ref_collateIcNS_12regex_traitsIcEEED0Ev, symObjAddr: 0x13310, symBinAddr: 0x3C5C0, symSize: 0x50 }
  - { offset: 0x1B322F, size: 0x8, addend: 0x0, symName: __ZNKSt3__118__back_ref_collateIcNS_12regex_traitsIcEEE6__execERNS_7__stateIcEE, symObjAddr: 0x13360, symBinAddr: 0x3C610, symSize: 0x80 }
  - { offset: 0x1B3308, size: 0x8, addend: 0x0, symName: __ZNSt3__110__back_refIcED1Ev, symObjAddr: 0x133E0, symBinAddr: 0x3C690, symSize: 0x30 }
  - { offset: 0x1B3391, size: 0x8, addend: 0x0, symName: __ZNSt3__110__back_refIcED0Ev, symObjAddr: 0x13410, symBinAddr: 0x3C6C0, symSize: 0x40 }
  - { offset: 0x1B33C1, size: 0x8, addend: 0x0, symName: __ZNSt3__110__back_refIcED0Ev, symObjAddr: 0x13410, symBinAddr: 0x3C6C0, symSize: 0x40 }
  - { offset: 0x1B33DF, size: 0x8, addend: 0x0, symName: __ZNSt3__110__back_refIcED0Ev, symObjAddr: 0x13410, symBinAddr: 0x3C6C0, symSize: 0x40 }
  - { offset: 0x1B33FD, size: 0x8, addend: 0x0, symName: __ZNSt3__110__back_refIcED0Ev, symObjAddr: 0x13410, symBinAddr: 0x3C6C0, symSize: 0x40 }
  - { offset: 0x1B3428, size: 0x8, addend: 0x0, symName: __ZNKSt3__110__back_refIcE6__execERNS_7__stateIcEE, symObjAddr: 0x13450, symBinAddr: 0x3C700, symSize: 0xB0 }
  - { offset: 0x1B382E, size: 0x8, addend: 0x0, symName: __ZNSt3__16vectorIcNS_9allocatorIcEEE20__throw_length_errorB8ne200100Ev, symObjAddr: 0x14A20, symBinAddr: 0x3DC50, symSize: 0x10 }
  - { offset: 0x1B3846, size: 0x8, addend: 0x0, symName: __ZNSt3__119__throw_regex_errorB8ne200100ILNS_15regex_constants10error_typeE5EEEvv, symObjAddr: 0x14A30, symBinAddr: 0x3DC60, symSize: 0x50 }
  - { offset: 0x1B3C11, size: 0x8, addend: 0x0, symName: __ZNSt3__16vectorINS_4pairINS_12basic_stringIcNS_11char_traitsIcEENS_9allocatorIcEEEES7_EENS5_IS8_EEED1B8ne200100Ev, symObjAddr: 0x13890, symBinAddr: 0x3CAD0, symSize: 0x90 }
  - { offset: 0x1B4287, size: 0x8, addend: 0x0, symName: __ZNSt3__120__bracket_expressionIcNS_12regex_traitsIcEEED1Ev, symObjAddr: 0x13920, symBinAddr: 0x3CB60, symSize: 0x10 }
  - { offset: 0x1B42BD, size: 0x8, addend: 0x0, symName: __ZNSt3__120__bracket_expressionIcNS_12regex_traitsIcEEED2Ev, symObjAddr: 0x14400, symBinAddr: 0x3D630, symSize: 0x150 }
  - { offset: 0x1B4CDF, size: 0x8, addend: 0x0, symName: __ZNSt3__120__bracket_expressionIcNS_12regex_traitsIcEEED0Ev, symObjAddr: 0x13930, symBinAddr: 0x3CB70, symSize: 0x20 }
  - { offset: 0x1B5135, size: 0x8, addend: 0x0, symName: __ZNKSt3__120__bracket_expressionIcNS_12regex_traitsIcEEE6__execERNS_7__stateIcEE, symObjAddr: 0x13950, symBinAddr: 0x3CB90, symSize: 0xA60 }
  - { offset: 0x1B6BD8, size: 0x8, addend: 0x0, symName: __ZNKSt3__112regex_traitsIcE20__lookup_collatenameIPcEENS_12basic_stringIcNS_11char_traitsIcEENS_9allocatorIcEEEET_SA_c, symObjAddr: 0x14670, symBinAddr: 0x3D8A0, symSize: 0x220 }
  - { offset: 0x1B7775, size: 0x8, addend: 0x0, symName: __ZNKSt3__112regex_traitsIcE9transformIPcEENS_12basic_stringIcNS_11char_traitsIcEENS_9allocatorIcEEEET_SA_, symObjAddr: 0x14550, symBinAddr: 0x3D780, symSize: 0x120 }
  - { offset: 0x1B7DB6, size: 0x8, addend: 0x0, symName: __ZNKSt3__112regex_traitsIcE19__transform_primaryIPcEENS_12basic_stringIcNS_11char_traitsIcEENS_9allocatorIcEEEET_SA_c, symObjAddr: 0x14890, symBinAddr: 0x3DAC0, symSize: 0x190 }
  - { offset: 0x1B8535, size: 0x8, addend: 0x0, symName: __ZNSt3__14pairINS_12basic_stringIcNS_11char_traitsIcEENS_9allocatorIcEEEES6_ED1Ev, symObjAddr: 0x143C0, symBinAddr: 0x3D5F0, symSize: 0x40 }
  - { offset: 0x1B8826, size: 0x8, addend: 0x0, symName: __ZNSt3__111basic_regexIcNS_12regex_traitsIcEEE25__parse_equivalence_classINS_11__wrap_iterIPKcEEEET_S9_S9_PNS_20__bracket_expressionIcS2_EE, symObjAddr: 0x14EA0, symBinAddr: 0x3E0D0, symSize: 0x280 }
  - { offset: 0x1B9364, size: 0x8, addend: 0x0, symName: __ZNSt3__111basic_regexIcNS_12regex_traitsIcEEE18__parse_awk_escapeINS_11__wrap_iterIPKcEEEET_S9_S9_PNS_12basic_stringIcNS_11char_traitsIcEENS_9allocatorIcEEEE, symObjAddr: 0x15420, symBinAddr: 0x3E650, symSize: 0x2E0 }
  - { offset: 0x1B94D7, size: 0x8, addend: 0x0, symName: __ZNSt3__111basic_regexIcNS_12regex_traitsIcEEE23__parse_character_classINS_11__wrap_iterIPKcEEEET_S9_S9_PNS_20__bracket_expressionIcS2_EE, symObjAddr: 0x15120, symBinAddr: 0x3E350, symSize: 0x90 }
  - { offset: 0x1B980E, size: 0x8, addend: 0x0, symName: __ZNSt3__111basic_regexIcNS_12regex_traitsIcEEE24__parse_collating_symbolINS_11__wrap_iterIPKcEEEET_S9_S9_RNS_12basic_stringIcNS_11char_traitsIcEENS_9allocatorIcEEEE, symObjAddr: 0x151B0, symBinAddr: 0x3E3E0, symSize: 0xD0 }
  - { offset: 0x1B9C2E, size: 0x8, addend: 0x0, symName: __ZNSt3__111basic_regexIcNS_12regex_traitsIcEEE20__parse_class_escapeINS_11__wrap_iterIPKcEEEET_S9_S9_RNS_12basic_stringIcNS_11char_traitsIcEENS_9allocatorIcEEEEPNS_20__bracket_expressionIcS2_EE, symObjAddr: 0x15280, symBinAddr: 0x3E4B0, symSize: 0x1A0 }
  - { offset: 0x1B9E0D, size: 0x8, addend: 0x0, symName: __ZNSt3__120__bracket_expressionIcNS_12regex_traitsIcEEE13__add_digraphB8ne200100Ecc, symObjAddr: 0x15B40, symBinAddr: 0x3ED70, symSize: 0x1E0 }
  - { offset: 0x1BA493, size: 0x8, addend: 0x0, symName: __ZNSt3__120__bracket_expressionIcNS_12regex_traitsIcEEE11__add_rangeB8ne200100ENS_12basic_stringIcNS_11char_traitsIcEENS_9allocatorIcEEEES9_, symObjAddr: 0x15700, symBinAddr: 0x3E930, symSize: 0x440 }
  - { offset: 0x1BBBBB, size: 0x8, addend: 0x0, symName: __ZNKSt3__112regex_traitsIcE20__lookup_collatenameINS_11__wrap_iterIPKcEEEENS_12basic_stringIcNS_11char_traitsIcEENS_9allocatorIcEEEET_SD_c, symObjAddr: 0x15D70, symBinAddr: 0x3EFA0, symSize: 0x220 }
  - { offset: 0x1BC76D, size: 0x8, addend: 0x0, symName: __ZNKSt3__112regex_traitsIcE19__transform_primaryINS_11__wrap_iterIPcEEEENS_12basic_stringIcNS_11char_traitsIcEENS_9allocatorIcEEEET_SC_c, symObjAddr: 0x15F90, symBinAddr: 0x3F1C0, symSize: 0x190 }
  - { offset: 0x1BCF01, size: 0x8, addend: 0x0, symName: __ZNSt3__16vectorINS_12basic_stringIcNS_11char_traitsIcEENS_9allocatorIcEEEENS4_IS6_EEE24__emplace_back_slow_pathIJRKS6_EEEPS6_DpOT_, symObjAddr: 0x16120, symBinAddr: 0x3F350, symSize: 0x180 }
  - { offset: 0x1BD3AA, size: 0x8, addend: 0x0, symName: __ZNKSt3__112regex_traitsIcE18__lookup_classnameINS_11__wrap_iterIPKcEEEEjT_S7_bc, symObjAddr: 0x16360, symBinAddr: 0x3F590, symSize: 0x130 }
  - { offset: 0x1BDAFB, size: 0x8, addend: 0x0, symName: __ZNSt3__120__bracket_expressionIcNS_12regex_traitsIcEEE14__add_neg_charB8ne200100Ec, symObjAddr: 0x16490, symBinAddr: 0x3F6C0, symSize: 0x180 }
  - { offset: 0x1BDF2D, size: 0x8, addend: 0x0, symName: __ZNKSt3__112regex_traitsIcE9transformINS_11__wrap_iterIPcEEEENS_12basic_stringIcNS_11char_traitsIcEENS_9allocatorIcEEEET_SC_, symObjAddr: 0x167A0, symBinAddr: 0x3F9D0, symSize: 0x120 }
  - { offset: 0x1BE5A7, size: 0x8, addend: 0x0, symName: __ZNSt3__16vectorINS_4pairINS_12basic_stringIcNS_11char_traitsIcEENS_9allocatorIcEEEES7_EENS5_IS8_EEE9push_backB8ne200100EOS8_, symObjAddr: 0x16610, symBinAddr: 0x3F840, symSize: 0x190 }
  - { offset: 0x1BEE94, size: 0x8, addend: 0x0, symName: __ZNSt3__16vectorINS_4pairIccEENS_9allocatorIS2_EEE20__throw_length_errorB8ne200100Ev, symObjAddr: 0x16920, symBinAddr: 0x3FB50, symSize: 0x10 }
  - { offset: 0x1BEEAC, size: 0x8, addend: 0x0, symName: __ZNSt3__128__begin_marked_subexpressionIcED1Ev, symObjAddr: 0x16930, symBinAddr: 0x3FB60, symSize: 0x30 }
  - { offset: 0x1BF32B, size: 0x8, addend: 0x0, symName: __ZNSt3__16vectorINS_12basic_stringIcNS_11char_traitsIcEENS_9allocatorIcEEEENS4_IS6_EEE20__throw_length_errorB8ne200100Ev, symObjAddr: 0x16300, symBinAddr: 0x3F530, symSize: 0x10 }
  - { offset: 0x1BF343, size: 0x8, addend: 0x0, symName: __ZNSt3__119__throw_regex_errorB8ne200100ILNS_15regex_constants10error_typeE2EEEvv, symObjAddr: 0x16310, symBinAddr: 0x3F540, symSize: 0x50 }
  - { offset: 0x1BF34E, size: 0x8, addend: 0x0, symName: __ZNSt3__114__split_bufferINS_12basic_stringIcNS_11char_traitsIcEENS_9allocatorIcEEEERNS4_IS6_EEED1Ev, symObjAddr: 0x162A0, symBinAddr: 0x3F4D0, symSize: 0x60 }
  - { offset: 0x1BF90D, size: 0x8, addend: 0x0, symName: __ZNSt3__16vectorINS_4pairINS_12basic_stringIcNS_11char_traitsIcEENS_9allocatorIcEEEES7_EENS5_IS8_EEE20__throw_length_errorB8ne200100Ev, symObjAddr: 0x16910, symBinAddr: 0x3FB40, symSize: 0x10 }
  - { offset: 0x1BF925, size: 0x8, addend: 0x0, symName: __ZNSt3__16vectorINS_4pairIccEENS_9allocatorIS2_EEE20__throw_length_errorB8ne200100Ev, symObjAddr: 0x16920, symBinAddr: 0x3FB50, symSize: 0x10 }
  - { offset: 0x1BF94D, size: 0x8, addend: 0x0, symName: __ZNSt3__128__begin_marked_subexpressionIcED1Ev, symObjAddr: 0x16930, symBinAddr: 0x3FB60, symSize: 0x30 }
  - { offset: 0x1BF9D6, size: 0x8, addend: 0x0, symName: __ZNSt3__128__begin_marked_subexpressionIcED0Ev, symObjAddr: 0x16960, symBinAddr: 0x3FB90, symSize: 0x40 }
  - { offset: 0x1BFA06, size: 0x8, addend: 0x0, symName: __ZNSt3__128__begin_marked_subexpressionIcED0Ev, symObjAddr: 0x16960, symBinAddr: 0x3FB90, symSize: 0x40 }
  - { offset: 0x1BFA24, size: 0x8, addend: 0x0, symName: __ZNSt3__128__begin_marked_subexpressionIcED0Ev, symObjAddr: 0x16960, symBinAddr: 0x3FB90, symSize: 0x40 }
  - { offset: 0x1BFA42, size: 0x8, addend: 0x0, symName: __ZNSt3__128__begin_marked_subexpressionIcED0Ev, symObjAddr: 0x16960, symBinAddr: 0x3FB90, symSize: 0x40 }
  - { offset: 0x1BFA6D, size: 0x8, addend: 0x0, symName: __ZNKSt3__128__begin_marked_subexpressionIcE6__execERNS_7__stateIcEE, symObjAddr: 0x169A0, symBinAddr: 0x3FBD0, symSize: 0x30 }
  - { offset: 0x1BFB01, size: 0x8, addend: 0x0, symName: __ZNSt3__126__end_marked_subexpressionIcED1Ev, symObjAddr: 0x169D0, symBinAddr: 0x3FC00, symSize: 0x30 }
  - { offset: 0x1BFB8A, size: 0x8, addend: 0x0, symName: __ZNSt3__126__end_marked_subexpressionIcED0Ev, symObjAddr: 0x16A00, symBinAddr: 0x3FC30, symSize: 0x40 }
  - { offset: 0x1BFBBA, size: 0x8, addend: 0x0, symName: __ZNSt3__126__end_marked_subexpressionIcED0Ev, symObjAddr: 0x16A00, symBinAddr: 0x3FC30, symSize: 0x40 }
  - { offset: 0x1BFBD8, size: 0x8, addend: 0x0, symName: __ZNSt3__126__end_marked_subexpressionIcED0Ev, symObjAddr: 0x16A00, symBinAddr: 0x3FC30, symSize: 0x40 }
  - { offset: 0x1BFBF6, size: 0x8, addend: 0x0, symName: __ZNSt3__126__end_marked_subexpressionIcED0Ev, symObjAddr: 0x16A00, symBinAddr: 0x3FC30, symSize: 0x40 }
  - { offset: 0x1BFC21, size: 0x8, addend: 0x0, symName: __ZNKSt3__126__end_marked_subexpressionIcE6__execERNS_7__stateIcEE, symObjAddr: 0x16A40, symBinAddr: 0x3FC70, symSize: 0x30 }
  - { offset: 0x1BFEE6, size: 0x8, addend: 0x0, symName: __ZNSt3__16__loopIcED0Ev, symObjAddr: 0x16CB0, symBinAddr: 0x3FEE0, symSize: 0x60 }
  - { offset: 0x1BFFD7, size: 0x8, addend: 0x0, symName: __ZNSt3__16__loopIcED1Ev, symObjAddr: 0x16C60, symBinAddr: 0x3FE90, symSize: 0x50 }
  - { offset: 0x1C00FF, size: 0x8, addend: 0x0, symName: __ZNKSt3__16__loopIcE6__execERNS_7__stateIcEE, symObjAddr: 0x16D10, symBinAddr: 0x3FF40, symSize: 0x260 }
  - { offset: 0x1C0265, size: 0x8, addend: 0x0, symName: __ZNKSt3__16__loopIcE12__exec_splitEbRNS_7__stateIcEE, symObjAddr: 0x16F70, symBinAddr: 0x401A0, symSize: 0xF0 }
  - { offset: 0x1C034C, size: 0x8, addend: 0x0, symName: __ZNSt3__117__owns_two_statesIcED1Ev, symObjAddr: 0x17060, symBinAddr: 0x40290, symSize: 0x50 }
  - { offset: 0x1C03DE, size: 0x8, addend: 0x0, symName: __ZNSt3__117__owns_two_statesIcED0Ev, symObjAddr: 0x170B0, symBinAddr: 0x402E0, symSize: 0x60 }
  - { offset: 0x1C0478, size: 0x8, addend: 0x0, symName: __ZNSt3__117__repeat_one_loopIcED1Ev, symObjAddr: 0x17110, symBinAddr: 0x40340, symSize: 0x10 }
  - { offset: 0x1C04A4, size: 0x8, addend: 0x0, symName: __ZNSt3__117__repeat_one_loopIcED0Ev, symObjAddr: 0x17120, symBinAddr: 0x40350, symSize: 0x10 }
  - { offset: 0x1C04D0, size: 0x8, addend: 0x0, symName: __ZNKSt3__117__repeat_one_loopIcE6__execERNS_7__stateIcEE, symObjAddr: 0x17130, symBinAddr: 0x40360, symSize: 0x20 }
  - { offset: 0x1C053E, size: 0x8, addend: 0x0, symName: __ZNSt3__111__alternateIcED1Ev, symObjAddr: 0x17150, symBinAddr: 0x40380, symSize: 0x50 }
  - { offset: 0x1C05F2, size: 0x8, addend: 0x0, symName: __ZNSt3__111__alternateIcED0Ev, symObjAddr: 0x171A0, symBinAddr: 0x403D0, symSize: 0x60 }
  - { offset: 0x1C06AC, size: 0x8, addend: 0x0, symName: __ZNKSt3__111__alternateIcE6__execERNS_7__stateIcEE, symObjAddr: 0x17200, symBinAddr: 0x40430, symSize: 0x10 }
  - { offset: 0x1C06E0, size: 0x8, addend: 0x0, symName: __ZNKSt3__111__alternateIcE12__exec_splitEbRNS_7__stateIcEE, symObjAddr: 0x17210, symBinAddr: 0x40440, symSize: 0x20 }
  - { offset: 0x1C072F, size: 0x8, addend: 0x0, symName: __ZNSt3__121__empty_non_own_stateIcED1Ev, symObjAddr: 0x17230, symBinAddr: 0x40460, symSize: 0x10 }
  - { offset: 0x1C075B, size: 0x8, addend: 0x0, symName: __ZNSt3__121__empty_non_own_stateIcED0Ev, symObjAddr: 0x17240, symBinAddr: 0x40470, symSize: 0x10 }
  - { offset: 0x1C0787, size: 0x8, addend: 0x0, symName: __ZNKSt3__121__empty_non_own_stateIcE6__execERNS_7__stateIcEE, symObjAddr: 0x17250, symBinAddr: 0x40480, symSize: 0x20 }
  - { offset: 0x1C0ACC, size: 0x8, addend: 0x0, symName: __ZNSt3__111__match_anyIcED1Ev, symObjAddr: 0x177F0, symBinAddr: 0x40A20, symSize: 0x30 }
  - { offset: 0x1C0B55, size: 0x8, addend: 0x0, symName: __ZNSt3__111__match_anyIcED0Ev, symObjAddr: 0x17820, symBinAddr: 0x40A50, symSize: 0x40 }
  - { offset: 0x1C0B85, size: 0x8, addend: 0x0, symName: __ZNSt3__111__match_anyIcED0Ev, symObjAddr: 0x17820, symBinAddr: 0x40A50, symSize: 0x40 }
  - { offset: 0x1C0BA3, size: 0x8, addend: 0x0, symName: __ZNSt3__111__match_anyIcED0Ev, symObjAddr: 0x17820, symBinAddr: 0x40A50, symSize: 0x40 }
  - { offset: 0x1C0BC1, size: 0x8, addend: 0x0, symName: __ZNSt3__111__match_anyIcED0Ev, symObjAddr: 0x17820, symBinAddr: 0x40A50, symSize: 0x40 }
  - { offset: 0x1C0BEC, size: 0x8, addend: 0x0, symName: __ZNKSt3__111__match_anyIcE6__execERNS_7__stateIcEE, symObjAddr: 0x17860, symBinAddr: 0x40A90, symSize: 0x40 }
  - { offset: 0x1C0C3D, size: 0x8, addend: 0x0, symName: __ZNSt3__111basic_regexIcNS_12regex_traitsIcEEE15__test_back_refEc, symObjAddr: 0x178A0, symBinAddr: 0x40AD0, symSize: 0x50 }
  - { offset: 0x1C0D67, size: 0x8, addend: 0x0, symName: __ZNSt3__111basic_regexIcNS_12regex_traitsIcEEE20__parse_ORD_CHAR_EREINS_11__wrap_iterIPKcEEEET_S9_S9_, symObjAddr: 0x17B30, symBinAddr: 0x40D60, symSize: 0x1C0 }
  - { offset: 0x1C0E04, size: 0x8, addend: 0x0, symName: __ZNSt3__111basic_regexIcNS_12regex_traitsIcEEE23__parse_QUOTED_CHAR_EREINS_11__wrap_iterIPKcEEEET_S9_S9_, symObjAddr: 0x17CF0, symBinAddr: 0x40F20, symSize: 0x200 }
  - { offset: 0x1C1021, size: 0x8, addend: 0x0, symName: __ZNSt3__128__exception_guard_exceptionsINS_29_AllocatorDestroyRangeReverseINS_9allocatorINS_6vectorI21llama_grammar_elementNS2_IS4_EEEEEEPS6_EEED1B8ne200100Ev, symObjAddr: 0x18070, symBinAddr: 0x41220, symSize: 0x50 }
  - { offset: 0x1C104E, size: 0x8, addend: 0x0, symName: __ZNSt3__128__exception_guard_exceptionsINS_29_AllocatorDestroyRangeReverseINS_9allocatorINS_6vectorI21llama_grammar_elementNS2_IS4_EEEEEEPS6_EEED1B8ne200100Ev, symObjAddr: 0x18070, symBinAddr: 0x41220, symSize: 0x50 }
  - { offset: 0x1EF1BA, size: 0x8, addend: 0x0, symName: __ZNSt3__125__throw_bad_function_callB8ne200100Ev, symObjAddr: 0xC9C0, symBinAddr: 0x4DB90, symSize: 0x40 }
  - { offset: 0x1EF606, size: 0x8, addend: 0x0, symName: __ZNSt3__111make_uniqueB8ne200100I24llm_graph_input_samplingJRKNS_3mapIiP13llama_samplerNS_4lessIiEENS_9allocatorINS_4pairIKiS4_EEEEEEELi0EEENS_10unique_ptrIT_NS_14default_deleteISG_EEEEDpOT0_, symObjAddr: 0xB3F0, symBinAddr: 0x4CAF0, symSize: 0x110 }
  - { offset: 0x1F9559, size: 0x8, addend: 0x0, symName: __ZN20llm_graph_input_embd9set_inputEPK12llama_ubatch, symObjAddr: 0x0, symBinAddr: 0x417C0, symSize: 0xC0 }
  - { offset: 0x1F968E, size: 0x8, addend: 0x0, symName: __ZN20llm_graph_input_embd9can_reuseERK16llm_graph_params, symObjAddr: 0xC0, symBinAddr: 0x41880, symSize: 0x70 }
  - { offset: 0x1F9940, size: 0x8, addend: 0x0, symName: __ZN19llm_graph_input_pos9set_inputEPK12llama_ubatch, symObjAddr: 0x130, symBinAddr: 0x418F0, symSize: 0x290 }
  - { offset: 0x1F9D0C, size: 0x8, addend: 0x0, symName: __ZN19llm_graph_input_pos9can_reuseERK16llm_graph_params, symObjAddr: 0x3C0, symBinAddr: 0x41B80, symSize: 0x20 }
  - { offset: 0x1F9FC5, size: 0x8, addend: 0x0, symName: __ZN25llm_graph_input_attn_temp9set_inputEPK12llama_ubatch, symObjAddr: 0x3E0, symBinAddr: 0x41BA0, symSize: 0x330 }
  - { offset: 0x1FA445, size: 0x8, addend: 0x0, symName: __ZN26llm_graph_input_pos_bucket9set_inputEPK12llama_ubatch, symObjAddr: 0x710, symBinAddr: 0x41ED0, symSize: 0x5C0 }
  - { offset: 0x1FA5A5, size: 0x8, addend: 0x0, symName: __Z30llama_relative_position_bucketiiyb, symObjAddr: 0xCD0, symBinAddr: 0x42490, symSize: 0xF0 }
  - { offset: 0x1FA60A, size: 0x8, addend: 0x0, symName: __ZN29llm_graph_input_pos_bucket_kv9set_inputEPK12llama_ubatch, symObjAddr: 0xDC0, symBinAddr: 0x42580, symSize: 0x20 }
  - { offset: 0x1FA642, size: 0x8, addend: 0x0, symName: __ZN23llm_graph_input_out_ids9set_inputEPK12llama_ubatch, symObjAddr: 0xDE0, symBinAddr: 0x425A0, symSize: 0x1C0 }
  - { offset: 0x1FA71C, size: 0x8, addend: 0x0, symName: __ZN23llm_graph_input_out_ids9can_reuseERK16llm_graph_params, symObjAddr: 0xFA0, symBinAddr: 0x42760, symSize: 0x20 }
  - { offset: 0x1FA9D5, size: 0x8, addend: 0x0, symName: __ZN20llm_graph_input_mean9set_inputEPK12llama_ubatch, symObjAddr: 0xFC0, symBinAddr: 0x42780, symSize: 0x650 }
  - { offset: 0x1FB1DF, size: 0x8, addend: 0x0, symName: __ZN19llm_graph_input_cls9set_inputEPK12llama_ubatch, symObjAddr: 0x1610, symBinAddr: 0x42DD0, symSize: 0x4D0 }
  - { offset: 0x1FB814, size: 0x8, addend: 0x0, symName: __ZN18llm_graph_input_rs9set_inputEPK12llama_ubatch, symObjAddr: 0x1AE0, symBinAddr: 0x432A0, symSize: 0xA0 }
  - { offset: 0x1FB8A7, size: 0x8, addend: 0x0, symName: __ZN18llm_graph_input_rs9can_reuseERK16llm_graph_params, symObjAddr: 0x1B80, symBinAddr: 0x43340, symSize: 0xB0 }
  - { offset: 0x1FB91D, size: 0x8, addend: 0x0, symName: __ZN26llm_graph_input_cross_embd9set_inputEPK12llama_ubatch, symObjAddr: 0x1C30, symBinAddr: 0x433F0, symSize: 0x40 }
  - { offset: 0x1FB9AD, size: 0x8, addend: 0x0, symName: __ZN29llm_graph_input_attn_no_cache9set_inputEPK12llama_ubatch, symObjAddr: 0x1C70, symBinAddr: 0x43430, symSize: 0x340 }
  - { offset: 0x1FBF3F, size: 0x8, addend: 0x0, symName: __ZL10print_maskPKfxxx14llama_swa_type, symObjAddr: 0x1FB0, symBinAddr: 0x43770, symSize: 0x220 }
  - { offset: 0x1FC154, size: 0x8, addend: 0x0, symName: __ZN23llm_graph_input_attn_kv9set_inputEPK12llama_ubatch, symObjAddr: 0x21D0, symBinAddr: 0x43990, symSize: 0x60 }
  - { offset: 0x1FC18E, size: 0x8, addend: 0x0, symName: __ZN23llm_graph_input_attn_kv9can_reuseERK16llm_graph_params, symObjAddr: 0x2230, symBinAddr: 0x439F0, symSize: 0x60 }
  - { offset: 0x1FC1E8, size: 0x8, addend: 0x0, symName: __ZN22llm_graph_input_attn_k9set_inputEPK12llama_ubatch, symObjAddr: 0x2290, symBinAddr: 0x43A50, symSize: 0x40 }
  - { offset: 0x1FC222, size: 0x8, addend: 0x0, symName: __ZN22llm_graph_input_attn_k9can_reuseERK16llm_graph_params, symObjAddr: 0x22D0, symBinAddr: 0x43A90, symSize: 0x60 }
  - { offset: 0x1FC27C, size: 0x8, addend: 0x0, symName: __ZN28llm_graph_input_attn_kv_iswa9set_inputEPK12llama_ubatch, symObjAddr: 0x2330, symBinAddr: 0x43AF0, symSize: 0xD0 }
  - { offset: 0x1FC2B6, size: 0x8, addend: 0x0, symName: __ZN28llm_graph_input_attn_kv_iswa9can_reuseERK16llm_graph_params, symObjAddr: 0x2400, symBinAddr: 0x43BC0, symSize: 0xC0 }
  - { offset: 0x1FC3EC, size: 0x8, addend: 0x0, symName: __ZN26llm_graph_input_attn_cross9set_inputEPK12llama_ubatch, symObjAddr: 0x24C0, symBinAddr: 0x43C80, symSize: 0x210 }
  - { offset: 0x1FC6A7, size: 0x8, addend: 0x0, symName: __ZN26llm_graph_input_mem_hybrid9set_inputEPK12llama_ubatch, symObjAddr: 0x26D0, symBinAddr: 0x43E90, symSize: 0x110 }
  - { offset: 0x1FC7BC, size: 0x8, addend: 0x0, symName: __ZN26llm_graph_input_mem_hybrid9can_reuseERK16llm_graph_params, symObjAddr: 0x27E0, symBinAddr: 0x43FA0, symSize: 0x130 }
  - { offset: 0x1FC8EC, size: 0x8, addend: 0x0, symName: __ZN31llm_graph_input_mem_hybrid_iswa9set_inputEPK12llama_ubatch, symObjAddr: 0x2910, symBinAddr: 0x440D0, symSize: 0x190 }
  - { offset: 0x1FCAA2, size: 0x8, addend: 0x0, symName: __ZN31llm_graph_input_mem_hybrid_iswa9can_reuseERK16llm_graph_params, symObjAddr: 0x2AA0, symBinAddr: 0x44260, symSize: 0x1B0 }
  - { offset: 0x1FD50E, size: 0x8, addend: 0x0, symName: __ZN24llm_graph_input_sampling9set_inputEPK12llama_ubatch, symObjAddr: 0x2C50, symBinAddr: 0x44410, symSize: 0x210 }
  - { offset: 0x1FDE44, size: 0x8, addend: 0x0, symName: __ZNSt3__112__hash_tableIiNS_4hashIiEENS_8equal_toIiEENS_9allocatorIiEEE25__emplace_unique_key_argsIiJRKiEEENS_4pairINS_15__hash_iteratorIPNS_11__hash_nodeIiPvEEEEbEERKT_DpOT0_, symObjAddr: 0xC0A0, symBinAddr: 0x4D4F0, symSize: 0x4A0 }
  - { offset: 0x1FE4C7, size: 0x8, addend: 0x0, symName: __ZNSt3__113unordered_setIiNS_4hashIiEENS_8equal_toIiEENS_9allocatorIiEEED1B8ne200100Ev, symObjAddr: 0x2E60, symBinAddr: 0x44620, symSize: 0x50 }
  - { offset: 0x1FE819, size: 0x8, addend: 0x0, symName: __ZN24llm_graph_input_sampling9can_reuseERK16llm_graph_params, symObjAddr: 0x2EB0, symBinAddr: 0x44670, symSize: 0x140 }
  - { offset: 0x1FE855, size: 0x8, addend: 0x0, symName: __ZN24llm_graph_input_sampling9can_reuseERK16llm_graph_params, symObjAddr: 0x2EB0, symBinAddr: 0x44670, symSize: 0x140 }
  - { offset: 0x1FF168, size: 0x8, addend: 0x0, symName: __ZN16llm_graph_resultC2Ex, symObjAddr: 0x2FF0, symBinAddr: 0x447B0, symSize: 0x320 }
  - { offset: 0x1FFA10, size: 0x8, addend: 0x0, symName: __ZN16llm_graph_result5resetEv, symObjAddr: 0x3310, symBinAddr: 0x44AD0, symSize: 0x710 }
  - { offset: 0x200A84, size: 0x8, addend: 0x0, symName: __ZNSt3__16vectorINS_10unique_ptrI17llm_graph_input_iNS_14default_deleteIS2_EEEENS_9allocatorIS5_EEED1B8ne200100Ev, symObjAddr: 0x3AE0, symBinAddr: 0x451E0, symSize: 0x80 }
  - { offset: 0x200C79, size: 0x8, addend: 0x0, symName: __ZNSt3__16__treeINS_12__value_typeIiP11ggml_tensorEENS_19__map_value_compareIiS4_NS_4lessIiEELb1EEENS_9allocatorIS4_EEE7destroyEPNS_11__tree_nodeIS4_PvEE, symObjAddr: 0xC6F0, symBinAddr: 0x4DB40, symSize: 0x40 }
  - { offset: 0x201872, size: 0x8, addend: 0x0, symName: __ZNSt3__16vectorINS_10unique_ptrI17llm_graph_input_iNS_14default_deleteIS2_EEEENS_9allocatorIS5_EEE20__throw_length_errorB8ne200100Ev, symObjAddr: 0xC740, symBinAddr: 0x4DB80, symSize: 0x10 }
  - { offset: 0x20192B, size: 0x8, addend: 0x0, symName: __ZN16llm_graph_resultC1Ex, symObjAddr: 0x3B60, symBinAddr: 0x45260, symSize: 0x10 }
  - { offset: 0x201983, size: 0x8, addend: 0x0, symName: __ZNK16llm_graph_result13get_max_nodesEv, symObjAddr: 0x3B70, symBinAddr: 0x45270, symSize: 0x10 }
  - { offset: 0x201A0F, size: 0x8, addend: 0x0, symName: __ZN16llm_graph_result10set_inputsEPK12llama_ubatch, symObjAddr: 0x3B80, symBinAddr: 0x45280, symSize: 0x40 }
  - { offset: 0x201BF2, size: 0x8, addend: 0x0, symName: __ZN16llm_graph_result11set_outputsEv, symObjAddr: 0x3BC0, symBinAddr: 0x452C0, symSize: 0x1C0 }
  - { offset: 0x202317, size: 0x8, addend: 0x0, symName: __ZN16llm_graph_result9can_reuseERK16llm_graph_params, symObjAddr: 0x3D80, symBinAddr: 0x45480, symSize: 0x130 }
  - { offset: 0x2024EB, size: 0x8, addend: 0x0, symName: __ZNK16llm_graph_params11allow_reuseERKS_, symObjAddr: 0x3EB0, symBinAddr: 0x455B0, symSize: 0x3B0 }
  - { offset: 0x202DEE, size: 0x8, addend: 0x0, symName: __ZN16llm_graph_result9add_inputENSt3__110unique_ptrI17llm_graph_input_iNS0_14default_deleteIS2_EEEE, symObjAddr: 0x4260, symBinAddr: 0x45960, symSize: 0x140 }
  - { offset: 0x203305, size: 0x8, addend: 0x0, symName: __ZNSt3__16vectorINS_10unique_ptrI17llm_graph_input_iNS_14default_deleteIS2_EEEENS_9allocatorIS5_EEE20__throw_length_errorB8ne200100Ev, symObjAddr: 0xC740, symBinAddr: 0x4DB80, symSize: 0x10 }
  - { offset: 0x203328, size: 0x8, addend: 0x0, symName: __ZN16llm_graph_result10set_paramsERK16llm_graph_params, symObjAddr: 0x43A0, symBinAddr: 0x45AA0, symSize: 0x20 }
  - { offset: 0x203367, size: 0x8, addend: 0x0, symName: __ZN16llm_graph_paramsaSERKS_, symObjAddr: 0x43C0, symBinAddr: 0x45AC0, symSize: 0x1F0 }
  - { offset: 0x2039C7, size: 0x8, addend: 0x0, symName: __ZNSt3__16__treeINS_12__value_typeIiP13llama_samplerEENS_19__map_value_compareIiS4_NS_4lessIiEELb1EEENS_9allocatorIS4_EEE14__assign_multiINS_21__tree_const_iteratorIS4_PNS_11__tree_nodeIS4_PvEElEEEEvT_SJ_, symObjAddr: 0xB970, symBinAddr: 0x4D020, symSize: 0x350 }
  - { offset: 0x2040A5, size: 0x8, addend: 0x0, symName: __ZNSt3__110__function12__value_funcIFvRK12llama_ubatchP11ggml_tensorPKciEE4swapB8ne200100ERSA_, symObjAddr: 0xBE80, symBinAddr: 0x4D370, symSize: 0x140 }
  - { offset: 0x204C39, size: 0x8, addend: 0x0, symName: __ZN17llm_graph_contextC2ERK16llm_graph_params, symObjAddr: 0x45B0, symBinAddr: 0x45CB0, symSize: 0x200 }
  - { offset: 0x205108, size: 0x8, addend: 0x0, symName: __ZN17llm_graph_contextC1ERK16llm_graph_params, symObjAddr: 0x47B0, symBinAddr: 0x45EB0, symSize: 0x10 }
  - { offset: 0x205226, size: 0x8, addend: 0x0, symName: __ZNK17llm_graph_context2cbEP11ggml_tensorPKci, symObjAddr: 0x47C0, symBinAddr: 0x45EC0, symSize: 0x50 }
  - { offset: 0x205331, size: 0x8, addend: 0x0, symName: __ZNK17llm_graph_context10build_cvecEP11ggml_tensori, symObjAddr: 0x4810, symBinAddr: 0x45F10, symSize: 0x20 }
  - { offset: 0x2053CF, size: 0x8, addend: 0x0, symName: __ZNK17llm_graph_context13build_lora_mmEP11ggml_tensorS1_, symObjAddr: 0x4830, symBinAddr: 0x45F30, symSize: 0x100 }
  - { offset: 0x2055FC, size: 0x8, addend: 0x0, symName: __ZNK17llm_graph_context16build_lora_mm_idEP11ggml_tensorS1_S1_, symObjAddr: 0x4930, symBinAddr: 0x46030, symSize: 0x140 }
  - { offset: 0x20582C, size: 0x8, addend: 0x0, symName: __ZNK17llm_graph_context10build_normEP11ggml_tensorS1_S1_13llm_norm_typei, symObjAddr: 0x4A70, symBinAddr: 0x46170, symSize: 0x1C0 }
  - { offset: 0x205BCB, size: 0x8, addend: 0x0, symName: __ZNK17llm_graph_context9build_ffnEP11ggml_tensorS1_S1_S1_S1_S1_S1_S1_S1_S1_S1_15llm_ffn_op_type17llm_ffn_gate_typei, symObjAddr: 0x4C30, symBinAddr: 0x46330, symSize: 0x750 }
  - { offset: 0x206E37, size: 0x8, addend: 0x0, symName: __ZNK17llm_graph_context13build_moe_ffnEP11ggml_tensorS1_S1_S1_S1_S1_xx15llm_ffn_op_typebbf29llama_expert_gating_func_typeiS1_, symObjAddr: 0x5380, symBinAddr: 0x46A80, symSize: 0xA0 }
  - { offset: 0x206F8F, size: 0x8, addend: 0x0, symName: __ZNK17llm_graph_context13build_moe_ffnEP11ggml_tensorS1_S1_S1_S1_S1_S1_S1_S1_S1_xx15llm_ffn_op_typebbf29llama_expert_gating_func_typeiS1_, symObjAddr: 0x5420, symBinAddr: 0x46B20, symSize: 0x1180 }
  - { offset: 0x209607, size: 0x8, addend: 0x0, symName: __ZNK17llm_graph_context14build_inp_embdEP11ggml_tensor, symObjAddr: 0x65A0, symBinAddr: 0x47CA0, symSize: 0x4B0 }
  - { offset: 0x20A203, size: 0x8, addend: 0x0, symName: __ZNK17llm_graph_context13build_inp_posEv, symObjAddr: 0x6A50, symBinAddr: 0x48150, symSize: 0x1E0 }
  - { offset: 0x20A7F9, size: 0x8, addend: 0x0, symName: __ZNK17llm_graph_context20build_inp_attn_scaleEv, symObjAddr: 0x6C30, symBinAddr: 0x48330, symSize: 0x1E0 }
  - { offset: 0x20AE28, size: 0x8, addend: 0x0, symName: __ZNK17llm_graph_context17build_inp_out_idsEv, symObjAddr: 0x6E10, symBinAddr: 0x48510, symSize: 0x210 }
  - { offset: 0x20B422, size: 0x8, addend: 0x0, symName: __ZNK17llm_graph_context14build_inp_meanEv, symObjAddr: 0x7020, symBinAddr: 0x48720, symSize: 0x1E0 }
  - { offset: 0x20BA01, size: 0x8, addend: 0x0, symName: __ZNK17llm_graph_context13build_inp_clsEv, symObjAddr: 0x7200, symBinAddr: 0x48900, symSize: 0x1E0 }
  - { offset: 0x20BFE6, size: 0x8, addend: 0x0, symName: __ZNK17llm_graph_context20build_inp_cross_embdEv, symObjAddr: 0x73E0, symBinAddr: 0x48AE0, symSize: 0x200 }
  - { offset: 0x20C604, size: 0x8, addend: 0x0, symName: __ZNK17llm_graph_context24build_inp_pos_bucket_encEv, symObjAddr: 0x75E0, symBinAddr: 0x48CE0, symSize: 0x1E0 }
  - { offset: 0x20CC74, size: 0x8, addend: 0x0, symName: __ZNK17llm_graph_context24build_inp_pos_bucket_decEv, symObjAddr: 0x77C0, symBinAddr: 0x48EC0, symSize: 0x220 }
  - { offset: 0x20D30F, size: 0x8, addend: 0x0, symName: __ZNK17llm_graph_context14build_pos_biasEP11ggml_tensorS1_, symObjAddr: 0x79E0, symBinAddr: 0x490E0, symSize: 0x120 }
  - { offset: 0x20D619, size: 0x8, addend: 0x0, symName: __ZNK17llm_graph_context14build_attn_mhaEP11ggml_tensorS1_S1_S1_S1_S1_S1_fi, symObjAddr: 0x7B00, symBinAddr: 0x49200, symSize: 0x7D0 }
  - { offset: 0x20E87C, size: 0x8, addend: 0x0, symName: __ZNK17llm_graph_context23build_attn_inp_no_cacheEv, symObjAddr: 0x82D0, symBinAddr: 0x499D0, symSize: 0x2D0 }
  - { offset: 0x20EEA2, size: 0x8, addend: 0x0, symName: __ZNK17llm_graph_context10build_attnEP29llm_graph_input_attn_no_cacheP11ggml_tensorS3_S3_S3_S3_S3_S3_S3_fi, symObjAddr: 0x85A0, symBinAddr: 0x49CA0, symSize: 0x120 }
  - { offset: 0x20F1FA, size: 0x8, addend: 0x0, symName: __ZNK17llm_graph_context17build_attn_inp_kvEv, symObjAddr: 0x86C0, symBinAddr: 0x49DC0, symSize: 0x180 }
  - { offset: 0x20F79C, size: 0x8, addend: 0x0, symName: __ZL22build_attn_inp_kv_implP12ggml_contextRK12llama_ubatchRK13llama_hparamsRK13llama_cparamsPK22llama_kv_cache_context, symObjAddr: 0x8840, symBinAddr: 0x49F40, symSize: 0x1E0 }
  - { offset: 0x20FBF2, size: 0x8, addend: 0x0, symName: __ZNK17llm_graph_context10build_attnEP23llm_graph_input_attn_kvP11ggml_tensorS3_S3_S3_S3_S3_S3_S3_fi, symObjAddr: 0x8A20, symBinAddr: 0x4A120, symSize: 0x1F0 }
  - { offset: 0x210084, size: 0x8, addend: 0x0, symName: __ZNK17llm_graph_context16build_attn_inp_kEv, symObjAddr: 0x8C10, symBinAddr: 0x4A310, symSize: 0x2E0 }
  - { offset: 0x21071A, size: 0x8, addend: 0x0, symName: __ZNK17llm_graph_context10build_attnEP22llm_graph_input_attn_kP11ggml_tensorS3_S3_S3_S3_S3_S3_S3_fi, symObjAddr: 0x8EF0, symBinAddr: 0x4A5F0, symSize: 0x1B0 }
  - { offset: 0x210A74, size: 0x8, addend: 0x0, symName: __ZNK17llm_graph_context10build_attnEP28llm_graph_input_attn_kv_iswaP11ggml_tensorS3_S3_S3_S3_S3_S3_S3_fi, symObjAddr: 0x90A0, symBinAddr: 0x4A7A0, symSize: 0x230 }
  - { offset: 0x210DFB, size: 0x8, addend: 0x0, symName: __ZNK17llm_graph_context20build_attn_inp_crossEv, symObjAddr: 0x92D0, symBinAddr: 0x4A9D0, symSize: 0x210 }
  - { offset: 0x2113F2, size: 0x8, addend: 0x0, symName: __ZNK17llm_graph_context10build_attnEP26llm_graph_input_attn_crossP11ggml_tensorS3_S3_S3_S3_S3_S3_S3_fi, symObjAddr: 0x94E0, symBinAddr: 0x4ABE0, symSize: 0x110 }
  - { offset: 0x211743, size: 0x8, addend: 0x0, symName: __ZNK17llm_graph_context22build_attn_inp_kv_iswaEv, symObjAddr: 0x95F0, symBinAddr: 0x4ACF0, symSize: 0x420 }
  - { offset: 0x211E80, size: 0x8, addend: 0x0, symName: __ZNK17llm_graph_context8build_rsEP11ggml_tensorS1_S1_iijjjiRKNSt3__18functionIFS1_P12ggml_contextS1_S1_EEE, symObjAddr: 0x9A10, symBinAddr: 0x4B110, symSize: 0x180 }
  - { offset: 0x212213, size: 0x8, addend: 0x0, symName: __ZNK17llm_graph_context12build_rs_inpEv, symObjAddr: 0x9B90, symBinAddr: 0x4B290, symSize: 0x180 }
  - { offset: 0x2127B5, size: 0x8, addend: 0x0, symName: __ZL17build_rs_inp_implP12ggml_contextRK12llama_ubatchPK30llama_memory_recurrent_context, symObjAddr: 0x9D10, symBinAddr: 0x4B410, symSize: 0x110 }
  - { offset: 0x212B5D, size: 0x8, addend: 0x0, symName: __ZNK17llm_graph_context8build_rsEP18llm_graph_input_rsP11ggml_tensoriiRKNSt3__18functionIFS3_P12ggml_contextS3_S3_EEE, symObjAddr: 0x9E20, symBinAddr: 0x4B520, symSize: 0xA0 }
  - { offset: 0x212EF2, size: 0x8, addend: 0x0, symName: __ZNK17llm_graph_context27build_rwkv_token_shift_loadEP18llm_graph_input_rsRK12llama_ubatchi, symObjAddr: 0x9EC0, symBinAddr: 0x4B5C0, symSize: 0x1B0 }
  - { offset: 0x213289, size: 0x8, addend: 0x0, symName: __ZNK17llm_graph_context28build_rwkv_token_shift_storeEP11ggml_tensorRK12llama_ubatchi, symObjAddr: 0xA070, symBinAddr: 0x4B770, symSize: 0xF0 }
  - { offset: 0x2134C2, size: 0x8, addend: 0x0, symName: __ZNK17llm_graph_context20build_inp_mem_hybridEv, symObjAddr: 0xA160, symBinAddr: 0x4B860, symSize: 0x290 }
  - { offset: 0x213EEC, size: 0x8, addend: 0x0, symName: __ZNK17llm_graph_context25build_inp_mem_hybrid_iswaEv, symObjAddr: 0xA3F0, symBinAddr: 0x4BAF0, symSize: 0x4B0 }
  - { offset: 0x2148A9, size: 0x8, addend: 0x0, symName: __ZNK17llm_graph_context15build_dense_outEP11ggml_tensorS1_, symObjAddr: 0xA8A0, symBinAddr: 0x4BFA0, symSize: 0x100 }
  - { offset: 0x214A32, size: 0x8, addend: 0x0, symName: __ZNK17llm_graph_context13build_poolingEP11ggml_tensorS1_S1_S1_, symObjAddr: 0xA9A0, symBinAddr: 0x4C0A0, symSize: 0x220 }
  - { offset: 0x214A45, size: 0x8, addend: 0x0, symName: __ZNK17llm_graph_context13build_poolingEP11ggml_tensorS1_S1_S1_, symObjAddr: 0xA9A0, symBinAddr: 0x4C0A0, symSize: 0x220 }
  - { offset: 0x2158ED, size: 0x8, addend: 0x0, symName: __ZNK17llm_graph_context14build_samplingEv, symObjAddr: 0xABC0, symBinAddr: 0x4C2C0, symSize: 0x830 }
  - { offset: 0x21757B, size: 0x8, addend: 0x0, symName: __ZNSt3__16__treeINS_12__value_typeIiiEENS_19__map_value_compareIiS2_NS_4lessIiEELb1EEENS_9allocatorIS2_EEE7destroyEPNS_11__tree_nodeIS2_PvEE, symObjAddr: 0xBFE0, symBinAddr: 0x4D4B0, symSize: 0x40 }
  - { offset: 0x2177F3, size: 0x8, addend: 0x0, symName: __ZN20llm_graph_input_embdD1Ev, symObjAddr: 0xB500, symBinAddr: 0x4CC00, symSize: 0x10 }
  - { offset: 0x21781C, size: 0x8, addend: 0x0, symName: __ZN20llm_graph_input_embdD0Ev, symObjAddr: 0xB510, symBinAddr: 0x4CC10, symSize: 0x10 }
  - { offset: 0x217845, size: 0x8, addend: 0x0, symName: __ZN19llm_graph_input_posD1Ev, symObjAddr: 0xB520, symBinAddr: 0x4CC20, symSize: 0x10 }
  - { offset: 0x21786E, size: 0x8, addend: 0x0, symName: __ZN19llm_graph_input_posD0Ev, symObjAddr: 0xB530, symBinAddr: 0x4CC30, symSize: 0x10 }
  - { offset: 0x217897, size: 0x8, addend: 0x0, symName: __ZN25llm_graph_input_attn_tempD1Ev, symObjAddr: 0xB540, symBinAddr: 0x4CC40, symSize: 0x10 }
  - { offset: 0x2178C0, size: 0x8, addend: 0x0, symName: __ZN25llm_graph_input_attn_tempD0Ev, symObjAddr: 0xB550, symBinAddr: 0x4CC50, symSize: 0x10 }
  - { offset: 0x2178E9, size: 0x8, addend: 0x0, symName: __ZN17llm_graph_input_i9can_reuseERK16llm_graph_params, symObjAddr: 0xB560, symBinAddr: 0x4CC60, symSize: 0x10 }
  - { offset: 0x21791C, size: 0x8, addend: 0x0, symName: __ZN26llm_graph_input_pos_bucketD1Ev, symObjAddr: 0xB570, symBinAddr: 0x4CC70, symSize: 0x10 }
  - { offset: 0x217945, size: 0x8, addend: 0x0, symName: __ZN26llm_graph_input_pos_bucketD0Ev, symObjAddr: 0xB580, symBinAddr: 0x4CC80, symSize: 0x10 }
  - { offset: 0x21796E, size: 0x8, addend: 0x0, symName: __ZN29llm_graph_input_pos_bucket_kvD1Ev, symObjAddr: 0xB590, symBinAddr: 0x4CC90, symSize: 0x10 }
  - { offset: 0x217997, size: 0x8, addend: 0x0, symName: __ZN29llm_graph_input_pos_bucket_kvD0Ev, symObjAddr: 0xB5A0, symBinAddr: 0x4CCA0, symSize: 0x10 }
  - { offset: 0x2179C0, size: 0x8, addend: 0x0, symName: __ZN23llm_graph_input_out_idsD1Ev, symObjAddr: 0xB5B0, symBinAddr: 0x4CCB0, symSize: 0x10 }
  - { offset: 0x2179E9, size: 0x8, addend: 0x0, symName: __ZN23llm_graph_input_out_idsD0Ev, symObjAddr: 0xB5C0, symBinAddr: 0x4CCC0, symSize: 0x10 }
  - { offset: 0x217A12, size: 0x8, addend: 0x0, symName: __ZN20llm_graph_input_meanD1Ev, symObjAddr: 0xB5D0, symBinAddr: 0x4CCD0, symSize: 0x10 }
  - { offset: 0x217A3B, size: 0x8, addend: 0x0, symName: __ZN20llm_graph_input_meanD0Ev, symObjAddr: 0xB5E0, symBinAddr: 0x4CCE0, symSize: 0x10 }
  - { offset: 0x217A64, size: 0x8, addend: 0x0, symName: __ZN19llm_graph_input_clsD1Ev, symObjAddr: 0xB5F0, symBinAddr: 0x4CCF0, symSize: 0x10 }
  - { offset: 0x217A8D, size: 0x8, addend: 0x0, symName: __ZN19llm_graph_input_clsD0Ev, symObjAddr: 0xB600, symBinAddr: 0x4CD00, symSize: 0x10 }
  - { offset: 0x217AB6, size: 0x8, addend: 0x0, symName: __ZN18llm_graph_input_rsD1Ev, symObjAddr: 0xB610, symBinAddr: 0x4CD10, symSize: 0x10 }
  - { offset: 0x217ADF, size: 0x8, addend: 0x0, symName: __ZN18llm_graph_input_rsD0Ev, symObjAddr: 0xB620, symBinAddr: 0x4CD20, symSize: 0x10 }
  - { offset: 0x217B08, size: 0x8, addend: 0x0, symName: __ZN26llm_graph_input_cross_embdD1Ev, symObjAddr: 0xB630, symBinAddr: 0x4CD30, symSize: 0x10 }
  - { offset: 0x217B31, size: 0x8, addend: 0x0, symName: __ZN26llm_graph_input_cross_embdD0Ev, symObjAddr: 0xB640, symBinAddr: 0x4CD40, symSize: 0x10 }
  - { offset: 0x217B5A, size: 0x8, addend: 0x0, symName: __ZN29llm_graph_input_attn_no_cacheD1Ev, symObjAddr: 0xB650, symBinAddr: 0x4CD50, symSize: 0x10 }
  - { offset: 0x217B83, size: 0x8, addend: 0x0, symName: __ZN29llm_graph_input_attn_no_cacheD0Ev, symObjAddr: 0xB660, symBinAddr: 0x4CD60, symSize: 0x10 }
  - { offset: 0x217BAC, size: 0x8, addend: 0x0, symName: __ZN23llm_graph_input_attn_kvD1Ev, symObjAddr: 0xB670, symBinAddr: 0x4CD70, symSize: 0x10 }
  - { offset: 0x217BD5, size: 0x8, addend: 0x0, symName: __ZN23llm_graph_input_attn_kvD0Ev, symObjAddr: 0xB680, symBinAddr: 0x4CD80, symSize: 0x10 }
  - { offset: 0x217BFE, size: 0x8, addend: 0x0, symName: __ZN22llm_graph_input_attn_kD1Ev, symObjAddr: 0xB690, symBinAddr: 0x4CD90, symSize: 0x10 }
  - { offset: 0x217C27, size: 0x8, addend: 0x0, symName: __ZN22llm_graph_input_attn_kD0Ev, symObjAddr: 0xB6A0, symBinAddr: 0x4CDA0, symSize: 0x10 }
  - { offset: 0x217C50, size: 0x8, addend: 0x0, symName: __ZN28llm_graph_input_attn_kv_iswaD1Ev, symObjAddr: 0xB6B0, symBinAddr: 0x4CDB0, symSize: 0x10 }
  - { offset: 0x217C79, size: 0x8, addend: 0x0, symName: __ZN28llm_graph_input_attn_kv_iswaD0Ev, symObjAddr: 0xB6C0, symBinAddr: 0x4CDC0, symSize: 0x10 }
  - { offset: 0x217CA2, size: 0x8, addend: 0x0, symName: __ZN26llm_graph_input_attn_crossD1Ev, symObjAddr: 0xB6D0, symBinAddr: 0x4CDD0, symSize: 0x10 }
  - { offset: 0x217CCB, size: 0x8, addend: 0x0, symName: __ZN26llm_graph_input_attn_crossD0Ev, symObjAddr: 0xB6E0, symBinAddr: 0x4CDE0, symSize: 0x10 }
  - { offset: 0x217D0E, size: 0x8, addend: 0x0, symName: __ZN26llm_graph_input_mem_hybridD1Ev, symObjAddr: 0xB6F0, symBinAddr: 0x4CDF0, symSize: 0x50 }
  - { offset: 0x217E9E, size: 0x8, addend: 0x0, symName: __ZN26llm_graph_input_mem_hybridD0Ev, symObjAddr: 0xB740, symBinAddr: 0x4CE40, symSize: 0x50 }
  - { offset: 0x21805B, size: 0x8, addend: 0x0, symName: __ZN31llm_graph_input_mem_hybrid_iswaD1Ev, symObjAddr: 0xB790, symBinAddr: 0x4CE90, symSize: 0x50 }
  - { offset: 0x2181EB, size: 0x8, addend: 0x0, symName: __ZN31llm_graph_input_mem_hybrid_iswaD0Ev, symObjAddr: 0xB7E0, symBinAddr: 0x4CEE0, symSize: 0x50 }
  - { offset: 0x2183A8, size: 0x8, addend: 0x0, symName: __ZN24llm_graph_input_samplingD1Ev, symObjAddr: 0xB830, symBinAddr: 0x4CF30, symSize: 0x20 }
  - { offset: 0x218482, size: 0x8, addend: 0x0, symName: __ZN24llm_graph_input_samplingD0Ev, symObjAddr: 0xB850, symBinAddr: 0x4CF50, symSize: 0x30 }
  - { offset: 0x218586, size: 0x8, addend: 0x0, symName: __ZN16llm_graph_resultD1Ev, symObjAddr: 0xB880, symBinAddr: 0x4CF80, symSize: 0x10 }
  - { offset: 0x2185BC, size: 0x8, addend: 0x0, symName: __ZN16llm_graph_resultD2Ev, symObjAddr: 0xCAE0, symBinAddr: 0x4DCB0, symSize: 0x161 }
  - { offset: 0x218E82, size: 0x8, addend: 0x0, symName: __ZN16llm_graph_resultD0Ev, symObjAddr: 0xB890, symBinAddr: 0x4CF90, symSize: 0x20 }
  - { offset: 0x218EFF, size: 0x8, addend: 0x0, symName: __ZN17llm_graph_contextD1Ev, symObjAddr: 0xB8B0, symBinAddr: 0x4CFB0, symSize: 0x30 }
  - { offset: 0x218FD9, size: 0x8, addend: 0x0, symName: __ZN17llm_graph_contextD0Ev, symObjAddr: 0xB8E0, symBinAddr: 0x4CFE0, symSize: 0x40 }
  - { offset: 0x21948C, size: 0x8, addend: 0x0, symName: __ZN17llm_graph_input_iD1Ev, symObjAddr: 0xBFC0, symBinAddr: 0x2BB660, symSize: 0x10 }
  - { offset: 0x2194B5, size: 0x8, addend: 0x0, symName: __ZN17llm_graph_input_iD0Ev, symObjAddr: 0xBFD0, symBinAddr: 0x2BB670, symSize: 0x10 }
  - { offset: 0x2198E1, size: 0x8, addend: 0x0, symName: __ZNSt3__112__hash_tableIiNS_4hashIiEENS_8equal_toIiEENS_9allocatorIiEEE11__do_rehashILb1EEEvm, symObjAddr: 0xC540, symBinAddr: 0x4D990, symSize: 0x1B0 }
  - { offset: 0x21A192, size: 0x8, addend: 0x0, symName: __ZNSt3__110__function6__funcIPFP11ggml_tensorP12ggml_contextS3_S3_ENS_9allocatorIS7_EES6_ED1Ev, symObjAddr: 0xCA00, symBinAddr: 0x4DBD0, symSize: 0x10 }
  - { offset: 0x21A1BE, size: 0x8, addend: 0x0, symName: __ZNSt3__110__function6__funcIPFP11ggml_tensorP12ggml_contextS3_S3_ENS_9allocatorIS7_EES6_ED0Ev, symObjAddr: 0xCA10, symBinAddr: 0x4DBE0, symSize: 0x10 }
  - { offset: 0x21A2D5, size: 0x8, addend: 0x0, symName: __ZNKSt3__110__function6__funcIPFP11ggml_tensorP12ggml_contextS3_S3_ENS_9allocatorIS7_EES6_E7__cloneEv, symObjAddr: 0xCA20, symBinAddr: 0x4DBF0, symSize: 0x30 }
  - { offset: 0x21A4E8, size: 0x8, addend: 0x0, symName: __ZNKSt3__110__function6__funcIPFP11ggml_tensorP12ggml_contextS3_S3_ENS_9allocatorIS7_EES6_E7__cloneEPNS0_6__baseIS6_EE, symObjAddr: 0xCA50, symBinAddr: 0x4DC20, symSize: 0x20 }
  - { offset: 0x21A5DB, size: 0x8, addend: 0x0, symName: __ZNSt3__110__function6__funcIPFP11ggml_tensorP12ggml_contextS3_S3_ENS_9allocatorIS7_EES6_E7destroyEv, symObjAddr: 0xCA70, symBinAddr: 0x4DC40, symSize: 0x10 }
  - { offset: 0x21A632, size: 0x8, addend: 0x0, symName: __ZNSt3__110__function6__funcIPFP11ggml_tensorP12ggml_contextS3_S3_ENS_9allocatorIS7_EES6_E18destroy_deallocateEv, symObjAddr: 0xCA80, symBinAddr: 0x4DC50, symSize: 0x10 }
  - { offset: 0x21A76A, size: 0x8, addend: 0x0, symName: __ZNSt3__110__function6__funcIPFP11ggml_tensorP12ggml_contextS3_S3_ENS_9allocatorIS7_EES6_EclEOS5_OS3_SC_, symObjAddr: 0xCA90, symBinAddr: 0x4DC60, symSize: 0x20 }
  - { offset: 0x21A8F0, size: 0x8, addend: 0x0, symName: __ZNKSt3__110__function6__funcIPFP11ggml_tensorP12ggml_contextS3_S3_ENS_9allocatorIS7_EES6_E6targetERKSt9type_info, symObjAddr: 0xCAB0, symBinAddr: 0x4DC80, symSize: 0x20 }
  - { offset: 0x21A95E, size: 0x8, addend: 0x0, symName: __ZNKSt3__110__function6__funcIPFP11ggml_tensorP12ggml_contextS3_S3_ENS_9allocatorIS7_EES6_E11target_typeEv, symObjAddr: 0xCAD0, symBinAddr: 0x4DCA0, symSize: 0x10 }
  - { offset: 0x21C91B, size: 0x8, addend: 0x0, symName: __ZN13llama_hparams15set_swa_patternEjb, symObjAddr: 0x0, symBinAddr: 0x4DE20, symSize: 0x140 }
  - { offset: 0x21EA45, size: 0x8, addend: 0x0, symName: __ZN13llama_hparams15set_swa_patternEjb, symObjAddr: 0x0, symBinAddr: 0x4DE20, symSize: 0x140 }
  - { offset: 0x21EAB8, size: 0x8, addend: 0x0, symName: __ZNK13llama_hparams10is_swa_anyEv, symObjAddr: 0x140, symBinAddr: 0x4DF60, symSize: 0x60 }
  - { offset: 0x21EAF5, size: 0x8, addend: 0x0, symName: __ZNK13llama_hparams6n_headEj, symObjAddr: 0x1A0, symBinAddr: 0x4DFC0, symSize: 0x30 }
  - { offset: 0x21EB54, size: 0x8, addend: 0x0, symName: __ZNK13llama_hparams9n_head_kvEj, symObjAddr: 0x1D0, symBinAddr: 0x4DFF0, symSize: 0x30 }
  - { offset: 0x21EB93, size: 0x8, addend: 0x0, symName: __ZNK13llama_hparams4n_ffEj, symObjAddr: 0x200, symBinAddr: 0x4E020, symSize: 0x30 }
  - { offset: 0x21EC2B, size: 0x8, addend: 0x0, symName: __ZNK13llama_hparams5n_gqaEj, symObjAddr: 0x230, symBinAddr: 0x4E050, symSize: 0x40 }
  - { offset: 0x21ECD2, size: 0x8, addend: 0x0, symName: __ZNK13llama_hparams10n_embd_inpEv, symObjAddr: 0x270, symBinAddr: 0x4E090, symSize: 0x20 }
  - { offset: 0x21ED09, size: 0x8, addend: 0x0, symName: __ZNK13llama_hparams10n_embd_outEv, symObjAddr: 0x290, symBinAddr: 0x4E0B0, symSize: 0x20 }
  - { offset: 0x21ED30, size: 0x8, addend: 0x0, symName: __ZNK13llama_hparams12n_embd_k_gqaEj, symObjAddr: 0x2B0, symBinAddr: 0x4E0D0, symSize: 0x40 }
  - { offset: 0x21ED94, size: 0x8, addend: 0x0, symName: __ZNK13llama_hparams12n_embd_v_gqaEj, symObjAddr: 0x2F0, symBinAddr: 0x4E110, symSize: 0x40 }
  - { offset: 0x21EE2B, size: 0x8, addend: 0x0, symName: __ZNK13llama_hparams24is_n_embd_k_gqa_variableEv, symObjAddr: 0x330, symBinAddr: 0x4E150, symSize: 0x70 }
  - { offset: 0x21EF1F, size: 0x8, addend: 0x0, symName: __ZNK13llama_hparams24is_n_embd_v_gqa_variableEv, symObjAddr: 0x3A0, symBinAddr: 0x4E1C0, symSize: 0x70 }
  - { offset: 0x21EFE5, size: 0x8, addend: 0x0, symName: __ZNK13llama_hparams16n_embd_k_gqa_maxEv, symObjAddr: 0x410, symBinAddr: 0x4E230, symSize: 0x1B0 }
  - { offset: 0x21F0C3, size: 0x8, addend: 0x0, symName: __ZNK13llama_hparams16n_embd_v_gqa_maxEv, symObjAddr: 0x5C0, symBinAddr: 0x4E3E0, symSize: 0x1B0 }
  - { offset: 0x21F1A1, size: 0x8, addend: 0x0, symName: __ZNK13llama_hparams8n_embd_rEv, symObjAddr: 0x770, symBinAddr: 0x4E590, symSize: 0x50 }
  - { offset: 0x21F1C8, size: 0x8, addend: 0x0, symName: __ZNK13llama_hparams8n_embd_sEv, symObjAddr: 0x7C0, symBinAddr: 0x4E5E0, symSize: 0x30 }
  - { offset: 0x21F1EF, size: 0x8, addend: 0x0, symName: __ZNK13llama_hparams12is_recurrentEj, symObjAddr: 0x7F0, symBinAddr: 0x4E610, symSize: 0x40 }
  - { offset: 0x21F23C, size: 0x8, addend: 0x0, symName: __ZNK13llama_hparams14n_pos_per_embdEv, symObjAddr: 0x830, symBinAddr: 0x4E650, symSize: 0x20 }
  - { offset: 0x21F263, size: 0x8, addend: 0x0, symName: __ZNK13llama_hparams6is_swaEj, symObjAddr: 0x850, symBinAddr: 0x4E670, symSize: 0x40 }
  - { offset: 0x21F2B0, size: 0x8, addend: 0x0, symName: __ZNK13llama_hparams6is_mlaEv, symObjAddr: 0x890, symBinAddr: 0x4E6B0, symSize: 0x20 }
  - { offset: 0x21F2E8, size: 0x8, addend: 0x0, symName: __ZNK13llama_hparams17n_embd_head_k_mlaEv, symObjAddr: 0x8B0, symBinAddr: 0x4E6D0, symSize: 0x30 }
  - { offset: 0x21F325, size: 0x8, addend: 0x0, symName: __ZNK13llama_hparams17n_embd_head_v_mlaEv, symObjAddr: 0x8E0, symBinAddr: 0x4E700, symSize: 0x30 }
  - { offset: 0x21F368, size: 0x8, addend: 0x0, symName: __ZNK13llama_hparams6has_kvEj, symObjAddr: 0x910, symBinAddr: 0x4E730, symSize: 0x20 }
  - { offset: 0x21F3B2, size: 0x8, addend: 0x0, symName: __ZNK13llama_hparams10n_layer_kvEv, symObjAddr: 0x930, symBinAddr: 0x4E750, symSize: 0x110 }
  - { offset: 0x21F417, size: 0x8, addend: 0x0, symName: __ZNK13llama_hparams9use_mropeEv, symObjAddr: 0xA40, symBinAddr: 0x4E860, symSize: 0x1D }
  - { offset: 0x22136C, size: 0x8, addend: 0x0, symName: __ZL14g_logger_state.0, symObjAddr: 0x1A80, symBinAddr: 0x32A2B0, symSize: 0x0 }
  - { offset: 0x221377, size: 0x8, addend: 0x0, symName: __ZL14g_logger_state.1, symObjAddr: 0x2E950, symBinAddr: 0x3B60B8, symSize: 0x0 }
  - { offset: 0x228548, size: 0x8, addend: 0x0, symName: __ZN9time_measC2ERxb, symObjAddr: 0x0, symBinAddr: 0x4E880, symSize: 0x30 }
  - { offset: 0x2285CF, size: 0x8, addend: 0x0, symName: __ZN9time_measC1ERxb, symObjAddr: 0x30, symBinAddr: 0x4E8B0, symSize: 0x30 }
  - { offset: 0x228654, size: 0x8, addend: 0x0, symName: __ZN9time_measD2Ev, symObjAddr: 0x60, symBinAddr: 0x4E8E0, symSize: 0x30 }
  - { offset: 0x2286A0, size: 0x8, addend: 0x0, symName: __ZN9time_measD1Ev, symObjAddr: 0xA0, symBinAddr: 0x4E910, symSize: 0x30 }
  - { offset: 0x2286F1, size: 0x8, addend: 0x0, symName: _llama_log_get, symObjAddr: 0xD0, symBinAddr: 0x4E940, symSize: 0x10 }
  - { offset: 0x22875A, size: 0x8, addend: 0x0, symName: _llama_log_set, symObjAddr: 0xE0, symBinAddr: 0x4E950, symSize: 0x40 }
  - { offset: 0x2287BE, size: 0x8, addend: 0x0, symName: __Z26llama_log_callback_default14ggml_log_levelPKcPv, symObjAddr: 0x120, symBinAddr: 0x4E990, symSize: 0x30 }
  - { offset: 0x228A5C, size: 0x8, addend: 0x0, symName: __Z18llama_log_internal14ggml_log_levelPKcz, symObjAddr: 0x150, symBinAddr: 0x4E9C0, symSize: 0x1B0 }
  - { offset: 0x228E25, size: 0x8, addend: 0x0, symName: __Z11replace_allRNSt3__112basic_stringIcNS_11char_traitsIcEENS_9allocatorIcEEEERKS5_S8_, symObjAddr: 0x300, symBinAddr: 0x4EB70, symSize: 0x250 }
  - { offset: 0x229815, size: 0x8, addend: 0x0, symName: __Z6formatPKcz, symObjAddr: 0x550, symBinAddr: 0x4EDC0, symSize: 0x220 }
  - { offset: 0x229F2D, size: 0x8, addend: 0x0, symName: __Z25llama_format_tensor_shapeRKNSt3__16vectorIxNS_9allocatorIxEEEE, symObjAddr: 0x770, symBinAddr: 0x4EFE0, symSize: 0x1E0 }
  - { offset: 0x22A333, size: 0x8, addend: 0x0, symName: __ZNSt3__16vectorIxNS_9allocatorIxEEE20__throw_out_of_rangeB8ne200100Ev, symObjAddr: 0x14A0, symBinAddr: 0x4FA80, symSize: 0x10 }
  - { offset: 0x22A36B, size: 0x8, addend: 0x0, symName: __Z25llama_format_tensor_shapePK11ggml_tensor, symObjAddr: 0x950, symBinAddr: 0x4F1C0, symSize: 0x1E0 }
  - { offset: 0x22A8D0, size: 0x8, addend: 0x0, symName: __Z14gguf_kv_to_strPK12gguf_contexti, symObjAddr: 0xB30, symBinAddr: 0x4F3A0, symSize: 0x5B0 }
  - { offset: 0x22BE83, size: 0x8, addend: 0x0, symName: __ZL16gguf_data_to_str9gguf_typePKvi, symObjAddr: 0x1260, symBinAddr: 0x4F950, symSize: 0x130 }
  - { offset: 0x22EA25, size: 0x8, addend: 0x0, symName: __ZN16llama_io_write_i12write_stringERKNSt3__112basic_stringIcNS0_11char_traitsIcEENS0_9allocatorIcEEEE, symObjAddr: 0x0, symBinAddr: 0x4FA90, symSize: 0x60 }
  - { offset: 0x2314A7, size: 0x8, addend: 0x0, symName: __ZN16llama_io_write_i12write_stringERKNSt3__112basic_stringIcNS0_11char_traitsIcEENS0_9allocatorIcEEEE, symObjAddr: 0x0, symBinAddr: 0x4FA90, symSize: 0x60 }
  - { offset: 0x2315C1, size: 0x8, addend: 0x0, symName: __ZN15llama_io_read_i11read_stringERNSt3__112basic_stringIcNS0_11char_traitsIcEENS0_9allocatorIcEEEE, symObjAddr: 0x60, symBinAddr: 0x4FAF0, symSize: 0x4A }
  - { offset: 0x23353A, size: 0x8, addend: 0x0, symName: __ZN19llama_kv_cache_iswaC2ERK11llama_model9ggml_typeS3_bbbbjjjjRKNSt3__18functionIFbiEEERKNS5_IFiiEEE, symObjAddr: 0x0, symBinAddr: 0x4FB40, symSize: 0x3B0 }
  - { offset: 0x25808B, size: 0x8, addend: 0x0, symName: __ZNSt3__111make_uniqueB8ne200100I27llama_kv_cache_iswa_contextJP19llama_kv_cache_iswaNS_6vectorIN14llama_kv_cache9slot_infoENS_9allocatorIS6_EEEES9_NS4_I12llama_ubatchNS7_ISA_EEEEELi0EEENS_10unique_ptrIT_NS_14default_deleteISE_EEEEDpOT0_, symObjAddr: 0xFD0, symBinAddr: 0x50AD0, symSize: 0x260 }
  - { offset: 0x26143C, size: 0x8, addend: 0x0, symName: __ZN19llama_kv_cache_iswaC1ERK11llama_model9ggml_typeS3_bbbbjjjjRKNSt3__18functionIFbiEEERKNS5_IFiiEEE, symObjAddr: 0x3B0, symBinAddr: 0x4FEF0, symSize: 0x10 }
  - { offset: 0x261F0C, size: 0x8, addend: 0x0, symName: __ZN19llama_kv_cache_iswaC2ERK11llama_model9ggml_typeS3_bbbbjjjjRKNSt3__18functionIFbiEEERKNS5_IFiiEEE, symObjAddr: 0x0, symBinAddr: 0x4FB40, symSize: 0x3B0 }
  - { offset: 0x2627C2, size: 0x8, addend: 0x0, symName: __ZN19llama_kv_cache_iswa5clearEb, symObjAddr: 0x3C0, symBinAddr: 0x4FF00, symSize: 0x30 }
  - { offset: 0x262856, size: 0x8, addend: 0x0, symName: __ZN19llama_kv_cache_iswa6seq_rmEiii, symObjAddr: 0x3F0, symBinAddr: 0x4FF30, symSize: 0x50 }
  - { offset: 0x262939, size: 0x8, addend: 0x0, symName: __ZN19llama_kv_cache_iswa6seq_cpEiiii, symObjAddr: 0x440, symBinAddr: 0x4FF80, symSize: 0x50 }
  - { offset: 0x262A0F, size: 0x8, addend: 0x0, symName: __ZN19llama_kv_cache_iswa8seq_keepEi, symObjAddr: 0x490, symBinAddr: 0x4FFD0, symSize: 0x30 }
  - { offset: 0x262AA3, size: 0x8, addend: 0x0, symName: __ZN19llama_kv_cache_iswa7seq_addEiiii, symObjAddr: 0x4C0, symBinAddr: 0x50000, symSize: 0x50 }
  - { offset: 0x262B79, size: 0x8, addend: 0x0, symName: __ZN19llama_kv_cache_iswa7seq_divEiiii, symObjAddr: 0x510, symBinAddr: 0x50050, symSize: 0x50 }
  - { offset: 0x262C4F, size: 0x8, addend: 0x0, symName: __ZNK19llama_kv_cache_iswa11seq_pos_minEi, symObjAddr: 0x560, symBinAddr: 0x500A0, symSize: 0x20 }
  - { offset: 0x262CB8, size: 0x8, addend: 0x0, symName: __ZNK19llama_kv_cache_iswa11seq_pos_maxEi, symObjAddr: 0x580, symBinAddr: 0x500C0, symSize: 0x20 }
  - { offset: 0x2632D4, size: 0x8, addend: 0x0, symName: __ZNK19llama_kv_cache_iswa16memory_breakdownEv, symObjAddr: 0x5A0, symBinAddr: 0x500E0, symSize: 0x190 }
  - { offset: 0x2644D8, size: 0x8, addend: 0x0, symName: __ZN19llama_kv_cache_iswa10init_batchER18llama_batch_allocrjb, symObjAddr: 0x730, symBinAddr: 0x50270, symSize: 0x860 }
  - { offset: 0x2668DC, size: 0x8, addend: 0x0, symName: __ZNSt3__16vectorI12llama_ubatchNS_9allocatorIS1_EEE24__emplace_back_slow_pathIJS1_EEEPS1_DpOT_, symObjAddr: 0x24E0, symBinAddr: 0x51DE0, symSize: 0x230 }
  - { offset: 0x266F6F, size: 0x8, addend: 0x0, symName: __ZNSt3__16vectorIN14llama_kv_cache9slot_infoENS_9allocatorIS2_EEED1B8ne200100Ev, symObjAddr: 0x1230, symBinAddr: 0x50D30, symSize: 0xC0 }
  - { offset: 0x2674BF, size: 0x8, addend: 0x0, symName: __ZNSt3__16vectorI12llama_ubatchNS_9allocatorIS1_EEED1B8ne200100Ev, symObjAddr: 0x12F0, symBinAddr: 0x50DF0, symSize: 0x90 }
  - { offset: 0x2678C2, size: 0x8, addend: 0x0, symName: __ZN27llama_kv_cache_iswa_contextC2EP19llama_kv_cache_iswaNSt3__16vectorIN14llama_kv_cache9slot_infoENS2_9allocatorIS5_EEEES8_NS3_I12llama_ubatchNS6_IS9_EEEE, symObjAddr: 0x1740, symBinAddr: 0x51240, symSize: 0x5D0 }
  - { offset: 0x2694C8, size: 0x8, addend: 0x0, symName: __ZN19llama_kv_cache_iswa9init_fullEv, symObjAddr: 0x1380, symBinAddr: 0x50E80, symSize: 0x50 }
  - { offset: 0x26956E, size: 0x8, addend: 0x0, symName: __ZN27llama_kv_cache_iswa_contextC2EP19llama_kv_cache_iswa, symObjAddr: 0x1580, symBinAddr: 0x51080, symSize: 0xC0 }
  - { offset: 0x269863, size: 0x8, addend: 0x0, symName: __ZN19llama_kv_cache_iswa11init_updateEP13llama_contextb, symObjAddr: 0x13D0, symBinAddr: 0x50ED0, symSize: 0x60 }
  - { offset: 0x26994D, size: 0x8, addend: 0x0, symName: __ZN27llama_kv_cache_iswa_contextC2EP19llama_kv_cache_iswaP13llama_contextb, symObjAddr: 0x1650, symBinAddr: 0x51150, symSize: 0xE0 }
  - { offset: 0x269C34, size: 0x8, addend: 0x0, symName: __ZNK19llama_kv_cache_iswa13get_can_shiftEv, symObjAddr: 0x1430, symBinAddr: 0x50F30, symSize: 0x30 }
  - { offset: 0x269C99, size: 0x8, addend: 0x0, symName: __ZNK19llama_kv_cache_iswa11state_writeER16llama_io_write_iij, symObjAddr: 0x1460, symBinAddr: 0x50F60, symSize: 0x50 }
  - { offset: 0x269D43, size: 0x8, addend: 0x0, symName: __ZN19llama_kv_cache_iswa10state_readER15llama_io_read_iij, symObjAddr: 0x14B0, symBinAddr: 0x50FB0, symSize: 0x50 }
  - { offset: 0x269E03, size: 0x8, addend: 0x0, symName: __ZNK19llama_kv_cache_iswa8get_baseEv, symObjAddr: 0x1500, symBinAddr: 0x51000, symSize: 0x10 }
  - { offset: 0x269E41, size: 0x8, addend: 0x0, symName: __ZNK19llama_kv_cache_iswa7get_swaEv, symObjAddr: 0x1510, symBinAddr: 0x51010, symSize: 0x10 }
  - { offset: 0x269E7F, size: 0x8, addend: 0x0, symName: __ZN27llama_kv_cache_iswa_contextC2E19llama_memory_status, symObjAddr: 0x1520, symBinAddr: 0x51020, symSize: 0x30 }
  - { offset: 0x269EE2, size: 0x8, addend: 0x0, symName: __ZN27llama_kv_cache_iswa_contextC1E19llama_memory_status, symObjAddr: 0x1550, symBinAddr: 0x51050, symSize: 0x30 }
  - { offset: 0x26A05D, size: 0x8, addend: 0x0, symName: __ZN27llama_kv_cache_iswa_contextC1EP19llama_kv_cache_iswa, symObjAddr: 0x1640, symBinAddr: 0x51140, symSize: 0x10 }
  - { offset: 0x26A0A1, size: 0x8, addend: 0x0, symName: __ZN27llama_kv_cache_iswa_contextC1EP19llama_kv_cache_iswaP13llama_contextb, symObjAddr: 0x1730, symBinAddr: 0x51230, symSize: 0x10 }
  - { offset: 0x26A49F, size: 0x8, addend: 0x0, symName: __ZNSt3__16vectorI12llama_ubatchNS_9allocatorIS1_EEE20__throw_length_errorB8ne200100Ev, symObjAddr: 0x2710, symBinAddr: 0x52010, symSize: 0x10 }
  - { offset: 0x26A4C2, size: 0x8, addend: 0x0, symName: __ZNSt3__128__exception_guard_exceptionsINS_6vectorI12llama_ubatchNS_9allocatorIS2_EEE16__destroy_vectorEED1B8ne200100Ev, symObjAddr: 0x27A0, symBinAddr: 0x52020, symSize: 0x93 }
  - { offset: 0x26A6F3, size: 0x8, addend: 0x0, symName: __ZN27llama_kv_cache_iswa_contextC1EP19llama_kv_cache_iswaNSt3__16vectorIN14llama_kv_cache9slot_infoENS2_9allocatorIS5_EEEES8_NS3_I12llama_ubatchNS6_IS9_EEEE, symObjAddr: 0x1D10, symBinAddr: 0x51810, symSize: 0x10 }
  - { offset: 0x26A764, size: 0x8, addend: 0x0, symName: __ZN27llama_kv_cache_iswa_contextD2Ev, symObjAddr: 0x1D20, symBinAddr: 0x51820, symSize: 0xC0 }
  - { offset: 0x26AB15, size: 0x8, addend: 0x0, symName: __ZN27llama_kv_cache_iswa_contextD1Ev, symObjAddr: 0x1DE0, symBinAddr: 0x518E0, symSize: 0xC0 }
  - { offset: 0x26AEE5, size: 0x8, addend: 0x0, symName: __ZN27llama_kv_cache_iswa_contextD0Ev, symObjAddr: 0x1EA0, symBinAddr: 0x519A0, symSize: 0xC0 }
  - { offset: 0x26B2BF, size: 0x8, addend: 0x0, symName: __ZN27llama_kv_cache_iswa_context4nextEv, symObjAddr: 0x1F60, symBinAddr: 0x51A60, symSize: 0x50 }
  - { offset: 0x26B356, size: 0x8, addend: 0x0, symName: __ZN27llama_kv_cache_iswa_context5applyEv, symObjAddr: 0x1FB0, symBinAddr: 0x51AB0, symSize: 0x30 }
  - { offset: 0x26B3E6, size: 0x8, addend: 0x0, symName: __ZNK27llama_kv_cache_iswa_context10get_statusEv, symObjAddr: 0x1FE0, symBinAddr: 0x51AE0, symSize: 0x10 }
  - { offset: 0x26B430, size: 0x8, addend: 0x0, symName: __ZNK27llama_kv_cache_iswa_context10get_ubatchEv, symObjAddr: 0x1FF0, symBinAddr: 0x51AF0, symSize: 0x10 }
  - { offset: 0x26B48D, size: 0x8, addend: 0x0, symName: __ZNK27llama_kv_cache_iswa_context8get_baseEv, symObjAddr: 0x2000, symBinAddr: 0x51B00, symSize: 0x10 }
  - { offset: 0x26B4D4, size: 0x8, addend: 0x0, symName: __ZNK27llama_kv_cache_iswa_context7get_swaEv, symObjAddr: 0x2010, symBinAddr: 0x51B10, symSize: 0x10 }
  - { offset: 0x26B535, size: 0x8, addend: 0x0, symName: __ZN19llama_kv_cache_iswaD1Ev, symObjAddr: 0x2020, symBinAddr: 0x51B20, symSize: 0x50 }
  - { offset: 0x26B6C2, size: 0x8, addend: 0x0, symName: __ZN19llama_kv_cache_iswaD0Ev, symObjAddr: 0x2070, symBinAddr: 0x51B70, symSize: 0x50 }
  - { offset: 0x26B861, size: 0x8, addend: 0x0, symName: '__ZNSt3__110__function6__funcIZN19llama_kv_cache_iswaC1ERK11llama_model9ggml_typeS6_bbbbjjjjRKNS_8functionIFbiEEERKNS7_IFiiEEEE3$_0NS_9allocatorISG_EES8_ED1Ev', symObjAddr: 0x20C0, symBinAddr: 0x51BC0, symSize: 0x10 }
  - { offset: 0x26B88B, size: 0x8, addend: 0x0, symName: '__ZNSt3__110__function6__funcIZN19llama_kv_cache_iswaC1ERK11llama_model9ggml_typeS6_bbbbjjjjRKNS_8functionIFbiEEERKNS7_IFiiEEEE3$_0NS_9allocatorISG_EES8_ED0Ev', symObjAddr: 0x20D0, symBinAddr: 0x51BD0, symSize: 0x10 }
  - { offset: 0x26B9A2, size: 0x8, addend: 0x0, symName: '__ZNKSt3__110__function6__funcIZN19llama_kv_cache_iswaC1ERK11llama_model9ggml_typeS6_bbbbjjjjRKNS_8functionIFbiEEERKNS7_IFiiEEEE3$_0NS_9allocatorISG_EES8_E7__cloneEv', symObjAddr: 0x20E0, symBinAddr: 0x51BE0, symSize: 0x30 }
  - { offset: 0x26BBB5, size: 0x8, addend: 0x0, symName: '__ZNKSt3__110__function6__funcIZN19llama_kv_cache_iswaC1ERK11llama_model9ggml_typeS6_bbbbjjjjRKNS_8functionIFbiEEERKNS7_IFiiEEEE3$_0NS_9allocatorISG_EES8_E7__cloneEPNS0_6__baseIS8_EE', symObjAddr: 0x2110, symBinAddr: 0x51C10, symSize: 0x20 }
  - { offset: 0x26BC84, size: 0x8, addend: 0x0, symName: '__ZNSt3__110__function6__funcIZN19llama_kv_cache_iswaC1ERK11llama_model9ggml_typeS6_bbbbjjjjRKNS_8functionIFbiEEERKNS7_IFiiEEEE3$_0NS_9allocatorISG_EES8_E7destroyEv', symObjAddr: 0x2130, symBinAddr: 0x51C30, symSize: 0x10 }
  - { offset: 0x26BCD9, size: 0x8, addend: 0x0, symName: '__ZNSt3__110__function6__funcIZN19llama_kv_cache_iswaC1ERK11llama_model9ggml_typeS6_bbbbjjjjRKNS_8functionIFbiEEERKNS7_IFiiEEEE3$_0NS_9allocatorISG_EES8_E18destroy_deallocateEv', symObjAddr: 0x2140, symBinAddr: 0x51C40, symSize: 0x10 }
  - { offset: 0x26BE84, size: 0x8, addend: 0x0, symName: '__ZNSt3__110__function6__funcIZN19llama_kv_cache_iswaC1ERK11llama_model9ggml_typeS6_bbbbjjjjRKNS_8functionIFbiEEERKNS7_IFiiEEEE3$_0NS_9allocatorISG_EES8_EclEOi', symObjAddr: 0x2150, symBinAddr: 0x51C50, symSize: 0x50 }
  - { offset: 0x26C028, size: 0x8, addend: 0x0, symName: '__ZNKSt3__110__function6__funcIZN19llama_kv_cache_iswaC1ERK11llama_model9ggml_typeS6_bbbbjjjjRKNS_8functionIFbiEEERKNS7_IFiiEEEE3$_0NS_9allocatorISG_EES8_E6targetERKSt9type_info', symObjAddr: 0x21A0, symBinAddr: 0x51CA0, symSize: 0x20 }
  - { offset: 0x26C098, size: 0x8, addend: 0x0, symName: '__ZNKSt3__110__function6__funcIZN19llama_kv_cache_iswaC1ERK11llama_model9ggml_typeS6_bbbbjjjjRKNS_8functionIFbiEEERKNS7_IFiiEEEE3$_0NS_9allocatorISG_EES8_E11target_typeEv', symObjAddr: 0x21C0, symBinAddr: 0x51CC0, symSize: 0x10 }
  - { offset: 0x26C0BB, size: 0x8, addend: 0x0, symName: '__ZNSt3__110__function6__funcIZN19llama_kv_cache_iswaC1ERK11llama_model9ggml_typeS6_bbbbjjjjRKNS_8functionIFbiEEERKNS7_IFiiEEEE3$_1NS_9allocatorISG_EES8_ED1Ev', symObjAddr: 0x2210, symBinAddr: 0x51CD0, symSize: 0x10 }
  - { offset: 0x26C0E5, size: 0x8, addend: 0x0, symName: '__ZNSt3__110__function6__funcIZN19llama_kv_cache_iswaC1ERK11llama_model9ggml_typeS6_bbbbjjjjRKNS_8functionIFbiEEERKNS7_IFiiEEEE3$_1NS_9allocatorISG_EES8_ED0Ev', symObjAddr: 0x2220, symBinAddr: 0x51CE0, symSize: 0x10 }
  - { offset: 0x26C1FC, size: 0x8, addend: 0x0, symName: '__ZNKSt3__110__function6__funcIZN19llama_kv_cache_iswaC1ERK11llama_model9ggml_typeS6_bbbbjjjjRKNS_8functionIFbiEEERKNS7_IFiiEEEE3$_1NS_9allocatorISG_EES8_E7__cloneEv', symObjAddr: 0x2230, symBinAddr: 0x51CF0, symSize: 0x30 }
  - { offset: 0x26C40F, size: 0x8, addend: 0x0, symName: '__ZNKSt3__110__function6__funcIZN19llama_kv_cache_iswaC1ERK11llama_model9ggml_typeS6_bbbbjjjjRKNS_8functionIFbiEEERKNS7_IFiiEEEE3$_1NS_9allocatorISG_EES8_E7__cloneEPNS0_6__baseIS8_EE', symObjAddr: 0x2260, symBinAddr: 0x51D20, symSize: 0x20 }
  - { offset: 0x26C4DE, size: 0x8, addend: 0x0, symName: '__ZNSt3__110__function6__funcIZN19llama_kv_cache_iswaC1ERK11llama_model9ggml_typeS6_bbbbjjjjRKNS_8functionIFbiEEERKNS7_IFiiEEEE3$_1NS_9allocatorISG_EES8_E7destroyEv', symObjAddr: 0x2280, symBinAddr: 0x51D40, symSize: 0x10 }
  - { offset: 0x26C533, size: 0x8, addend: 0x0, symName: '__ZNSt3__110__function6__funcIZN19llama_kv_cache_iswaC1ERK11llama_model9ggml_typeS6_bbbbjjjjRKNS_8functionIFbiEEERKNS7_IFiiEEEE3$_1NS_9allocatorISG_EES8_E18destroy_deallocateEv', symObjAddr: 0x2290, symBinAddr: 0x51D50, symSize: 0x10 }
  - { offset: 0x26C660, size: 0x8, addend: 0x0, symName: '__ZNSt3__110__function6__funcIZN19llama_kv_cache_iswaC1ERK11llama_model9ggml_typeS6_bbbbjjjjRKNS_8functionIFbiEEERKNS7_IFiiEEEE3$_1NS_9allocatorISG_EES8_EclEOi', symObjAddr: 0x22A0, symBinAddr: 0x51D60, symSize: 0x50 }
  - { offset: 0x26C7BE, size: 0x8, addend: 0x0, symName: '__ZNKSt3__110__function6__funcIZN19llama_kv_cache_iswaC1ERK11llama_model9ggml_typeS6_bbbbjjjjRKNS_8functionIFbiEEERKNS7_IFiiEEEE3$_1NS_9allocatorISG_EES8_E6targetERKSt9type_info', symObjAddr: 0x22F0, symBinAddr: 0x51DB0, symSize: 0x20 }
  - { offset: 0x26C82E, size: 0x8, addend: 0x0, symName: '__ZNKSt3__110__function6__funcIZN19llama_kv_cache_iswaC1ERK11llama_model9ggml_typeS6_bbbbjjjjRKNS_8functionIFbiEEERKNS7_IFiiEEEE3$_1NS_9allocatorISG_EES8_E11target_typeEv', symObjAddr: 0x2310, symBinAddr: 0x51DD0, symSize: 0x10 }
  - { offset: 0x2ABAD6, size: 0x8, addend: 0x0, symName: __ZNSt3__135__uninitialized_allocator_copy_implB8ne200100INS_9allocatorINS_6vectorIjNS1_IjEEEEEEPS4_S6_S6_EET2_RT_T0_T1_S7_, symObjAddr: 0x13FB0, symBinAddr: 0x656D0, symSize: 0x100 }
  - { offset: 0x2ACDBD, size: 0x8, addend: 0x0, symName: __ZNSt3__134__uninitialized_allocator_relocateB8ne200100INS_9allocatorIN14llama_kv_cache9slot_infoEEEPS3_EEvRT_T0_S8_S8_, symObjAddr: 0x161A0, symBinAddr: 0x67260, symSize: 0x110 }
  - { offset: 0x2ACE18, size: 0x8, addend: 0x0, symName: __ZNSt3__134__uninitialized_allocator_relocateB8ne200100INS_9allocatorIN14llama_kv_cache9slot_infoEEEPS3_EEvRT_T0_S8_S8_, symObjAddr: 0x161A0, symBinAddr: 0x67260, symSize: 0x110 }
  - { offset: 0x2B60B9, size: 0x8, addend: 0x0, symName: __ZN14llama_kv_cacheC2ERK11llama_model9ggml_typeS3_bbbjjjj14llama_swa_typeRKNSt3__18functionIFbiEEERKNS6_IFiiEEE, symObjAddr: 0x0, symBinAddr: 0x520C0, symSize: 0x1680 }
  - { offset: 0x2B9CE1, size: 0x8, addend: 0x0, symName: __ZN14llama_kv_cache7prepareERKNSt3__16vectorI12llama_ubatchNS0_9allocatorIS2_EEEE, symObjAddr: 0x3B00, symBinAddr: 0x55B80, symSize: 0x13D0 }
  - { offset: 0x2C06DE, size: 0x8, addend: 0x0, symName: __ZNSt3__16vectorI14llama_kv_cellsNS_9allocatorIS1_EEE8__appendEm, symObjAddr: 0x14920, symBinAddr: 0x65CB0, symSize: 0x370 }
  - { offset: 0x2C0E5E, size: 0x8, addend: 0x0, symName: __ZNSt3__19allocatorI14llama_kv_cellsE7destroyB8ne200100EPS1_, symObjAddr: 0x146C0, symBinAddr: 0x65BB0, symSize: 0xA0 }
  - { offset: 0x2C14E6, size: 0x8, addend: 0x0, symName: __ZN14llama_kv_cells6resizeEj, symObjAddr: 0x1680, symBinAddr: 0x53740, symSize: 0x180 }
  - { offset: 0x2C1A05, size: 0x8, addend: 0x0, symName: __ZNSt3__16vectorIjNS_9allocatorIjEEE8__appendEmRKj, symObjAddr: 0x14E10, symBinAddr: 0x661A0, symSize: 0x200 }
  - { offset: 0x2C1F9E, size: 0x8, addend: 0x0, symName: __ZNSt3__112__hash_tableINS_17__hash_value_typeIiiEENS_22__unordered_map_hasherIiS2_NS_4hashIiEENS_8equal_toIiEELb1EEENS_21__unordered_map_equalIiS2_S7_S5_Lb1EEENS_9allocatorIS2_EEE25__emplace_unique_key_argsIiJRKNS_21piecewise_construct_tENS_5tupleIJOiEEENSI_IJEEEEEENS_4pairINS_15__hash_iteratorIPNS_11__hash_nodeIS2_PvEEEEbEERKT_DpOT0_, symObjAddr: 0x15060, symBinAddr: 0x663A0, symSize: 0x4B0 }
  - { offset: 0x2C26F5, size: 0x8, addend: 0x0, symName: __ZNSt3__16vectorIN14llama_kv_cache8kv_layerENS_9allocatorIS2_EEE24__emplace_back_slow_pathIJS2_EEEPS2_DpOT_, symObjAddr: 0x156C0, symBinAddr: 0x66A00, symSize: 0x240 }
  - { offset: 0x2C2FD3, size: 0x8, addend: 0x0, symName: __ZNSt3__112__hash_tableINS_17__hash_value_typeIiiEENS_22__unordered_map_hasherIiS2_NS_4hashIiEENS_8equal_toIiEELb1EEENS_21__unordered_map_equalIiS2_S7_S5_Lb1EEENS_9allocatorIS2_EEE25__emplace_unique_key_argsIiJRKNS_21piecewise_construct_tENS_5tupleIJRKiEEENSI_IJEEEEEENS_4pairINS_15__hash_iteratorIPNS_11__hash_nodeIS2_PvEEEEbEERKT_DpOT0_, symObjAddr: 0x15910, symBinAddr: 0x66C50, symSize: 0x4B0 }
  - { offset: 0x2C3819, size: 0x8, addend: 0x0, symName: __ZNSt3__16__treeINS_12__value_typeIP24ggml_backend_buffer_typeNS_10unique_ptrI12ggml_context20ggml_context_deleterEEEENS_19__map_value_compareIS3_S8_ZN14llama_kv_cacheC1ERK11llama_model9ggml_typeSE_bbbjjjj14llama_swa_typeRKNS_8functionIFbiEEERKNSG_IFiiEEEE28ggml_backend_buft_comparatorLb1EEENS_9allocatorIS8_EEE7destroyEPNS_11__tree_nodeIS8_PvEE, symObjAddr: 0x14760, symBinAddr: 0x65C50, symSize: 0x60 }
  - { offset: 0x2C3A25, size: 0x8, addend: 0x0, symName: __ZNSt3__112__hash_tableINS_17__hash_value_typeIiiEENS_22__unordered_map_hasherIiS2_NS_4hashIiEENS_8equal_toIiEELb1EEENS_21__unordered_map_equalIiS2_S7_S5_Lb1EEENS_9allocatorIS2_EEE25__emplace_unique_key_argsIiJRKNS_21piecewise_construct_tENS_5tupleIJOiEEENSI_IJEEEEEENS_4pairINS_15__hash_iteratorIPNS_11__hash_nodeIS2_PvEEEEbEERKT_DpOT0_, symObjAddr: 0x15060, symBinAddr: 0x663A0, symSize: 0x4B0 }
  - { offset: 0x2C3A30, size: 0x8, addend: 0x0, symName: __ZNSt3__16vectorINS_4pairINS_10unique_ptrI12ggml_context20ggml_context_deleterEENS2_I19ggml_backend_buffer27ggml_backend_buffer_deleterEEEENS_9allocatorIS9_EEE20__throw_length_errorB8ne200100Ev, symObjAddr: 0x15DC0, symBinAddr: 0x67100, symSize: 0x10 }
  - { offset: 0x2C3A53, size: 0x8, addend: 0x0, symName: __ZN14llama_kv_cache8kv_layerD1Ev, symObjAddr: 0x1800, symBinAddr: 0x538C0, symSize: 0x40 }
  - { offset: 0x2C3CC7, size: 0x8, addend: 0x0, symName: __ZNSt3__113unordered_mapIiiNS_4hashIiEENS_8equal_toIiEENS_9allocatorINS_4pairIKiiEEEEED1B8ne200100Ev, symObjAddr: 0x18E0, symBinAddr: 0x539A0, symSize: 0x50 }
  - { offset: 0x2C3F4B, size: 0x8, addend: 0x0, symName: __ZNSt3__16vectorIN14llama_kv_cache8kv_layerENS_9allocatorIS2_EEED1B8ne200100Ev, symObjAddr: 0x1930, symBinAddr: 0x539F0, symSize: 0x80 }
  - { offset: 0x2C433F, size: 0x8, addend: 0x0, symName: __ZN14llama_kv_cache16stream_copy_infoD1Ev, symObjAddr: 0x19B0, symBinAddr: 0x53A70, symSize: 0x40 }
  - { offset: 0x2C45AF, size: 0x8, addend: 0x0, symName: __ZNSt3__16vectorI14llama_kv_cellsNS_9allocatorIS1_EEED1B8ne200100Ev, symObjAddr: 0x19F0, symBinAddr: 0x53AB0, symSize: 0x70 }
  - { offset: 0x2C4721, size: 0x8, addend: 0x0, symName: __ZNSt3__16vectorINS_4pairINS_10unique_ptrI12ggml_context20ggml_context_deleterEENS2_I19ggml_backend_buffer27ggml_backend_buffer_deleterEEEENS_9allocatorIS9_EEED1B8ne200100Ev, symObjAddr: 0x1A60, symBinAddr: 0x53B20, symSize: 0xA0 }
  - { offset: 0x2C4FC3, size: 0x8, addend: 0x0, symName: __ZNSt3__16vectorI17llama_kv_cell_extNS_9allocatorIS1_EEE8__appendEm, symObjAddr: 0x132D0, symBinAddr: 0x64FC0, symSize: 0x150 }
  - { offset: 0x2C5437, size: 0x8, addend: 0x0, symName: __ZNSt3__16vectorINS_6bitsetILm256EEENS_9allocatorIS2_EEE8__appendEm, symObjAddr: 0x13430, symBinAddr: 0x65120, symSize: 0x140 }
  - { offset: 0x2C58DD, size: 0x8, addend: 0x0, symName: __ZNSt3__16__treeIjNS_4lessIjEENS_9allocatorIjEEE7destroyEPNS_11__tree_nodeIjPvEE, symObjAddr: 0x13700, symBinAddr: 0x65260, symSize: 0x40 }
  - { offset: 0x2C5AAA, size: 0x8, addend: 0x0, symName: __ZNK14llama_kv_cache12size_k_bytesEv, symObjAddr: 0x1840, symBinAddr: 0x53900, symSize: 0x50 }
  - { offset: 0x2C5B93, size: 0x8, addend: 0x0, symName: __ZNK14llama_kv_cache12size_v_bytesEv, symObjAddr: 0x1890, symBinAddr: 0x53950, symSize: 0x50 }
  - { offset: 0x2C62C3, size: 0x8, addend: 0x0, symName: __ZN14llama_kv_cacheC1ERK11llama_model9ggml_typeS3_bbbjjjj14llama_swa_typeRKNSt3__18functionIFbiEEERKNS6_IFiiEEE, symObjAddr: 0x1B00, symBinAddr: 0x53BC0, symSize: 0x10 }
  - { offset: 0x2C64A3, size: 0x8, addend: 0x0, symName: __ZN14llama_kv_cache5clearEb, symObjAddr: 0x1B10, symBinAddr: 0x53BD0, symSize: 0x170 }
  - { offset: 0x2C6EFA, size: 0x8, addend: 0x0, symName: __ZN14llama_kv_cache6seq_rmEiii, symObjAddr: 0x1C80, symBinAddr: 0x53D40, symSize: 0x4F0 }
  - { offset: 0x2C7AFA, size: 0x8, addend: 0x0, symName: __ZN14llama_kv_cells6seq_rmEji, symObjAddr: 0x2170, symBinAddr: 0x54230, symSize: 0x200 }
  - { offset: 0x2C89E5, size: 0x8, addend: 0x0, symName: __ZN14llama_kv_cache6seq_cpEiiii, symObjAddr: 0x2370, symBinAddr: 0x54430, symSize: 0x6E0 }
  - { offset: 0x2C9F13, size: 0x8, addend: 0x0, symName: __ZN14llama_kv_cells7seq_addEji, symObjAddr: 0x2A50, symBinAddr: 0x54B10, symSize: 0x110 }
  - { offset: 0x2CA2D5, size: 0x8, addend: 0x0, symName: __ZN14llama_kv_cells7pos_addEji, symObjAddr: 0x2B90, symBinAddr: 0x54C50, symSize: 0x110 }
  - { offset: 0x2CA74F, size: 0x8, addend: 0x0, symName: __ZNSt3__16vectorI14llama_kv_cellsNS_9allocatorIS1_EEE8__appendEm, symObjAddr: 0x14920, symBinAddr: 0x65CB0, symSize: 0x370 }
  - { offset: 0x2CABC2, size: 0x8, addend: 0x0, symName: __ZNK14llama_kv_cache8get_sizeEv, symObjAddr: 0x2B60, symBinAddr: 0x54C20, symSize: 0x30 }
  - { offset: 0x2CAC78, size: 0x8, addend: 0x0, symName: __ZN14llama_kv_cells10seq_pos_rmEj, symObjAddr: 0x13B80, symBinAddr: 0x652A0, symSize: 0x120 }
  - { offset: 0x2CB05A, size: 0x8, addend: 0x0, symName: __ZN14llama_kv_cells11seq_pos_addEj, symObjAddr: 0x13CA0, symBinAddr: 0x653C0, symSize: 0x140 }
  - { offset: 0x2CB44C, size: 0x8, addend: 0x0, symName: __ZN14llama_kv_cache8seq_keepEi, symObjAddr: 0x2CA0, symBinAddr: 0x54D60, symSize: 0xF0 }
  - { offset: 0x2CB5E1, size: 0x8, addend: 0x0, symName: __ZN14llama_kv_cells8seq_keepEji, symObjAddr: 0x2D90, symBinAddr: 0x54E50, symSize: 0x250 }
  - { offset: 0x2CBF66, size: 0x8, addend: 0x0, symName: __ZN14llama_kv_cache7seq_addEiiii, symObjAddr: 0x2FE0, symBinAddr: 0x550A0, symSize: 0x240 }
  - { offset: 0x2CC1E3, size: 0x8, addend: 0x0, symName: __ZN14llama_kv_cache7seq_divEiiii, symObjAddr: 0x3220, symBinAddr: 0x552E0, symSize: 0x200 }
  - { offset: 0x2CC4C8, size: 0x8, addend: 0x0, symName: __ZNK14llama_kv_cache11seq_pos_minEi, symObjAddr: 0x3420, symBinAddr: 0x554E0, symSize: 0x80 }
  - { offset: 0x2CC643, size: 0x8, addend: 0x0, symName: __ZNK14llama_kv_cache11seq_pos_maxEi, symObjAddr: 0x34A0, symBinAddr: 0x55560, symSize: 0xC0 }
  - { offset: 0x2CCD2F, size: 0x8, addend: 0x0, symName: __ZNK14llama_kv_cache16memory_breakdownEv, symObjAddr: 0x3560, symBinAddr: 0x55620, symSize: 0x1E0 }
  - { offset: 0x2CDC3A, size: 0x8, addend: 0x0, symName: __ZN14llama_kv_cache10init_batchER18llama_batch_allocrjb, symObjAddr: 0x3740, symBinAddr: 0x55800, symSize: 0x380 }
  - { offset: 0x2D0771, size: 0x8, addend: 0x0, symName: __ZNK14llama_kv_cache9find_slotERK12llama_ubatchb, symObjAddr: 0x5740, symBinAddr: 0x57670, symSize: 0xF60 }
  - { offset: 0x2D2CC1, size: 0x8, addend: 0x0, symName: __ZN14llama_kv_cache9slot_infoC2ERKS0_, symObjAddr: 0x13DE0, symBinAddr: 0x65500, symSize: 0x150 }
  - { offset: 0x2D32B6, size: 0x8, addend: 0x0, symName: __ZNSt3__16vectorIN14llama_kv_cache9slot_infoENS_9allocatorIS2_EEE24__emplace_back_slow_pathIJRKS2_EEEPS2_DpOT_, symObjAddr: 0x16050, symBinAddr: 0x67110, symSize: 0x140 }
  - { offset: 0x2D36CB, size: 0x8, addend: 0x0, symName: __ZZN14llama_kv_cache7prepareERKNSt3__16vectorI12llama_ubatchNS0_9allocatorIS2_EEEEEN7state_tD1Ev, symObjAddr: 0x67D0, symBinAddr: 0x58700, symSize: 0xD0 }
  - { offset: 0x2D3D79, size: 0x8, addend: 0x0, symName: __ZN14llama_kv_cache12apply_ubatchERKNS_9slot_infoERK12llama_ubatch, symObjAddr: 0x68A0, symBinAddr: 0x587D0, symSize: 0xB60 }
  - { offset: 0x2D588E, size: 0x8, addend: 0x0, symName: __ZN14llama_kv_cells3setERKNSt3__16vectorIjNS0_9allocatorIjEEEERKS_, symObjAddr: 0x7400, symBinAddr: 0x59330, symSize: 0x280 }
  - { offset: 0x2D6017, size: 0x8, addend: 0x0, symName: __ZNSt3__16vectorI14llama_kv_cellsNS_9allocatorIS1_EEE20__throw_length_errorB8ne200100Ev, symObjAddr: 0x14C90, symBinAddr: 0x66020, symSize: 0x10 }
  - { offset: 0x2D602F, size: 0x8, addend: 0x0, symName: __ZNSt3__19allocatorI14llama_kv_cellsE9constructB8ne200100IS1_JS1_EEEvPT_DpOT0_, symObjAddr: 0x14CA0, symBinAddr: 0x66030, symSize: 0x170 }
  - { offset: 0x2D603A, size: 0x8, addend: 0x0, symName: __ZNSt3__16vectorIZN14llama_kv_cache7prepareERKNS0_I12llama_ubatchNS_9allocatorIS2_EEEEE7state_tNS3_IS8_EEE20__throw_length_errorB8ne200100Ev, symObjAddr: 0x16370, symBinAddr: 0x67430, symSize: 0x10 }
  - { offset: 0x2D6052, size: 0x8, addend: 0x0, symName: __ZNSt3__113unordered_mapIiNS_6vectorIjNS_9allocatorIjEEEENS_4hashIiEENS_8equal_toIiEENS2_INS_4pairIKiS4_EEEEED1B8ne200100Ev, symObjAddr: 0x16380, symBinAddr: 0x67440, symSize: 0x70 }
  - { offset: 0x2D605D, size: 0x8, addend: 0x0, symName: __ZN14llama_kv_cache9slot_infoD1Ev, symObjAddr: 0x66A0, symBinAddr: 0x585D0, symSize: 0x90 }
  - { offset: 0x2D6433, size: 0x8, addend: 0x0, symName: __ZN14llama_kv_cellsD1Ev, symObjAddr: 0x6730, symBinAddr: 0x58660, symSize: 0xA0 }
  - { offset: 0x2D6A94, size: 0x8, addend: 0x0, symName: __ZNSt3__16vectorIZN14llama_kv_cache7prepareERKNS0_I12llama_ubatchNS_9allocatorIS2_EEEEE7state_tNS3_IS8_EEED1B8ne200100Ev, symObjAddr: 0x7680, symBinAddr: 0x595B0, symSize: 0x70 }
  - { offset: 0x2D6C22, size: 0x8, addend: 0x0, symName: __ZN14llama_kv_cache9init_fullEv, symObjAddr: 0x5020, symBinAddr: 0x56F50, symSize: 0x50 }
  - { offset: 0x2D6CCB, size: 0x8, addend: 0x0, symName: __ZN22llama_kv_cache_contextC2EP14llama_kv_cache, symObjAddr: 0x12430, symBinAddr: 0x64360, symSize: 0x300 }
  - { offset: 0x2D768A, size: 0x8, addend: 0x0, symName: __ZN14llama_kv_cache11init_updateEP13llama_contextb, symObjAddr: 0x5070, symBinAddr: 0x56FA0, symSize: 0x3E0 }
  - { offset: 0x2D79A5, size: 0x8, addend: 0x0, symName: __ZNK14llama_kv_cache13get_has_shiftEv, symObjAddr: 0x5450, symBinAddr: 0x57380, symSize: 0x2F0 }
  - { offset: 0x2D8061, size: 0x8, addend: 0x0, symName: __ZNSt3__16vectorINS0_IjNS_9allocatorIjEEEENS1_IS3_EEE8__appendEm, symObjAddr: 0x14520, symBinAddr: 0x65A10, symSize: 0x1A0 }
  - { offset: 0x2D8670, size: 0x8, addend: 0x0, symName: __ZN14llama_kv_cache6updateEP13llama_contextbRKNS_16stream_copy_infoE, symObjAddr: 0x76F0, symBinAddr: 0x59620, symSize: 0x340 }
  - { offset: 0x2D8A7D, size: 0x8, addend: 0x0, symName: __ZNK14llama_kv_cache17build_graph_shiftEP16llm_graph_resultP13llama_context, symObjAddr: 0x7A30, symBinAddr: 0x59960, symSize: 0x2E0 }
  - { offset: 0x2D9303, size: 0x8, addend: 0x0, symName: __ZNK14llama_kv_cache16build_rope_shiftERK13llama_cparamsP12ggml_contextP11ggml_tensorS6_S6_ff, symObjAddr: 0xFFE0, symBinAddr: 0x61F10, symSize: 0x130 }
  - { offset: 0x2D94F3, size: 0x8, addend: 0x0, symName: __ZNK14llama_kv_cache13get_can_shiftEv, symObjAddr: 0x7D10, symBinAddr: 0x59C40, symSize: 0x10 }
  - { offset: 0x2D9519, size: 0x8, addend: 0x0, symName: __ZNK14llama_kv_cache12get_n_streamEv, symObjAddr: 0x7D20, symBinAddr: 0x59C50, symSize: 0x10 }
  - { offset: 0x2D9539, size: 0x8, addend: 0x0, symName: __ZNK14llama_kv_cache8get_n_kvERKNS_9slot_infoE, symObjAddr: 0x7D30, symBinAddr: 0x59C60, symSize: 0xF0 }
  - { offset: 0x2D9578, size: 0x8, addend: 0x0, symName: __ZNK14llama_kv_cache8get_n_kvERKNS_9slot_infoE, symObjAddr: 0x7D30, symBinAddr: 0x59C60, symSize: 0xF0 }
  - { offset: 0x2D9596, size: 0x8, addend: 0x0, symName: __ZNK14llama_kv_cache8get_n_kvERKNS_9slot_infoE, symObjAddr: 0x7D30, symBinAddr: 0x59C60, symSize: 0xF0 }
  - { offset: 0x2D95B3, size: 0x8, addend: 0x0, symName: __ZNK14llama_kv_cache8get_n_kvERKNS_9slot_infoE, symObjAddr: 0x7D30, symBinAddr: 0x59C60, symSize: 0xF0 }
  - { offset: 0x2D97F8, size: 0x8, addend: 0x0, symName: __ZNK14llama_kv_cache5get_kEP12ggml_contextijRKNS_9slot_infoE, symObjAddr: 0x7E20, symBinAddr: 0x59D50, symSize: 0x2C0 }
  - { offset: 0x2D9BBC, size: 0x8, addend: 0x0, symName: __ZNK14llama_kv_cache5get_vEP12ggml_contextijRKNS_9slot_infoE, symObjAddr: 0x80E0, symBinAddr: 0x5A010, symSize: 0x360 }
  - { offset: 0x2D9F6D, size: 0x8, addend: 0x0, symName: __ZNK14llama_kv_cache5cpy_kEP12ggml_contextP11ggml_tensorS3_iRKNS_9slot_infoE, symObjAddr: 0x8440, symBinAddr: 0x5A370, symSize: 0x2A0 }
  - { offset: 0x2DA378, size: 0x8, addend: 0x0, symName: __ZNK14llama_kv_cache5cpy_vEP12ggml_contextP11ggml_tensorS3_iRKNS_9slot_infoE, symObjAddr: 0x86E0, symBinAddr: 0x5A610, symSize: 0x380 }
  - { offset: 0x2DA89D, size: 0x8, addend: 0x0, symName: __ZNK14llama_kv_cache18build_input_k_idxsEP12ggml_contextRK12llama_ubatch, symObjAddr: 0x8A60, symBinAddr: 0x5A990, symSize: 0x30 }
  - { offset: 0x2DA908, size: 0x8, addend: 0x0, symName: __ZNK14llama_kv_cache18build_input_v_idxsEP12ggml_contextRK12llama_ubatch, symObjAddr: 0x8A90, symBinAddr: 0x5A9C0, symSize: 0x50 }
  - { offset: 0x2DA97B, size: 0x8, addend: 0x0, symName: __ZNK14llama_kv_cache16set_input_k_idxsEP11ggml_tensorPK12llama_ubatchRKNS_9slot_infoE, symObjAddr: 0x8AE0, symBinAddr: 0x5AA10, symSize: 0x440 }
  - { offset: 0x2DAB43, size: 0x8, addend: 0x0, symName: __ZNK14llama_kv_cache16set_input_v_idxsEP11ggml_tensorPK12llama_ubatchRKNS_9slot_infoE, symObjAddr: 0x8F20, symBinAddr: 0x5AE50, symSize: 0x6A0 }
  - { offset: 0x2DAE15, size: 0x8, addend: 0x0, symName: __ZNK14llama_kv_cache17set_input_k_shiftEP11ggml_tensor, symObjAddr: 0x95C0, symBinAddr: 0x5B4F0, symSize: 0x140 }
  - { offset: 0x2DAE28, size: 0x8, addend: 0x0, symName: __ZNK14llama_kv_cache17set_input_k_shiftEP11ggml_tensor, symObjAddr: 0x95C0, symBinAddr: 0x5B4F0, symSize: 0x140 }
  - { offset: 0x2DD902, size: 0x8, addend: 0x0, symName: __ZNK14llama_kv_cache17set_input_kq_maskEP11ggml_tensorPK12llama_ubatchb, symObjAddr: 0x9700, symBinAddr: 0x5B630, symSize: 0x6730 }
  - { offset: 0x2ED895, size: 0x8, addend: 0x0, symName: __ZNSt3__112__hash_tableINS_17__hash_value_typeIiNS_6vectorIjNS_9allocatorIjEEEEEENS_22__unordered_map_hasherIiS6_NS_4hashIiEENS_8equal_toIiEELb1EEENS_21__unordered_map_equalIiS6_SB_S9_Lb1EEENS3_IS6_EEE25__emplace_unique_key_argsIiJRKNS_21piecewise_construct_tENS_5tupleIJRKiEEENSL_IJEEEEEENS_4pairINS_15__hash_iteratorIPNS_11__hash_nodeIS6_PvEEEEbEERKT_DpOT0_, symObjAddr: 0x16450, symBinAddr: 0x67510, symSize: 0x4D0 }
  - { offset: 0x2EDFE9, size: 0x8, addend: 0x0, symName: __ZNSt3__112__hash_tableINS_17__hash_value_typeIijEENS_22__unordered_map_hasherIiS2_NS_4hashIiEENS_8equal_toIiEELb1EEENS_21__unordered_map_equalIiS2_S7_S5_Lb1EEENS_9allocatorIS2_EEE25__emplace_unique_key_argsIiJRKNS_21piecewise_construct_tENS_5tupleIJRKiEEENSI_IJEEEEEENS_4pairINS_15__hash_iteratorIPNS_11__hash_nodeIS2_PvEEEEbEERKT_DpOT0_, symObjAddr: 0x16B20, symBinAddr: 0x67BE0, symSize: 0x4B0 }
  - { offset: 0x2EE740, size: 0x8, addend: 0x0, symName: __ZNSt3__16vectorI14llama_kv_cellsNS_9allocatorIS1_EEE20__throw_out_of_rangeB8ne200100Ev, symObjAddr: 0x16440, symBinAddr: 0x67500, symSize: 0x10 }
  - { offset: 0x2EE758, size: 0x8, addend: 0x0, symName: __ZNSt3__112__hash_tableINS_17__hash_value_typeIiNS_6vectorIjNS_9allocatorIjEEEEEENS_22__unordered_map_hasherIiS6_NS_4hashIiEENS_8equal_toIiEELb1EEENS_21__unordered_map_equalIiS6_SB_S9_Lb1EEENS3_IS6_EEE25__emplace_unique_key_argsIiJRKNS_21piecewise_construct_tENS_5tupleIJRKiEEENSL_IJEEEEEENS_4pairINS_15__hash_iteratorIPNS_11__hash_nodeIS6_PvEEEEbEERKT_DpOT0_, symObjAddr: 0x16450, symBinAddr: 0x67510, symSize: 0x4D0 }
  - { offset: 0x2EE763, size: 0x8, addend: 0x0, symName: __ZNSt3__113unordered_mapIiNS_6vectorIjNS_9allocatorIjEEEENS_4hashIiEENS_8equal_toIiEENS2_INS_4pairIKiS4_EEEEED1B8ne200100Ev, symObjAddr: 0x16380, symBinAddr: 0x67440, symSize: 0x70 }
  - { offset: 0x2EEB59, size: 0x8, addend: 0x0, symName: __ZNSt3__113unordered_mapIijNS_4hashIiEENS_8equal_toIiEENS_9allocatorINS_4pairIKijEEEEED1B8ne200100Ev, symObjAddr: 0x163F0, symBinAddr: 0x674B0, symSize: 0x50 }
  - { offset: 0x2EEDF3, size: 0x8, addend: 0x0, symName: __ZNK14llama_kv_cache20set_input_pos_bucketEP11ggml_tensorPK12llama_ubatch, symObjAddr: 0xFE30, symBinAddr: 0x61D60, symSize: 0x160 }
  - { offset: 0x2EEFF7, size: 0x8, addend: 0x0, symName: __ZNK14llama_kv_cache10total_sizeEv, symObjAddr: 0xFF90, symBinAddr: 0x61EC0, symSize: 0x50 }
  - { offset: 0x2EF272, size: 0x8, addend: 0x0, symName: __ZN23llm_graph_input_k_shift9set_inputEPK12llama_ubatch, symObjAddr: 0x10110, symBinAddr: 0x62040, symSize: 0x150 }
  - { offset: 0x2EFB48, size: 0x8, addend: 0x0, symName: __ZNK14llama_kv_cache11state_writeER16llama_io_write_iij, symObjAddr: 0x10260, symBinAddr: 0x62190, symSize: 0x590 }
  - { offset: 0x2F0880, size: 0x8, addend: 0x0, symName: __ZNK14llama_kv_cache16state_write_metaER16llama_io_write_iRKNS_13cell_ranges_tEi, symObjAddr: 0x107F0, symBinAddr: 0x62720, symSize: 0x2F0 }
  - { offset: 0x2F108B, size: 0x8, addend: 0x0, symName: __ZNK14llama_kv_cache16state_write_dataER16llama_io_write_iRKNS_13cell_ranges_tE, symObjAddr: 0x10AE0, symBinAddr: 0x62A10, symSize: 0x3C0 }
  - { offset: 0x2F19D7, size: 0x8, addend: 0x0, symName: __ZNSt3__16vectorINS_4pairIjjEENS_9allocatorIS2_EEE20__throw_length_errorB8ne200100Ev, symObjAddr: 0x17180, symBinAddr: 0x68240, symSize: 0x10 }
  - { offset: 0x2F19EF, size: 0x8, addend: 0x0, symName: __ZNSt3__16vectorIN14llama_kv_cache9slot_infoENS_9allocatorIS2_EEE8__appendEm, symObjAddr: 0x17190, symBinAddr: 0x68250, symSize: 0x1AE }
  - { offset: 0x2F1CFC, size: 0x8, addend: 0x0, symName: __ZN14llama_kv_cache10state_readER15llama_io_read_iij, symObjAddr: 0x10EA0, symBinAddr: 0x62DD0, symSize: 0x290 }
  - { offset: 0x2F23AB, size: 0x8, addend: 0x0, symName: __ZN14llama_kv_cache15state_read_metaER15llama_io_read_ijjRNS_9slot_infoEi, symObjAddr: 0x11130, symBinAddr: 0x63060, symSize: 0x890 }
  - { offset: 0x2F358B, size: 0x8, addend: 0x0, symName: __ZN14llama_kv_cache15state_read_dataER15llama_io_read_ijjRKNS_9slot_infoE, symObjAddr: 0x119C0, symBinAddr: 0x638F0, symSize: 0x9F0 }
  - { offset: 0x2F4FD5, size: 0x8, addend: 0x0, symName: __ZN22llama_kv_cache_contextC2E19llama_memory_status, symObjAddr: 0x123B0, symBinAddr: 0x642E0, symSize: 0x40 }
  - { offset: 0x2F5079, size: 0x8, addend: 0x0, symName: __ZN22llama_kv_cache_contextC1E19llama_memory_status, symObjAddr: 0x123F0, symBinAddr: 0x64320, symSize: 0x40 }
  - { offset: 0x2F52CF, size: 0x8, addend: 0x0, symName: __ZNSt3__16vectorIN14llama_kv_cache9slot_infoENS_9allocatorIS2_EEE6resizeEm, symObjAddr: 0x12730, symBinAddr: 0x64660, symSize: 0xE0 }
  - { offset: 0x2F57DE, size: 0x8, addend: 0x0, symName: __ZNSt3__16vectorIN14llama_kv_cache9slot_infoENS_9allocatorIS2_EEE8__appendEm, symObjAddr: 0x17190, symBinAddr: 0x68250, symSize: 0x1AE }
  - { offset: 0x2F5D18, size: 0x8, addend: 0x0, symName: __ZN22llama_kv_cache_contextC1EP14llama_kv_cache, symObjAddr: 0x12810, symBinAddr: 0x64740, symSize: 0x10 }
  - { offset: 0x2F5D5C, size: 0x8, addend: 0x0, symName: __ZN22llama_kv_cache_contextC2EP14llama_kv_cacheP13llama_contextbNS0_16stream_copy_infoE, symObjAddr: 0x12820, symBinAddr: 0x64750, symSize: 0xB0 }
  - { offset: 0x2F5EFC, size: 0x8, addend: 0x0, symName: __ZN22llama_kv_cache_contextC1EP14llama_kv_cacheP13llama_contextbNS0_16stream_copy_infoE, symObjAddr: 0x128D0, symBinAddr: 0x64800, symSize: 0xB0 }
  - { offset: 0x2F60E3, size: 0x8, addend: 0x0, symName: __ZN22llama_kv_cache_contextC2EP14llama_kv_cacheNSt3__16vectorINS0_9slot_infoENS2_9allocatorIS4_EEEENS3_I12llama_ubatchNS5_IS8_EEEE, symObjAddr: 0x12980, symBinAddr: 0x648B0, symSize: 0x80 }
  - { offset: 0x2F6233, size: 0x8, addend: 0x0, symName: __ZN22llama_kv_cache_contextC1EP14llama_kv_cacheNSt3__16vectorINS0_9slot_infoENS2_9allocatorIS4_EEEENS3_I12llama_ubatchNS5_IS8_EEEE, symObjAddr: 0x12A00, symBinAddr: 0x64930, symSize: 0x80 }
  - { offset: 0x2F63D3, size: 0x8, addend: 0x0, symName: __ZN22llama_kv_cache_contextD2Ev, symObjAddr: 0x12A80, symBinAddr: 0x649B0, symSize: 0x150 }
  - { offset: 0x2F6E09, size: 0x8, addend: 0x0, symName: __ZN22llama_kv_cache_contextD1Ev, symObjAddr: 0x12BD0, symBinAddr: 0x64B00, symSize: 0x10 }
  - { offset: 0x2F6E5C, size: 0x8, addend: 0x0, symName: __ZN22llama_kv_cache_contextD0Ev, symObjAddr: 0x12BE0, symBinAddr: 0x64B10, symSize: 0x20 }
  - { offset: 0x2F6EBC, size: 0x8, addend: 0x0, symName: __ZN22llama_kv_cache_context4nextEv, symObjAddr: 0x12C00, symBinAddr: 0x64B30, symSize: 0x40 }
  - { offset: 0x2F6F8D, size: 0x8, addend: 0x0, symName: __ZN22llama_kv_cache_context5applyEv, symObjAddr: 0x12C40, symBinAddr: 0x64B70, symSize: 0x150 }
  - { offset: 0x2F7221, size: 0x8, addend: 0x0, symName: __ZNK22llama_kv_cache_context10get_statusEv, symObjAddr: 0x12D90, symBinAddr: 0x64CC0, symSize: 0x10 }
  - { offset: 0x2F726B, size: 0x8, addend: 0x0, symName: __ZNK22llama_kv_cache_context10get_ubatchEv, symObjAddr: 0x12DA0, symBinAddr: 0x64CD0, symSize: 0x10 }
  - { offset: 0x2F72B3, size: 0x8, addend: 0x0, symName: __ZNK22llama_kv_cache_context8get_n_kvEv, symObjAddr: 0x12DB0, symBinAddr: 0x64CE0, symSize: 0x10 }
  - { offset: 0x2F72FD, size: 0x8, addend: 0x0, symName: __ZNK22llama_kv_cache_context5get_kEP12ggml_contexti, symObjAddr: 0x12DC0, symBinAddr: 0x64CF0, symSize: 0x20 }
  - { offset: 0x2F7370, size: 0x8, addend: 0x0, symName: __ZNK22llama_kv_cache_context5get_vEP12ggml_contexti, symObjAddr: 0x12DE0, symBinAddr: 0x64D10, symSize: 0x20 }
  - { offset: 0x2F73E3, size: 0x8, addend: 0x0, symName: __ZNK22llama_kv_cache_context5cpy_kEP12ggml_contextP11ggml_tensorS3_i, symObjAddr: 0x12E00, symBinAddr: 0x64D30, symSize: 0x10 }
  - { offset: 0x2F7474, size: 0x8, addend: 0x0, symName: __ZNK22llama_kv_cache_context5cpy_vEP12ggml_contextP11ggml_tensorS3_i, symObjAddr: 0x12E10, symBinAddr: 0x64D40, symSize: 0x10 }
  - { offset: 0x2F754E, size: 0x8, addend: 0x0, symName: __ZNK22llama_kv_cache_context18build_input_k_idxsEP12ggml_contextRK12llama_ubatch, symObjAddr: 0x12E20, symBinAddr: 0x64D50, symSize: 0x30 }
  - { offset: 0x2F763A, size: 0x8, addend: 0x0, symName: __ZNK22llama_kv_cache_context18build_input_v_idxsEP12ggml_contextRK12llama_ubatch, symObjAddr: 0x12E50, symBinAddr: 0x64D80, symSize: 0x50 }
  - { offset: 0x2F76EB, size: 0x8, addend: 0x0, symName: __ZNK22llama_kv_cache_context17set_input_k_shiftEP11ggml_tensor, symObjAddr: 0x12EA0, symBinAddr: 0x64DD0, symSize: 0x140 }
  - { offset: 0x2F782E, size: 0x8, addend: 0x0, symName: __ZNK22llama_kv_cache_context16set_input_k_idxsEP11ggml_tensorPK12llama_ubatch, symObjAddr: 0x12FE0, symBinAddr: 0x64F10, symSize: 0x20 }
  - { offset: 0x2F78A8, size: 0x8, addend: 0x0, symName: __ZNK22llama_kv_cache_context16set_input_v_idxsEP11ggml_tensorPK12llama_ubatch, symObjAddr: 0x13000, symBinAddr: 0x64F30, symSize: 0x20 }
  - { offset: 0x2F7922, size: 0x8, addend: 0x0, symName: __ZNK22llama_kv_cache_context17set_input_kq_maskEP11ggml_tensorPK12llama_ubatchb, symObjAddr: 0x13020, symBinAddr: 0x64F50, symSize: 0x10 }
  - { offset: 0x2F79A9, size: 0x8, addend: 0x0, symName: __ZNK22llama_kv_cache_context20set_input_pos_bucketEP11ggml_tensorPK12llama_ubatch, symObjAddr: 0x13030, symBinAddr: 0x64F60, symSize: 0x10 }
  - { offset: 0x2F7A0E, size: 0x8, addend: 0x0, symName: __ZN14llama_kv_cacheD1Ev, symObjAddr: 0x13040, symBinAddr: 0x64F70, symSize: 0x10 }
  - { offset: 0x2F7A44, size: 0x8, addend: 0x0, symName: __ZN14llama_kv_cacheD2Ev, symObjAddr: 0x14330, symBinAddr: 0x65820, symSize: 0x1F0 }
  - { offset: 0x2F8A1C, size: 0x8, addend: 0x0, symName: __ZN14llama_kv_cacheD0Ev, symObjAddr: 0x13050, symBinAddr: 0x64F80, symSize: 0x20 }
  - { offset: 0x2F8A78, size: 0x8, addend: 0x0, symName: __ZN23llm_graph_input_k_shiftD1Ev, symObjAddr: 0x13070, symBinAddr: 0x64FA0, symSize: 0x10 }
  - { offset: 0x2F8AA1, size: 0x8, addend: 0x0, symName: __ZN23llm_graph_input_k_shiftD0Ev, symObjAddr: 0x13080, symBinAddr: 0x64FB0, symSize: 0x10 }
  - { offset: 0x2F8EA0, size: 0x8, addend: 0x0, symName: __ZNSt3__16vectorI17llama_kv_cell_extNS_9allocatorIS1_EEE20__throw_length_errorB8ne200100Ev, symObjAddr: 0x13420, symBinAddr: 0x65110, symSize: 0x10 }
  - { offset: 0x2F8EB8, size: 0x8, addend: 0x0, symName: __ZNSt3__16vectorINS_6bitsetILm256EEENS_9allocatorIS2_EEE8__appendEm, symObjAddr: 0x13430, symBinAddr: 0x65120, symSize: 0x140 }
  - { offset: 0x2F95C8, size: 0x8, addend: 0x0, symName: __ZNSt3__16vectorINS0_IjNS_9allocatorIjEEEENS1_IS3_EEE20__throw_length_errorB8ne200100Ev, symObjAddr: 0x13FA0, symBinAddr: 0x656C0, symSize: 0x10 }
  - { offset: 0x2F95E0, size: 0x8, addend: 0x0, symName: __ZNSt3__135__uninitialized_allocator_copy_implB8ne200100INS_9allocatorINS_6vectorIjNS1_IjEEEEEEPS4_S6_S6_EET2_RT_T0_T1_S7_, symObjAddr: 0x13FB0, symBinAddr: 0x656D0, symSize: 0x100 }
  - { offset: 0x2F95EB, size: 0x8, addend: 0x0, symName: __ZNSt3__128__exception_guard_exceptionsINS_6vectorINS1_IjNS_9allocatorIjEEEENS2_IS4_EEE16__destroy_vectorEED1B8ne200100Ev, symObjAddr: 0x13F30, symBinAddr: 0x65650, symSize: 0x70 }
  - { offset: 0x2F9910, size: 0x8, addend: 0x0, symName: __ZNSt3__128__exception_guard_exceptionsINS_29_AllocatorDestroyRangeReverseINS_9allocatorINS_6vectorIjNS2_IjEEEEEEPS5_EEED1B8ne200100Ev, symObjAddr: 0x140B0, symBinAddr: 0x657D0, symSize: 0x50 }
  - { offset: 0x2F993D, size: 0x8, addend: 0x0, symName: __ZNSt3__128__exception_guard_exceptionsINS_29_AllocatorDestroyRangeReverseINS_9allocatorINS_6vectorIjNS2_IjEEEEEEPS5_EEED1B8ne200100Ev, symObjAddr: 0x140B0, symBinAddr: 0x657D0, symSize: 0x50 }
  - { offset: 0x2FAACD, size: 0x8, addend: 0x0, symName: __ZNSt3__19allocatorI14llama_kv_cellsE9constructB8ne200100IS1_JS1_EEEvPT_DpOT0_, symObjAddr: 0x14CA0, symBinAddr: 0x66030, symSize: 0x170 }
  - { offset: 0x2FAB01, size: 0x8, addend: 0x0, symName: __ZNSt3__19allocatorI14llama_kv_cellsE9constructB8ne200100IS1_JS1_EEEvPT_DpOT0_, symObjAddr: 0x14CA0, symBinAddr: 0x66030, symSize: 0x170 }
  - { offset: 0x2FAB25, size: 0x8, addend: 0x0, symName: __ZNSt3__19allocatorI14llama_kv_cellsE9constructB8ne200100IS1_JS1_EEEvPT_DpOT0_, symObjAddr: 0x14CA0, symBinAddr: 0x66030, symSize: 0x170 }
  - { offset: 0x2FB2D1, size: 0x8, addend: 0x0, symName: __ZNSt3__112__hash_tableINS_17__hash_value_typeIiiEENS_22__unordered_map_hasherIiS2_NS_4hashIiEENS_8equal_toIiEELb1EEENS_21__unordered_map_equalIiS2_S7_S5_Lb1EEENS_9allocatorIS2_EEE11__do_rehashILb1EEEvm, symObjAddr: 0x15510, symBinAddr: 0x66850, symSize: 0x1B0 }
  - { offset: 0x2FB879, size: 0x8, addend: 0x0, symName: __ZNSt3__16vectorIN14llama_kv_cache8kv_layerENS_9allocatorIS2_EEE20__throw_length_errorB8ne200100Ev, symObjAddr: 0x15900, symBinAddr: 0x66C40, symSize: 0x10 }
  - { offset: 0x2FB891, size: 0x8, addend: 0x0, symName: __ZNSt3__112__hash_tableINS_17__hash_value_typeIiiEENS_22__unordered_map_hasherIiS2_NS_4hashIiEENS_8equal_toIiEELb1EEENS_21__unordered_map_equalIiS2_S7_S5_Lb1EEENS_9allocatorIS2_EEE25__emplace_unique_key_argsIiJRKNS_21piecewise_construct_tENS_5tupleIJRKiEEENSI_IJEEEEEENS_4pairINS_15__hash_iteratorIPNS_11__hash_nodeIS2_PvEEEEbEERKT_DpOT0_, symObjAddr: 0x15910, symBinAddr: 0x66C50, symSize: 0x4B0 }
  - { offset: 0x2FBBB1, size: 0x8, addend: 0x0, symName: __ZNSt3__16vectorIN14llama_kv_cache9slot_infoENS_9allocatorIS2_EEE24__emplace_back_slow_pathIJRKS2_EEEPS2_DpOT_, symObjAddr: 0x16050, symBinAddr: 0x67110, symSize: 0x140 }
  - { offset: 0x2FBD2A, size: 0x8, addend: 0x0, symName: __ZNSt3__16vectorIN14llama_kv_cache9slot_infoENS_9allocatorIS2_EEE20__throw_length_errorB8ne200100Ev, symObjAddr: 0x16190, symBinAddr: 0x67250, symSize: 0x10 }
  - { offset: 0x2FBD42, size: 0x8, addend: 0x0, symName: __ZNSt3__134__uninitialized_allocator_relocateB8ne200100INS_9allocatorIN14llama_kv_cache9slot_infoEEEPS3_EEvRT_T0_S8_S8_, symObjAddr: 0x161A0, symBinAddr: 0x67260, symSize: 0x110 }
  - { offset: 0x2FBD4D, size: 0x8, addend: 0x0, symName: __ZNSt3__114__split_bufferIN14llama_kv_cache9slot_infoERNS_9allocatorIS2_EEED2Ev, symObjAddr: 0x162B0, symBinAddr: 0x67370, symSize: 0xC0 }
  - { offset: 0x2FC840, size: 0x8, addend: 0x0, symName: __ZNSt3__112__hash_tableINS_17__hash_value_typeIiNS_6vectorIjNS_9allocatorIjEEEEEENS_22__unordered_map_hasherIiS6_NS_4hashIiEENS_8equal_toIiEELb1EEENS_21__unordered_map_equalIiS6_SB_S9_Lb1EEENS3_IS6_EEE11__do_rehashILb1EEEvm, symObjAddr: 0x16970, symBinAddr: 0x67A30, symSize: 0x1B0 }
  - { offset: 0x2FCBFC, size: 0x8, addend: 0x0, symName: __ZNSt3__110unique_ptrINS_11__hash_nodeINS_17__hash_value_typeIiNS_6vectorIjNS_9allocatorIjEEEEEEPvEENS_22__hash_node_destructorINS4_IS9_EEEEED1B8ne200100Ev, symObjAddr: 0x16920, symBinAddr: 0x679E0, symSize: 0x50 }
  - { offset: 0x2FD405, size: 0x8, addend: 0x0, symName: __ZNSt3__112__hash_tableINS_17__hash_value_typeIijEENS_22__unordered_map_hasherIiS2_NS_4hashIiEENS_8equal_toIiEELb1EEENS_21__unordered_map_equalIiS2_S7_S5_Lb1EEENS_9allocatorIS2_EEE11__do_rehashILb1EEEvm, symObjAddr: 0x16FD0, symBinAddr: 0x68090, symSize: 0x1B0 }
  - { offset: 0x2FF839, size: 0x8, addend: 0x0, symName: __ZN24llama_memory_hybrid_iswaC2ERK11llama_model9ggml_typeS3_bbjjjS3_S3_jjbbRKNSt3__18functionIFbiEEES9_, symObjAddr: 0x0, symBinAddr: 0x68400, symSize: 0x2E0 }
  - { offset: 0x32B197, size: 0x8, addend: 0x0, symName: __ZNSt3__111make_uniqueB8ne200100I32llama_memory_hybrid_iswa_contextJP24llama_memory_hybrid_iswaNS_6vectorIN14llama_kv_cache9slot_infoENS_9allocatorIS6_EEEES9_NS4_I12llama_ubatchNS7_ISA_EEEEELi0EEENS_10unique_ptrIT_NS_14default_deleteISE_EEEEDpOT0_, symObjAddr: 0xA20, symBinAddr: 0x68DE0, symSize: 0x260 }
  - { offset: 0x335F90, size: 0x8, addend: 0x0, symName: __ZN24llama_memory_hybrid_iswaC1ERK11llama_model9ggml_typeS3_bbjjjS3_S3_jjbbRKNSt3__18functionIFbiEEES9_, symObjAddr: 0x2E0, symBinAddr: 0x686E0, symSize: 0x10 }
  - { offset: 0x336C70, size: 0x8, addend: 0x0, symName: __ZN24llama_memory_hybrid_iswaC2ERK11llama_model9ggml_typeS3_bbjjjS3_S3_jjbbRKNSt3__18functionIFbiEEES9_, symObjAddr: 0x0, symBinAddr: 0x68400, symSize: 0x2E0 }
  - { offset: 0x338209, size: 0x8, addend: 0x0, symName: __ZN24llama_memory_hybrid_iswa10init_batchER18llama_batch_allocrjb, symObjAddr: 0x2F0, symBinAddr: 0x686F0, symSize: 0x6F0 }
  - { offset: 0x33A358, size: 0x8, addend: 0x0, symName: __ZN32llama_memory_hybrid_iswa_contextC2EP24llama_memory_hybrid_iswaNSt3__16vectorIN14llama_kv_cache9slot_infoENS2_9allocatorIS5_EEEES8_NS3_I12llama_ubatchNS6_IS9_EEEE, symObjAddr: 0x1510, symBinAddr: 0x69780, symSize: 0x5C0 }
  - { offset: 0x33BF54, size: 0x8, addend: 0x0, symName: __ZN24llama_memory_hybrid_iswa9init_fullEv, symObjAddr: 0xDD0, symBinAddr: 0x69040, symSize: 0x50 }
  - { offset: 0x33BFFA, size: 0x8, addend: 0x0, symName: __ZN32llama_memory_hybrid_iswa_contextC2EP24llama_memory_hybrid_iswa, symObjAddr: 0x1350, symBinAddr: 0x695C0, symSize: 0xC0 }
  - { offset: 0x33C2E5, size: 0x8, addend: 0x0, symName: __ZN24llama_memory_hybrid_iswa11init_updateEP13llama_contextb, symObjAddr: 0xE20, symBinAddr: 0x69090, symSize: 0x60 }
  - { offset: 0x33C3CF, size: 0x8, addend: 0x0, symName: __ZN32llama_memory_hybrid_iswa_contextC2EP24llama_memory_hybrid_iswaP13llama_contextb, symObjAddr: 0x1420, symBinAddr: 0x69690, symSize: 0xE0 }
  - { offset: 0x33C6AB, size: 0x8, addend: 0x0, symName: __ZNK24llama_memory_hybrid_iswa13get_can_shiftEv, symObjAddr: 0xE80, symBinAddr: 0x690F0, symSize: 0x10 }
  - { offset: 0x33C6FE, size: 0x8, addend: 0x0, symName: __ZN24llama_memory_hybrid_iswa5clearEb, symObjAddr: 0xE90, symBinAddr: 0x69100, symSize: 0x30 }
  - { offset: 0x33C792, size: 0x8, addend: 0x0, symName: __ZN24llama_memory_hybrid_iswa6seq_rmEiii, symObjAddr: 0xEC0, symBinAddr: 0x69130, symSize: 0x50 }
  - { offset: 0x33C852, size: 0x8, addend: 0x0, symName: __ZN24llama_memory_hybrid_iswa6seq_cpEiiii, symObjAddr: 0xF10, symBinAddr: 0x69180, symSize: 0x50 }
  - { offset: 0x33C928, size: 0x8, addend: 0x0, symName: __ZN24llama_memory_hybrid_iswa8seq_keepEi, symObjAddr: 0xF60, symBinAddr: 0x691D0, symSize: 0x30 }
  - { offset: 0x33C9BC, size: 0x8, addend: 0x0, symName: __ZN24llama_memory_hybrid_iswa7seq_addEiiii, symObjAddr: 0xF90, symBinAddr: 0x69200, symSize: 0x50 }
  - { offset: 0x33CA92, size: 0x8, addend: 0x0, symName: __ZN24llama_memory_hybrid_iswa7seq_divEiiii, symObjAddr: 0xFE0, symBinAddr: 0x69250, symSize: 0x50 }
  - { offset: 0x33CB68, size: 0x8, addend: 0x0, symName: __ZNK24llama_memory_hybrid_iswa11seq_pos_minEi, symObjAddr: 0x1030, symBinAddr: 0x692A0, symSize: 0x40 }
  - { offset: 0x33CC03, size: 0x8, addend: 0x0, symName: __ZNK24llama_memory_hybrid_iswa11seq_pos_maxEi, symObjAddr: 0x1070, symBinAddr: 0x692E0, symSize: 0x40 }
  - { offset: 0x33D24C, size: 0x8, addend: 0x0, symName: __ZNK24llama_memory_hybrid_iswa16memory_breakdownEv, symObjAddr: 0x10B0, symBinAddr: 0x69320, symSize: 0x190 }
  - { offset: 0x33D9F6, size: 0x8, addend: 0x0, symName: __ZNK24llama_memory_hybrid_iswa11state_writeER16llama_io_write_iij, symObjAddr: 0x1240, symBinAddr: 0x694B0, symSize: 0x40 }
  - { offset: 0x33DAB6, size: 0x8, addend: 0x0, symName: __ZN24llama_memory_hybrid_iswa10state_readER15llama_io_read_iij, symObjAddr: 0x1280, symBinAddr: 0x694F0, symSize: 0x50 }
  - { offset: 0x33DB8C, size: 0x8, addend: 0x0, symName: __ZNK24llama_memory_hybrid_iswa12get_mem_attnEv, symObjAddr: 0x12D0, symBinAddr: 0x69540, symSize: 0x10 }
  - { offset: 0x33DBE0, size: 0x8, addend: 0x0, symName: __ZNK24llama_memory_hybrid_iswa12get_mem_recrEv, symObjAddr: 0x12E0, symBinAddr: 0x69550, symSize: 0x10 }
  - { offset: 0x33DC1E, size: 0x8, addend: 0x0, symName: __ZN32llama_memory_hybrid_iswa_contextC2E19llama_memory_status, symObjAddr: 0x12F0, symBinAddr: 0x69560, symSize: 0x30 }
  - { offset: 0x33DC81, size: 0x8, addend: 0x0, symName: __ZN32llama_memory_hybrid_iswa_contextC1E19llama_memory_status, symObjAddr: 0x1320, symBinAddr: 0x69590, symSize: 0x30 }
  - { offset: 0x33DDFC, size: 0x8, addend: 0x0, symName: __ZN32llama_memory_hybrid_iswa_contextC1EP24llama_memory_hybrid_iswa, symObjAddr: 0x1410, symBinAddr: 0x69680, symSize: 0x10 }
  - { offset: 0x33DE40, size: 0x8, addend: 0x0, symName: __ZN32llama_memory_hybrid_iswa_contextC1EP24llama_memory_hybrid_iswaP13llama_contextb, symObjAddr: 0x1500, symBinAddr: 0x69770, symSize: 0x10 }
  - { offset: 0x33E3A6, size: 0x8, addend: 0x0, symName: __ZN32llama_memory_hybrid_iswa_contextC1EP24llama_memory_hybrid_iswaNSt3__16vectorIN14llama_kv_cache9slot_infoENS2_9allocatorIS5_EEEES8_NS3_I12llama_ubatchNS6_IS9_EEEE, symObjAddr: 0x1AD0, symBinAddr: 0x69D40, symSize: 0x10 }
  - { offset: 0x33E417, size: 0x8, addend: 0x0, symName: __ZN32llama_memory_hybrid_iswa_context4nextEv, symObjAddr: 0x1AE0, symBinAddr: 0x69D50, symSize: 0x50 }
  - { offset: 0x33E4AA, size: 0x8, addend: 0x0, symName: __ZN32llama_memory_hybrid_iswa_context5applyEv, symObjAddr: 0x1B30, symBinAddr: 0x69DA0, symSize: 0x30 }
  - { offset: 0x33E537, size: 0x8, addend: 0x0, symName: __ZNK32llama_memory_hybrid_iswa_context10get_statusEv, symObjAddr: 0x1B60, symBinAddr: 0x69DD0, symSize: 0x10 }
  - { offset: 0x33E581, size: 0x8, addend: 0x0, symName: __ZNK32llama_memory_hybrid_iswa_context10get_ubatchEv, symObjAddr: 0x1B70, symBinAddr: 0x69DE0, symSize: 0x10 }
  - { offset: 0x33E5DE, size: 0x8, addend: 0x0, symName: __ZNK32llama_memory_hybrid_iswa_context8get_attnEv, symObjAddr: 0x1B80, symBinAddr: 0x69DF0, symSize: 0x10 }
  - { offset: 0x33E625, size: 0x8, addend: 0x0, symName: __ZNK32llama_memory_hybrid_iswa_context8get_recrEv, symObjAddr: 0x1B90, symBinAddr: 0x69E00, symSize: 0x10 }
  - { offset: 0x33E70F, size: 0x8, addend: 0x0, symName: __ZN24llama_memory_hybrid_iswaD1Ev, symObjAddr: 0x1BA0, symBinAddr: 0x69E10, symSize: 0x50 }
  - { offset: 0x33E89C, size: 0x8, addend: 0x0, symName: __ZN24llama_memory_hybrid_iswaD0Ev, symObjAddr: 0x1BF0, symBinAddr: 0x69E60, symSize: 0x50 }
  - { offset: 0x33EA55, size: 0x8, addend: 0x0, symName: __ZN32llama_memory_hybrid_iswa_contextD1Ev, symObjAddr: 0x1C40, symBinAddr: 0x69EB0, symSize: 0xC0 }
  - { offset: 0x33EE1E, size: 0x8, addend: 0x0, symName: __ZN32llama_memory_hybrid_iswa_contextD0Ev, symObjAddr: 0x1D00, symBinAddr: 0x69F70, symSize: 0xC0 }
  - { offset: 0x33F1F0, size: 0x8, addend: 0x0, symName: '__ZNSt3__110__function6__funcIZN24llama_memory_hybrid_iswaC1ERK11llama_model9ggml_typeS6_bbjjjS6_S6_jjbbRKNS_8functionIFbiEEESB_E3$_0NS_9allocatorISC_EES8_ED1Ev', symObjAddr: 0x1DC0, symBinAddr: 0x6A030, symSize: 0x10 }
  - { offset: 0x33F21A, size: 0x8, addend: 0x0, symName: '__ZNSt3__110__function6__funcIZN24llama_memory_hybrid_iswaC1ERK11llama_model9ggml_typeS6_bbjjjS6_S6_jjbbRKNS_8functionIFbiEEESB_E3$_0NS_9allocatorISC_EES8_ED0Ev', symObjAddr: 0x1DD0, symBinAddr: 0x6A040, symSize: 0x10 }
  - { offset: 0x33F331, size: 0x8, addend: 0x0, symName: '__ZNKSt3__110__function6__funcIZN24llama_memory_hybrid_iswaC1ERK11llama_model9ggml_typeS6_bbjjjS6_S6_jjbbRKNS_8functionIFbiEEESB_E3$_0NS_9allocatorISC_EES8_E7__cloneEv', symObjAddr: 0x1DE0, symBinAddr: 0x6A050, symSize: 0x30 }
  - { offset: 0x33F520, size: 0x8, addend: 0x0, symName: '__ZNKSt3__110__function6__funcIZN24llama_memory_hybrid_iswaC1ERK11llama_model9ggml_typeS6_bbjjjS6_S6_jjbbRKNS_8functionIFbiEEESB_E3$_0NS_9allocatorISC_EES8_E7__cloneEPNS0_6__baseIS8_EE', symObjAddr: 0x1E10, symBinAddr: 0x6A080, symSize: 0x20 }
  - { offset: 0x33F5CB, size: 0x8, addend: 0x0, symName: '__ZNSt3__110__function6__funcIZN24llama_memory_hybrid_iswaC1ERK11llama_model9ggml_typeS6_bbjjjS6_S6_jjbbRKNS_8functionIFbiEEESB_E3$_0NS_9allocatorISC_EES8_E7destroyEv', symObjAddr: 0x1E30, symBinAddr: 0x6A0A0, symSize: 0x10 }
  - { offset: 0x33F620, size: 0x8, addend: 0x0, symName: '__ZNSt3__110__function6__funcIZN24llama_memory_hybrid_iswaC1ERK11llama_model9ggml_typeS6_bbjjjS6_S6_jjbbRKNS_8functionIFbiEEESB_E3$_0NS_9allocatorISC_EES8_E18destroy_deallocateEv', symObjAddr: 0x1E40, symBinAddr: 0x6A0B0, symSize: 0x10 }
  - { offset: 0x33F74D, size: 0x8, addend: 0x0, symName: '__ZNSt3__110__function6__funcIZN24llama_memory_hybrid_iswaC1ERK11llama_model9ggml_typeS6_bbjjjS6_S6_jjbbRKNS_8functionIFbiEEESB_E3$_0NS_9allocatorISC_EES8_EclEOi', symObjAddr: 0x1E50, symBinAddr: 0x6A0C0, symSize: 0x20 }
  - { offset: 0x33F83E, size: 0x8, addend: 0x0, symName: '__ZNKSt3__110__function6__funcIZN24llama_memory_hybrid_iswaC1ERK11llama_model9ggml_typeS6_bbjjjS6_S6_jjbbRKNS_8functionIFbiEEESB_E3$_0NS_9allocatorISC_EES8_E6targetERKSt9type_info', symObjAddr: 0x1E70, symBinAddr: 0x6A0E0, symSize: 0x20 }
  - { offset: 0x33F8AE, size: 0x8, addend: 0x0, symName: '__ZNKSt3__110__function6__funcIZN24llama_memory_hybrid_iswaC1ERK11llama_model9ggml_typeS6_bbjjjS6_S6_jjbbRKNS_8functionIFbiEEESB_E3$_0NS_9allocatorISC_EES8_E11target_typeEv', symObjAddr: 0x1E90, symBinAddr: 0x6A100, symSize: 0x10 }
  - { offset: 0x33F8D1, size: 0x8, addend: 0x0, symName: '__ZNSt3__110__function6__funcIZN24llama_memory_hybrid_iswaC1ERK11llama_model9ggml_typeS6_bbjjjS6_S6_jjbbRKNS_8functionIFbiEEESB_E3$_1NS_9allocatorISC_EES8_ED1Ev', symObjAddr: 0x1EE0, symBinAddr: 0x6A110, symSize: 0x10 }
  - { offset: 0x33F8FB, size: 0x8, addend: 0x0, symName: '__ZNSt3__110__function6__funcIZN24llama_memory_hybrid_iswaC1ERK11llama_model9ggml_typeS6_bbjjjS6_S6_jjbbRKNS_8functionIFbiEEESB_E3$_1NS_9allocatorISC_EES8_ED0Ev', symObjAddr: 0x1EF0, symBinAddr: 0x6A120, symSize: 0x10 }
  - { offset: 0x33FA12, size: 0x8, addend: 0x0, symName: '__ZNKSt3__110__function6__funcIZN24llama_memory_hybrid_iswaC1ERK11llama_model9ggml_typeS6_bbjjjS6_S6_jjbbRKNS_8functionIFbiEEESB_E3$_1NS_9allocatorISC_EES8_E7__cloneEv', symObjAddr: 0x1F00, symBinAddr: 0x6A130, symSize: 0x30 }
  - { offset: 0x33FC01, size: 0x8, addend: 0x0, symName: '__ZNKSt3__110__function6__funcIZN24llama_memory_hybrid_iswaC1ERK11llama_model9ggml_typeS6_bbjjjS6_S6_jjbbRKNS_8functionIFbiEEESB_E3$_1NS_9allocatorISC_EES8_E7__cloneEPNS0_6__baseIS8_EE', symObjAddr: 0x1F30, symBinAddr: 0x6A160, symSize: 0x20 }
  - { offset: 0x33FCAC, size: 0x8, addend: 0x0, symName: '__ZNSt3__110__function6__funcIZN24llama_memory_hybrid_iswaC1ERK11llama_model9ggml_typeS6_bbjjjS6_S6_jjbbRKNS_8functionIFbiEEESB_E3$_1NS_9allocatorISC_EES8_E7destroyEv', symObjAddr: 0x1F50, symBinAddr: 0x6A180, symSize: 0x10 }
  - { offset: 0x33FD01, size: 0x8, addend: 0x0, symName: '__ZNSt3__110__function6__funcIZN24llama_memory_hybrid_iswaC1ERK11llama_model9ggml_typeS6_bbjjjS6_S6_jjbbRKNS_8functionIFbiEEESB_E3$_1NS_9allocatorISC_EES8_E18destroy_deallocateEv', symObjAddr: 0x1F60, symBinAddr: 0x6A190, symSize: 0x10 }
  - { offset: 0x33FE2E, size: 0x8, addend: 0x0, symName: '__ZNSt3__110__function6__funcIZN24llama_memory_hybrid_iswaC1ERK11llama_model9ggml_typeS6_bbjjjS6_S6_jjbbRKNS_8functionIFbiEEESB_E3$_1NS_9allocatorISC_EES8_EclEOi', symObjAddr: 0x1F70, symBinAddr: 0x6A1A0, symSize: 0x20 }
  - { offset: 0x33FED7, size: 0x8, addend: 0x0, symName: '__ZNKSt3__110__function6__funcIZN24llama_memory_hybrid_iswaC1ERK11llama_model9ggml_typeS6_bbjjjS6_S6_jjbbRKNS_8functionIFbiEEESB_E3$_1NS_9allocatorISC_EES8_E6targetERKSt9type_info', symObjAddr: 0x1F90, symBinAddr: 0x6A1C0, symSize: 0x20 }
  - { offset: 0x33FF47, size: 0x8, addend: 0x0, symName: '__ZNKSt3__110__function6__funcIZN24llama_memory_hybrid_iswaC1ERK11llama_model9ggml_typeS6_bbjjjS6_S6_jjbbRKNS_8functionIFbiEEESB_E3$_1NS_9allocatorISC_EES8_E11target_typeEv', symObjAddr: 0x1FB0, symBinAddr: 0x6A1E0, symSize: 0x10 }
  - { offset: 0x34213C, size: 0x8, addend: 0x0, symName: __ZN19llama_memory_hybridC2ERK11llama_model9ggml_typeS3_bjjj14llama_swa_typeS3_S3_jjbbRKNSt3__18functionIFbiEEESA_, symObjAddr: 0x0, symBinAddr: 0x6A1F0, symSize: 0x2E0 }
  - { offset: 0x36D909, size: 0x8, addend: 0x0, symName: __ZNSt3__111make_uniqueB8ne200100I27llama_memory_hybrid_contextJP19llama_memory_hybridNS_6vectorIN14llama_kv_cache9slot_infoENS_9allocatorIS6_EEEENS4_I12llama_ubatchNS7_ISA_EEEEELi0EEENS_10unique_ptrIT_NS_14default_deleteISE_EEEEDpOT0_, symObjAddr: 0xA40, symBinAddr: 0x6ABF0, symSize: 0x1A0 }
  - { offset: 0x377C16, size: 0x8, addend: 0x0, symName: __ZN19llama_memory_hybridC1ERK11llama_model9ggml_typeS3_bjjj14llama_swa_typeS3_S3_jjbbRKNSt3__18functionIFbiEEESA_, symObjAddr: 0x2E0, symBinAddr: 0x6A4D0, symSize: 0x10 }
  - { offset: 0x3788EA, size: 0x8, addend: 0x0, symName: __ZN19llama_memory_hybridC2ERK11llama_model9ggml_typeS3_bjjj14llama_swa_typeS3_S3_jjbbRKNSt3__18functionIFbiEEESA_, symObjAddr: 0x0, symBinAddr: 0x6A1F0, symSize: 0x2E0 }
  - { offset: 0x379E83, size: 0x8, addend: 0x0, symName: __ZN19llama_memory_hybrid10init_batchER18llama_batch_allocrjb, symObjAddr: 0x2F0, symBinAddr: 0x6A4E0, symSize: 0x710 }
  - { offset: 0x37BB1E, size: 0x8, addend: 0x0, symName: __ZN27llama_memory_hybrid_contextC2EP19llama_memory_hybridNSt3__16vectorIN14llama_kv_cache9slot_infoENS2_9allocatorIS5_EEEENS3_I12llama_ubatchNS6_IS9_EEEE, symObjAddr: 0x1480, symBinAddr: 0x6B4E0, symSize: 0x4E0 }
  - { offset: 0x37D146, size: 0x8, addend: 0x0, symName: __ZN19llama_memory_hybrid9init_fullEv, symObjAddr: 0xD30, symBinAddr: 0x6AD90, symSize: 0x50 }
  - { offset: 0x37D1EC, size: 0x8, addend: 0x0, symName: __ZN27llama_memory_hybrid_contextC2EP19llama_memory_hybrid, symObjAddr: 0x12C0, symBinAddr: 0x6B320, symSize: 0xC0 }
  - { offset: 0x37D4D7, size: 0x8, addend: 0x0, symName: __ZN19llama_memory_hybrid11init_updateEP13llama_contextb, symObjAddr: 0xD80, symBinAddr: 0x6ADE0, symSize: 0x60 }
  - { offset: 0x37D5C1, size: 0x8, addend: 0x0, symName: __ZN27llama_memory_hybrid_contextC2EP19llama_memory_hybridP13llama_contextb, symObjAddr: 0x1390, symBinAddr: 0x6B3F0, symSize: 0xE0 }
  - { offset: 0x37D89D, size: 0x8, addend: 0x0, symName: __ZNK19llama_memory_hybrid13get_can_shiftEv, symObjAddr: 0xDE0, symBinAddr: 0x6AE40, symSize: 0x10 }
  - { offset: 0x37D8F0, size: 0x8, addend: 0x0, symName: __ZN19llama_memory_hybrid5clearEb, symObjAddr: 0xDF0, symBinAddr: 0x6AE50, symSize: 0x30 }
  - { offset: 0x37D984, size: 0x8, addend: 0x0, symName: __ZN19llama_memory_hybrid6seq_rmEiii, symObjAddr: 0xE20, symBinAddr: 0x6AE80, symSize: 0x50 }
  - { offset: 0x37DA44, size: 0x8, addend: 0x0, symName: __ZN19llama_memory_hybrid6seq_cpEiiii, symObjAddr: 0xE70, symBinAddr: 0x6AED0, symSize: 0x50 }
  - { offset: 0x37DB1A, size: 0x8, addend: 0x0, symName: __ZN19llama_memory_hybrid8seq_keepEi, symObjAddr: 0xEC0, symBinAddr: 0x6AF20, symSize: 0x30 }
  - { offset: 0x37DBAE, size: 0x8, addend: 0x0, symName: __ZN19llama_memory_hybrid7seq_addEiiii, symObjAddr: 0xEF0, symBinAddr: 0x6AF50, symSize: 0x50 }
  - { offset: 0x37DC84, size: 0x8, addend: 0x0, symName: __ZN19llama_memory_hybrid7seq_divEiiii, symObjAddr: 0xF40, symBinAddr: 0x6AFA0, symSize: 0x50 }
  - { offset: 0x37DD5A, size: 0x8, addend: 0x0, symName: __ZNK19llama_memory_hybrid11seq_pos_minEi, symObjAddr: 0xF90, symBinAddr: 0x6AFF0, symSize: 0x40 }
  - { offset: 0x37DDF5, size: 0x8, addend: 0x0, symName: __ZNK19llama_memory_hybrid11seq_pos_maxEi, symObjAddr: 0xFD0, symBinAddr: 0x6B030, symSize: 0x40 }
  - { offset: 0x37E43E, size: 0x8, addend: 0x0, symName: __ZNK19llama_memory_hybrid16memory_breakdownEv, symObjAddr: 0x1010, symBinAddr: 0x6B070, symSize: 0x190 }
  - { offset: 0x37EBE8, size: 0x8, addend: 0x0, symName: __ZNK19llama_memory_hybrid11state_writeER16llama_io_write_iij, symObjAddr: 0x11A0, symBinAddr: 0x6B200, symSize: 0x50 }
  - { offset: 0x37EC92, size: 0x8, addend: 0x0, symName: __ZN19llama_memory_hybrid10state_readER15llama_io_read_iij, symObjAddr: 0x11F0, symBinAddr: 0x6B250, symSize: 0x50 }
  - { offset: 0x37ED52, size: 0x8, addend: 0x0, symName: __ZNK19llama_memory_hybrid12get_mem_attnEv, symObjAddr: 0x1240, symBinAddr: 0x6B2A0, symSize: 0x10 }
  - { offset: 0x37EDA6, size: 0x8, addend: 0x0, symName: __ZNK19llama_memory_hybrid12get_mem_recrEv, symObjAddr: 0x1250, symBinAddr: 0x6B2B0, symSize: 0x10 }
  - { offset: 0x37EDE4, size: 0x8, addend: 0x0, symName: __ZN27llama_memory_hybrid_contextC2E19llama_memory_status, symObjAddr: 0x1260, symBinAddr: 0x6B2C0, symSize: 0x30 }
  - { offset: 0x37EE47, size: 0x8, addend: 0x0, symName: __ZN27llama_memory_hybrid_contextC1E19llama_memory_status, symObjAddr: 0x1290, symBinAddr: 0x6B2F0, symSize: 0x30 }
  - { offset: 0x37EFC2, size: 0x8, addend: 0x0, symName: __ZN27llama_memory_hybrid_contextC1EP19llama_memory_hybrid, symObjAddr: 0x1380, symBinAddr: 0x6B3E0, symSize: 0x10 }
  - { offset: 0x37F006, size: 0x8, addend: 0x0, symName: __ZN27llama_memory_hybrid_contextC1EP19llama_memory_hybridP13llama_contextb, symObjAddr: 0x1470, symBinAddr: 0x6B4D0, symSize: 0x10 }
  - { offset: 0x37F56C, size: 0x8, addend: 0x0, symName: __ZN27llama_memory_hybrid_contextC1EP19llama_memory_hybridNSt3__16vectorIN14llama_kv_cache9slot_infoENS2_9allocatorIS5_EEEENS3_I12llama_ubatchNS6_IS9_EEEE, symObjAddr: 0x1960, symBinAddr: 0x6B9C0, symSize: 0x10 }
  - { offset: 0x37F5CE, size: 0x8, addend: 0x0, symName: __ZN27llama_memory_hybrid_context4nextEv, symObjAddr: 0x1970, symBinAddr: 0x6B9D0, symSize: 0x50 }
  - { offset: 0x37F661, size: 0x8, addend: 0x0, symName: __ZN27llama_memory_hybrid_context5applyEv, symObjAddr: 0x19C0, symBinAddr: 0x6BA20, symSize: 0x30 }
  - { offset: 0x37F6EE, size: 0x8, addend: 0x0, symName: __ZNK27llama_memory_hybrid_context10get_statusEv, symObjAddr: 0x19F0, symBinAddr: 0x6BA50, symSize: 0x10 }
  - { offset: 0x37F737, size: 0x8, addend: 0x0, symName: __ZNK27llama_memory_hybrid_context10get_ubatchEv, symObjAddr: 0x1A00, symBinAddr: 0x6BA60, symSize: 0x10 }
  - { offset: 0x37F794, size: 0x8, addend: 0x0, symName: __ZNK27llama_memory_hybrid_context8get_attnEv, symObjAddr: 0x1A10, symBinAddr: 0x6BA70, symSize: 0x10 }
  - { offset: 0x37F7DB, size: 0x8, addend: 0x0, symName: __ZNK27llama_memory_hybrid_context8get_recrEv, symObjAddr: 0x1A20, symBinAddr: 0x6BA80, symSize: 0x10 }
  - { offset: 0x37F8C5, size: 0x8, addend: 0x0, symName: __ZN19llama_memory_hybridD1Ev, symObjAddr: 0x1A30, symBinAddr: 0x6BA90, symSize: 0x50 }
  - { offset: 0x37FA52, size: 0x8, addend: 0x0, symName: __ZN19llama_memory_hybridD0Ev, symObjAddr: 0x1A80, symBinAddr: 0x6BAE0, symSize: 0x50 }
  - { offset: 0x37FC0B, size: 0x8, addend: 0x0, symName: __ZN27llama_memory_hybrid_contextD1Ev, symObjAddr: 0x1AD0, symBinAddr: 0x6BB30, symSize: 0xC0 }
  - { offset: 0x37FFD4, size: 0x8, addend: 0x0, symName: __ZN27llama_memory_hybrid_contextD0Ev, symObjAddr: 0x1B90, symBinAddr: 0x6BBF0, symSize: 0xC0 }
  - { offset: 0x3803A6, size: 0x8, addend: 0x0, symName: '__ZNSt3__110__function6__funcIZN19llama_memory_hybridC1ERK11llama_model9ggml_typeS6_bjjj14llama_swa_typeS6_S6_jjbbRKNS_8functionIFbiEEESC_E3$_0NS_9allocatorISD_EES9_ED1Ev', symObjAddr: 0x1C50, symBinAddr: 0x6BCB0, symSize: 0x10 }
  - { offset: 0x3803D0, size: 0x8, addend: 0x0, symName: '__ZNSt3__110__function6__funcIZN19llama_memory_hybridC1ERK11llama_model9ggml_typeS6_bjjj14llama_swa_typeS6_S6_jjbbRKNS_8functionIFbiEEESC_E3$_0NS_9allocatorISD_EES9_ED0Ev', symObjAddr: 0x1C60, symBinAddr: 0x6BCC0, symSize: 0x10 }
  - { offset: 0x3804E7, size: 0x8, addend: 0x0, symName: '__ZNKSt3__110__function6__funcIZN19llama_memory_hybridC1ERK11llama_model9ggml_typeS6_bjjj14llama_swa_typeS6_S6_jjbbRKNS_8functionIFbiEEESC_E3$_0NS_9allocatorISD_EES9_E7__cloneEv', symObjAddr: 0x1C70, symBinAddr: 0x6BCD0, symSize: 0x30 }
  - { offset: 0x3806D6, size: 0x8, addend: 0x0, symName: '__ZNKSt3__110__function6__funcIZN19llama_memory_hybridC1ERK11llama_model9ggml_typeS6_bjjj14llama_swa_typeS6_S6_jjbbRKNS_8functionIFbiEEESC_E3$_0NS_9allocatorISD_EES9_E7__cloneEPNS0_6__baseIS9_EE', symObjAddr: 0x1CA0, symBinAddr: 0x6BD00, symSize: 0x20 }
  - { offset: 0x380781, size: 0x8, addend: 0x0, symName: '__ZNSt3__110__function6__funcIZN19llama_memory_hybridC1ERK11llama_model9ggml_typeS6_bjjj14llama_swa_typeS6_S6_jjbbRKNS_8functionIFbiEEESC_E3$_0NS_9allocatorISD_EES9_E7destroyEv', symObjAddr: 0x1CC0, symBinAddr: 0x6BD20, symSize: 0x10 }
  - { offset: 0x3807D6, size: 0x8, addend: 0x0, symName: '__ZNSt3__110__function6__funcIZN19llama_memory_hybridC1ERK11llama_model9ggml_typeS6_bjjj14llama_swa_typeS6_S6_jjbbRKNS_8functionIFbiEEESC_E3$_0NS_9allocatorISD_EES9_E18destroy_deallocateEv', symObjAddr: 0x1CD0, symBinAddr: 0x6BD30, symSize: 0x10 }
  - { offset: 0x380903, size: 0x8, addend: 0x0, symName: '__ZNSt3__110__function6__funcIZN19llama_memory_hybridC1ERK11llama_model9ggml_typeS6_bjjj14llama_swa_typeS6_S6_jjbbRKNS_8functionIFbiEEESC_E3$_0NS_9allocatorISD_EES9_EclEOi', symObjAddr: 0x1CE0, symBinAddr: 0x6BD40, symSize: 0x20 }
  - { offset: 0x3809F4, size: 0x8, addend: 0x0, symName: '__ZNKSt3__110__function6__funcIZN19llama_memory_hybridC1ERK11llama_model9ggml_typeS6_bjjj14llama_swa_typeS6_S6_jjbbRKNS_8functionIFbiEEESC_E3$_0NS_9allocatorISD_EES9_E6targetERKSt9type_info', symObjAddr: 0x1D00, symBinAddr: 0x6BD60, symSize: 0x20 }
  - { offset: 0x380A64, size: 0x8, addend: 0x0, symName: '__ZNKSt3__110__function6__funcIZN19llama_memory_hybridC1ERK11llama_model9ggml_typeS6_bjjj14llama_swa_typeS6_S6_jjbbRKNS_8functionIFbiEEESC_E3$_0NS_9allocatorISD_EES9_E11target_typeEv', symObjAddr: 0x1D20, symBinAddr: 0x6BD80, symSize: 0x10 }
  - { offset: 0x380A87, size: 0x8, addend: 0x0, symName: '__ZNSt3__110__function6__funcIZN19llama_memory_hybridC1ERK11llama_model9ggml_typeS6_bjjj14llama_swa_typeS6_S6_jjbbRKNS_8functionIFbiEEESC_E3$_1NS_9allocatorISD_EES9_ED1Ev', symObjAddr: 0x1D70, symBinAddr: 0x6BD90, symSize: 0x10 }
  - { offset: 0x380AB1, size: 0x8, addend: 0x0, symName: '__ZNSt3__110__function6__funcIZN19llama_memory_hybridC1ERK11llama_model9ggml_typeS6_bjjj14llama_swa_typeS6_S6_jjbbRKNS_8functionIFbiEEESC_E3$_1NS_9allocatorISD_EES9_ED0Ev', symObjAddr: 0x1D80, symBinAddr: 0x6BDA0, symSize: 0x10 }
  - { offset: 0x380BC8, size: 0x8, addend: 0x0, symName: '__ZNKSt3__110__function6__funcIZN19llama_memory_hybridC1ERK11llama_model9ggml_typeS6_bjjj14llama_swa_typeS6_S6_jjbbRKNS_8functionIFbiEEESC_E3$_1NS_9allocatorISD_EES9_E7__cloneEv', symObjAddr: 0x1D90, symBinAddr: 0x6BDB0, symSize: 0x30 }
  - { offset: 0x380DB7, size: 0x8, addend: 0x0, symName: '__ZNKSt3__110__function6__funcIZN19llama_memory_hybridC1ERK11llama_model9ggml_typeS6_bjjj14llama_swa_typeS6_S6_jjbbRKNS_8functionIFbiEEESC_E3$_1NS_9allocatorISD_EES9_E7__cloneEPNS0_6__baseIS9_EE', symObjAddr: 0x1DC0, symBinAddr: 0x6BDE0, symSize: 0x20 }
  - { offset: 0x380E62, size: 0x8, addend: 0x0, symName: '__ZNSt3__110__function6__funcIZN19llama_memory_hybridC1ERK11llama_model9ggml_typeS6_bjjj14llama_swa_typeS6_S6_jjbbRKNS_8functionIFbiEEESC_E3$_1NS_9allocatorISD_EES9_E7destroyEv', symObjAddr: 0x1DE0, symBinAddr: 0x6BE00, symSize: 0x10 }
  - { offset: 0x380EB7, size: 0x8, addend: 0x0, symName: '__ZNSt3__110__function6__funcIZN19llama_memory_hybridC1ERK11llama_model9ggml_typeS6_bjjj14llama_swa_typeS6_S6_jjbbRKNS_8functionIFbiEEESC_E3$_1NS_9allocatorISD_EES9_E18destroy_deallocateEv', symObjAddr: 0x1DF0, symBinAddr: 0x6BE10, symSize: 0x10 }
  - { offset: 0x380FE4, size: 0x8, addend: 0x0, symName: '__ZNSt3__110__function6__funcIZN19llama_memory_hybridC1ERK11llama_model9ggml_typeS6_bjjj14llama_swa_typeS6_S6_jjbbRKNS_8functionIFbiEEESC_E3$_1NS_9allocatorISD_EES9_EclEOi', symObjAddr: 0x1E00, symBinAddr: 0x6BE20, symSize: 0x20 }
  - { offset: 0x38108D, size: 0x8, addend: 0x0, symName: '__ZNKSt3__110__function6__funcIZN19llama_memory_hybridC1ERK11llama_model9ggml_typeS6_bjjj14llama_swa_typeS6_S6_jjbbRKNS_8functionIFbiEEESC_E3$_1NS_9allocatorISD_EES9_E6targetERKSt9type_info', symObjAddr: 0x1E20, symBinAddr: 0x6BE40, symSize: 0x20 }
  - { offset: 0x3810FD, size: 0x8, addend: 0x0, symName: '__ZNKSt3__110__function6__funcIZN19llama_memory_hybridC1ERK11llama_model9ggml_typeS6_bjjj14llama_swa_typeS6_S6_jjbbRKNS_8functionIFbiEEESC_E3$_1NS_9allocatorISD_EES9_E11target_typeEv', symObjAddr: 0x1E40, symBinAddr: 0x6BE60, symSize: 0x10 }
  - { offset: 0x3ABEA3, size: 0x8, addend: 0x0, symName: __ZN22llama_memory_recurrentC2ERK11llama_model9ggml_typeS3_bjjRKNSt3__18functionIFbiEEE, symObjAddr: 0x0, symBinAddr: 0x6BE70, symSize: 0x920 }
  - { offset: 0x3AED2A, size: 0x8, addend: 0x0, symName: __ZNSt3__16vectorIN22llama_memory_recurrent8mem_cellENS_9allocatorIS2_EEE8__appendEm, symObjAddr: 0x4970, symBinAddr: 0x70270, symSize: 0x240 }
  - { offset: 0x3AF512, size: 0x8, addend: 0x0, symName: __ZNSt3__16vectorIP11ggml_tensorNS_9allocatorIS2_EEE8__appendEm, symObjAddr: 0x4CE0, symBinAddr: 0x70560, symSize: 0x150 }
  - { offset: 0x3AFA75, size: 0x8, addend: 0x0, symName: __ZNSt3__16__treeINS_12__value_typeIP24ggml_backend_buffer_typeNS_10unique_ptrI12ggml_context20ggml_context_deleterEEEENS_19__map_value_compareIS3_S8_ZN22llama_memory_recurrentC1ERK11llama_model9ggml_typeSE_bjjRKNS_8functionIFbiEEEE28ggml_backend_buft_comparatorLb1EEENS_9allocatorIS8_EEE7destroyEPNS_11__tree_nodeIS8_PvEE, symObjAddr: 0x4C80, symBinAddr: 0x70500, symSize: 0x60 }
  - { offset: 0x3AFE3F, size: 0x8, addend: 0x0, symName: __ZNSt3__16vectorIN22llama_memory_recurrent8mem_cellENS_9allocatorIS2_EEED1B8ne200100Ev, symObjAddr: 0xA60, symBinAddr: 0x6C830, symSize: 0x70 }
  - { offset: 0x3B007D, size: 0x8, addend: 0x0, symName: __ZNK22llama_memory_recurrent12size_r_bytesEv, symObjAddr: 0x920, symBinAddr: 0x6C790, symSize: 0x50 }
  - { offset: 0x3B0174, size: 0x8, addend: 0x0, symName: __ZNK22llama_memory_recurrent12size_s_bytesEv, symObjAddr: 0x970, symBinAddr: 0x6C7E0, symSize: 0x50 }
  - { offset: 0x3B0730, size: 0x8, addend: 0x0, symName: __ZN22llama_memory_recurrentC1ERK11llama_model9ggml_typeS3_bjjRKNSt3__18functionIFbiEEE, symObjAddr: 0xAD0, symBinAddr: 0x6C8A0, symSize: 0x10 }
  - { offset: 0x3B08B7, size: 0x8, addend: 0x0, symName: __ZN22llama_memory_recurrent5clearEb, symObjAddr: 0xAE0, symBinAddr: 0x6C8B0, symSize: 0xE0 }
  - { offset: 0x3B0DDB, size: 0x8, addend: 0x0, symName: __ZN22llama_memory_recurrent6seq_rmEiii, symObjAddr: 0xBC0, symBinAddr: 0x6C990, symSize: 0x300 }
  - { offset: 0x3B1639, size: 0x8, addend: 0x0, symName: __ZN22llama_memory_recurrent6seq_cpEiiii, symObjAddr: 0xEC0, symBinAddr: 0x6CC90, symSize: 0x1E0 }
  - { offset: 0x3B1C6E, size: 0x8, addend: 0x0, symName: __ZN22llama_memory_recurrent8seq_keepEi, symObjAddr: 0x10A0, symBinAddr: 0x6CE70, symSize: 0x1D0 }
  - { offset: 0x3B2134, size: 0x8, addend: 0x0, symName: __ZN22llama_memory_recurrent7seq_addEiiii, symObjAddr: 0x1270, symBinAddr: 0x6D040, symSize: 0xB0 }
  - { offset: 0x3B233E, size: 0x8, addend: 0x0, symName: __ZN22llama_memory_recurrent7seq_divEiiii, symObjAddr: 0x1320, symBinAddr: 0x6D0F0, symSize: 0xB0 }
  - { offset: 0x3B25B3, size: 0x8, addend: 0x0, symName: __ZNK22llama_memory_recurrent11seq_pos_minEi, symObjAddr: 0x13D0, symBinAddr: 0x6D1A0, symSize: 0x90 }
  - { offset: 0x3B27B1, size: 0x8, addend: 0x0, symName: __ZNK22llama_memory_recurrent11seq_pos_maxEi, symObjAddr: 0x1460, symBinAddr: 0x6D230, symSize: 0x90 }
  - { offset: 0x3B2F7D, size: 0x8, addend: 0x0, symName: __ZNK22llama_memory_recurrent16memory_breakdownEv, symObjAddr: 0x14F0, symBinAddr: 0x6D2C0, symSize: 0x150 }
  - { offset: 0x3B3BF0, size: 0x8, addend: 0x0, symName: __ZN22llama_memory_recurrent10init_batchER18llama_batch_allocrjb, symObjAddr: 0x1640, symBinAddr: 0x6D410, symSize: 0x590 }
  - { offset: 0x3B4B84, size: 0x8, addend: 0x0, symName: __ZN22llama_memory_recurrent7prepareERKNSt3__16vectorI12llama_ubatchNS0_9allocatorIS2_EEEE, symObjAddr: 0x1C10, symBinAddr: 0x6D9A0, symSize: 0x140 }
  - { offset: 0x3B5257, size: 0x8, addend: 0x0, symName: __ZNSt3__16vectorIN22llama_memory_recurrent8mem_cellENS_9allocatorIS2_EEE16__init_with_sizeB8ne200100IPS2_S7_EEvT_T0_m, symObjAddr: 0x5450, symBinAddr: 0x706B0, symSize: 0x150 }
  - { offset: 0x3B57E2, size: 0x8, addend: 0x0, symName: __ZN22llama_memory_recurrent9find_slotERK12llama_ubatch, symObjAddr: 0x1E70, symBinAddr: 0x6DB70, symSize: 0xC10 }
  - { offset: 0x3B737A, size: 0x8, addend: 0x0, symName: __ZN22llama_memory_recurrent9init_fullEv, symObjAddr: 0x1DE0, symBinAddr: 0x6DAE0, symSize: 0x50 }
  - { offset: 0x3B7478, size: 0x8, addend: 0x0, symName: __ZN22llama_memory_recurrent11init_updateEP13llama_contextb, symObjAddr: 0x1E30, symBinAddr: 0x6DB30, symSize: 0x40 }
  - { offset: 0x3B793E, size: 0x8, addend: 0x0, symName: __ZNK22llama_memory_recurrent13get_can_shiftEv, symObjAddr: 0x2A80, symBinAddr: 0x6E780, symSize: 0x10 }
  - { offset: 0x3B7964, size: 0x8, addend: 0x0, symName: __ZNK22llama_memory_recurrent10total_sizeEv, symObjAddr: 0x2A90, symBinAddr: 0x6E790, symSize: 0x50 }
  - { offset: 0x3B81DD, size: 0x8, addend: 0x0, symName: __ZNK22llama_memory_recurrent11state_writeER16llama_io_write_iij, symObjAddr: 0x2AE0, symBinAddr: 0x6E7E0, symSize: 0x4C0 }
  - { offset: 0x3B9020, size: 0x8, addend: 0x0, symName: __ZNK22llama_memory_recurrent16state_write_metaER16llama_io_write_iRKNSt3__16vectorINS2_4pairIjjEENS2_9allocatorIS5_EEEEi, symObjAddr: 0x2FA0, symBinAddr: 0x6ECA0, symSize: 0x130 }
  - { offset: 0x3B93A4, size: 0x8, addend: 0x0, symName: __ZNK22llama_memory_recurrent16state_write_dataER16llama_io_write_iRKNSt3__16vectorINS2_4pairIjjEENS2_9allocatorIS5_EEEE, symObjAddr: 0x30D0, symBinAddr: 0x6EDD0, symSize: 0x230 }
  - { offset: 0x3B999C, size: 0x8, addend: 0x0, symName: __ZN22llama_memory_recurrent10state_readER15llama_io_read_iij, symObjAddr: 0x3300, symBinAddr: 0x6F000, symSize: 0xD0 }
  - { offset: 0x3B9A9B, size: 0x8, addend: 0x0, symName: __ZN22llama_memory_recurrent15state_read_metaER15llama_io_read_iji, symObjAddr: 0x33D0, symBinAddr: 0x6F0D0, symSize: 0x640 }
  - { offset: 0x3BA4B6, size: 0x8, addend: 0x0, symName: __ZN22llama_memory_recurrent15state_read_dataER15llama_io_read_ij, symObjAddr: 0x3A10, symBinAddr: 0x6F710, symSize: 0x5B0 }
  - { offset: 0x3BB5FA, size: 0x8, addend: 0x0, symName: __ZN30llama_memory_recurrent_contextC2E19llama_memory_status, symObjAddr: 0x3FC0, symBinAddr: 0x6FCC0, symSize: 0x30 }
  - { offset: 0x3BB65E, size: 0x8, addend: 0x0, symName: __ZN30llama_memory_recurrent_contextC1E19llama_memory_status, symObjAddr: 0x3FF0, symBinAddr: 0x6FCF0, symSize: 0x30 }
  - { offset: 0x3BB6E6, size: 0x8, addend: 0x0, symName: __ZN30llama_memory_recurrent_contextC2EP22llama_memory_recurrent, symObjAddr: 0x4020, symBinAddr: 0x6FD20, symSize: 0x30 }
  - { offset: 0x3BB74A, size: 0x8, addend: 0x0, symName: __ZN30llama_memory_recurrent_contextC1EP22llama_memory_recurrent, symObjAddr: 0x4050, symBinAddr: 0x6FD50, symSize: 0x30 }
  - { offset: 0x3BB7D2, size: 0x8, addend: 0x0, symName: __ZN30llama_memory_recurrent_contextC2EP22llama_memory_recurrentNSt3__16vectorI12llama_ubatchNS2_9allocatorIS4_EEEE, symObjAddr: 0x4080, symBinAddr: 0x6FD80, symSize: 0x50 }
  - { offset: 0x3BB84D, size: 0x8, addend: 0x0, symName: __ZN30llama_memory_recurrent_contextC1EP22llama_memory_recurrentNSt3__16vectorI12llama_ubatchNS2_9allocatorIS4_EEEE, symObjAddr: 0x40D0, symBinAddr: 0x6FDD0, symSize: 0x50 }
  - { offset: 0x3BB8F4, size: 0x8, addend: 0x0, symName: __ZN30llama_memory_recurrent_contextD2Ev, symObjAddr: 0x4120, symBinAddr: 0x6FE20, symSize: 0x90 }
  - { offset: 0x3BBB67, size: 0x8, addend: 0x0, symName: __ZN30llama_memory_recurrent_contextD1Ev, symObjAddr: 0x41B0, symBinAddr: 0x6FEB0, symSize: 0x90 }
  - { offset: 0x3BBDF9, size: 0x8, addend: 0x0, symName: __ZN30llama_memory_recurrent_contextD0Ev, symObjAddr: 0x4240, symBinAddr: 0x6FF40, symSize: 0x90 }
  - { offset: 0x3BC095, size: 0x8, addend: 0x0, symName: __ZN30llama_memory_recurrent_context4nextEv, symObjAddr: 0x42D0, symBinAddr: 0x6FFD0, symSize: 0x40 }
  - { offset: 0x3BC10C, size: 0x8, addend: 0x0, symName: __ZN30llama_memory_recurrent_context5applyEv, symObjAddr: 0x4310, symBinAddr: 0x70010, symSize: 0x30 }
  - { offset: 0x3BC138, size: 0x8, addend: 0x0, symName: __ZN30llama_memory_recurrent_context5applyEv, symObjAddr: 0x4310, symBinAddr: 0x70010, symSize: 0x30 }
  - { offset: 0x3BC182, size: 0x8, addend: 0x0, symName: __ZNK30llama_memory_recurrent_context10get_statusEv, symObjAddr: 0x4340, symBinAddr: 0x70040, symSize: 0x10 }
  - { offset: 0x3BC1CC, size: 0x8, addend: 0x0, symName: __ZNK30llama_memory_recurrent_context10get_ubatchEv, symObjAddr: 0x4350, symBinAddr: 0x70050, symSize: 0x10 }
  - { offset: 0x3BC213, size: 0x8, addend: 0x0, symName: __ZNK30llama_memory_recurrent_context8get_n_rsEv, symObjAddr: 0x4360, symBinAddr: 0x70060, symSize: 0x20 }
  - { offset: 0x3BC23B, size: 0x8, addend: 0x0, symName: __ZNK30llama_memory_recurrent_context8get_headEv, symObjAddr: 0x4380, symBinAddr: 0x70080, symSize: 0x20 }
  - { offset: 0x3BC263, size: 0x8, addend: 0x0, symName: __ZNK30llama_memory_recurrent_context8get_rs_zEv, symObjAddr: 0x43A0, symBinAddr: 0x700A0, symSize: 0x20 }
  - { offset: 0x3BC28B, size: 0x8, addend: 0x0, symName: __ZNK30llama_memory_recurrent_context8get_sizeEv, symObjAddr: 0x43C0, symBinAddr: 0x700C0, symSize: 0x10 }
  - { offset: 0x3BC2B3, size: 0x8, addend: 0x0, symName: __ZNK30llama_memory_recurrent_context7get_r_lEi, symObjAddr: 0x43D0, symBinAddr: 0x700D0, symSize: 0x20 }
  - { offset: 0x3BC310, size: 0x8, addend: 0x0, symName: __ZNK30llama_memory_recurrent_context7get_s_lEi, symObjAddr: 0x43F0, symBinAddr: 0x700F0, symSize: 0x20 }
  - { offset: 0x3BC36E, size: 0x8, addend: 0x0, symName: __ZNK30llama_memory_recurrent_context6s_copyEi, symObjAddr: 0x4410, symBinAddr: 0x70110, symSize: 0x20 }
  - { offset: 0x3BC3CC, size: 0x8, addend: 0x0, symName: __ZN22llama_memory_recurrentD1Ev, symObjAddr: 0x4430, symBinAddr: 0x70130, symSize: 0x10 }
  - { offset: 0x3BC402, size: 0x8, addend: 0x0, symName: __ZN22llama_memory_recurrentD2Ev, symObjAddr: 0x4860, symBinAddr: 0x70160, symSize: 0x110 }
  - { offset: 0x3BCB6E, size: 0x8, addend: 0x0, symName: __ZN22llama_memory_recurrentD0Ev, symObjAddr: 0x4440, symBinAddr: 0x70140, symSize: 0x20 }
  - { offset: 0x3BDAC9, size: 0x8, addend: 0x0, symName: __ZNSt3__16vectorIN22llama_memory_recurrent8mem_cellENS_9allocatorIS2_EEE20__throw_length_errorB8ne200100Ev, symObjAddr: 0x4BB0, symBinAddr: 0x704B0, symSize: 0x10 }
  - { offset: 0x3BDBE3, size: 0x8, addend: 0x0, symName: __ZNSt3__128__exception_guard_exceptionsINS_29_AllocatorDestroyRangeReverseINS_9allocatorIN22llama_memory_recurrent8mem_cellEEEPS4_EEED1B8ne200100Ev, symObjAddr: 0x4C40, symBinAddr: 0x704C0, symSize: 0x40 }
  - { offset: 0x3BDC10, size: 0x8, addend: 0x0, symName: __ZNSt3__128__exception_guard_exceptionsINS_29_AllocatorDestroyRangeReverseINS_9allocatorIN22llama_memory_recurrent8mem_cellEEEPS4_EEED1B8ne200100Ev, symObjAddr: 0x4C40, symBinAddr: 0x704C0, symSize: 0x40 }
  - { offset: 0x3BE339, size: 0x8, addend: 0x0, symName: __ZNSt3__16vectorIN22llama_memory_recurrent8mem_cellENS_9allocatorIS2_EEE16__init_with_sizeB8ne200100IPS2_S7_EEvT_T0_m, symObjAddr: 0x5450, symBinAddr: 0x706B0, symSize: 0x150 }
  - { offset: 0x3BE5CF, size: 0x8, addend: 0x0, symName: __ZNSt3__13setIiNS_4lessIiEENS_9allocatorIiEEE6insertB8ne200100INS_21__tree_const_iteratorIiPNS_11__tree_nodeIiPvEElEEEEvT_SD_, symObjAddr: 0x5610, symBinAddr: 0x70870, symSize: 0x170 }
  - { offset: 0x3BE615, size: 0x8, addend: 0x0, symName: __ZNSt3__13setIiNS_4lessIiEENS_9allocatorIiEEE6insertB8ne200100INS_21__tree_const_iteratorIiPNS_11__tree_nodeIiPvEElEEEEvT_SD_, symObjAddr: 0x5610, symBinAddr: 0x70870, symSize: 0x170 }
  - { offset: 0x3BEA3B, size: 0x8, addend: 0x0, symName: __ZNSt3__128__exception_guard_exceptionsINS_6vectorIN22llama_memory_recurrent8mem_cellENS_9allocatorIS3_EEE16__destroy_vectorEED1B8ne200100Ev, symObjAddr: 0x55A0, symBinAddr: 0x70800, symSize: 0x70 }
  - { offset: 0x3C0CDD, size: 0x8, addend: 0x0, symName: __Z27llama_memory_status_combine19llama_memory_statusS_, symObjAddr: 0x0, symBinAddr: 0x709E0, symSize: 0x40 }
  - { offset: 0x3C0CF2, size: 0x8, addend: 0x0, symName: __Z27llama_memory_status_combine19llama_memory_statusS_, symObjAddr: 0x0, symBinAddr: 0x709E0, symSize: 0x40 }
  - { offset: 0x3C0D3E, size: 0x8, addend: 0x0, symName: __Z27llama_memory_status_is_fail19llama_memory_status, symObjAddr: 0x40, symBinAddr: 0x70A20, symSize: 0xF }
  - { offset: 0x3C3853, size: 0x8, addend: 0x0, symName: __ZN10llama_mmap9SUPPORTEDE, symObjAddr: 0x1BF4, symBinAddr: 0x2BFE48, symSize: 0x0 }
  - { offset: 0x3C8F69, size: 0x8, addend: 0x0, symName: __ZN11llama_mlock9SUPPORTEDE, symObjAddr: 0x1BF5, symBinAddr: 0x2BFE49, symSize: 0x0 }
  - { offset: 0x3C91B1, size: 0x8, addend: 0x0, symName: __ZN10llama_fileC2EPKcS1_b, symObjAddr: 0x0, symBinAddr: 0x70A30, symSize: 0x60 }
  - { offset: 0x3C92A1, size: 0x8, addend: 0x0, symName: __ZN10llama_file4implC2EPKcS2_b, symObjAddr: 0x1590, symBinAddr: 0x71EF0, symSize: 0xF0 }
  - { offset: 0x3C9725, size: 0x8, addend: 0x0, symName: __ZN10llama_fileC1EPKcS1_b, symObjAddr: 0x60, symBinAddr: 0x70A90, symSize: 0x60 }
  - { offset: 0x3C99FA, size: 0x8, addend: 0x0, symName: __ZN10llama_fileD2Ev, symObjAddr: 0xC0, symBinAddr: 0x70AF0, symSize: 0x60 }
  - { offset: 0x3C9C07, size: 0x8, addend: 0x0, symName: __ZN10llama_fileD1Ev, symObjAddr: 0x120, symBinAddr: 0x70B50, symSize: 0x60 }
  - { offset: 0x3C9E0E, size: 0x8, addend: 0x0, symName: __ZNK10llama_file4tellEv, symObjAddr: 0x180, symBinAddr: 0x70BB0, symSize: 0x10 }
  - { offset: 0x3C9E63, size: 0x8, addend: 0x0, symName: __ZNK10llama_file4impl4tellEv, symObjAddr: 0x190, symBinAddr: 0x70BC0, symSize: 0x130 }
  - { offset: 0x3CA048, size: 0x8, addend: 0x0, symName: __ZNK10llama_file4sizeEv, symObjAddr: 0x2C0, symBinAddr: 0x70CF0, symSize: 0x10 }
  - { offset: 0x3CA0A1, size: 0x8, addend: 0x0, symName: __ZNK10llama_file14read_alignmentEv, symObjAddr: 0x2D0, symBinAddr: 0x70D00, symSize: 0x10 }
  - { offset: 0x3CA119, size: 0x8, addend: 0x0, symName: __ZNK10llama_file13has_direct_ioEv, symObjAddr: 0x2E0, symBinAddr: 0x70D10, symSize: 0x20 }
  - { offset: 0x3CA17B, size: 0x8, addend: 0x0, symName: __ZNK10llama_file7file_idEv, symObjAddr: 0x300, symBinAddr: 0x70D30, symSize: 0x20 }
  - { offset: 0x3CA1DB, size: 0x8, addend: 0x0, symName: __ZNK10llama_file4seekEmi, symObjAddr: 0x320, symBinAddr: 0x70D50, symSize: 0x10 }
  - { offset: 0x3CA25D, size: 0x8, addend: 0x0, symName: __ZNK10llama_file4impl4seekEmi, symObjAddr: 0x330, symBinAddr: 0x70D60, symSize: 0xD0 }
  - { offset: 0x3CA43E, size: 0x8, addend: 0x0, symName: __ZN10llama_file8read_rawEPvm, symObjAddr: 0x400, symBinAddr: 0x70E30, symSize: 0x20 }
  - { offset: 0x3CA4F9, size: 0x8, addend: 0x0, symName: __ZN10llama_file4impl18read_aligned_chunkEPvm, symObjAddr: 0x1250, symBinAddr: 0x71C80, symSize: 0x150 }
  - { offset: 0x3CA876, size: 0x8, addend: 0x0, symName: __ZN10llama_file4impl15read_raw_unsafeEPvm, symObjAddr: 0x430, symBinAddr: 0x70E60, symSize: 0x320 }
  - { offset: 0x3CAB98, size: 0x8, addend: 0x0, symName: __ZN10llama_file15read_raw_unsafeEPvm, symObjAddr: 0x420, symBinAddr: 0x70E50, symSize: 0x10 }
  - { offset: 0x3CAC31, size: 0x8, addend: 0x0, symName: __ZN10llama_file4impl7init_fpEPKc, symObjAddr: 0x13B0, symBinAddr: 0x71DD0, symSize: 0x110 }
  - { offset: 0x3CAFE9, size: 0x8, addend: 0x0, symName: __ZN10llama_file8read_u32Ev, symObjAddr: 0x750, symBinAddr: 0x71180, symSize: 0x50 }
  - { offset: 0x3CB0C6, size: 0x8, addend: 0x0, symName: __ZNK10llama_file9write_rawEPKvm, symObjAddr: 0x7A0, symBinAddr: 0x711D0, symSize: 0x10 }
  - { offset: 0x3CB148, size: 0x8, addend: 0x0, symName: __ZNK10llama_file4impl9write_rawEPKvm, symObjAddr: 0x7B0, symBinAddr: 0x711E0, symSize: 0xE0 }
  - { offset: 0x3CB339, size: 0x8, addend: 0x0, symName: __ZNK10llama_file9write_u32Ej, symObjAddr: 0x890, symBinAddr: 0x712C0, symSize: 0x30 }
  - { offset: 0x3CB486, size: 0x8, addend: 0x0, symName: __ZN10llama_mmapC2EP10llama_filemb, symObjAddr: 0x8C0, symBinAddr: 0x712F0, symSize: 0x60 }
  - { offset: 0x3CB576, size: 0x8, addend: 0x0, symName: __ZN10llama_mmap4implC2EP10llama_filemb, symObjAddr: 0x1690, symBinAddr: 0x71FE0, symSize: 0x2F0 }
  - { offset: 0x3CBEE2, size: 0x8, addend: 0x0, symName: __ZN10llama_mmapC1EP10llama_filemb, symObjAddr: 0x920, symBinAddr: 0x71350, symSize: 0x60 }
  - { offset: 0x3CC0C8, size: 0x8, addend: 0x0, symName: __ZN10llama_mmapD2Ev, symObjAddr: 0x980, symBinAddr: 0x713B0, symSize: 0x40 }
  - { offset: 0x3CC1A6, size: 0x8, addend: 0x0, symName: __ZN10llama_mmap4implD2Ev, symObjAddr: 0x1980, symBinAddr: 0x722D0, symSize: 0xA0 }
  - { offset: 0x3CC3F5, size: 0x8, addend: 0x0, symName: __ZN10llama_mmapD1Ev, symObjAddr: 0x9C0, symBinAddr: 0x713F0, symSize: 0x40 }
  - { offset: 0x3CC51A, size: 0x8, addend: 0x0, symName: __ZNK10llama_mmap4sizeEv, symObjAddr: 0xA00, symBinAddr: 0x71430, symSize: 0x10 }
  - { offset: 0x3CC55F, size: 0x8, addend: 0x0, symName: __ZNK10llama_mmap4addrEv, symObjAddr: 0xA10, symBinAddr: 0x71440, symSize: 0x10 }
  - { offset: 0x3CC5A4, size: 0x8, addend: 0x0, symName: __ZN10llama_mmap14unmap_fragmentEmm, symObjAddr: 0xA20, symBinAddr: 0x71450, symSize: 0x10 }
  - { offset: 0x3CC626, size: 0x8, addend: 0x0, symName: __ZN10llama_mmap4impl14unmap_fragmentEmm, symObjAddr: 0xA30, symBinAddr: 0x71460, symSize: 0x650 }
  - { offset: 0x3CE2AF, size: 0x8, addend: 0x0, symName: __ZNSt3__16vectorINS_4pairImmEENS_9allocatorIS2_EEE20__throw_length_errorB8ne200100Ev, symObjAddr: 0x14C0, symBinAddr: 0x71EE0, symSize: 0x10 }
  - { offset: 0x3CE36C, size: 0x8, addend: 0x0, symName: __ZN11llama_mlockC2Ev, symObjAddr: 0x1080, symBinAddr: 0x71AB0, symSize: 0x30 }
  - { offset: 0x3CE448, size: 0x8, addend: 0x0, symName: __ZN11llama_mlockC1Ev, symObjAddr: 0x10B0, symBinAddr: 0x71AE0, symSize: 0x30 }
  - { offset: 0x3CE5B3, size: 0x8, addend: 0x0, symName: __ZN11llama_mlockD2Ev, symObjAddr: 0x10E0, symBinAddr: 0x71B10, symSize: 0x20 }
  - { offset: 0x3CE676, size: 0x8, addend: 0x0, symName: __ZN11llama_mlockD1Ev, symObjAddr: 0x1100, symBinAddr: 0x71B30, symSize: 0x20 }
  - { offset: 0x3CE783, size: 0x8, addend: 0x0, symName: __ZN11llama_mlock4initEPv, symObjAddr: 0x1120, symBinAddr: 0x71B50, symSize: 0x40 }
  - { offset: 0x3CE7BF, size: 0x8, addend: 0x0, symName: __ZN11llama_mlock4initEPv, symObjAddr: 0x1120, symBinAddr: 0x71B50, symSize: 0x40 }
  - { offset: 0x3CE806, size: 0x8, addend: 0x0, symName: __ZN11llama_mlock7grow_toEm, symObjAddr: 0x1160, symBinAddr: 0x71B90, symSize: 0x10 }
  - { offset: 0x3CE872, size: 0x8, addend: 0x0, symName: __ZN11llama_mlock4impl7grow_toEm, symObjAddr: 0x1170, symBinAddr: 0x71BA0, symSize: 0xD0 }
  - { offset: 0x3CE9FC, size: 0x8, addend: 0x0, symName: __Z14llama_path_maxv, symObjAddr: 0x1240, symBinAddr: 0x71C70, symSize: 0x10 }
  - { offset: 0x3CEE25, size: 0x8, addend: 0x0, symName: __ZN10llama_mmap4implC2EP10llama_filemb, symObjAddr: 0x1690, symBinAddr: 0x71FE0, symSize: 0x2F0 }
  - { offset: 0x3F12E0, size: 0x8, addend: 0x0, symName: __ZNSt3__120__throw_future_errorB8ne200100ENS_11future_errcE, symObjAddr: 0xC230, symBinAddr: 0x7DA40, symSize: 0x60 }
  - { offset: 0x3F2475, size: 0x8, addend: 0x0, symName: '__ZNSt3__114__thread_proxyB8ne200100INS_5tupleIJNS_10unique_ptrINS_15__thread_structENS_14default_deleteIS3_EEEEMNS_19__async_assoc_stateINS_4pairIP11ggml_tensorbEENS_12__async_funcIZN18llama_model_loader13load_all_dataEP12ggml_contextRNS_13unordered_mapIjP19ggml_backend_bufferNS_4hashIjEENS_8equal_toIjEENS_9allocatorINS8_IKjSI_EEEEEEPNS_6vectorINS2_I11llama_mlockNS4_ISU_EEEENSN_ISW_EEEEPFbfPvES10_E3$_0JEEEEEFvvEPS15_EEEEES10_S10_', symObjAddr: 0xC290, symBinAddr: 0x7DAA0, symSize: 0x90 }
  - { offset: 0x3F283F, size: 0x8, addend: 0x0, symName: '__ZNSt3__114__thread_proxyB8ne200100INS_5tupleIJNS_10unique_ptrINS_15__thread_structENS_14default_deleteIS3_EEEEMNS_19__async_assoc_stateINS_4pairIP11ggml_tensorbEENS_12__async_funcIZN18llama_model_loader13load_all_dataEP12ggml_contextRNS_13unordered_mapIjP19ggml_backend_bufferNS_4hashIjEENS_8equal_toIjEENS_9allocatorINS8_IKjSI_EEEEEEPNS_6vectorINS2_I11llama_mlockNS4_ISU_EEEENSN_ISW_EEEEPFbfPvES10_E3$_1JEEEEEFvvEPS15_EEEEES10_S10_', symObjAddr: 0xC5A0, symBinAddr: 0x7DDB0, symSize: 0x90 }
  - { offset: 0x3F73EA, size: 0x8, addend: 0x0, symName: __ZN18llama_model_loader13load_all_dataEP12ggml_contextRNSt3__113unordered_mapIjP19ggml_backend_bufferNS2_4hashIjEENS2_8equal_toIjEENS2_9allocatorINS2_4pairIKjS5_EEEEEEPNS2_6vectorINS2_10unique_ptrI11llama_mlockNS2_14default_deleteISJ_EEEENSA_ISM_EEEEPFbfPvESQ_, symObjAddr: 0x6570, symBinAddr: 0x787B0, symSize: 0x1F60 }
  - { offset: 0x3FBE59, size: 0x8, addend: 0x0, symName: __Z23llama_file_version_name10llama_fver, symObjAddr: 0x0, symBinAddr: 0x72370, symSize: 0x30 }
  - { offset: 0x3FBF46, size: 0x8, addend: 0x0, symName: __ZN18llama_model_loader9get_arr_nIjEENSt3__19enable_ifIXsr3std11is_integralIT_EE5valueEbE4typeE6llm_kvRS3_b, symObjAddr: 0x30, symBinAddr: 0x723A0, symSize: 0x80 }
  - { offset: 0x3FC1E2, size: 0x8, addend: 0x0, symName: __ZN18llama_model_loader9get_arr_nIjEENSt3__19enable_ifIXsr3std11is_integralIT_EE5valueEbE4typeERKNS1_12basic_stringIcNS1_11char_traitsIcEENS1_9allocatorIcEEEERS3_b, symObjAddr: 0xB0, symBinAddr: 0x72420, symSize: 0x120 }
  - { offset: 0x3FC549, size: 0x8, addend: 0x0, symName: __ZN8GGUFMeta3GKVINS_9ArrayInfoEE6get_kvEPK12gguf_contexti, symObjAddr: 0x8DF0, symBinAddr: 0x7AED0, symSize: 0x130 }
  - { offset: 0x3FC787, size: 0x8, addend: 0x0, symName: __ZN18llama_model_loader7get_arrINSt3__16vectorINS1_12basic_stringIcNS1_11char_traitsIcEENS1_9allocatorIcEEEENS6_IS8_EEEEEEb6llm_kvRT_b, symObjAddr: 0x1D0, symBinAddr: 0x72540, symSize: 0x80 }
  - { offset: 0x3FCA23, size: 0x8, addend: 0x0, symName: __ZN18llama_model_loader7get_arrINSt3__112basic_stringIcNS1_11char_traitsIcEENS1_9allocatorIcEEEEEEbRKS7_RNS1_6vectorIT_NS5_ISB_EEEEb, symObjAddr: 0x250, symBinAddr: 0x725C0, symSize: 0x400 }
  - { offset: 0x3FE0C3, size: 0x8, addend: 0x0, symName: __ZN18llama_model_loader7get_keyIbEEb6llm_kvRT_b, symObjAddr: 0x650, symBinAddr: 0x729C0, symSize: 0x80 }
  - { offset: 0x3FE35F, size: 0x8, addend: 0x0, symName: __ZN18llama_model_loader7get_keyIbEEbRKNSt3__112basic_stringIcNS1_11char_traitsIcEENS1_9allocatorIcEEEERT_b, symObjAddr: 0x6D0, symBinAddr: 0x72A40, symSize: 0x140 }
  - { offset: 0x3FE873, size: 0x8, addend: 0x0, symName: __ZNSt3__112__hash_tableINS_17__hash_value_typeINS_12basic_stringIcNS_11char_traitsIcEENS_9allocatorIcEEEE23llama_model_kv_overrideEENS_22__unordered_map_hasherIS7_S9_NS_4hashIS7_EENS_8equal_toIS7_EELb1EEENS_21__unordered_map_equalIS7_S9_SE_SC_Lb1EEENS5_IS9_EEE4findIS7_EENS_15__hash_iteratorIPNS_11__hash_nodeIS9_PvEEEERKT_, symObjAddr: 0x9120, symBinAddr: 0x7B000, symSize: 0x290 }
  - { offset: 0x3FEB71, size: 0x8, addend: 0x0, symName: __ZN8GGUFMeta3GKVIbE17validate_overrideE28llama_model_kv_override_typePK23llama_model_kv_override, symObjAddr: 0x9950, symBinAddr: 0x7B380, symSize: 0x200 }
  - { offset: 0x3FED62, size: 0x8, addend: 0x0, symName: __ZN8GGUFMeta3GKVIbE6get_kvEPK12gguf_contexti, symObjAddr: 0x9860, symBinAddr: 0x7B290, symSize: 0xF0 }
  - { offset: 0x3FEF35, size: 0x8, addend: 0x0, symName: __ZN18llama_model_loader7get_keyIfEEb6llm_kvRT_b, symObjAddr: 0x810, symBinAddr: 0x72B80, symSize: 0x80 }
  - { offset: 0x3FF1D1, size: 0x8, addend: 0x0, symName: __ZN18llama_model_loader7get_keyIfEEbRKNSt3__112basic_stringIcNS1_11char_traitsIcEENS1_9allocatorIcEEEERT_b, symObjAddr: 0x890, symBinAddr: 0x72C00, symSize: 0x140 }
  - { offset: 0x3FF6B1, size: 0x8, addend: 0x0, symName: __ZN8GGUFMeta3GKVIfE17validate_overrideE28llama_model_kv_override_typePK23llama_model_kv_override, symObjAddr: 0x9C40, symBinAddr: 0x7B670, symSize: 0x200 }
  - { offset: 0x3FF8A2, size: 0x8, addend: 0x0, symName: __ZN8GGUFMeta3GKVIfE6get_kvEPK12gguf_contexti, symObjAddr: 0x9B50, symBinAddr: 0x7B580, symSize: 0xF0 }
  - { offset: 0x3FFA75, size: 0x8, addend: 0x0, symName: __ZN18llama_model_loader7get_keyIjEEb6llm_kvRT_b, symObjAddr: 0x9D0, symBinAddr: 0x72D40, symSize: 0x80 }
  - { offset: 0x3FFCEE, size: 0x8, addend: 0x0, symName: __ZN18llama_model_loader7get_keyIjEEbRKNSt3__112basic_stringIcNS1_11char_traitsIcEENS1_9allocatorIcEEEERT_b, symObjAddr: 0xA50, symBinAddr: 0x72DC0, symSize: 0x130 }
  - { offset: 0x4001CE, size: 0x8, addend: 0x0, symName: __ZN8GGUFMeta3GKVIjE17validate_overrideE28llama_model_kv_override_typePK23llama_model_kv_override, symObjAddr: 0x9F30, symBinAddr: 0x7B960, symSize: 0x200 }
  - { offset: 0x4003BF, size: 0x8, addend: 0x0, symName: __ZN8GGUFMeta3GKVIjE6get_kvEPK12gguf_contexti, symObjAddr: 0x9E40, symBinAddr: 0x7B870, symSize: 0xF0 }
  - { offset: 0x400592, size: 0x8, addend: 0x0, symName: __ZN18llama_model_loader7get_keyINSt3__112basic_stringIcNS1_11char_traitsIcEENS1_9allocatorIcEEEEEEb6llm_kvRT_b, symObjAddr: 0xB80, symBinAddr: 0x72EF0, symSize: 0x80 }
  - { offset: 0x40082E, size: 0x8, addend: 0x0, symName: __ZN18llama_model_loader7get_keyINSt3__112basic_stringIcNS1_11char_traitsIcEENS1_9allocatorIcEEEEEEbRKS7_RT_b, symObjAddr: 0xC00, symBinAddr: 0x72F70, symSize: 0x160 }
  - { offset: 0x400ED7, size: 0x8, addend: 0x0, symName: __ZN8GGUFMeta3GKVINSt3__112basic_stringIcNS1_11char_traitsIcEENS1_9allocatorIcEEEEE17validate_overrideE28llama_model_kv_override_typePK23llama_model_kv_override, symObjAddr: 0xA2B0, symBinAddr: 0x7BCE0, symSize: 0x200 }
  - { offset: 0x4010C8, size: 0x8, addend: 0x0, symName: __ZN8GGUFMeta3GKVINSt3__112basic_stringIcNS1_11char_traitsIcEENS1_9allocatorIcEEEEE6get_kvEPK12gguf_contexti, symObjAddr: 0xA130, symBinAddr: 0x7BB60, symSize: 0x180 }
  - { offset: 0x4015C4, size: 0x8, addend: 0x0, symName: __ZN18llama_model_loader7get_keyI18llama_pooling_typeEEb6llm_kvRT_b, symObjAddr: 0xD60, symBinAddr: 0x730D0, symSize: 0x90 }
  - { offset: 0x4018B2, size: 0x8, addend: 0x0, symName: __ZN18llama_model_loader14get_key_or_arrE6llm_kvRjb, symObjAddr: 0xDF0, symBinAddr: 0x73160, symSize: 0x1D0 }
  - { offset: 0x401DD3, size: 0x8, addend: 0x0, symName: __ZN18llama_model_loader14get_key_or_arrINSt3__15arrayIiLm4EEEEEb6llm_kvRT_jb, symObjAddr: 0xFC0, symBinAddr: 0x73330, symSize: 0x90 }
  - { offset: 0x402085, size: 0x8, addend: 0x0, symName: __ZN18llama_model_loader14get_key_or_arrIiLm4EEEbRKNSt3__112basic_stringIcNS1_11char_traitsIcEENS1_9allocatorIcEEEERNS1_5arrayIT_XT0_EEEjb, symObjAddr: 0x1050, symBinAddr: 0x733C0, symSize: 0x330 }
  - { offset: 0x4027A5, size: 0x8, addend: 0x0, symName: __ZN18llama_model_loader7get_arrIiLm4EEEbRKNSt3__112basic_stringIcNS1_11char_traitsIcEENS1_9allocatorIcEEEERNS1_5arrayIT_XT0_EEEb, symObjAddr: 0xA4B0, symBinAddr: 0x7BEE0, symSize: 0x2C0 }
  - { offset: 0x402D39, size: 0x8, addend: 0x0, symName: __ZN18llama_model_loader7get_keyIiEEbRKNSt3__112basic_stringIcNS1_11char_traitsIcEENS1_9allocatorIcEEEERT_b, symObjAddr: 0x4E20, symBinAddr: 0x77060, symSize: 0x130 }
  - { offset: 0x40314C, size: 0x8, addend: 0x0, symName: __ZN18llama_model_loader14get_key_or_arrINSt3__15arrayIjLm512EEEEEb6llm_kvRT_jb, symObjAddr: 0x1380, symBinAddr: 0x736F0, symSize: 0x90 }
  - { offset: 0x4033FE, size: 0x8, addend: 0x0, symName: __ZN18llama_model_loader14get_key_or_arrIjLm512EEEbRKNSt3__112basic_stringIcNS1_11char_traitsIcEENS1_9allocatorIcEEEERNS1_5arrayIT_XT0_EEEjb, symObjAddr: 0x1410, symBinAddr: 0x73780, symSize: 0x300 }
  - { offset: 0x403B1E, size: 0x8, addend: 0x0, symName: __ZN18llama_model_loader7get_arrIjLm512EEEbRKNSt3__112basic_stringIcNS1_11char_traitsIcEENS1_9allocatorIcEEEERNS1_5arrayIT_XT0_EEEb, symObjAddr: 0xA770, symBinAddr: 0x7C1A0, symSize: 0x330 }
  - { offset: 0x4040AF, size: 0x8, addend: 0x0, symName: __ZN18llama_model_loader14get_key_or_arrINSt3__15arrayIfLm512EEEEEb6llm_kvRT_jb, symObjAddr: 0x1710, symBinAddr: 0x73A80, symSize: 0x90 }
  - { offset: 0x404361, size: 0x8, addend: 0x0, symName: __ZN18llama_model_loader14get_key_or_arrIfLm512EEEbRKNSt3__112basic_stringIcNS1_11char_traitsIcEENS1_9allocatorIcEEEERNS1_5arrayIT_XT0_EEEjb, symObjAddr: 0x17A0, symBinAddr: 0x73B10, symSize: 0x300 }
  - { offset: 0x404A81, size: 0x8, addend: 0x0, symName: __ZN18llama_model_loader7get_arrIfLm512EEEbRKNSt3__112basic_stringIcNS1_11char_traitsIcEENS1_9allocatorIcEEEERNS1_5arrayIT_XT0_EEEb, symObjAddr: 0xAAA0, symBinAddr: 0x7C4D0, symSize: 0x280 }
  - { offset: 0x407594, size: 0x8, addend: 0x0, symName: __ZN18llama_model_loaderC2ERKNSt3__112basic_stringIcNS0_11char_traitsIcEENS0_9allocatorIcEEEERNS0_6vectorIS6_NS4_IS6_EEEEbbbbPK23llama_model_kv_overridePK32llama_model_tensor_buft_override, symObjAddr: 0x1AA0, symBinAddr: 0x73E10, symSize: 0x3120 }
  - { offset: 0x4109A0, size: 0x8, addend: 0x0, symName: __ZNSt3__112__hash_tableINS_17__hash_value_typeINS_12basic_stringIcNS_11char_traitsIcEENS_9allocatorIcEEEE23llama_model_kv_overrideEENS_22__unordered_map_hasherIS7_S9_NS_4hashIS7_EENS_8equal_toIS7_EELb1EEENS_21__unordered_map_equalIS7_S9_SE_SC_Lb1EEENS5_IS9_EEE25__emplace_unique_key_argsIS7_JNS_4pairIKS7_S8_EEEEENSL_INS_15__hash_iteratorIPNS_11__hash_nodeIS9_PvEEEEbEERKT_DpOT0_, symObjAddr: 0xAD70, symBinAddr: 0x7C7A0, symSize: 0x5B0 }
  - { offset: 0x4113A9, size: 0x8, addend: 0x0, symName: __ZNK18llama_model_loader20weight_name_comparerclERKNSt3__112basic_stringIcNS1_11char_traitsIcEENS1_9allocatorIcEEEES9_, symObjAddr: 0xB540, symBinAddr: 0x7CF60, symSize: 0xF0 }
  - { offset: 0x411676, size: 0x8, addend: 0x0, symName: __ZN18llama_model_loader19llama_tensor_weightC2EPK10llama_filetPK12gguf_contextP11ggml_tensor, symObjAddr: 0x89C0, symBinAddr: 0x7ABF0, symSize: 0x190 }
  - { offset: 0x41185D, size: 0x8, addend: 0x0, symName: __ZNSt3__16__treeINS_12__value_typeINS_12basic_stringIcNS_11char_traitsIcEENS_9allocatorIcEEEEN18llama_model_loader19llama_tensor_weightEEENS_19__map_value_compareIS7_SA_NS8_20weight_name_comparerELb1EEENS5_ISA_EEE25__emplace_unique_key_argsIS7_JRS7_S9_EEENS_4pairINS_15__tree_iteratorISA_PNS_11__tree_nodeISA_PvEElEEbEERKT_DpOT0_, symObjAddr: 0xB630, symBinAddr: 0x7D050, symSize: 0x160 }
  - { offset: 0x411CD8, size: 0x8, addend: 0x0, symName: __ZN8GGUFMeta3GKVItE17validate_overrideE28llama_model_kv_override_typePK23llama_model_kv_override, symObjAddr: 0xBA50, symBinAddr: 0x7D2F0, symSize: 0x200 }
  - { offset: 0x411EC9, size: 0x8, addend: 0x0, symName: __ZN8GGUFMeta3GKVItE6get_kvEPK12gguf_contexti, symObjAddr: 0xB960, symBinAddr: 0x7D200, symSize: 0xF0 }
  - { offset: 0x4120AA, size: 0x8, addend: 0x0, symName: __ZN18llama_model_loader7get_keyItEEbRKNSt3__112basic_stringIcNS1_11char_traitsIcEENS1_9allocatorIcEEEERT_b, symObjAddr: 0x4C50, symBinAddr: 0x76F30, symSize: 0x130 }
  - { offset: 0x4125CE, size: 0x8, addend: 0x0, symName: __ZNSt3__16__treeINS_12__value_typeI9ggml_typejEENS_19__map_value_compareIS2_S3_NS_4lessIS2_EELb1EEENS_9allocatorIS3_EEE7destroyEPNS_11__tree_nodeIS3_PvEE, symObjAddr: 0xBF40, symBinAddr: 0x7D7E0, symSize: 0x40 }
  - { offset: 0x4126EF, size: 0x8, addend: 0x0, symName: __ZNK18llama_model_loader20weight_name_comparerclERKNSt3__112basic_stringIcNS1_11char_traitsIcEENS1_9allocatorIcEEEES9_, symObjAddr: 0xB540, symBinAddr: 0x7CF60, symSize: 0xF0 }
  - { offset: 0x4126FA, size: 0x8, addend: 0x0, symName: __ZNSt3__16vectorINS_10unique_ptrI10llama_fileNS_14default_deleteIS2_EEEENS_9allocatorIS5_EEE20__throw_length_errorB8ne200100Ev, symObjAddr: 0xB520, symBinAddr: 0x7CF50, symSize: 0x10 }
  - { offset: 0x412727, size: 0x8, addend: 0x0, symName: __ZNSt3__16vectorIP18ggml_backend_eventNS_9allocatorIS2_EEE12emplace_backIJRS2_EEES7_DpOT_, symObjAddr: 0x8CA0, symBinAddr: 0x7AD80, symSize: 0x120 }
  - { offset: 0x4128AF, size: 0x8, addend: 0x0, symName: __ZNSt3__110unique_ptrINS_11__tree_nodeINS_12__value_typeINS_12basic_stringIcNS_11char_traitsIcEENS_9allocatorIcEEEEN18llama_model_loader19llama_tensor_weightEEEPvEENS_22__tree_node_destructorINS6_ISD_EEEEED1B8ne200100Ev, symObjAddr: 0xB790, symBinAddr: 0x7D1B0, symSize: 0x50 }
  - { offset: 0x412BCF, size: 0x8, addend: 0x0, symName: __ZNSt3__16vectorINS_10unique_ptrI12ggml_context20ggml_context_deleterEENS_9allocatorIS4_EEED1B8ne200100Ev, symObjAddr: 0x4F50, symBinAddr: 0x77190, symSize: 0x80 }
  - { offset: 0x412D99, size: 0x8, addend: 0x0, symName: __ZNSt3__113unordered_mapINS_12basic_stringIcNS_11char_traitsIcEENS_9allocatorIcEEEE23llama_model_kv_overrideNS_4hashIS6_EENS_8equal_toIS6_EENS4_INS_4pairIKS6_S7_EEEEED1B8ne200100Ev, symObjAddr: 0x4FD0, symBinAddr: 0x77210, symSize: 0x70 }
  - { offset: 0x41317A, size: 0x8, addend: 0x0, symName: __ZNSt3__16__treeINS_12__value_typeINS_12basic_stringIcNS_11char_traitsIcEENS_9allocatorIcEEEEN18llama_model_loader19llama_tensor_weightEEENS_19__map_value_compareIS7_SA_NS8_20weight_name_comparerELb1EEENS5_ISA_EEE7destroyEPNS_11__tree_nodeISA_PvEE, symObjAddr: 0xAD20, symBinAddr: 0x7C750, symSize: 0x50 }
  - { offset: 0x413411, size: 0x8, addend: 0x0, symName: __ZNSt3__16vectorINS_10unique_ptrI10llama_mmapNS_14default_deleteIS2_EEEENS_9allocatorIS5_EEED1B8ne200100Ev, symObjAddr: 0x5040, symBinAddr: 0x77280, symSize: 0x80 }
  - { offset: 0x413601, size: 0x8, addend: 0x0, symName: __ZNSt3__16vectorINS_10unique_ptrI10llama_fileNS_14default_deleteIS2_EEEENS_9allocatorIS5_EEED1B8ne200100Ev, symObjAddr: 0x50C0, symBinAddr: 0x77300, symSize: 0x80 }
  - { offset: 0x413AC3, size: 0x8, addend: 0x0, symName: __ZN8GGUFMeta3GKVIiE17validate_overrideE28llama_model_kv_override_typePK23llama_model_kv_override, symObjAddr: 0xBD40, symBinAddr: 0x7D5E0, symSize: 0x200 }
  - { offset: 0x413CB4, size: 0x8, addend: 0x0, symName: __ZN8GGUFMeta3GKVIiE6get_kvEPK12gguf_contexti, symObjAddr: 0xBC50, symBinAddr: 0x7D4F0, symSize: 0xF0 }
  - { offset: 0x414449, size: 0x8, addend: 0x0, symName: __ZN18llama_model_loaderC1ERKNSt3__112basic_stringIcNS0_11char_traitsIcEENS0_9allocatorIcEEEERNS0_6vectorIS6_NS4_IS6_EEEEbbbbPK23llama_model_kv_overridePK32llama_model_tensor_buft_override, symObjAddr: 0x5140, symBinAddr: 0x77380, symSize: 0x10 }
  - { offset: 0x414549, size: 0x8, addend: 0x0, symName: __ZNK18llama_model_loader13get_arch_nameEv, symObjAddr: 0x5150, symBinAddr: 0x77390, symSize: 0x50 }
  - { offset: 0x4145E7, size: 0x8, addend: 0x0, symName: __ZNK18llama_model_loader8get_archEv, symObjAddr: 0x51A0, symBinAddr: 0x773E0, symSize: 0x10 }
  - { offset: 0x4146E9, size: 0x8, addend: 0x0, symName: __ZNK18llama_model_loader10get_weightEPKc, symObjAddr: 0x51B0, symBinAddr: 0x773F0, symSize: 0x140 }
  - { offset: 0x414E0B, size: 0x8, addend: 0x0, symName: __ZNK18llama_model_loader14require_weightEPKc, symObjAddr: 0x52F0, symBinAddr: 0x77530, symSize: 0xC0 }
  - { offset: 0x414F82, size: 0x8, addend: 0x0, symName: __ZNK18llama_model_loader15get_tensor_metaEPKc, symObjAddr: 0x53B0, symBinAddr: 0x775F0, symSize: 0x20 }
  - { offset: 0x415009, size: 0x8, addend: 0x0, symName: __ZNK18llama_model_loader19require_tensor_metaERKNSt3__112basic_stringIcNS0_11char_traitsIcEENS0_9allocatorIcEEEE, symObjAddr: 0x53D0, symBinAddr: 0x77610, symSize: 0xE0 }
  - { offset: 0x41528B, size: 0x8, addend: 0x0, symName: __ZNK18llama_model_loader17check_tensor_dimsERKNSt3__112basic_stringIcNS0_11char_traitsIcEENS0_9allocatorIcEEEERKNS0_6vectorIxNS4_IxEEEEb, symObjAddr: 0x54B0, symBinAddr: 0x776F0, symSize: 0x250 }
  - { offset: 0x415D2A, size: 0x8, addend: 0x0, symName: __ZN18llama_model_loader13create_tensorEP12ggml_contextRKNSt3__112basic_stringIcNS2_11char_traitsIcEENS2_9allocatorIcEEEERKSt16initializer_listIxEi, symObjAddr: 0x5700, symBinAddr: 0x77940, symSize: 0x150 }
  - { offset: 0x416406, size: 0x8, addend: 0x0, symName: __ZNSt3__16vectorIxNS_9allocatorIxEEE20__throw_length_errorB8ne200100Ev, symObjAddr: 0xC000, symBinAddr: 0x7D820, symSize: 0x10 }
  - { offset: 0x41641E, size: 0x8, addend: 0x0, symName: __ZNSt3__16vectorINS_10unique_ptrI10llama_mmapNS_14default_deleteIS2_EEEENS_9allocatorIS5_EEE20__throw_length_errorB8ne200100Ev, symObjAddr: 0xC010, symBinAddr: 0x7D830, symSize: 0x10 }
  - { offset: 0x416429, size: 0x8, addend: 0x0, symName: __ZN18llama_model_loader21create_tensor_as_viewEP12ggml_contextP11ggml_tensorRKNSt3__112basic_stringIcNS4_11char_traitsIcEENS4_9allocatorIcEEEERKSt16initializer_listIxEmb, symObjAddr: 0x5850, symBinAddr: 0x77A90, symSize: 0x260 }
  - { offset: 0x416CD1, size: 0x8, addend: 0x0, symName: __ZNK18llama_model_loader20done_getting_tensorsEv, symObjAddr: 0x5AB0, symBinAddr: 0x77CF0, symSize: 0xC0 }
  - { offset: 0x417A23, size: 0x8, addend: 0x0, symName: __ZN18llama_model_loader13init_mappingsEbPNSt3__16vectorINS0_10unique_ptrI11llama_mlockNS0_14default_deleteIS3_EEEENS0_9allocatorIS6_EEEE, symObjAddr: 0x5B70, symBinAddr: 0x77DB0, symSize: 0x630 }
  - { offset: 0x419338, size: 0x8, addend: 0x0, symName: __ZNSt3__16vectorINS_10unique_ptrI10llama_mmapNS_14default_deleteIS2_EEEENS_9allocatorIS5_EEE20__throw_length_errorB8ne200100Ev, symObjAddr: 0xC010, symBinAddr: 0x7D830, symSize: 0x10 }
  - { offset: 0x419365, size: 0x8, addend: 0x0, symName: __ZNSt3__16vectorINS_10unique_ptrI11llama_mlockNS_14default_deleteIS2_EEEENS_9allocatorIS5_EEE20__throw_length_errorB8ne200100Ev, symObjAddr: 0xC030, symBinAddr: 0x7D840, symSize: 0x10 }
  - { offset: 0x419370, size: 0x8, addend: 0x0, symName: __ZNSt3__16vectorINS_10unique_ptrI11llama_mlockNS_14default_deleteIS2_EEEENS_9allocatorIS5_EEE20__throw_length_errorB8ne200100Ev, symObjAddr: 0xC030, symBinAddr: 0x7D840, symSize: 0x10 }
  - { offset: 0x419388, size: 0x8, addend: 0x0, symName: __ZNSt3__16vectorINS_10unique_ptrI10llama_mmapNS_14default_deleteIS2_EEEENS_9allocatorIS5_EEE20__throw_out_of_rangeB8ne200100Ev, symObjAddr: 0xC040, symBinAddr: 0x7D850, symSize: 0x10 }
  - { offset: 0x419393, size: 0x8, addend: 0x0, symName: __ZNSt3__110unique_ptrI10llama_mmapNS_14default_deleteIS1_EEED1B8ne200100Ev, symObjAddr: 0x61E0, symBinAddr: 0x78420, symSize: 0x40 }
  - { offset: 0x419422, size: 0x8, addend: 0x0, symName: __ZNSt3__110unique_ptrI11llama_mlockNS_14default_deleteIS1_EEED1B8ne200100Ev, symObjAddr: 0x61A0, symBinAddr: 0x783E0, symSize: 0x40 }
  - { offset: 0x4195C6, size: 0x8, addend: 0x0, symName: __ZNK18llama_model_loader17get_mapping_rangeEPmS0_PPviP12ggml_context, symObjAddr: 0x6220, symBinAddr: 0x78460, symSize: 0x140 }
  - { offset: 0x419867, size: 0x8, addend: 0x0, symName: __ZNSt3__16vectorINS_10unique_ptrI10llama_mmapNS_14default_deleteIS2_EEEENS_9allocatorIS5_EEE20__throw_out_of_rangeB8ne200100Ev, symObjAddr: 0xC040, symBinAddr: 0x7D850, symSize: 0x10 }
  - { offset: 0x41987F, size: 0x8, addend: 0x0, symName: __ZNSt3__16vectorINS_10unique_ptrI10llama_fileNS_14default_deleteIS2_EEEENS_9allocatorIS5_EEE20__throw_out_of_rangeB8ne200100Ev, symObjAddr: 0xC050, symBinAddr: 0x7D860, symSize: 0x10 }
  - { offset: 0x41988A, size: 0x8, addend: 0x0, symName: __ZNK18llama_model_loader13load_data_forEP11ggml_tensor, symObjAddr: 0x6360, symBinAddr: 0x785A0, symSize: 0x210 }
  - { offset: 0x41C332, size: 0x8, addend: 0x0, symName: __ZNSt3__113__assoc_stateINS_4pairIP11ggml_tensorbEEE4moveEv, symObjAddr: 0xC690, symBinAddr: 0x7DEA0, symSize: 0xC0 }
  - { offset: 0x41C525, size: 0x8, addend: 0x0, symName: __ZNSt3__16vectorIP18ggml_backend_eventNS_9allocatorIS2_EEE12emplace_backIJRS2_EEES7_DpOT_, symObjAddr: 0x8CA0, symBinAddr: 0x7AD80, symSize: 0x120 }
  - { offset: 0x41C981, size: 0x8, addend: 0x0, symName: __ZNSt3__16vectorINS_10unique_ptrI10llama_fileNS_14default_deleteIS2_EEEENS_9allocatorIS5_EEE20__throw_out_of_rangeB8ne200100Ev, symObjAddr: 0xC050, symBinAddr: 0x7D860, symSize: 0x10 }
  - { offset: 0x41C999, size: 0x8, addend: 0x0, symName: '__ZNSt3__119__async_assoc_stateINS_4pairIP11ggml_tensorbEENS_12__async_funcIZN18llama_model_loader13load_all_dataEP12ggml_contextRNS_13unordered_mapIjP19ggml_backend_bufferNS_4hashIjEENS_8equal_toIjEENS_9allocatorINS1_IKjSB_EEEEEEPNS_6vectorINS_10unique_ptrI11llama_mlockNS_14default_deleteISO_EEEENSG_ISR_EEEEPFbfPvESV_E3$_0JEEEED1Ev', symObjAddr: 0xC060, symBinAddr: 0x7D870, symSize: 0x40 }
  - { offset: 0x41C9A4, size: 0x8, addend: 0x0, symName: __ZNSt3__16vectorINS_4pairImmEENS_9allocatorIS2_EEE20__throw_out_of_rangeB8ne200100Ev, symObjAddr: 0xC750, symBinAddr: 0x7DF60, symSize: 0x10 }
  - { offset: 0x41C9C7, size: 0x8, addend: 0x0, symName: __ZNSt3__16vectorINS_6futureINS_4pairIP11ggml_tensorbEEEENS_9allocatorIS6_EEE20__throw_length_errorB8ne200100Ev, symObjAddr: 0xC3B0, symBinAddr: 0x7DBC0, symSize: 0x10 }
  - { offset: 0x41C9DF, size: 0x8, addend: 0x0, symName: __ZNSt3__16vectorINS_10unique_ptrI11llama_mlockNS_14default_deleteIS2_EEEENS_9allocatorIS5_EEE20__throw_out_of_rangeB8ne200100Ev, symObjAddr: 0xC3C0, symBinAddr: 0x7DBD0, symSize: 0x10 }
  - { offset: 0x41C9EA, size: 0x8, addend: 0x0, symName: __ZNSt3__16vectorINS_10unique_ptrI11llama_mlockNS_14default_deleteIS2_EEEENS_9allocatorIS5_EEE20__throw_out_of_rangeB8ne200100Ev, symObjAddr: 0xC3C0, symBinAddr: 0x7DBD0, symSize: 0x10 }
  - { offset: 0x41CA02, size: 0x8, addend: 0x0, symName: '__ZNSt3__119__async_assoc_stateINS_4pairIP11ggml_tensorbEENS_12__async_funcIZN18llama_model_loader13load_all_dataEP12ggml_contextRNS_13unordered_mapIjP19ggml_backend_bufferNS_4hashIjEENS_8equal_toIjEENS_9allocatorINS1_IKjSB_EEEEEEPNS_6vectorINS_10unique_ptrI11llama_mlockNS_14default_deleteISO_EEEENSG_ISR_EEEEPFbfPvESV_E3$_1JEEEED1Ev', symObjAddr: 0xC3D0, symBinAddr: 0x7DBE0, symSize: 0x40 }
  - { offset: 0x41CA0D, size: 0x8, addend: 0x0, symName: __ZNSt3__16vectorI7no_initIhENS_9allocatorIS2_EEE20__throw_length_errorB8ne200100Ev, symObjAddr: 0xC680, symBinAddr: 0x7DE90, symSize: 0x10 }
  - { offset: 0x41CA25, size: 0x8, addend: 0x0, symName: __ZNSt3__113__assoc_stateINS_4pairIP11ggml_tensorbEEE4moveEv, symObjAddr: 0xC690, symBinAddr: 0x7DEA0, symSize: 0xC0 }
  - { offset: 0x41CA30, size: 0x8, addend: 0x0, symName: __ZNSt3__16vectorIP19ggml_backend_bufferNS_9allocatorIS2_EEE20__throw_length_errorB8ne200100Ev, symObjAddr: 0x8DC0, symBinAddr: 0x7AEA0, symSize: 0x10 }
  - { offset: 0x41CA48, size: 0x8, addend: 0x0, symName: __ZNSt3__16vectorIPvNS_9allocatorIS1_EEE20__throw_length_errorB8ne200100Ev, symObjAddr: 0x8DD0, symBinAddr: 0x7AEB0, symSize: 0x10 }
  - { offset: 0x41CA53, size: 0x8, addend: 0x0, symName: __ZNSt3__16vectorIPvNS_9allocatorIS1_EEE20__throw_length_errorB8ne200100Ev, symObjAddr: 0x8DD0, symBinAddr: 0x7AEB0, symSize: 0x10 }
  - { offset: 0x41CA6B, size: 0x8, addend: 0x0, symName: __ZNSt3__16vectorIP18ggml_backend_eventNS_9allocatorIS2_EEE20__throw_length_errorB8ne200100Ev, symObjAddr: 0x8DE0, symBinAddr: 0x7AEC0, symSize: 0x10 }
  - { offset: 0x41CA76, size: 0x8, addend: 0x0, symName: '__ZNSt3__110unique_ptrINS_5tupleIJNS0_INS_15__thread_structENS_14default_deleteIS2_EEEEMNS_19__async_assoc_stateINS_4pairIP11ggml_tensorbEENS_12__async_funcIZN18llama_model_loader13load_all_dataEP12ggml_contextRNS_13unordered_mapIjP19ggml_backend_bufferNS_4hashIjEENS_8equal_toIjEENS_9allocatorINS7_IKjSH_EEEEEEPNS_6vectorINS0_I11llama_mlockNS3_IST_EEEENSM_ISV_EEEEPFbfPvESZ_E3$_1JEEEEEFvvEPS14_EEENS3_IS18_EEED1B8ne200100Ev', symObjAddr: 0xC630, symBinAddr: 0x7DE40, symSize: 0x50 }
  - { offset: 0x41CC20, size: 0x8, addend: 0x0, symName: __ZNSt3__110unique_ptrINS_15__thread_structENS_14default_deleteIS1_EEED1B8ne200100Ev, symObjAddr: 0xC370, symBinAddr: 0x7DB80, symSize: 0x40 }
  - { offset: 0x41CCAF, size: 0x8, addend: 0x0, symName: '__ZNSt3__110unique_ptrINS_5tupleIJNS0_INS_15__thread_structENS_14default_deleteIS2_EEEEMNS_19__async_assoc_stateINS_4pairIP11ggml_tensorbEENS_12__async_funcIZN18llama_model_loader13load_all_dataEP12ggml_contextRNS_13unordered_mapIjP19ggml_backend_bufferNS_4hashIjEENS_8equal_toIjEENS_9allocatorINS7_IKjSH_EEEEEEPNS_6vectorINS0_I11llama_mlockNS3_IST_EEEENSM_ISV_EEEEPFbfPvESZ_E3$_0JEEEEEFvvEPS14_EEENS3_IS18_EEED1B8ne200100Ev', symObjAddr: 0xC320, symBinAddr: 0x7DB30, symSize: 0x50 }
  - { offset: 0x41CE59, size: 0x8, addend: 0x0, symName: __ZNSt3__16vectorINS_6futureINS_4pairIP11ggml_tensorbEEEENS_9allocatorIS6_EEED1B8ne200100Ev, symObjAddr: 0x84D0, symBinAddr: 0x7A710, symSize: 0x80 }
  - { offset: 0x41D03F, size: 0x8, addend: 0x0, symName: __ZNK18llama_model_loader10ftype_nameEv, symObjAddr: 0x8550, symBinAddr: 0x7A790, symSize: 0x20 }
  - { offset: 0x41D07E, size: 0x8, addend: 0x0, symName: __ZL22llama_model_ftype_name11llama_ftype, symObjAddr: 0x8570, symBinAddr: 0x7A7B0, symSize: 0x2C0 }
  - { offset: 0x41D349, size: 0x8, addend: 0x0, symName: __ZNK18llama_model_loader10print_infoEv, symObjAddr: 0x8830, symBinAddr: 0x7AA70, symSize: 0x180 }
  - { offset: 0x41DB6E, size: 0x8, addend: 0x0, symName: __ZNSt3__16vectorIP18ggml_backend_eventNS_9allocatorIS2_EEE20__throw_length_errorB8ne200100Ev, symObjAddr: 0x8DE0, symBinAddr: 0x7AEC0, symSize: 0x10 }
  - { offset: 0x41DB86, size: 0x8, addend: 0x0, symName: __ZN8GGUFMeta3GKVINS_9ArrayInfoEE6get_kvEPK12gguf_contexti, symObjAddr: 0x8DF0, symBinAddr: 0x7AED0, symSize: 0x130 }
  - { offset: 0x41ECE8, size: 0x8, addend: 0x0, symName: __ZNSt3__112__hash_tableINS_17__hash_value_typeINS_12basic_stringIcNS_11char_traitsIcEENS_9allocatorIcEEEE23llama_model_kv_overrideEENS_22__unordered_map_hasherIS7_S9_NS_4hashIS7_EENS_8equal_toIS7_EELb1EEENS_21__unordered_map_equalIS7_S9_SE_SC_Lb1EEENS5_IS9_EEE11__do_rehashILb1EEEvm, symObjAddr: 0xB370, symBinAddr: 0x7CDA0, symSize: 0x1B0 }
  - { offset: 0x41F0A4, size: 0x8, addend: 0x0, symName: __ZNSt3__110unique_ptrINS_11__hash_nodeINS_17__hash_value_typeINS_12basic_stringIcNS_11char_traitsIcEENS_9allocatorIcEEEE23llama_model_kv_overrideEEPvEENS_22__hash_node_destructorINS6_ISC_EEEEED1B8ne200100Ev, symObjAddr: 0xB320, symBinAddr: 0x7CD50, symSize: 0x50 }
  - { offset: 0x41F641, size: 0x8, addend: 0x0, symName: '__ZNSt3__119__async_assoc_stateINS_4pairIP11ggml_tensorbEENS_12__async_funcIZN18llama_model_loader13load_all_dataEP12ggml_contextRNS_13unordered_mapIjP19ggml_backend_bufferNS_4hashIjEENS_8equal_toIjEENS_9allocatorINS1_IKjSB_EEEEEEPNS_6vectorINS_10unique_ptrI11llama_mlockNS_14default_deleteISO_EEEENSG_ISR_EEEEPFbfPvESV_E3$_0JEEEED1Ev', symObjAddr: 0xC060, symBinAddr: 0x7D870, symSize: 0x40 }
  - { offset: 0x41F6DD, size: 0x8, addend: 0x0, symName: '__ZNSt3__119__async_assoc_stateINS_4pairIP11ggml_tensorbEENS_12__async_funcIZN18llama_model_loader13load_all_dataEP12ggml_contextRNS_13unordered_mapIjP19ggml_backend_bufferNS_4hashIjEENS_8equal_toIjEENS_9allocatorINS1_IKjSB_EEEEEEPNS_6vectorINS_10unique_ptrI11llama_mlockNS_14default_deleteISO_EEEENSG_ISR_EEEEPFbfPvESV_E3$_0JEEEED0Ev', symObjAddr: 0xC0A0, symBinAddr: 0x7D8B0, symSize: 0x50 }
  - { offset: 0x41F797, size: 0x8, addend: 0x0, symName: '__ZNSt3__119__async_assoc_stateINS_4pairIP11ggml_tensorbEENS_12__async_funcIZN18llama_model_loader13load_all_dataEP12ggml_contextRNS_13unordered_mapIjP19ggml_backend_bufferNS_4hashIjEENS_8equal_toIjEENS_9allocatorINS1_IKjSB_EEEEEEPNS_6vectorINS_10unique_ptrI11llama_mlockNS_14default_deleteISO_EEEENSG_ISR_EEEEPFbfPvESV_E3$_0JEEEE16__on_zero_sharedEv', symObjAddr: 0xC0F0, symBinAddr: 0x7D900, symSize: 0x30 }
  - { offset: 0x41FA03, size: 0x8, addend: 0x0, symName: '__ZNSt3__119__async_assoc_stateINS_4pairIP11ggml_tensorbEENS_12__async_funcIZN18llama_model_loader13load_all_dataEP12ggml_contextRNS_13unordered_mapIjP19ggml_backend_bufferNS_4hashIjEENS_8equal_toIjEENS_9allocatorINS1_IKjSB_EEEEEEPNS_6vectorINS_10unique_ptrI11llama_mlockNS_14default_deleteISO_EEEENSG_ISR_EEEEPFbfPvESV_E3$_0JEEEE9__executeEv', symObjAddr: 0xC120, symBinAddr: 0x7D930, symSize: 0x110 }
  - { offset: 0x41FEB3, size: 0x8, addend: 0x0, symName: '__ZNSt3__119__async_assoc_stateINS_4pairIP11ggml_tensorbEENS_12__async_funcIZN18llama_model_loader13load_all_dataEP12ggml_contextRNS_13unordered_mapIjP19ggml_backend_bufferNS_4hashIjEENS_8equal_toIjEENS_9allocatorINS1_IKjSB_EEEEEEPNS_6vectorINS_10unique_ptrI11llama_mlockNS_14default_deleteISO_EEEENSG_ISR_EEEEPFbfPvESV_E3$_1JEEEED1Ev', symObjAddr: 0xC3D0, symBinAddr: 0x7DBE0, symSize: 0x40 }
  - { offset: 0x41FF4F, size: 0x8, addend: 0x0, symName: '__ZNSt3__119__async_assoc_stateINS_4pairIP11ggml_tensorbEENS_12__async_funcIZN18llama_model_loader13load_all_dataEP12ggml_contextRNS_13unordered_mapIjP19ggml_backend_bufferNS_4hashIjEENS_8equal_toIjEENS_9allocatorINS1_IKjSB_EEEEEEPNS_6vectorINS_10unique_ptrI11llama_mlockNS_14default_deleteISO_EEEENSG_ISR_EEEEPFbfPvESV_E3$_1JEEEED0Ev', symObjAddr: 0xC410, symBinAddr: 0x7DC20, symSize: 0x50 }
  - { offset: 0x41FFF1, size: 0x8, addend: 0x0, symName: '__ZNSt3__119__async_assoc_stateINS_4pairIP11ggml_tensorbEENS_12__async_funcIZN18llama_model_loader13load_all_dataEP12ggml_contextRNS_13unordered_mapIjP19ggml_backend_bufferNS_4hashIjEENS_8equal_toIjEENS_9allocatorINS1_IKjSB_EEEEEEPNS_6vectorINS_10unique_ptrI11llama_mlockNS_14default_deleteISO_EEEENSG_ISR_EEEEPFbfPvESV_E3$_1JEEEE16__on_zero_sharedEv', symObjAddr: 0xC460, symBinAddr: 0x7DC70, symSize: 0x30 }
  - { offset: 0x4200A3, size: 0x8, addend: 0x0, symName: '__ZNSt3__119__async_assoc_stateINS_4pairIP11ggml_tensorbEENS_12__async_funcIZN18llama_model_loader13load_all_dataEP12ggml_contextRNS_13unordered_mapIjP19ggml_backend_bufferNS_4hashIjEENS_8equal_toIjEENS_9allocatorINS1_IKjSB_EEEEEEPNS_6vectorINS_10unique_ptrI11llama_mlockNS_14default_deleteISO_EEEENSG_ISR_EEEEPFbfPvESV_E3$_1JEEEE9__executeEv', symObjAddr: 0xC490, symBinAddr: 0x7DCA0, symSize: 0x110 }
  - { offset: 0x43BEBB, size: 0x8, addend: 0x0, symName: __ZN17llama_model_saverC2ERK11llama_model, symObjAddr: 0x0, symBinAddr: 0x7DF70, symSize: 0x40 }
  - { offset: 0x43BF2D, size: 0x8, addend: 0x0, symName: __ZN17llama_model_saverC1ERK11llama_model, symObjAddr: 0x40, symBinAddr: 0x7DFB0, symSize: 0x40 }
  - { offset: 0x43BF9C, size: 0x8, addend: 0x0, symName: __ZN17llama_model_saverD2Ev, symObjAddr: 0x80, symBinAddr: 0x7DFF0, symSize: 0x20 }
  - { offset: 0x43BFF5, size: 0x8, addend: 0x0, symName: __ZN17llama_model_saverD1Ev, symObjAddr: 0xB0, symBinAddr: 0x7E010, symSize: 0x20 }
  - { offset: 0x43C151, size: 0x8, addend: 0x0, symName: __ZN17llama_model_saver6add_kvE6llm_kvj, symObjAddr: 0xD0, symBinAddr: 0x7E030, symSize: 0x70 }
  - { offset: 0x43C43D, size: 0x8, addend: 0x0, symName: __ZN17llama_model_saver6add_kvE6llm_kvi, symObjAddr: 0x140, symBinAddr: 0x7E0A0, symSize: 0x70 }
  - { offset: 0x43C729, size: 0x8, addend: 0x0, symName: __ZN17llama_model_saver6add_kvE6llm_kvf, symObjAddr: 0x1B0, symBinAddr: 0x7E110, symSize: 0x70 }
  - { offset: 0x43CA17, size: 0x8, addend: 0x0, symName: __ZN17llama_model_saver6add_kvE6llm_kvb, symObjAddr: 0x220, symBinAddr: 0x7E180, symSize: 0x70 }
  - { offset: 0x43CD03, size: 0x8, addend: 0x0, symName: __ZN17llama_model_saver6add_kvE6llm_kvPKc, symObjAddr: 0x290, symBinAddr: 0x7E1F0, symSize: 0x70 }
  - { offset: 0x43D002, size: 0x8, addend: 0x0, symName: __ZN17llama_model_saver6add_kvE6llm_kvc, symObjAddr: 0x300, symBinAddr: 0x7E260, symSize: 0x20 }
  - { offset: 0x43D320, size: 0x8, addend: 0x0, symName: __ZN17llama_model_saver6add_kvE6llm_kvRKNSt3__16vectorINS1_12basic_stringIcNS1_11char_traitsIcEENS1_9allocatorIcEEEENS6_IS8_EEEE, symObjAddr: 0x320, symBinAddr: 0x7E280, symSize: 0x1D0 }
  - { offset: 0x43D9CD, size: 0x8, addend: 0x0, symName: __ZNSt3__16vectorIPKcNS_9allocatorIS2_EEE20__throw_length_errorB8ne200100Ev, symObjAddr: 0x2DA0, symBinAddr: 0x80C90, symSize: 0x10 }
  - { offset: 0x43DCA2, size: 0x8, addend: 0x0, symName: __ZN17llama_model_saver10add_tensorEPK11ggml_tensor, symObjAddr: 0x4F0, symBinAddr: 0x7E450, symSize: 0x190 }
  - { offset: 0x43EC17, size: 0x8, addend: 0x0, symName: __ZN17llama_model_saver17add_kv_from_modelEv, symObjAddr: 0x680, symBinAddr: 0x7E5E0, symSize: 0x20A0 }
  - { offset: 0x4496F4, size: 0x8, addend: 0x0, symName: __ZN17llama_model_saver6add_kvINSt3__112basic_stringIcNS1_11char_traitsIcEENS1_9allocatorIcEEEEEEv6llm_kvRKT_b, symObjAddr: 0x2720, symBinAddr: 0x80680, symSize: 0x140 }
  - { offset: 0x449B1C, size: 0x8, addend: 0x0, symName: __ZN17llama_model_saver6add_kvINSt3__15arrayIjLm512EEEEEv6llm_kvRKT_b, symObjAddr: 0x2860, symBinAddr: 0x807C0, symSize: 0x120 }
  - { offset: 0x44A0A9, size: 0x8, addend: 0x0, symName: __ZN17llama_model_saver22add_tensors_from_modelEv, symObjAddr: 0x29F0, symBinAddr: 0x808E0, symSize: 0x380 }
  - { offset: 0x44ACA0, size: 0x8, addend: 0x0, symName: __ZN17llama_model_saver4saveERKNSt3__112basic_stringIcNS0_11char_traitsIcEENS0_9allocatorIcEEEE, symObjAddr: 0x2D70, symBinAddr: 0x80C60, symSize: 0x30 }
  - { offset: 0x44CD04, size: 0x8, addend: 0x0, symName: __ZL24LLAMA_ROPE_SCALING_TYPES, symObjAddr: 0x5A5F50, symBinAddr: 0x3B60C0, symSize: 0x0 }
  - { offset: 0x4AAEAB, size: 0x8, addend: 0x0, symName: __ZNSt3__111make_uniqueB8ne200100I20llm_build_nemotron_hJRK11llama_modelRK16llm_graph_paramsELi0EEENS_10unique_ptrIT_NS_14default_deleteIS9_EEEEDpOT0_, symObjAddr: 0x56770, symBinAddr: 0xD7390, symSize: 0x60 }
  - { offset: 0x4AAF51, size: 0x8, addend: 0x0, symName: __ZNSt3__111make_uniqueB8ne200100I14llm_build_phi3ILb1EEJRK11llama_modelRK16llm_graph_paramsELi0EEENS_10unique_ptrIT_NS_14default_deleteISA_EEEEDpOT0_, symObjAddr: 0x55810, symBinAddr: 0xD6430, symSize: 0x60 }
  - { offset: 0x4AAFF7, size: 0x8, addend: 0x0, symName: __ZNSt3__111make_uniqueB8ne200100I15llm_build_mambaJRK11llama_modelRK16llm_graph_paramsELi0EEENS_10unique_ptrIT_NS_14default_deleteIS9_EEEEDpOT0_, symObjAddr: 0x55ED0, symBinAddr: 0xD6AF0, symSize: 0x60 }
  - { offset: 0x4AB09D, size: 0x8, addend: 0x0, symName: __ZNSt3__111make_uniqueB8ne200100I14llm_build_lfm2JRK11llama_modelRK16llm_graph_paramsELi0EEENS_10unique_ptrIT_NS_14default_deleteIS9_EEEEDpOT0_, symObjAddr: 0x57130, symBinAddr: 0xD7D50, symSize: 0x60 }
  - { offset: 0x4AB143, size: 0x8, addend: 0x0, symName: __ZNSt3__111make_uniqueB8ne200100I20llm_build_mimo2_iswaJRK11llama_modelRK16llm_graph_paramsELi0EEENS_10unique_ptrIT_NS_14default_deleteIS9_EEEEDpOT0_, symObjAddr: 0x574F0, symBinAddr: 0xD8110, symSize: 0x60 }
  - { offset: 0x4AB1E9, size: 0x8, addend: 0x0, symName: __ZNSt3__111make_uniqueB8ne200100I14llm_build_rnd1JRK11llama_modelRK16llm_graph_paramsELi0EEENS_10unique_ptrIT_NS_14default_deleteIS9_EEEEDpOT0_, symObjAddr: 0x55510, symBinAddr: 0xD6130, symSize: 0x60 }
  - { offset: 0x4AB28F, size: 0x8, addend: 0x0, symName: __ZNSt3__111make_uniqueB8ne200100I16llm_build_cogvlmJRK11llama_modelRK16llm_graph_paramsELi0EEENS_10unique_ptrIT_NS_14default_deleteIS9_EEEEDpOT0_, symObjAddr: 0x57370, symBinAddr: 0xD7F90, symSize: 0x60 }
  - { offset: 0x4AB335, size: 0x8, addend: 0x0, symName: __ZNSt3__111make_uniqueB8ne200100I17llm_build_smollm3JRK11llama_modelRK16llm_graph_paramsELi0EEENS_10unique_ptrIT_NS_14default_deleteIS9_EEEEDpOT0_, symObjAddr: 0x57010, symBinAddr: 0xD7C30, symSize: 0x60 }
  - { offset: 0x4AB3DB, size: 0x8, addend: 0x0, symName: __ZNSt3__111make_uniqueB8ne200100I15llm_build_afmoeJRK11llama_modelRK16llm_graph_paramsELi0EEENS_10unique_ptrIT_NS_14default_deleteIS9_EEEEDpOT0_, symObjAddr: 0x56E30, symBinAddr: 0xD7A50, symSize: 0x60 }
  - { offset: 0x4AB481, size: 0x8, addend: 0x0, symName: __ZNSt3__111make_uniqueB8ne200100I16llm_build_bitnetJRK11llama_modelRK16llm_graph_paramsELi0EEENS_10unique_ptrIT_NS_14default_deleteIS9_EEEEDpOT0_, symObjAddr: 0x56590, symBinAddr: 0xD71B0, symSize: 0x60 }
  - { offset: 0x4AB527, size: 0x8, addend: 0x0, symName: __ZNSt3__111make_uniqueB8ne200100I20llm_build_exaone_moeJRK11llama_modelRK16llm_graph_paramsELi0EEENS_10unique_ptrIT_NS_14default_deleteIS9_EEEEDpOT0_, symObjAddr: 0x568F0, symBinAddr: 0xD7510, symSize: 0x60 }
  - { offset: 0x4AB5CD, size: 0x8, addend: 0x0, symName: __ZNSt3__111make_uniqueB8ne200100I24llm_build_granite_hybridJRK11llama_modelRK16llm_graph_paramsELi0EEENS_10unique_ptrIT_NS_14default_deleteIS9_EEEEDpOT0_, symObjAddr: 0x56AD0, symBinAddr: 0xD76F0, symSize: 0x60 }
  - { offset: 0x4AB673, size: 0x8, addend: 0x0, symName: __ZNSt3__111make_uniqueB8ne200100I18llm_build_grovemoeJRK11llama_modelRK16llm_graph_paramsELi0EEENS_10unique_ptrIT_NS_14default_deleteIS9_EEEEDpOT0_, symObjAddr: 0x57250, symBinAddr: 0xD7E70, symSize: 0x60 }
  - { offset: 0x4AB719, size: 0x8, addend: 0x0, symName: __ZNSt3__111make_uniqueB8ne200100I14llm_build_jaisJRK11llama_modelRK16llm_graph_paramsELi0EEENS_10unique_ptrIT_NS_14default_deleteIS9_EEEEDpOT0_, symObjAddr: 0x566B0, symBinAddr: 0xD72D0, symSize: 0x60 }
  - { offset: 0x4AB7BF, size: 0x8, addend: 0x0, symName: __ZNSt3__111make_uniqueB8ne200100I18llm_build_mistral3JRK11llama_modelRK16llm_graph_paramsELi0EEENS_10unique_ptrIT_NS_14default_deleteIS9_EEEEDpOT0_, symObjAddr: 0x57490, symBinAddr: 0xD80B0, symSize: 0x60 }
  - { offset: 0x4AB865, size: 0x8, addend: 0x0, symName: __ZNSt3__111make_uniqueB8ne200100I24llm_build_pangu_embeddedJRK11llama_modelRK16llm_graph_paramsELi0EEENS_10unique_ptrIT_NS_14default_deleteIS9_EEEEDpOT0_, symObjAddr: 0x573D0, symBinAddr: 0xD7FF0, symSize: 0x60 }
  - { offset: 0x4AB90B, size: 0x8, addend: 0x0, symName: __ZNSt3__111make_uniqueB8ne200100I15llm_build_olmoeJRK11llama_modelRK16llm_graph_paramsELi0EEENS_10unique_ptrIT_NS_14default_deleteIS9_EEEEDpOT0_, symObjAddr: 0x56230, symBinAddr: 0xD6E50, symSize: 0x60 }
  - { offset: 0x4AB9B1, size: 0x8, addend: 0x0, symName: __ZNSt3__111make_uniqueB8ne200100I16llm_build_arcticJRK11llama_modelRK16llm_graph_paramsELi0EEENS_10unique_ptrIT_NS_14default_deleteIS9_EEEEDpOT0_, symObjAddr: 0x56350, symBinAddr: 0xD6F70, symSize: 0x60 }
  - { offset: 0x4ABA57, size: 0x8, addend: 0x0, symName: __ZNSt3__111make_uniqueB8ne200100I14llm_build_glm4JRK11llama_modelRK16llm_graph_paramsELi0EEENS_10unique_ptrIT_NS_14default_deleteIS9_EEEEDpOT0_, symObjAddr: 0x564D0, symBinAddr: 0xD70F0, symSize: 0x60 }
  - { offset: 0x4ABAFD, size: 0x8, addend: 0x0, symName: __ZNSt3__111make_uniqueB8ne200100I26llm_build_wavtokenizer_decJRK11llama_modelRK16llm_graph_paramsELi0EEENS_10unique_ptrIT_NS_14default_deleteIS9_EEEEDpOT0_, symObjAddr: 0x56B90, symBinAddr: 0xD77B0, symSize: 0x60 }
  - { offset: 0x4ABBA3, size: 0x8, addend: 0x0, symName: __ZNSt3__111make_uniqueB8ne200100I17llm_build_chatglmJRK11llama_modelRK16llm_graph_paramsELi0EEENS_10unique_ptrIT_NS_14default_deleteIS9_EEEEDpOT0_, symObjAddr: 0x56470, symBinAddr: 0xD7090, symSize: 0x60 }
  - { offset: 0x4ABC49, size: 0x8, addend: 0x0, symName: __ZNSt3__111make_uniqueB8ne200100I22llm_build_gemma3n_iswaJRK11llama_modelRK16llm_graph_paramsELi0EEENS_10unique_ptrIT_NS_14default_deleteIS9_EEEEDpOT0_, symObjAddr: 0x55DB0, symBinAddr: 0xD69D0, symSize: 0x60 }
  - { offset: 0x4ABCEF, size: 0x8, addend: 0x0, symName: __ZNSt3__111make_uniqueB8ne200100I19llm_build_chameleonJRK11llama_modelRK16llm_graph_paramsELi0EEENS_10unique_ptrIT_NS_14default_deleteIS9_EEEEDpOT0_, symObjAddr: 0x56B30, symBinAddr: 0xD7750, symSize: 0x60 }
  - { offset: 0x4ABD95, size: 0x8, addend: 0x0, symName: __ZNSt3__111make_uniqueB8ne200100I15llm_build_gemmaJRK11llama_modelRK16llm_graph_paramsELi0EEENS_10unique_ptrIT_NS_14default_deleteIS9_EEEEDpOT0_, symObjAddr: 0x55C30, symBinAddr: 0xD6850, symSize: 0x60 }
  - { offset: 0x4ABE3B, size: 0x8, addend: 0x0, symName: __ZNSt3__111make_uniqueB8ne200100I18llm_build_deepseekJRK11llama_modelRK16llm_graph_paramsELi0EEENS_10unique_ptrIT_NS_14default_deleteIS9_EEEEDpOT0_, symObjAddr: 0x563B0, symBinAddr: 0xD6FD0, symSize: 0x60 }
  - { offset: 0x4ABEE1, size: 0x8, addend: 0x0, symName: __ZNSt3__111make_uniqueB8ne200100I18llm_build_glm4_moeJRK11llama_modelRK16llm_graph_paramsELi0EEENS_10unique_ptrIT_NS_14default_deleteIS9_EEEEDpOT0_, symObjAddr: 0x56530, symBinAddr: 0xD7150, symSize: 0x60 }
  - { offset: 0x4ABF87, size: 0x8, addend: 0x0, symName: __ZNSt3__111make_uniqueB8ne200100I19llm_build_deepseek2JRK11llama_modelRK16llm_graph_paramsELi0EEENS_10unique_ptrIT_NS_14default_deleteIS9_EEEEDpOT0_, symObjAddr: 0x56410, symBinAddr: 0xD7030, symSize: 0x60 }
  - { offset: 0x4AC02D, size: 0x8, addend: 0x0, symName: __ZNSt3__111make_uniqueB8ne200100I15llm_build_rwkv6JRK11llama_modelRK16llm_graph_paramsELi0EEENS_10unique_ptrIT_NS_14default_deleteIS9_EEEEDpOT0_, symObjAddr: 0x56950, symBinAddr: 0xD7570, symSize: 0x60 }
  - { offset: 0x4AC0D3, size: 0x8, addend: 0x0, symName: __ZNSt3__111make_uniqueB8ne200100I17llm_build_qwen2vlJRK11llama_modelRK16llm_graph_paramsELi0EEENS_10unique_ptrIT_NS_14default_deleteIS9_EEEEDpOT0_, symObjAddr: 0x55570, symBinAddr: 0xD6190, symSize: 0x60 }
  - { offset: 0x4AC179, size: 0x8, addend: 0x0, symName: __ZNSt3__111make_uniqueB8ne200100I23llm_build_hunyuan_denseJRK11llama_modelRK16llm_graph_paramsELi0EEENS_10unique_ptrIT_NS_14default_deleteIS9_EEEEDpOT0_, symObjAddr: 0x56FB0, symBinAddr: 0xD7BD0, symSize: 0x60 }
  - { offset: 0x4AC21F, size: 0x8, addend: 0x0, symName: __ZNSt3__111make_uniqueB8ne200100I15llm_build_olmo2ILb1EEJRK11llama_modelRK16llm_graph_paramsELi0EEENS_10unique_ptrIT_NS_14default_deleteISA_EEEEDpOT0_, symObjAddr: 0x56170, symBinAddr: 0xD6D90, symSize: 0x60 }
  - { offset: 0x4AC2C5, size: 0x8, addend: 0x0, symName: __ZNSt3__111make_uniqueB8ne200100I22llm_build_smallthinkerILb1EEJRK11llama_modelRK16llm_graph_paramsELi0EEENS_10unique_ptrIT_NS_14default_deleteISA_EEEEDpOT0_, symObjAddr: 0x57190, symBinAddr: 0xD7DB0, symSize: 0x60 }
  - { offset: 0x4AC36B, size: 0x8, addend: 0x0, symName: __ZNSt3__111make_uniqueB8ne200100I17llm_build_openelmJRK11llama_modelRK16llm_graph_paramsELi0EEENS_10unique_ptrIT_NS_14default_deleteIS9_EEEEDpOT0_, symObjAddr: 0x56290, symBinAddr: 0xD6EB0, symSize: 0x60 }
  - { offset: 0x4AC411, size: 0x8, addend: 0x0, symName: __ZNSt3__111make_uniqueB8ne200100I25llm_build_openai_moe_iswaJRK11llama_modelRK16llm_graph_paramsELi0EEENS_10unique_ptrIT_NS_14default_deleteIS9_EEEEDpOT0_, symObjAddr: 0x57070, symBinAddr: 0xD7C90, symSize: 0x60 }
  - { offset: 0x4AC4B7, size: 0x8, addend: 0x0, symName: __ZNSt3__111make_uniqueB8ne200100I19llm_build_codeshellJRK11llama_modelRK16llm_graph_paramsELi0EEENS_10unique_ptrIT_NS_14default_deleteIS9_EEEEDpOT0_, symObjAddr: 0x55AB0, symBinAddr: 0xD66D0, symSize: 0x60 }
  - { offset: 0x4AC55D, size: 0x8, addend: 0x0, symName: __ZNSt3__111make_uniqueB8ne200100I16llm_build_plamo3ILb1EEJRK11llama_modelRK16llm_graph_paramsELi0EEENS_10unique_ptrIT_NS_14default_deleteISA_EEEEDpOT0_, symObjAddr: 0x55990, symBinAddr: 0xD65B0, symSize: 0x60 }
  - { offset: 0x4AC603, size: 0x8, addend: 0x0, symName: __ZNSt3__111make_uniqueB8ne200100I15llm_build_orionJRK11llama_modelRK16llm_graph_paramsELi0EEENS_10unique_ptrIT_NS_14default_deleteIS9_EEEEDpOT0_, symObjAddr: 0x55B10, symBinAddr: 0xD6730, symSize: 0x60 }
  - { offset: 0x4AC6A9, size: 0x8, addend: 0x0, symName: __ZNSt3__111make_uniqueB8ne200100I14llm_build_qwenJRK11llama_modelRK16llm_graph_paramsELi0EEENS_10unique_ptrIT_NS_14default_deleteIS9_EEEEDpOT0_, symObjAddr: 0x55330, symBinAddr: 0xD5F50, symSize: 0x60 }
  - { offset: 0x4AC74F, size: 0x8, addend: 0x0, symName: __ZNSt3__111make_uniqueB8ne200100I19llm_build_internlm2JRK11llama_modelRK16llm_graph_paramsELi0EEENS_10unique_ptrIT_NS_14default_deleteIS9_EEEEDpOT0_, symObjAddr: 0x55B70, symBinAddr: 0xD6790, symSize: 0x60 }
  - { offset: 0x4AC7F5, size: 0x8, addend: 0x0, symName: __ZNSt3__111make_uniqueB8ne200100I22llm_build_cohere2_iswaJRK11llama_modelRK16llm_graph_paramsELi0EEENS_10unique_ptrIT_NS_14default_deleteIS9_EEEEDpOT0_, symObjAddr: 0x56050, symBinAddr: 0xD6C70, symSize: 0x60 }
  - { offset: 0x4AC89B, size: 0x8, addend: 0x0, symName: __ZNSt3__111make_uniqueB8ne200100I21llm_build_bailingmoe2JRK11llama_modelRK16llm_graph_paramsELi0EEENS_10unique_ptrIT_NS_14default_deleteIS9_EEEEDpOT0_, symObjAddr: 0x56CB0, symBinAddr: 0xD78D0, symSize: 0x60 }
  - { offset: 0x4AC941, size: 0x8, addend: 0x0, symName: __ZNSt3__111make_uniqueB8ne200100I15llm_build_dots1JRK11llama_modelRK16llm_graph_paramsELi0EEENS_10unique_ptrIT_NS_14default_deleteIS9_EEEEDpOT0_, symObjAddr: 0x56D70, symBinAddr: 0xD7990, symSize: 0x60 }
  - { offset: 0x4AC9E7, size: 0x8, addend: 0x0, symName: __ZNSt3__111make_uniqueB8ne200100I19llm_build_starcoderJRK11llama_modelRK16llm_graph_paramsELi0EEENS_10unique_ptrIT_NS_14default_deleteIS9_EEEEDpOT0_, symObjAddr: 0x55090, symBinAddr: 0xD5CB0, symSize: 0x60 }
  - { offset: 0x4ACA8D, size: 0x8, addend: 0x0, symName: __ZNSt3__111make_uniqueB8ne200100I16llm_build_plamo2JRK11llama_modelRK16llm_graph_paramsELi0EEENS_10unique_ptrIT_NS_14default_deleteIS9_EEEEDpOT0_, symObjAddr: 0x55930, symBinAddr: 0xD6550, symSize: 0x60 }
  - { offset: 0x4ACB33, size: 0x8, addend: 0x0, symName: __ZNSt3__111make_uniqueB8ne200100I18llm_build_stablelmJRK11llama_modelRK16llm_graph_paramsELi0EEENS_10unique_ptrIT_NS_14default_deleteIS9_EEEEDpOT0_, symObjAddr: 0x552D0, symBinAddr: 0xD5EF0, symSize: 0x60 }
  - { offset: 0x4ACBD9, size: 0x8, addend: 0x0, symName: __ZNSt3__111make_uniqueB8ne200100I16llm_build_refactJRK11llama_modelRK16llm_graph_paramsELi0EEENS_10unique_ptrIT_NS_14default_deleteIS9_EEEEDpOT0_, symObjAddr: 0x550F0, symBinAddr: 0xD5D10, symSize: 0x60 }
  - { offset: 0x4ACC7F, size: 0x8, addend: 0x0, symName: __ZNSt3__111make_uniqueB8ne200100I14llm_build_gpt2JRK11llama_modelRK16llm_graph_paramsELi0EEENS_10unique_ptrIT_NS_14default_deleteIS9_EEEEDpOT0_, symObjAddr: 0x55A50, symBinAddr: 0xD6670, symSize: 0x60 }
  - { offset: 0x4ACD25, size: 0x8, addend: 0x0, symName: __ZNSt3__111make_uniqueB8ne200100I13llm_build_mptJRK11llama_modelRK16llm_graph_paramsELi0EEENS_10unique_ptrIT_NS_14default_deleteIS9_EEEEDpOT0_, symObjAddr: 0x55270, symBinAddr: 0xD5E90, symSize: 0x60 }
  - { offset: 0x4ACDCB, size: 0x8, addend: 0x0, symName: __ZNSt3__111make_uniqueB8ne200100I14llm_build_deciJRK11llama_modelRK16llm_graph_paramsELi0EEENS_10unique_ptrIT_NS_14default_deleteIS9_EEEEDpOT0_, symObjAddr: 0x54F10, symBinAddr: 0xD5B30, symSize: 0x60 }
  - { offset: 0x4ACE71, size: 0x8, addend: 0x0, symName: __ZNSt3__111make_uniqueB8ne200100I16llm_build_falconJRK11llama_modelRK16llm_graph_paramsELi0EEENS_10unique_ptrIT_NS_14default_deleteIS9_EEEEDpOT0_, symObjAddr: 0x54FD0, symBinAddr: 0xD5BF0, symSize: 0x60 }
  - { offset: 0x4ACF17, size: 0x8, addend: 0x0, symName: __ZNSt3__111make_uniqueB8ne200100I14llm_build_dbrxJRK11llama_modelRK16llm_graph_paramsELi0EEENS_10unique_ptrIT_NS_14default_deleteIS9_EEEEDpOT0_, symObjAddr: 0x560B0, symBinAddr: 0xD6CD0, symSize: 0x60 }
  - { offset: 0x4ACFBD, size: 0x8, addend: 0x0, symName: __ZNSt3__111make_uniqueB8ne200100I18llm_build_neo_bertJRK11llama_modelRK16llm_graph_paramsELi0EEENS_10unique_ptrIT_NS_14default_deleteIS9_EEEEDpOT0_, symObjAddr: 0x551B0, symBinAddr: 0xD5DD0, symSize: 0x60 }
  - { offset: 0x4AD063, size: 0x8, addend: 0x0, symName: __ZNSt3__111make_uniqueB8ne200100I20llm_build_llama_iswaJRK11llama_modelRK16llm_graph_paramsELi0EEENS_10unique_ptrIT_NS_14default_deleteIS9_EEEEDpOT0_, symObjAddr: 0x54DF0, symBinAddr: 0xD5A10, symSize: 0x60 }
  - { offset: 0x4AD109, size: 0x8, addend: 0x0, symName: __ZNSt3__111make_uniqueB8ne200100I15llm_build_llamaILb0EEJRK11llama_modelRK16llm_graph_paramsELi0EEENS_10unique_ptrIT_NS_14default_deleteISA_EEEEDpOT0_, symObjAddr: 0x54D90, symBinAddr: 0xD59B0, symSize: 0x60 }
  - { offset: 0x4AD1AF, size: 0x8, addend: 0x0, symName: __ZNSt3__111make_uniqueB8ne200100I15llm_build_qwen2JRK11llama_modelRK16llm_graph_paramsELi0EEENS_10unique_ptrIT_NS_14default_deleteIS9_EEEEDpOT0_, symObjAddr: 0x55390, symBinAddr: 0xD5FB0, symSize: 0x60 }
  - { offset: 0x4AD255, size: 0x8, addend: 0x0, symName: __ZNSt3__111make_uniqueB8ne200100I25llm_build_gemma_embeddingJRK11llama_modelRK16llm_graph_paramsELi0EEENS_10unique_ptrIT_NS_14default_deleteIS9_EEEEDpOT0_, symObjAddr: 0x55E10, symBinAddr: 0xD6A30, symSize: 0x60 }
  - { offset: 0x4AD2FB, size: 0x8, addend: 0x0, symName: __ZNSt3__111make_uniqueB8ne200100I21llm_build_modern_bertJRK11llama_modelRK16llm_graph_paramsELi0EEENS_10unique_ptrIT_NS_14default_deleteIS9_EEEEDpOT0_, symObjAddr: 0x55150, symBinAddr: 0xD5D70, symSize: 0x60 }
  - { offset: 0x4AD3A1, size: 0x8, addend: 0x0, symName: __ZNSt3__111make_uniqueB8ne200100I18llm_build_baichuanJRK11llama_modelRK16llm_graph_paramsELi0EEENS_10unique_ptrIT_NS_14default_deleteIS9_EEEEDpOT0_, symObjAddr: 0x54F70, symBinAddr: 0xD5B90, symSize: 0x60 }
  - { offset: 0x4AD447, size: 0x8, addend: 0x0, symName: __ZNSt3__111make_uniqueB8ne200100I19llm_build_qwen3nextJRK11llama_modelRK16llm_graph_paramsELi0EEENS_10unique_ptrIT_NS_14default_deleteIS9_EEEEDpOT0_, symObjAddr: 0x57430, symBinAddr: 0xD8050, symSize: 0x60 }
  - { offset: 0x4AD4ED, size: 0x8, addend: 0x0, symName: __ZNSt3__111make_uniqueB8ne200100I21llm_build_gemma2_iswaJRK11llama_modelRK16llm_graph_paramsELi0EEENS_10unique_ptrIT_NS_14default_deleteIS9_EEEEDpOT0_, symObjAddr: 0x55C90, symBinAddr: 0xD68B0, symSize: 0x60 }
  - { offset: 0x4AD593, size: 0x8, addend: 0x0, symName: __ZNSt3__111make_uniqueB8ne200100I17llm_build_gptneoxJRK11llama_modelRK16llm_graph_paramsELi0EEENS_10unique_ptrIT_NS_14default_deleteIS9_EEEEDpOT0_, symObjAddr: 0x562F0, symBinAddr: 0xD6F10, symSize: 0x60 }
  - { offset: 0x4AD639, size: 0x8, addend: 0x0, symName: __ZNSt3__111make_uniqueB8ne200100I14llm_build_grokJRK11llama_modelRK16llm_graph_paramsELi0EEENS_10unique_ptrIT_NS_14default_deleteIS9_EEEEDpOT0_, symObjAddr: 0x55030, symBinAddr: 0xD5C50, symSize: 0x60 }
  - { offset: 0x4AD6DF, size: 0x8, addend: 0x0, symName: __ZNSt3__111make_uniqueB8ne200100I20llm_build_qwen3vlmoeJRK11llama_modelRK16llm_graph_paramsELi0EEENS_10unique_ptrIT_NS_14default_deleteIS9_EEEEDpOT0_, symObjAddr: 0x55750, symBinAddr: 0xD6370, symSize: 0x60 }
  - { offset: 0x4AD785, size: 0x8, addend: 0x0, symName: __ZNSt3__111make_uniqueB8ne200100I16llm_build_xverseJRK11llama_modelRK16llm_graph_paramsELi0EEENS_10unique_ptrIT_NS_14default_deleteIS9_EEEEDpOT0_, symObjAddr: 0x55F90, symBinAddr: 0xD6BB0, symSize: 0x60 }
  - { offset: 0x4AD82B, size: 0x8, addend: 0x0, symName: __ZNSt3__111make_uniqueB8ne200100I14llm_build_phi2JRK11llama_modelRK16llm_graph_paramsELi0EEENS_10unique_ptrIT_NS_14default_deleteIS9_EEEEDpOT0_, symObjAddr: 0x557B0, symBinAddr: 0xD63D0, symSize: 0x60 }
  - { offset: 0x4AD8D1, size: 0x8, addend: 0x0, symName: __ZNSt3__111make_uniqueB8ne200100I15llm_build_plamoJRK11llama_modelRK16llm_graph_paramsELi0EEENS_10unique_ptrIT_NS_14default_deleteIS9_EEEEDpOT0_, symObjAddr: 0x558D0, symBinAddr: 0xD64F0, symSize: 0x60 }
  - { offset: 0x4AD977, size: 0x8, addend: 0x0, symName: __ZNSt3__111make_uniqueB8ne200100I19llm_build_falcon_h1JRK11llama_modelRK16llm_graph_paramsELi0EEENS_10unique_ptrIT_NS_14default_deleteIS9_EEEEDpOT0_, symObjAddr: 0x570D0, symBinAddr: 0xD7CF0, symSize: 0x60 }
  - { offset: 0x4ADA1D, size: 0x8, addend: 0x0, symName: __ZNSt3__111make_uniqueB8ne200100I19llm_build_maincoderJRK11llama_modelRK16llm_graph_paramsELi0EEENS_10unique_ptrIT_NS_14default_deleteIS9_EEEEDpOT0_, symObjAddr: 0x54EB0, symBinAddr: 0xD5AD0, symSize: 0x60 }
  - { offset: 0x4ADAC3, size: 0x8, addend: 0x0, symName: __ZNSt3__111make_uniqueB8ne200100I15llm_build_bloomJRK11llama_modelRK16llm_graph_paramsELi0EEENS_10unique_ptrIT_NS_14default_deleteIS9_EEEEDpOT0_, symObjAddr: 0x55210, symBinAddr: 0xD5E30, symSize: 0x60 }
  - { offset: 0x4ADB69, size: 0x8, addend: 0x0, symName: __ZNSt3__111make_uniqueB8ne200100I15llm_build_jambaJRK11llama_modelRK16llm_graph_paramsELi0EEENS_10unique_ptrIT_NS_14default_deleteIS9_EEEEDpOT0_, symObjAddr: 0x55F30, symBinAddr: 0xD6B50, symSize: 0x60 }
  - { offset: 0x4ADC0F, size: 0x8, addend: 0x0, symName: __ZNSt3__111make_uniqueB8ne200100I16llm_build_exaoneJRK11llama_modelRK16llm_graph_paramsELi0EEENS_10unique_ptrIT_NS_14default_deleteIS9_EEEEDpOT0_, symObjAddr: 0x567D0, symBinAddr: 0xD73F0, symSize: 0x60 }
  - { offset: 0x4ADCB5, size: 0x8, addend: 0x0, symName: __ZNSt3__111make_uniqueB8ne200100I15llm_build_qwen3JRK11llama_modelRK16llm_graph_paramsELi0EEENS_10unique_ptrIT_NS_14default_deleteIS9_EEEEDpOT0_, symObjAddr: 0x55630, symBinAddr: 0xD6250, symSize: 0x60 }
  - { offset: 0x4ADD5B, size: 0x8, addend: 0x0, symName: __ZNSt3__111make_uniqueB8ne200100I18llm_build_qwen2moeJRK11llama_modelRK16llm_graph_paramsELi0EEENS_10unique_ptrIT_NS_14default_deleteIS9_EEEEDpOT0_, symObjAddr: 0x555D0, symBinAddr: 0xD61F0, symSize: 0x60 }
  - { offset: 0x4ADE01, size: 0x8, addend: 0x0, symName: __ZNSt3__111make_uniqueB8ne200100I17llm_build_qwen3vlJRK11llama_modelRK16llm_graph_paramsELi0EEENS_10unique_ptrIT_NS_14default_deleteIS9_EEEEDpOT0_, symObjAddr: 0x556F0, symBinAddr: 0xD6310, symSize: 0x60 }
  - { offset: 0x4ADEA7, size: 0x8, addend: 0x0, symName: __ZNSt3__111make_uniqueB8ne200100I17llm_build_exaone4ILb1EEJRK11llama_modelRK16llm_graph_paramsELi0EEENS_10unique_ptrIT_NS_14default_deleteISA_EEEEDpOT0_, symObjAddr: 0x56830, symBinAddr: 0xD7450, symSize: 0x60 }
  - { offset: 0x4ADF4D, size: 0x8, addend: 0x0, symName: __ZNSt3__111make_uniqueB8ne200100I18llm_build_qwen3moeJRK11llama_modelRK16llm_graph_paramsELi0EEENS_10unique_ptrIT_NS_14default_deleteIS9_EEEEDpOT0_, symObjAddr: 0x55690, symBinAddr: 0xD62B0, symSize: 0x60 }
  - { offset: 0x4ADFF3, size: 0x8, addend: 0x0, symName: __ZNSt3__111make_uniqueB8ne200100I15llm_build_rwkv7JRK11llama_modelRK16llm_graph_paramsELi0EEENS_10unique_ptrIT_NS_14default_deleteIS9_EEEEDpOT0_, symObjAddr: 0x56A10, symBinAddr: 0xD7630, symSize: 0x60 }
  - { offset: 0x4AE099, size: 0x8, addend: 0x0, symName: __ZNSt3__111make_uniqueB8ne200100I20llm_build_starcoder2JRK11llama_modelRK16llm_graph_paramsELi0EEENS_10unique_ptrIT_NS_14default_deleteIS9_EEEEDpOT0_, symObjAddr: 0x55E70, symBinAddr: 0xD6A90, symSize: 0x60 }
  - { offset: 0x4AE13F, size: 0x8, addend: 0x0, symName: __ZNSt3__111make_uniqueB8ne200100I15llm_build_arceeJRK11llama_modelRK16llm_graph_paramsELi0EEENS_10unique_ptrIT_NS_14default_deleteIS9_EEEEDpOT0_, symObjAddr: 0x56DD0, symBinAddr: 0xD79F0, symSize: 0x60 }
  - { offset: 0x4AE1E5, size: 0x8, addend: 0x0, symName: __ZNSt3__111make_uniqueB8ne200100I16llm_build_t5_encJRK11llama_modelRK16llm_graph_paramsELi0EEENS_10unique_ptrIT_NS_14default_deleteIS9_EEEEDpOT0_, symObjAddr: 0x565F0, symBinAddr: 0xD7210, symSize: 0x60 }
  - { offset: 0x4AE28B, size: 0x8, addend: 0x0, symName: __ZNSt3__111make_uniqueB8ne200100I20llm_build_minimax_m2JRK11llama_modelRK16llm_graph_paramsELi0EEENS_10unique_ptrIT_NS_14default_deleteIS9_EEEEDpOT0_, symObjAddr: 0x57310, symBinAddr: 0xD7F30, symSize: 0x60 }
  - { offset: 0x4AE331, size: 0x8, addend: 0x0, symName: __ZNSt3__111make_uniqueB8ne200100I17llm_build_apertusJRK11llama_modelRK16llm_graph_paramsELi0EEENS_10unique_ptrIT_NS_14default_deleteIS9_EEEEDpOT0_, symObjAddr: 0x572B0, symBinAddr: 0xD7ED0, symSize: 0x60 }
  - { offset: 0x4AE3D7, size: 0x8, addend: 0x0, symName: __ZNSt3__111make_uniqueB8ne200100I16llm_build_gemma3ILb1EEJRK11llama_modelRK16llm_graph_paramsELi0EEENS_10unique_ptrIT_NS_14default_deleteISA_EEEEDpOT0_, symObjAddr: 0x55CF0, symBinAddr: 0xD6910, symSize: 0x60 }
  - { offset: 0x4AE47D, size: 0x8, addend: 0x0, symName: __ZNSt3__111make_uniqueB8ne200100I18llm_build_seed_ossJRK11llama_modelRK16llm_graph_paramsELi0EEENS_10unique_ptrIT_NS_14default_deleteIS9_EEEEDpOT0_, symObjAddr: 0x56D10, symBinAddr: 0xD7930, symSize: 0x60 }
  - { offset: 0x4AE523, size: 0x8, addend: 0x0, symName: __ZNSt3__111make_uniqueB8ne200100I19llm_build_command_rJRK11llama_modelRK16llm_graph_paramsELi0EEENS_10unique_ptrIT_NS_14default_deleteIS9_EEEEDpOT0_, symObjAddr: 0x55FF0, symBinAddr: 0xD6C10, symSize: 0x60 }
  - { offset: 0x4AE5C9, size: 0x8, addend: 0x0, symName: __ZNSt3__111make_uniqueB8ne200100I18llm_build_minicpm3JRK11llama_modelRK16llm_graph_paramsELi0EEENS_10unique_ptrIT_NS_14default_deleteIS9_EEEEDpOT0_, symObjAddr: 0x55BD0, symBinAddr: 0xD67F0, symSize: 0x60 }
  - { offset: 0x4AE66F, size: 0x8, addend: 0x0, symName: __ZNSt3__111make_uniqueB8ne200100I18llm_build_nemotronJRK11llama_modelRK16llm_graph_paramsELi0EEENS_10unique_ptrIT_NS_14default_deleteIS9_EEEEDpOT0_, symObjAddr: 0x56710, symBinAddr: 0xD7330, symSize: 0x60 }
  - { offset: 0x4AE715, size: 0x8, addend: 0x0, symName: __ZNSt3__111make_uniqueB8ne200100I19llm_build_llada_moeJRK11llama_modelRK16llm_graph_paramsELi0EEENS_10unique_ptrIT_NS_14default_deleteIS9_EEEEDpOT0_, symObjAddr: 0x554B0, symBinAddr: 0xD60D0, symSize: 0x60 }
  - { offset: 0x4AE7BB, size: 0x8, addend: 0x0, symName: __ZNSt3__111make_uniqueB8ne200100I14llm_build_olmoJRK11llama_modelRK16llm_graph_paramsELi0EEENS_10unique_ptrIT_NS_14default_deleteIS9_EEEEDpOT0_, symObjAddr: 0x56110, symBinAddr: 0xD6D30, symSize: 0x60 }
  - { offset: 0x4AE861, size: 0x8, addend: 0x0, symName: __ZNSt3__111make_uniqueB8ne200100I22llm_build_ernie4_5_moeJRK11llama_modelRK16llm_graph_paramsELi0EEENS_10unique_ptrIT_NS_14default_deleteIS9_EEEEDpOT0_, symObjAddr: 0x56EF0, symBinAddr: 0xD7B10, symSize: 0x60 }
  - { offset: 0x4AE907, size: 0x8, addend: 0x0, symName: __ZNSt3__111make_uniqueB8ne200100I18llm_build_ernie4_5JRK11llama_modelRK16llm_graph_paramsELi0EEENS_10unique_ptrIT_NS_14default_deleteIS9_EEEEDpOT0_, symObjAddr: 0x56E90, symBinAddr: 0xD7AB0, symSize: 0x60 }
  - { offset: 0x4AE9AD, size: 0x8, addend: 0x0, symName: __ZNSt3__111make_uniqueB8ne200100I20llm_build_bailingmoeJRK11llama_modelRK16llm_graph_paramsELi0EEENS_10unique_ptrIT_NS_14default_deleteIS9_EEEEDpOT0_, symObjAddr: 0x56C50, symBinAddr: 0xD7870, symSize: 0x60 }
  - { offset: 0x4AEA53, size: 0x8, addend: 0x0, symName: __ZNSt3__111make_uniqueB8ne200100I13llm_build_plmJRK11llama_modelRK16llm_graph_paramsELi0EEENS_10unique_ptrIT_NS_14default_deleteIS9_EEEEDpOT0_, symObjAddr: 0x56BF0, symBinAddr: 0xD7810, symSize: 0x60 }
  - { offset: 0x4AEAF9, size: 0x8, addend: 0x0, symName: __ZNSt3__111make_uniqueB8ne200100I15llm_build_dreamJRK11llama_modelRK16llm_graph_paramsELi0EEENS_10unique_ptrIT_NS_14default_deleteIS9_EEEEDpOT0_, symObjAddr: 0x553F0, symBinAddr: 0xD6010, symSize: 0x60 }
  - { offset: 0x4AEB9F, size: 0x8, addend: 0x0, symName: __ZNSt3__111make_uniqueB8ne200100I16llm_build_arwkv7JRK11llama_modelRK16llm_graph_paramsELi0EEENS_10unique_ptrIT_NS_14default_deleteIS9_EEEEDpOT0_, symObjAddr: 0x56A70, symBinAddr: 0xD7690, symSize: 0x60 }
  - { offset: 0x4AEC45, size: 0x8, addend: 0x0, symName: __ZNSt3__111make_uniqueB8ne200100I20llm_build_rwkv6qwen2JRK11llama_modelRK16llm_graph_paramsELi0EEENS_10unique_ptrIT_NS_14default_deleteIS9_EEEEDpOT0_, symObjAddr: 0x569B0, symBinAddr: 0xD75D0, symSize: 0x60 }
  - { offset: 0x4AECEB, size: 0x8, addend: 0x0, symName: __ZNSt3__111make_uniqueB8ne200100I15llm_build_lladaJRK11llama_modelRK16llm_graph_paramsELi0EEENS_10unique_ptrIT_NS_14default_deleteIS9_EEEEDpOT0_, symObjAddr: 0x55450, symBinAddr: 0xD6070, symSize: 0x60 }
  - { offset: 0x4AED91, size: 0x8, addend: 0x0, symName: __ZNSt3__111make_uniqueB8ne200100I21llm_build_hunyuan_moeJRK11llama_modelRK16llm_graph_paramsELi0EEENS_10unique_ptrIT_NS_14default_deleteIS9_EEEEDpOT0_, symObjAddr: 0x56F50, symBinAddr: 0xD7B70, symSize: 0x60 }
  - { offset: 0x4AEE37, size: 0x8, addend: 0x0, symName: __ZNSt3__111make_uniqueB8ne200100I15llm_build_llamaILb1EEJRK11llama_modelRK16llm_graph_paramsELi0EEENS_10unique_ptrIT_NS_14default_deleteISA_EEEEDpOT0_, symObjAddr: 0x54E50, symBinAddr: 0xD5A70, symSize: 0x60 }
  - { offset: 0x4AEEDD, size: 0x8, addend: 0x0, symName: __ZNSt3__111make_uniqueB8ne200100I14llm_build_phi3ILb0EEJRK11llama_modelRK16llm_graph_paramsELi0EEENS_10unique_ptrIT_NS_14default_deleteISA_EEEEDpOT0_, symObjAddr: 0x55870, symBinAddr: 0xD6490, symSize: 0x60 }
  - { offset: 0x4AEF83, size: 0x8, addend: 0x0, symName: __ZNSt3__111make_uniqueB8ne200100I16llm_build_t5_decJRK11llama_modelRK16llm_graph_paramsELi0EEENS_10unique_ptrIT_NS_14default_deleteIS9_EEEEDpOT0_, symObjAddr: 0x56650, symBinAddr: 0xD7270, symSize: 0x60 }
  - { offset: 0x4AF029, size: 0x8, addend: 0x0, symName: __ZNSt3__111make_uniqueB8ne200100I15llm_build_olmo2ILb0EEJRK11llama_modelRK16llm_graph_paramsELi0EEENS_10unique_ptrIT_NS_14default_deleteISA_EEEEDpOT0_, symObjAddr: 0x561D0, symBinAddr: 0xD6DF0, symSize: 0x60 }
  - { offset: 0x4AF0CF, size: 0x8, addend: 0x0, symName: __ZNSt3__111make_uniqueB8ne200100I22llm_build_smallthinkerILb0EEJRK11llama_modelRK16llm_graph_paramsELi0EEENS_10unique_ptrIT_NS_14default_deleteISA_EEEEDpOT0_, symObjAddr: 0x571F0, symBinAddr: 0xD7E10, symSize: 0x60 }
  - { offset: 0x4AF175, size: 0x8, addend: 0x0, symName: __ZNSt3__111make_uniqueB8ne200100I17llm_build_exaone4ILb0EEJRK11llama_modelRK16llm_graph_paramsELi0EEENS_10unique_ptrIT_NS_14default_deleteISA_EEEEDpOT0_, symObjAddr: 0x56890, symBinAddr: 0xD74B0, symSize: 0x60 }
  - { offset: 0x4AF21B, size: 0x8, addend: 0x0, symName: __ZNSt3__111make_uniqueB8ne200100I16llm_build_gemma3ILb0EEJRK11llama_modelRK16llm_graph_paramsELi0EEENS_10unique_ptrIT_NS_14default_deleteISA_EEEEDpOT0_, symObjAddr: 0x55D50, symBinAddr: 0xD6970, symSize: 0x60 }
  - { offset: 0x4AF2C1, size: 0x8, addend: 0x0, symName: __ZNSt3__111make_uniqueB8ne200100I16llm_build_plamo3ILb0EEJRK11llama_modelRK16llm_graph_paramsELi0EEENS_10unique_ptrIT_NS_14default_deleteISA_EEEEDpOT0_, symObjAddr: 0x559F0, symBinAddr: 0xD6610, symSize: 0x60 }
  - { offset: 0x4BF536, size: 0x8, addend: 0x0, symName: __ZN11llama_model12load_tensorsER18llama_model_loader, symObjAddr: 0x6BC0, symBinAddr: 0x877E0, symSize: 0x49AB0 }
  - { offset: 0x568FC6, size: 0x8, addend: 0x0, symName: __ZNK11llama_model10print_infoEv, symObjAddr: 0x51CB0, symBinAddr: 0xD28D0, symSize: 0x1420 }
  - { offset: 0x56C511, size: 0x8, addend: 0x0, symName: __ZNK11llama_model13create_memoryERK19llama_memory_paramsRK13llama_cparams, symObjAddr: 0x53910, symBinAddr: 0xD4530, symSize: 0x780 }
  - { offset: 0x574D02, size: 0x8, addend: 0x0, symName: __Z13llm_type_name8llm_type, symObjAddr: 0x0, symBinAddr: 0x80CA0, symSize: 0x30 }
  - { offset: 0x574DA4, size: 0x8, addend: 0x0, symName: __ZNSt3__13mapI23llama_rope_scaling_typePKcNS_4lessIS1_EENS_9allocatorINS_4pairIKS1_S3_EEEEED1B8ne200100Ev, symObjAddr: 0x30, symBinAddr: 0x80CD0, symSize: 0x10 }
  - { offset: 0x574E57, size: 0x8, addend: 0x0, symName: __ZNSt3__16__treeINS_12__value_typeI23llama_rope_scaling_typePKcEENS_19__map_value_compareIS2_S5_NS_4lessIS2_EELb1EEENS_9allocatorIS5_EEE7destroyEPNS_11__tree_nodeIS5_PvEE, symObjAddr: 0x64AE0, symBinAddr: 0xDCF80, symSize: 0x40 }
  - { offset: 0x5752AA, size: 0x8, addend: 0x0, symName: __Z28llama_rope_scaling_type_name23llama_rope_scaling_type, symObjAddr: 0x40, symBinAddr: 0x80CE0, symSize: 0xD0 }
  - { offset: 0x575B95, size: 0x8, addend: 0x0, symName: __ZN11llama_modelC2ERK18llama_model_params, symObjAddr: 0x110, symBinAddr: 0x80DB0, symSize: 0x370 }
  - { offset: 0x576297, size: 0x8, addend: 0x0, symName: __ZNSt3__113unordered_setIP18llama_adapter_loraNS_4hashIS2_EENS_8equal_toIS2_EENS_9allocatorIS2_EEED1B8ne200100Ev, symObjAddr: 0x480, symBinAddr: 0x81120, symSize: 0x50 }
  - { offset: 0x57651B, size: 0x8, addend: 0x0, symName: __ZNSt3__16vectorINS_4pairINS_12basic_stringIcNS_11char_traitsIcEENS_9allocatorIcEEEEP11ggml_tensorEENS5_ISA_EEED1B8ne200100Ev, symObjAddr: 0x4D0, symBinAddr: 0x81170, symSize: 0x70 }
  - { offset: 0x5767A3, size: 0x8, addend: 0x0, symName: __ZNSt3__113unordered_mapINS_12basic_stringIcNS_11char_traitsIcEENS_9allocatorIcEEEES6_NS_4hashIS6_EENS_8equal_toIS6_EENS4_INS_4pairIKS6_S6_EEEEED1B8ne200100Ev, symObjAddr: 0x540, symBinAddr: 0x811E0, symSize: 0x80 }
  - { offset: 0x577517, size: 0x8, addend: 0x0, symName: __ZN11llama_modelC1ERK18llama_model_params, symObjAddr: 0x630, symBinAddr: 0x81260, symSize: 0x10 }
  - { offset: 0x57769A, size: 0x8, addend: 0x0, symName: __ZN11llama_modelD2Ev, symObjAddr: 0x640, symBinAddr: 0x81270, symSize: 0x220 }
  - { offset: 0x5790A8, size: 0x8, addend: 0x0, symName: __ZN11llama_model4implD2Ev, symObjAddr: 0x64B20, symBinAddr: 0xDCFC0, symSize: 0x1B0 }
  - { offset: 0x579B62, size: 0x8, addend: 0x0, symName: __ZN11llama_modelD1Ev, symObjAddr: 0x870, symBinAddr: 0x81490, symSize: 0x10 }
  - { offset: 0x579BB4, size: 0x8, addend: 0x0, symName: __ZN11llama_model10load_statsER18llama_model_loader, symObjAddr: 0x880, symBinAddr: 0x814A0, symSize: 0x20 }
  - { offset: 0x579C5E, size: 0x8, addend: 0x0, symName: __ZN11llama_model9load_archER18llama_model_loader, symObjAddr: 0x8A0, symBinAddr: 0x814C0, symSize: 0x160 }
  - { offset: 0x57A343, size: 0x8, addend: 0x0, symName: __ZN11llama_model12load_hparamsER18llama_model_loader, symObjAddr: 0xA00, symBinAddr: 0x81620, symSize: 0x5DC0 }
  - { offset: 0x57CE5C, size: 0x8, addend: 0x0, symName: _llama_model_rope_type, symObjAddr: 0x6920, symBinAddr: 0x87540, symSize: 0x250 }
  - { offset: 0x57CEB2, size: 0x8, addend: 0x0, symName: __ZNK11llama_model9arch_nameEv, symObjAddr: 0x67C0, symBinAddr: 0x873E0, symSize: 0xB0 }
  - { offset: 0x57D1AB, size: 0x8, addend: 0x0, symName: __ZNK11llama_model9type_nameEv, symObjAddr: 0x6870, symBinAddr: 0x87490, symSize: 0xB0 }
  - { offset: 0x57D4A4, size: 0x8, addend: 0x0, symName: __ZN11llama_model10load_vocabER18llama_model_loader, symObjAddr: 0x6B70, symBinAddr: 0x87790, symSize: 0x50 }
  - { offset: 0x580ADB, size: 0x8, addend: 0x0, symName: __ZNSt3__16vectorINS_4pairIP19ggml_backend_deviceP24ggml_backend_buffer_typeEENS_9allocatorIS6_EEE18__insert_with_sizeB8ne200100INS_11__wrap_iterIPS6_EESD_EESD_NSB_IPKS6_EET_T0_l, symObjAddr: 0x65D20, symBinAddr: 0xDD280, symSize: 0x300 }
  - { offset: 0x58175E, size: 0x8, addend: 0x0, symName: __ZNSt3__16vectorIN11llama_model4impl9layer_devENS_9allocatorIS3_EEE8__appendEm, symObjAddr: 0x66030, symBinAddr: 0xDD580, symSize: 0x140 }
  - { offset: 0x581B93, size: 0x8, addend: 0x0, symName: '__ZZN11llama_model12load_tensorsER18llama_model_loaderENK3$_1clEi', symObjAddr: 0x506B0, symBinAddr: 0xD12D0, symSize: 0x190 }
  - { offset: 0x581E78, size: 0x8, addend: 0x0, symName: __ZNSt3__16vectorI11llama_layerNS_9allocatorIS1_EEE8__appendEm, symObjAddr: 0x661F0, symBinAddr: 0xDD740, symSize: 0x1C0 }
  - { offset: 0x5822EA, size: 0x8, addend: 0x0, symName: '__ZZN11llama_model12load_tensorsER18llama_model_loaderENK3$_3clERK11LLM_TN_IMPLRKSt16initializer_listIxEi', symObjAddr: 0x50890, symBinAddr: 0xD14B0, symSize: 0xCB0 }
  - { offset: 0x5840B0, size: 0x8, addend: 0x0, symName: __ZNSt3__16vectorI11llama_layerNS_9allocatorIS1_EEE6resizeEm, symObjAddr: 0x50840, symBinAddr: 0xD1460, symSize: 0x50 }
  - { offset: 0x58417A, size: 0x8, addend: 0x0, symName: __ZNSt3__16vectorINS_4pairIP12ggml_contextNS_13unordered_mapIjP19ggml_backend_bufferNS_4hashIjEENS_8equal_toIjEENS_9allocatorINS1_IKjS6_EEEEEEEENSB_ISG_EEE7reserveEm, symObjAddr: 0x51540, symBinAddr: 0xD2160, symSize: 0x110 }
  - { offset: 0x58475B, size: 0x8, addend: 0x0, symName: __ZNSt3__114__split_bufferINS_4pairINS_10unique_ptrI12ggml_context20ggml_context_deleterEENS_6vectorINS2_I19ggml_backend_buffer27ggml_backend_buffer_deleterEENS_9allocatorIS9_EEEEEERNSA_ISD_EEE17__destruct_at_endB8ne200100EPSD_, symObjAddr: 0x66630, symBinAddr: 0xDDB70, symSize: 0xE0 }
  - { offset: 0x584A62, size: 0x8, addend: 0x0, symName: __ZNSt3__112__hash_tableINS_17__hash_value_typeIjP19ggml_backend_bufferEENS_22__unordered_map_hasherIjS4_NS_4hashIjEENS_8equal_toIjEELb1EEENS_21__unordered_map_equalIjS4_S9_S7_Lb1EEENS_9allocatorIS4_EEE11__do_rehashILb1EEEvm, symObjAddr: 0x66760, symBinAddr: 0xDDCA0, symSize: 0x1B0 }
  - { offset: 0x584E48, size: 0x8, addend: 0x0, symName: __ZNSt3__112__hash_tableINS_17__hash_value_typeIjP19ggml_backend_bufferEENS_22__unordered_map_hasherIjS4_NS_4hashIjEENS_8equal_toIjEELb1EEENS_21__unordered_map_equalIjS4_S9_S7_Lb1EEENS_9allocatorIS4_EEE25__emplace_unique_key_argsIjJRjRS3_EEENS_4pairINS_15__hash_iteratorIPNS_11__hash_nodeIS4_PvEEEEbEERKT_DpOT0_, symObjAddr: 0x66920, symBinAddr: 0xDDE50, symSize: 0x450 }
  - { offset: 0x585665, size: 0x8, addend: 0x0, symName: __ZNSt3__16vectorINS_4pairINS_10unique_ptrI12ggml_context20ggml_context_deleterEENS0_INS2_I19ggml_backend_buffer27ggml_backend_buffer_deleterEENS_9allocatorIS8_EEEEEENS9_ISC_EEE24__emplace_back_slow_pathIJS5_SB_EEEPSC_DpOT_, symObjAddr: 0x66D80, symBinAddr: 0xDE2A0, symSize: 0x150 }
  - { offset: 0x585BA1, size: 0x8, addend: 0x0, symName: __ZNSt3__113unordered_mapIjP19ggml_backend_bufferNS_4hashIjEENS_8equal_toIjEENS_9allocatorINS_4pairIKjS2_EEEEEC2ERKSC_, symObjAddr: 0x67070, symBinAddr: 0xDE590, symSize: 0x1C0 }
  - { offset: 0x585F58, size: 0x8, addend: 0x0, symName: __ZNSt3__16vectorINS_4pairIP12ggml_contextNS_13unordered_mapIjP19ggml_backend_bufferNS_4hashIjEENS_8equal_toIjEENS_9allocatorINS1_IKjS6_EEEEEEEENSB_ISG_EEE24__emplace_back_slow_pathIJRS3_RSF_EEEPSG_DpOT_, symObjAddr: 0x66ED0, symBinAddr: 0xDE3F0, symSize: 0x1A0 }
  - { offset: 0x586692, size: 0x8, addend: 0x0, symName: __ZNSt3__16vectorINS_4pairINS_12basic_stringIcNS_11char_traitsIcEENS_9allocatorIcEEEEP11ggml_tensorEENS5_ISA_EEE24__emplace_back_slow_pathIJPKcRS9_EEEPSA_DpOT_, symObjAddr: 0x67670, symBinAddr: 0xDEB90, symSize: 0x1C0 }
  - { offset: 0x586D8B, size: 0x8, addend: 0x0, symName: __ZNSt3__16__treeINS_12__value_typeIP24ggml_backend_buffer_typeNS_10unique_ptrI12ggml_context20ggml_context_deleterEEEENS_19__map_value_compareIS3_S8_ZN11llama_model12load_tensorsER18llama_model_loaderE28ggml_backend_buft_comparatorLb1EEENS_9allocatorIS8_EEE7destroyEPNS_11__tree_nodeIS8_PvEE, symObjAddr: 0x66180, symBinAddr: 0xDD6D0, symSize: 0x60 }
  - { offset: 0x586F85, size: 0x8, addend: 0x0, symName: __ZNSt3__16vectorINS_4pairIP19ggml_backend_deviceP24ggml_backend_buffer_typeEENS_9allocatorIS6_EEE20__throw_length_errorB8ne200100Ev, symObjAddr: 0x57E90, symBinAddr: 0xD8860, symSize: 0x10 }
  - { offset: 0x586FB2, size: 0x8, addend: 0x0, symName: __ZNSt3__112__hash_tableINS_17__hash_value_typeIjP19ggml_backend_bufferEENS_22__unordered_map_hasherIjS4_NS_4hashIjEENS_8equal_toIjEELb1EEENS_21__unordered_map_equalIjS4_S9_S7_Lb1EEENS_9allocatorIS4_EEE25__emplace_unique_key_argsIjJRjRS3_EEENS_4pairINS_15__hash_iteratorIPNS_11__hash_nodeIS4_PvEEEEbEERKT_DpOT0_, symObjAddr: 0x66920, symBinAddr: 0xDDE50, symSize: 0x450 }
  - { offset: 0x586FC7, size: 0x8, addend: 0x0, symName: __ZNSt3__16vectorINS_4pairIP12ggml_contextNS_13unordered_mapIjP19ggml_backend_bufferNS_4hashIjEENS_8equal_toIjEENS_9allocatorINS1_IKjS6_EEEEEEEENSB_ISG_EEE20__throw_length_errorB8ne200100Ev, symObjAddr: 0x663D0, symBinAddr: 0xDD910, symSize: 0x10 }
  - { offset: 0x586FDC, size: 0x8, addend: 0x0, symName: __ZNSt3__16vectorINS_4pairINS_10unique_ptrI12ggml_context20ggml_context_deleterEENS0_INS2_I19ggml_backend_buffer27ggml_backend_buffer_deleterEENS_9allocatorIS8_EEEEEENS9_ISC_EEE24__emplace_back_slow_pathIJS5_SB_EEEPSC_DpOT_, symObjAddr: 0x66D80, symBinAddr: 0xDE2A0, symSize: 0x150 }
  - { offset: 0x586FE7, size: 0x8, addend: 0x0, symName: __ZNSt3__16vectorINS_4pairINS_10unique_ptrI12ggml_context20ggml_context_deleterEENS0_INS2_I19ggml_backend_buffer27ggml_backend_buffer_deleterEENS_9allocatorIS8_EEEEEENS9_ISC_EEE20__throw_length_errorB8ne200100Ev, symObjAddr: 0x66620, symBinAddr: 0xDDB60, symSize: 0x10 }
  - { offset: 0x586FFF, size: 0x8, addend: 0x0, symName: __ZNSt3__114__split_bufferINS_4pairINS_10unique_ptrI12ggml_context20ggml_context_deleterEENS_6vectorINS2_I19ggml_backend_buffer27ggml_backend_buffer_deleterEENS_9allocatorIS9_EEEEEERNSA_ISD_EEE17__destruct_at_endB8ne200100EPSD_, symObjAddr: 0x66630, symBinAddr: 0xDDB70, symSize: 0xE0 }
  - { offset: 0x587014, size: 0x8, addend: 0x0, symName: __ZNSt3__16vectorIN11llama_model4impl9layer_devENS_9allocatorIS3_EEE8__appendEm, symObjAddr: 0x66030, symBinAddr: 0xDD580, symSize: 0x140 }
  - { offset: 0x58701F, size: 0x8, addend: 0x0, symName: __ZNSt3__16vectorINS_10unique_ptrI19ggml_backend_buffer27ggml_backend_buffer_deleterEENS_9allocatorIS4_EEED1B8ne200100Ev, symObjAddr: 0x51650, symBinAddr: 0xD2270, symSize: 0x80 }
  - { offset: 0x5871E0, size: 0x8, addend: 0x0, symName: __ZNSt3__113unordered_mapIjP19ggml_backend_bufferNS_4hashIjEENS_8equal_toIjEENS_9allocatorINS_4pairIKjS2_EEEEED1B8ne200100Ev, symObjAddr: 0x516D0, symBinAddr: 0xD22F0, symSize: 0x50 }
  - { offset: 0x587465, size: 0x8, addend: 0x0, symName: __ZNSt3__16vectorINS_4pairIP12ggml_contextNS_13unordered_mapIjP19ggml_backend_bufferNS_4hashIjEENS_8equal_toIjEENS_9allocatorINS1_IKjS6_EEEEEEEENSB_ISG_EEED1B8ne200100Ev, symObjAddr: 0x51720, symBinAddr: 0xD2340, symSize: 0xA0 }
  - { offset: 0x5878B5, size: 0x8, addend: 0x0, symName: __ZNK11llama_model12n_gpu_layersEv, symObjAddr: 0x50670, symBinAddr: 0xD1290, symSize: 0x20 }
  - { offset: 0x5878D5, size: 0x8, addend: 0x0, symName: __ZNK11llama_model9n_devicesEv, symObjAddr: 0x50690, symBinAddr: 0xD12B0, symSize: 0x20 }
  - { offset: 0x5879F7, size: 0x8, addend: 0x0, symName: __ZNSt3__16vectorIP19ggml_backend_deviceNS_9allocatorIS2_EEE20__throw_out_of_rangeB8ne200100Ev, symObjAddr: 0x57F60, symBinAddr: 0xD8870, symSize: 0x10 }
  - { offset: 0x587A0F, size: 0x8, addend: 0x0, symName: __ZL18select_weight_buftRK13llama_hparamsP11ggml_tensor7ggml_opRKNSt3__16vectorINS5_4pairIP19ggml_backend_deviceP24ggml_backend_buffer_typeEENS5_9allocatorISC_EEEE, symObjAddr: 0x57F70, symBinAddr: 0xD8880, symSize: 0x890 }
  - { offset: 0x58839D, size: 0x8, addend: 0x0, symName: __ZNSt3__111basic_regexIcNS_12regex_traitsIcEEEC2B8ne200100EPKcNS_15regex_constants18syntax_option_typeE, symObjAddr: 0x58850, symBinAddr: 0xD9110, symSize: 0xC0 }
  - { offset: 0x588960, size: 0x8, addend: 0x0, symName: __ZL18select_weight_buftRK13llama_hparamsP11ggml_tensor7ggml_opRKNSt3__16vectorINS5_4pairIP19ggml_backend_deviceP24ggml_backend_buffer_typeEENS5_9allocatorISC_EEEE, symObjAddr: 0x57F70, symBinAddr: 0xD8880, symSize: 0x890 }
  - { offset: 0x58955C, size: 0x8, addend: 0x0, symName: __ZNSt3__16vectorIN11llama_model4impl9layer_devENS_9allocatorIS3_EEE20__throw_out_of_rangeB8ne200100Ev, symObjAddr: 0x661E0, symBinAddr: 0xDD730, symSize: 0x10 }
  - { offset: 0x589574, size: 0x8, addend: 0x0, symName: __ZNSt3__16vectorI11llama_layerNS_9allocatorIS1_EEE8__appendEm, symObjAddr: 0x661F0, symBinAddr: 0xDD740, symSize: 0x1C0 }
  - { offset: 0x589786, size: 0x8, addend: 0x0, symName: __ZNSt3__16vectorINS_4pairIP12ggml_contextNS_13unordered_mapIjP19ggml_backend_bufferNS_4hashIjEENS_8equal_toIjEENS_9allocatorINS1_IKjS6_EEEEEEEENSB_ISG_EEE26__swap_out_circular_bufferERNS_14__split_bufferISG_RSH_EE, symObjAddr: 0x663E0, symBinAddr: 0xDD920, symSize: 0x1B0 }
  - { offset: 0x589DCB, size: 0x8, addend: 0x0, symName: __ZNSt3__16vectorINS_4pairIP12ggml_contextNS_13unordered_mapIjP19ggml_backend_bufferNS_4hashIjEENS_8equal_toIjEENS_9allocatorINS1_IKjS6_EEEEEEEENSB_ISG_EEE20__throw_length_errorB8ne200100Ev, symObjAddr: 0x663D0, symBinAddr: 0xDD910, symSize: 0x10 }
  - { offset: 0x589DE3, size: 0x8, addend: 0x0, symName: __ZNSt3__16vectorINS_4pairIP12ggml_contextNS_13unordered_mapIjP19ggml_backend_bufferNS_4hashIjEENS_8equal_toIjEENS_9allocatorINS1_IKjS6_EEEEEEEENSB_ISG_EEE26__swap_out_circular_bufferERNS_14__split_bufferISG_RSH_EE, symObjAddr: 0x663E0, symBinAddr: 0xDD920, symSize: 0x1B0 }
  - { offset: 0x589DEE, size: 0x8, addend: 0x0, symName: __ZNSt3__114__split_bufferINS_4pairIP12ggml_contextNS_13unordered_mapIjP19ggml_backend_bufferNS_4hashIjEENS_8equal_toIjEENS_9allocatorINS1_IKjS6_EEEEEEEERNSB_ISG_EEED1Ev, symObjAddr: 0x66590, symBinAddr: 0xDDAD0, symSize: 0x90 }
  - { offset: 0x58A26C, size: 0x8, addend: 0x0, symName: __ZNK11llama_model4descEv, symObjAddr: 0x517C0, symBinAddr: 0xD23E0, symSize: 0x50 }
  - { offset: 0x58A290, size: 0x8, addend: 0x0, symName: __ZNK11llama_model4descEv, symObjAddr: 0x517C0, symBinAddr: 0xD23E0, symSize: 0x50 }
  - { offset: 0x58A495, size: 0x8, addend: 0x0, symName: __ZNK11llama_model4sizeEv, symObjAddr: 0x51810, symBinAddr: 0xD2430, symSize: 0x20 }
  - { offset: 0x58A4D6, size: 0x8, addend: 0x0, symName: __ZNK11llama_model9n_tensorsEv, symObjAddr: 0x51830, symBinAddr: 0xD2450, symSize: 0x20 }
  - { offset: 0x58A51F, size: 0x8, addend: 0x0, symName: __ZNK11llama_model10split_modeEv, symObjAddr: 0x51850, symBinAddr: 0xD2470, symSize: 0x10 }
  - { offset: 0x58AE6F, size: 0x8, addend: 0x0, symName: __ZNK11llama_model16memory_breakdownEv, symObjAddr: 0x51860, symBinAddr: 0xD2480, symSize: 0x440 }
  - { offset: 0x58BBA6, size: 0x8, addend: 0x0, symName: __ZNK11llama_model10n_elementsEv, symObjAddr: 0x51CA0, symBinAddr: 0xD28C0, symSize: 0x10 }
  - { offset: 0x58CB02, size: 0x8, addend: 0x0, symName: '__ZZNK11llama_model10print_infoEvENK3$_6clERKNSt3__18functionIFjjEEEj', symObjAddr: 0x530D0, symBinAddr: 0xD3CF0, symSize: 0x330 }
  - { offset: 0x58DA59, size: 0x8, addend: 0x0, symName: __ZNK11llama_model9dev_layerEi, symObjAddr: 0x53400, symBinAddr: 0xD4020, symSize: 0x40 }
  - { offset: 0x58DA95, size: 0x8, addend: 0x0, symName: __ZNK11llama_model9dev_layerEi, symObjAddr: 0x53400, symBinAddr: 0xD4020, symSize: 0x40 }
  - { offset: 0x58DB01, size: 0x8, addend: 0x0, symName: __ZNK11llama_model10dev_outputEv, symObjAddr: 0x53440, symBinAddr: 0xD4060, symSize: 0x20 }
  - { offset: 0x58DBCC, size: 0x8, addend: 0x0, symName: __ZNK11llama_model11select_buftEi, symObjAddr: 0x53460, symBinAddr: 0xD4080, symSize: 0x310 }
  - { offset: 0x58E54B, size: 0x8, addend: 0x0, symName: __ZNK11llama_model20has_tensor_overridesEv, symObjAddr: 0x53770, symBinAddr: 0xD4390, symSize: 0x20 }
  - { offset: 0x58E5C6, size: 0x8, addend: 0x0, symName: __ZNK11llama_model10get_tensorEPKc, symObjAddr: 0x53790, symBinAddr: 0xD43B0, symSize: 0xA0 }
  - { offset: 0x58E8EA, size: 0x8, addend: 0x0, symName: __ZNK11llama_model18get_rope_freq_baseERK13llama_cparamsi, symObjAddr: 0x53830, symBinAddr: 0xD4450, symSize: 0x40 }
  - { offset: 0x58E934, size: 0x8, addend: 0x0, symName: __ZNK11llama_model19get_rope_freq_scaleERK13llama_cparamsi, symObjAddr: 0x53870, symBinAddr: 0xD4490, symSize: 0x40 }
  - { offset: 0x58E9A0, size: 0x8, addend: 0x0, symName: __ZNK11llama_model16get_rope_factorsERK13llama_cparamsi, symObjAddr: 0x538B0, symBinAddr: 0xD44D0, symSize: 0x60 }
  - { offset: 0x58EC56, size: 0x8, addend: 0x0, symName: '__ZNSt3__18functionIFbiEEaSIZNK11llama_model13create_memoryERK19llama_memory_paramsRK13llama_cparamsE3$_2vEERS2_OT_', symObjAddr: 0x54190, symBinAddr: 0xD4DB0, symSize: 0x80 }
  - { offset: 0x58EE8F, size: 0x8, addend: 0x0, symName: '__ZNSt3__18functionIFbiEEaSIZNK11llama_model13create_memoryERK19llama_memory_paramsRK13llama_cparamsE3$_3vEERS2_OT_', symObjAddr: 0x54210, symBinAddr: 0xD4E30, symSize: 0x80 }
  - { offset: 0x58F0C8, size: 0x8, addend: 0x0, symName: '__ZNSt3__18functionIFiiEEaSIZNK11llama_model13create_memoryERK19llama_memory_paramsRK13llama_cparamsE3$_4vEERS2_OT_', symObjAddr: 0x54290, symBinAddr: 0xD4EB0, symSize: 0x80 }
  - { offset: 0x58F301, size: 0x8, addend: 0x0, symName: '__ZNSt3__18functionIFbiEEaSIZNK11llama_model13create_memoryERK19llama_memory_paramsRK13llama_cparamsE3$_0vEERS2_OT_', symObjAddr: 0x54090, symBinAddr: 0xD4CB0, symSize: 0x80 }
  - { offset: 0x58F501, size: 0x8, addend: 0x0, symName: '__ZNSt3__18functionIFbiEEaSIZNK11llama_model13create_memoryERK19llama_memory_paramsRK13llama_cparamsE3$_1vEERS2_OT_', symObjAddr: 0x54110, symBinAddr: 0xD4D30, symSize: 0x80 }
  - { offset: 0x58F8EF, size: 0x8, addend: 0x0, symName: __ZNSt3__110__function12__value_funcIFbiEE4swapB8ne200100ERS3_, symObjAddr: 0x67ED0, symBinAddr: 0xDF3B0, symSize: 0x140 }
  - { offset: 0x59028F, size: 0x8, addend: 0x0, symName: __ZNSt3__110__function12__value_funcIFiiEE4swapB8ne200100ERS3_, symObjAddr: 0x683B0, symBinAddr: 0xDF890, symSize: 0x140 }
  - { offset: 0x5904B9, size: 0x8, addend: 0x0, symName: __ZNK11llama_model11build_graphERK16llm_graph_params, symObjAddr: 0x54310, symBinAddr: 0xD4F30, symSize: 0xA80 }
  - { offset: 0x593B7A, size: 0x8, addend: 0x0, symName: _llama_model_default_params, symObjAddr: 0x57550, symBinAddr: 0xD8170, symSize: 0x40 }
  - { offset: 0x593BA6, size: 0x8, addend: 0x0, symName: _llama_model_get_vocab, symObjAddr: 0x57590, symBinAddr: 0xD81B0, symSize: 0x10 }
  - { offset: 0x593C05, size: 0x8, addend: 0x0, symName: _llama_free_model, symObjAddr: 0x575A0, symBinAddr: 0xD81C0, symSize: 0x30 }
  - { offset: 0x593C2F, size: 0x8, addend: 0x0, symName: _llama_free_model, symObjAddr: 0x575A0, symBinAddr: 0xD81C0, symSize: 0x30 }
  - { offset: 0x593C77, size: 0x8, addend: 0x0, symName: _llama_model_free, symObjAddr: 0x575D0, symBinAddr: 0xD81F0, symSize: 0x30 }
  - { offset: 0x593CC0, size: 0x8, addend: 0x0, symName: _llama_model_n_ctx_train, symObjAddr: 0x57600, symBinAddr: 0xD8220, symSize: 0x10 }
  - { offset: 0x593CDC, size: 0x8, addend: 0x0, symName: _llama_model_n_embd, symObjAddr: 0x57610, symBinAddr: 0xD8230, symSize: 0x10 }
  - { offset: 0x593CF8, size: 0x8, addend: 0x0, symName: _llama_model_n_embd_inp, symObjAddr: 0x57620, symBinAddr: 0xD8240, symSize: 0x10 }
  - { offset: 0x593D24, size: 0x8, addend: 0x0, symName: _llama_model_n_embd_out, symObjAddr: 0x57630, symBinAddr: 0xD8250, symSize: 0x10 }
  - { offset: 0x593D50, size: 0x8, addend: 0x0, symName: _llama_model_n_layer, symObjAddr: 0x57640, symBinAddr: 0xD8260, symSize: 0x10 }
  - { offset: 0x593D6C, size: 0x8, addend: 0x0, symName: _llama_model_n_head, symObjAddr: 0x57650, symBinAddr: 0xD8270, symSize: 0x10 }
  - { offset: 0x593D8A, size: 0x8, addend: 0x0, symName: _llama_model_n_head_kv, symObjAddr: 0x57660, symBinAddr: 0xD8280, symSize: 0x10 }
  - { offset: 0x593DB6, size: 0x8, addend: 0x0, symName: _llama_model_n_swa, symObjAddr: 0x57670, symBinAddr: 0xD8290, symSize: 0x10 }
  - { offset: 0x593DE1, size: 0x8, addend: 0x0, symName: _llama_model_n_cls_out, symObjAddr: 0x57680, symBinAddr: 0xD82A0, symSize: 0x10 }
  - { offset: 0x593E2E, size: 0x8, addend: 0x0, symName: _llama_model_cls_label, symObjAddr: 0x57690, symBinAddr: 0xD82B0, symSize: 0x50 }
  - { offset: 0x593F60, size: 0x8, addend: 0x0, symName: _llama_n_ctx_train, symObjAddr: 0x576E0, symBinAddr: 0xD8300, symSize: 0x10 }
  - { offset: 0x593FC3, size: 0x8, addend: 0x0, symName: _llama_n_embd, symObjAddr: 0x576F0, symBinAddr: 0xD8310, symSize: 0x10 }
  - { offset: 0x594026, size: 0x8, addend: 0x0, symName: _llama_n_layer, symObjAddr: 0x57700, symBinAddr: 0xD8320, symSize: 0x10 }
  - { offset: 0x594089, size: 0x8, addend: 0x0, symName: _llama_n_head, symObjAddr: 0x57710, symBinAddr: 0xD8330, symSize: 0x10 }
  - { offset: 0x5940D4, size: 0x8, addend: 0x0, symName: _llama_model_rope_freq_scale_train, symObjAddr: 0x57720, symBinAddr: 0xD8340, symSize: 0x10 }
  - { offset: 0x594133, size: 0x8, addend: 0x0, symName: _llama_model_meta_val_str, symObjAddr: 0x57730, symBinAddr: 0xD8350, symSize: 0x130 }
  - { offset: 0x594A19, size: 0x8, addend: 0x0, symName: _llama_model_meta_count, symObjAddr: 0x57860, symBinAddr: 0xD8480, symSize: 0x10 }
  - { offset: 0x594A86, size: 0x8, addend: 0x0, symName: _llama_model_meta_key_str, symObjAddr: 0x57870, symBinAddr: 0xD8490, symSize: 0x20 }
  - { offset: 0x594B17, size: 0x8, addend: 0x0, symName: _llama_model_meta_key_by_index, symObjAddr: 0x57890, symBinAddr: 0xD84B0, symSize: 0xB0 }
  - { offset: 0x594CCC, size: 0x8, addend: 0x0, symName: _llama_model_meta_val_str_by_index, symObjAddr: 0x57940, symBinAddr: 0xD8560, symSize: 0xB0 }
  - { offset: 0x594E9A, size: 0x8, addend: 0x0, symName: _llama_model_desc, symObjAddr: 0x579F0, symBinAddr: 0xD8610, symSize: 0x90 }
  - { offset: 0x59513A, size: 0x8, addend: 0x0, symName: _llama_model_size, symObjAddr: 0x57A80, symBinAddr: 0xD86A0, symSize: 0x20 }
  - { offset: 0x5951A3, size: 0x8, addend: 0x0, symName: _llama_model_chat_template, symObjAddr: 0x57AA0, symBinAddr: 0xD86C0, symSize: 0x110 }
  - { offset: 0x59554E, size: 0x8, addend: 0x0, symName: _llama_model_n_params, symObjAddr: 0x57BB0, symBinAddr: 0xD87D0, symSize: 0x10 }
  - { offset: 0x5955B7, size: 0x8, addend: 0x0, symName: _llama_model_has_encoder, symObjAddr: 0x57BC0, symBinAddr: 0xD87E0, symSize: 0x20 }
  - { offset: 0x5955E2, size: 0x8, addend: 0x0, symName: _llama_model_has_decoder, symObjAddr: 0x57BE0, symBinAddr: 0xD8800, symSize: 0x10 }
  - { offset: 0x59560D, size: 0x8, addend: 0x0, symName: _llama_model_decoder_start_token, symObjAddr: 0x57BF0, symBinAddr: 0xD8810, symSize: 0x10 }
  - { offset: 0x595638, size: 0x8, addend: 0x0, symName: _llama_model_is_recurrent, symObjAddr: 0x57C00, symBinAddr: 0xD8820, symSize: 0x10 }
  - { offset: 0x595672, size: 0x8, addend: 0x0, symName: _llama_model_is_hybrid, symObjAddr: 0x57C10, symBinAddr: 0xD8830, symSize: 0x10 }
  - { offset: 0x5956AC, size: 0x8, addend: 0x0, symName: _llama_model_is_diffusion, symObjAddr: 0x57C20, symBinAddr: 0xD8840, symSize: 0x10 }
  - { offset: 0x5956FC, size: 0x8, addend: 0x0, symName: __Z29llama_internal_get_tensor_mapPK11llama_model, symObjAddr: 0x57C30, symBinAddr: 0xD8850, symSize: 0x10 }
  - { offset: 0x5962AE, size: 0x8, addend: 0x0, symName: __ZNSt3__111basic_regexIcNS_12regex_traitsIcEEE7__parseIPKcEET_S7_S7_, symObjAddr: 0x58950, symBinAddr: 0xD91D0, symSize: 0x320 }
  - { offset: 0x5972A6, size: 0x8, addend: 0x0, symName: __ZNSt3__111basic_regexIcNS_12regex_traitsIcEEE13__parse_egrepIPKcEET_S7_S7_, symObjAddr: 0x59340, symBinAddr: 0xD9B70, symSize: 0x1E0 }
  - { offset: 0x59784B, size: 0x8, addend: 0x0, symName: __ZNSt3__111basic_regexIcNS_12regex_traitsIcEEE24__parse_extended_reg_expIPKcEET_S7_S7_, symObjAddr: 0x58FD0, symBinAddr: 0xD9800, symSize: 0x190 }
  - { offset: 0x597BC9, size: 0x8, addend: 0x0, symName: __ZNSt3__111basic_regexIcNS_12regex_traitsIcEEE21__parse_basic_reg_expIPKcEET_S7_S7_, symObjAddr: 0x58E80, symBinAddr: 0xD96B0, symSize: 0x150 }
  - { offset: 0x597EEB, size: 0x8, addend: 0x0, symName: __ZNSt3__111basic_regexIcNS_12regex_traitsIcEEE12__parse_grepIPKcEET_S7_S7_, symObjAddr: 0x59160, symBinAddr: 0xD9990, symSize: 0x1E0 }
  - { offset: 0x598490, size: 0x8, addend: 0x0, symName: __ZNSt3__111basic_regexIcNS_12regex_traitsIcEEE19__parse_alternativeIPKcEET_S7_S7_, symObjAddr: 0x59740, symBinAddr: 0xD9D50, symSize: 0x90 }
  - { offset: 0x5985D1, size: 0x8, addend: 0x0, symName: __ZNSt3__111basic_regexIcNS_12regex_traitsIcEEE16__parse_ecma_expIPKcEET_S7_S7_, symObjAddr: 0x58CC0, symBinAddr: 0xD94F0, symSize: 0x1C0 }
  - { offset: 0x598A3D, size: 0x8, addend: 0x0, symName: __ZNSt3__111basic_regexIcNS_12regex_traitsIcEEE12__parse_termIPKcEET_S7_S7_, symObjAddr: 0x597D0, symBinAddr: 0xD9DE0, symSize: 0x80 }
  - { offset: 0x598CD8, size: 0x8, addend: 0x0, symName: __ZNSt3__111basic_regexIcNS_12regex_traitsIcEEE18__parse_nondupl_REIPKcEET_S7_S7_, symObjAddr: 0x60C50, symBinAddr: 0xDC2E0, symSize: 0x2D0 }
  - { offset: 0x5993E1, size: 0x8, addend: 0x0, symName: __ZNSt3__111basic_regexIcNS_12regex_traitsIcEEE22__parse_RE_dupl_symbolIPKcEET_S7_S7_PNS_16__owns_one_stateIcEEjj, symObjAddr: 0x60F20, symBinAddr: 0xDC5B0, symSize: 0x260 }
  - { offset: 0x599A11, size: 0x8, addend: 0x0, symName: __ZNSt3__111basic_regexIcNS_12regex_traitsIcEEE22__parse_ERE_expressionIPKcEET_S7_S7_, symObjAddr: 0x61280, symBinAddr: 0xDC810, symSize: 0x240 }
  - { offset: 0x599F60, size: 0x8, addend: 0x0, symName: __ZNSt3__111basic_regexIcNS_12regex_traitsIcEEE23__parse_ERE_dupl_symbolIPKcEET_S7_S7_PNS_16__owns_one_stateIcEEjj, symObjAddr: 0x59DE0, symBinAddr: 0xDA3F0, symSize: 0x3F0 }
  - { offset: 0x59A4B3, size: 0x8, addend: 0x0, symName: __ZNSt3__111basic_regexIcNS_12regex_traitsIcEEE17__parse_assertionIPKcEET_S7_S7_, symObjAddr: 0x59850, symBinAddr: 0xD9E60, symSize: 0x2F0 }
  - { offset: 0x59AA72, size: 0x8, addend: 0x0, symName: __ZNSt3__111basic_regexIcNS_12regex_traitsIcEEE12__parse_atomIPKcEET_S7_S7_, symObjAddr: 0x59B40, symBinAddr: 0xDA150, symSize: 0x2A0 }
  - { offset: 0x59B286, size: 0x8, addend: 0x0, symName: __ZNSt3__111basic_regexIcNS_12regex_traitsIcEEE19__parse_atom_escapeIPKcEET_S7_S7_, symObjAddr: 0x5BA50, symBinAddr: 0xDA7E0, symSize: 0x100 }
  - { offset: 0x59B40F, size: 0x8, addend: 0x0, symName: __ZNSt3__111basic_regexIcNS_12regex_traitsIcEEE26__parse_bracket_expressionIPKcEET_S7_S7_, symObjAddr: 0x5BB50, symBinAddr: 0xDA8E0, symSize: 0x140 }
  - { offset: 0x59B618, size: 0x8, addend: 0x0, symName: __ZNSt3__111basic_regexIcNS_12regex_traitsIcEEE25__parse_pattern_characterIPKcEET_S7_S7_, symObjAddr: 0x5BCE0, symBinAddr: 0xDAA20, symSize: 0x1B0 }
  - { offset: 0x59FA70, size: 0x8, addend: 0x0, symName: __ZNSt3__111basic_regexIcNS_12regex_traitsIcEEE30__parse_character_class_escapeIPKcEET_S7_S7_, symObjAddr: 0x5BF50, symBinAddr: 0xDABD0, symSize: 0x2E0 }
  - { offset: 0x59FFDC, size: 0x8, addend: 0x0, symName: __ZNSt3__111basic_regexIcNS_12regex_traitsIcEEE24__parse_character_escapeIPKcEET_S7_S7_PNS_12basic_stringIcNS_11char_traitsIcEENS_9allocatorIcEEEE, symObjAddr: 0x5C230, symBinAddr: 0xDAEB0, symSize: 0x410 }
  - { offset: 0x5A0B6F, size: 0x8, addend: 0x0, symName: __ZNSt3__111basic_regexIcNS_12regex_traitsIcEEE23__parse_expression_termIPKcEET_S7_S7_PNS_20__bracket_expressionIcS2_EE, symObjAddr: 0x5E3C0, symBinAddr: 0xDB2C0, symSize: 0x500 }
  - { offset: 0x5A2EC9, size: 0x8, addend: 0x0, symName: __ZNSt3__111basic_regexIcNS_12regex_traitsIcEEE25__parse_equivalence_classIPKcEET_S7_S7_PNS_20__bracket_expressionIcS2_EE, symObjAddr: 0x5E8C0, symBinAddr: 0xDB7C0, symSize: 0x280 }
  - { offset: 0x5A39A7, size: 0x8, addend: 0x0, symName: __ZNSt3__111basic_regexIcNS_12regex_traitsIcEEE18__parse_awk_escapeIPKcEET_S7_S7_PNS_12basic_stringIcNS_11char_traitsIcEENS_9allocatorIcEEEE, symObjAddr: 0x5EDB0, symBinAddr: 0xDBCB0, symSize: 0x2E0 }
  - { offset: 0x5A3A47, size: 0x8, addend: 0x0, symName: __ZNKSt3__112regex_traitsIcE20__lookup_collatenameIPKcEENS_12basic_stringIcNS_11char_traitsIcEENS_9allocatorIcEEEET_SB_c, symObjAddr: 0x5F700, symBinAddr: 0xDBF90, symSize: 0x220 }
  - { offset: 0x5A45E4, size: 0x8, addend: 0x0, symName: __ZNKSt3__112regex_traitsIcE18__lookup_classnameIPKcEEjT_S5_bc, symObjAddr: 0x5FCF0, symBinAddr: 0xDC1B0, symSize: 0x130 }
  - { offset: 0x5A4CFE, size: 0x8, addend: 0x0, symName: __ZNSt3__111basic_regexIcNS_12regex_traitsIcEEE24__parse_collating_symbolIPKcEET_S7_S7_RNS_12basic_stringIcNS_11char_traitsIcEENS_9allocatorIcEEEE, symObjAddr: 0x5EB40, symBinAddr: 0xDBA40, symSize: 0xD0 }
  - { offset: 0x5A5086, size: 0x8, addend: 0x0, symName: __ZNSt3__111basic_regexIcNS_12regex_traitsIcEEE20__parse_class_escapeIPKcEET_S7_S7_RNS_12basic_stringIcNS_11char_traitsIcEENS_9allocatorIcEEEEPNS_20__bracket_expressionIcS2_EE, symObjAddr: 0x5EC10, symBinAddr: 0xDBB10, symSize: 0x1A0 }
  - { offset: 0x5A8A38, size: 0x8, addend: 0x0, symName: __ZNSt3__111basic_regexIcNS_12regex_traitsIcEEE20__parse_ORD_CHAR_EREIPKcEET_S7_S7_, symObjAddr: 0x614C0, symBinAddr: 0xDCA50, symSize: 0x1C0 }
  - { offset: 0x5A8A96, size: 0x8, addend: 0x0, symName: __ZNSt3__111basic_regexIcNS_12regex_traitsIcEEE23__parse_QUOTED_CHAR_EREIPKcEET_S7_S7_, symObjAddr: 0x61680, symBinAddr: 0xDCC10, symSize: 0x200 }
  - { offset: 0x5AF088, size: 0x8, addend: 0x0, symName: __ZNSt3__13mapI23llama_rope_scaling_typePKcNS_4lessIS1_EENS_9allocatorINS_4pairIKS1_S3_EEEEEC2B8ne200100ESt16initializer_listIS9_ERKS5_, symObjAddr: 0x64970, symBinAddr: 0xDCE10, symSize: 0x170 }
  - { offset: 0x5AFAAB, size: 0x8, addend: 0x0, symName: __ZNSt3__16__treeINS_12__value_typeIP19ggml_backend_deviceNS_6vectorINS_4pairIS3_P24ggml_backend_buffer_typeEENS_9allocatorIS8_EEEEEENS_19__map_value_compareIS3_SC_NS_4lessIS3_EELb1EEENS9_ISC_EEE7destroyEPNS_11__tree_nodeISC_PvEE, symObjAddr: 0x64CD0, symBinAddr: 0xDD170, symSize: 0x50 }
  - { offset: 0x5AFD61, size: 0x8, addend: 0x0, symName: __ZNSt3__16vectorINS_4pairINS_10unique_ptrI12ggml_context20ggml_context_deleterEENS0_INS2_I19ggml_backend_buffer27ggml_backend_buffer_deleterEENS_9allocatorIS8_EEEEEENS9_ISC_EEE22__base_destruct_at_endB8ne200100EPSC_, symObjAddr: 0x64D20, symBinAddr: 0xDD1C0, symSize: 0xC0 }
  - { offset: 0x5B235D, size: 0x8, addend: 0x0, symName: __ZNSt3__16vectorIN11llama_model4impl9layer_devENS_9allocatorIS3_EEE20__throw_length_errorB8ne200100Ev, symObjAddr: 0x66170, symBinAddr: 0xDD6C0, symSize: 0x10 }
  - { offset: 0x5B2375, size: 0x8, addend: 0x0, symName: __ZNSt3__16__treeINS_12__value_typeIP24ggml_backend_buffer_typeNS_10unique_ptrI12ggml_context20ggml_context_deleterEEEENS_19__map_value_compareIS3_S8_ZN11llama_model12load_tensorsER18llama_model_loaderE28ggml_backend_buft_comparatorLb1EEENS_9allocatorIS8_EEE7destroyEPNS_11__tree_nodeIS8_PvEE, symObjAddr: 0x66180, symBinAddr: 0xDD6D0, symSize: 0x60 }
  - { offset: 0x5B2736, size: 0x8, addend: 0x0, symName: __ZNSt3__16vectorI11llama_layerNS_9allocatorIS1_EEE20__throw_length_errorB8ne200100Ev, symObjAddr: 0x663B0, symBinAddr: 0xDD900, symSize: 0x10 }
  - { offset: 0x5B29C1, size: 0x8, addend: 0x0, symName: __ZNSt3__112__hash_tableINS_17__hash_value_typeIjP19ggml_backend_bufferEENS_22__unordered_map_hasherIjS4_NS_4hashIjEENS_8equal_toIjEELb1EEENS_21__unordered_map_equalIjS4_S9_S7_Lb1EEENS_9allocatorIS4_EEED1Ev, symObjAddr: 0x66710, symBinAddr: 0xDDC50, symSize: 0x50 }
  - { offset: 0x5B32AC, size: 0x8, addend: 0x0, symName: __ZNSt3__112__hash_tableINS_17__hash_value_typeIjP19ggml_backend_bufferEENS_22__unordered_map_hasherIjS4_NS_4hashIjEENS_8equal_toIjEELb1EEENS_21__unordered_map_equalIjS4_S9_S7_Lb1EEENS_9allocatorIS4_EEE25__emplace_unique_key_argsIjJRKNS_4pairIKjS3_EEEEENSH_INS_15__hash_iteratorIPNS_11__hash_nodeIS4_PvEEEEbEERKT_DpOT0_, symObjAddr: 0x67230, symBinAddr: 0xDE750, symSize: 0x440 }
  - { offset: 0x5B3BDA, size: 0x8, addend: 0x0, symName: __ZNSt3__16vectorINS_4pairINS_12basic_stringIcNS_11char_traitsIcEENS_9allocatorIcEEEEP11ggml_tensorEENS5_ISA_EEE20__throw_length_errorB8ne200100Ev, symObjAddr: 0x67890, symBinAddr: 0xDEDB0, symSize: 0x10 }
  - { offset: 0x5B3BFD, size: 0x8, addend: 0x0, symName: __ZNSt3__114__split_bufferINS_4pairINS_12basic_stringIcNS_11char_traitsIcEENS_9allocatorIcEEEEP11ggml_tensorEERNS5_ISA_EEED1Ev, symObjAddr: 0x67830, symBinAddr: 0xDED50, symSize: 0x60 }
  - { offset: 0x5B3F21, size: 0x8, addend: 0x0, symName: '__ZNSt3__110__function6__funcIZNK11llama_model10print_infoEvE3$_0NS_9allocatorIS3_EEFjjEED1Ev', symObjAddr: 0x678E0, symBinAddr: 0xDEDC0, symSize: 0x10 }
  - { offset: 0x5B3F4B, size: 0x8, addend: 0x0, symName: '__ZNSt3__110__function6__funcIZNK11llama_model10print_infoEvE3$_0NS_9allocatorIS3_EEFjjEED0Ev', symObjAddr: 0x678F0, symBinAddr: 0xDEDD0, symSize: 0x10 }
  - { offset: 0x5B4062, size: 0x8, addend: 0x0, symName: '__ZNKSt3__110__function6__funcIZNK11llama_model10print_infoEvE3$_0NS_9allocatorIS3_EEFjjEE7__cloneEv', symObjAddr: 0x67900, symBinAddr: 0xDEDE0, symSize: 0x30 }
  - { offset: 0x5B4251, size: 0x8, addend: 0x0, symName: '__ZNKSt3__110__function6__funcIZNK11llama_model10print_infoEvE3$_0NS_9allocatorIS3_EEFjjEE7__cloneEPNS0_6__baseIS6_EE', symObjAddr: 0x67930, symBinAddr: 0xDEE10, symSize: 0x20 }
  - { offset: 0x5B42FC, size: 0x8, addend: 0x0, symName: '__ZNSt3__110__function6__funcIZNK11llama_model10print_infoEvE3$_0NS_9allocatorIS3_EEFjjEE7destroyEv', symObjAddr: 0x67950, symBinAddr: 0xDEE30, symSize: 0x10 }
  - { offset: 0x5B4351, size: 0x8, addend: 0x0, symName: '__ZNSt3__110__function6__funcIZNK11llama_model10print_infoEvE3$_0NS_9allocatorIS3_EEFjjEE18destroy_deallocateEv', symObjAddr: 0x67960, symBinAddr: 0xDEE40, symSize: 0x10 }
  - { offset: 0x5B447F, size: 0x8, addend: 0x0, symName: '__ZNSt3__110__function6__funcIZNK11llama_model10print_infoEvE3$_0NS_9allocatorIS3_EEFjjEEclEOj', symObjAddr: 0x67970, symBinAddr: 0xDEE50, symSize: 0x20 }
  - { offset: 0x5B4528, size: 0x8, addend: 0x0, symName: '__ZNKSt3__110__function6__funcIZNK11llama_model10print_infoEvE3$_0NS_9allocatorIS3_EEFjjEE6targetERKSt9type_info', symObjAddr: 0x67990, symBinAddr: 0xDEE70, symSize: 0x20 }
  - { offset: 0x5B4598, size: 0x8, addend: 0x0, symName: '__ZNKSt3__110__function6__funcIZNK11llama_model10print_infoEvE3$_0NS_9allocatorIS3_EEFjjEE11target_typeEv', symObjAddr: 0x679B0, symBinAddr: 0xDEE90, symSize: 0x10 }
  - { offset: 0x5B45BB, size: 0x8, addend: 0x0, symName: '__ZNSt3__110__function6__funcIZNK11llama_model10print_infoEvE3$_1NS_9allocatorIS3_EEFjjEED1Ev', symObjAddr: 0x679C0, symBinAddr: 0xDEEA0, symSize: 0x10 }
  - { offset: 0x5B45E5, size: 0x8, addend: 0x0, symName: '__ZNSt3__110__function6__funcIZNK11llama_model10print_infoEvE3$_1NS_9allocatorIS3_EEFjjEED0Ev', symObjAddr: 0x679D0, symBinAddr: 0xDEEB0, symSize: 0x10 }
  - { offset: 0x5B46FC, size: 0x8, addend: 0x0, symName: '__ZNKSt3__110__function6__funcIZNK11llama_model10print_infoEvE3$_1NS_9allocatorIS3_EEFjjEE7__cloneEv', symObjAddr: 0x679E0, symBinAddr: 0xDEEC0, symSize: 0x30 }
  - { offset: 0x5B48EB, size: 0x8, addend: 0x0, symName: '__ZNKSt3__110__function6__funcIZNK11llama_model10print_infoEvE3$_1NS_9allocatorIS3_EEFjjEE7__cloneEPNS0_6__baseIS6_EE', symObjAddr: 0x67A10, symBinAddr: 0xDEEF0, symSize: 0x20 }
  - { offset: 0x5B4996, size: 0x8, addend: 0x0, symName: '__ZNSt3__110__function6__funcIZNK11llama_model10print_infoEvE3$_1NS_9allocatorIS3_EEFjjEE7destroyEv', symObjAddr: 0x67A30, symBinAddr: 0xDEF10, symSize: 0x10 }
  - { offset: 0x5B49EB, size: 0x8, addend: 0x0, symName: '__ZNSt3__110__function6__funcIZNK11llama_model10print_infoEvE3$_1NS_9allocatorIS3_EEFjjEE18destroy_deallocateEv', symObjAddr: 0x67A40, symBinAddr: 0xDEF20, symSize: 0x10 }
  - { offset: 0x5B4B19, size: 0x8, addend: 0x0, symName: '__ZNSt3__110__function6__funcIZNK11llama_model10print_infoEvE3$_1NS_9allocatorIS3_EEFjjEEclEOj', symObjAddr: 0x67A50, symBinAddr: 0xDEF30, symSize: 0x20 }
  - { offset: 0x5B4BC2, size: 0x8, addend: 0x0, symName: '__ZNKSt3__110__function6__funcIZNK11llama_model10print_infoEvE3$_1NS_9allocatorIS3_EEFjjEE6targetERKSt9type_info', symObjAddr: 0x67A70, symBinAddr: 0xDEF50, symSize: 0x20 }
  - { offset: 0x5B4C32, size: 0x8, addend: 0x0, symName: '__ZNKSt3__110__function6__funcIZNK11llama_model10print_infoEvE3$_1NS_9allocatorIS3_EEFjjEE11target_typeEv', symObjAddr: 0x67A90, symBinAddr: 0xDEF70, symSize: 0x10 }
  - { offset: 0x5B4C55, size: 0x8, addend: 0x0, symName: '__ZNSt3__110__function6__funcIZNK11llama_model10print_infoEvE3$_2NS_9allocatorIS3_EEFjjEED1Ev', symObjAddr: 0x67AA0, symBinAddr: 0xDEF80, symSize: 0x10 }
  - { offset: 0x5B4C7F, size: 0x8, addend: 0x0, symName: '__ZNSt3__110__function6__funcIZNK11llama_model10print_infoEvE3$_2NS_9allocatorIS3_EEFjjEED0Ev', symObjAddr: 0x67AB0, symBinAddr: 0xDEF90, symSize: 0x10 }
  - { offset: 0x5B4D96, size: 0x8, addend: 0x0, symName: '__ZNKSt3__110__function6__funcIZNK11llama_model10print_infoEvE3$_2NS_9allocatorIS3_EEFjjEE7__cloneEv', symObjAddr: 0x67AC0, symBinAddr: 0xDEFA0, symSize: 0x30 }
  - { offset: 0x5B4F85, size: 0x8, addend: 0x0, symName: '__ZNKSt3__110__function6__funcIZNK11llama_model10print_infoEvE3$_2NS_9allocatorIS3_EEFjjEE7__cloneEPNS0_6__baseIS6_EE', symObjAddr: 0x67AF0, symBinAddr: 0xDEFD0, symSize: 0x20 }
  - { offset: 0x5B5030, size: 0x8, addend: 0x0, symName: '__ZNSt3__110__function6__funcIZNK11llama_model10print_infoEvE3$_2NS_9allocatorIS3_EEFjjEE7destroyEv', symObjAddr: 0x67B10, symBinAddr: 0xDEFF0, symSize: 0x10 }
  - { offset: 0x5B5085, size: 0x8, addend: 0x0, symName: '__ZNSt3__110__function6__funcIZNK11llama_model10print_infoEvE3$_2NS_9allocatorIS3_EEFjjEE18destroy_deallocateEv', symObjAddr: 0x67B20, symBinAddr: 0xDF000, symSize: 0x10 }
  - { offset: 0x5B51B3, size: 0x8, addend: 0x0, symName: '__ZNSt3__110__function6__funcIZNK11llama_model10print_infoEvE3$_2NS_9allocatorIS3_EEFjjEEclEOj', symObjAddr: 0x67B30, symBinAddr: 0xDF010, symSize: 0x20 }
  - { offset: 0x5B525C, size: 0x8, addend: 0x0, symName: '__ZNKSt3__110__function6__funcIZNK11llama_model10print_infoEvE3$_2NS_9allocatorIS3_EEFjjEE6targetERKSt9type_info', symObjAddr: 0x67B50, symBinAddr: 0xDF030, symSize: 0x20 }
  - { offset: 0x5B52CC, size: 0x8, addend: 0x0, symName: '__ZNKSt3__110__function6__funcIZNK11llama_model10print_infoEvE3$_2NS_9allocatorIS3_EEFjjEE11target_typeEv', symObjAddr: 0x67B70, symBinAddr: 0xDF050, symSize: 0x10 }
  - { offset: 0x5B52EF, size: 0x8, addend: 0x0, symName: '__ZNSt3__110__function6__funcIZNK11llama_model10print_infoEvE3$_3NS_9allocatorIS3_EEFjjEED1Ev', symObjAddr: 0x67B80, symBinAddr: 0xDF060, symSize: 0x10 }
  - { offset: 0x5B5319, size: 0x8, addend: 0x0, symName: '__ZNSt3__110__function6__funcIZNK11llama_model10print_infoEvE3$_3NS_9allocatorIS3_EEFjjEED0Ev', symObjAddr: 0x67B90, symBinAddr: 0xDF070, symSize: 0x10 }
  - { offset: 0x5B5430, size: 0x8, addend: 0x0, symName: '__ZNKSt3__110__function6__funcIZNK11llama_model10print_infoEvE3$_3NS_9allocatorIS3_EEFjjEE7__cloneEv', symObjAddr: 0x67BA0, symBinAddr: 0xDF080, symSize: 0x30 }
  - { offset: 0x5B561F, size: 0x8, addend: 0x0, symName: '__ZNKSt3__110__function6__funcIZNK11llama_model10print_infoEvE3$_3NS_9allocatorIS3_EEFjjEE7__cloneEPNS0_6__baseIS6_EE', symObjAddr: 0x67BD0, symBinAddr: 0xDF0B0, symSize: 0x20 }
  - { offset: 0x5B56CA, size: 0x8, addend: 0x0, symName: '__ZNSt3__110__function6__funcIZNK11llama_model10print_infoEvE3$_3NS_9allocatorIS3_EEFjjEE7destroyEv', symObjAddr: 0x67BF0, symBinAddr: 0xDF0D0, symSize: 0x10 }
  - { offset: 0x5B571F, size: 0x8, addend: 0x0, symName: '__ZNSt3__110__function6__funcIZNK11llama_model10print_infoEvE3$_3NS_9allocatorIS3_EEFjjEE18destroy_deallocateEv', symObjAddr: 0x67C00, symBinAddr: 0xDF0E0, symSize: 0x10 }
  - { offset: 0x5B584D, size: 0x8, addend: 0x0, symName: '__ZNSt3__110__function6__funcIZNK11llama_model10print_infoEvE3$_3NS_9allocatorIS3_EEFjjEEclEOj', symObjAddr: 0x67C10, symBinAddr: 0xDF0F0, symSize: 0x20 }
  - { offset: 0x5B58F6, size: 0x8, addend: 0x0, symName: '__ZNKSt3__110__function6__funcIZNK11llama_model10print_infoEvE3$_3NS_9allocatorIS3_EEFjjEE6targetERKSt9type_info', symObjAddr: 0x67C30, symBinAddr: 0xDF110, symSize: 0x20 }
  - { offset: 0x5B5966, size: 0x8, addend: 0x0, symName: '__ZNKSt3__110__function6__funcIZNK11llama_model10print_infoEvE3$_3NS_9allocatorIS3_EEFjjEE11target_typeEv', symObjAddr: 0x67C50, symBinAddr: 0xDF130, symSize: 0x10 }
  - { offset: 0x5B5989, size: 0x8, addend: 0x0, symName: '__ZNSt3__110__function6__funcIZNK11llama_model10print_infoEvE3$_4NS_9allocatorIS3_EEFjjEED1Ev', symObjAddr: 0x67C60, symBinAddr: 0xDF140, symSize: 0x10 }
  - { offset: 0x5B59B3, size: 0x8, addend: 0x0, symName: '__ZNSt3__110__function6__funcIZNK11llama_model10print_infoEvE3$_4NS_9allocatorIS3_EEFjjEED0Ev', symObjAddr: 0x67C70, symBinAddr: 0xDF150, symSize: 0x10 }
  - { offset: 0x5B5ACA, size: 0x8, addend: 0x0, symName: '__ZNKSt3__110__function6__funcIZNK11llama_model10print_infoEvE3$_4NS_9allocatorIS3_EEFjjEE7__cloneEv', symObjAddr: 0x67C80, symBinAddr: 0xDF160, symSize: 0x30 }
  - { offset: 0x5B5CB9, size: 0x8, addend: 0x0, symName: '__ZNKSt3__110__function6__funcIZNK11llama_model10print_infoEvE3$_4NS_9allocatorIS3_EEFjjEE7__cloneEPNS0_6__baseIS6_EE', symObjAddr: 0x67CB0, symBinAddr: 0xDF190, symSize: 0x20 }
  - { offset: 0x5B5D64, size: 0x8, addend: 0x0, symName: '__ZNSt3__110__function6__funcIZNK11llama_model10print_infoEvE3$_4NS_9allocatorIS3_EEFjjEE7destroyEv', symObjAddr: 0x67CD0, symBinAddr: 0xDF1B0, symSize: 0x10 }
  - { offset: 0x5B5DB9, size: 0x8, addend: 0x0, symName: '__ZNSt3__110__function6__funcIZNK11llama_model10print_infoEvE3$_4NS_9allocatorIS3_EEFjjEE18destroy_deallocateEv', symObjAddr: 0x67CE0, symBinAddr: 0xDF1C0, symSize: 0x10 }
  - { offset: 0x5B5EE7, size: 0x8, addend: 0x0, symName: '__ZNSt3__110__function6__funcIZNK11llama_model10print_infoEvE3$_4NS_9allocatorIS3_EEFjjEEclEOj', symObjAddr: 0x67CF0, symBinAddr: 0xDF1D0, symSize: 0x20 }
  - { offset: 0x5B5F90, size: 0x8, addend: 0x0, symName: '__ZNKSt3__110__function6__funcIZNK11llama_model10print_infoEvE3$_4NS_9allocatorIS3_EEFjjEE6targetERKSt9type_info', symObjAddr: 0x67D10, symBinAddr: 0xDF1F0, symSize: 0x20 }
  - { offset: 0x5B6000, size: 0x8, addend: 0x0, symName: '__ZNKSt3__110__function6__funcIZNK11llama_model10print_infoEvE3$_4NS_9allocatorIS3_EEFjjEE11target_typeEv', symObjAddr: 0x67D30, symBinAddr: 0xDF210, symSize: 0x10 }
  - { offset: 0x5B6023, size: 0x8, addend: 0x0, symName: '__ZNSt3__110__function6__funcIZNK11llama_model10print_infoEvE3$_5NS_9allocatorIS3_EEFjjEED1Ev', symObjAddr: 0x67D40, symBinAddr: 0xDF220, symSize: 0x10 }
  - { offset: 0x5B604D, size: 0x8, addend: 0x0, symName: '__ZNSt3__110__function6__funcIZNK11llama_model10print_infoEvE3$_5NS_9allocatorIS3_EEFjjEED0Ev', symObjAddr: 0x67D50, symBinAddr: 0xDF230, symSize: 0x10 }
  - { offset: 0x5B6164, size: 0x8, addend: 0x0, symName: '__ZNKSt3__110__function6__funcIZNK11llama_model10print_infoEvE3$_5NS_9allocatorIS3_EEFjjEE7__cloneEv', symObjAddr: 0x67D60, symBinAddr: 0xDF240, symSize: 0x30 }
  - { offset: 0x5B6353, size: 0x8, addend: 0x0, symName: '__ZNKSt3__110__function6__funcIZNK11llama_model10print_infoEvE3$_5NS_9allocatorIS3_EEFjjEE7__cloneEPNS0_6__baseIS6_EE', symObjAddr: 0x67D90, symBinAddr: 0xDF270, symSize: 0x20 }
  - { offset: 0x5B63FE, size: 0x8, addend: 0x0, symName: '__ZNSt3__110__function6__funcIZNK11llama_model10print_infoEvE3$_5NS_9allocatorIS3_EEFjjEE7destroyEv', symObjAddr: 0x67DB0, symBinAddr: 0xDF290, symSize: 0x10 }
  - { offset: 0x5B6453, size: 0x8, addend: 0x0, symName: '__ZNSt3__110__function6__funcIZNK11llama_model10print_infoEvE3$_5NS_9allocatorIS3_EEFjjEE18destroy_deallocateEv', symObjAddr: 0x67DC0, symBinAddr: 0xDF2A0, symSize: 0x10 }
  - { offset: 0x5B6581, size: 0x8, addend: 0x0, symName: '__ZNSt3__110__function6__funcIZNK11llama_model10print_infoEvE3$_5NS_9allocatorIS3_EEFjjEEclEOj', symObjAddr: 0x67DD0, symBinAddr: 0xDF2B0, symSize: 0x20 }
  - { offset: 0x5B662A, size: 0x8, addend: 0x0, symName: '__ZNKSt3__110__function6__funcIZNK11llama_model10print_infoEvE3$_5NS_9allocatorIS3_EEFjjEE6targetERKSt9type_info', symObjAddr: 0x67DF0, symBinAddr: 0xDF2D0, symSize: 0x20 }
  - { offset: 0x5B669A, size: 0x8, addend: 0x0, symName: '__ZNKSt3__110__function6__funcIZNK11llama_model10print_infoEvE3$_5NS_9allocatorIS3_EEFjjEE11target_typeEv', symObjAddr: 0x67E10, symBinAddr: 0xDF2F0, symSize: 0x10 }
  - { offset: 0x5B66BD, size: 0x8, addend: 0x0, symName: '__ZNSt3__110__function6__funcIZNK11llama_model13create_memoryERK19llama_memory_paramsRK13llama_cparamsE3$_0NS_9allocatorIS9_EEFbiEED1Ev', symObjAddr: 0x67E20, symBinAddr: 0xDF300, symSize: 0x10 }
  - { offset: 0x5B66E7, size: 0x8, addend: 0x0, symName: '__ZNSt3__110__function6__funcIZNK11llama_model13create_memoryERK19llama_memory_paramsRK13llama_cparamsE3$_0NS_9allocatorIS9_EEFbiEED0Ev', symObjAddr: 0x67E30, symBinAddr: 0xDF310, symSize: 0x10 }
  - { offset: 0x5B679E, size: 0x8, addend: 0x0, symName: '__ZNKSt3__110__function6__funcIZNK11llama_model13create_memoryERK19llama_memory_paramsRK13llama_cparamsE3$_0NS_9allocatorIS9_EEFbiEE7__cloneEv', symObjAddr: 0x67E40, symBinAddr: 0xDF320, symSize: 0x20 }
  - { offset: 0x5B68EC, size: 0x8, addend: 0x0, symName: '__ZNKSt3__110__function6__funcIZNK11llama_model13create_memoryERK19llama_memory_paramsRK13llama_cparamsE3$_0NS_9allocatorIS9_EEFbiEE7__cloneEPNS0_6__baseISC_EE', symObjAddr: 0x67E60, symBinAddr: 0xDF340, symSize: 0x10 }
  - { offset: 0x5B6958, size: 0x8, addend: 0x0, symName: '__ZNSt3__110__function6__funcIZNK11llama_model13create_memoryERK19llama_memory_paramsRK13llama_cparamsE3$_0NS_9allocatorIS9_EEFbiEE7destroyEv', symObjAddr: 0x67E70, symBinAddr: 0xDF350, symSize: 0x10 }
  - { offset: 0x5B69AD, size: 0x8, addend: 0x0, symName: '__ZNSt3__110__function6__funcIZNK11llama_model13create_memoryERK19llama_memory_paramsRK13llama_cparamsE3$_0NS_9allocatorIS9_EEFbiEE18destroy_deallocateEv', symObjAddr: 0x67E80, symBinAddr: 0xDF360, symSize: 0x10 }
  - { offset: 0x5B6A60, size: 0x8, addend: 0x0, symName: '__ZNSt3__110__function6__funcIZNK11llama_model13create_memoryERK19llama_memory_paramsRK13llama_cparamsE3$_0NS_9allocatorIS9_EEFbiEEclEOi', symObjAddr: 0x67E90, symBinAddr: 0xDF370, symSize: 0x10 }
  - { offset: 0x5B6A8F, size: 0x8, addend: 0x0, symName: '__ZNKSt3__110__function6__funcIZNK11llama_model13create_memoryERK19llama_memory_paramsRK13llama_cparamsE3$_0NS_9allocatorIS9_EEFbiEE6targetERKSt9type_info', symObjAddr: 0x67EA0, symBinAddr: 0xDF380, symSize: 0x20 }
  - { offset: 0x5B6AFF, size: 0x8, addend: 0x0, symName: '__ZNKSt3__110__function6__funcIZNK11llama_model13create_memoryERK19llama_memory_paramsRK13llama_cparamsE3$_0NS_9allocatorIS9_EEFbiEE11target_typeEv', symObjAddr: 0x67EC0, symBinAddr: 0xDF3A0, symSize: 0x10 }
  - { offset: 0x5B6B28, size: 0x8, addend: 0x0, symName: '__ZNSt3__110__function6__funcIZNK11llama_model13create_memoryERK19llama_memory_paramsRK13llama_cparamsE3$_1NS_9allocatorIS9_EEFbiEED1Ev', symObjAddr: 0x68010, symBinAddr: 0xDF4F0, symSize: 0x10 }
  - { offset: 0x5B6B52, size: 0x8, addend: 0x0, symName: '__ZNSt3__110__function6__funcIZNK11llama_model13create_memoryERK19llama_memory_paramsRK13llama_cparamsE3$_1NS_9allocatorIS9_EEFbiEED0Ev', symObjAddr: 0x68020, symBinAddr: 0xDF500, symSize: 0x10 }
  - { offset: 0x5B6C09, size: 0x8, addend: 0x0, symName: '__ZNKSt3__110__function6__funcIZNK11llama_model13create_memoryERK19llama_memory_paramsRK13llama_cparamsE3$_1NS_9allocatorIS9_EEFbiEE7__cloneEv', symObjAddr: 0x68030, symBinAddr: 0xDF510, symSize: 0x20 }
  - { offset: 0x5B6D57, size: 0x8, addend: 0x0, symName: '__ZNKSt3__110__function6__funcIZNK11llama_model13create_memoryERK19llama_memory_paramsRK13llama_cparamsE3$_1NS_9allocatorIS9_EEFbiEE7__cloneEPNS0_6__baseISC_EE', symObjAddr: 0x68050, symBinAddr: 0xDF530, symSize: 0x10 }
  - { offset: 0x5B6DC3, size: 0x8, addend: 0x0, symName: '__ZNSt3__110__function6__funcIZNK11llama_model13create_memoryERK19llama_memory_paramsRK13llama_cparamsE3$_1NS_9allocatorIS9_EEFbiEE7destroyEv', symObjAddr: 0x68060, symBinAddr: 0xDF540, symSize: 0x10 }
  - { offset: 0x5B6E18, size: 0x8, addend: 0x0, symName: '__ZNSt3__110__function6__funcIZNK11llama_model13create_memoryERK19llama_memory_paramsRK13llama_cparamsE3$_1NS_9allocatorIS9_EEFbiEE18destroy_deallocateEv', symObjAddr: 0x68070, symBinAddr: 0xDF550, symSize: 0x10 }
  - { offset: 0x5B6ECB, size: 0x8, addend: 0x0, symName: '__ZNSt3__110__function6__funcIZNK11llama_model13create_memoryERK19llama_memory_paramsRK13llama_cparamsE3$_1NS_9allocatorIS9_EEFbiEEclEOi', symObjAddr: 0x68080, symBinAddr: 0xDF560, symSize: 0x10 }
  - { offset: 0x5B6EFA, size: 0x8, addend: 0x0, symName: '__ZNKSt3__110__function6__funcIZNK11llama_model13create_memoryERK19llama_memory_paramsRK13llama_cparamsE3$_1NS_9allocatorIS9_EEFbiEE6targetERKSt9type_info', symObjAddr: 0x68090, symBinAddr: 0xDF570, symSize: 0x20 }
  - { offset: 0x5B6F6A, size: 0x8, addend: 0x0, symName: '__ZNKSt3__110__function6__funcIZNK11llama_model13create_memoryERK19llama_memory_paramsRK13llama_cparamsE3$_1NS_9allocatorIS9_EEFbiEE11target_typeEv', symObjAddr: 0x680B0, symBinAddr: 0xDF590, symSize: 0x10 }
  - { offset: 0x5B6F8D, size: 0x8, addend: 0x0, symName: '__ZNSt3__110__function6__funcIZNK11llama_model13create_memoryERK19llama_memory_paramsRK13llama_cparamsE3$_2NS_9allocatorIS9_EEFbiEED1Ev', symObjAddr: 0x680C0, symBinAddr: 0xDF5A0, symSize: 0x10 }
  - { offset: 0x5B6FB7, size: 0x8, addend: 0x0, symName: '__ZNSt3__110__function6__funcIZNK11llama_model13create_memoryERK19llama_memory_paramsRK13llama_cparamsE3$_2NS_9allocatorIS9_EEFbiEED0Ev', symObjAddr: 0x680D0, symBinAddr: 0xDF5B0, symSize: 0x10 }
  - { offset: 0x5B70CE, size: 0x8, addend: 0x0, symName: '__ZNKSt3__110__function6__funcIZNK11llama_model13create_memoryERK19llama_memory_paramsRK13llama_cparamsE3$_2NS_9allocatorIS9_EEFbiEE7__cloneEv', symObjAddr: 0x680E0, symBinAddr: 0xDF5C0, symSize: 0x30 }
  - { offset: 0x5B72BD, size: 0x8, addend: 0x0, symName: '__ZNKSt3__110__function6__funcIZNK11llama_model13create_memoryERK19llama_memory_paramsRK13llama_cparamsE3$_2NS_9allocatorIS9_EEFbiEE7__cloneEPNS0_6__baseISC_EE', symObjAddr: 0x68110, symBinAddr: 0xDF5F0, symSize: 0x20 }
  - { offset: 0x5B7368, size: 0x8, addend: 0x0, symName: '__ZNSt3__110__function6__funcIZNK11llama_model13create_memoryERK19llama_memory_paramsRK13llama_cparamsE3$_2NS_9allocatorIS9_EEFbiEE7destroyEv', symObjAddr: 0x68130, symBinAddr: 0xDF610, symSize: 0x10 }
  - { offset: 0x5B73BD, size: 0x8, addend: 0x0, symName: '__ZNSt3__110__function6__funcIZNK11llama_model13create_memoryERK19llama_memory_paramsRK13llama_cparamsE3$_2NS_9allocatorIS9_EEFbiEE18destroy_deallocateEv', symObjAddr: 0x68140, symBinAddr: 0xDF620, symSize: 0x10 }
  - { offset: 0x5B74EB, size: 0x8, addend: 0x0, symName: '__ZNSt3__110__function6__funcIZNK11llama_model13create_memoryERK19llama_memory_paramsRK13llama_cparamsE3$_2NS_9allocatorIS9_EEFbiEEclEOi', symObjAddr: 0x68150, symBinAddr: 0xDF630, symSize: 0x40 }
  - { offset: 0x5B756E, size: 0x8, addend: 0x0, symName: '__ZNKSt3__110__function6__funcIZNK11llama_model13create_memoryERK19llama_memory_paramsRK13llama_cparamsE3$_2NS_9allocatorIS9_EEFbiEE6targetERKSt9type_info', symObjAddr: 0x68190, symBinAddr: 0xDF670, symSize: 0x20 }
  - { offset: 0x5B75DE, size: 0x8, addend: 0x0, symName: '__ZNKSt3__110__function6__funcIZNK11llama_model13create_memoryERK19llama_memory_paramsRK13llama_cparamsE3$_2NS_9allocatorIS9_EEFbiEE11target_typeEv', symObjAddr: 0x681B0, symBinAddr: 0xDF690, symSize: 0x10 }
  - { offset: 0x5B7601, size: 0x8, addend: 0x0, symName: '__ZNSt3__110__function6__funcIZNK11llama_model13create_memoryERK19llama_memory_paramsRK13llama_cparamsE3$_3NS_9allocatorIS9_EEFbiEED1Ev', symObjAddr: 0x681C0, symBinAddr: 0xDF6A0, symSize: 0x10 }
  - { offset: 0x5B762B, size: 0x8, addend: 0x0, symName: '__ZNSt3__110__function6__funcIZNK11llama_model13create_memoryERK19llama_memory_paramsRK13llama_cparamsE3$_3NS_9allocatorIS9_EEFbiEED0Ev', symObjAddr: 0x681D0, symBinAddr: 0xDF6B0, symSize: 0x10 }
  - { offset: 0x5B7742, size: 0x8, addend: 0x0, symName: '__ZNKSt3__110__function6__funcIZNK11llama_model13create_memoryERK19llama_memory_paramsRK13llama_cparamsE3$_3NS_9allocatorIS9_EEFbiEE7__cloneEv', symObjAddr: 0x681E0, symBinAddr: 0xDF6C0, symSize: 0x30 }
  - { offset: 0x5B7931, size: 0x8, addend: 0x0, symName: '__ZNKSt3__110__function6__funcIZNK11llama_model13create_memoryERK19llama_memory_paramsRK13llama_cparamsE3$_3NS_9allocatorIS9_EEFbiEE7__cloneEPNS0_6__baseISC_EE', symObjAddr: 0x68210, symBinAddr: 0xDF6F0, symSize: 0x20 }
  - { offset: 0x5B79DC, size: 0x8, addend: 0x0, symName: '__ZNSt3__110__function6__funcIZNK11llama_model13create_memoryERK19llama_memory_paramsRK13llama_cparamsE3$_3NS_9allocatorIS9_EEFbiEE7destroyEv', symObjAddr: 0x68230, symBinAddr: 0xDF710, symSize: 0x10 }
  - { offset: 0x5B7A31, size: 0x8, addend: 0x0, symName: '__ZNSt3__110__function6__funcIZNK11llama_model13create_memoryERK19llama_memory_paramsRK13llama_cparamsE3$_3NS_9allocatorIS9_EEFbiEE18destroy_deallocateEv', symObjAddr: 0x68240, symBinAddr: 0xDF720, symSize: 0x10 }
  - { offset: 0x5B7B5F, size: 0x8, addend: 0x0, symName: '__ZNSt3__110__function6__funcIZNK11llama_model13create_memoryERK19llama_memory_paramsRK13llama_cparamsE3$_3NS_9allocatorIS9_EEFbiEEclEOi', symObjAddr: 0x68250, symBinAddr: 0xDF730, symSize: 0x40 }
  - { offset: 0x5B7C08, size: 0x8, addend: 0x0, symName: '__ZNKSt3__110__function6__funcIZNK11llama_model13create_memoryERK19llama_memory_paramsRK13llama_cparamsE3$_3NS_9allocatorIS9_EEFbiEE6targetERKSt9type_info', symObjAddr: 0x68290, symBinAddr: 0xDF770, symSize: 0x20 }
  - { offset: 0x5B7C78, size: 0x8, addend: 0x0, symName: '__ZNKSt3__110__function6__funcIZNK11llama_model13create_memoryERK19llama_memory_paramsRK13llama_cparamsE3$_3NS_9allocatorIS9_EEFbiEE11target_typeEv', symObjAddr: 0x682B0, symBinAddr: 0xDF790, symSize: 0x10 }
  - { offset: 0x5B7C9B, size: 0x8, addend: 0x0, symName: '__ZNSt3__110__function6__funcIZNK11llama_model13create_memoryERK19llama_memory_paramsRK13llama_cparamsE3$_4NS_9allocatorIS9_EEFiiEED1Ev', symObjAddr: 0x682C0, symBinAddr: 0xDF7A0, symSize: 0x10 }
  - { offset: 0x5B7CC5, size: 0x8, addend: 0x0, symName: '__ZNSt3__110__function6__funcIZNK11llama_model13create_memoryERK19llama_memory_paramsRK13llama_cparamsE3$_4NS_9allocatorIS9_EEFiiEED0Ev', symObjAddr: 0x682D0, symBinAddr: 0xDF7B0, symSize: 0x10 }
  - { offset: 0x5B7DDC, size: 0x8, addend: 0x0, symName: '__ZNKSt3__110__function6__funcIZNK11llama_model13create_memoryERK19llama_memory_paramsRK13llama_cparamsE3$_4NS_9allocatorIS9_EEFiiEE7__cloneEv', symObjAddr: 0x682E0, symBinAddr: 0xDF7C0, symSize: 0x30 }
  - { offset: 0x5B7FCB, size: 0x8, addend: 0x0, symName: '__ZNKSt3__110__function6__funcIZNK11llama_model13create_memoryERK19llama_memory_paramsRK13llama_cparamsE3$_4NS_9allocatorIS9_EEFiiEE7__cloneEPNS0_6__baseISC_EE', symObjAddr: 0x68310, symBinAddr: 0xDF7F0, symSize: 0x20 }
  - { offset: 0x5B8076, size: 0x8, addend: 0x0, symName: '__ZNSt3__110__function6__funcIZNK11llama_model13create_memoryERK19llama_memory_paramsRK13llama_cparamsE3$_4NS_9allocatorIS9_EEFiiEE7destroyEv', symObjAddr: 0x68330, symBinAddr: 0xDF810, symSize: 0x10 }
  - { offset: 0x5B80CB, size: 0x8, addend: 0x0, symName: '__ZNSt3__110__function6__funcIZNK11llama_model13create_memoryERK19llama_memory_paramsRK13llama_cparamsE3$_4NS_9allocatorIS9_EEFiiEE18destroy_deallocateEv', symObjAddr: 0x68340, symBinAddr: 0xDF820, symSize: 0x10 }
  - { offset: 0x5B81F9, size: 0x8, addend: 0x0, symName: '__ZNSt3__110__function6__funcIZNK11llama_model13create_memoryERK19llama_memory_paramsRK13llama_cparamsE3$_4NS_9allocatorIS9_EEFiiEEclEOi', symObjAddr: 0x68350, symBinAddr: 0xDF830, symSize: 0x30 }
  - { offset: 0x5B82A4, size: 0x8, addend: 0x0, symName: '__ZNKSt3__110__function6__funcIZNK11llama_model13create_memoryERK19llama_memory_paramsRK13llama_cparamsE3$_4NS_9allocatorIS9_EEFiiEE6targetERKSt9type_info', symObjAddr: 0x68380, symBinAddr: 0xDF860, symSize: 0x20 }
  - { offset: 0x5B8314, size: 0x8, addend: 0x0, symName: '__ZNKSt3__110__function6__funcIZNK11llama_model13create_memoryERK19llama_memory_paramsRK13llama_cparamsE3$_4NS_9allocatorIS9_EEFiiEE11target_typeEv', symObjAddr: 0x683A0, symBinAddr: 0xDF880, symSize: 0x10 }
  - { offset: 0x5B83C6, size: 0x8, addend: 0x0, symName: __GLOBAL__sub_I_llama_model.cpp, symObjAddr: 0x719F0, symBinAddr: 0xDF9D0, symSize: 0x91 }
  - { offset: 0x5BA63B, size: 0x8, addend: 0x0, symName: __ZL25llama_model_quantize_implRKNSt3__112basic_stringIcNS_11char_traitsIcEENS_9allocatorIcEEEES7_PK27llama_model_quantize_params, symObjAddr: 0x250, symBinAddr: 0xDFCC0, symSize: 0x74A0 }
  - { offset: 0x5F2996, size: 0x8, addend: 0x0, symName: '__ZNSt3__111__introsortINS_17_ClassicAlgPolicyERZL25llama_model_quantize_implRKNS_12basic_stringIcNS_11char_traitsIcEENS_9allocatorIcEEEES9_PK27llama_model_quantize_paramsE3$_0PPKN18llama_model_loader19llama_tensor_weightELb0EEEvT1_SK_T0_NS_15iterator_traitsISK_E15difference_typeEb', symObjAddr: 0x140A0, symBinAddr: 0xE7A20, symSize: 0xC90 }
  - { offset: 0x5F4713, size: 0x8, addend: 0x0, symName: '__ZNSt3__127__insertion_sort_incompleteB8ne200100INS_17_ClassicAlgPolicyERZL25llama_model_quantize_implRKNS_12basic_stringIcNS_11char_traitsIcEENS_9allocatorIcEEEES9_PK27llama_model_quantize_paramsE3$_0PPKN18llama_model_loader19llama_tensor_weightEEEbT1_SK_T0_', symObjAddr: 0x14E30, symBinAddr: 0xE87B0, symSize: 0x360 }
  - { offset: 0x610FE1, size: 0x8, addend: 0x0, symName: '__ZNSt3__17__sort4B8ne200100INS_17_ClassicAlgPolicyERZL25llama_model_quantize_implRKNS_12basic_stringIcNS_11char_traitsIcEENS_9allocatorIcEEEES9_PK27llama_model_quantize_paramsE3$_0PPKN18llama_model_loader19llama_tensor_weightELi0EEEvT1_SK_SK_SK_T0_', symObjAddr: 0x14D30, symBinAddr: 0xE86B0, symSize: 0x100 }
  - { offset: 0x611AB5, size: 0x8, addend: 0x0, symName: '__ZNSt3__114__thread_proxyB8ne200100INS_5tupleIJNS_10unique_ptrINS_15__thread_structENS_14default_deleteIS3_EEEEZL28llama_tensor_dequantize_implP11ggml_tensorRNS_6vectorI7no_initIfENS_9allocatorISB_EEEERNS9_INS_6threadENSC_ISG_EEEEmiE3$_09ggml_typePhPfmEEEEEPvSP_', symObjAddr: 0x197A0, symBinAddr: 0xE90F0, symSize: 0xB0 }
  - { offset: 0x611EB0, size: 0x8, addend: 0x0, symName: '__ZNSt3__114__thread_proxyB8ne200100INS_5tupleIJNS_10unique_ptrINS_15__thread_structENS_14default_deleteIS3_EEEEZL26llama_tensor_quantize_impl9ggml_typePKfPvxxxS9_RNS_6vectorINS_6threadENS_9allocatorISC_EEEEiE3$_0EEEEESA_SA_', symObjAddr: 0x19A00, symBinAddr: 0xE9310, symSize: 0x80 }
  - { offset: 0x616CA6, size: 0x8, addend: 0x0, symName: _llama_model_quantize_default_params, symObjAddr: 0x0, symBinAddr: 0xDFA70, symSize: 0x40 }
  - { offset: 0x616F9A, size: 0x8, addend: 0x0, symName: _llama_model_quantize, symObjAddr: 0x40, symBinAddr: 0xDFAB0, symSize: 0x210 }
  - { offset: 0x61FAFE, size: 0x8, addend: 0x0, symName: __ZNSt3__16vectorIiNS_9allocatorIiEEE18__assign_with_sizeB8ne200100IPiS5_EEvT_T0_l, symObjAddr: 0x8040, symBinAddr: 0xE78D0, symSize: 0x140 }
  - { offset: 0x62122B, size: 0x8, addend: 0x0, symName: '__ZZL25llama_model_quantize_implRKNSt3__112basic_stringIcNS_11char_traitsIcEENS_9allocatorIcEEEES7_PK27llama_model_quantize_paramsENK3$_2clEi', symObjAddr: 0x77E0, symBinAddr: 0xE7160, symSize: 0x410 }
  - { offset: 0x621F70, size: 0x8, addend: 0x0, symName: '__ZZL25llama_model_quantize_implRKNSt3__112basic_stringIcNS_11char_traitsIcEENS_9allocatorIcEEEES7_PK27llama_model_quantize_paramsENK3$_1clEv', symObjAddr: 0x7BF0, symBinAddr: 0xE7570, symSize: 0x220 }
  - { offset: 0x6226EB, size: 0x8, addend: 0x0, symName: __ZNKSt3__112__hash_tableINS_17__hash_value_typeINS_12basic_stringIcNS_11char_traitsIcEENS_9allocatorIcEEEENS_6vectorIfNS5_IfEEEEEENS_22__unordered_map_hasherIS7_SB_NS_4hashIS7_EENS_8equal_toIS7_EELb1EEENS_21__unordered_map_equalIS7_SB_SG_SE_Lb1EEENS5_ISB_EEE4findIS7_EENS_21__hash_const_iteratorIPNS_11__hash_nodeISB_PvEEEERKT_, symObjAddr: 0x19050, symBinAddr: 0xE8E50, symSize: 0x290 }
  - { offset: 0x622D13, size: 0x8, addend: 0x0, symName: '__ZZL21llama_tensor_get_typeR19quantize_state_impl9ggml_typePK11ggml_tensor11llama_ftypeENK3$_1clEiiPKc', symObjAddr: 0x18F20, symBinAddr: 0xE8D20, symSize: 0x130 }
  - { offset: 0x622E6E, size: 0x8, addend: 0x0, symName: __ZNSt3__16__treeINS_12__value_typeIiNS_12basic_stringIcNS_11char_traitsIcEENS_9allocatorIcEEEEEENS_19__map_value_compareIiS8_NS_4lessIiEELb1EEENS5_IS8_EEE7destroyEPNS_11__tree_nodeIS8_PvEE, symObjAddr: 0x19AD0, symBinAddr: 0xE93E0, symSize: 0x50 }
  - { offset: 0x623103, size: 0x8, addend: 0x0, symName: __ZN18llama_model_loaderD2Ev, symObjAddr: 0x19B20, symBinAddr: 0xE9430, symSize: 0x1F0 }
  - { offset: 0x623E0C, size: 0x8, addend: 0x0, symName: __ZNSt3__16vectorINS_6threadENS_9allocatorIS1_EEE20__throw_length_errorB8ne200100Ev, symObjAddr: 0x151D0, symBinAddr: 0xE8B10, symSize: 0x10 }
  - { offset: 0x623E24, size: 0x8, addend: 0x0, symName: __ZNSt3__114__split_bufferINS_6threadERNS_9allocatorIS1_EEED1Ev, symObjAddr: 0x151E0, symBinAddr: 0xE8B20, symSize: 0x50 }
  - { offset: 0x623E5F, size: 0x8, addend: 0x0, symName: __ZNSt3__16vectorIPKN18llama_model_loader19llama_tensor_weightENS_9allocatorIS4_EEE20__throw_length_errorB8ne200100Ev, symObjAddr: 0x8250, symBinAddr: 0xE7A10, symSize: 0x10 }
  - { offset: 0x623E97, size: 0x8, addend: 0x0, symName: __ZNSt3__16vectorI7no_initIfENS_9allocatorIS2_EEE20__throw_length_errorB8ne200100Ev, symObjAddr: 0x19790, symBinAddr: 0xE90E0, symSize: 0x10 }
  - { offset: 0x623EAF, size: 0x8, addend: 0x0, symName: '__ZNSt3__114__thread_proxyB8ne200100INS_5tupleIJNS_10unique_ptrINS_15__thread_structENS_14default_deleteIS3_EEEEZL28llama_tensor_dequantize_implP11ggml_tensorRNS_6vectorI7no_initIfENS_9allocatorISB_EEEERNS9_INS_6threadENSC_ISG_EEEEmiE3$_09ggml_typePhPfmEEEEEPvSP_', symObjAddr: 0x197A0, symBinAddr: 0xE90F0, symSize: 0xB0 }
  - { offset: 0x623EBA, size: 0x8, addend: 0x0, symName: __ZNSt3__128__exception_guard_exceptionsINS_6vectorINS_10unique_ptrI12gguf_context20gguf_context_deleterEENS_9allocatorIS5_EEE16__destroy_vectorEED1B8ne200100Ev, symObjAddr: 0x15230, symBinAddr: 0xE8B70, symSize: 0x80 }
  - { offset: 0x62408B, size: 0x8, addend: 0x0, symName: '__ZNSt3__110unique_ptrINS_5tupleIJNS0_INS_15__thread_structENS_14default_deleteIS2_EEEEZL28llama_tensor_dequantize_implP11ggml_tensorRNS_6vectorI7no_initIfENS_9allocatorISA_EEEERNS8_INS_6threadENSB_ISF_EEEEmiE3$_09ggml_typePhPfmEEENS3_ISN_EEED1B8ne200100Ev', symObjAddr: 0x19850, symBinAddr: 0xE91A0, symSize: 0x50 }
  - { offset: 0x624286, size: 0x8, addend: 0x0, symName: __ZNSt3__114__split_bufferINS_6threadERNS_9allocatorIS1_EEED1Ev, symObjAddr: 0x151E0, symBinAddr: 0xE8B20, symSize: 0x50 }
  - { offset: 0x6243DD, size: 0x8, addend: 0x0, symName: __ZNSt3__16vectorINS_10unique_ptrI12gguf_context20gguf_context_deleterEENS_9allocatorIS4_EEED1B8ne200100Ev, symObjAddr: 0x7EB0, symBinAddr: 0xE77E0, symSize: 0x80 }
  - { offset: 0x624647, size: 0x8, addend: 0x0, symName: '__ZNSt3__110unique_ptrINS_5tupleIJNS0_INS_15__thread_structENS_14default_deleteIS2_EEEEZL26llama_tensor_quantize_impl9ggml_typePKfPvxxxS8_RNS_6vectorINS_6threadENS_9allocatorISB_EEEEiE3$_0EEENS3_ISH_EEED1B8ne200100Ev', symObjAddr: 0x19A80, symBinAddr: 0xE9390, symSize: 0x50 }
  - { offset: 0x6247F1, size: 0x8, addend: 0x0, symName: __ZNSt3__114basic_ofstreamIcNS_11char_traitsIcEEED1Ev, symObjAddr: 0x7E60, symBinAddr: 0xE7790, symSize: 0x50 }
  - { offset: 0x624839, size: 0x8, addend: 0x0, symName: __ZNSt3__16vectorINS_6threadENS_9allocatorIS1_EEED1B8ne200100Ev, symObjAddr: 0x7F30, symBinAddr: 0xE7860, symSize: 0x70 }
  - { offset: 0x624EA4, size: 0x8, addend: 0x0, symName: __ZNSt3__114basic_ofstreamIcNS_11char_traitsIcEEEC1ERKNS_12basic_stringIcS2_NS_9allocatorIcEEEEj, symObjAddr: 0x152B0, symBinAddr: 0xE8BF0, symSize: 0x130 }
  - { offset: 0x6426FE, size: 0x8, addend: 0x0, symName: '__ZZL26llama_tensor_quantize_impl9ggml_typePKfPvxxxS1_RNSt3__16vectorINS3_6threadENS3_9allocatorIS5_EEEEiENK3$_0clEv', symObjAddr: 0x198E0, symBinAddr: 0xE91F0, symSize: 0x120 }
  - { offset: 0x645476, size: 0x8, addend: 0x0, symName: __ZL21llama_sampler_chain_i, symObjAddr: 0x20C20, symBinAddr: 0x32A2B8, symSize: 0x0 }
  - { offset: 0x645685, size: 0x8, addend: 0x0, symName: __ZL22llama_sampler_greedy_i, symObjAddr: 0x20C70, symBinAddr: 0x32A308, symSize: 0x0 }
  - { offset: 0x645693, size: 0x8, addend: 0x0, symName: __ZL12get_rng_seedj, symObjAddr: 0x9E0, symBinAddr: 0xEA000, symSize: 0x140 }
  - { offset: 0x6456BF, size: 0x8, addend: 0x0, symName: __ZZL12get_rng_seedjE10is_rd_prng, symObjAddr: 0x20E1F0, symBinAddr: 0x3B6168, symSize: 0x0 }
  - { offset: 0x645A23, size: 0x8, addend: 0x0, symName: __ZL20llama_sampler_dist_i, symObjAddr: 0x20CC0, symBinAddr: 0x32A358, symSize: 0x0 }
  - { offset: 0x645A3E, size: 0x8, addend: 0x0, symName: __ZL21llama_sampler_empty_i, symObjAddr: 0x211C0, symBinAddr: 0x32A858, symSize: 0x0 }
  - { offset: 0x645A59, size: 0x8, addend: 0x0, symName: __ZL21llama_sampler_top_k_i, symObjAddr: 0x20D10, symBinAddr: 0x32A3A8, symSize: 0x0 }
  - { offset: 0x645A67, size: 0x8, addend: 0x0, symName: __ZL43llama_token_data_array_partial_sort_inplaceP22llama_token_data_arrayi, symObjAddr: 0x4BC0, symBinAddr: 0xEE150, symSize: 0x540 }
  - { offset: 0x646260, size: 0x8, addend: 0x0, symName: __ZL35llama_token_data_array_partial_sortRK22llama_token_data_arrayiRNSt3__16vectorI16llama_token_dataNS2_9allocatorIS4_EEEE, symObjAddr: 0x5100, symBinAddr: 0xEE690, symSize: 0x5E0 }
  - { offset: 0x65BD73, size: 0x8, addend: 0x0, symName: '__ZNSt3__111__introsortINS_17_ClassicAlgPolicyERZL35llama_token_data_array_partial_sortRK22llama_token_data_arrayiRNS_6vectorI16llama_token_dataNS_9allocatorIS6_EEEEE3$_0PS6_Lb0EEEvT1_SE_T0_NS_15iterator_traitsISE_E15difference_typeEb', symObjAddr: 0x57C0, symBinAddr: 0xEEC80, symSize: 0xD70 }
  - { offset: 0x65D5E7, size: 0x8, addend: 0x0, symName: '__ZNSt3__127__insertion_sort_incompleteB8ne200100INS_17_ClassicAlgPolicyERZL35llama_token_data_array_partial_sortRK22llama_token_data_arrayiRNS_6vectorI16llama_token_dataNS_9allocatorIS6_EEEEE3$_0PS6_EEbT1_SE_T0_', symObjAddr: 0x6790, symBinAddr: 0xEFC50, symSize: 0x4D0 }
  - { offset: 0x65F8D2, size: 0x8, addend: 0x0, symName: '__ZNSt3__111__introsortINS_17_ClassicAlgPolicyERZL27llama_sampler_typical_applyP13llama_samplerP22llama_token_data_arrayE3$_0PmLb0EEEvT1_S9_T0_NS_15iterator_traitsIS9_E15difference_typeEb', symObjAddr: 0x8950, symBinAddr: 0xF1DF0, symSize: 0xAF0 }
  - { offset: 0x661441, size: 0x8, addend: 0x0, symName: '__ZNSt3__127__insertion_sort_incompleteB8ne200100INS_17_ClassicAlgPolicyERZL27llama_sampler_typical_applyP13llama_samplerP22llama_token_data_arrayE3$_0PmEEbT1_S9_T0_', symObjAddr: 0x9590, symBinAddr: 0xF2A30, symSize: 0x320 }
  - { offset: 0x66C770, size: 0x8, addend: 0x0, symName: __ZNSt3__113regex_replaceB8ne200100INS_20back_insert_iteratorINS_12basic_stringIcNS_11char_traitsIcEENS_9allocatorIcEEEEEEPKcNS_12regex_traitsIcEEcEET_SD_T0_SE_RKNS_11basic_regexIT2_T1_EEPKSG_NS_15regex_constants15match_flag_typeE, symObjAddr: 0x15D60, symBinAddr: 0xF6000, symSize: 0x300 }
  - { offset: 0x66F177, size: 0x8, addend: 0x0, symName: '__ZNSt3__119__partial_sort_implB8ne200100INS_17_ClassicAlgPolicyERZL35llama_token_data_array_partial_sortRK22llama_token_data_arrayiRNS_6vectorI16llama_token_dataNS_9allocatorIS6_EEEEE3$_0PS6_SD_EET1_SE_SE_T2_OT0_', symObjAddr: 0x6C60, symBinAddr: 0xF0120, symSize: 0x480 }
  - { offset: 0x66F961, size: 0x8, addend: 0x0, symName: '__ZNSt3__17__sort5B8ne200100INS_17_ClassicAlgPolicyERZL35llama_token_data_array_partial_sortRK22llama_token_data_arrayiRNS_6vectorI16llama_token_dataNS_9allocatorIS6_EEEEE3$_0PS6_Li0EEEvT1_SE_SE_SE_SE_T0_', symObjAddr: 0x6530, symBinAddr: 0xEF9F0, symSize: 0x260 }
  - { offset: 0x6711CF, size: 0x8, addend: 0x0, symName: '__ZNSt3__17__sort5B8ne200100INS_17_ClassicAlgPolicyERZL27llama_sampler_typical_applyP13llama_samplerP22llama_token_data_arrayE3$_0PmLi0EEEvT1_S9_S9_S9_S9_T0_', symObjAddr: 0x9440, symBinAddr: 0xF28E0, symSize: 0x150 }
  - { offset: 0x677DFC, size: 0x8, addend: 0x0, symName: __ZL21llama_sampler_top_p_i, symObjAddr: 0x20D60, symBinAddr: 0x32A3F8, symSize: 0x0 }
  - { offset: 0x677E17, size: 0x8, addend: 0x0, symName: __ZL21llama_sampler_min_p_i, symObjAddr: 0x20DB0, symBinAddr: 0x32A448, symSize: 0x0 }
  - { offset: 0x677E32, size: 0x8, addend: 0x0, symName: __ZL23llama_sampler_typical_i, symObjAddr: 0x20E00, symBinAddr: 0x32A498, symSize: 0x0 }
  - { offset: 0x677E4D, size: 0x8, addend: 0x0, symName: __ZL20llama_sampler_temp_i, symObjAddr: 0x20E50, symBinAddr: 0x32A4E8, symSize: 0x0 }
  - { offset: 0x677E68, size: 0x8, addend: 0x0, symName: __ZL24llama_sampler_temp_ext_i, symObjAddr: 0x20EA0, symBinAddr: 0x32A538, symSize: 0x0 }
  - { offset: 0x677E83, size: 0x8, addend: 0x0, symName: __ZL19llama_sampler_xtc_i, symObjAddr: 0x20EF0, symBinAddr: 0x32A588, symSize: 0x0 }
  - { offset: 0x677E9E, size: 0x8, addend: 0x0, symName: __ZL24llama_sampler_mirostat_i, symObjAddr: 0x20F40, symBinAddr: 0x32A5D8, symSize: 0x0 }
  - { offset: 0x677EB9, size: 0x8, addend: 0x0, symName: __ZL27llama_sampler_mirostat_v2_i, symObjAddr: 0x20F90, symBinAddr: 0x32A628, symSize: 0x0 }
  - { offset: 0x677EC7, size: 0x8, addend: 0x0, symName: __ZL31llama_sampler_init_grammar_implPK11llama_vocabPKcS3_bPS3_mPKimS4_m, symObjAddr: 0x1240, symBinAddr: 0xEA860, symSize: 0x650 }
  - { offset: 0x677EE8, size: 0x8, addend: 0x0, symName: __ZZL31llama_sampler_init_grammar_implPK11llama_vocabPKcS3_bPS3_mPKimS4_mE13special_chars, symObjAddr: 0x20E200, symBinAddr: 0x3B6178, symSize: 0x0 }
  - { offset: 0x6798C0, size: 0x8, addend: 0x0, symName: __ZL23llama_sampler_grammar_i, symObjAddr: 0x21210, symBinAddr: 0x32A8A8, symSize: 0x0 }
  - { offset: 0x6798DB, size: 0x8, addend: 0x0, symName: __ZL25llama_sampler_penalties_i, symObjAddr: 0x20FE0, symBinAddr: 0x32A678, symSize: 0x0 }
  - { offset: 0x6798FB, size: 0x8, addend: 0x0, symName: __ZL27llama_sampler_top_n_sigma_i, symObjAddr: 0x21030, symBinAddr: 0x32A6C8, symSize: 0x0 }
  - { offset: 0x679916, size: 0x8, addend: 0x0, symName: __ZL19llama_sampler_dry_i, symObjAddr: 0x21080, symBinAddr: 0x32A718, symSize: 0x0 }
  - { offset: 0x679931, size: 0x8, addend: 0x0, symName: __ZL26llama_sampler_adaptive_p_i, symObjAddr: 0x210D0, symBinAddr: 0x32A768, symSize: 0x0 }
  - { offset: 0x679987, size: 0x8, addend: 0x0, symName: __ZL26llama_sampler_logit_bias_i, symObjAddr: 0x21120, symBinAddr: 0x32A7B8, symSize: 0x0 }
  - { offset: 0x6799A2, size: 0x8, addend: 0x0, symName: __ZL22llama_sampler_infill_i, symObjAddr: 0x21170, symBinAddr: 0x32A808, symSize: 0x0 }
  - { offset: 0x67AEAF, size: 0x8, addend: 0x0, symName: __ZL17llama_sample_distP22llama_token_data_arrayRNSt3__123mersenne_twister_engineIjLm32ELm624ELm397ELm31ELj2567483615ELm11ELj4294967295ELm7ELj2636928640ELm15ELj4022730752ELm18ELj1812433253EEE, symObjAddr: 0xBC40, symBinAddr: 0xF50E0, symSize: 0x230 }
  - { offset: 0x67CA96, size: 0x8, addend: 0x0, symName: _llama_sampler_init, symObjAddr: 0x0, symBinAddr: 0xE9620, symSize: 0x30 }
  - { offset: 0x67CABD, size: 0x8, addend: 0x0, symName: _llama_sampler_name, symObjAddr: 0x30, symBinAddr: 0xE9650, symSize: 0x20 }
  - { offset: 0x67CAF4, size: 0x8, addend: 0x0, symName: _llama_sampler_accept, symObjAddr: 0x50, symBinAddr: 0xE9670, symSize: 0x20 }
  - { offset: 0x67CB23, size: 0x8, addend: 0x0, symName: _llama_sampler_apply, symObjAddr: 0x70, symBinAddr: 0xE9690, symSize: 0x40 }
  - { offset: 0x67CB85, size: 0x8, addend: 0x0, symName: _llama_sampler_reset, symObjAddr: 0xB0, symBinAddr: 0xE96D0, symSize: 0x20 }
  - { offset: 0x67CBD4, size: 0x8, addend: 0x0, symName: _llama_sampler_clone, symObjAddr: 0xD0, symBinAddr: 0xE96F0, symSize: 0x70 }
  - { offset: 0x67CC37, size: 0x8, addend: 0x0, symName: _llama_sampler_free, symObjAddr: 0x140, symBinAddr: 0xE9760, symSize: 0x30 }
  - { offset: 0x67CC9B, size: 0x8, addend: 0x0, symName: _llama_sampler_chain_init, symObjAddr: 0x170, symBinAddr: 0xE9790, symSize: 0x50 }
  - { offset: 0x67CF5D, size: 0x8, addend: 0x0, symName: _llama_sampler_sample, symObjAddr: 0x1C0, symBinAddr: 0xE97E0, symSize: 0x4E0 }
  - { offset: 0x67D8BB, size: 0x8, addend: 0x0, symName: __ZNSt3__16vectorI16llama_token_dataNS_9allocatorIS1_EEE8__appendEm, symObjAddr: 0x1F1A0, symBinAddr: 0xFC250, symSize: 0x1A0 }
  - { offset: 0x67E03D, size: 0x8, addend: 0x0, symName: _llama_sampler_chain_add, symObjAddr: 0x6A0, symBinAddr: 0xE9CC0, symSize: 0x120 }
  - { offset: 0x67E481, size: 0x8, addend: 0x0, symName: __ZNSt3__16vectorIN19llama_sampler_chain4infoENS_9allocatorIS2_EEE20__throw_length_errorB8ne200100Ev, symObjAddr: 0x1F340, symBinAddr: 0xFC3F0, symSize: 0x10 }
  - { offset: 0x67E4A4, size: 0x8, addend: 0x0, symName: _llama_sampler_chain_get, symObjAddr: 0x7C0, symBinAddr: 0xE9DE0, symSize: 0x50 }
  - { offset: 0x67E645, size: 0x8, addend: 0x0, symName: _llama_sampler_chain_remove, symObjAddr: 0x810, symBinAddr: 0xE9E30, symSize: 0x70 }
  - { offset: 0x67E89E, size: 0x8, addend: 0x0, symName: _llama_sampler_chain_n, symObjAddr: 0x880, symBinAddr: 0xE9EA0, symSize: 0x20 }
  - { offset: 0x67E924, size: 0x8, addend: 0x0, symName: _llama_sampler_init_greedy, symObjAddr: 0x8A0, symBinAddr: 0xE9EC0, symSize: 0x60 }
  - { offset: 0x67E993, size: 0x8, addend: 0x0, symName: __ZN21llama_sampler_backendC2EPKc, symObjAddr: 0x3C80, symBinAddr: 0xED210, symSize: 0x130 }
  - { offset: 0x67F0FB, size: 0x8, addend: 0x0, symName: _llama_sampler_init_dist, symObjAddr: 0x900, symBinAddr: 0xE9F20, symSize: 0xE0 }
  - { offset: 0x67F44A, size: 0x8, addend: 0x0, symName: __ZNSt3__113random_deviceC1B8ne200100Ev, symObjAddr: 0x3DB0, symBinAddr: 0xED340, symSize: 0x60 }
  - { offset: 0x67F77C, size: 0x8, addend: 0x0, symName: __ZN21llama_sampler_backendD1Ev, symObjAddr: 0xB20, symBinAddr: 0xEA140, symSize: 0x40 }
  - { offset: 0x67F9C8, size: 0x8, addend: 0x0, symName: _llama_sampler_init_top_k, symObjAddr: 0xB60, symBinAddr: 0xEA180, symSize: 0x80 }
  - { offset: 0x67FA3F, size: 0x8, addend: 0x0, symName: _llama_sampler_init_top_p, symObjAddr: 0xBE0, symBinAddr: 0xEA200, symSize: 0xB0 }
  - { offset: 0x67FAFE, size: 0x8, addend: 0x0, symName: _llama_sampler_init_min_p, symObjAddr: 0xC90, symBinAddr: 0xEA2B0, symSize: 0xA0 }
  - { offset: 0x67FB7E, size: 0x8, addend: 0x0, symName: _llama_sampler_init_typical, symObjAddr: 0xD30, symBinAddr: 0xEA350, symSize: 0x80 }
  - { offset: 0x67FBCA, size: 0x8, addend: 0x0, symName: _llama_sampler_init_temp, symObjAddr: 0xDB0, symBinAddr: 0xEA3D0, symSize: 0xA0 }
  - { offset: 0x67FC41, size: 0x8, addend: 0x0, symName: _llama_sampler_init_temp_ext, symObjAddr: 0xE50, symBinAddr: 0xEA470, symSize: 0xC0 }
  - { offset: 0x67FCD3, size: 0x8, addend: 0x0, symName: _llama_sampler_init_xtc, symObjAddr: 0xF10, symBinAddr: 0xEA530, symSize: 0x120 }
  - { offset: 0x67FDD5, size: 0x8, addend: 0x0, symName: _llama_sampler_init_mirostat, symObjAddr: 0x1030, symBinAddr: 0xEA650, symSize: 0x100 }
  - { offset: 0x67FF00, size: 0x8, addend: 0x0, symName: _llama_sampler_init_mirostat_v2, symObjAddr: 0x1130, symBinAddr: 0xEA750, symSize: 0xE0 }
  - { offset: 0x680019, size: 0x8, addend: 0x0, symName: _llama_sampler_init_grammar, symObjAddr: 0x1210, symBinAddr: 0xEA830, symSize: 0x30 }
  - { offset: 0x680553, size: 0x8, addend: 0x0, symName: _llama_sampler_init_grammar_lazy, symObjAddr: 0x1890, symBinAddr: 0xEAEB0, symSize: 0x40 }
  - { offset: 0x680615, size: 0x8, addend: 0x0, symName: _llama_sampler_init_grammar_lazy_patterns, symObjAddr: 0x18D0, symBinAddr: 0xEAEF0, symSize: 0x30 }
  - { offset: 0x68097E, size: 0x8, addend: 0x0, symName: _llama_sampler_init_penalties, symObjAddr: 0x1900, symBinAddr: 0xEAF20, symSize: 0x130 }
  - { offset: 0x680CB6, size: 0x8, addend: 0x0, symName: _llama_sampler_init_top_n_sigma, symObjAddr: 0x1A30, symBinAddr: 0xEB050, symSize: 0x70 }
  - { offset: 0x682245, size: 0x8, addend: 0x0, symName: _llama_sampler_init_dry, symObjAddr: 0x1AA0, symBinAddr: 0xEB0C0, symSize: 0xF20 }
  - { offset: 0x685567, size: 0x8, addend: 0x0, symName: __ZNSt3__112__hash_tableINS_17__hash_value_typeIiNS_6vectorIiNS_9allocatorIiEEEEEENS_22__unordered_map_hasherIiS6_NS_4hashIiEENS_8equal_toIiEELb1EEENS_21__unordered_map_equalIiS6_SB_S9_Lb1EEENS3_IS6_EEE27__node_insert_multi_prepareEmRS6_, symObjAddr: 0x1AB20, symBinAddr: 0xF7D20, symSize: 0x3B0 }
  - { offset: 0x68586D, size: 0x8, addend: 0x0, symName: __ZNSt3__112__hash_tableINS_17__hash_value_typeIiNS_6vectorIiNS_9allocatorIiEEEEEENS_22__unordered_map_hasherIiS6_NS_4hashIiEENS_8equal_toIiEELb1EEENS_21__unordered_map_equalIiS6_SB_S9_Lb1EEENS3_IS6_EEE19__node_insert_multiEPNS_11__hash_nodeIS6_PvEE, symObjAddr: 0x1A940, symBinAddr: 0xF7B40, symSize: 0x190 }
  - { offset: 0x685C1A, size: 0x8, addend: 0x0, symName: __ZNSt3__118unordered_multimapIiNS_6vectorIiNS_9allocatorIiEEEENS_4hashIiEENS_8equal_toIiEENS2_INS_4pairIKiS4_EEEEED1B8ne200100Ev, symObjAddr: 0x2A10, symBinAddr: 0xEBFE0, symSize: 0x70 }
  - { offset: 0x686010, size: 0x8, addend: 0x0, symName: __ZNSt3__110unique_ptrINS_11__hash_nodeINS_17__hash_value_typeIiNS_6vectorIiNS_9allocatorIiEEEEEEPvEENS_22__hash_node_destructorINS4_IS9_EEEEED1B8ne200100Ev, symObjAddr: 0x1AAD0, symBinAddr: 0xF7CD0, symSize: 0x50 }
  - { offset: 0x68672C, size: 0x8, addend: 0x0, symName: __Z30llama_sampler_init_dry_testingiffiiRKNSt3__16vectorINS0_IiNS_9allocatorIiEEEENS1_IS3_EEEE, symObjAddr: 0x2A80, symBinAddr: 0xEC050, symSize: 0x290 }
  - { offset: 0x687288, size: 0x8, addend: 0x0, symName: _llama_sampler_init_adaptive_p, symObjAddr: 0x2D10, symBinAddr: 0xEC2E0, symSize: 0x140 }
  - { offset: 0x687678, size: 0x8, addend: 0x0, symName: _llama_sampler_init_logit_bias, symObjAddr: 0x2E50, symBinAddr: 0xEC420, symSize: 0x110 }
  - { offset: 0x687C3B, size: 0x8, addend: 0x0, symName: _llama_sampler_init_infill, symObjAddr: 0x2F60, symBinAddr: 0xEC530, symSize: 0x100 }
  - { offset: 0x6881E6, size: 0x8, addend: 0x0, symName: _llama_sampler_get_seed, symObjAddr: 0x3060, symBinAddr: 0xEC630, symSize: 0xA0 }
  - { offset: 0x688391, size: 0x8, addend: 0x0, symName: _llama_perf_sampler, symObjAddr: 0x3100, symBinAddr: 0xEC6D0, symSize: 0x60 }
  - { offset: 0x68848C, size: 0x8, addend: 0x0, symName: _llama_perf_sampler_print, symObjAddr: 0x3160, symBinAddr: 0xEC730, symSize: 0x70 }
  - { offset: 0x688571, size: 0x8, addend: 0x0, symName: _llama_perf_sampler_reset, symObjAddr: 0x31D0, symBinAddr: 0xEC7A0, symSize: 0x50 }
  - { offset: 0x6885BE, size: 0x8, addend: 0x0, symName: __ZL24llama_sampler_chain_namePK13llama_sampler, symObjAddr: 0x3220, symBinAddr: 0xEC7F0, symSize: 0x10 }
  - { offset: 0x688635, size: 0x8, addend: 0x0, symName: __ZL26llama_sampler_chain_acceptP13llama_sampleri, symObjAddr: 0x3230, symBinAddr: 0xEC800, symSize: 0xA0 }
  - { offset: 0x68879F, size: 0x8, addend: 0x0, symName: __ZL25llama_sampler_chain_applyP13llama_samplerP22llama_token_data_array, symObjAddr: 0x32D0, symBinAddr: 0xEC8A0, symSize: 0xB0 }
  - { offset: 0x688917, size: 0x8, addend: 0x0, symName: __ZL25llama_sampler_chain_resetP13llama_sampler, symObjAddr: 0x3380, symBinAddr: 0xEC950, symSize: 0x50 }
  - { offset: 0x688AB5, size: 0x8, addend: 0x0, symName: __ZL25llama_sampler_chain_clonePK13llama_sampler, symObjAddr: 0x33D0, symBinAddr: 0xEC9A0, symSize: 0xE0 }
  - { offset: 0x688D82, size: 0x8, addend: 0x0, symName: __ZL24llama_sampler_chain_freeP13llama_sampler, symObjAddr: 0x34B0, symBinAddr: 0xECA80, symSize: 0x90 }
  - { offset: 0x689128, size: 0x8, addend: 0x0, symName: __ZL32llama_sampler_chain_backend_initP13llama_samplerP24ggml_backend_buffer_type, symObjAddr: 0x3540, symBinAddr: 0xECB10, symSize: 0x90 }
  - { offset: 0x689283, size: 0x8, addend: 0x0, symName: __ZL34llama_sampler_chain_backend_acceptP13llama_samplerP12ggml_contextP11ggml_cgraphP11ggml_tensor, symObjAddr: 0x35D0, symBinAddr: 0xECBA0, symSize: 0x70 }
  - { offset: 0x6893D3, size: 0x8, addend: 0x0, symName: __ZL33llama_sampler_chain_backend_applyP13llama_samplerP12ggml_contextP11ggml_cgraphP18llama_sampler_data, symObjAddr: 0x3640, symBinAddr: 0xECC10, symSize: 0x90 }
  - { offset: 0x689538, size: 0x8, addend: 0x0, symName: __ZL37llama_sampler_chain_backend_set_inputP13llama_sampler, symObjAddr: 0x36D0, symBinAddr: 0xECCA0, symSize: 0x50 }
  - { offset: 0x689655, size: 0x8, addend: 0x0, symName: __ZL25llama_sampler_greedy_namePK13llama_sampler, symObjAddr: 0x3730, symBinAddr: 0xECCF0, symSize: 0x10 }
  - { offset: 0x6896A3, size: 0x8, addend: 0x0, symName: __ZN21llama_sampler_backend8get_nameEv, symObjAddr: 0x3940, symBinAddr: 0xECF00, symSize: 0x90 }
  - { offset: 0x6898B7, size: 0x8, addend: 0x0, symName: __ZL26llama_sampler_greedy_applyP13llama_samplerP22llama_token_data_array, symObjAddr: 0x3740, symBinAddr: 0xECD00, symSize: 0xC0 }
  - { offset: 0x689901, size: 0x8, addend: 0x0, symName: __ZL26llama_sampler_greedy_resetP13llama_sampler, symObjAddr: 0x3800, symBinAddr: 0xECDC0, symSize: 0x10 }
  - { offset: 0x689943, size: 0x8, addend: 0x0, symName: __ZL26llama_sampler_greedy_clonePK13llama_sampler, symObjAddr: 0x3810, symBinAddr: 0xECDD0, symSize: 0x60 }
  - { offset: 0x689A33, size: 0x8, addend: 0x0, symName: __ZL25llama_sampler_greedy_freeP13llama_sampler, symObjAddr: 0x3870, symBinAddr: 0xECE30, symSize: 0x50 }
  - { offset: 0x689CDA, size: 0x8, addend: 0x0, symName: __ZL33llama_sampler_greedy_backend_initP13llama_samplerP24ggml_backend_buffer_type, symObjAddr: 0x38C0, symBinAddr: 0xECE80, symSize: 0x50 }
  - { offset: 0x689D87, size: 0x8, addend: 0x0, symName: __ZL29llama_sampler_backend_supportP13llama_samplerP24ggml_backend_buffer_type, symObjAddr: 0x39D0, symBinAddr: 0xECF90, symSize: 0x280 }
  - { offset: 0x68A265, size: 0x8, addend: 0x0, symName: __ZL34llama_sampler_greedy_backend_applyP13llama_samplerP12ggml_contextP11ggml_cgraphP18llama_sampler_data, symObjAddr: 0x3910, symBinAddr: 0xECED0, symSize: 0x30 }
  - { offset: 0x68A5C9, size: 0x8, addend: 0x0, symName: __ZL23llama_sampler_dist_namePK13llama_sampler, symObjAddr: 0x3E10, symBinAddr: 0xED3A0, symSize: 0x10 }
  - { offset: 0x68A7F0, size: 0x8, addend: 0x0, symName: __ZL24llama_sampler_dist_applyP13llama_samplerP22llama_token_data_array, symObjAddr: 0x3E20, symBinAddr: 0xED3B0, symSize: 0x370 }
  - { offset: 0x68AB3B, size: 0x8, addend: 0x0, symName: __ZL24llama_sampler_dist_resetP13llama_sampler, symObjAddr: 0x4190, symBinAddr: 0xED720, symSize: 0x90 }
  - { offset: 0x68AC04, size: 0x8, addend: 0x0, symName: __ZL24llama_sampler_dist_clonePK13llama_sampler, symObjAddr: 0x4220, symBinAddr: 0xED7B0, symSize: 0x110 }
  - { offset: 0x68AE6B, size: 0x8, addend: 0x0, symName: __ZL23llama_sampler_dist_freeP13llama_sampler, symObjAddr: 0x4330, symBinAddr: 0xED8C0, symSize: 0x90 }
  - { offset: 0x68B23B, size: 0x8, addend: 0x0, symName: __ZL31llama_sampler_dist_backend_initP13llama_samplerP24ggml_backend_buffer_type, symObjAddr: 0x43C0, symBinAddr: 0xED950, symSize: 0x180 }
  - { offset: 0x68B56D, size: 0x8, addend: 0x0, symName: __ZL32llama_sampler_dist_backend_applyP13llama_samplerP12ggml_contextP11ggml_cgraphP18llama_sampler_data, symObjAddr: 0x4540, symBinAddr: 0xEDAD0, symSize: 0x150 }
  - { offset: 0x68B8DC, size: 0x8, addend: 0x0, symName: __ZL36llama_sampler_dist_backend_set_inputP13llama_sampler, symObjAddr: 0x4690, symBinAddr: 0xEDC20, symSize: 0x1F0 }
  - { offset: 0x68BB60, size: 0x8, addend: 0x0, symName: __ZL24llama_sampler_empty_namePK13llama_sampler, symObjAddr: 0x4880, symBinAddr: 0xEDE10, symSize: 0x10 }
  - { offset: 0x68BB9F, size: 0x8, addend: 0x0, symName: __ZL26llama_sampler_empty_acceptP13llama_sampleri, symObjAddr: 0x4890, symBinAddr: 0xEDE20, symSize: 0x10 }
  - { offset: 0x68BBD3, size: 0x8, addend: 0x0, symName: __ZL25llama_sampler_empty_applyP13llama_samplerP22llama_token_data_array, symObjAddr: 0x48A0, symBinAddr: 0xEDE30, symSize: 0x10 }
  - { offset: 0x68BC07, size: 0x8, addend: 0x0, symName: __ZL25llama_sampler_empty_resetP13llama_sampler, symObjAddr: 0x48B0, symBinAddr: 0xEDE40, symSize: 0x10 }
  - { offset: 0x68BC2F, size: 0x8, addend: 0x0, symName: __ZL25llama_sampler_empty_clonePK13llama_sampler, symObjAddr: 0x48C0, symBinAddr: 0xEDE50, symSize: 0x40 }
  - { offset: 0x68BCB2, size: 0x8, addend: 0x0, symName: __ZL24llama_sampler_empty_freeP13llama_sampler, symObjAddr: 0x4900, symBinAddr: 0xEDE90, symSize: 0x20 }
  - { offset: 0x68BCDE, size: 0x8, addend: 0x0, symName: __ZL32llama_sampler_empty_backend_initP13llama_samplerP24ggml_backend_buffer_type, symObjAddr: 0x4920, symBinAddr: 0xEDEB0, symSize: 0x10 }
  - { offset: 0x68BD16, size: 0x8, addend: 0x0, symName: __ZL34llama_sampler_empty_backend_acceptP13llama_samplerP12ggml_contextP11ggml_cgraphP11ggml_tensor, symObjAddr: 0x4930, symBinAddr: 0xEDEC0, symSize: 0x10 }
  - { offset: 0x68BD62, size: 0x8, addend: 0x0, symName: __ZL33llama_sampler_empty_backend_applyP13llama_samplerP12ggml_contextP11ggml_cgraphP18llama_sampler_data, symObjAddr: 0x4940, symBinAddr: 0xEDED0, symSize: 0x10 }
  - { offset: 0x68BDAE, size: 0x8, addend: 0x0, symName: __ZL37llama_sampler_empty_backend_set_inputP13llama_sampler, symObjAddr: 0x4950, symBinAddr: 0xEDEE0, symSize: 0x10 }
  - { offset: 0x68BDD6, size: 0x8, addend: 0x0, symName: __ZL24llama_sampler_top_k_namePK13llama_sampler, symObjAddr: 0x4960, symBinAddr: 0xEDEF0, symSize: 0x10 }
  - { offset: 0x68BE4B, size: 0x8, addend: 0x0, symName: __ZL25llama_sampler_top_k_applyP13llama_samplerP22llama_token_data_array, symObjAddr: 0x4970, symBinAddr: 0xEDF00, symSize: 0x40 }
  - { offset: 0x68BEEF, size: 0x8, addend: 0x0, symName: __ZL25llama_sampler_top_k_clonePK13llama_sampler, symObjAddr: 0x49B0, symBinAddr: 0xEDF40, symSize: 0x90 }
  - { offset: 0x68BFD9, size: 0x8, addend: 0x0, symName: __ZL24llama_sampler_top_k_freeP13llama_sampler, symObjAddr: 0x4A40, symBinAddr: 0xEDFD0, symSize: 0x50 }
  - { offset: 0x68C25E, size: 0x8, addend: 0x0, symName: __ZL32llama_sampler_top_k_backend_initP13llama_samplerP24ggml_backend_buffer_type, symObjAddr: 0x4A90, symBinAddr: 0xEE020, symSize: 0x50 }
  - { offset: 0x68C30B, size: 0x8, addend: 0x0, symName: __ZL33llama_sampler_top_k_backend_applyP13llama_samplerP12ggml_contextP11ggml_cgraphP18llama_sampler_data, symObjAddr: 0x4AE0, symBinAddr: 0xEE070, symSize: 0xE0 }
  - { offset: 0x68CBD0, size: 0x8, addend: 0x0, symName: __ZNSt3__16vectorIP16llama_token_dataNS_9allocatorIS2_EEE20__throw_length_errorB8ne200100Ev, symObjAddr: 0x57B0, symBinAddr: 0xEEC70, symSize: 0x10 }
  - { offset: 0x68CBE8, size: 0x8, addend: 0x0, symName: '__ZNSt3__111__introsortINS_17_ClassicAlgPolicyERZL35llama_token_data_array_partial_sortRK22llama_token_data_arrayiRNS_6vectorI16llama_token_dataNS_9allocatorIS6_EEEEE3$_0PS6_Lb0EEEvT1_SE_T0_NS_15iterator_traitsISE_E15difference_typeEb', symObjAddr: 0x57C0, symBinAddr: 0xEEC80, symSize: 0xD70 }
  - { offset: 0x68CCE7, size: 0x8, addend: 0x0, symName: __ZL24llama_sampler_top_p_namePK13llama_sampler, symObjAddr: 0x70E0, symBinAddr: 0xF05A0, symSize: 0x10 }
  - { offset: 0x68CDAC, size: 0x8, addend: 0x0, symName: __ZL25llama_sampler_top_p_applyP13llama_samplerP22llama_token_data_array, symObjAddr: 0x70F0, symBinAddr: 0xF05B0, symSize: 0x430 }
  - { offset: 0x68D136, size: 0x8, addend: 0x0, symName: __ZL25llama_sampler_top_p_clonePK13llama_sampler, symObjAddr: 0x7520, symBinAddr: 0xF09E0, symSize: 0xC0 }
  - { offset: 0x68D268, size: 0x8, addend: 0x0, symName: __ZL24llama_sampler_top_p_freeP13llama_sampler, symObjAddr: 0x75E0, symBinAddr: 0xF0AA0, symSize: 0x60 }
  - { offset: 0x68D619, size: 0x8, addend: 0x0, symName: __ZL32llama_sampler_top_p_backend_initP13llama_samplerP24ggml_backend_buffer_type, symObjAddr: 0x7640, symBinAddr: 0xF0B00, symSize: 0x50 }
  - { offset: 0x68D6C6, size: 0x8, addend: 0x0, symName: __ZL33llama_sampler_top_p_backend_applyP13llama_samplerP12ggml_contextP11ggml_cgraphP18llama_sampler_data, symObjAddr: 0x7690, symBinAddr: 0xF0B50, symSize: 0x2B0 }
  - { offset: 0x68DC7D, size: 0x8, addend: 0x0, symName: __ZL24llama_sampler_min_p_namePK13llama_sampler, symObjAddr: 0x7940, symBinAddr: 0xF0E00, symSize: 0x10 }
  - { offset: 0x68DFDB, size: 0x8, addend: 0x0, symName: __ZL25llama_sampler_min_p_applyP13llama_samplerP22llama_token_data_array, symObjAddr: 0x7950, symBinAddr: 0xF0E10, symSize: 0x340 }
  - { offset: 0x68E79F, size: 0x8, addend: 0x0, symName: __ZNSt3__16vectorI16llama_token_dataNS_9allocatorIS1_EEE20__throw_length_errorB8ne200100Ev, symObjAddr: 0x7F10, symBinAddr: 0xF13D0, symSize: 0x10 }
  - { offset: 0x68E7B7, size: 0x8, addend: 0x0, symName: __ZL26llama_sampler_typical_namePK13llama_sampler, symObjAddr: 0x7F20, symBinAddr: 0xF13E0, symSize: 0x10 }
  - { offset: 0x68E7F5, size: 0x8, addend: 0x0, symName: __ZL25llama_sampler_min_p_clonePK13llama_sampler, symObjAddr: 0x7C90, symBinAddr: 0xF1150, symSize: 0xB0 }
  - { offset: 0x68E8E8, size: 0x8, addend: 0x0, symName: __ZL24llama_sampler_min_p_freeP13llama_sampler, symObjAddr: 0x7D40, symBinAddr: 0xF1200, symSize: 0x50 }
  - { offset: 0x68EB6D, size: 0x8, addend: 0x0, symName: __ZL32llama_sampler_min_p_backend_initP13llama_samplerP24ggml_backend_buffer_type, symObjAddr: 0x7D90, symBinAddr: 0xF1250, symSize: 0x50 }
  - { offset: 0x68EC1A, size: 0x8, addend: 0x0, symName: __ZL33llama_sampler_min_p_backend_applyP13llama_samplerP12ggml_contextP11ggml_cgraphP18llama_sampler_data, symObjAddr: 0x7DE0, symBinAddr: 0xF12A0, symSize: 0x130 }
  - { offset: 0x68EE1D, size: 0x8, addend: 0x0, symName: __ZL26llama_sampler_typical_namePK13llama_sampler, symObjAddr: 0x7F20, symBinAddr: 0xF13E0, symSize: 0x10 }
  - { offset: 0x68F34A, size: 0x8, addend: 0x0, symName: __ZL27llama_sampler_typical_applyP13llama_samplerP22llama_token_data_array, symObjAddr: 0x7F30, symBinAddr: 0xF13F0, symSize: 0x960 }
  - { offset: 0x690734, size: 0x8, addend: 0x0, symName: '__ZNSt3__111__introsortINS_17_ClassicAlgPolicyERZL27llama_sampler_typical_applyP13llama_samplerP22llama_token_data_arrayE3$_0PmLb0EEEvT1_S9_T0_NS_15iterator_traitsIS9_E15difference_typeEb', symObjAddr: 0x8950, symBinAddr: 0xF1DF0, symSize: 0xAF0 }
  - { offset: 0x690772, size: 0x8, addend: 0x0, symName: __ZL27llama_sampler_typical_clonePK13llama_sampler, symObjAddr: 0x8890, symBinAddr: 0xF1D50, symSize: 0x80 }
  - { offset: 0x6907F1, size: 0x8, addend: 0x0, symName: __ZL26llama_sampler_typical_freeP13llama_sampler, symObjAddr: 0x8910, symBinAddr: 0xF1DD0, symSize: 0x20 }
  - { offset: 0x6908EE, size: 0x8, addend: 0x0, symName: __ZL23llama_sampler_temp_namePK13llama_sampler, symObjAddr: 0x98B0, symBinAddr: 0xF2D50, symSize: 0x10 }
  - { offset: 0x690999, size: 0x8, addend: 0x0, symName: __ZL24llama_sampler_temp_applyP13llama_samplerP22llama_token_data_array, symObjAddr: 0x98C0, symBinAddr: 0xF2D60, symSize: 0x270 }
  - { offset: 0x690A59, size: 0x8, addend: 0x0, symName: __ZL24llama_sampler_temp_clonePK13llama_sampler, symObjAddr: 0x9B30, symBinAddr: 0xF2FD0, symSize: 0xA0 }
  - { offset: 0x690B43, size: 0x8, addend: 0x0, symName: __ZL23llama_sampler_temp_freeP13llama_sampler, symObjAddr: 0x9BD0, symBinAddr: 0xF3070, symSize: 0x50 }
  - { offset: 0x690DC8, size: 0x8, addend: 0x0, symName: __ZL31llama_sampler_temp_backend_initP13llama_samplerP24ggml_backend_buffer_type, symObjAddr: 0x9C20, symBinAddr: 0xF30C0, symSize: 0x50 }
  - { offset: 0x690E75, size: 0x8, addend: 0x0, symName: __ZL32llama_sampler_temp_backend_applyP13llama_samplerP12ggml_contextP11ggml_cgraphP18llama_sampler_data, symObjAddr: 0x9C70, symBinAddr: 0xF3110, symSize: 0x20 }
  - { offset: 0x690EFA, size: 0x8, addend: 0x0, symName: __ZL35llama_sampler_backend_temp_samplingP12ggml_contextP11ggml_cgraphP18llama_sampler_dataf, symObjAddr: 0x9C90, symBinAddr: 0xF3130, symSize: 0xB0 }
  - { offset: 0x691059, size: 0x8, addend: 0x0, symName: __ZL27llama_sampler_temp_ext_namePK13llama_sampler, symObjAddr: 0x9D40, symBinAddr: 0xF31E0, symSize: 0x10 }
  - { offset: 0x6910A7, size: 0x8, addend: 0x0, symName: __ZL28llama_sampler_temp_ext_applyP13llama_samplerP22llama_token_data_array, symObjAddr: 0x9D50, symBinAddr: 0xF31F0, symSize: 0xB70 }
  - { offset: 0x6913CE, size: 0x8, addend: 0x0, symName: __ZL28llama_sampler_temp_ext_clonePK13llama_sampler, symObjAddr: 0xA8C0, symBinAddr: 0xF3D60, symSize: 0xC0 }
  - { offset: 0x6914C1, size: 0x8, addend: 0x0, symName: __ZL27llama_sampler_temp_ext_freeP13llama_sampler, symObjAddr: 0xA980, symBinAddr: 0xF3E20, symSize: 0x50 }
  - { offset: 0x691746, size: 0x8, addend: 0x0, symName: __ZL35llama_sampler_temp_ext_backend_initP13llama_samplerP24ggml_backend_buffer_type, symObjAddr: 0xA9D0, symBinAddr: 0xF3E70, symSize: 0x50 }
  - { offset: 0x6917F3, size: 0x8, addend: 0x0, symName: __ZL36llama_sampler_temp_ext_backend_applyP13llama_samplerP12ggml_contextP11ggml_cgraphP18llama_sampler_data, symObjAddr: 0xAA20, symBinAddr: 0xF3EC0, symSize: 0x240 }
  - { offset: 0x691BB3, size: 0x8, addend: 0x0, symName: __ZL22llama_sampler_xtc_namePK13llama_sampler, symObjAddr: 0xAC60, symBinAddr: 0xF4100, symSize: 0x10 }
  - { offset: 0x691C69, size: 0x8, addend: 0x0, symName: __ZL22llama_sample_xtc_applyP13llama_samplerP22llama_token_data_array, symObjAddr: 0xAC70, symBinAddr: 0xF4110, symSize: 0x460 }
  - { offset: 0x691F07, size: 0x8, addend: 0x0, symName: __ZL23llama_sampler_xtc_resetP13llama_sampler, symObjAddr: 0xB0D0, symBinAddr: 0xF4570, symSize: 0x90 }
  - { offset: 0x691FFF, size: 0x8, addend: 0x0, symName: __ZL23llama_sampler_xtc_clonePK13llama_sampler, symObjAddr: 0xB160, symBinAddr: 0xF4600, symSize: 0x140 }
  - { offset: 0x692157, size: 0x8, addend: 0x0, symName: __ZL22llama_sampler_xtc_freeP13llama_sampler, symObjAddr: 0xB2A0, symBinAddr: 0xF4740, symSize: 0x20 }
  - { offset: 0x692183, size: 0x8, addend: 0x0, symName: __ZL27llama_sampler_mirostat_namePK13llama_sampler, symObjAddr: 0xB2C0, symBinAddr: 0xF4760, symSize: 0x10 }
  - { offset: 0x6921AC, size: 0x8, addend: 0x0, symName: __ZL28llama_sampler_mirostat_applyP13llama_samplerP22llama_token_data_array, symObjAddr: 0xB2D0, symBinAddr: 0xF4770, symSize: 0x790 }
  - { offset: 0x6924F5, size: 0x8, addend: 0x0, symName: __ZL28llama_sampler_mirostat_resetP13llama_sampler, symObjAddr: 0xBA60, symBinAddr: 0xF4F00, symSize: 0x90 }
  - { offset: 0x6925ED, size: 0x8, addend: 0x0, symName: __ZL28llama_sampler_mirostat_clonePK13llama_sampler, symObjAddr: 0xBAF0, symBinAddr: 0xF4F90, symSize: 0x130 }
  - { offset: 0x692771, size: 0x8, addend: 0x0, symName: __ZL27llama_sampler_mirostat_freeP13llama_sampler, symObjAddr: 0xBC20, symBinAddr: 0xF50C0, symSize: 0x20 }
  - { offset: 0x692E53, size: 0x8, addend: 0x0, symName: __ZNSt3__121discrete_distributionIiE10param_type6__initEv, symObjAddr: 0xBE70, symBinAddr: 0xF5310, symSize: 0x1B0 }
  - { offset: 0x693307, size: 0x8, addend: 0x0, symName: __ZNSt3__121discrete_distributionIiEclINS_23mersenne_twister_engineIjLm32ELm624ELm397ELm31ELj2567483615ELm11ELj4294967295ELm7ELj2636928640ELm15ELj4022730752ELm18ELj1812433253EEEEEiRT_RKNS1_10param_typeE, symObjAddr: 0xC0F0, symBinAddr: 0xF5590, symSize: 0x1D0 }
  - { offset: 0x6935C4, size: 0x8, addend: 0x0, symName: __ZNSt3__16vectorIdNS_9allocatorIdEEE20__throw_length_errorB8ne200100Ev, symObjAddr: 0xC020, symBinAddr: 0xF54C0, symSize: 0x10 }
  - { offset: 0x6935DC, size: 0x8, addend: 0x0, symName: __ZNSt3__16vectorIdNS_9allocatorIdEEE13shrink_to_fitEv, symObjAddr: 0xC030, symBinAddr: 0xF54D0, symSize: 0xC0 }
  - { offset: 0x6937EB, size: 0x8, addend: 0x0, symName: __ZNSt3__16vectorIdNS_9allocatorIdEEE13shrink_to_fitEv, symObjAddr: 0xC030, symBinAddr: 0xF54D0, symSize: 0xC0 }
  - { offset: 0x693B56, size: 0x8, addend: 0x0, symName: __ZL30llama_sampler_mirostat_v2_namePK13llama_sampler, symObjAddr: 0xC2C0, symBinAddr: 0xF5760, symSize: 0x10 }
  - { offset: 0x693B7F, size: 0x8, addend: 0x0, symName: __ZL31llama_sampler_mirostat_v2_applyP13llama_samplerP22llama_token_data_array, symObjAddr: 0xC2D0, symBinAddr: 0xF5770, symSize: 0x6C0 }
  - { offset: 0x693EBE, size: 0x8, addend: 0x0, symName: __ZL31llama_sampler_mirostat_v2_resetP13llama_sampler, symObjAddr: 0xC990, symBinAddr: 0xF5E30, symSize: 0x90 }
  - { offset: 0x693F9E, size: 0x8, addend: 0x0, symName: __ZL31llama_sampler_mirostat_v2_clonePK13llama_sampler, symObjAddr: 0xCA20, symBinAddr: 0xF5EC0, symSize: 0x120 }
  - { offset: 0x6940FB, size: 0x8, addend: 0x0, symName: __ZL30llama_sampler_mirostat_v2_freeP13llama_sampler, symObjAddr: 0xCB40, symBinAddr: 0xF5FE0, symSize: 0x20 }
  - { offset: 0x6A4A41, size: 0x8, addend: 0x0, symName: __ZNKSt3__113match_resultsIPKcNS_9allocatorINS_9sub_matchIS2_EEEEE6formatINS_20back_insert_iteratorINS_12basic_stringIcNS_11char_traitsIcEENS3_IcEEEEEEEET_SG_S2_S2_NS_15regex_constants15match_flag_typeE, symObjAddr: 0x16060, symBinAddr: 0xF6300, symSize: 0x2F0 }
  - { offset: 0x6A5110, size: 0x8, addend: 0x0, symName: __ZNSt3__114regex_iteratorIPKccNS_12regex_traitsIcEEEppEv, symObjAddr: 0x16350, symBinAddr: 0xF65F0, symSize: 0xF0 }
  - { offset: 0x6AAFFB, size: 0x8, addend: 0x0, symName: __ZL26llama_sampler_grammar_namePK13llama_sampler, symObjAddr: 0x18D30, symBinAddr: 0xF66E0, symSize: 0x10 }
  - { offset: 0x6AB024, size: 0x8, addend: 0x0, symName: __ZL33llama_sampler_grammar_accept_implP13llama_sampleri, symObjAddr: 0x18D40, symBinAddr: 0xF66F0, symSize: 0x20 }
  - { offset: 0x6AB099, size: 0x8, addend: 0x0, symName: __ZL27llama_sampler_grammar_applyP13llama_samplerP22llama_token_data_array, symObjAddr: 0x18D60, symBinAddr: 0xF6710, symSize: 0x20 }
  - { offset: 0x6AB528, size: 0x8, addend: 0x0, symName: __ZL27llama_sampler_grammar_resetP13llama_sampler, symObjAddr: 0x18D80, symBinAddr: 0xF6730, symSize: 0x280 }
  - { offset: 0x6ABDC2, size: 0x8, addend: 0x0, symName: __ZL28llama_sampler_penalties_namePK13llama_sampler, symObjAddr: 0x19100, symBinAddr: 0xF6AA0, symSize: 0x10 }
  - { offset: 0x6ABEF3, size: 0x8, addend: 0x0, symName: __ZL27llama_sampler_grammar_clonePK13llama_sampler, symObjAddr: 0x19000, symBinAddr: 0xF69B0, symSize: 0xA0 }
  - { offset: 0x6AC0A6, size: 0x8, addend: 0x0, symName: __ZL26llama_sampler_grammar_freeP13llama_sampler, symObjAddr: 0x190A0, symBinAddr: 0xF6A50, symSize: 0x50 }
  - { offset: 0x6AC338, size: 0x8, addend: 0x0, symName: __ZL28llama_sampler_penalties_namePK13llama_sampler, symObjAddr: 0x19100, symBinAddr: 0xF6AA0, symSize: 0x10 }
  - { offset: 0x6AC41C, size: 0x8, addend: 0x0, symName: __ZL30llama_sampler_penalties_acceptP13llama_sampleri, symObjAddr: 0x19110, symBinAddr: 0xF6AB0, symSize: 0x1B0 }
  - { offset: 0x6ACB30, size: 0x8, addend: 0x0, symName: __ZNSt3__112__hash_tableINS_17__hash_value_typeIiiEENS_22__unordered_map_hasherIiS2_NS_4hashIiEENS_8equal_toIiEELb1EEENS_21__unordered_map_equalIiS2_S7_S5_Lb1EEENS_9allocatorIS2_EEE14__erase_uniqueIiEEmRKT_, symObjAddr: 0x19CF0, symBinAddr: 0xF7030, symSize: 0x1A0 }
  - { offset: 0x6ACBAA, size: 0x8, addend: 0x0, symName: __ZNSt3__112__hash_tableINS_17__hash_value_typeIiiEENS_22__unordered_map_hasherIiS2_NS_4hashIiEENS_8equal_toIiEELb1EEENS_21__unordered_map_equalIiS2_S7_S5_Lb1EEENS_9allocatorIS2_EEE14__erase_uniqueIiEEmRKT_, symObjAddr: 0x19CF0, symBinAddr: 0xF7030, symSize: 0x1A0 }
  - { offset: 0x6ACBC6, size: 0x8, addend: 0x0, symName: __ZNSt3__112__hash_tableINS_17__hash_value_typeIiiEENS_22__unordered_map_hasherIiS2_NS_4hashIiEENS_8equal_toIiEELb1EEENS_21__unordered_map_equalIiS2_S7_S5_Lb1EEENS_9allocatorIS2_EEE14__erase_uniqueIiEEmRKT_, symObjAddr: 0x19CF0, symBinAddr: 0xF7030, symSize: 0x1A0 }
  - { offset: 0x6ACF2A, size: 0x8, addend: 0x0, symName: __ZL29llama_sampler_penalties_applyP13llama_samplerP22llama_token_data_array, symObjAddr: 0x192C0, symBinAddr: 0xF6C60, symSize: 0x280 }
  - { offset: 0x6AD134, size: 0x8, addend: 0x0, symName: __ZL29llama_sampler_penalties_resetP13llama_sampler, symObjAddr: 0x19540, symBinAddr: 0xF6EE0, symSize: 0x70 }
  - { offset: 0x6AD3D1, size: 0x8, addend: 0x0, symName: __ZL29llama_sampler_penalties_clonePK13llama_sampler, symObjAddr: 0x195B0, symBinAddr: 0xF6F50, symSize: 0x70 }
  - { offset: 0x6ADC22, size: 0x8, addend: 0x0, symName: __ZL28llama_sampler_penalties_freeP13llama_sampler, symObjAddr: 0x19620, symBinAddr: 0xF6FC0, symSize: 0x70 }
  - { offset: 0x6AE7E1, size: 0x8, addend: 0x0, symName: __ZNSt3__112__hash_tableINS_17__hash_value_typeIiiEENS_22__unordered_map_hasherIiS2_NS_4hashIiEENS_8equal_toIiEELb1EEENS_21__unordered_map_equalIiS2_S7_S5_Lb1EEENS_9allocatorIS2_EEE6removeENS_21__hash_const_iteratorIPNS_11__hash_nodeIS2_PvEEEE, symObjAddr: 0x19E90, symBinAddr: 0xF71D0, symSize: 0x200 }
  - { offset: 0x6AEB05, size: 0x8, addend: 0x0, symName: __ZL30llama_sampler_top_n_sigma_namePK13llama_sampler, symObjAddr: 0x1A1D0, symBinAddr: 0xF73D0, symSize: 0x10 }
  - { offset: 0x6AEB2E, size: 0x8, addend: 0x0, symName: __ZL31llama_sampler_top_n_sigma_applyP13llama_samplerP22llama_token_data_array, symObjAddr: 0x1A1E0, symBinAddr: 0xF73E0, symSize: 0x6C0 }
  - { offset: 0x6AED7B, size: 0x8, addend: 0x0, symName: __ZL31llama_sampler_top_n_sigma_clonePK13llama_sampler, symObjAddr: 0x1A8A0, symBinAddr: 0xF7AA0, symSize: 0x80 }
  - { offset: 0x6AEDF9, size: 0x8, addend: 0x0, symName: __ZL30llama_sampler_top_n_sigma_freeP13llama_sampler, symObjAddr: 0x1A920, symBinAddr: 0xF7B20, symSize: 0x20 }
  - { offset: 0x6AEF5B, size: 0x8, addend: 0x0, symName: __ZNSt3__112__hash_tableINS_17__hash_value_typeIiNS_6vectorIiNS_9allocatorIiEEEEEENS_22__unordered_map_hasherIiS6_NS_4hashIiEENS_8equal_toIiEELb1EEENS_21__unordered_map_equalIiS6_SB_S9_Lb1EEENS3_IS6_EEE11__do_rehashILb0EEEvm, symObjAddr: 0x1AED0, symBinAddr: 0xF80D0, symSize: 0x1F0 }
  - { offset: 0x6AF3D5, size: 0x8, addend: 0x0, symName: __ZL22llama_sampler_dry_namePK13llama_sampler, symObjAddr: 0x1B0C0, symBinAddr: 0xF82C0, symSize: 0x10 }
  - { offset: 0x6AF3FE, size: 0x8, addend: 0x0, symName: __ZL24llama_sampler_dry_acceptP13llama_sampleri, symObjAddr: 0x1B0D0, symBinAddr: 0xF82D0, symSize: 0x100 }
  - { offset: 0x6AF4CA, size: 0x8, addend: 0x0, symName: __ZL23llama_sampler_dry_applyP13llama_samplerP22llama_token_data_array, symObjAddr: 0x1B1D0, symBinAddr: 0xF83D0, symSize: 0xE60 }
  - { offset: 0x6B046D, size: 0x8, addend: 0x0, symName: __ZNSt3__16vectorIiNS_9allocatorIiEEE6assignEmRKi, symObjAddr: 0x1C220, symBinAddr: 0xF9420, symSize: 0x250 }
  - { offset: 0x6B09CC, size: 0x8, addend: 0x0, symName: __ZL23llama_sampler_dry_resetP13llama_sampler, symObjAddr: 0x1C030, symBinAddr: 0xF9230, symSize: 0x80 }
  - { offset: 0x6B0D2F, size: 0x8, addend: 0x0, symName: __ZL23llama_sampler_dry_clonePK13llama_sampler, symObjAddr: 0x1C0B0, symBinAddr: 0xF92B0, symSize: 0x140 }
  - { offset: 0x6B1092, size: 0x8, addend: 0x0, symName: __ZNSt3__112__hash_tableINS_17__hash_value_typeIiNS_6vectorIiNS_9allocatorIiEEEEEENS_22__unordered_map_hasherIiS6_NS_4hashIiEENS_8equal_toIiEELb1EEENS_21__unordered_map_equalIiS6_SB_S9_Lb1EEENS3_IS6_EEE14__assign_multiINS_21__hash_const_iteratorIPNS_11__hash_nodeIS6_PvEEEEEEvT_SO_, symObjAddr: 0x1C470, symBinAddr: 0xF9670, symSize: 0x180 }
  - { offset: 0x6B16C8, size: 0x8, addend: 0x0, symName: __ZNSt3__112__hash_tableINS_17__hash_value_typeIiiEENS_22__unordered_map_hasherIiS2_NS_4hashIiEENS_8equal_toIiEELb1EEENS_21__unordered_map_equalIiS2_S7_S5_Lb1EEENS_9allocatorIS2_EEE14__assign_multiINS_21__hash_const_iteratorIPNS_11__hash_nodeIS2_PvEEEEEEvT_SL_, symObjAddr: 0x1C730, symBinAddr: 0xF9930, symSize: 0x150 }
  - { offset: 0x6B1DEB, size: 0x8, addend: 0x0, symName: __ZL22llama_sampler_dry_freeP13llama_sampler, symObjAddr: 0x1C1F0, symBinAddr: 0xF93F0, symSize: 0x30 }
  - { offset: 0x6B1E48, size: 0x8, addend: 0x0, symName: __ZN17llama_sampler_dryD2Ev, symObjAddr: 0x1CFB0, symBinAddr: 0xFA1B0, symSize: 0xD0 }
  - { offset: 0x6B299A, size: 0x8, addend: 0x0, symName: __ZNSt3__112__hash_tableINS_17__hash_value_typeIiNS_6vectorIiNS_9allocatorIiEEEEEENS_22__unordered_map_hasherIiS6_NS_4hashIiEENS_8equal_toIiEELb1EEENS_21__unordered_map_equalIiS6_SB_S9_Lb1EEENS3_IS6_EEE16__construct_nodeIJRKNS_4pairIKiS5_EEEEENS_10unique_ptrINS_11__hash_nodeIS6_PvEENS_22__hash_node_destructorINS3_ISQ_EEEEEEDpOT_, symObjAddr: 0x1C640, symBinAddr: 0xF9840, symSize: 0xF0 }
  - { offset: 0x6B3037, size: 0x8, addend: 0x0, symName: __ZNSt3__112__hash_tableINS_17__hash_value_typeIiNS_6vectorIiNS_9allocatorIiEEEEEENS_22__unordered_map_hasherIiS6_NS_4hashIiEENS_8equal_toIiEELb1EEENS_21__unordered_map_equalIiS6_SB_S9_Lb1EEENS3_IS6_EEE17__deallocate_nodeEPNS_16__hash_node_baseIPNS_11__hash_nodeIS6_PvEEEE, symObjAddr: 0x1C5F0, symBinAddr: 0xF97F0, symSize: 0x50 }
  - { offset: 0x6B35E5, size: 0x8, addend: 0x0, symName: __ZNSt3__112__hash_tableINS_17__hash_value_typeIiiEENS_22__unordered_map_hasherIiS2_NS_4hashIiEENS_8equal_toIiEELb1EEENS_21__unordered_map_equalIiS2_S7_S5_Lb1EEENS_9allocatorIS2_EEE19__node_insert_multiEPNS_11__hash_nodeIS2_PvEE, symObjAddr: 0x1C880, symBinAddr: 0xF9A80, symSize: 0x190 }
  - { offset: 0x6B3870, size: 0x8, addend: 0x0, symName: __ZNSt3__112__hash_tableINS_17__hash_value_typeIiiEENS_22__unordered_map_hasherIiS2_NS_4hashIiEENS_8equal_toIiEELb1EEENS_21__unordered_map_equalIiS2_S7_S5_Lb1EEENS_9allocatorIS2_EEE27__node_insert_multi_prepareEmRS2_, symObjAddr: 0x1CA10, symBinAddr: 0xF9C10, symSize: 0x3B0 }
  - { offset: 0x6B3BE2, size: 0x8, addend: 0x0, symName: __ZNSt3__112__hash_tableINS_17__hash_value_typeIiiEENS_22__unordered_map_hasherIiS2_NS_4hashIiEENS_8equal_toIiEELb1EEENS_21__unordered_map_equalIiS2_S7_S5_Lb1EEENS_9allocatorIS2_EEE11__do_rehashILb0EEEvm, symObjAddr: 0x1CDC0, symBinAddr: 0xF9FC0, symSize: 0x1F0 }
  - { offset: 0x6B3FDE, size: 0x8, addend: 0x0, symName: __ZL29llama_sampler_adaptive_p_namePK13llama_sampler, symObjAddr: 0x1D080, symBinAddr: 0xFA280, symSize: 0x10 }
  - { offset: 0x6B4029, size: 0x8, addend: 0x0, symName: __ZL31llama_sampler_adaptive_p_acceptP13llama_sampleri, symObjAddr: 0x1D090, symBinAddr: 0xFA290, symSize: 0xB0 }
  - { offset: 0x6B4140, size: 0x8, addend: 0x0, symName: __ZL30llama_sampler_adaptive_p_applyP13llama_samplerP22llama_token_data_array, symObjAddr: 0x1D140, symBinAddr: 0xFA340, symSize: 0x880 }
  - { offset: 0x6B47BE, size: 0x8, addend: 0x0, symName: __ZL30llama_sampler_adaptive_p_resetP13llama_sampler, symObjAddr: 0x1D9C0, symBinAddr: 0xFABC0, symSize: 0xC0 }
  - { offset: 0x6B48AA, size: 0x8, addend: 0x0, symName: __ZL30llama_sampler_adaptive_p_clonePK13llama_sampler, symObjAddr: 0x1DA80, symBinAddr: 0xFAC80, symSize: 0x170 }
  - { offset: 0x6B4AA9, size: 0x8, addend: 0x0, symName: __ZL29llama_sampler_adaptive_p_freeP13llama_sampler, symObjAddr: 0x1DBF0, symBinAddr: 0xFADF0, symSize: 0x40 }
  - { offset: 0x6B4D4F, size: 0x8, addend: 0x0, symName: __ZL29llama_sampler_logit_bias_namePK13llama_sampler, symObjAddr: 0x1DD80, symBinAddr: 0xFAE30, symSize: 0x10 }
  - { offset: 0x6B50DB, size: 0x8, addend: 0x0, symName: __ZL30llama_sampler_logit_bias_applyP13llama_samplerP22llama_token_data_array, symObjAddr: 0x1DD90, symBinAddr: 0xFAE40, symSize: 0x200 }
  - { offset: 0x6B573E, size: 0x8, addend: 0x0, symName: __ZNSt3__16vectorI16llama_logit_biasNS_9allocatorIS1_EEE20__throw_length_errorB8ne200100Ev, symObjAddr: 0x1E3C0, symBinAddr: 0xFB470, symSize: 0x10 }
  - { offset: 0x6B5756, size: 0x8, addend: 0x0, symName: __ZN24llama_sampler_logit_biasD2Ev, symObjAddr: 0x1E3D0, symBinAddr: 0xFB480, symSize: 0xA0 }
  - { offset: 0x6B5761, size: 0x8, addend: 0x0, symName: __ZL30llama_sampler_logit_bias_clonePK13llama_sampler, symObjAddr: 0x1DF90, symBinAddr: 0xFB040, symSize: 0x20 }
  - { offset: 0x6B57F1, size: 0x8, addend: 0x0, symName: __ZL29llama_sampler_logit_bias_freeP13llama_sampler, symObjAddr: 0x1DFB0, symBinAddr: 0xFB060, symSize: 0x30 }
  - { offset: 0x6B584E, size: 0x8, addend: 0x0, symName: __ZN24llama_sampler_logit_biasD2Ev, symObjAddr: 0x1E3D0, symBinAddr: 0xFB480, symSize: 0xA0 }
  - { offset: 0x6B5DE5, size: 0x8, addend: 0x0, symName: __ZL37llama_sampler_logit_bias_backend_initP13llama_samplerP24ggml_backend_buffer_type, symObjAddr: 0x1DFE0, symBinAddr: 0xFB090, symSize: 0x160 }
  - { offset: 0x6B60C2, size: 0x8, addend: 0x0, symName: __ZL38llama_sampler_logit_bias_backend_applyP13llama_samplerP12ggml_contextP11ggml_cgraphP18llama_sampler_data, symObjAddr: 0x1E140, symBinAddr: 0xFB1F0, symSize: 0xA0 }
  - { offset: 0x6B62F8, size: 0x8, addend: 0x0, symName: __ZL42llama_sampler_logit_bias_backend_set_inputP13llama_sampler, symObjAddr: 0x1E1E0, symBinAddr: 0xFB290, symSize: 0x1E0 }
  - { offset: 0x6B6A5C, size: 0x8, addend: 0x0, symName: __ZL25llama_sampler_infill_namePK13llama_sampler, symObjAddr: 0x1E470, symBinAddr: 0xFB520, symSize: 0x10 }
  - { offset: 0x6B6B8F, size: 0x8, addend: 0x0, symName: __ZL26llama_sampler_infill_applyP13llama_samplerP22llama_token_data_array, symObjAddr: 0x1E480, symBinAddr: 0xFB530, symSize: 0xCB0 }
  - { offset: 0x6B743A, size: 0x8, addend: 0x0, symName: __ZL26llama_sampler_infill_clonePK13llama_sampler, symObjAddr: 0x1F130, symBinAddr: 0xFC1E0, symSize: 0x20 }
  - { offset: 0x6B744D, size: 0x8, addend: 0x0, symName: __ZL26llama_sampler_infill_clonePK13llama_sampler, symObjAddr: 0x1F130, symBinAddr: 0xFC1E0, symSize: 0x20 }
  - { offset: 0x6B74DB, size: 0x8, addend: 0x0, symName: __ZL25llama_sampler_infill_freeP13llama_sampler, symObjAddr: 0x1F150, symBinAddr: 0xFC200, symSize: 0x50 }
  - { offset: 0x6DEF8D, size: 0x8, addend: 0x0, symName: '__ZNSt3__111__introsortINS_17_ClassicAlgPolicyERZN11llama_vocab4impl4loadER18llama_model_loaderRK6LLM_KVE3$_0PiLb0EEEvT1_SC_T0_NS_15iterator_traitsISC_E15difference_typeEb', symObjAddr: 0x14C20, symBinAddr: 0x10FC50, symSize: 0x1090 }
  - { offset: 0x6E095E, size: 0x8, addend: 0x0, symName: '__ZNSt3__127__insertion_sort_incompleteB8ne200100INS_17_ClassicAlgPolicyERZN11llama_vocab4impl4loadER18llama_model_loaderRK6LLM_KVE3$_0PiEEbT1_SC_T0_', symObjAddr: 0x161B0, symBinAddr: 0x1111E0, symSize: 0x2B0 }
  - { offset: 0x6E3AAA, size: 0x8, addend: 0x0, symName: __ZNSt3__111__introsortINS_17_ClassicAlgPolicyERZN20llm_tokenizer_plamo25buildERK11llama_vocabEUlRKNS_12basic_stringIcNS_11char_traitsIcEENS_9allocatorIcEEEESD_E_PSB_Lb0EEEvT1_SH_T0_NS_15iterator_traitsISH_E15difference_typeEb, symObjAddr: 0x1AA20, symBinAddr: 0x115680, symSize: 0xCB0 }
  - { offset: 0x6E5B44, size: 0x8, addend: 0x0, symName: __ZNSt3__126__insertion_sort_unguardedB8ne200100INS_17_ClassicAlgPolicyERZN20llm_tokenizer_plamo25buildERK11llama_vocabEUlRKNS_12basic_stringIcNS_11char_traitsIcEENS_9allocatorIcEEEESD_E_PSB_EEvT1_SH_T0_, symObjAddr: 0x1BEF0, symBinAddr: 0x116B50, symSize: 0x130 }
  - { offset: 0x6E5F72, size: 0x8, addend: 0x0, symName: __ZNSt3__111__sift_downB8ne200100INS_17_ClassicAlgPolicyERZN20llm_tokenizer_plamo25buildERK11llama_vocabEUlRKNS_12basic_stringIcNS_11char_traitsIcEENS_9allocatorIcEEEESD_E_PSB_EEvT1_OT0_NS_15iterator_traitsISH_E15difference_typeESH_, symObjAddr: 0x1CA10, symBinAddr: 0x117670, symSize: 0x1C0 }
  - { offset: 0x6E642D, size: 0x8, addend: 0x0, symName: __ZNSt3__131__partition_with_equals_on_leftB8ne200100INS_17_ClassicAlgPolicyEPNS_12basic_stringIcNS_11char_traitsIcEENS_9allocatorIcEEEERZN20llm_tokenizer_plamo25buildERK11llama_vocabEUlRKS7_SE_E_EET0_SH_SH_T1_, symObjAddr: 0x1C020, symBinAddr: 0x116C80, symSize: 0x1E0 }
  - { offset: 0x6E69C3, size: 0x8, addend: 0x0, symName: __ZNSt3__132__partition_with_equals_on_rightB8ne200100INS_17_ClassicAlgPolicyEPNS_12basic_stringIcNS_11char_traitsIcEENS_9allocatorIcEEEERZN20llm_tokenizer_plamo25buildERK11llama_vocabEUlRKS7_SE_E_EENS_4pairIT0_bEESI_SI_T1_, symObjAddr: 0x1C200, symBinAddr: 0x116E60, symSize: 0x1E0 }
  - { offset: 0x6E6F4F, size: 0x8, addend: 0x0, symName: __ZNSt3__127__insertion_sort_incompleteB8ne200100INS_17_ClassicAlgPolicyERZN20llm_tokenizer_plamo25buildERK11llama_vocabEUlRKNS_12basic_stringIcNS_11char_traitsIcEENS_9allocatorIcEEEESD_E_PSB_EEbT1_SH_T0_, symObjAddr: 0x1C3E0, symBinAddr: 0x117040, symSize: 0x630 }
  - { offset: 0x6EA523, size: 0x8, addend: 0x0, symName: __ZNSt3__18pop_heapB8ne200100INS_11__wrap_iterIP14llm_bigram_spmEENS2_10comparatorEEEvT_S6_T0_, symObjAddr: 0xFAC0, symBinAddr: 0x10BAC0, symSize: 0x1F0 }
  - { offset: 0x6EAB45, size: 0x8, addend: 0x0, symName: __ZNSt3__110__pop_heapB8ne200100INS_17_ClassicAlgPolicyEN14llm_bigram_bpe10comparatorENS_11__wrap_iterIPS2_EEEEvT1_S7_RT0_NS_15iterator_traitsIS7_E15difference_typeE, symObjAddr: 0x106B0, symBinAddr: 0x10C6A0, symSize: 0x2A0 }
  - { offset: 0x6EB7B2, size: 0x8, addend: 0x0, symName: __ZNSt3__1plB8ne200100IcNS_11char_traitsIcEENS_9allocatorIcEEEENS_12basic_stringIT_T0_T1_EERKS9_PKS6_, symObjAddr: 0xE1A0, symBinAddr: 0x10A3E0, symSize: 0x110 }
  - { offset: 0x6EC9E4, size: 0x8, addend: 0x0, symName: __ZNSt3__19__sift_upB8ne200100INS_17_ClassicAlgPolicyERN14llm_bigram_bpe10comparatorENS_11__wrap_iterIPS2_EEEEvT1_S8_OT0_NS_15iterator_traitsIS8_E15difference_typeE, symObjAddr: 0x10500, symBinAddr: 0x10C4F0, symSize: 0x1B0 }
  - { offset: 0x6EF47A, size: 0x8, addend: 0x0, symName: '__ZNSt3__17__sort3B8ne200100INS_17_ClassicAlgPolicyERZN11llama_vocab4impl4loadER18llama_model_loaderRK6LLM_KVE3$_0PiLi0EEEbT1_SC_SC_T0_', symObjAddr: 0x15CB0, symBinAddr: 0x110CE0, symSize: 0x1B0 }
  - { offset: 0x6EFBE3, size: 0x8, addend: 0x0, symName: '__ZNSt3__17__sort5B8ne200100INS_17_ClassicAlgPolicyERZN11llama_vocab4impl4loadER18llama_model_loaderRK6LLM_KVE3$_0PiLi0EEEvT1_SC_SC_SC_SC_T0_', symObjAddr: 0x15FD0, symBinAddr: 0x111000, symSize: 0x1E0 }
  - { offset: 0x6F022E, size: 0x8, addend: 0x0, symName: '__ZNSt3__17__sort4B8ne200100INS_17_ClassicAlgPolicyERZN11llama_vocab4impl4loadER18llama_model_loaderRK6LLM_KVE3$_0PiLi0EEEvT1_SC_SC_SC_T0_', symObjAddr: 0x15E60, symBinAddr: 0x110E90, symSize: 0x170 }
  - { offset: 0x6F2347, size: 0x8, addend: 0x0, symName: __ZNSt3__17__sort4B8ne200100INS_17_ClassicAlgPolicyERZN20llm_tokenizer_plamo25buildERK11llama_vocabEUlRKNS_12basic_stringIcNS_11char_traitsIcEENS_9allocatorIcEEEESD_E_PSB_Li0EEEvT1_SH_SH_SH_T0_, symObjAddr: 0x1BB30, symBinAddr: 0x116790, symSize: 0x260 }
  - { offset: 0x6F2A39, size: 0x8, addend: 0x0, symName: __ZNSt3__116__insertion_sortB8ne200100INS_17_ClassicAlgPolicyERZN20llm_tokenizer_plamo25buildERK11llama_vocabEUlRKNS_12basic_stringIcNS_11char_traitsIcEENS_9allocatorIcEEEESD_E_PSB_EEvT1_SH_T0_, symObjAddr: 0x1BD90, symBinAddr: 0x1169F0, symSize: 0x160 }
  - { offset: 0x6F2E6D, size: 0x8, addend: 0x0, symName: __ZNSt3__110__pop_heapB8ne200100INS_17_ClassicAlgPolicyEZN20llm_tokenizer_plamo25buildERK11llama_vocabEUlRKNS_12basic_stringIcNS_11char_traitsIcEENS_9allocatorIcEEEESD_E_PSB_EEvT1_SG_RT0_NS_15iterator_traitsISG_E15difference_typeE, symObjAddr: 0x1CBD0, symBinAddr: 0x117830, symSize: 0x200 }
  - { offset: 0x6F33EA, size: 0x8, addend: 0x0, symName: __ZNSt3__19__sift_upB8ne200100INS_17_ClassicAlgPolicyERZN20llm_tokenizer_plamo25buildERK11llama_vocabEUlRKNS_12basic_stringIcNS_11char_traitsIcEENS_9allocatorIcEEEESD_E_PSB_EEvT1_SH_OT0_NS_15iterator_traitsISH_E15difference_typeE, symObjAddr: 0x1CDD0, symBinAddr: 0x117A30, symSize: 0x120 }
  - { offset: 0x6F687D, size: 0x8, addend: 0x0, symName: __ZNK11llama_vocab4impl14token_to_pieceEiPciib, symObjAddr: 0xB7C0, symBinAddr: 0x107A00, symSize: 0x5D0 }
  - { offset: 0x6F76DB, size: 0x8, addend: 0x0, symName: __ZNK11llama_vocab13byte_to_tokenEh, symObjAddr: 0x59B0, symBinAddr: 0x101C70, symSize: 0x3C0 }
  - { offset: 0x6FBC88, size: 0x8, addend: 0x0, symName: __ZN11llama_vocab4impl4loadER18llama_model_loaderRK6LLM_KV, symObjAddr: 0x0, symBinAddr: 0xFC400, symSize: 0x5570 }
  - { offset: 0x7089ED, size: 0x8, addend: 0x0, symName: __ZNSt3__16vectorIN11llama_vocab10token_dataENS_9allocatorIS2_EEE8__appendEm, symObjAddr: 0x13BD0, symBinAddr: 0x10EFD0, symSize: 0x1C0 }
  - { offset: 0x709259, size: 0x8, addend: 0x0, symName: __ZNSt3__16vectorIcNS_9allocatorIcEEE18__assign_with_sizeB8ne200100IPKcS6_EEvT_T0_l, symObjAddr: 0x14610, symBinAddr: 0x10FA10, symSize: 0x240 }
  - { offset: 0x709BE4, size: 0x8, addend: 0x0, symName: __ZNSt3__112__hash_tableINS_17__hash_value_typeINS_4pairINS_12basic_stringIcNS_11char_traitsIcEENS_9allocatorIcEEEES8_EEiEENS_22__unordered_map_hasherIS9_SA_N11llama_vocab4impl9pair_hashENS_8equal_toIS9_EELb1EEENS_21__unordered_map_equalIS9_SA_SG_SE_Lb1EEENS6_ISA_EEE25__emplace_unique_key_argsIS9_JS9_RiEEENS2_INS_15__hash_iteratorIPNS_11__hash_nodeISA_PvEEEEbEERKT_DpOT0_, symObjAddr: 0x13DA0, symBinAddr: 0x10F1A0, symSize: 0x570 }
  - { offset: 0x70A5D8, size: 0x8, addend: 0x0, symName: __ZNSt3__112__hash_tableINS_17__hash_value_typeINS_12basic_stringIcNS_11char_traitsIcEENS_9allocatorIcEEEEiEENS_22__unordered_map_hasherIS7_S8_NS_4hashIS7_EENS_8equal_toIS7_EELb1EEENS_21__unordered_map_equalIS7_S8_SD_SB_Lb1EEENS5_IS8_EEE25__emplace_unique_key_argsIS7_JRKNS_21piecewise_construct_tENS_5tupleIJRKS7_EEENSN_IJEEEEEENS_4pairINS_15__hash_iteratorIPNS_11__hash_nodeIS8_PvEEEEbEERKT_DpOT0_, symObjAddr: 0x12CE0, symBinAddr: 0x10E590, symSize: 0x5B0 }
  - { offset: 0x70AF34, size: 0x8, addend: 0x0, symName: __ZN11llama_vocab4impl14init_tokenizerE16llama_vocab_type, symObjAddr: 0x5780, symBinAddr: 0x101A40, symSize: 0x230 }
  - { offset: 0x70B41A, size: 0x8, addend: 0x0, symName: __ZNK11llama_vocab4impl8tokenizeERKNSt3__112basic_stringIcNS1_11char_traitsIcEENS1_9allocatorIcEEEEbb, symObjAddr: 0x5D80, symBinAddr: 0x102030, symSize: 0x1DF0 }
  - { offset: 0x71266C, size: 0x8, addend: 0x0, symName: __ZNK11llama_vocab4impl24token_to_piece_for_cacheEib, symObjAddr: 0x7C80, symBinAddr: 0x103F30, symSize: 0x120 }
  - { offset: 0x712A7D, size: 0x8, addend: 0x0, symName: __ZNKSt3__112__hash_tableINS_17__hash_value_typeINS_12basic_stringIcNS_11char_traitsIcEENS_9allocatorIcEEEEiEENS_22__unordered_map_hasherIS7_S8_NS_4hashIS7_EENS_8equal_toIS7_EELb1EEENS_21__unordered_map_equalIS7_S8_SD_SB_Lb1EEENS5_IS8_EEE4findIS7_EENS_21__hash_const_iteratorIPNS_11__hash_nodeIS8_PvEEEERKT_, symObjAddr: 0x16470, symBinAddr: 0x1114A0, symSize: 0x290 }
  - { offset: 0x712D7B, size: 0x8, addend: 0x0, symName: __ZNSt3__112__hash_tableINS_17__hash_value_typeINS_12basic_stringIcNS_11char_traitsIcEENS_9allocatorIcEEEEiEENS_22__unordered_map_hasherIS7_S8_NS_4hashIS7_EENS_8equal_toIS7_EELb1EEENS_21__unordered_map_equalIS7_S8_SD_SB_Lb1EEENS5_IS8_EEE4findIS7_EENS_15__hash_iteratorIPNS_11__hash_nodeIS8_PvEEEERKT_, symObjAddr: 0x13940, symBinAddr: 0x10ED40, symSize: 0x290 }
  - { offset: 0x713248, size: 0x8, addend: 0x0, symName: '__ZZN11llama_vocab4impl4loadER18llama_model_loaderRK6LLM_KVENK3$_3clERKNSt3__112basic_stringIcNS7_11char_traitsIcEENS7_9allocatorIcEEEE16llama_token_attrb', symObjAddr: 0x7E10, symBinAddr: 0x104050, symSize: 0x80 }
  - { offset: 0x71338A, size: 0x8, addend: 0x0, symName: __ZNSt3__16vectorI10llm_symbolNS_9allocatorIS1_EEE18__assign_with_sizeB8ne200100IPS1_S6_EEvT_T0_l, symObjAddr: 0x10960, symBinAddr: 0x10C940, symSize: 0x160 }
  - { offset: 0x71339F, size: 0x8, addend: 0x0, symName: __ZNSt3__16__treeINS_12__value_typeINS_12basic_stringIcNS_11char_traitsIcEENS_9allocatorIcEEEENS_4pairIiiEEEENS_19__map_value_compareIS7_SA_NS_4lessIS7_EELb1EEENS5_ISA_EEE7destroyEPNS_11__tree_nodeISA_PvEE, symObjAddr: 0xFDD0, symBinAddr: 0x10BDC0, symSize: 0x50 }
  - { offset: 0x7133AA, size: 0x8, addend: 0x0, symName: __ZNSt3__16vectorIN11llama_vocab10token_dataENS_9allocatorIS2_EEE20__throw_out_of_rangeB8ne200100Ev, symObjAddr: 0x16460, symBinAddr: 0x111490, symSize: 0x10 }
  - { offset: 0x7133C2, size: 0x8, addend: 0x0, symName: __ZNKSt3__112__hash_tableINS_17__hash_value_typeINS_12basic_stringIcNS_11char_traitsIcEENS_9allocatorIcEEEEiEENS_22__unordered_map_hasherIS7_S8_NS_4hashIS7_EENS_8equal_toIS7_EELb1EEENS_21__unordered_map_equalIS7_S8_SD_SB_Lb1EEENS5_IS8_EEE4findIS7_EENS_21__hash_const_iteratorIPNS_11__hash_nodeIS8_PvEEEERKT_, symObjAddr: 0x16470, symBinAddr: 0x1114A0, symSize: 0x290 }
  - { offset: 0x71383B, size: 0x8, addend: 0x0, symName: __ZNKSt3__112basic_stringIcNS_11char_traitsIcEENS_9allocatorIcEEE6substrB8ne200100Emm, symObjAddr: 0x5670, symBinAddr: 0x101970, symSize: 0xD0 }
  - { offset: 0x713E42, size: 0x8, addend: 0x0, symName: __ZN18llm_tokenizer_rwkvC2ERK11llama_vocab, symObjAddr: 0x18410, symBinAddr: 0x113440, symSize: 0x170 }
  - { offset: 0x71430C, size: 0x8, addend: 0x0, symName: __ZN17llm_tokenizer_ugmC2ERK11llama_vocabRKNSt3__16vectorIcNS3_9allocatorIcEEEE, symObjAddr: 0x17E90, symBinAddr: 0x112EC0, symSize: 0x2D0 }
  - { offset: 0x714D1E, size: 0x8, addend: 0x0, symName: __ZN17llm_tokenizer_bpeC2ERK11llama_vocab, symObjAddr: 0x16720, symBinAddr: 0x111750, symSize: 0x12D0 }
  - { offset: 0x71A968, size: 0x8, addend: 0x0, symName: __ZN20llm_tokenizer_plamo25buildERK11llama_vocab, symObjAddr: 0x185E0, symBinAddr: 0x113610, symSize: 0x15B0 }
  - { offset: 0x720A4F, size: 0x8, addend: 0x0, symName: __ZNSt3__113unordered_mapIxiNS_4hashIxEENS_8equal_toIxEENS_9allocatorINS_4pairIKxiEEEEED1B8ne200100Ev, symObjAddr: 0x19B90, symBinAddr: 0x114BC0, symSize: 0x50 }
  - { offset: 0x722173, size: 0x8, addend: 0x0, symName: __ZNK11llama_vocab4impl22tokenizer_st_partitionERNSt3__112forward_listI23fragment_buffer_variantNS1_9allocatorIS3_EEEEb, symObjAddr: 0x83D0, symBinAddr: 0x104610, symSize: 0x790 }
  - { offset: 0x723A86, size: 0x8, addend: 0x0, symName: __ZN26llm_tokenizer_rwkv_session8tokenizeERKNSt3__112basic_stringIcNS0_11char_traitsIcEENS0_9allocatorIcEEEERNS0_6vectorIiNS4_IiEEEE, symObjAddr: 0xB3E0, symBinAddr: 0x107620, symSize: 0x380 }
  - { offset: 0x72476B, size: 0x8, addend: 0x0, symName: __ZNK25llm_tokenizer_bpe_session10append_bosERNSt3__16vectorIiNS0_9allocatorIiEEEE, symObjAddr: 0x8FF0, symBinAddr: 0x105230, symSize: 0x160 }
  - { offset: 0x724BE0, size: 0x8, addend: 0x0, symName: __ZNK25llm_tokenizer_bpe_session10append_eosERNSt3__16vectorIiNS0_9allocatorIiEEEE, symObjAddr: 0xA310, symBinAddr: 0x106550, symSize: 0x160 }
  - { offset: 0x725055, size: 0x8, addend: 0x0, symName: __ZN25llm_tokenizer_bpe_session8tokenizeERKNSt3__112basic_stringIcNS0_11char_traitsIcEENS0_9allocatorIcEEEERNS0_6vectorIiNS4_IiEEEE, symObjAddr: 0x9150, symBinAddr: 0x105390, symSize: 0x11C0 }
  - { offset: 0x72919E, size: 0x8, addend: 0x0, symName: __ZNK20llm_tokenizer_plamo26encodeERKNSt3__112basic_stringIcNS0_11char_traitsIcEENS0_9allocatorIcEEEE, symObjAddr: 0x11970, symBinAddr: 0x10D870, symSize: 0xB70 }
  - { offset: 0x72B72E, size: 0x8, addend: 0x0, symName: __ZN25llm_tokenizer_wpm_session8tokenizeERKNSt3__112basic_stringIcNS0_11char_traitsIcEENS0_9allocatorIcEEEERNS0_6vectorIiNS4_IiEEEE, symObjAddr: 0xA510, symBinAddr: 0x106750, symSize: 0x750 }
  - { offset: 0x72D18F, size: 0x8, addend: 0x0, symName: __ZN25llm_tokenizer_ugm_session8tokenizeERKNSt3__112basic_stringIcNS0_11char_traitsIcEENS0_9allocatorIcEEEERNS0_6vectorIiNS4_IiEEEE, symObjAddr: 0xAC60, symBinAddr: 0x106EA0, symSize: 0x780 }
  - { offset: 0x72E479, size: 0x8, addend: 0x0, symName: __ZNSt3__16vectorIiNS_9allocatorIiEEE9push_backB8ne200100ERKi, symObjAddr: 0x7B70, symBinAddr: 0x103E20, symSize: 0x110 }
  - { offset: 0x72E8B7, size: 0x8, addend: 0x0, symName: __ZN25llm_tokenizer_spm_session8tokenizeERKNSt3__112basic_stringIcNS0_11char_traitsIcEENS0_9allocatorIcEEEERNS0_6vectorIiNS4_IiEEEE, symObjAddr: 0x8C00, symBinAddr: 0x104E40, symSize: 0x3A0 }
  - { offset: 0x72F032, size: 0x8, addend: 0x0, symName: __ZNSt3__16__treeINS_12__value_typeINS_12basic_stringIcNS_11char_traitsIcEENS_9allocatorIcEEEENS_4pairIiiEEEENS_19__map_value_compareIS7_SA_NS_4lessIS7_EELb1EEENS5_ISA_EEE7destroyEPNS_11__tree_nodeISA_PvEE, symObjAddr: 0xFDD0, symBinAddr: 0x10BDC0, symSize: 0x50 }
  - { offset: 0x72F2C9, size: 0x8, addend: 0x0, symName: __ZN25llm_tokenizer_spm_sessionD1Ev, symObjAddr: 0x8FA0, symBinAddr: 0x1051E0, symSize: 0x50 }
  - { offset: 0x72F619, size: 0x8, addend: 0x0, symName: __ZN25llm_tokenizer_bpe_sessionD1Ev, symObjAddr: 0xA470, symBinAddr: 0x1066B0, symSize: 0xA0 }
  - { offset: 0x72FBA2, size: 0x8, addend: 0x0, symName: __ZNSt3__112forward_listI23fragment_buffer_variantNS_9allocatorIS1_EEED1Ev, symObjAddr: 0xB760, symBinAddr: 0x1079A0, symSize: 0x60 }
  - { offset: 0x72FF18, size: 0x8, addend: 0x0, symName: __ZNK11llama_vocab4impl8get_typeEv, symObjAddr: 0x7E90, symBinAddr: 0x1040D0, symSize: 0x10 }
  - { offset: 0x72FF38, size: 0x8, addend: 0x0, symName: __ZNK11llama_vocab4impl9type_nameEv, symObjAddr: 0x7EA0, symBinAddr: 0x1040E0, symSize: 0x110 }
  - { offset: 0x7305E1, size: 0x8, addend: 0x0, symName: __ZNK11llama_vocab4impl9is_normalEi, symObjAddr: 0x7FB0, symBinAddr: 0x1041F0, symSize: 0x50 }
  - { offset: 0x730648, size: 0x8, addend: 0x0, symName: __ZNK11llama_vocab4impl10is_unknownEi, symObjAddr: 0x8000, symBinAddr: 0x104240, symSize: 0x50 }
  - { offset: 0x7306AF, size: 0x8, addend: 0x0, symName: __ZNK11llama_vocab4impl10is_controlEi, symObjAddr: 0x8050, symBinAddr: 0x104290, symSize: 0x50 }
  - { offset: 0x730716, size: 0x8, addend: 0x0, symName: __ZNK11llama_vocab4impl7is_byteEi, symObjAddr: 0x80A0, symBinAddr: 0x1042E0, symSize: 0x50 }
  - { offset: 0x73077D, size: 0x8, addend: 0x0, symName: __ZNK11llama_vocab4impl15is_user_definedEi, symObjAddr: 0x80F0, symBinAddr: 0x104330, symSize: 0x50 }
  - { offset: 0x7307E4, size: 0x8, addend: 0x0, symName: __ZNK11llama_vocab4impl9is_unusedEi, symObjAddr: 0x8140, symBinAddr: 0x104380, symSize: 0x50 }
  - { offset: 0x73084B, size: 0x8, addend: 0x0, symName: __ZNK11llama_vocab4impl6is_eogEi, symObjAddr: 0x8190, symBinAddr: 0x1043D0, symSize: 0x40 }
  - { offset: 0x730920, size: 0x8, addend: 0x0, symName: __ZNK11llama_vocab4impl13token_to_byteEi, symObjAddr: 0x81D0, symBinAddr: 0x104410, symSize: 0x1A0 }
  - { offset: 0x730D48, size: 0x8, addend: 0x0, symName: __ZNK11llama_vocab4impl14token_get_attrEi, symObjAddr: 0x8370, symBinAddr: 0x1045B0, symSize: 0x60 }
  - { offset: 0x731405, size: 0x8, addend: 0x0, symName: __ZNK11llama_vocab14get_token_dataEi, symObjAddr: 0x8B60, symBinAddr: 0x104DA0, symSize: 0x60 }
  - { offset: 0x7314AF, size: 0x8, addend: 0x0, symName: __ZNK11llama_vocab14token_to_pieceEiPciib, symObjAddr: 0x8BC0, symBinAddr: 0x104E00, symSize: 0x10 }
  - { offset: 0x73154F, size: 0x8, addend: 0x0, symName: __ZNSt3__112basic_stringIcNS_11char_traitsIcEENS_9allocatorIcEEEpLB8ne200100ERKS5_, symObjAddr: 0x8BD0, symBinAddr: 0x104E10, symSize: 0x30 }
  - { offset: 0x731991, size: 0x8, addend: 0x0, symName: __ZN25llm_tokenizer_spm_session14try_add_bigramEii, symObjAddr: 0xED30, symBinAddr: 0x10AF70, symSize: 0x370 }
  - { offset: 0x732310, size: 0x8, addend: 0x0, symName: __ZN25llm_tokenizer_spm_session9resegmentER10llm_symbolRNSt3__16vectorIiNS2_9allocatorIiEEEE, symObjAddr: 0xF0A0, symBinAddr: 0x10B2E0, symSize: 0x460 }
  - { offset: 0x733581, size: 0x8, addend: 0x0, symName: __ZNSt3__16vectorI10llm_symbolNS_9allocatorIS1_EEE20__throw_length_errorB8ne200100Ev, symObjAddr: 0xF500, symBinAddr: 0x10B740, symSize: 0x10 }
  - { offset: 0x733DA3, size: 0x8, addend: 0x0, symName: __ZN25llm_tokenizer_bpe_session14add_new_bigramEii, symObjAddr: 0xFE20, symBinAddr: 0x10BE10, symSize: 0x440 }
  - { offset: 0x73517B, size: 0x8, addend: 0x0, symName: __ZNSt3__16vectorI10llm_symbolNS_9allocatorIS1_EEE18__assign_with_sizeB8ne200100IPS1_S6_EEvT_T0_l, symObjAddr: 0x10960, symBinAddr: 0x10C940, symSize: 0x160 }
  - { offset: 0x735E57, size: 0x8, addend: 0x0, symName: __ZN25llm_tokenizer_wpm_session10preprocessERKNSt3__112basic_stringIcNS0_11char_traitsIcEENS0_9allocatorIcEEEE, symObjAddr: 0x10AC0, symBinAddr: 0x10CAA0, symSize: 0x650 }
  - { offset: 0x737F9F, size: 0x8, addend: 0x0, symName: __ZN25llm_tokenizer_ugm_session9normalizeERKNSt3__112basic_stringIcNS0_11char_traitsIcEENS0_9allocatorIcEEEEPS6_, symObjAddr: 0x111F0, symBinAddr: 0x10D0F0, symSize: 0x450 }
  - { offset: 0x738781, size: 0x8, addend: 0x0, symName: __ZNSt3__16vectorIN25llm_tokenizer_ugm_session17best_tokenizationENS_9allocatorIS2_EEE20__throw_length_errorB8ne200100Ev, symObjAddr: 0x11960, symBinAddr: 0x10D860, symSize: 0x10 }
  - { offset: 0x738799, size: 0x8, addend: 0x0, symName: __ZNK20llm_tokenizer_plamo26encodeERKNSt3__112basic_stringIcNS0_11char_traitsIcEENS0_9allocatorIcEEEE, symObjAddr: 0x11970, symBinAddr: 0x10D870, symSize: 0xB70 }
  - { offset: 0x738981, size: 0x8, addend: 0x0, symName: __ZNK11llama_vocab7is_byteEi, symObjAddr: 0xC670, symBinAddr: 0x1088B0, symSize: 0x50 }
  - { offset: 0x7389AE, size: 0x8, addend: 0x0, symName: __ZNK11llama_vocab7is_byteEi, symObjAddr: 0xC670, symBinAddr: 0x1088B0, symSize: 0x50 }
  - { offset: 0x738A1C, size: 0x8, addend: 0x0, symName: __ZL25llama_unescape_rwkv_tokenRKNSt3__112basic_stringIcNS_11char_traitsIcEENS_9allocatorIcEEEE, symObjAddr: 0xC130, symBinAddr: 0x108370, symSize: 0x540 }
  - { offset: 0x73A0E5, size: 0x8, addend: 0x0, symName: __ZL17llama_decode_textRKNSt3__112basic_stringIcNS_11char_traitsIcEENS_9allocatorIcEEEE, symObjAddr: 0xBEC0, symBinAddr: 0x108100, symSize: 0x270 }
  - { offset: 0x73AC06, size: 0x8, addend: 0x0, symName: '__ZZNK11llama_vocab4impl14token_to_pieceEiPciibENK3$_0clEPKcm', symObjAddr: 0xBD90, symBinAddr: 0x107FD0, symSize: 0x90 }
  - { offset: 0x73AC67, size: 0x8, addend: 0x0, symName: __ZL25llama_unescape_whitespaceRNSt3__112basic_stringIcNS_11char_traitsIcEENS_9allocatorIcEEEE, symObjAddr: 0xBE20, symBinAddr: 0x108060, symSize: 0xA0 }
  - { offset: 0x73B209, size: 0x8, addend: 0x0, symName: __ZNSt3__16vectorINS_12basic_stringIcNS_11char_traitsIcEENS_9allocatorIcEEEENS4_IS6_EEE20__throw_out_of_rangeB8ne200100Ev, symObjAddr: 0x1D990, symBinAddr: 0x1185F0, symSize: 0x10 }
  - { offset: 0x73B221, size: 0x8, addend: 0x0, symName: __ZN11llama_vocab4implD2Ev, symObjAddr: 0x1D9A0, symBinAddr: 0x118600, symSize: 0x210 }
  - { offset: 0x73B914, size: 0x8, addend: 0x0, symName: __ZNK11llama_vocab4impl14token_to_pieceEi, symObjAddr: 0xC6C0, symBinAddr: 0x108900, symSize: 0x40 }
  - { offset: 0x73B98C, size: 0x8, addend: 0x0, symName: __ZNK11llama_vocab4impl10detokenizeEPKiiPcibb, symObjAddr: 0xC700, symBinAddr: 0x108940, symSize: 0x440 }
  - { offset: 0x73BCA1, size: 0x8, addend: 0x0, symName: __ZNK11llama_vocab4impl10print_infoEv, symObjAddr: 0xCB40, symBinAddr: 0x108D80, symSize: 0x7D0 }
  - { offset: 0x73D94B, size: 0x8, addend: 0x0, symName: __ZNK11llama_vocab8n_tokensEv, symObjAddr: 0xD310, symBinAddr: 0x109550, symSize: 0x20 }
  - { offset: 0x73DC24, size: 0x8, addend: 0x0, symName: __ZN11llama_vocabC2Ev, symObjAddr: 0xD330, symBinAddr: 0x109570, symSize: 0x110 }
  - { offset: 0x73DF77, size: 0x8, addend: 0x0, symName: __ZN11llama_vocabC1Ev, symObjAddr: 0xD440, symBinAddr: 0x109680, symSize: 0x110 }
  - { offset: 0x73E373, size: 0x8, addend: 0x0, symName: __ZN11llama_vocabD2Ev, symObjAddr: 0xD550, symBinAddr: 0x109790, symSize: 0x40 }
  - { offset: 0x73E451, size: 0x8, addend: 0x0, symName: __ZN11llama_vocab4implD2Ev, symObjAddr: 0x1D9A0, symBinAddr: 0x118600, symSize: 0x210 }
  - { offset: 0x73F844, size: 0x8, addend: 0x0, symName: __ZN11llama_vocabD1Ev, symObjAddr: 0xD590, symBinAddr: 0x1097D0, symSize: 0x40 }
  - { offset: 0x73F94D, size: 0x8, addend: 0x0, symName: __ZN11llama_vocab4loadER18llama_model_loaderRK6LLM_KV, symObjAddr: 0xD5D0, symBinAddr: 0x109810, symSize: 0x10 }
  - { offset: 0x73F9CF, size: 0x8, addend: 0x0, symName: __ZNK11llama_vocab19get_tokenizer_modelEv, symObjAddr: 0xD5E0, symBinAddr: 0x109820, symSize: 0x40 }
  - { offset: 0x73F9FB, size: 0x8, addend: 0x0, symName: __ZNK11llama_vocab19get_tokenizer_modelEv, symObjAddr: 0xD5E0, symBinAddr: 0x109820, symSize: 0x40 }
  - { offset: 0x73FA8A, size: 0x8, addend: 0x0, symName: __ZNK11llama_vocab17get_tokenizer_preEv, symObjAddr: 0xD620, symBinAddr: 0x109860, symSize: 0x40 }
  - { offset: 0x73FAB6, size: 0x8, addend: 0x0, symName: __ZNK11llama_vocab17get_tokenizer_preEv, symObjAddr: 0xD620, symBinAddr: 0x109860, symSize: 0x40 }
  - { offset: 0x73FB45, size: 0x8, addend: 0x0, symName: __ZNK11llama_vocab8get_typeEv, symObjAddr: 0xD660, symBinAddr: 0x1098A0, symSize: 0x10 }
  - { offset: 0x73FB82, size: 0x8, addend: 0x0, symName: __ZNK11llama_vocab12get_pre_typeEv, symObjAddr: 0xD670, symBinAddr: 0x1098B0, symSize: 0x10 }
  - { offset: 0x73FBBF, size: 0x8, addend: 0x0, symName: __ZNK11llama_vocab13n_token_typesEv, symObjAddr: 0xD680, symBinAddr: 0x1098C0, symSize: 0x10 }
  - { offset: 0x73FC04, size: 0x8, addend: 0x0, symName: __ZNK11llama_vocab9type_nameEv, symObjAddr: 0xD690, symBinAddr: 0x1098D0, symSize: 0x110 }
  - { offset: 0x7402EB, size: 0x8, addend: 0x0, symName: __ZNK11llama_vocab9is_normalEi, symObjAddr: 0xD7A0, symBinAddr: 0x1099E0, symSize: 0x50 }
  - { offset: 0x740318, size: 0x8, addend: 0x0, symName: __ZNK11llama_vocab9is_normalEi, symObjAddr: 0xD7A0, symBinAddr: 0x1099E0, symSize: 0x50 }
  - { offset: 0x7403AA, size: 0x8, addend: 0x0, symName: __ZNK11llama_vocab10is_unknownEi, symObjAddr: 0xD7F0, symBinAddr: 0x109A30, symSize: 0x50 }
  - { offset: 0x7403E6, size: 0x8, addend: 0x0, symName: __ZNK11llama_vocab10is_unknownEi, symObjAddr: 0xD7F0, symBinAddr: 0x109A30, symSize: 0x50 }
  - { offset: 0x740478, size: 0x8, addend: 0x0, symName: __ZNK11llama_vocab10is_controlEi, symObjAddr: 0xD840, symBinAddr: 0x109A80, symSize: 0x50 }
  - { offset: 0x7404A5, size: 0x8, addend: 0x0, symName: __ZNK11llama_vocab10is_controlEi, symObjAddr: 0xD840, symBinAddr: 0x109A80, symSize: 0x50 }
  - { offset: 0x740513, size: 0x8, addend: 0x0, symName: __ZNK11llama_vocab15is_user_definedEi, symObjAddr: 0xD890, symBinAddr: 0x109AD0, symSize: 0x50 }
  - { offset: 0x740540, size: 0x8, addend: 0x0, symName: __ZNK11llama_vocab15is_user_definedEi, symObjAddr: 0xD890, symBinAddr: 0x109AD0, symSize: 0x50 }
  - { offset: 0x7405D2, size: 0x8, addend: 0x0, symName: __ZNK11llama_vocab9is_unusedEi, symObjAddr: 0xD8E0, symBinAddr: 0x109B20, symSize: 0x50 }
  - { offset: 0x74060E, size: 0x8, addend: 0x0, symName: __ZNK11llama_vocab9is_unusedEi, symObjAddr: 0xD8E0, symBinAddr: 0x109B20, symSize: 0x50 }
  - { offset: 0x7406A0, size: 0x8, addend: 0x0, symName: __ZNK11llama_vocab6is_eogEi, symObjAddr: 0xD930, symBinAddr: 0x109B70, symSize: 0x40 }
  - { offset: 0x740765, size: 0x8, addend: 0x0, symName: __ZNK11llama_vocab13token_to_byteEi, symObjAddr: 0xD970, symBinAddr: 0x109BB0, symSize: 0x10 }
  - { offset: 0x7407D1, size: 0x8, addend: 0x0, symName: __ZNK11llama_vocab13text_to_tokenERKNSt3__112basic_stringIcNS0_11char_traitsIcEENS0_9allocatorIcEEEE, symObjAddr: 0xD980, symBinAddr: 0x109BC0, symSize: 0x50 }
  - { offset: 0x7408AA, size: 0x8, addend: 0x0, symName: __ZNK11llama_vocab14token_get_textEi, symObjAddr: 0xD9D0, symBinAddr: 0x109C10, symSize: 0x70 }
  - { offset: 0x7409F0, size: 0x8, addend: 0x0, symName: __ZNK11llama_vocab15token_get_scoreEi, symObjAddr: 0xDA40, symBinAddr: 0x109C80, symSize: 0x60 }
  - { offset: 0x740A9A, size: 0x8, addend: 0x0, symName: __ZNK11llama_vocab14token_get_attrEi, symObjAddr: 0xDAA0, symBinAddr: 0x109CE0, symSize: 0x60 }
  - { offset: 0x740B5B, size: 0x8, addend: 0x0, symName: __ZNK11llama_vocab9token_bosEv, symObjAddr: 0xDB00, symBinAddr: 0x109D40, symSize: 0x10 }
  - { offset: 0x740B98, size: 0x8, addend: 0x0, symName: __ZNK11llama_vocab9token_eosEv, symObjAddr: 0xDB10, symBinAddr: 0x109D50, symSize: 0x10 }
  - { offset: 0x740BD5, size: 0x8, addend: 0x0, symName: __ZNK11llama_vocab9token_eotEv, symObjAddr: 0xDB20, symBinAddr: 0x109D60, symSize: 0x10 }
  - { offset: 0x740C12, size: 0x8, addend: 0x0, symName: __ZNK11llama_vocab9token_eomEv, symObjAddr: 0xDB30, symBinAddr: 0x109D70, symSize: 0x10 }
  - { offset: 0x740C57, size: 0x8, addend: 0x0, symName: __ZNK11llama_vocab9token_unkEv, symObjAddr: 0xDB40, symBinAddr: 0x109D80, symSize: 0x10 }
  - { offset: 0x740C94, size: 0x8, addend: 0x0, symName: __ZNK11llama_vocab9token_sepEv, symObjAddr: 0xDB50, symBinAddr: 0x109D90, symSize: 0x10 }
  - { offset: 0x740CD1, size: 0x8, addend: 0x0, symName: __ZNK11llama_vocab8token_nlEv, symObjAddr: 0xDB60, symBinAddr: 0x109DA0, symSize: 0x10 }
  - { offset: 0x740D0E, size: 0x8, addend: 0x0, symName: __ZNK11llama_vocab9token_padEv, symObjAddr: 0xDB70, symBinAddr: 0x109DB0, symSize: 0x10 }
  - { offset: 0x740D4B, size: 0x8, addend: 0x0, symName: __ZNK11llama_vocab12token_prefixEv, symObjAddr: 0xDB80, symBinAddr: 0x109DC0, symSize: 0x10 }
  - { offset: 0x740D90, size: 0x8, addend: 0x0, symName: __ZNK11llama_vocab12token_middleEv, symObjAddr: 0xDB90, symBinAddr: 0x109DD0, symSize: 0x10 }
  - { offset: 0x740DD5, size: 0x8, addend: 0x0, symName: __ZNK11llama_vocab12token_suffixEv, symObjAddr: 0xDBA0, symBinAddr: 0x109DE0, symSize: 0x10 }
  - { offset: 0x740E1A, size: 0x8, addend: 0x0, symName: __ZNK11llama_vocab13token_fim_preEv, symObjAddr: 0xDBB0, symBinAddr: 0x109DF0, symSize: 0x10 }
  - { offset: 0x740E57, size: 0x8, addend: 0x0, symName: __ZNK11llama_vocab13token_fim_sufEv, symObjAddr: 0xDBC0, symBinAddr: 0x109E00, symSize: 0x10 }
  - { offset: 0x740E94, size: 0x8, addend: 0x0, symName: __ZNK11llama_vocab13token_fim_midEv, symObjAddr: 0xDBD0, symBinAddr: 0x109E10, symSize: 0x10 }
  - { offset: 0x740ED1, size: 0x8, addend: 0x0, symName: __ZNK11llama_vocab13token_fim_padEv, symObjAddr: 0xDBE0, symBinAddr: 0x109E20, symSize: 0x10 }
  - { offset: 0x740F0E, size: 0x8, addend: 0x0, symName: __ZNK11llama_vocab13token_fim_repEv, symObjAddr: 0xDBF0, symBinAddr: 0x109E30, symSize: 0x10 }
  - { offset: 0x740F4B, size: 0x8, addend: 0x0, symName: __ZNK11llama_vocab13token_fim_sepEv, symObjAddr: 0xDC00, symBinAddr: 0x109E40, symSize: 0x10 }
  - { offset: 0x740F88, size: 0x8, addend: 0x0, symName: __ZNK11llama_vocab10token_maskEv, symObjAddr: 0xDC10, symBinAddr: 0x109E50, symSize: 0x10 }
  - { offset: 0x740FC5, size: 0x8, addend: 0x0, symName: __ZNK11llama_vocab20get_add_space_prefixEv, symObjAddr: 0xDC20, symBinAddr: 0x109E60, symSize: 0x10 }
  - { offset: 0x74100A, size: 0x8, addend: 0x0, symName: __ZNK11llama_vocab11get_add_bosEv, symObjAddr: 0xDC30, symBinAddr: 0x109E70, symSize: 0x10 }
  - { offset: 0x741047, size: 0x8, addend: 0x0, symName: __ZNK11llama_vocab11get_add_eosEv, symObjAddr: 0xDC40, symBinAddr: 0x109E80, symSize: 0x10 }
  - { offset: 0x741084, size: 0x8, addend: 0x0, symName: __ZNK11llama_vocab11get_add_sepEv, symObjAddr: 0xDC50, symBinAddr: 0x109E90, symSize: 0x10 }
  - { offset: 0x7410C1, size: 0x8, addend: 0x0, symName: __ZNK11llama_vocab17get_ignore_mergesEv, symObjAddr: 0xDC60, symBinAddr: 0x109EA0, symSize: 0x10 }
  - { offset: 0x7410FE, size: 0x8, addend: 0x0, symName: __ZNK11llama_vocab16get_clean_spacesEv, symObjAddr: 0xDC70, symBinAddr: 0x109EB0, symSize: 0x10 }
  - { offset: 0x741143, size: 0x8, addend: 0x0, symName: __ZNK11llama_vocab28get_remove_extra_whitespacesEv, symObjAddr: 0xDC80, symBinAddr: 0x109EC0, symSize: 0x10 }
  - { offset: 0x741188, size: 0x8, addend: 0x0, symName: __ZNK11llama_vocab22get_escape_whitespacesEv, symObjAddr: 0xDC90, symBinAddr: 0x109ED0, symSize: 0x10 }
  - { offset: 0x7411C5, size: 0x8, addend: 0x0, symName: __ZNK11llama_vocab30get_treat_whitespace_as_suffixEv, symObjAddr: 0xDCA0, symBinAddr: 0x109EE0, symSize: 0x10 }
  - { offset: 0x741202, size: 0x8, addend: 0x0, symName: __ZNK11llama_vocab13max_token_lenEv, symObjAddr: 0xDCB0, symBinAddr: 0x109EF0, symSize: 0x10 }
  - { offset: 0x7412ED, size: 0x8, addend: 0x0, symName: __ZNK11llama_vocab13find_bpe_rankERKNSt3__112basic_stringIcNS0_11char_traitsIcEENS0_9allocatorIcEEEES8_, symObjAddr: 0xDCC0, symBinAddr: 0x109F00, symSize: 0x1F0 }
  - { offset: 0x74187C, size: 0x8, addend: 0x0, symName: __ZNSt3__112__hash_tableINS_17__hash_value_typeINS_4pairINS_12basic_stringIcNS_11char_traitsIcEENS_9allocatorIcEEEES8_EEiEENS_22__unordered_map_hasherIS9_SA_N11llama_vocab4impl9pair_hashENS_8equal_toIS9_EELb1EEENS_21__unordered_map_equalIS9_SA_SG_SE_Lb1EEENS6_ISA_EEE4findIS9_EENS_15__hash_iteratorIPNS_11__hash_nodeISA_PvEEEERKT_, symObjAddr: 0x1DBB0, symBinAddr: 0x118810, symSize: 0x1F0 }
  - { offset: 0x741BE6, size: 0x8, addend: 0x0, symName: __ZNK11llama_vocab14get_bpe_mergesEv, symObjAddr: 0xDEB0, symBinAddr: 0x10A0F0, symSize: 0x2F0 }
  - { offset: 0x7428FD, size: 0x8, addend: 0x0, symName: __ZNK11llama_vocab24get_precompiled_charsmapEv, symObjAddr: 0xE2B0, symBinAddr: 0x10A4F0, symSize: 0x70 }
  - { offset: 0x742C95, size: 0x8, addend: 0x0, symName: __ZNK11llama_vocab8tokenizeEPKciPiibb, symObjAddr: 0xE320, symBinAddr: 0x10A560, symSize: 0x250 }
  - { offset: 0x7433D4, size: 0x8, addend: 0x0, symName: __ZNK11llama_vocab8tokenizeERKNSt3__112basic_stringIcNS0_11char_traitsIcEENS0_9allocatorIcEEEEbb, symObjAddr: 0xE570, symBinAddr: 0x10A7B0, symSize: 0x20 }
  - { offset: 0x74347C, size: 0x8, addend: 0x0, symName: __ZNK11llama_vocab14token_to_pieceEi, symObjAddr: 0xE590, symBinAddr: 0x10A7D0, symSize: 0x40 }
  - { offset: 0x7434B8, size: 0x8, addend: 0x0, symName: __ZNK11llama_vocab14token_to_pieceEi, symObjAddr: 0xE590, symBinAddr: 0x10A7D0, symSize: 0x40 }
  - { offset: 0x743535, size: 0x8, addend: 0x0, symName: __ZNK11llama_vocab10detokenizeEPKiiPcibb, symObjAddr: 0xE5D0, symBinAddr: 0x10A810, symSize: 0x10 }
  - { offset: 0x743540, size: 0x8, addend: 0x0, symName: __ZNK11llama_vocab10detokenizeEPKiiPcibb, symObjAddr: 0xE5D0, symBinAddr: 0x10A810, symSize: 0x10 }
  - { offset: 0x74365D, size: 0x8, addend: 0x0, symName: __ZNK11llama_vocab10detokenizeERKNSt3__16vectorIiNS0_9allocatorIiEEEEb, symObjAddr: 0xE5E0, symBinAddr: 0x10A820, symSize: 0x140 }
  - { offset: 0x743ADF, size: 0x8, addend: 0x0, symName: __ZNK11llama_vocab10print_infoEv, symObjAddr: 0xE720, symBinAddr: 0x10A960, symSize: 0x10 }
  - { offset: 0x743B34, size: 0x8, addend: 0x0, symName: _llama_vocab_n_tokens, symObjAddr: 0xE730, symBinAddr: 0x10A970, symSize: 0x20 }
  - { offset: 0x743BC5, size: 0x8, addend: 0x0, symName: _llama_n_vocab, symObjAddr: 0xE750, symBinAddr: 0x10A990, symSize: 0x20 }
  - { offset: 0x743C67, size: 0x8, addend: 0x0, symName: _llama_vocab_type, symObjAddr: 0xE770, symBinAddr: 0x10A9B0, symSize: 0x10 }
  - { offset: 0x743CF1, size: 0x8, addend: 0x0, symName: _llama_vocab_get_text, symObjAddr: 0xE780, symBinAddr: 0x10A9C0, symSize: 0x70 }
  - { offset: 0x743E78, size: 0x8, addend: 0x0, symName: _llama_vocab_get_score, symObjAddr: 0xE7F0, symBinAddr: 0x10AA30, symSize: 0x60 }
  - { offset: 0x743F63, size: 0x8, addend: 0x0, symName: _llama_vocab_get_attr, symObjAddr: 0xE850, symBinAddr: 0x10AA90, symSize: 0x60 }
  - { offset: 0x744065, size: 0x8, addend: 0x0, symName: _llama_vocab_is_eog, symObjAddr: 0xE8B0, symBinAddr: 0x10AAF0, symSize: 0x40 }
  - { offset: 0x74408A, size: 0x8, addend: 0x0, symName: _llama_vocab_is_eog, symObjAddr: 0xE8B0, symBinAddr: 0x10AAF0, symSize: 0x40 }
  - { offset: 0x74416F, size: 0x8, addend: 0x0, symName: _llama_vocab_is_control, symObjAddr: 0xE8F0, symBinAddr: 0x10AB30, symSize: 0x50 }
  - { offset: 0x7441B7, size: 0x8, addend: 0x0, symName: _llama_vocab_is_control, symObjAddr: 0xE8F0, symBinAddr: 0x10AB30, symSize: 0x50 }
  - { offset: 0x744226, size: 0x8, addend: 0x0, symName: _llama_vocab_bos, symObjAddr: 0xE940, symBinAddr: 0x10AB80, symSize: 0x10 }
  - { offset: 0x74427C, size: 0x8, addend: 0x0, symName: _llama_vocab_eos, symObjAddr: 0xE950, symBinAddr: 0x10AB90, symSize: 0x10 }
  - { offset: 0x7442EB, size: 0x8, addend: 0x0, symName: _llama_vocab_eot, symObjAddr: 0xE960, symBinAddr: 0x10ABA0, symSize: 0x10 }
  - { offset: 0x744341, size: 0x8, addend: 0x0, symName: _llama_vocab_cls, symObjAddr: 0xE970, symBinAddr: 0x10ABB0, symSize: 0x10 }
  - { offset: 0x7443BF, size: 0x8, addend: 0x0, symName: _llama_vocab_sep, symObjAddr: 0xE980, symBinAddr: 0x10ABC0, symSize: 0x10 }
  - { offset: 0x74442E, size: 0x8, addend: 0x0, symName: _llama_vocab_nl, symObjAddr: 0xE990, symBinAddr: 0x10ABD0, symSize: 0x10 }
  - { offset: 0x74449D, size: 0x8, addend: 0x0, symName: _llama_vocab_pad, symObjAddr: 0xE9A0, symBinAddr: 0x10ABE0, symSize: 0x10 }
  - { offset: 0x7444F3, size: 0x8, addend: 0x0, symName: _llama_vocab_get_add_bos, symObjAddr: 0xE9B0, symBinAddr: 0x10ABF0, symSize: 0x10 }
  - { offset: 0x744549, size: 0x8, addend: 0x0, symName: _llama_vocab_get_add_eos, symObjAddr: 0xE9C0, symBinAddr: 0x10AC00, symSize: 0x10 }
  - { offset: 0x7445B8, size: 0x8, addend: 0x0, symName: _llama_vocab_get_add_sep, symObjAddr: 0xE9D0, symBinAddr: 0x10AC10, symSize: 0x10 }
  - { offset: 0x744636, size: 0x8, addend: 0x0, symName: _llama_vocab_fim_pre, symObjAddr: 0xE9E0, symBinAddr: 0x10AC20, symSize: 0x10 }
  - { offset: 0x7446A5, size: 0x8, addend: 0x0, symName: _llama_vocab_fim_suf, symObjAddr: 0xE9F0, symBinAddr: 0x10AC30, symSize: 0x10 }
  - { offset: 0x744714, size: 0x8, addend: 0x0, symName: _llama_vocab_fim_mid, symObjAddr: 0xEA00, symBinAddr: 0x10AC40, symSize: 0x10 }
  - { offset: 0x744783, size: 0x8, addend: 0x0, symName: _llama_vocab_fim_pad, symObjAddr: 0xEA10, symBinAddr: 0x10AC50, symSize: 0x10 }
  - { offset: 0x7447F2, size: 0x8, addend: 0x0, symName: _llama_vocab_fim_rep, symObjAddr: 0xEA20, symBinAddr: 0x10AC60, symSize: 0x10 }
  - { offset: 0x744861, size: 0x8, addend: 0x0, symName: _llama_vocab_fim_sep, symObjAddr: 0xEA30, symBinAddr: 0x10AC70, symSize: 0x10 }
  - { offset: 0x7448D0, size: 0x8, addend: 0x0, symName: _llama_vocab_mask, symObjAddr: 0xEA40, symBinAddr: 0x10AC80, symSize: 0x10 }
  - { offset: 0x74495C, size: 0x8, addend: 0x0, symName: _llama_token_get_text, symObjAddr: 0xEA50, symBinAddr: 0x10AC90, symSize: 0x70 }
  - { offset: 0x744B1A, size: 0x8, addend: 0x0, symName: _llama_token_get_score, symObjAddr: 0xEAC0, symBinAddr: 0x10AD00, symSize: 0x60 }
  - { offset: 0x744C3C, size: 0x8, addend: 0x0, symName: _llama_token_get_attr, symObjAddr: 0xEB20, symBinAddr: 0x10AD60, symSize: 0x60 }
  - { offset: 0x744D75, size: 0x8, addend: 0x0, symName: _llama_token_is_eog, symObjAddr: 0xEB80, symBinAddr: 0x10ADC0, symSize: 0x40 }
  - { offset: 0x744DB1, size: 0x8, addend: 0x0, symName: _llama_token_is_eog, symObjAddr: 0xEB80, symBinAddr: 0x10ADC0, symSize: 0x40 }
  - { offset: 0x744DD4, size: 0x8, addend: 0x0, symName: _llama_token_is_eog, symObjAddr: 0xEB80, symBinAddr: 0x10ADC0, symSize: 0x40 }
  - { offset: 0x744EBC, size: 0x8, addend: 0x0, symName: _llama_token_is_control, symObjAddr: 0xEBC0, symBinAddr: 0x10AE00, symSize: 0x50 }
  - { offset: 0x744F38, size: 0x8, addend: 0x0, symName: _llama_token_is_control, symObjAddr: 0xEBC0, symBinAddr: 0x10AE00, symSize: 0x50 }
  - { offset: 0x744FC3, size: 0x8, addend: 0x0, symName: _llama_token_bos, symObjAddr: 0xEC10, symBinAddr: 0x10AE50, symSize: 0x10 }
  - { offset: 0x745060, size: 0x8, addend: 0x0, symName: _llama_token_eos, symObjAddr: 0xEC20, symBinAddr: 0x10AE60, symSize: 0x10 }
  - { offset: 0x7450FD, size: 0x8, addend: 0x0, symName: _llama_token_eot, symObjAddr: 0xEC30, symBinAddr: 0x10AE70, symSize: 0x10 }
  - { offset: 0x74517F, size: 0x8, addend: 0x0, symName: _llama_token_cls, symObjAddr: 0xEC40, symBinAddr: 0x10AE80, symSize: 0x10 }
  - { offset: 0x74521C, size: 0x8, addend: 0x0, symName: _llama_token_sep, symObjAddr: 0xEC50, symBinAddr: 0x10AE90, symSize: 0x10 }
  - { offset: 0x7452B9, size: 0x8, addend: 0x0, symName: _llama_token_nl, symObjAddr: 0xEC60, symBinAddr: 0x10AEA0, symSize: 0x10 }
  - { offset: 0x745356, size: 0x8, addend: 0x0, symName: _llama_token_pad, symObjAddr: 0xEC70, symBinAddr: 0x10AEB0, symSize: 0x10 }
  - { offset: 0x7453F3, size: 0x8, addend: 0x0, symName: _llama_add_bos_token, symObjAddr: 0xEC80, symBinAddr: 0x10AEC0, symSize: 0x10 }
  - { offset: 0x745490, size: 0x8, addend: 0x0, symName: _llama_add_eos_token, symObjAddr: 0xEC90, symBinAddr: 0x10AED0, symSize: 0x10 }
  - { offset: 0x74552D, size: 0x8, addend: 0x0, symName: _llama_token_fim_pre, symObjAddr: 0xECA0, symBinAddr: 0x10AEE0, symSize: 0x10 }
  - { offset: 0x7455CA, size: 0x8, addend: 0x0, symName: _llama_token_fim_suf, symObjAddr: 0xECB0, symBinAddr: 0x10AEF0, symSize: 0x10 }
  - { offset: 0x745667, size: 0x8, addend: 0x0, symName: _llama_token_fim_mid, symObjAddr: 0xECC0, symBinAddr: 0x10AF00, symSize: 0x10 }
  - { offset: 0x745704, size: 0x8, addend: 0x0, symName: _llama_token_fim_pad, symObjAddr: 0xECD0, symBinAddr: 0x10AF10, symSize: 0x10 }
  - { offset: 0x7457A1, size: 0x8, addend: 0x0, symName: _llama_token_fim_rep, symObjAddr: 0xECE0, symBinAddr: 0x10AF20, symSize: 0x10 }
  - { offset: 0x74583E, size: 0x8, addend: 0x0, symName: _llama_token_fim_sep, symObjAddr: 0xECF0, symBinAddr: 0x10AF30, symSize: 0x10 }
  - { offset: 0x7458C0, size: 0x8, addend: 0x0, symName: _llama_tokenize, symObjAddr: 0xED00, symBinAddr: 0x10AF40, symSize: 0x10 }
  - { offset: 0x745987, size: 0x8, addend: 0x0, symName: _llama_token_to_piece, symObjAddr: 0xED10, symBinAddr: 0x10AF50, symSize: 0x10 }
  - { offset: 0x745AA7, size: 0x8, addend: 0x0, symName: _llama_detokenize, symObjAddr: 0xED20, symBinAddr: 0x10AF60, symSize: 0x10 }
  - { offset: 0x745D1B, size: 0x8, addend: 0x0, symName: __ZNSt3__16vectorI14llm_bigram_spmNS_9allocatorIS1_EEE9push_backB8ne200100ERKS1_, symObjAddr: 0xF5D0, symBinAddr: 0x10B750, symSize: 0x140 }
  - { offset: 0x746127, size: 0x8, addend: 0x0, symName: __ZNSt3__16__treeINS_12__value_typeINS_12basic_stringIcNS_11char_traitsIcEENS_9allocatorIcEEEENS_4pairIiiEEEENS_19__map_value_compareIS7_SA_NS_4lessIS7_EELb1EEENS5_ISA_EEE25__emplace_unique_key_argsIS7_JRKNS_21piecewise_construct_tENS_5tupleIJRKS7_EEENSL_IJEEEEEENS8_INS_15__tree_iteratorISA_PNS_11__tree_nodeISA_PvEElEEbEERKT_DpOT0_, symObjAddr: 0xF720, symBinAddr: 0x10B8A0, symSize: 0x1D0 }
  - { offset: 0x74690A, size: 0x8, addend: 0x0, symName: __ZNSt3__16__treeINS_12__value_typeINS_12basic_stringIcNS_11char_traitsIcEENS_9allocatorIcEEEENS_4pairIiiEEEENS_19__map_value_compareIS7_SA_NS_4lessIS7_EELb1EEENS5_ISA_EEE4findIS7_EENS_15__tree_iteratorISA_PNS_11__tree_nodeISA_PvEElEERKT_, symObjAddr: 0xFCB0, symBinAddr: 0x10BCB0, symSize: 0x110 }
  - { offset: 0x746FAA, size: 0x8, addend: 0x0, symName: __ZNSt3__16vectorI14llm_bigram_spmNS_9allocatorIS1_EEE20__throw_length_errorB8ne200100Ev, symObjAddr: 0xF710, symBinAddr: 0x10B890, symSize: 0x10 }
  - { offset: 0x746FC2, size: 0x8, addend: 0x0, symName: __ZNSt3__16__treeINS_12__value_typeINS_12basic_stringIcNS_11char_traitsIcEENS_9allocatorIcEEEENS_4pairIiiEEEENS_19__map_value_compareIS7_SA_NS_4lessIS7_EELb1EEENS5_ISA_EEE25__emplace_unique_key_argsIS7_JRKNS_21piecewise_construct_tENS_5tupleIJRKS7_EEENSL_IJEEEEEENS8_INS_15__tree_iteratorISA_PNS_11__tree_nodeISA_PvEElEEbEERKT_DpOT0_, symObjAddr: 0xF720, symBinAddr: 0x10B8A0, symSize: 0x1D0 }
  - { offset: 0x747540, size: 0x8, addend: 0x0, symName: __ZNSt3__110unique_ptrINS_11__tree_nodeINS_12__value_typeINS_12basic_stringIcNS_11char_traitsIcEENS_9allocatorIcEEEENS_4pairIiiEEEEPvEENS_22__tree_node_destructorINS6_ISD_EEEEED1B8ne200100Ev, symObjAddr: 0xF8F0, symBinAddr: 0x10BA70, symSize: 0x50 }
  - { offset: 0x747BCE, size: 0x8, addend: 0x0, symName: __ZNSt3__16vectorI14llm_bigram_bpeNS_9allocatorIS1_EEE24__emplace_back_slow_pathIJRKS1_EEEPS1_DpOT_, symObjAddr: 0x10260, symBinAddr: 0x10C250, symSize: 0x230 }
  - { offset: 0x748537, size: 0x8, addend: 0x0, symName: __ZNSt3__16vectorI14llm_bigram_bpeNS_9allocatorIS1_EEE20__throw_length_errorB8ne200100Ev, symObjAddr: 0x104F0, symBinAddr: 0x10C4E0, symSize: 0x10 }
  - { offset: 0x74854F, size: 0x8, addend: 0x0, symName: __ZNSt3__19__sift_upB8ne200100INS_17_ClassicAlgPolicyERN14llm_bigram_bpe10comparatorENS_11__wrap_iterIPS2_EEEEvT1_S8_OT0_NS_15iterator_traitsIS8_E15difference_typeE, symObjAddr: 0x10500, symBinAddr: 0x10C4F0, symSize: 0x1B0 }
  - { offset: 0x74855A, size: 0x8, addend: 0x0, symName: __ZNSt3__114__split_bufferI14llm_bigram_bpeRNS_9allocatorIS1_EEED1Ev, symObjAddr: 0x10490, symBinAddr: 0x10C480, symSize: 0x60 }
  - { offset: 0x749157, size: 0x8, addend: 0x0, symName: __ZN25llm_tokenizer_ugm_session16normalize_prefixERKNSt3__112basic_stringIcNS0_11char_traitsIcEENS0_9allocatorIcEEEEm, symObjAddr: 0x11640, symBinAddr: 0x10D540, symSize: 0x320 }
  - { offset: 0x749FCE, size: 0x8, addend: 0x0, symName: __ZNSt3__16vectorINS0_IiNS_9allocatorIiEEEENS1_IS3_EEEC2B8ne200100EmRKS3_, symObjAddr: 0x12560, symBinAddr: 0x10E3E0, symSize: 0x1A0 }
  - { offset: 0x74A670, size: 0x8, addend: 0x0, symName: __ZNSt3__16vectorINS0_IiNS_9allocatorIiEEEENS1_IS3_EEEC2B8ne200100EmRKS3_, symObjAddr: 0x12560, symBinAddr: 0x10E3E0, symSize: 0x1A0 }
  - { offset: 0x74A997, size: 0x8, addend: 0x0, symName: __ZNSt3__16vectorINS0_IiNS_9allocatorIiEEEENS1_IS3_EEE20__throw_length_errorB8ne200100Ev, symObjAddr: 0x12770, symBinAddr: 0x10E580, symSize: 0x10 }
  - { offset: 0x74BB1F, size: 0x8, addend: 0x0, symName: __ZNSt3__112__hash_tableINS_17__hash_value_typeINS_12basic_stringIcNS_11char_traitsIcEENS_9allocatorIcEEEEiEENS_22__unordered_map_hasherIS7_S8_NS_4hashIS7_EENS_8equal_toIS7_EELb1EEENS_21__unordered_map_equalIS7_S8_SD_SB_Lb1EEENS5_IS8_EEE11__do_rehashILb1EEEvm, symObjAddr: 0x13790, symBinAddr: 0x10EB90, symSize: 0x1B0 }
  - { offset: 0x74BEDB, size: 0x8, addend: 0x0, symName: __ZNSt3__110unique_ptrINS_11__hash_nodeINS_17__hash_value_typeINS_12basic_stringIcNS_11char_traitsIcEENS_9allocatorIcEEEEiEEPvEENS_22__hash_node_destructorINS6_ISB_EEEEED1B8ne200100Ev, symObjAddr: 0x13290, symBinAddr: 0x10EB40, symSize: 0x50 }
  - { offset: 0x74CA51, size: 0x8, addend: 0x0, symName: __ZNSt3__16vectorIN11llama_vocab10token_dataENS_9allocatorIS2_EEE20__throw_length_errorB8ne200100Ev, symObjAddr: 0x13D90, symBinAddr: 0x10F190, symSize: 0x10 }
  - { offset: 0x74CA69, size: 0x8, addend: 0x0, symName: __ZNSt3__112__hash_tableINS_17__hash_value_typeINS_4pairINS_12basic_stringIcNS_11char_traitsIcEENS_9allocatorIcEEEES8_EEiEENS_22__unordered_map_hasherIS9_SA_N11llama_vocab4impl9pair_hashENS_8equal_toIS9_EELb1EEENS_21__unordered_map_equalIS9_SA_SG_SE_Lb1EEENS6_ISA_EEE25__emplace_unique_key_argsIS9_JS9_RiEEENS2_INS_15__hash_iteratorIPNS_11__hash_nodeISA_PvEEEEbEERKT_DpOT0_, symObjAddr: 0x13DA0, symBinAddr: 0x10F1A0, symSize: 0x570 }
  - { offset: 0x74CF65, size: 0x8, addend: 0x0, symName: __ZNKSt3__18equal_toINS_4pairINS_12basic_stringIcNS_11char_traitsIcEENS_9allocatorIcEEEES7_EEEclB8ne200100ERKS8_SB_, symObjAddr: 0x14360, symBinAddr: 0x10F760, symSize: 0x100 }
  - { offset: 0x74D218, size: 0x8, addend: 0x0, symName: __ZNSt3__112__hash_tableINS_17__hash_value_typeINS_4pairINS_12basic_stringIcNS_11char_traitsIcEENS_9allocatorIcEEEES8_EEiEENS_22__unordered_map_hasherIS9_SA_N11llama_vocab4impl9pair_hashENS_8equal_toIS9_EELb1EEENS_21__unordered_map_equalIS9_SA_SG_SE_Lb1EEENS6_ISA_EEE11__do_rehashILb1EEEvm, symObjAddr: 0x14460, symBinAddr: 0x10F860, symSize: 0x1B0 }
  - { offset: 0x74D5D4, size: 0x8, addend: 0x0, symName: __ZNSt3__110unique_ptrINS_11__hash_nodeINS_17__hash_value_typeINS_4pairINS_12basic_stringIcNS_11char_traitsIcEENS_9allocatorIcEEEES9_EEiEEPvEENS_22__hash_node_destructorINS7_ISD_EEEEED1B8ne200100Ev, symObjAddr: 0x14310, symBinAddr: 0x10F710, symSize: 0x50 }
  - { offset: 0x74DF2F, size: 0x8, addend: 0x0, symName: __ZN17llm_tokenizer_spmD1Ev, symObjAddr: 0x16700, symBinAddr: 0x111730, symSize: 0x10 }
  - { offset: 0x74DF5A, size: 0x8, addend: 0x0, symName: __ZN17llm_tokenizer_spmD0Ev, symObjAddr: 0x16710, symBinAddr: 0x111740, symSize: 0x10 }
  - { offset: 0x74E04D, size: 0x8, addend: 0x0, symName: __ZNSt3__16vectorINS_12basic_stringIcNS_11char_traitsIcEENS_9allocatorIcEEEENS4_IS6_EEE18__assign_with_sizeB8ne200100IPKS6_SB_EEvT_T0_l, symObjAddr: 0x17AF0, symBinAddr: 0x112B20, symSize: 0x340 }
  - { offset: 0x74EC61, size: 0x8, addend: 0x0, symName: __ZN17llm_tokenizer_bpeC2ERK11llama_vocab.cold.2, symObjAddr: 0x1DDD0, symBinAddr: 0x2BB6B0, symSize: 0x20 }
  - { offset: 0x74EC7C, size: 0x8, addend: 0x0, symName: __ZN17llm_tokenizer_bpeC2ERK11llama_vocab.cold.2, symObjAddr: 0x1DDD0, symBinAddr: 0x2BB6B0, symSize: 0x20 }
  - { offset: 0x74EC91, size: 0x8, addend: 0x0, symName: __ZN17llm_tokenizer_bpeC2ERK11llama_vocab.cold.2, symObjAddr: 0x1DDD0, symBinAddr: 0x2BB6B0, symSize: 0x20 }
  - { offset: 0x74ED34, size: 0x8, addend: 0x0, symName: __ZN17llm_tokenizer_bpeC2ERK11llama_vocab.cold.3, symObjAddr: 0x1DDF0, symBinAddr: 0x2BB6D0, symSize: 0x30 }
  - { offset: 0x74EE07, size: 0x8, addend: 0x0, symName: __ZN17llm_tokenizer_bpeC2ERK11llama_vocab.cold.1, symObjAddr: 0x1DDA0, symBinAddr: 0x2BB680, symSize: 0x30 }
  - { offset: 0x74EEDA, size: 0x8, addend: 0x0, symName: __ZN17llm_tokenizer_bpeC2ERK11llama_vocab.cold.5, symObjAddr: 0x1DE50, symBinAddr: 0x2BB730, symSize: 0x30 }
  - { offset: 0x74EFAD, size: 0x8, addend: 0x0, symName: __ZN17llm_tokenizer_bpeC2ERK11llama_vocab.cold.4, symObjAddr: 0x1DE20, symBinAddr: 0x2BB700, symSize: 0x30 }
  - { offset: 0x74F09D, size: 0x8, addend: 0x0, symName: __ZN17llm_tokenizer_bpeD1Ev, symObjAddr: 0x179F0, symBinAddr: 0x112A20, symSize: 0x80 }
  - { offset: 0x74F35C, size: 0x8, addend: 0x0, symName: __ZN17llm_tokenizer_bpeD0Ev, symObjAddr: 0x17A70, symBinAddr: 0x112AA0, symSize: 0x80 }
  - { offset: 0x74F728, size: 0x8, addend: 0x0, symName: __ZNSt3__128__exception_guard_exceptionsINS_29_AllocatorDestroyRangeReverseINS_9allocatorINS_12basic_stringIcNS_11char_traitsIcEENS2_IcEEEEEEPS7_EEED1B8ne200100Ev, symObjAddr: 0x17E30, symBinAddr: 0x112E60, symSize: 0x40 }
  - { offset: 0x74F755, size: 0x8, addend: 0x0, symName: __ZNSt3__128__exception_guard_exceptionsINS_29_AllocatorDestroyRangeReverseINS_9allocatorINS_12basic_stringIcNS_11char_traitsIcEENS2_IcEEEEEEPS7_EEED1B8ne200100Ev, symObjAddr: 0x17E30, symBinAddr: 0x112E60, symSize: 0x40 }
  - { offset: 0x74F926, size: 0x8, addend: 0x0, symName: __ZN17llm_tokenizer_wpmD1Ev, symObjAddr: 0x17E70, symBinAddr: 0x112EA0, symSize: 0x10 }
  - { offset: 0x74F952, size: 0x8, addend: 0x0, symName: __ZN17llm_tokenizer_wpmD0Ev, symObjAddr: 0x17E80, symBinAddr: 0x112EB0, symSize: 0x10 }
  - { offset: 0x74FB77, size: 0x8, addend: 0x0, symName: __ZN10naive_trie6insertEPKcmi, symObjAddr: 0x18160, symBinAddr: 0x113190, symSize: 0x1C0 }
  - { offset: 0x75070C, size: 0x8, addend: 0x0, symName: __ZNSt3__16__treeINS_12__value_typeIc10naive_trieEENS_19__map_value_compareIcS3_NS_4lessIcEELb1EEENS_9allocatorIS3_EEE7destroyEPNS_11__tree_nodeIS3_PvEE, symObjAddr: 0x183C0, symBinAddr: 0x1133F0, symSize: 0x50 }
  - { offset: 0x750F75, size: 0x8, addend: 0x0, symName: __ZN17llm_tokenizer_ugmD1Ev, symObjAddr: 0x18320, symBinAddr: 0x113350, symSize: 0x50 }
  - { offset: 0x751265, size: 0x8, addend: 0x0, symName: __ZN17llm_tokenizer_ugmD0Ev, symObjAddr: 0x18370, symBinAddr: 0x1133A0, symSize: 0x50 }
  - { offset: 0x75167F, size: 0x8, addend: 0x0, symName: __ZN18llm_tokenizer_rwkvD1Ev, symObjAddr: 0x18580, symBinAddr: 0x1135B0, symSize: 0x20 }
  - { offset: 0x751788, size: 0x8, addend: 0x0, symName: __ZN18llm_tokenizer_rwkvD0Ev, symObjAddr: 0x185A0, symBinAddr: 0x1135D0, symSize: 0x40 }
  - { offset: 0x75292F, size: 0x8, addend: 0x0, symName: __ZNSt3__112__hash_tableINS_17__hash_value_typeINS_12basic_stringIcNS_11char_traitsIcEENS_9allocatorIcEEEEfEENS_22__unordered_map_hasherIS7_S8_NS_4hashIS7_EENS_8equal_toIS7_EELb1EEENS_21__unordered_map_equalIS7_S8_SD_SB_Lb1EEENS5_IS8_EEE25__emplace_unique_key_argsIS7_JRKNS_21piecewise_construct_tENS_5tupleIJRKS7_EEENSN_IJEEEEEENS_4pairINS_15__hash_iteratorIPNS_11__hash_nodeIS8_PvEEEEbEERKT_DpOT0_, symObjAddr: 0x19FE0, symBinAddr: 0x114C40, symSize: 0x5B0 }
  - { offset: 0x75328B, size: 0x8, addend: 0x0, symName: __ZNSt3__112__hash_tableINS_17__hash_value_typeINS_12basic_stringIcNS_11char_traitsIcEENS_9allocatorIcEEEEfEENS_22__unordered_map_hasherIS7_S8_NS_4hashIS7_EENS_8equal_toIS7_EELb1EEENS_21__unordered_map_equalIS7_S8_SD_SB_Lb1EEENS5_IS8_EEE4findIS7_EENS_15__hash_iteratorIPNS_11__hash_nodeIS8_PvEEEERKT_, symObjAddr: 0x1A790, symBinAddr: 0x1153F0, symSize: 0x290 }
  - { offset: 0x753589, size: 0x8, addend: 0x0, symName: __ZNSt3__112__hash_tableINS_17__hash_value_typeIxiEENS_22__unordered_map_hasherIxS2_NS_4hashIxEENS_8equal_toIxEELb1EEENS_21__unordered_map_equalIxS2_S7_S5_Lb1EEENS_9allocatorIS2_EEE25__emplace_unique_key_argsIxJRKNS_21piecewise_construct_tENS_5tupleIJRKxEEENSI_IJEEEEEENS_4pairINS_15__hash_iteratorIPNS_11__hash_nodeIS2_PvEEEEbEERKT_DpOT0_, symObjAddr: 0x1CEF0, symBinAddr: 0x117B50, symSize: 0x4B0 }
  - { offset: 0x753CE1, size: 0x8, addend: 0x0, symName: __ZNSt3__16vectorINS0_IiNS_9allocatorIiEEEENS1_IS3_EEE8__appendEmRKS3_, symObjAddr: 0x1D550, symBinAddr: 0x1181B0, symSize: 0x2D0 }
  - { offset: 0x754A6B, size: 0x8, addend: 0x0, symName: __ZN20llm_tokenizer_plamo25buildERK11llama_vocab.cold.1, symObjAddr: 0x1DE80, symBinAddr: 0x2BB760, symSize: 0x4C }
  - { offset: 0x754DBC, size: 0x8, addend: 0x0, symName: __ZN20llm_tokenizer_plamo2D1Ev, symObjAddr: 0x19BE0, symBinAddr: 0x114C10, symSize: 0x10 }
  - { offset: 0x754DF2, size: 0x8, addend: 0x0, symName: __ZN20llm_tokenizer_plamo2D2Ev, symObjAddr: 0x1D880, symBinAddr: 0x1184E0, symSize: 0x110 }
  - { offset: 0x7556F6, size: 0x8, addend: 0x0, symName: __ZN20llm_tokenizer_plamo2D0Ev, symObjAddr: 0x19BF0, symBinAddr: 0x114C20, symSize: 0x20 }
  - { offset: 0x755D66, size: 0x8, addend: 0x0, symName: __ZNSt3__112__hash_tableINS_17__hash_value_typeINS_12basic_stringIcNS_11char_traitsIcEENS_9allocatorIcEEEEfEENS_22__unordered_map_hasherIS7_S8_NS_4hashIS7_EENS_8equal_toIS7_EELb1EEENS_21__unordered_map_equalIS7_S8_SD_SB_Lb1EEENS5_IS8_EEE11__do_rehashILb1EEEvm, symObjAddr: 0x1A5E0, symBinAddr: 0x115240, symSize: 0x1B0 }
  - { offset: 0x756122, size: 0x8, addend: 0x0, symName: __ZNSt3__110unique_ptrINS_11__hash_nodeINS_17__hash_value_typeINS_12basic_stringIcNS_11char_traitsIcEENS_9allocatorIcEEEEfEEPvEENS_22__hash_node_destructorINS6_ISB_EEEEED1B8ne200100Ev, symObjAddr: 0x1A590, symBinAddr: 0x1151F0, symSize: 0x50 }
  - { offset: 0x75656D, size: 0x8, addend: 0x0, symName: __ZZN20llm_tokenizer_plamo25buildERK11llama_vocabENKUlRKNSt3__112basic_stringIcNS3_11char_traitsIcEENS3_9allocatorIcEEEESB_E_clESB_SB_, symObjAddr: 0x1B6D0, symBinAddr: 0x116330, symSize: 0x460 }
  - { offset: 0x7577DE, size: 0x8, addend: 0x0, symName: __ZNSt3__112__hash_tableINS_17__hash_value_typeIxiEENS_22__unordered_map_hasherIxS2_NS_4hashIxEENS_8equal_toIxEELb1EEENS_21__unordered_map_equalIxS2_S7_S5_Lb1EEENS_9allocatorIS2_EEE11__do_rehashILb1EEEvm, symObjAddr: 0x1D3A0, symBinAddr: 0x118000, symSize: 0x1B0 }
  - { offset: 0x757E4E, size: 0x8, addend: 0x0, symName: __ZNSt3__114__split_bufferINS_6vectorIiNS_9allocatorIiEEEERNS2_IS4_EEED1Ev, symObjAddr: 0x1D820, symBinAddr: 0x118480, symSize: 0x60 }
  - { offset: 0x75A344, size: 0x8, addend: 0x0, symName: _llama_split_path, symObjAddr: 0x4F30, symBinAddr: 0x11D820, symSize: 0x50 }
  - { offset: 0x75A402, size: 0x8, addend: 0x0, symName: _llama_print_system_info, symObjAddr: 0x52B0, symBinAddr: 0x11DBA0, symSize: 0x170 }
  - { offset: 0x75A42A, size: 0x8, addend: 0x0, symName: __ZZ23llama_print_system_infoE1s, symObjAddr: 0x189A80, symBinAddr: 0x3B61C0, symSize: 0x0 }
  - { offset: 0x7882A9, size: 0x8, addend: 0x0, symName: __ZZL21llama_params_fit_implPKcP18llama_model_paramsP20llama_context_paramsPfP32llama_model_tensor_buft_overridePmj14ggml_log_levelE15pattern_moe_all, symObjAddr: 0x189AA0, symBinAddr: 0x3B61E0, symSize: 0x0 }
  - { offset: 0x78854D, size: 0x8, addend: 0x0, symName: __ZL28llama_get_device_memory_dataPKcPK18llama_model_paramsPK20llama_context_paramsRNSt3__16vectorIP19ggml_backend_deviceNS7_9allocatorISA_EEEERjSF_SF_14ggml_log_level, symObjAddr: 0x5420, symBinAddr: 0x11DD10, symSize: 0x5D0 }
  - { offset: 0x78A8A7, size: 0x8, addend: 0x0, symName: _llama_flash_attn_type_name, symObjAddr: 0x0, symBinAddr: 0x118A00, symSize: 0x40 }
  - { offset: 0x78D08B, size: 0x8, addend: 0x0, symName: _llama_params_fit, symObjAddr: 0x40, symBinAddr: 0x118A40, symSize: 0x3360 }
  - { offset: 0x79567D, size: 0x8, addend: 0x0, symName: __ZN26llama_params_fit_exceptionD0Ev, symObjAddr: 0x7130, symBinAddr: 0x11F690, symSize: 0x20 }
  - { offset: 0x795695, size: 0x8, addend: 0x0, symName: '__ZZL21llama_params_fit_implPKcP18llama_model_paramsP20llama_context_paramsPfP32llama_model_tensor_buft_overridePmj14ggml_log_levelENK3$_2clES0_RKNSt3__16vectorIZL21llama_params_fit_implS0_S2_S4_S5_S7_S8_jS9_E5ngl_tNSB_9allocatorISD_EEEERKNSC_IP24ggml_backend_buffer_typeNSE_ISK_EEEE', symObjAddr: 0x5A00, symBinAddr: 0x11E2F0, symSize: 0x3A0 }
  - { offset: 0x79613D, size: 0x8, addend: 0x0, symName: __ZNSt3__16vectorIZL21llama_params_fit_implPKcP18llama_model_paramsP20llama_context_paramsPfP32llama_model_tensor_buft_overridePmj14ggml_log_levelE5ngl_tNS_9allocatorISC_EEEaSB8ne200100ERKSF_, symObjAddr: 0x5DA0, symBinAddr: 0x11E690, symSize: 0x170 }
  - { offset: 0x796B3F, size: 0x8, addend: 0x0, symName: __ZNSt3__16vectorIxNS_9allocatorIxEEE18__assign_with_sizeB8ne200100IPxS5_EEvT_T0_l, symObjAddr: 0x7170, symBinAddr: 0x11F6C0, symSize: 0x140 }
  - { offset: 0x797598, size: 0x8, addend: 0x0, symName: __ZNSt3__15arrayINS_12basic_stringIcNS_11char_traitsIcEENS_9allocatorIcEEEELm1000EED1Ev, symObjAddr: 0x72B0, symBinAddr: 0x11F800, symSize: 0x40 }
  - { offset: 0x7975C6, size: 0x8, addend: 0x0, symName: '__ZZL21llama_params_fit_implPKcP18llama_model_paramsP20llama_context_paramsPfP32llama_model_tensor_buft_overridePmj14ggml_log_levelENK3$_1clERKNSt3__16vectorIZL21llama_params_fit_implS0_S2_S4_S5_S7_S8_jS9_E5ngl_tNSB_9allocatorISD_EEEERKNSC_IP24ggml_backend_buffer_typeNSE_ISK_EEEERS1_', symObjAddr: 0x5F10, symBinAddr: 0x11E800, symSize: 0xD10 }
  - { offset: 0x79924E, size: 0x8, addend: 0x0, symName: __ZNSt3__16vectorIP24ggml_backend_buffer_typeNS_9allocatorIS2_EEE18__assign_with_sizeB8ne200100IPS2_S7_EEvT_T0_l, symObjAddr: 0x72F0, symBinAddr: 0x11F840, symSize: 0x140 }
  - { offset: 0x799CA7, size: 0x8, addend: 0x0, symName: '__ZZL31llama_model_load_from_file_implRKNSt3__112basic_stringIcNS_11char_traitsIcEENS_9allocatorIcEEEERNS_6vectorIS5_NS3_IS5_EEEE18llama_model_paramsEN3$_18__invokeEfPv', symObjAddr: 0x7430, symBinAddr: 0x11F980, symSize: 0xA0 }
  - { offset: 0x799CC4, size: 0x8, addend: 0x0, symName: __ZNSt3__16vectorIZL21llama_params_fit_implPKcP18llama_model_paramsP20llama_context_paramsPfP32llama_model_tensor_buft_overridePmj14ggml_log_levelE5ngl_tNS_9allocatorISC_EEE20__throw_length_errorB8ne200100Ev, symObjAddr: 0x7160, symBinAddr: 0x11F6B0, symSize: 0x10 }
  - { offset: 0x799CDC, size: 0x8, addend: 0x0, symName: __ZNSt3__16vectorIxNS_9allocatorIxEEE18__assign_with_sizeB8ne200100IPxS5_EEvT_T0_l, symObjAddr: 0x7170, symBinAddr: 0x11F6C0, symSize: 0x140 }
  - { offset: 0x799CF1, size: 0x8, addend: 0x0, symName: __ZNSt3__16vectorIZL21llama_params_fit_implPKcP18llama_model_paramsP20llama_context_paramsPfP32llama_model_tensor_buft_overridePmj14ggml_log_levelE5ngl_tNS_9allocatorISC_EEE20__throw_length_errorB8ne200100Ev, symObjAddr: 0x7160, symBinAddr: 0x11F6B0, symSize: 0x10 }
  - { offset: 0x79A02B, size: 0x8, addend: 0x0, symName: _llama_time_us, symObjAddr: 0x33A0, symBinAddr: 0x11BDA0, symSize: 0x10 }
  - { offset: 0x79A04E, size: 0x8, addend: 0x0, symName: _llama_sampler_chain_default_params, symObjAddr: 0x33C0, symBinAddr: 0x11BDB0, symSize: 0x10 }
  - { offset: 0x79A078, size: 0x8, addend: 0x0, symName: _llama_max_devices, symObjAddr: 0x33D0, symBinAddr: 0x11BDC0, symSize: 0x10 }
  - { offset: 0x79A093, size: 0x8, addend: 0x0, symName: _llama_max_tensor_buft_overrides, symObjAddr: 0x33E0, symBinAddr: 0x11BDD0, symSize: 0x10 }
  - { offset: 0x79A0AE, size: 0x8, addend: 0x0, symName: _llama_supports_mmap, symObjAddr: 0x33F0, symBinAddr: 0x11BDE0, symSize: 0x10 }
  - { offset: 0x79A0C9, size: 0x8, addend: 0x0, symName: _llama_supports_mlock, symObjAddr: 0x3400, symBinAddr: 0x11BDF0, symSize: 0x10 }
  - { offset: 0x79A0F2, size: 0x8, addend: 0x0, symName: _llama_supports_gpu_offload, symObjAddr: 0x3410, symBinAddr: 0x11BE00, symSize: 0x50 }
  - { offset: 0x79A17B, size: 0x8, addend: 0x0, symName: _llama_supports_rpc, symObjAddr: 0x3460, symBinAddr: 0x11BE50, symSize: 0x20 }
  - { offset: 0x79A19E, size: 0x8, addend: 0x0, symName: _llama_backend_init, symObjAddr: 0x3480, symBinAddr: 0x11BE70, symSize: 0x40 }
  - { offset: 0x79A235, size: 0x8, addend: 0x0, symName: _llama_numa_init, symObjAddr: 0x34C0, symBinAddr: 0x11BEB0, symSize: 0x70 }
  - { offset: 0x79A30C, size: 0x8, addend: 0x0, symName: _llama_backend_free, symObjAddr: 0x3530, symBinAddr: 0x11BF20, symSize: 0x10 }
  - { offset: 0x79A33B, size: 0x8, addend: 0x0, symName: _llama_load_model_from_file, symObjAddr: 0x3540, symBinAddr: 0x11BF30, symSize: 0x10 }
  - { offset: 0x79A38C, size: 0x8, addend: 0x0, symName: _llama_model_load_from_file, symObjAddr: 0x3550, symBinAddr: 0x11BF40, symSize: 0x180 }
  - { offset: 0x79ABAE, size: 0x8, addend: 0x0, symName: __ZL31llama_model_load_from_file_implRKNSt3__112basic_stringIcNS_11char_traitsIcEENS_9allocatorIcEEEERNS_6vectorIS5_NS3_IS5_EEEE18llama_model_params, symObjAddr: 0x36D0, symBinAddr: 0x11C0C0, symSize: 0xFC0 }
  - { offset: 0x7A297C, size: 0x8, addend: 0x0, symName: __ZNSt3__16vectorIP19ggml_backend_deviceNS_9allocatorIS2_EEE18__insert_with_sizeB8ne200100INS_11__wrap_iterIPS2_EES9_EES9_NS7_IPKS2_EET_T0_l, symObjAddr: 0x7560, symBinAddr: 0x11FA20, symSize: 0x450 }
  - { offset: 0x7A3E27, size: 0x8, addend: 0x0, symName: __ZNSt3__16vectorIP19ggml_backend_deviceNS_9allocatorIS2_EEE20__throw_length_errorB8ne200100Ev, symObjAddr: 0x6E50, symBinAddr: 0x11F680, symSize: 0x10 }
  - { offset: 0x7A4042, size: 0x8, addend: 0x0, symName: _llama_model_load_from_splits, symObjAddr: 0x4790, symBinAddr: 0x11D080, symSize: 0x340 }
  - { offset: 0x7A4E04, size: 0x8, addend: 0x0, symName: _llama_model_save_to_file, symObjAddr: 0x4AD0, symBinAddr: 0x11D3C0, symSize: 0x140 }
  - { offset: 0x7A56D8, size: 0x8, addend: 0x0, symName: _llama_chat_apply_template, symObjAddr: 0x4C10, symBinAddr: 0x11D500, symSize: 0x320 }
  - { offset: 0x7A64C1, size: 0x8, addend: 0x0, symName: __ZNSt3__16vectorIPK18llama_chat_messageNS_9allocatorIS3_EEE20__throw_length_errorB8ne200100Ev, symObjAddr: 0x7BF0, symBinAddr: 0x11FE70, symSize: 0x10 }
  - { offset: 0x7A64D9, size: 0x8, addend: 0x0, symName: _llama_print_system_info.cold.1, symObjAddr: 0x7C00, symBinAddr: 0x2BB7B0, symSize: 0x50 }
  - { offset: 0x7A653E, size: 0x8, addend: 0x0, symName: _llama_split_prefix, symObjAddr: 0x4F80, symBinAddr: 0x11D870, symSize: 0x330 }
  - { offset: 0x7A71B7, size: 0x8, addend: 0x0, symName: _llama_print_system_info.cold.1, symObjAddr: 0x7C00, symBinAddr: 0x2BB7B0, symSize: 0x50 }
  - { offset: 0x7A76B2, size: 0x8, addend: 0x0, symName: __ZNSt3__16vectorIP19ggml_backend_deviceNS_9allocatorIS2_EEE18__assign_with_sizeB8ne200100IPS2_S7_EEvT_T0_l, symObjAddr: 0x6D10, symBinAddr: 0x11F540, symSize: 0x140 }
  - { offset: 0x7A810B, size: 0x8, addend: 0x0, symName: __ZNSt3__16vectorIP19ggml_backend_deviceNS_9allocatorIS2_EEE20__throw_length_errorB8ne200100Ev, symObjAddr: 0x6E50, symBinAddr: 0x11F680, symSize: 0x10 }
  - { offset: 0x7A8216, size: 0x8, addend: 0x0, symName: __ZNSt3__16vectorI24llama_device_memory_dataNS_9allocatorIS1_EEE20__throw_length_errorB8ne200100Ev, symObjAddr: 0x6C40, symBinAddr: 0x11F530, symSize: 0x10 }
  - { offset: 0x7A8255, size: 0x8, addend: 0x0, symName: __ZN26llama_params_fit_exceptionD1Ev, symObjAddr: 0x59F0, symBinAddr: 0x11E2E0, symSize: 0x10 }
  - { offset: 0x7A8520, size: 0x8, addend: 0x0, symName: '__ZZL21llama_params_fit_implPKcP18llama_model_paramsP20llama_context_paramsPfP32llama_model_tensor_buft_overridePmj14ggml_log_levelENK3$_1clERKNSt3__16vectorIZL21llama_params_fit_implS0_S2_S4_S5_S7_S8_jS9_E5ngl_tNSB_9allocatorISD_EEEERKNSC_IP24ggml_backend_buffer_typeNSE_ISK_EEEERS1_.cold.2', symObjAddr: 0x7CB0, symBinAddr: 0x2BB860, symSize: 0x60 }
  - { offset: 0x7A85B6, size: 0x8, addend: 0x0, symName: '__ZZL21llama_params_fit_implPKcP18llama_model_paramsP20llama_context_paramsPfP32llama_model_tensor_buft_overridePmj14ggml_log_levelENK3$_1clERKNSt3__16vectorIZL21llama_params_fit_implS0_S2_S4_S5_S7_S8_jS9_E5ngl_tNSB_9allocatorISD_EEEERKNSC_IP24ggml_backend_buffer_typeNSE_ISK_EEEERS1_.cold.1', symObjAddr: 0x7C50, symBinAddr: 0x2BB800, symSize: 0x60 }
  - { offset: 0x7A864C, size: 0x8, addend: 0x0, symName: '__ZZL21llama_params_fit_implPKcP18llama_model_paramsP20llama_context_paramsPfP32llama_model_tensor_buft_overridePmj14ggml_log_levelENK3$_1clERKNSt3__16vectorIZL21llama_params_fit_implS0_S2_S4_S5_S7_S8_jS9_E5ngl_tNSB_9allocatorISD_EEEERKNSC_IP24ggml_backend_buffer_typeNSE_ISK_EEEERS1_.cold.4', symObjAddr: 0x7D70, symBinAddr: 0x2BB920, symSize: 0x55 }
  - { offset: 0x7A86E2, size: 0x8, addend: 0x0, symName: '__ZZL21llama_params_fit_implPKcP18llama_model_paramsP20llama_context_paramsPfP32llama_model_tensor_buft_overridePmj14ggml_log_levelENK3$_1clERKNSt3__16vectorIZL21llama_params_fit_implS0_S2_S4_S5_S7_S8_jS9_E5ngl_tNSB_9allocatorISD_EEEERKNSC_IP24ggml_backend_buffer_typeNSE_ISK_EEEERS1_.cold.3', symObjAddr: 0x7D10, symBinAddr: 0x2BB8C0, symSize: 0x60 }
  - { offset: 0x7A87DF, size: 0x8, addend: 0x0, symName: '__ZZL28llama_get_device_memory_dataPKcPK18llama_model_paramsPK20llama_context_paramsRNSt3__16vectorIP19ggml_backend_deviceNS7_9allocatorISA_EEEERjSF_SF_14ggml_log_levelEN3$_08__invokeESG_S0_Pv', symObjAddr: 0x6C20, symBinAddr: 0x11F510, symSize: 0x20 }
  - { offset: 0x7A8C83, size: 0x8, addend: 0x0, symName: __ZN26llama_params_fit_exceptionD0Ev, symObjAddr: 0x7130, symBinAddr: 0x11F690, symSize: 0x20 }
  - { offset: 0x7A8E64, size: 0x8, addend: 0x0, symName: __ZNSt3__15arrayINS_12basic_stringIcNS_11char_traitsIcEENS_9allocatorIcEEEELm1000EED1Ev, symObjAddr: 0x72B0, symBinAddr: 0x11F800, symSize: 0x40 }
  - { offset: 0x7A90CE, size: 0x8, addend: 0x0, symName: '__ZZL31llama_model_load_from_file_implRKNSt3__112basic_stringIcNS_11char_traitsIcEENS_9allocatorIcEEEERNS_6vectorIS5_NS3_IS5_EEEE18llama_model_paramsEN3$_18__invokeEfPv', symObjAddr: 0x7430, symBinAddr: 0x11F980, symSize: 0xA0 }
  - { offset: 0x7AC38D, size: 0x8, addend: 0x0, symName: __ZN15llm_build_afmoeC2ERK11llama_modelRK16llm_graph_params, symObjAddr: 0x0, symBinAddr: 0x11FE80, symSize: 0x9C0 }
  - { offset: 0x7CBA82, size: 0x8, addend: 0x0, symName: __ZN15llm_build_afmoeC2ERK11llama_modelRK16llm_graph_params, symObjAddr: 0x0, symBinAddr: 0x11FE80, symSize: 0x9C0 }
  - { offset: 0x7CC241, size: 0x8, addend: 0x0, symName: __ZN15llm_build_afmoeC1ERK11llama_modelRK16llm_graph_params, symObjAddr: 0x9C0, symBinAddr: 0x120840, symSize: 0x10 }
  - { offset: 0x7CC2CE, size: 0x8, addend: 0x0, symName: __ZN15llm_build_afmoeD1Ev, symObjAddr: 0x9D0, symBinAddr: 0x120850, symSize: 0x30 }
  - { offset: 0x7CC3C7, size: 0x8, addend: 0x0, symName: __ZN15llm_build_afmoeD0Ev, symObjAddr: 0xA00, symBinAddr: 0x120880, symSize: 0x40 }
  - { offset: 0x7CE42F, size: 0x8, addend: 0x0, symName: __ZN17llm_build_apertusC2ERK11llama_modelRK16llm_graph_params, symObjAddr: 0x0, symBinAddr: 0x1208C0, symSize: 0x720 }
  - { offset: 0x7EDB24, size: 0x8, addend: 0x0, symName: __ZN17llm_build_apertusC2ERK11llama_modelRK16llm_graph_params, symObjAddr: 0x0, symBinAddr: 0x1208C0, symSize: 0x720 }
  - { offset: 0x7EE1EE, size: 0x8, addend: 0x0, symName: __ZN17llm_build_apertusC1ERK11llama_modelRK16llm_graph_params, symObjAddr: 0x720, symBinAddr: 0x120FE0, symSize: 0x10 }
